; Listing generated by Microsoft (R) Optimizing Compiler Version 18.00.30501.0 

	TITLE	D:\Engine Class\Assignment 1\Scratch\DXSSE\DXUT\Optional\DXUTsettingsdlg.cpp
	.686P
	.XMM
	include listing.inc
	.model	flat

INCLUDELIB MSVCRTD
INCLUDELIB OLDNAMES

PUBLIC	?g_DeviceSettings@@3UDXUTDeviceSettings@@A	; g_DeviceSettings
_BSS	SEGMENT
?g_DeviceSettings@@3UDXUTDeviceSettings@@A DB 064H DUP (?) ; g_DeviceSettings
_BSS	ENDS
CONST	SEGMENT
$SG159897 DB	'G', 00H, 'e', 00H, 't', 00H, 'D', 00H, 'e', 00H, 'v', 00H
	DB	'i', 00H, 'c', 00H, 'e', 00H, 'S', 00H, 'e', 00H, 't', 00H, 't'
	DB	00H, 'i', 00H, 'n', 00H, 'g', 00H, 's', 00H, 'C', 00H, 'o', 00H
	DB	'm', 00H, 'b', 00H, 'o', 00H, 00H, 00H
	ORG $+2
$SG159898 DB	'DXUTsettingsdlg.cpp', 00H
$SG159994 DB	'G', 00H, 'e', 00H, 't', 00H, 'D', 00H, '3', 00H, 'D', 00H
	DB	'1', 00H, '1', 00H, 'A', 00H, 'd', 00H, 'a', 00H, 'p', 00H, 't'
	DB	00H, 'e', 00H, 'r', 00H, 'D', 00H, 'i', 00H, 's', 00H, 'p', 00H
	DB	'l', 00H, 'a', 00H, 'y', 00H, 'M', 00H, 'o', 00H, 'd', 00H, 'e'
	DB	00H, 00H, 00H
	ORG $+2
$SG159995 DB	'D', 00H, 'X', 00H, 'U', 00H, 'T', 00H, 's', 00H, 'e', 00H
	DB	't', 00H, 't', 00H, 'i', 00H, 'n', 00H, 'g', 00H, 's', 00H, 'd'
	DB	00H, 'l', 00H, 'g', 00H, '.', 00H, 'c', 00H, 'p', 00H, 'p', 00H
	DB	00H, 00H
$SG160186 DB	'%', 00H, 'u', 00H, ' ', 00H, 'b', 00H, 'y', 00H, ' ', 00H
	DB	'%', 00H, 'u', 00H, 00H, 00H
	ORG $+2
$SG160217 DB	'D', 00H, '3', 00H, 'D', 00H, '_', 00H, 'F', 00H, 'E', 00H
	DB	'A', 00H, 'T', 00H, 'U', 00H, 'R', 00H, 'E', 00H, '_', 00H, 'L'
	DB	00H, 'E', 00H, 'V', 00H, 'E', 00H, 'L', 00H, '_', 00H, '9', 00H
	DB	'_', 00H, '1', 00H, 00H, 00H
$SG160221 DB	'D', 00H, '3', 00H, 'D', 00H, '_', 00H, 'F', 00H, 'E', 00H
	DB	'A', 00H, 'T', 00H, 'U', 00H, 'R', 00H, 'E', 00H, '_', 00H, 'L'
	DB	00H, 'E', 00H, 'V', 00H, 'E', 00H, 'L', 00H, '_', 00H, '9', 00H
	DB	'_', 00H, '1', 00H, 00H, 00H
$SG160224 DB	'D', 00H, '3', 00H, 'D', 00H, '_', 00H, 'F', 00H, 'E', 00H
	DB	'A', 00H, 'T', 00H, 'U', 00H, 'R', 00H, 'E', 00H, '_', 00H, 'L'
	DB	00H, 'E', 00H, 'V', 00H, 'E', 00H, 'L', 00H, '_', 00H, '9', 00H
	DB	'_', 00H, '2', 00H, 00H, 00H
$SG160228 DB	'D', 00H, '3', 00H, 'D', 00H, '_', 00H, 'F', 00H, 'E', 00H
	DB	'A', 00H, 'T', 00H, 'U', 00H, 'R', 00H, 'E', 00H, '_', 00H, 'L'
	DB	00H, 'E', 00H, 'V', 00H, 'E', 00H, 'L', 00H, '_', 00H, '9', 00H
	DB	'_', 00H, '2', 00H, 00H, 00H
$SG160231 DB	'D', 00H, '3', 00H, 'D', 00H, '_', 00H, 'F', 00H, 'E', 00H
	DB	'A', 00H, 'T', 00H, 'U', 00H, 'R', 00H, 'E', 00H, '_', 00H, 'L'
	DB	00H, 'E', 00H, 'V', 00H, 'E', 00H, 'L', 00H, '_', 00H, '9', 00H
	DB	'_', 00H, '3', 00H, 00H, 00H
$SG160235 DB	'D', 00H, '3', 00H, 'D', 00H, '_', 00H, 'F', 00H, 'E', 00H
	DB	'A', 00H, 'T', 00H, 'U', 00H, 'R', 00H, 'E', 00H, '_', 00H, 'L'
	DB	00H, 'E', 00H, 'V', 00H, 'E', 00H, 'L', 00H, '_', 00H, '9', 00H
	DB	'_', 00H, '3', 00H, 00H, 00H
$SG160238 DB	'D', 00H, '3', 00H, 'D', 00H, '_', 00H, 'F', 00H, 'E', 00H
	DB	'A', 00H, 'T', 00H, 'U', 00H, 'R', 00H, 'E', 00H, '_', 00H, 'L'
	DB	00H, 'E', 00H, 'V', 00H, 'E', 00H, 'L', 00H, '_', 00H, '1', 00H
	DB	'0', 00H, '_', 00H, '0', 00H, 00H, 00H
	ORG $+2
$SG160242 DB	'D', 00H, '3', 00H, 'D', 00H, '_', 00H, 'F', 00H, 'E', 00H
	DB	'A', 00H, 'T', 00H, 'U', 00H, 'R', 00H, 'E', 00H, '_', 00H, 'L'
	DB	00H, 'E', 00H, 'V', 00H, 'E', 00H, 'L', 00H, '_', 00H, '1', 00H
	DB	'0', 00H, '_', 00H, '0', 00H, 00H, 00H
	ORG $+2
$SG160245 DB	'D', 00H, '3', 00H, 'D', 00H, '_', 00H, 'F', 00H, 'E', 00H
	DB	'A', 00H, 'T', 00H, 'U', 00H, 'R', 00H, 'E', 00H, '_', 00H, 'L'
	DB	00H, 'E', 00H, 'V', 00H, 'E', 00H, 'L', 00H, '_', 00H, '1', 00H
	DB	'0', 00H, '_', 00H, '1', 00H, 00H, 00H
	ORG $+2
$SG160249 DB	'D', 00H, '3', 00H, 'D', 00H, '_', 00H, 'F', 00H, 'E', 00H
	DB	'A', 00H, 'T', 00H, 'U', 00H, 'R', 00H, 'E', 00H, '_', 00H, 'L'
	DB	00H, 'E', 00H, 'V', 00H, 'E', 00H, 'L', 00H, '_', 00H, '1', 00H
	DB	'0', 00H, '_', 00H, '1', 00H, 00H, 00H
	ORG $+2
$SG160252 DB	'D', 00H, '3', 00H, 'D', 00H, '_', 00H, 'F', 00H, 'E', 00H
	DB	'A', 00H, 'T', 00H, 'U', 00H, 'R', 00H, 'E', 00H, '_', 00H, 'L'
	DB	00H, 'E', 00H, 'V', 00H, 'E', 00H, 'L', 00H, '_', 00H, '1', 00H
	DB	'1', 00H, '_', 00H, '0', 00H, 00H, 00H
	ORG $+2
$SG160256 DB	'D', 00H, '3', 00H, 'D', 00H, '_', 00H, 'F', 00H, 'E', 00H
	DB	'A', 00H, 'T', 00H, 'U', 00H, 'R', 00H, 'E', 00H, '_', 00H, 'L'
	DB	00H, 'E', 00H, 'V', 00H, 'E', 00H, 'L', 00H, '_', 00H, '1', 00H
	DB	'1', 00H, '_', 00H, '0', 00H, 00H, 00H
	ORG $+2
$SG160259 DB	'D', 00H, '3', 00H, 'D', 00H, '_', 00H, 'F', 00H, 'E', 00H
	DB	'A', 00H, 'T', 00H, 'U', 00H, 'R', 00H, 'E', 00H, '_', 00H, 'L'
	DB	00H, 'E', 00H, 'V', 00H, 'E', 00H, 'L', 00H, '_', 00H, '1', 00H
	DB	'1', 00H, '_', 00H, '1', 00H, 00H, 00H
	ORG $+2
$SG160263 DB	'D', 00H, '3', 00H, 'D', 00H, '_', 00H, 'F', 00H, 'E', 00H
	DB	'A', 00H, 'T', 00H, 'U', 00H, 'R', 00H, 'E', 00H, '_', 00H, 'L'
	DB	00H, 'E', 00H, 'V', 00H, 'E', 00H, 'L', 00H, '_', 00H, '1', 00H
	DB	'1', 00H, '_', 00H, '1', 00H, 00H, 00H
	ORG $+2
$SG160280 DB	'D', 00H, 'e', 00H, 'f', 00H, 'a', 00H, 'u', 00H, 'l', 00H
	DB	't', 00H, ' ', 00H, 'R', 00H, 'a', 00H, 't', 00H, 'e', 00H, 00H
	DB	00H
	ORG $+2
$SG160282 DB	'%', 00H, 'u', 00H, ' ', 00H, 'H', 00H, 'z', 00H, 00H, 00H
$SG159265 DB	'D', 00H, 'X', 00H, 'U', 00H, 'T', 00H, 's', 00H, 'e', 00H
	DB	't', 00H, 't', 00H, 'i', 00H, 'n', 00H, 'g', 00H, 's', 00H, 'd'
	DB	00H, 'l', 00H, 'g', 00H, '.', 00H, 'c', 00H, 'p', 00H, 'p', 00H
	DB	00H, 00H
$SG159266 DB	'p', 00H, 'M', 00H, 'a', 00H, 'n', 00H, 'a', 00H, 'g', 00H
	DB	'e', 00H, 'r', 00H, 00H, 00H
	ORG $+2
$SG159273 DB	'D', 00H, 'X', 00H, 'U', 00H, 'T', 00H, 's', 00H, 'e', 00H
	DB	't', 00H, 't', 00H, 'i', 00H, 'n', 00H, 'g', 00H, 's', 00H, 'd'
	DB	00H, 'l', 00H, 'g', 00H, '.', 00H, 'c', 00H, 'p', 00H, 'p', 00H
	DB	00H, 00H
$SG159274 DB	'p', 00H, 'M', 00H, 'a', 00H, 'n', 00H, 'a', 00H, 'g', 00H
	DB	'e', 00H, 'r', 00H, 00H, 00H
	ORG $+2
$SG159282 DB	'D', 00H, 'X', 00H, 'U', 00H, 'T', 00H, 's', 00H, 'e', 00H
	DB	't', 00H, 't', 00H, 'i', 00H, 'n', 00H, 'g', 00H, 's', 00H, 'd'
	DB	00H, 'l', 00H, 'g', 00H, '.', 00H, 'c', 00H, 'p', 00H, 'p', 00H
	DB	00H, 00H
$SG159283 DB	'p', 00H, 'M', 00H, 'a', 00H, 'n', 00H, 'a', 00H, 'g', 00H
	DB	'e', 00H, 'r', 00H, 00H, 00H
	ORG $+2
$SG159287 DB	'A', 00H, 'r', 00H, 'i', 00H, 'a', 00H, 'l', 00H, 00H, 00H
$SG159288 DB	'A', 00H, 'r', 00H, 'i', 00H, 'a', 00H, 'l', 00H, 00H, 00H
$SG159293 DB	'D', 00H, 'i', 00H, 'r', 00H, 'e', 00H, 'c', 00H, 't', 00H
	DB	'3', 00H, 'D', 00H, ' ', 00H, 'S', 00H, 'e', 00H, 't', 00H, 't'
	DB	00H, 'i', 00H, 'n', 00H, 'g', 00H, 's', 00H, 00H, 00H
$SG159294 DB	'F', 00H, 'e', 00H, 'a', 00H, 't', 00H, 'u', 00H, 'r', 00H
	DB	'e', 00H, ' ', 00H, 'L', 00H, 'e', 00H, 'v', 00H, 'e', 00H, 'l'
	DB	00H, 00H, 00H
$SG159295 DB	'D', 00H, 'i', 00H, 's', 00H, 'p', 00H, 'l', 00H, 'a', 00H
	DB	'y', 00H, ' ', 00H, 'A', 00H, 'd', 00H, 'a', 00H, 'p', 00H, 't'
	DB	00H, 'e', 00H, 'r', 00H, 00H, 00H
$SG159296 DB	'R', 00H, 'e', 00H, 'n', 00H, 'd', 00H, 'e', 00H, 'r', 00H
	DB	' ', 00H, 'D', 00H, 'e', 00H, 'v', 00H, 'i', 00H, 'c', 00H, 'e'
	DB	00H, 00H, 00H
$SG159297 DB	'W', 00H, 'i', 00H, 'n', 00H, 'd', 00H, 'o', 00H, 'w', 00H
	DB	'e', 00H, 'd', 00H, 00H, 00H
	ORG $+2
$SG159298 DB	'F', 00H, 'u', 00H, 'l', 00H, 'l', 00H, ' ', 00H, 'S', 00H
	DB	'c', 00H, 'r', 00H, 'e', 00H, 'e', 00H, 'n', 00H, 00H, 00H
$SG159299 DB	'S', 00H, 'h', 00H, 'o', 00H, 'w', 00H, ' ', 00H, 'A', 00H
	DB	'l', 00H, 'l', 00H, ' ', 00H, 'A', 00H, 's', 00H, 'p', 00H, 'e'
	DB	00H, 'c', 00H, 't', 00H, ' ', 00H, 'R', 00H, 'a', 00H, 't', 00H
	DB	'i', 00H, 'o', 00H, 's', 00H, 00H, 00H
	ORG $+2
$SG160324 DB	'%', 00H, 'u', 00H, 00H, 00H
	ORG $+2
$SG159300 DB	'A', 00H, 'd', 00H, 'a', 00H, 'p', 00H, 't', 00H, 'e', 00H
	DB	'r', 00H, ' ', 00H, 'O', 00H, 'u', 00H, 't', 00H, 'p', 00H, 'u'
	DB	00H, 't', 00H, 00H, 00H
	ORG $+2
$SG159301 DB	'R', 00H, 'e', 00H, 's', 00H, 'o', 00H, 'l', 00H, 'u', 00H
	DB	't', 00H, 'i', 00H, 'o', 00H, 'n', 00H, 00H, 00H
	ORG $+2
$SG159302 DB	'R', 00H, 'e', 00H, 'f', 00H, 'r', 00H, 'e', 00H, 's', 00H
	DB	'h', 00H, ' ', 00H, 'R', 00H, 'a', 00H, 't', 00H, 'e', 00H, 00H
	DB	00H
	ORG $+2
$SG159303 DB	'B', 00H, 'a', 00H, 'c', 00H, 'k', 00H, ' ', 00H, 'B', 00H
	DB	'u', 00H, 'f', 00H, 'f', 00H, 'e', 00H, 'r', 00H, ' ', 00H, 'F'
	DB	00H, 'o', 00H, 'r', 00H, 'm', 00H, 'a', 00H, 't', 00H, 00H, 00H
	ORG $+2
$SG159304 DB	'M', 00H, 'u', 00H, 'l', 00H, 't', 00H, 'i', 00H, 's', 00H
	DB	'a', 00H, 'm', 00H, 'p', 00H, 'l', 00H, 'e', 00H, ' ', 00H, 'C'
	DB	00H, 'o', 00H, 'u', 00H, 'n', 00H, 't', 00H, 00H, 00H
$SG159305 DB	'M', 00H, 'u', 00H, 'l', 00H, 't', 00H, 'i', 00H, 's', 00H
	DB	'a', 00H, 'm', 00H, 'p', 00H, 'l', 00H, 'e', 00H, ' ', 00H, 'Q'
	DB	00H, 'u', 00H, 'a', 00H, 'l', 00H, 'i', 00H, 't', 00H, 'y', 00H
	DB	00H, 00H
$SG159306 DB	'V', 00H, 'e', 00H, 'r', 00H, 't', 00H, 'i', 00H, 'c', 00H
	DB	'a', 00H, 'l', 00H, ' ', 00H, 'S', 00H, 'y', 00H, 'n', 00H, 'c'
	DB	00H, 00H, 00H
$SG159313 DB	'O', 00H, 'n', 00H, 00H, 00H
	ORG $+2
$SG159317 DB	'O', 00H, 'f', 00H, 'f', 00H, 00H, 00H
$SG159318 DB	'C', 00H, 'r', 00H, 'e', 00H, 'a', 00H, 't', 00H, 'e', 00H
	DB	' ', 00H, 'D', 00H, 'e', 00H, 'b', 00H, 'u', 00H, 'g', 00H, ' '
	DB	00H, 'D', 00H, 'e', 00H, 'v', 00H, 'i', 00H, 'c', 00H, 'e', 00H
	DB	00H, 00H
$SG159319 DB	'O', 00H, 'K', 00H, 00H, 00H
	ORG $+2
$SG160344 DB	'%', 00H, 'u', 00H, 00H, 00H
	ORG $+2
$SG159320 DB	'C', 00H, 'a', 00H, 'n', 00H, 'c', 00H, 'e', 00H, 'l', 00H
	DB	00H, 00H
	ORG $+2
$SG159321 DB	'A', 00H, 'r', 00H, 'i', 00H, 'a', 00H, 'l', 00H, 00H, 00H
$SG159322 DB	'A', 00H, 'r', 00H, 'i', 00H, 'a', 00H, 'l', 00H, 00H, 00H
$SG159327 DB	'D', 00H, 'o', 00H, ' ', 00H, 'y', 00H, 'o', 00H, 'u', 00H
	DB	' ', 00H, 'w', 00H, 'a', 00H, 'n', 00H, 't', 00H, ' ', 00H, 't'
	DB	00H, 'o', 00H, ' ', 00H, 'k', 00H, 'e', 00H, 'e', 00H, 'p', 00H
	DB	' ', 00H, 't', 00H, 'h', 00H, 'e', 00H, 's', 00H, 'e', 00H, ' '
	DB	00H, 'd', 00H, 'i', 00H, 's', 00H, 'p', 00H, 'l', 00H, 'a', 00H
	DB	'y', 00H, ' ', 00H, 's', 00H, 'e', 00H, 't', 00H, 't', 00H, 'i'
	DB	00H, 'n', 00H, 'g', 00H, 's', 00H, '?', 00H, 00H, 00H
$SG159330 DB	00H, 00H
	ORG $+2
$SG159331 DB	'Y', 00H, 'e', 00H, 's', 00H, 00H, 00H
$SG159332 DB	'N', 00H, 'o', 00H, 00H, 00H
	ORG $+2
$SG159346 DB	'G', 00H, 'e', 00H, 't', 00H, 'D', 00H, 'e', 00H, 'v', 00H
	DB	'i', 00H, 'c', 00H, 'e', 00H, 'S', 00H, 'e', 00H, 't', 00H, 't'
	DB	00H, 'i', 00H, 'n', 00H, 'g', 00H, 's', 00H, 'C', 00H, 'o', 00H
	DB	'm', 00H, 'b', 00H, 'o', 00H, 00H, 00H
	ORG $+2
$SG159347 DB	'DXUTsettingsdlg.cpp', 00H
$SG159370 DB	'C', 00H, 'D', 00H, '3', 00H, 'D', 00H, 'S', 00H, 'e', 00H
	DB	't', 00H, 't', 00H, 'i', 00H, 'n', 00H, 'g', 00H, 's', 00H, 'D'
	DB	00H, 'l', 00H, 'g', 00H, ':', 00H, ':', 00H, 'O', 00H, 'n', 00H
	DB	'C', 00H, 'r', 00H, 'e', 00H, 'a', 00H, 't', 00H, 'e', 00H, 'd'
	DB	00H, 'D', 00H, 'e', 00H, 'v', 00H, 'i', 00H, 'c', 00H, 'e', 00H
	DB	00H, 00H
	ORG $+2
$SG159371 DB	'DXUTsettingsdlg.cpp', 00H
$SG160572 DB	'R', 00H, 'e', 00H, 'v', 00H, 'e', 00H, 'r', 00H, 't', 00H
	DB	'i', 00H, 'n', 00H, 'g', 00H, ' ', 00H, 't', 00H, 'o', 00H, ' '
	DB	00H, 'p', 00H, 'r', 00H, 'e', 00H, 'v', 00H, 'i', 00H, 'o', 00H
	DB	'u', 00H, 's', 00H, ' ', 00H, 'd', 00H, 'i', 00H, 's', 00H, 'p'
	DB	00H, 'l', 00H, 'a', 00H, 'y', 00H, ' ', 00H, 's', 00H, 'e', 00H
	DB	't', 00H, 't', 00H, 'i', 00H, 'n', 00H, 'g', 00H, 's', 00H, ' '
	DB	00H, 'i', 00H, 'n', 00H, ' ', 00H, '%', 00H, 'd', 00H, ' ', 00H
	DB	's', 00H, 'e', 00H, 'c', 00H, 'o', 00H, 'n', 00H, 'd', 00H, 's'
	DB	00H, 00H, 00H
	ORG $+2
$SG160591 DB	'D', 00H, '3', 00H, 'D', 00H, '_', 00H, 'D', 00H, 'R', 00H
	DB	'I', 00H, 'V', 00H, 'E', 00H, 'R', 00H, '_', 00H, 'T', 00H, 'Y'
	DB	00H, 'P', 00H, 'E', 00H, '_', 00H, 'H', 00H, 'A', 00H, 'R', 00H
	DB	'D', 00H, 'W', 00H, 'A', 00H, 'R', 00H, 'E', 00H, 00H, 00H
	ORG $+2
$SG160593 DB	'D', 00H, '3', 00H, 'D', 00H, '_', 00H, 'D', 00H, 'R', 00H
	DB	'I', 00H, 'V', 00H, 'E', 00H, 'R', 00H, '_', 00H, 'T', 00H, 'Y'
	DB	00H, 'P', 00H, 'E', 00H, '_', 00H, 'R', 00H, 'E', 00H, 'F', 00H
	DB	'E', 00H, 'R', 00H, 'E', 00H, 'N', 00H, 'C', 00H, 'E', 00H, 00H
	DB	00H
$SG160595 DB	'D', 00H, '3', 00H, 'D', 00H, '_', 00H, 'D', 00H, 'R', 00H
	DB	'I', 00H, 'V', 00H, 'E', 00H, 'R', 00H, '_', 00H, 'T', 00H, 'Y'
	DB	00H, 'P', 00H, 'E', 00H, '_', 00H, 'N', 00H, 'U', 00H, 'L', 00H
	DB	'L', 00H, 00H, 00H
	ORG $+2
$SG160597 DB	'D', 00H, '3', 00H, 'D', 00H, '_', 00H, 'D', 00H, 'R', 00H
	DB	'I', 00H, 'V', 00H, 'E', 00H, 'R', 00H, '_', 00H, 'T', 00H, 'Y'
	DB	00H, 'P', 00H, 'E', 00H, '_', 00H, 'W', 00H, 'A', 00H, 'R', 00H
	DB	'P', 00H, 00H, 00H
	ORG $+2
$SG160599 DB	'U', 00H, 'n', 00H, 'k', 00H, 'n', 00H, 'o', 00H, 'w', 00H
	DB	'n', 00H, ' ', 00H, 'd', 00H, 'e', 00H, 'v', 00H, 'T', 00H, 'y'
	DB	00H, 'p', 00H, 'e', 00H, 00H, 00H
$SG159682 DB	'DXUTsettingsdlg.cpp', 00H
$SG159681 DB	'C', 00H, 'D', 00H, '3', 00H, 'D', 00H, 'S', 00H, 'e', 00H
	DB	't', 00H, 't', 00H, 'i', 00H, 'n', 00H, 'g', 00H, 's', 00H, 'D'
	DB	00H, 'l', 00H, 'g', 00H, ':', 00H, ':', 00H, 'O', 00H, 'n', 00H
	DB	'C', 00H, 'r', 00H, 'e', 00H, 'a', 00H, 't', 00H, 'e', 00H, 'd'
	DB	00H, 'D', 00H, 'e', 00H, 'v', 00H, 'i', 00H, 'c', 00H, 'e', 00H
	DB	00H, 00H
	ORG $+2
$SG159721 DB	'D', 00H, 'X', 00H, 'U', 00H, 'T', 00H, 's', 00H, 'e', 00H
	DB	't', 00H, 't', 00H, 'i', 00H, 'n', 00H, 'g', 00H, 's', 00H, 'd'
	DB	00H, 'l', 00H, 'g', 00H, '.', 00H, 'c', 00H, 'p', 00H, 'p', 00H
	DB	00H, 00H
$SG159722 DB	'p', 00H, 'D', 00H, '3', 00H, 'D', 00H, 'S', 00H, 'e', 00H
	DB	't', 00H, 't', 00H, 'i', 00H, 'n', 00H, 'g', 00H, 's', 00H, 00H
	DB	00H
	ORG $+2
$SG159724 DB	'D', 00H, 'X', 00H, 'U', 00H, 'T', 00H, 's', 00H, 'e', 00H
	DB	't', 00H, 't', 00H, 'i', 00H, 'n', 00H, 'g', 00H, 's', 00H, 'd'
	DB	00H, 'l', 00H, 'g', 00H, '.', 00H, 'c', 00H, 'p', 00H, 'p', 00H
	DB	00H, 00H
$SG159725 DB	'p', 00H, 'D', 00H, '3', 00H, 'D', 00H, 'S', 00H, 'e', 00H
	DB	't', 00H, 't', 00H, 'i', 00H, 'n', 00H, 'g', 00H, 's', 00H, '-'
	DB	00H, '>', 00H, 'm', 00H, '_', 00H, 'p', 00H, 'A', 00H, 'c', 00H
	DB	't', 00H, 'i', 00H, 'v', 00H, 'e', 00H, 'D', 00H, 'i', 00H, 'a'
	DB	00H, 'l', 00H, 'o', 00H, 'g', 00H, ' ', 00H, '=', 00H, '=', 00H
	DB	' ', 00H, '&', 00H, 'p', 00H, 'D', 00H, '3', 00H, 'D', 00H, 'S'
	DB	00H, 'e', 00H, 't', 00H, 't', 00H, 'i', 00H, 'n', 00H, 'g', 00H
	DB	's', 00H, '-', 00H, '>', 00H, 'm', 00H, '_', 00H, 'R', 00H, 'e'
	DB	00H, 'v', 00H, 'e', 00H, 'r', 00H, 't', 00H, 'M', 00H, 'o', 00H
	DB	'd', 00H, 'e', 00H, 'D', 00H, 'i', 00H, 'a', 00H, 'l', 00H, 'o'
	DB	00H, 'g', 00H, 00H, 00H
	ORG $+2
$SG159727 DB	'D', 00H, 'X', 00H, 'U', 00H, 'T', 00H, 's', 00H, 'e', 00H
	DB	't', 00H, 't', 00H, 'i', 00H, 'n', 00H, 'g', 00H, 's', 00H, 'd'
	DB	00H, 'l', 00H, 'g', 00H, '.', 00H, 'c', 00H, 'p', 00H, 'p', 00H
	DB	00H, 00H
$SG159728 DB	'p', 00H, 'D', 00H, '3', 00H, 'D', 00H, 'S', 00H, 'e', 00H
	DB	't', 00H, 't', 00H, 'i', 00H, 'n', 00H, 'g', 00H, 's', 00H, '-'
	DB	00H, '>', 00H, 'm', 00H, '_', 00H, 'n', 00H, 'I', 00H, 'D', 00H
	DB	'E', 00H, 'v', 00H, 'e', 00H, 'n', 00H, 't', 00H, ' ', 00H, '='
	DB	00H, '=', 00H, ' ', 00H, 'n', 00H, 'I', 00H, 'D', 00H, 'E', 00H
	DB	'v', 00H, 'e', 00H, 'n', 00H, 't', 00H, 00H, 00H
	ORG $+2
$SG159733 DB	'D', 00H, 'X', 00H, 'U', 00H, 'T', 00H, 's', 00H, 'e', 00H
	DB	't', 00H, 't', 00H, 'i', 00H, 'n', 00H, 'g', 00H, 's', 00H, 'd'
	DB	00H, 'l', 00H, 'g', 00H, '.', 00H, 'c', 00H, 'p', 00H, 'p', 00H
	DB	00H, 00H
$SG159734 DB	'p', 00H, 'C', 00H, 'o', 00H, 'n', 00H, 't', 00H, 'r', 00H
	DB	'o', 00H, 'l', 00H, 00H, 00H
CONST	ENDS
PUBLIC	_fabsf
PUBLIC	??0_Iterator_base12@std@@QAE@XZ			; std::_Iterator_base12::_Iterator_base12
PUBLIC	??1_Iterator_base12@std@@QAE@XZ			; std::_Iterator_base12::~_Iterator_base12
PUBLIC	?_Adopt@_Iterator_base12@std@@QAEXPBU_Container_base12@2@@Z ; std::_Iterator_base12::_Adopt
PUBLIC	?_Getcont@_Iterator_base12@std@@QBEPBU_Container_base12@2@XZ ; std::_Iterator_base12::_Getcont
PUBLIC	?_Orphan_me@_Iterator_base12@std@@QAEXXZ	; std::_Iterator_base12::_Orphan_me
PUBLIC	?GetWARPFeaturevel@CD3D11Enumeration@@QBE?AW4D3D_FEATURE_LEVEL@@XZ ; CD3D11Enumeration::GetWARPFeaturevel
PUBLIC	?GetREFFeaturevel@CD3D11Enumeration@@QBE?AW4D3D_FEATURE_LEVEL@@XZ ; CD3D11Enumeration::GetREFFeaturevel
PUBLIC	?begin@?$vector@PAVCD3D11EnumAdapterInfo@@V?$allocator@PAVCD3D11EnumAdapterInfo@@@std@@@std@@QBE?AV?$_Vector_const_iterator@V?$_Vector_val@U?$_Simple_types@PAVCD3D11EnumAdapterInfo@@@std@@@std@@@2@XZ ; std::vector<CD3D11EnumAdapterInfo *,std::allocator<CD3D11EnumAdapterInfo *> >::begin
PUBLIC	?end@?$vector@PAVCD3D11EnumAdapterInfo@@V?$allocator@PAVCD3D11EnumAdapterInfo@@@std@@@std@@QBE?AV?$_Vector_const_iterator@V?$_Vector_val@U?$_Simple_types@PAVCD3D11EnumAdapterInfo@@@std@@@std@@@2@XZ ; std::vector<CD3D11EnumAdapterInfo *,std::allocator<CD3D11EnumAdapterInfo *> >::end
PUBLIC	?cbegin@?$vector@PAVCD3D11EnumAdapterInfo@@V?$allocator@PAVCD3D11EnumAdapterInfo@@@std@@@std@@QBE?AV?$_Vector_const_iterator@V?$_Vector_val@U?$_Simple_types@PAVCD3D11EnumAdapterInfo@@@std@@@std@@@2@XZ ; std::vector<CD3D11EnumAdapterInfo *,std::allocator<CD3D11EnumAdapterInfo *> >::cbegin
PUBLIC	?cend@?$vector@PAVCD3D11EnumAdapterInfo@@V?$allocator@PAVCD3D11EnumAdapterInfo@@@std@@@std@@QBE?AV?$_Vector_const_iterator@V?$_Vector_val@U?$_Simple_types@PAVCD3D11EnumAdapterInfo@@@std@@@std@@@2@XZ ; std::vector<CD3D11EnumAdapterInfo *,std::allocator<CD3D11EnumAdapterInfo *> >::cend
PUBLIC	?empty@?$vector@PAVCD3D11EnumAdapterInfo@@V?$allocator@PAVCD3D11EnumAdapterInfo@@@std@@@std@@QBE_NXZ ; std::vector<CD3D11EnumAdapterInfo *,std::allocator<CD3D11EnumAdapterInfo *> >::empty
PUBLIC	?size@?$vector@PAVCD3D11EnumOutputInfo@@V?$allocator@PAVCD3D11EnumOutputInfo@@@std@@@std@@QBEIXZ ; std::vector<CD3D11EnumOutputInfo *,std::allocator<CD3D11EnumOutputInfo *> >::size
PUBLIC	??A?$vector@PAVCD3D11EnumOutputInfo@@V?$allocator@PAVCD3D11EnumOutputInfo@@@std@@@std@@QAEAAPAVCD3D11EnumOutputInfo@@I@Z ; std::vector<CD3D11EnumOutputInfo *,std::allocator<CD3D11EnumOutputInfo *> >::operator[]
PUBLIC	?size@?$vector@PAVCD3D11EnumDeviceInfo@@V?$allocator@PAVCD3D11EnumDeviceInfo@@@std@@@std@@QBEIXZ ; std::vector<CD3D11EnumDeviceInfo *,std::allocator<CD3D11EnumDeviceInfo *> >::size
PUBLIC	??A?$vector@PAVCD3D11EnumDeviceInfo@@V?$allocator@PAVCD3D11EnumDeviceInfo@@@std@@@std@@QAEAAPAVCD3D11EnumDeviceInfo@@I@Z ; std::vector<CD3D11EnumDeviceInfo *,std::allocator<CD3D11EnumDeviceInfo *> >::operator[]
PUBLIC	?size@?$vector@PAUCD3D11EnumDeviceSettingsCombo@@V?$allocator@PAUCD3D11EnumDeviceSettingsCombo@@@std@@@std@@QBEIXZ ; std::vector<CD3D11EnumDeviceSettingsCombo *,std::allocator<CD3D11EnumDeviceSettingsCombo *> >::size
PUBLIC	??A?$vector@PAUCD3D11EnumDeviceSettingsCombo@@V?$allocator@PAUCD3D11EnumDeviceSettingsCombo@@@std@@@std@@QAEAAPAUCD3D11EnumDeviceSettingsCombo@@I@Z ; std::vector<CD3D11EnumDeviceSettingsCombo *,std::allocator<CD3D11EnumDeviceSettingsCombo *> >::operator[]
PUBLIC	?begin@?$vector@UDXGI_MODE_DESC@@V?$allocator@UDXGI_MODE_DESC@@@std@@@std@@QBE?AV?$_Vector_const_iterator@V?$_Vector_val@U?$_Simple_types@UDXGI_MODE_DESC@@@std@@@std@@@2@XZ ; std::vector<DXGI_MODE_DESC,std::allocator<DXGI_MODE_DESC> >::begin
PUBLIC	?end@?$vector@UDXGI_MODE_DESC@@V?$allocator@UDXGI_MODE_DESC@@@std@@@std@@QBE?AV?$_Vector_const_iterator@V?$_Vector_val@U?$_Simple_types@UDXGI_MODE_DESC@@@std@@@std@@@2@XZ ; std::vector<DXGI_MODE_DESC,std::allocator<DXGI_MODE_DESC> >::end
PUBLIC	?cbegin@?$vector@UDXGI_MODE_DESC@@V?$allocator@UDXGI_MODE_DESC@@@std@@@std@@QBE?AV?$_Vector_const_iterator@V?$_Vector_val@U?$_Simple_types@UDXGI_MODE_DESC@@@std@@@std@@@2@XZ ; std::vector<DXGI_MODE_DESC,std::allocator<DXGI_MODE_DESC> >::cbegin
PUBLIC	?cend@?$vector@UDXGI_MODE_DESC@@V?$allocator@UDXGI_MODE_DESC@@@std@@@std@@QBE?AV?$_Vector_const_iterator@V?$_Vector_val@U?$_Simple_types@UDXGI_MODE_DESC@@@std@@@std@@@2@XZ ; std::vector<DXGI_MODE_DESC,std::allocator<DXGI_MODE_DESC> >::cend
PUBLIC	?size@?$vector@UDXGI_MODE_DESC@@V?$allocator@UDXGI_MODE_DESC@@@std@@@std@@QBEIXZ ; std::vector<DXGI_MODE_DESC,std::allocator<DXGI_MODE_DESC> >::size
PUBLIC	??A?$vector@UDXGI_MODE_DESC@@V?$allocator@UDXGI_MODE_DESC@@@std@@@std@@QAEAAUDXGI_MODE_DESC@@I@Z ; std::vector<DXGI_MODE_DESC,std::allocator<DXGI_MODE_DESC> >::operator[]
PUBLIC	?begin@?$vector@IV?$allocator@I@std@@@std@@QBE?AV?$_Vector_const_iterator@V?$_Vector_val@U?$_Simple_types@I@std@@@std@@@2@XZ ; std::vector<unsigned int,std::allocator<unsigned int> >::begin
PUBLIC	?end@?$vector@IV?$allocator@I@std@@@std@@QBE?AV?$_Vector_const_iterator@V?$_Vector_val@U?$_Simple_types@I@std@@@std@@@2@XZ ; std::vector<unsigned int,std::allocator<unsigned int> >::end
PUBLIC	?cbegin@?$vector@IV?$allocator@I@std@@@std@@QBE?AV?$_Vector_const_iterator@V?$_Vector_val@U?$_Simple_types@I@std@@@std@@@2@XZ ; std::vector<unsigned int,std::allocator<unsigned int> >::cbegin
PUBLIC	?cend@?$vector@IV?$allocator@I@std@@@std@@QBE?AV?$_Vector_const_iterator@V?$_Vector_val@U?$_Simple_types@I@std@@@std@@@2@XZ ; std::vector<unsigned int,std::allocator<unsigned int> >::cend
PUBLIC	?size@?$vector@IV?$allocator@I@std@@@std@@QBEIXZ ; std::vector<unsigned int,std::allocator<unsigned int> >::size
PUBLIC	??A?$vector@IV?$allocator@I@std@@@std@@QAEAAII@Z ; std::vector<unsigned int,std::allocator<unsigned int> >::operator[]
PUBLIC	?GetStatic@CDXUTDialog@@QBEPAVCDXUTStatic@@H@Z	; CDXUTDialog::GetStatic
PUBLIC	?GetCheckBox@CDXUTDialog@@QBEPAVCDXUTCheckBox@@H@Z ; CDXUTDialog::GetCheckBox
PUBLIC	?GetRadioButton@CDXUTDialog@@QBEPAVCDXUTRadioButton@@H@Z ; CDXUTDialog::GetRadioButton
PUBLIC	?GetComboBox@CDXUTDialog@@QBEPAVCDXUTComboBox@@H@Z ; CDXUTDialog::GetComboBox
PUBLIC	?SetLocation@CDXUTDialog@@QAEXHH@Z		; CDXUTDialog::SetLocation
PUBLIC	?SetSize@CDXUTDialog@@QAEXHH@Z			; CDXUTDialog::SetSize
PUBLIC	?SetRefreshTime@CDXUTDialog@@SGXM@Z		; CDXUTDialog::SetRefreshTime
PUBLIC	?EnableNonUserEvents@CDXUTDialog@@QAEX_N@Z	; CDXUTDialog::EnableNonUserEvents
PUBLIC	?EnableKeyboardInput@CDXUTDialog@@QAEX_N@Z	; CDXUTDialog::EnableKeyboardInput
PUBLIC	?GetElement@CDXUTControl@@QBEPAVCDXUTElement@@I@Z ; CDXUTControl::GetElement
PUBLIC	?size@?$vector@PAVCDXUTElement@@V?$allocator@PAVCDXUTElement@@@std@@@std@@QBEIXZ ; std::vector<CDXUTElement *,std::allocator<CDXUTElement *> >::size
PUBLIC	??A?$vector@PAVCDXUTElement@@V?$allocator@PAVCDXUTElement@@@std@@@std@@QBEABQAVCDXUTElement@@I@Z ; std::vector<CDXUTElement *,std::allocator<CDXUTElement *> >::operator[]
PUBLIC	?GetChecked@CDXUTCheckBox@@QBE_NXZ		; CDXUTCheckBox::GetChecked
PUBLIC	?SetChecked@CDXUTCheckBox@@QAEX_N@Z		; CDXUTCheckBox::SetChecked
PUBLIC	?SetChecked@CDXUTRadioButton@@QAEX_N0@Z		; CDXUTRadioButton::SetChecked
PUBLIC	?SetDropHeight@CDXUTComboBox@@QAEXI@Z		; CDXUTComboBox::SetDropHeight
PUBLIC	?GetNumItems@CDXUTComboBox@@QAEIXZ		; CDXUTComboBox::GetNumItems
PUBLIC	?size@?$vector@PAUDXUTComboBoxItem@@V?$allocator@PAUDXUTComboBoxItem@@@std@@@std@@QBEIXZ ; std::vector<DXUTComboBoxItem *,std::allocator<DXUTComboBoxItem *> >::size
PUBLIC	??0CD3DSettingsDlg@@QAE@XZ			; CD3DSettingsDlg::CD3DSettingsDlg
PUBLIC	??1CD3DSettingsDlg@@QAE@XZ			; CD3DSettingsDlg::~CD3DSettingsDlg
PUBLIC	?Init@CD3DSettingsDlg@@QAEXPAVCDXUTDialogResourceManager@@@Z ; CD3DSettingsDlg::Init
PUBLIC	?Init@CD3DSettingsDlg@@QAEXPAVCDXUTDialogResourceManager@@PB_W@Z ; CD3DSettingsDlg::Init
PUBLIC	?Init@CD3DSettingsDlg@@QAEXPAVCDXUTDialogResourceManager@@PB_WPAUHINSTANCE__@@@Z ; CD3DSettingsDlg::Init
PUBLIC	?Refresh@CD3DSettingsDlg@@QAEJXZ		; CD3DSettingsDlg::Refresh
PUBLIC	?OnRender@CD3DSettingsDlg@@QAEXM@Z		; CD3DSettingsDlg::OnRender
PUBLIC	?OnD3D11CreateDevice@CD3DSettingsDlg@@QAEJPAUID3D11Device@@@Z ; CD3DSettingsDlg::OnD3D11CreateDevice
PUBLIC	?OnD3D11ResizedSwapChain@CD3DSettingsDlg@@QAEJPAUID3D11Device@@PBUDXGI_SURFACE_DESC@@@Z ; CD3DSettingsDlg::OnD3D11ResizedSwapChain
PUBLIC	?OnD3D11DestroyDevice@CD3DSettingsDlg@@QAEXXZ	; CD3DSettingsDlg::OnD3D11DestroyDevice
PUBLIC	?SetActive@CD3DSettingsDlg@@QAEX_N@Z		; CD3DSettingsDlg::SetActive
PUBLIC	?MsgProc@CD3DSettingsDlg@@QAEJPAUHWND__@@IIJ@Z	; CD3DSettingsDlg::MsgProc
PUBLIC	?DXUTGetD3DSettingsDialog@@YGPAVCD3DSettingsDlg@@XZ ; DXUTGetD3DSettingsDialog
PUBLIC	?CreateControls@CD3DSettingsDlg@@IAEXXZ		; CD3DSettingsDlg::CreateControls
PUBLIC	?SetSelectedD3D11RefreshRate@CD3DSettingsDlg@@IAEXUDXGI_RATIONAL@@@Z ; CD3DSettingsDlg::SetSelectedD3D11RefreshRate
PUBLIC	?UpdateD3D11Resolutions@CD3DSettingsDlg@@IAEJXZ	; CD3DSettingsDlg::UpdateD3D11Resolutions
PUBLIC	?UpdateD3D11RefreshRates@CD3DSettingsDlg@@IAEJXZ ; CD3DSettingsDlg::UpdateD3D11RefreshRates
PUBLIC	?OnEvent@CD3DSettingsDlg@@IAEXIHPAVCDXUTControl@@@Z ; CD3DSettingsDlg::OnEvent
PUBLIC	?StaticOnEvent@CD3DSettingsDlg@@KGXIHPAVCDXUTControl@@PAX@Z ; CD3DSettingsDlg::StaticOnEvent
PUBLIC	?StaticOnModeChangeTimer@CD3DSettingsDlg@@KGXIPAX@Z ; CD3DSettingsDlg::StaticOnModeChangeTimer
PUBLIC	?GetCurrentD3D11AdapterInfo@CD3DSettingsDlg@@IBEPAVCD3D11EnumAdapterInfo@@XZ ; CD3DSettingsDlg::GetCurrentD3D11AdapterInfo
PUBLIC	?GetCurrentD3D11DeviceInfo@CD3DSettingsDlg@@IBEPAVCD3D11EnumDeviceInfo@@XZ ; CD3DSettingsDlg::GetCurrentD3D11DeviceInfo
PUBLIC	?GetCurrentD3D11OutputInfo@CD3DSettingsDlg@@IBEPAVCD3D11EnumOutputInfo@@XZ ; CD3DSettingsDlg::GetCurrentD3D11OutputInfo
PUBLIC	?GetCurrentD3D11DeviceSettingsCombo@CD3DSettingsDlg@@IBEPAUCD3D11EnumDeviceSettingsCombo@@XZ ; CD3DSettingsDlg::GetCurrentD3D11DeviceSettingsCombo
PUBLIC	?AddAdapter@CD3DSettingsDlg@@IAEXPB_WI@Z	; CD3DSettingsDlg::AddAdapter
PUBLIC	?GetSelectedAdapter@CD3DSettingsDlg@@IBEIXZ	; CD3DSettingsDlg::GetSelectedAdapter
PUBLIC	?SetWindowed@CD3DSettingsDlg@@IAEX_N@Z		; CD3DSettingsDlg::SetWindowed
PUBLIC	?IsWindowed@CD3DSettingsDlg@@IBE_NXZ		; CD3DSettingsDlg::IsWindowed
PUBLIC	?AddD3D11DeviceType@CD3DSettingsDlg@@IAEXW4D3D_DRIVER_TYPE@@@Z ; CD3DSettingsDlg::AddD3D11DeviceType
PUBLIC	?GetSelectedD3D11DeviceType@CD3DSettingsDlg@@IBE?AW4D3D_DRIVER_TYPE@@XZ ; CD3DSettingsDlg::GetSelectedD3D11DeviceType
PUBLIC	?AddD3D11AdapterOutput@CD3DSettingsDlg@@IAEXPB_WI@Z ; CD3DSettingsDlg::AddD3D11AdapterOutput
PUBLIC	?GetSelectedD3D11AdapterOutput@CD3DSettingsDlg@@IBEIXZ ; CD3DSettingsDlg::GetSelectedD3D11AdapterOutput
PUBLIC	?AddD3D11Resolution@CD3DSettingsDlg@@IAEXKK@Z	; CD3DSettingsDlg::AddD3D11Resolution
PUBLIC	?GetSelectedD3D11Resolution@CD3DSettingsDlg@@IBEXPAK0@Z ; CD3DSettingsDlg::GetSelectedD3D11Resolution
PUBLIC	?AddD3D11FeatureLevel@CD3DSettingsDlg@@IAEXW4D3D_FEATURE_LEVEL@@@Z ; CD3DSettingsDlg::AddD3D11FeatureLevel
PUBLIC	?GetSelectedFeatureLevel@CD3DSettingsDlg@@IBE?AW4D3D_FEATURE_LEVEL@@XZ ; CD3DSettingsDlg::GetSelectedFeatureLevel
PUBLIC	?AddD3D11RefreshRate@CD3DSettingsDlg@@IAEXUDXGI_RATIONAL@@@Z ; CD3DSettingsDlg::AddD3D11RefreshRate
PUBLIC	?GetSelectedD3D11RefreshRate@CD3DSettingsDlg@@IBE?AUDXGI_RATIONAL@@XZ ; CD3DSettingsDlg::GetSelectedD3D11RefreshRate
PUBLIC	?AddD3D11BackBufferFormat@CD3DSettingsDlg@@IAEXW4DXGI_FORMAT@@@Z ; CD3DSettingsDlg::AddD3D11BackBufferFormat
PUBLIC	?GetSelectedD3D11BackBufferFormat@CD3DSettingsDlg@@IBE?AW4DXGI_FORMAT@@XZ ; CD3DSettingsDlg::GetSelectedD3D11BackBufferFormat
PUBLIC	?AddD3D11MultisampleCount@CD3DSettingsDlg@@IAEXI@Z ; CD3DSettingsDlg::AddD3D11MultisampleCount
PUBLIC	?GetSelectedD3D11MultisampleCount@CD3DSettingsDlg@@IBEIXZ ; CD3DSettingsDlg::GetSelectedD3D11MultisampleCount
PUBLIC	?AddD3D11MultisampleQuality@CD3DSettingsDlg@@IAEXI@Z ; CD3DSettingsDlg::AddD3D11MultisampleQuality
PUBLIC	?GetSelectedD3D11MultisampleQuality@CD3DSettingsDlg@@IBEIXZ ; CD3DSettingsDlg::GetSelectedD3D11MultisampleQuality
PUBLIC	?GetSelectedD3D11PresentInterval@CD3DSettingsDlg@@IBEKXZ ; CD3DSettingsDlg::GetSelectedD3D11PresentInterval
PUBLIC	?GetSelectedDebugDeviceValue@CD3DSettingsDlg@@IBE_NXZ ; CD3DSettingsDlg::GetSelectedDebugDeviceValue
PUBLIC	?OnD3D11ResolutionChanged@CD3DSettingsDlg@@IAEJXZ ; CD3DSettingsDlg::OnD3D11ResolutionChanged
PUBLIC	?OnFeatureLevelChanged@CD3DSettingsDlg@@IAEJXZ	; CD3DSettingsDlg::OnFeatureLevelChanged
PUBLIC	?OnAdapterChanged@CD3DSettingsDlg@@IAEJXZ	; CD3DSettingsDlg::OnAdapterChanged
PUBLIC	?OnDeviceTypeChanged@CD3DSettingsDlg@@IAEJXZ	; CD3DSettingsDlg::OnDeviceTypeChanged
PUBLIC	?OnWindowedFullScreenChanged@CD3DSettingsDlg@@IAEJXZ ; CD3DSettingsDlg::OnWindowedFullScreenChanged
PUBLIC	?OnAdapterOutputChanged@CD3DSettingsDlg@@IAEJXZ	; CD3DSettingsDlg::OnAdapterOutputChanged
PUBLIC	?OnRefreshRateChanged@CD3DSettingsDlg@@IAEJXZ	; CD3DSettingsDlg::OnRefreshRateChanged
PUBLIC	?OnBackBufferFormatChanged@CD3DSettingsDlg@@IAEJXZ ; CD3DSettingsDlg::OnBackBufferFormatChanged
PUBLIC	?OnMultisampleTypeChanged@CD3DSettingsDlg@@IAEJXZ ; CD3DSettingsDlg::OnMultisampleTypeChanged
PUBLIC	?OnMultisampleQualityChanged@CD3DSettingsDlg@@IAEJXZ ; CD3DSettingsDlg::OnMultisampleQualityChanged
PUBLIC	?OnPresentIntervalChanged@CD3DSettingsDlg@@IAEJXZ ; CD3DSettingsDlg::OnPresentIntervalChanged
PUBLIC	?OnDebugDeviceChanged@CD3DSettingsDlg@@IAEJXZ	; CD3DSettingsDlg::OnDebugDeviceChanged
PUBLIC	?UpdateModeChangeTimeoutText@CD3DSettingsDlg@@IAEXH@Z ; CD3DSettingsDlg::UpdateModeChangeTimeoutText
PUBLIC	?DXUTDeviceTypeToString@@YAPB_WW4D3D_DRIVER_TYPE@@@Z ; DXUTDeviceTypeToString
PUBLIC	??0?$_Iterator012@Urandom_access_iterator_tag@std@@PAVCD3D11EnumAdapterInfo@@HPBQAV3@ABQAV3@U_Iterator_base12@2@@std@@QAE@XZ ; std::_Iterator012<std::random_access_iterator_tag,CD3D11EnumAdapterInfo *,int,CD3D11EnumAdapterInfo * const *,CD3D11EnumAdapterInfo * const &,std::_Iterator_base12>::_Iterator012<std::random_access_iterator_tag,CD3D11EnumAdapterInfo *,int,CD3D11EnumAdapterInfo * const *,CD3D11EnumAdapterInfo * const &,std::_Iterator_base12>
PUBLIC	??1?$_Iterator012@Urandom_access_iterator_tag@std@@PAVCD3D11EnumAdapterInfo@@HPBQAV3@ABQAV3@U_Iterator_base12@2@@std@@QAE@XZ ; std::_Iterator012<std::random_access_iterator_tag,CD3D11EnumAdapterInfo *,int,CD3D11EnumAdapterInfo * const *,CD3D11EnumAdapterInfo * const &,std::_Iterator_base12>::~_Iterator012<std::random_access_iterator_tag,CD3D11EnumAdapterInfo *,int,CD3D11EnumAdapterInfo * const *,CD3D11EnumAdapterInfo * const &,std::_Iterator_base12>
PUBLIC	??0?$_Vector_const_iterator@V?$_Vector_val@U?$_Simple_types@PAVCD3D11EnumAdapterInfo@@@std@@@std@@@std@@QAE@PAPAVCD3D11EnumAdapterInfo@@PBU_Container_base12@1@@Z ; std::_Vector_const_iterator<std::_Vector_val<std::_Simple_types<CD3D11EnumAdapterInfo *> > >::_Vector_const_iterator<std::_Vector_val<std::_Simple_types<CD3D11EnumAdapterInfo *> > >
PUBLIC	??D?$_Vector_const_iterator@V?$_Vector_val@U?$_Simple_types@PAVCD3D11EnumAdapterInfo@@@std@@@std@@@std@@QBEABQAVCD3D11EnumAdapterInfo@@XZ ; std::_Vector_const_iterator<std::_Vector_val<std::_Simple_types<CD3D11EnumAdapterInfo *> > >::operator*
PUBLIC	??E?$_Vector_const_iterator@V?$_Vector_val@U?$_Simple_types@PAVCD3D11EnumAdapterInfo@@@std@@@std@@@std@@QAEAAV01@XZ ; std::_Vector_const_iterator<std::_Vector_val<std::_Simple_types<CD3D11EnumAdapterInfo *> > >::operator++
PUBLIC	??8?$_Vector_const_iterator@V?$_Vector_val@U?$_Simple_types@PAVCD3D11EnumAdapterInfo@@@std@@@std@@@std@@QBE_NABV01@@Z ; std::_Vector_const_iterator<std::_Vector_val<std::_Simple_types<CD3D11EnumAdapterInfo *> > >::operator==
PUBLIC	??9?$_Vector_const_iterator@V?$_Vector_val@U?$_Simple_types@PAVCD3D11EnumAdapterInfo@@@std@@@std@@@std@@QBE_NABV01@@Z ; std::_Vector_const_iterator<std::_Vector_val<std::_Simple_types<CD3D11EnumAdapterInfo *> > >::operator!=
PUBLIC	?_Compat@?$_Vector_const_iterator@V?$_Vector_val@U?$_Simple_types@PAVCD3D11EnumAdapterInfo@@@std@@@std@@@std@@QBEXABV12@@Z ; std::_Vector_const_iterator<std::_Vector_val<std::_Simple_types<CD3D11EnumAdapterInfo *> > >::_Compat
PUBLIC	??1?$_Vector_const_iterator@V?$_Vector_val@U?$_Simple_types@PAVCD3D11EnumAdapterInfo@@@std@@@std@@@std@@QAE@XZ ; std::_Vector_const_iterator<std::_Vector_val<std::_Simple_types<CD3D11EnumAdapterInfo *> > >::~_Vector_const_iterator<std::_Vector_val<std::_Simple_types<CD3D11EnumAdapterInfo *> > >
PUBLIC	??0?$_Iterator012@Urandom_access_iterator_tag@std@@IHPBIABIU_Iterator_base12@2@@std@@QAE@XZ ; std::_Iterator012<std::random_access_iterator_tag,unsigned int,int,unsigned int const *,unsigned int const &,std::_Iterator_base12>::_Iterator012<std::random_access_iterator_tag,unsigned int,int,unsigned int const *,unsigned int const &,std::_Iterator_base12>
PUBLIC	??1?$_Iterator012@Urandom_access_iterator_tag@std@@IHPBIABIU_Iterator_base12@2@@std@@QAE@XZ ; std::_Iterator012<std::random_access_iterator_tag,unsigned int,int,unsigned int const *,unsigned int const &,std::_Iterator_base12>::~_Iterator012<std::random_access_iterator_tag,unsigned int,int,unsigned int const *,unsigned int const &,std::_Iterator_base12>
PUBLIC	??0?$_Vector_const_iterator@V?$_Vector_val@U?$_Simple_types@I@std@@@std@@@std@@QAE@PAIPBU_Container_base12@1@@Z ; std::_Vector_const_iterator<std::_Vector_val<std::_Simple_types<unsigned int> > >::_Vector_const_iterator<std::_Vector_val<std::_Simple_types<unsigned int> > >
PUBLIC	??D?$_Vector_const_iterator@V?$_Vector_val@U?$_Simple_types@I@std@@@std@@@std@@QBEABIXZ ; std::_Vector_const_iterator<std::_Vector_val<std::_Simple_types<unsigned int> > >::operator*
PUBLIC	??E?$_Vector_const_iterator@V?$_Vector_val@U?$_Simple_types@I@std@@@std@@@std@@QAEAAV01@XZ ; std::_Vector_const_iterator<std::_Vector_val<std::_Simple_types<unsigned int> > >::operator++
PUBLIC	??8?$_Vector_const_iterator@V?$_Vector_val@U?$_Simple_types@I@std@@@std@@@std@@QBE_NABV01@@Z ; std::_Vector_const_iterator<std::_Vector_val<std::_Simple_types<unsigned int> > >::operator==
PUBLIC	??9?$_Vector_const_iterator@V?$_Vector_val@U?$_Simple_types@I@std@@@std@@@std@@QBE_NABV01@@Z ; std::_Vector_const_iterator<std::_Vector_val<std::_Simple_types<unsigned int> > >::operator!=
PUBLIC	?_Compat@?$_Vector_const_iterator@V?$_Vector_val@U?$_Simple_types@I@std@@@std@@@std@@QBEXABV12@@Z ; std::_Vector_const_iterator<std::_Vector_val<std::_Simple_types<unsigned int> > >::_Compat
PUBLIC	??1?$_Vector_const_iterator@V?$_Vector_val@U?$_Simple_types@I@std@@@std@@@std@@QAE@XZ ; std::_Vector_const_iterator<std::_Vector_val<std::_Simple_types<unsigned int> > >::~_Vector_const_iterator<std::_Vector_val<std::_Simple_types<unsigned int> > >
PUBLIC	??$min@W4D3D_FEATURE_LEVEL@@@std@@YAABW4D3D_FEATURE_LEVEL@@ABW41@0@Z ; std::min<enum D3D_FEATURE_LEVEL>
PUBLIC	??0?$_Iterator012@Urandom_access_iterator_tag@std@@UDXGI_MODE_DESC@@HPBU3@ABU3@U_Iterator_base12@2@@std@@QAE@XZ ; std::_Iterator012<std::random_access_iterator_tag,DXGI_MODE_DESC,int,DXGI_MODE_DESC const *,DXGI_MODE_DESC const &,std::_Iterator_base12>::_Iterator012<std::random_access_iterator_tag,DXGI_MODE_DESC,int,DXGI_MODE_DESC const *,DXGI_MODE_DESC const &,std::_Iterator_base12>
PUBLIC	??1?$_Iterator012@Urandom_access_iterator_tag@std@@UDXGI_MODE_DESC@@HPBU3@ABU3@U_Iterator_base12@2@@std@@QAE@XZ ; std::_Iterator012<std::random_access_iterator_tag,DXGI_MODE_DESC,int,DXGI_MODE_DESC const *,DXGI_MODE_DESC const &,std::_Iterator_base12>::~_Iterator012<std::random_access_iterator_tag,DXGI_MODE_DESC,int,DXGI_MODE_DESC const *,DXGI_MODE_DESC const &,std::_Iterator_base12>
PUBLIC	??0?$_Vector_const_iterator@V?$_Vector_val@U?$_Simple_types@UDXGI_MODE_DESC@@@std@@@std@@@std@@QAE@PAUDXGI_MODE_DESC@@PBU_Container_base12@1@@Z ; std::_Vector_const_iterator<std::_Vector_val<std::_Simple_types<DXGI_MODE_DESC> > >::_Vector_const_iterator<std::_Vector_val<std::_Simple_types<DXGI_MODE_DESC> > >
PUBLIC	??D?$_Vector_const_iterator@V?$_Vector_val@U?$_Simple_types@UDXGI_MODE_DESC@@@std@@@std@@@std@@QBEABUDXGI_MODE_DESC@@XZ ; std::_Vector_const_iterator<std::_Vector_val<std::_Simple_types<DXGI_MODE_DESC> > >::operator*
PUBLIC	??C?$_Vector_const_iterator@V?$_Vector_val@U?$_Simple_types@UDXGI_MODE_DESC@@@std@@@std@@@std@@QBEPBUDXGI_MODE_DESC@@XZ ; std::_Vector_const_iterator<std::_Vector_val<std::_Simple_types<DXGI_MODE_DESC> > >::operator->
PUBLIC	??E?$_Vector_const_iterator@V?$_Vector_val@U?$_Simple_types@UDXGI_MODE_DESC@@@std@@@std@@@std@@QAEAAV01@XZ ; std::_Vector_const_iterator<std::_Vector_val<std::_Simple_types<DXGI_MODE_DESC> > >::operator++
PUBLIC	??8?$_Vector_const_iterator@V?$_Vector_val@U?$_Simple_types@UDXGI_MODE_DESC@@@std@@@std@@@std@@QBE_NABV01@@Z ; std::_Vector_const_iterator<std::_Vector_val<std::_Simple_types<DXGI_MODE_DESC> > >::operator==
PUBLIC	??9?$_Vector_const_iterator@V?$_Vector_val@U?$_Simple_types@UDXGI_MODE_DESC@@@std@@@std@@@std@@QBE_NABV01@@Z ; std::_Vector_const_iterator<std::_Vector_val<std::_Simple_types<DXGI_MODE_DESC> > >::operator!=
PUBLIC	?_Compat@?$_Vector_const_iterator@V?$_Vector_val@U?$_Simple_types@UDXGI_MODE_DESC@@@std@@@std@@@std@@QBEXABV12@@Z ; std::_Vector_const_iterator<std::_Vector_val<std::_Simple_types<DXGI_MODE_DESC> > >::_Compat
PUBLIC	??1?$_Vector_const_iterator@V?$_Vector_val@U?$_Simple_types@UDXGI_MODE_DESC@@@std@@@std@@@std@@QAE@XZ ; std::_Vector_const_iterator<std::_Vector_val<std::_Simple_types<DXGI_MODE_DESC> > >::~_Vector_const_iterator<std::_Vector_val<std::_Simple_types<DXGI_MODE_DESC> > >
PUBLIC	?pointer_to@?$pointer_traits@PBUDXGI_MODE_DESC@@@std@@SAPBUDXGI_MODE_DESC@@ABU3@@Z ; std::pointer_traits<DXGI_MODE_DESC const *>::pointer_to
PUBLIC	??$addressof@$$CBUDXGI_MODE_DESC@@@std@@YAPBUDXGI_MODE_DESC@@ABU1@@Z ; std::addressof<DXGI_MODE_DESC const >
PUBLIC	??$_Debug_lt@ABW4D3D_FEATURE_LEVEL@@ABW41@@std@@YA_NABW4D3D_FEATURE_LEVEL@@0PB_WI@Z ; std::_Debug_lt<enum D3D_FEATURE_LEVEL const &,enum D3D_FEATURE_LEVEL const &>
PUBLIC	??$forward@ABW4D3D_FEATURE_LEVEL@@@std@@YAABW4D3D_FEATURE_LEVEL@@ABW41@@Z ; std::forward<enum D3D_FEATURE_LEVEL const &>
PUBLIC	??$_Debug_lt_pred@U?$less@X@std@@ABW4D3D_FEATURE_LEVEL@@ABW43@@std@@YA_NU?$less@X@0@ABW4D3D_FEATURE_LEVEL@@1PB_WI@Z ; std::_Debug_lt_pred<std::less<void>,enum D3D_FEATURE_LEVEL const &,enum D3D_FEATURE_LEVEL const &>
PUBLIC	??$?RABW4D3D_FEATURE_LEVEL@@ABW40@@?$less@X@std@@QBE_NABW4D3D_FEATURE_LEVEL@@0@Z ; std::less<void>::operator()<enum D3D_FEATURE_LEVEL const &,enum D3D_FEATURE_LEVEL const &>
PUBLIC	??_C@_15GANGMFKL@?$AA?$CF?$AAs?$AA?$AA@		; `string'
PUBLIC	??_C@_1JA@EADLBAJ@?$AAC?$AA?3?$AA?2?$AAP?$AAr?$AAo?$AAg?$AAr?$AAa?$AAm?$AA?5?$AAF?$AAi?$AAl?$AAe?$AAs?$AA?5?$AA?$CI?$AAx?$AA8?$AA6?$AA?$CJ?$AA?2?$AAM?$AAi?$AAc?$AAr?$AAo?$AAs?$AAo?$AAf?$AAt@ ; `string'
PUBLIC	??_C@_1DC@POOIKBAO@?$AAI?$AAT?$AAE?$AAR?$AAA?$AAT?$AAO?$AAR?$AA?5?$AAL?$AAI?$AAS?$AAT?$AA?5?$AAC?$AAO?$AAR?$AAR?$AAU?$AAP?$AAT?$AAE?$AAD?$AA?$CB?$AA?$AA@ ; `string'
PUBLIC	??_C@_1IM@EINEHPHE@?$AAC?$AA?3?$AA?2?$AAP?$AAr?$AAo?$AAg?$AAr?$AAa?$AAm?$AA?5?$AAF?$AAi?$AAl?$AAe?$AAs?$AA?5?$AA?$CI?$AAx?$AA8?$AA6?$AA?$CJ?$AA?2?$AAM?$AAi?$AAc?$AAr?$AAo?$AAs?$AAo?$AAf?$AAt@ ; `string'
PUBLIC	??_C@_1DM@LHGCHCBA@?$AAv?$AAe?$AAc?$AAt?$AAo?$AAr?$AA?5?$AAs?$AAu?$AAb?$AAs?$AAc?$AAr?$AAi?$AAp?$AAt?$AA?5?$AAo?$AAu?$AAt?$AA?5?$AAo?$AAf?$AA?5?$AAr?$AAa?$AAn?$AAg?$AAe?$AA?$AA@ ; `string'
PUBLIC	??_C@_0CE@OFMIGAMM@Standard?5C?$CL?$CL?5Libraries?5Out?5of?5Ra@ ; `string'
PUBLIC	??_C@_1FG@IBPIFFN@?$AA?$CC?$AAS?$AAt?$AAa?$AAn?$AAd?$AAa?$AAr?$AAd?$AA?5?$AAC?$AA?$CL?$AA?$CL?$AA?5?$AAL?$AAi?$AAb?$AAr?$AAa?$AAr?$AAi?$AAe?$AAs?$AA?5?$AAO?$AAu?$AAt?$AA?5?$AAo?$AAf?$AA?5?$AAR@ ; `string'
PUBLIC	??_C@_1NG@BAGGOCPN@?$AAs?$AAt?$AAd?$AA?3?$AA?3?$AAv?$AAe?$AAc?$AAt?$AAo?$AAr?$AA?$DM?$AAc?$AAl?$AAa?$AAs?$AAs?$AA?5?$AAC?$AAD?$AA3?$AAD?$AA1?$AA1?$AAE?$AAn?$AAu?$AAm?$AAO?$AAu?$AAt?$AAp@ ; `string'
PUBLIC	??_C@_1BO@MEPPHOO@?$AA?$CC?$AAo?$AAu?$AAt?$AA?5?$AAo?$AAf?$AA?5?$AAr?$AAa?$AAn?$AAg?$AAe?$AA?$CC?$AA?$AA@ ; `string'
PUBLIC	??_C@_1NG@EIKOPBNN@?$AAs?$AAt?$AAd?$AA?3?$AA?3?$AAv?$AAe?$AAc?$AAt?$AAo?$AAr?$AA?$DM?$AAc?$AAl?$AAa?$AAs?$AAs?$AA?5?$AAC?$AAD?$AA3?$AAD?$AA1?$AA1?$AAE?$AAn?$AAu?$AAm?$AAD?$AAe?$AAv?$AAi@ ; `string'
PUBLIC	??_C@_1PO@FFNDBIOE@?$AAs?$AAt?$AAd?$AA?3?$AA?3?$AAv?$AAe?$AAc?$AAt?$AAo?$AAr?$AA?$DM?$AAs?$AAt?$AAr?$AAu?$AAc?$AAt?$AA?5?$AAC?$AAD?$AA3?$AAD?$AA1?$AA1?$AAE?$AAn?$AAu?$AAm?$AAD?$AAe?$AAv@ ; `string'
PUBLIC	??_C@_1LK@CIKAIPAF@?$AAs?$AAt?$AAd?$AA?3?$AA?3?$AAv?$AAe?$AAc?$AAt?$AAo?$AAr?$AA?$DM?$AAs?$AAt?$AAr?$AAu?$AAc?$AAt?$AA?5?$AAD?$AAX?$AAG?$AAI?$AA_?$AAM?$AAO?$AAD?$AAE?$AA_?$AAD?$AAE?$AAS@ ; `string'
PUBLIC	??_C@_1JG@ILDNFCDK@?$AAs?$AAt?$AAd?$AA?3?$AA?3?$AAv?$AAe?$AAc?$AAt?$AAo?$AAr?$AA?$DM?$AAu?$AAn?$AAs?$AAi?$AAg?$AAn?$AAe?$AAd?$AA?5?$AAi?$AAn?$AAt?$AA?0?$AAc?$AAl?$AAa?$AAs?$AAs?$AA?5?$AAs@ ; `string'
PUBLIC	??_C@_1LG@FALFGADF@?$AAs?$AAt?$AAd?$AA?3?$AA?3?$AAv?$AAe?$AAc?$AAt?$AAo?$AAr?$AA?$DM?$AAc?$AAl?$AAa?$AAs?$AAs?$AA?5?$AAC?$AAD?$AAX?$AAU?$AAT?$AAE?$AAl?$AAe?$AAm?$AAe?$AAn?$AAt?$AA?5?$AA?$CK@ ; `string'
PUBLIC	??_C@_1EG@FOHJJHAC@?$AAv?$AAe?$AAc?$AAt?$AAo?$AAr?$AA?5?$AAi?$AAt?$AAe?$AAr?$AAa?$AAt?$AAo?$AAr?$AA?5?$AAn?$AAo?$AAt?$AA?5?$AAd?$AAe?$AAr?$AAe?$AAf?$AAe?$AAr?$AAe?$AAn?$AAc?$AAa?$AAb@ ; `string'
PUBLIC	??_C@_1PI@MICGNEKL@?$AAs?$AAt?$AAd?$AA?3?$AA?3?$AA_?$AAV?$AAe?$AAc?$AAt?$AAo?$AAr?$AA_?$AAc?$AAo?$AAn?$AAs?$AAt?$AA_?$AAi?$AAt?$AAe?$AAr?$AAa?$AAt?$AAo?$AAr?$AA?$DM?$AAc?$AAl?$AAa?$AAs@ ; `string'
PUBLIC	??_C@_1EE@EJDKCLKB@?$AAv?$AAe?$AAc?$AAt?$AAo?$AAr?$AA?5?$AAi?$AAt?$AAe?$AAr?$AAa?$AAt?$AAo?$AAr?$AA?5?$AAn?$AAo?$AAt?$AA?5?$AAi?$AAn?$AAc?$AAr?$AAe?$AAm?$AAe?$AAn?$AAt?$AAa?$AAb?$AAl@ ; `string'
PUBLIC	??_C@_1PK@HACCEAFD@?$AAs?$AAt?$AAd?$AA?3?$AA?3?$AA_?$AAV?$AAe?$AAc?$AAt?$AAo?$AAr?$AA_?$AAc?$AAo?$AAn?$AAs?$AAt?$AA_?$AAi?$AAt?$AAe?$AAr?$AAa?$AAt?$AAo?$AAr?$AA?$DM?$AAc?$AAl?$AAa?$AAs@ ; `string'
PUBLIC	??_C@_1NG@DAPFFJEF@?$AAs?$AAt?$AAd?$AA?3?$AA?3?$AA_?$AAV?$AAe?$AAc?$AAt?$AAo?$AAr?$AA_?$AAc?$AAo?$AAn?$AAs?$AAt?$AA_?$AAi?$AAt?$AAe?$AAr?$AAa?$AAt?$AAo?$AAr?$AA?$DM?$AAc?$AAl?$AAa?$AAs@ ; `string'
PUBLIC	??_C@_1NI@CDNGJJHP@?$AAs?$AAt?$AAd?$AA?3?$AA?3?$AA_?$AAV?$AAe?$AAc?$AAt?$AAo?$AAr?$AA_?$AAc?$AAo?$AAn?$AAs?$AAt?$AA_?$AAi?$AAt?$AAe?$AAr?$AAa?$AAt?$AAo?$AAr?$AA?$DM?$AAc?$AAl?$AAa?$AAs@ ; `string'
PUBLIC	??_C@_1OK@KJNHLBOB@?$AAs?$AAt?$AAd?$AA?3?$AA?3?$AA_?$AAV?$AAe?$AAc?$AAt?$AAo?$AAr?$AA_?$AAc?$AAo?$AAn?$AAs?$AAt?$AA_?$AAi?$AAt?$AAe?$AAr?$AAa?$AAt?$AAo?$AAr?$AA?$DM?$AAc?$AAl?$AAa?$AAs@ ; `string'
PUBLIC	??_C@_1OI@LKCPICFM@?$AAs?$AAt?$AAd?$AA?3?$AA?3?$AA_?$AAV?$AAe?$AAc?$AAt?$AAo?$AAr?$AA_?$AAc?$AAo?$AAn?$AAs?$AAt?$AA_?$AAi?$AAt?$AAe?$AAr?$AAa?$AAt?$AAo?$AAr?$AA?$DM?$AAc?$AAl?$AAa?$AAs@ ; `string'
PUBLIC	??_C@_1DM@HINDPMBP@?$AAv?$AAe?$AAc?$AAt?$AAo?$AAr?$AA?5?$AAi?$AAt?$AAe?$AAr?$AAa?$AAt?$AAo?$AAr?$AAs?$AA?5?$AAi?$AAn?$AAc?$AAo?$AAm?$AAp?$AAa?$AAt?$AAi?$AAb?$AAl?$AAe?$AA?$AA@ ; `string'
PUBLIC	??_C@_0CI@FNPHFCCM@Standard?5C?$CL?$CL?5Libraries?5Invalid?5A@ ; `string'
PUBLIC	??_C@_1FO@GJIHNDLM@?$AA?$CC?$AAS?$AAt?$AAa?$AAn?$AAd?$AAa?$AAr?$AAd?$AA?5?$AAC?$AA?$CL?$AA?$CL?$AA?5?$AAL?$AAi?$AAb?$AAr?$AAa?$AAr?$AAi?$AAe?$AAs?$AA?5?$AAI?$AAn?$AAv?$AAa?$AAl?$AAi?$AAd?$AA?5@ ; `string'
PUBLIC	??_C@_1PC@LBNCMFIJ@?$AAs?$AAt?$AAd?$AA?3?$AA?3?$AA_?$AAV?$AAe?$AAc?$AAt?$AAo?$AAr?$AA_?$AAc?$AAo?$AAn?$AAs?$AAt?$AA_?$AAi?$AAt?$AAe?$AAr?$AAa?$AAt?$AAo?$AAr?$AA?$DM?$AAc?$AAl?$AAa?$AAs@ ; `string'
PUBLIC	??_C@_1CG@JNLFBNGN@?$AA?$CC?$AAi?$AAn?$AAv?$AAa?$AAl?$AAi?$AAd?$AA?5?$AAa?$AAr?$AAg?$AAu?$AAm?$AAe?$AAn?$AAt?$AA?$CC?$AA?$AA@ ; `string'
PUBLIC	??_C@_1NA@KDANOKNP@?$AAs?$AAt?$AAd?$AA?3?$AA?3?$AA_?$AAV?$AAe?$AAc?$AAt?$AAo?$AAr?$AA_?$AAc?$AAo?$AAn?$AAs?$AAt?$AA_?$AAi?$AAt?$AAe?$AAr?$AAa?$AAt?$AAo?$AAr?$AA?$DM?$AAc?$AAl?$AAa?$AAs@ ; `string'
PUBLIC	??_C@_1OC@NLODFLEJ@?$AAs?$AAt?$AAd?$AA?3?$AA?3?$AA_?$AAV?$AAe?$AAc?$AAt?$AAo?$AAr?$AA_?$AAc?$AAo?$AAn?$AAs?$AAt?$AA_?$AAi?$AAt?$AAe?$AAr?$AAa?$AAt?$AAo?$AAr?$AA?$DM?$AAc?$AAl?$AAa?$AAs@ ; `string'
PUBLIC	??_C@_1JC@HALMDPKM@?$AAC?$AA?3?$AA?2?$AAP?$AAr?$AAo?$AAg?$AAr?$AAa?$AAm?$AA?5?$AAF?$AAi?$AAl?$AAe?$AAs?$AA?5?$AA?$CI?$AAx?$AA8?$AA6?$AA?$CJ?$AA?2?$AAM?$AAi?$AAc?$AAr?$AAo?$AAs?$AAo?$AAf?$AAt@ ; `string'
PUBLIC	??_C@_1CE@IGJMOCCK@?$AAi?$AAn?$AAv?$AAa?$AAl?$AAi?$AAd?$AA?5?$AAo?$AAp?$AAe?$AAr?$AAa?$AAt?$AAo?$AAr?$AA?$DM?$AA?$AA@ ; `string'
PUBLIC	__real@3d4ccccd
PUBLIC	__real@3f800000
PUBLIC	__xmm@41f00000000000000000000000000000
PUBLIC	__xmm@7fffffff7fffffff7fffffff7fffffff
EXTRN	??3@YAXPAX@Z:PROC				; operator delete
EXTRN	_atexit:PROC
EXTRN	__imp___invalid_parameter:PROC
EXTRN	__imp__wcscpy_s:PROC
EXTRN	__imp__GetClientRect@8:PROC
EXTRN	__imp___wassert:PROC
EXTRN	??2@YAPAXIABUnothrow_t@std@@@Z:PROC		; operator new
EXTRN	__imp__swprintf_s:PROC
EXTRN	__imp___CrtDbgReportW:PROC
EXTRN	__imp_??0_Lockit@std@@QAE@H@Z:PROC
EXTRN	__imp_??1_Lockit@std@@QAE@XZ:PROC
EXTRN	_DXTraceW@20:PROC
EXTRN	__imp_?_Debug_message@std@@YAXPB_W0I@Z:PROC
EXTRN	?DXUTCreateDeviceFromSettings@@YGJPAUDXUTDeviceSettings@@_N@Z:PROC ; DXUTCreateDeviceFromSettings
EXTRN	?DXUTSetTimer@@YGJP6GXIPAX@ZMPAI0@Z:PROC	; DXUTSetTimer
EXTRN	?DXUTKillTimer@@YGJI@Z:PROC			; DXUTKillTimer
EXTRN	?DXUTGetDeviceSettings@@YG?AUDXUTDeviceSettings@@XZ:PROC ; DXUTGetDeviceSettings
EXTRN	?DXUTGetHWND@@YGPAUHWND__@@XZ:PROC		; DXUTGetHWND
EXTRN	?DXUTGetWindowClientRectAtModeChange@@YG?AUtagRECT@@XZ:PROC ; DXUTGetWindowClientRectAtModeChange
EXTRN	?DXUTGetFullsceenClientRectAtModeChange@@YG?AUtagRECT@@XZ:PROC ; DXUTGetFullsceenClientRectAtModeChange
EXTRN	?DXUTGetTime@@YGNXZ:PROC			; DXUTGetTime
EXTRN	?DXUTIsWindowed@@YG_NXZ:PROC			; DXUTIsWindowed
EXTRN	?DXUTDXGIFormatToString@@YGPB_WW4DXGI_FORMAT@@_N@Z:PROC ; DXUTDXGIFormatToString
EXTRN	?DXUTTrace@@YGJPBDKJPB_W_N@Z:PROC		; DXUTTrace
EXTRN	?DXUTGetDesktopResolution@@YGXIPAI0@Z:PROC	; DXUTGetDesktopResolution
EXTRN	?DXUTApplyDefaultDeviceSettings@@YAXPAUDXUTDeviceSettings@@@Z:PROC ; DXUTApplyDefaultDeviceSettings
EXTRN	?DXUTGetD3D11AdapterDisplayMode@@YGJIIPAUDXGI_MODE_DESC@@@Z:PROC ; DXUTGetD3D11AdapterDisplayMode
EXTRN	?GetAdapterInfoList@CD3D11Enumeration@@QAEPAV?$vector@PAVCD3D11EnumAdapterInfo@@V?$allocator@PAVCD3D11EnumAdapterInfo@@@std@@@std@@XZ:PROC ; CD3D11Enumeration::GetAdapterInfoList
EXTRN	?GetAdapterInfo@CD3D11Enumeration@@QBEPAVCD3D11EnumAdapterInfo@@I@Z:PROC ; CD3D11Enumeration::GetAdapterInfo
EXTRN	?GetDeviceInfo@CD3D11Enumeration@@QBEPAVCD3D11EnumDeviceInfo@@IW4D3D_DRIVER_TYPE@@@Z:PROC ; CD3D11Enumeration::GetDeviceInfo
EXTRN	?GetOutputInfo@CD3D11Enumeration@@QBEPAVCD3D11EnumOutputInfo@@II@Z:PROC ; CD3D11Enumeration::GetOutputInfo
EXTRN	?GetDeviceSettingsCombo@CD3D11Enumeration@@QBEPAUCD3D11EnumDeviceSettingsCombo@@IW4DXGI_FORMAT@@H@Z:PROC ; CD3D11Enumeration::GetDeviceSettingsCombo
EXTRN	?DXUTGetD3D11Enumeration@@YGPAVCD3D11Enumeration@@_N0W4D3D_FEATURE_LEVEL@@@Z:PROC ; DXUTGetD3D11Enumeration
EXTRN	??0CDXUTDialog@@QAE@XZ:PROC			; CDXUTDialog::CDXUTDialog
EXTRN	??1CDXUTDialog@@QAE@XZ:PROC			; CDXUTDialog::~CDXUTDialog
EXTRN	?Init@CDXUTDialog@@QAEXPAVCDXUTDialogResourceManager@@_N@Z:PROC ; CDXUTDialog::Init
EXTRN	?Init@CDXUTDialog@@QAEXPAVCDXUTDialogResourceManager@@_NPB_W@Z:PROC ; CDXUTDialog::Init
EXTRN	?Init@CDXUTDialog@@QAEXPAVCDXUTDialogResourceManager@@_NPB_WPAUHINSTANCE__@@@Z:PROC ; CDXUTDialog::Init
EXTRN	?MsgProc@CDXUTDialog@@QAE_NPAUHWND__@@IIJ@Z:PROC ; CDXUTDialog::MsgProc
EXTRN	?AddStatic@CDXUTDialog@@QAEJHPB_WHHHH_NPAPAVCDXUTStatic@@@Z:PROC ; CDXUTDialog::AddStatic
EXTRN	?AddButton@CDXUTDialog@@QAEJHPB_WHHHHI_NPAPAVCDXUTButton@@@Z:PROC ; CDXUTDialog::AddButton
EXTRN	?AddCheckBox@CDXUTDialog@@QAEJHPB_WHHHH_NI1PAPAVCDXUTCheckBox@@@Z:PROC ; CDXUTDialog::AddCheckBox
EXTRN	?AddRadioButton@CDXUTDialog@@QAEJHIPB_WHHHH_NI1PAPAVCDXUTRadioButton@@@Z:PROC ; CDXUTDialog::AddRadioButton
EXTRN	?AddComboBox@CDXUTDialog@@QAEJHHHHHI_NPAPAVCDXUTComboBox@@@Z:PROC ; CDXUTDialog::AddComboBox
EXTRN	?GetControl@CDXUTDialog@@QBEPAVCDXUTControl@@H@Z:PROC ; CDXUTDialog::GetControl
EXTRN	?GetControl@CDXUTDialog@@QBEPAVCDXUTControl@@HI@Z:PROC ; CDXUTDialog::GetControl
EXTRN	?SetControlEnabled@CDXUTDialog@@QAEXH_N@Z:PROC	; CDXUTDialog::SetControlEnabled
EXTRN	?GetDefaultElement@CDXUTDialog@@QBEPAVCDXUTElement@@II@Z:PROC ; CDXUTDialog::GetDefaultElement
EXTRN	?SendEvent@CDXUTDialog@@QAEXI_NPAVCDXUTControl@@@Z:PROC ; CDXUTDialog::SendEvent
EXTRN	?SetBackgroundColors@CDXUTDialog@@QAEXKKKK@Z:PROC ; CDXUTDialog::SetBackgroundColors
EXTRN	?SetCallback@CDXUTDialog@@QAEXP6GXIHPAVCDXUTControl@@PAX@Z1@Z:PROC ; CDXUTDialog::SetCallback
EXTRN	?OnRender@CDXUTDialog@@QAEJM@Z:PROC		; CDXUTDialog::OnRender
EXTRN	?SetFont@CDXUTDialog@@QAEJIPB_WJJ@Z:PROC	; CDXUTDialog::SetFont
EXTRN	?SetText@CDXUTStatic@@QAEJPB_W@Z:PROC		; CDXUTStatic::SetText
EXTRN	?AddItem@CDXUTComboBox@@QAEJPB_WPAX@Z:PROC	; CDXUTComboBox::AddItem
EXTRN	?RemoveAllItems@CDXUTComboBox@@QAEXXZ:PROC	; CDXUTComboBox::RemoveAllItems
EXTRN	?ContainsItem@CDXUTComboBox@@QAE_NPB_WI@Z:PROC	; CDXUTComboBox::ContainsItem
EXTRN	?GetItemData@CDXUTComboBox@@QBEPAXH@Z:PROC	; CDXUTComboBox::GetItemData
EXTRN	?GetSelectedData@CDXUTComboBox@@QBEPAXXZ:PROC	; CDXUTComboBox::GetSelectedData
EXTRN	?SetSelectedByIndex@CDXUTComboBox@@QAEJI@Z:PROC	; CDXUTComboBox::SetSelectedByIndex
EXTRN	?SetSelectedByData@CDXUTComboBox@@QAEJPAX@Z:PROC ; CDXUTComboBox::SetSelectedByData
EXTRN	?DXUTSnapDeviceSettingsToEnumDevice@@YAJPAUDXUTDeviceSettings@@_NW4D3D_FEATURE_LEVEL@@@Z:PROC ; DXUTSnapDeviceSettingsToEnumDevice
EXTRN	@_RTC_CheckStackVars@8:PROC
EXTRN	@__security_check_cookie@4:PROC
EXTRN	__RTC_CheckEsp:PROC
EXTRN	__RTC_InitBase:PROC
EXTRN	__RTC_Shutdown:PROC
EXTRN	___CxxFrameHandler3:PROC
EXTRN	_memset:PROC
EXTRN	?nothrow@std@@3Unothrow_t@1@B:BYTE		; std::nothrow
EXTRN	?s_fTimeRefresh@CDXUTDialog@@0NA:QWORD		; CDXUTDialog::s_fTimeRefresh
EXTRN	___security_cookie:DWORD
EXTRN	__fltused:DWORD
;	COMDAT ?dlg@?1??DXUTGetD3DSettingsDialog@@YGPAVCD3DSettingsDlg@@XZ@4V2@A
_BSS	SEGMENT
?dlg@?1??DXUTGetD3DSettingsDialog@@YGPAVCD3DSettingsDlg@@XZ@4V2@A DB 0630H DUP (?) ; `DXUTGetD3DSettingsDialog'::`2'::dlg
_BSS	ENDS
;	COMDAT ?$S1@?1??DXUTGetD3DSettingsDialog@@YGPAVCD3DSettingsDlg@@XZ@4IA
_BSS	SEGMENT
?$S1@?1??DXUTGetD3DSettingsDialog@@YGPAVCD3DSettingsDlg@@XZ@4IA DD 01H DUP (?) ; `DXUTGetD3DSettingsDialog'::`2'::$S1
_BSS	ENDS
;	COMDAT __xmm@7fffffff7fffffff7fffffff7fffffff
CONST	SEGMENT
__xmm@7fffffff7fffffff7fffffff7fffffff DB 0ffH, 0ffH, 0ffH, 07fH, 0ffH, 0ffH
	DB	0ffH, 07fH, 0ffH, 0ffH, 0ffH, 07fH, 0ffH, 0ffH, 0ffH, 07fH
CONST	ENDS
;	COMDAT __xmm@41f00000000000000000000000000000
CONST	SEGMENT
__xmm@41f00000000000000000000000000000 DB 00H, 00H, 00H, 00H, 00H, 00H, 00H
	DB	00H, 00H, 00H, 00H, 00H, 00H, 00H, 0f0H, 'A'
CONST	ENDS
;	COMDAT __real@3f800000
CONST	SEGMENT
__real@3f800000 DD 03f800000r			; 1
CONST	ENDS
;	COMDAT __real@3d4ccccd
CONST	SEGMENT
__real@3d4ccccd DD 03d4ccccdr			; 0.05
CONST	ENDS
;	COMDAT rtc$TMZ
rtc$TMZ	SEGMENT
__RTC_Shutdown.rtc$TMZ DD FLAT:__RTC_Shutdown
rtc$TMZ	ENDS
;	COMDAT rtc$IMZ
rtc$IMZ	SEGMENT
__RTC_InitBase.rtc$IMZ DD FLAT:__RTC_InitBase
rtc$IMZ	ENDS
;	COMDAT ??_C@_1CE@IGJMOCCK@?$AAi?$AAn?$AAv?$AAa?$AAl?$AAi?$AAd?$AA?5?$AAo?$AAp?$AAe?$AAr?$AAa?$AAt?$AAo?$AAr?$AA?$DM?$AA?$AA@
CONST	SEGMENT
??_C@_1CE@IGJMOCCK@?$AAi?$AAn?$AAv?$AAa?$AAl?$AAi?$AAd?$AA?5?$AAo?$AAp?$AAe?$AAr?$AAa?$AAt?$AAo?$AAr?$AA?$DM?$AA?$AA@ DB 'i'
	DB	00H, 'n', 00H, 'v', 00H, 'a', 00H, 'l', 00H, 'i', 00H, 'd', 00H
	DB	' ', 00H, 'o', 00H, 'p', 00H, 'e', 00H, 'r', 00H, 'a', 00H, 't'
	DB	00H, 'o', 00H, 'r', 00H, '<', 00H, 00H, 00H	; `string'
CONST	ENDS
;	COMDAT ??_C@_1JC@HALMDPKM@?$AAC?$AA?3?$AA?2?$AAP?$AAr?$AAo?$AAg?$AAr?$AAa?$AAm?$AA?5?$AAF?$AAi?$AAl?$AAe?$AAs?$AA?5?$AA?$CI?$AAx?$AA8?$AA6?$AA?$CJ?$AA?2?$AAM?$AAi?$AAc?$AAr?$AAo?$AAs?$AAo?$AAf?$AAt@
CONST	SEGMENT
??_C@_1JC@HALMDPKM@?$AAC?$AA?3?$AA?2?$AAP?$AAr?$AAo?$AAg?$AAr?$AAa?$AAm?$AA?5?$AAF?$AAi?$AAl?$AAe?$AAs?$AA?5?$AA?$CI?$AAx?$AA8?$AA6?$AA?$CJ?$AA?2?$AAM?$AAi?$AAc?$AAr?$AAo?$AAs?$AAo?$AAf?$AAt@ DB 'C'
	DB	00H, ':', 00H, '\', 00H, 'P', 00H, 'r', 00H, 'o', 00H, 'g', 00H
	DB	'r', 00H, 'a', 00H, 'm', 00H, ' ', 00H, 'F', 00H, 'i', 00H, 'l'
	DB	00H, 'e', 00H, 's', 00H, ' ', 00H, '(', 00H, 'x', 00H, '8', 00H
	DB	'6', 00H, ')', 00H, '\', 00H, 'M', 00H, 'i', 00H, 'c', 00H, 'r'
	DB	00H, 'o', 00H, 's', 00H, 'o', 00H, 'f', 00H, 't', 00H, ' ', 00H
	DB	'V', 00H, 'i', 00H, 's', 00H, 'u', 00H, 'a', 00H, 'l', 00H, ' '
	DB	00H, 'S', 00H, 't', 00H, 'u', 00H, 'd', 00H, 'i', 00H, 'o', 00H
	DB	' ', 00H, '1', 00H, '2', 00H, '.', 00H, '0', 00H, '\', 00H, 'V'
	DB	00H, 'C', 00H, '\', 00H, 'i', 00H, 'n', 00H, 'c', 00H, 'l', 00H
	DB	'u', 00H, 'd', 00H, 'e', 00H, '\', 00H, 'a', 00H, 'l', 00H, 'g'
	DB	00H, 'o', 00H, 'r', 00H, 'i', 00H, 't', 00H, 'h', 00H, 'm', 00H
	DB	00H, 00H					; `string'
CONST	ENDS
;	COMDAT ??_C@_1OC@NLODFLEJ@?$AAs?$AAt?$AAd?$AA?3?$AA?3?$AA_?$AAV?$AAe?$AAc?$AAt?$AAo?$AAr?$AA_?$AAc?$AAo?$AAn?$AAs?$AAt?$AA_?$AAi?$AAt?$AAe?$AAr?$AAa?$AAt?$AAo?$AAr?$AA?$DM?$AAc?$AAl?$AAa?$AAs@
CONST	SEGMENT
??_C@_1OC@NLODFLEJ@?$AAs?$AAt?$AAd?$AA?3?$AA?3?$AA_?$AAV?$AAe?$AAc?$AAt?$AAo?$AAr?$AA_?$AAc?$AAo?$AAn?$AAs?$AAt?$AA_?$AAi?$AAt?$AAe?$AAr?$AAa?$AAt?$AAo?$AAr?$AA?$DM?$AAc?$AAl?$AAa?$AAs@ DB 's'
	DB	00H, 't', 00H, 'd', 00H, ':', 00H, ':', 00H, '_', 00H, 'V', 00H
	DB	'e', 00H, 'c', 00H, 't', 00H, 'o', 00H, 'r', 00H, '_', 00H, 'c'
	DB	00H, 'o', 00H, 'n', 00H, 's', 00H, 't', 00H, '_', 00H, 'i', 00H
	DB	't', 00H, 'e', 00H, 'r', 00H, 'a', 00H, 't', 00H, 'o', 00H, 'r'
	DB	00H, '<', 00H, 'c', 00H, 'l', 00H, 'a', 00H, 's', 00H, 's', 00H
	DB	' ', 00H, 's', 00H, 't', 00H, 'd', 00H, ':', 00H, ':', 00H, '_'
	DB	00H, 'V', 00H, 'e', 00H, 'c', 00H, 't', 00H, 'o', 00H, 'r', 00H
	DB	'_', 00H, 'v', 00H, 'a', 00H, 'l', 00H, '<', 00H, 's', 00H, 't'
	DB	00H, 'r', 00H, 'u', 00H, 'c', 00H, 't', 00H, ' ', 00H, 's', 00H
	DB	't', 00H, 'd', 00H, ':', 00H, ':', 00H, '_', 00H, 'S', 00H, 'i'
	DB	00H, 'm', 00H, 'p', 00H, 'l', 00H, 'e', 00H, '_', 00H, 't', 00H
	DB	'y', 00H, 'p', 00H, 'e', 00H, 's', 00H, '<', 00H, 's', 00H, 't'
	DB	00H, 'r', 00H, 'u', 00H, 'c', 00H, 't', 00H, ' ', 00H, 'D', 00H
	DB	'X', 00H, 'G', 00H, 'I', 00H, '_', 00H, 'M', 00H, 'O', 00H, 'D'
	DB	00H, 'E', 00H, '_', 00H, 'D', 00H, 'E', 00H, 'S', 00H, 'C', 00H
	DB	'>', 00H, ' ', 00H, '>', 00H, ' ', 00H, '>', 00H, ':', 00H, ':'
	DB	00H, '_', 00H, 'C', 00H, 'o', 00H, 'm', 00H, 'p', 00H, 'a', 00H
	DB	't', 00H, 00H, 00H				; `string'
CONST	ENDS
;	COMDAT ??_C@_1NA@KDANOKNP@?$AAs?$AAt?$AAd?$AA?3?$AA?3?$AA_?$AAV?$AAe?$AAc?$AAt?$AAo?$AAr?$AA_?$AAc?$AAo?$AAn?$AAs?$AAt?$AA_?$AAi?$AAt?$AAe?$AAr?$AAa?$AAt?$AAo?$AAr?$AA?$DM?$AAc?$AAl?$AAa?$AAs@
CONST	SEGMENT
??_C@_1NA@KDANOKNP@?$AAs?$AAt?$AAd?$AA?3?$AA?3?$AA_?$AAV?$AAe?$AAc?$AAt?$AAo?$AAr?$AA_?$AAc?$AAo?$AAn?$AAs?$AAt?$AA_?$AAi?$AAt?$AAe?$AAr?$AAa?$AAt?$AAo?$AAr?$AA?$DM?$AAc?$AAl?$AAa?$AAs@ DB 's'
	DB	00H, 't', 00H, 'd', 00H, ':', 00H, ':', 00H, '_', 00H, 'V', 00H
	DB	'e', 00H, 'c', 00H, 't', 00H, 'o', 00H, 'r', 00H, '_', 00H, 'c'
	DB	00H, 'o', 00H, 'n', 00H, 's', 00H, 't', 00H, '_', 00H, 'i', 00H
	DB	't', 00H, 'e', 00H, 'r', 00H, 'a', 00H, 't', 00H, 'o', 00H, 'r'
	DB	00H, '<', 00H, 'c', 00H, 'l', 00H, 'a', 00H, 's', 00H, 's', 00H
	DB	' ', 00H, 's', 00H, 't', 00H, 'd', 00H, ':', 00H, ':', 00H, '_'
	DB	00H, 'V', 00H, 'e', 00H, 'c', 00H, 't', 00H, 'o', 00H, 'r', 00H
	DB	'_', 00H, 'v', 00H, 'a', 00H, 'l', 00H, '<', 00H, 's', 00H, 't'
	DB	00H, 'r', 00H, 'u', 00H, 'c', 00H, 't', 00H, ' ', 00H, 's', 00H
	DB	't', 00H, 'd', 00H, ':', 00H, ':', 00H, '_', 00H, 'S', 00H, 'i'
	DB	00H, 'm', 00H, 'p', 00H, 'l', 00H, 'e', 00H, '_', 00H, 't', 00H
	DB	'y', 00H, 'p', 00H, 'e', 00H, 's', 00H, '<', 00H, 'u', 00H, 'n'
	DB	00H, 's', 00H, 'i', 00H, 'g', 00H, 'n', 00H, 'e', 00H, 'd', 00H
	DB	' ', 00H, 'i', 00H, 'n', 00H, 't', 00H, '>', 00H, ' ', 00H, '>'
	DB	00H, ' ', 00H, '>', 00H, ':', 00H, ':', 00H, '_', 00H, 'C', 00H
	DB	'o', 00H, 'm', 00H, 'p', 00H, 'a', 00H, 't', 00H, 00H, 00H ; `string'
CONST	ENDS
;	COMDAT ??_C@_1CG@JNLFBNGN@?$AA?$CC?$AAi?$AAn?$AAv?$AAa?$AAl?$AAi?$AAd?$AA?5?$AAa?$AAr?$AAg?$AAu?$AAm?$AAe?$AAn?$AAt?$AA?$CC?$AA?$AA@
CONST	SEGMENT
??_C@_1CG@JNLFBNGN@?$AA?$CC?$AAi?$AAn?$AAv?$AAa?$AAl?$AAi?$AAd?$AA?5?$AAa?$AAr?$AAg?$AAu?$AAm?$AAe?$AAn?$AAt?$AA?$CC?$AA?$AA@ DB '"'
	DB	00H, 'i', 00H, 'n', 00H, 'v', 00H, 'a', 00H, 'l', 00H, 'i', 00H
	DB	'd', 00H, ' ', 00H, 'a', 00H, 'r', 00H, 'g', 00H, 'u', 00H, 'm'
	DB	00H, 'e', 00H, 'n', 00H, 't', 00H, '"', 00H, 00H, 00H ; `string'
CONST	ENDS
;	COMDAT ??_C@_1PC@LBNCMFIJ@?$AAs?$AAt?$AAd?$AA?3?$AA?3?$AA_?$AAV?$AAe?$AAc?$AAt?$AAo?$AAr?$AA_?$AAc?$AAo?$AAn?$AAs?$AAt?$AA_?$AAi?$AAt?$AAe?$AAr?$AAa?$AAt?$AAo?$AAr?$AA?$DM?$AAc?$AAl?$AAa?$AAs@
CONST	SEGMENT
??_C@_1PC@LBNCMFIJ@?$AAs?$AAt?$AAd?$AA?3?$AA?3?$AA_?$AAV?$AAe?$AAc?$AAt?$AAo?$AAr?$AA_?$AAc?$AAo?$AAn?$AAs?$AAt?$AA_?$AAi?$AAt?$AAe?$AAr?$AAa?$AAt?$AAo?$AAr?$AA?$DM?$AAc?$AAl?$AAa?$AAs@ DB 's'
	DB	00H, 't', 00H, 'd', 00H, ':', 00H, ':', 00H, '_', 00H, 'V', 00H
	DB	'e', 00H, 'c', 00H, 't', 00H, 'o', 00H, 'r', 00H, '_', 00H, 'c'
	DB	00H, 'o', 00H, 'n', 00H, 's', 00H, 't', 00H, '_', 00H, 'i', 00H
	DB	't', 00H, 'e', 00H, 'r', 00H, 'a', 00H, 't', 00H, 'o', 00H, 'r'
	DB	00H, '<', 00H, 'c', 00H, 'l', 00H, 'a', 00H, 's', 00H, 's', 00H
	DB	' ', 00H, 's', 00H, 't', 00H, 'd', 00H, ':', 00H, ':', 00H, '_'
	DB	00H, 'V', 00H, 'e', 00H, 'c', 00H, 't', 00H, 'o', 00H, 'r', 00H
	DB	'_', 00H, 'v', 00H, 'a', 00H, 'l', 00H, '<', 00H, 's', 00H, 't'
	DB	00H, 'r', 00H, 'u', 00H, 'c', 00H, 't', 00H, ' ', 00H, 's', 00H
	DB	't', 00H, 'd', 00H, ':', 00H, ':', 00H, '_', 00H, 'S', 00H, 'i'
	DB	00H, 'm', 00H, 'p', 00H, 'l', 00H, 'e', 00H, '_', 00H, 't', 00H
	DB	'y', 00H, 'p', 00H, 'e', 00H, 's', 00H, '<', 00H, 'c', 00H, 'l'
	DB	00H, 'a', 00H, 's', 00H, 's', 00H, ' ', 00H, 'C', 00H, 'D', 00H
	DB	'3', 00H, 'D', 00H, '1', 00H, '1', 00H, 'E', 00H, 'n', 00H, 'u'
	DB	00H, 'm', 00H, 'A', 00H, 'd', 00H, 'a', 00H, 'p', 00H, 't', 00H
	DB	'e', 00H, 'r', 00H, 'I', 00H, 'n', 00H, 'f', 00H, 'o', 00H, ' '
	DB	00H, '*', 00H, '>', 00H, ' ', 00H, '>', 00H, ' ', 00H, '>', 00H
	DB	':', 00H, ':', 00H, '_', 00H, 'C', 00H, 'o', 00H, 'm', 00H, 'p'
	DB	00H, 'a', 00H, 't', 00H, 00H, 00H		; `string'
CONST	ENDS
;	COMDAT ??_C@_1FO@GJIHNDLM@?$AA?$CC?$AAS?$AAt?$AAa?$AAn?$AAd?$AAa?$AAr?$AAd?$AA?5?$AAC?$AA?$CL?$AA?$CL?$AA?5?$AAL?$AAi?$AAb?$AAr?$AAa?$AAr?$AAi?$AAe?$AAs?$AA?5?$AAI?$AAn?$AAv?$AAa?$AAl?$AAi?$AAd?$AA?5@
CONST	SEGMENT
??_C@_1FO@GJIHNDLM@?$AA?$CC?$AAS?$AAt?$AAa?$AAn?$AAd?$AAa?$AAr?$AAd?$AA?5?$AAC?$AA?$CL?$AA?$CL?$AA?5?$AAL?$AAi?$AAb?$AAr?$AAa?$AAr?$AAi?$AAe?$AAs?$AA?5?$AAI?$AAn?$AAv?$AAa?$AAl?$AAi?$AAd?$AA?5@ DB '"'
	DB	00H, 'S', 00H, 't', 00H, 'a', 00H, 'n', 00H, 'd', 00H, 'a', 00H
	DB	'r', 00H, 'd', 00H, ' ', 00H, 'C', 00H, '+', 00H, '+', 00H, ' '
	DB	00H, 'L', 00H, 'i', 00H, 'b', 00H, 'r', 00H, 'a', 00H, 'r', 00H
	DB	'i', 00H, 'e', 00H, 's', 00H, ' ', 00H, 'I', 00H, 'n', 00H, 'v'
	DB	00H, 'a', 00H, 'l', 00H, 'i', 00H, 'd', 00H, ' ', 00H, 'A', 00H
	DB	'r', 00H, 'g', 00H, 'u', 00H, 'm', 00H, 'e', 00H, 'n', 00H, 't'
	DB	00H, '"', 00H, ' ', 00H, '&', 00H, '&', 00H, ' ', 00H, '0', 00H
	DB	00H, 00H					; `string'
CONST	ENDS
;	COMDAT ??_C@_0CI@FNPHFCCM@Standard?5C?$CL?$CL?5Libraries?5Invalid?5A@
CONST	SEGMENT
??_C@_0CI@FNPHFCCM@Standard?5C?$CL?$CL?5Libraries?5Invalid?5A@ DB 'Standa'
	DB	'rd C++ Libraries Invalid Argument', 00H	; `string'
CONST	ENDS
;	COMDAT ??_C@_1DM@HINDPMBP@?$AAv?$AAe?$AAc?$AAt?$AAo?$AAr?$AA?5?$AAi?$AAt?$AAe?$AAr?$AAa?$AAt?$AAo?$AAr?$AAs?$AA?5?$AAi?$AAn?$AAc?$AAo?$AAm?$AAp?$AAa?$AAt?$AAi?$AAb?$AAl?$AAe?$AA?$AA@
CONST	SEGMENT
??_C@_1DM@HINDPMBP@?$AAv?$AAe?$AAc?$AAt?$AAo?$AAr?$AA?5?$AAi?$AAt?$AAe?$AAr?$AAa?$AAt?$AAo?$AAr?$AAs?$AA?5?$AAi?$AAn?$AAc?$AAo?$AAm?$AAp?$AAa?$AAt?$AAi?$AAb?$AAl?$AAe?$AA?$AA@ DB 'v'
	DB	00H, 'e', 00H, 'c', 00H, 't', 00H, 'o', 00H, 'r', 00H, ' ', 00H
	DB	'i', 00H, 't', 00H, 'e', 00H, 'r', 00H, 'a', 00H, 't', 00H, 'o'
	DB	00H, 'r', 00H, 's', 00H, ' ', 00H, 'i', 00H, 'n', 00H, 'c', 00H
	DB	'o', 00H, 'm', 00H, 'p', 00H, 'a', 00H, 't', 00H, 'i', 00H, 'b'
	DB	00H, 'l', 00H, 'e', 00H, 00H, 00H		; `string'
CONST	ENDS
;	COMDAT ??_C@_1OI@LKCPICFM@?$AAs?$AAt?$AAd?$AA?3?$AA?3?$AA_?$AAV?$AAe?$AAc?$AAt?$AAo?$AAr?$AA_?$AAc?$AAo?$AAn?$AAs?$AAt?$AA_?$AAi?$AAt?$AAe?$AAr?$AAa?$AAt?$AAo?$AAr?$AA?$DM?$AAc?$AAl?$AAa?$AAs@
CONST	SEGMENT
??_C@_1OI@LKCPICFM@?$AAs?$AAt?$AAd?$AA?3?$AA?3?$AA_?$AAV?$AAe?$AAc?$AAt?$AAo?$AAr?$AA_?$AAc?$AAo?$AAn?$AAs?$AAt?$AA_?$AAi?$AAt?$AAe?$AAr?$AAa?$AAt?$AAo?$AAr?$AA?$DM?$AAc?$AAl?$AAa?$AAs@ DB 's'
	DB	00H, 't', 00H, 'd', 00H, ':', 00H, ':', 00H, '_', 00H, 'V', 00H
	DB	'e', 00H, 'c', 00H, 't', 00H, 'o', 00H, 'r', 00H, '_', 00H, 'c'
	DB	00H, 'o', 00H, 'n', 00H, 's', 00H, 't', 00H, '_', 00H, 'i', 00H
	DB	't', 00H, 'e', 00H, 'r', 00H, 'a', 00H, 't', 00H, 'o', 00H, 'r'
	DB	00H, '<', 00H, 'c', 00H, 'l', 00H, 'a', 00H, 's', 00H, 's', 00H
	DB	' ', 00H, 's', 00H, 't', 00H, 'd', 00H, ':', 00H, ':', 00H, '_'
	DB	00H, 'V', 00H, 'e', 00H, 'c', 00H, 't', 00H, 'o', 00H, 'r', 00H
	DB	'_', 00H, 'v', 00H, 'a', 00H, 'l', 00H, '<', 00H, 's', 00H, 't'
	DB	00H, 'r', 00H, 'u', 00H, 'c', 00H, 't', 00H, ' ', 00H, 's', 00H
	DB	't', 00H, 'd', 00H, ':', 00H, ':', 00H, '_', 00H, 'S', 00H, 'i'
	DB	00H, 'm', 00H, 'p', 00H, 'l', 00H, 'e', 00H, '_', 00H, 't', 00H
	DB	'y', 00H, 'p', 00H, 'e', 00H, 's', 00H, '<', 00H, 's', 00H, 't'
	DB	00H, 'r', 00H, 'u', 00H, 'c', 00H, 't', 00H, ' ', 00H, 'D', 00H
	DB	'X', 00H, 'G', 00H, 'I', 00H, '_', 00H, 'M', 00H, 'O', 00H, 'D'
	DB	00H, 'E', 00H, '_', 00H, 'D', 00H, 'E', 00H, 'S', 00H, 'C', 00H
	DB	'>', 00H, ' ', 00H, '>', 00H, ' ', 00H, '>', 00H, ':', 00H, ':'
	DB	00H, 'o', 00H, 'p', 00H, 'e', 00H, 'r', 00H, 'a', 00H, 't', 00H
	DB	'o', 00H, 'r', 00H, ' ', 00H, '*', 00H, 00H, 00H ; `string'
CONST	ENDS
;	COMDAT ??_C@_1OK@KJNHLBOB@?$AAs?$AAt?$AAd?$AA?3?$AA?3?$AA_?$AAV?$AAe?$AAc?$AAt?$AAo?$AAr?$AA_?$AAc?$AAo?$AAn?$AAs?$AAt?$AA_?$AAi?$AAt?$AAe?$AAr?$AAa?$AAt?$AAo?$AAr?$AA?$DM?$AAc?$AAl?$AAa?$AAs@
CONST	SEGMENT
??_C@_1OK@KJNHLBOB@?$AAs?$AAt?$AAd?$AA?3?$AA?3?$AA_?$AAV?$AAe?$AAc?$AAt?$AAo?$AAr?$AA_?$AAc?$AAo?$AAn?$AAs?$AAt?$AA_?$AAi?$AAt?$AAe?$AAr?$AAa?$AAt?$AAo?$AAr?$AA?$DM?$AAc?$AAl?$AAa?$AAs@ DB 's'
	DB	00H, 't', 00H, 'd', 00H, ':', 00H, ':', 00H, '_', 00H, 'V', 00H
	DB	'e', 00H, 'c', 00H, 't', 00H, 'o', 00H, 'r', 00H, '_', 00H, 'c'
	DB	00H, 'o', 00H, 'n', 00H, 's', 00H, 't', 00H, '_', 00H, 'i', 00H
	DB	't', 00H, 'e', 00H, 'r', 00H, 'a', 00H, 't', 00H, 'o', 00H, 'r'
	DB	00H, '<', 00H, 'c', 00H, 'l', 00H, 'a', 00H, 's', 00H, 's', 00H
	DB	' ', 00H, 's', 00H, 't', 00H, 'd', 00H, ':', 00H, ':', 00H, '_'
	DB	00H, 'V', 00H, 'e', 00H, 'c', 00H, 't', 00H, 'o', 00H, 'r', 00H
	DB	'_', 00H, 'v', 00H, 'a', 00H, 'l', 00H, '<', 00H, 's', 00H, 't'
	DB	00H, 'r', 00H, 'u', 00H, 'c', 00H, 't', 00H, ' ', 00H, 's', 00H
	DB	't', 00H, 'd', 00H, ':', 00H, ':', 00H, '_', 00H, 'S', 00H, 'i'
	DB	00H, 'm', 00H, 'p', 00H, 'l', 00H, 'e', 00H, '_', 00H, 't', 00H
	DB	'y', 00H, 'p', 00H, 'e', 00H, 's', 00H, '<', 00H, 's', 00H, 't'
	DB	00H, 'r', 00H, 'u', 00H, 'c', 00H, 't', 00H, ' ', 00H, 'D', 00H
	DB	'X', 00H, 'G', 00H, 'I', 00H, '_', 00H, 'M', 00H, 'O', 00H, 'D'
	DB	00H, 'E', 00H, '_', 00H, 'D', 00H, 'E', 00H, 'S', 00H, 'C', 00H
	DB	'>', 00H, ' ', 00H, '>', 00H, ' ', 00H, '>', 00H, ':', 00H, ':'
	DB	00H, 'o', 00H, 'p', 00H, 'e', 00H, 'r', 00H, 'a', 00H, 't', 00H
	DB	'o', 00H, 'r', 00H, ' ', 00H, '+', 00H, '+', 00H, 00H, 00H ; `string'
CONST	ENDS
;	COMDAT ??_C@_1NI@CDNGJJHP@?$AAs?$AAt?$AAd?$AA?3?$AA?3?$AA_?$AAV?$AAe?$AAc?$AAt?$AAo?$AAr?$AA_?$AAc?$AAo?$AAn?$AAs?$AAt?$AA_?$AAi?$AAt?$AAe?$AAr?$AAa?$AAt?$AAo?$AAr?$AA?$DM?$AAc?$AAl?$AAa?$AAs@
CONST	SEGMENT
??_C@_1NI@CDNGJJHP@?$AAs?$AAt?$AAd?$AA?3?$AA?3?$AA_?$AAV?$AAe?$AAc?$AAt?$AAo?$AAr?$AA_?$AAc?$AAo?$AAn?$AAs?$AAt?$AA_?$AAi?$AAt?$AAe?$AAr?$AAa?$AAt?$AAo?$AAr?$AA?$DM?$AAc?$AAl?$AAa?$AAs@ DB 's'
	DB	00H, 't', 00H, 'd', 00H, ':', 00H, ':', 00H, '_', 00H, 'V', 00H
	DB	'e', 00H, 'c', 00H, 't', 00H, 'o', 00H, 'r', 00H, '_', 00H, 'c'
	DB	00H, 'o', 00H, 'n', 00H, 's', 00H, 't', 00H, '_', 00H, 'i', 00H
	DB	't', 00H, 'e', 00H, 'r', 00H, 'a', 00H, 't', 00H, 'o', 00H, 'r'
	DB	00H, '<', 00H, 'c', 00H, 'l', 00H, 'a', 00H, 's', 00H, 's', 00H
	DB	' ', 00H, 's', 00H, 't', 00H, 'd', 00H, ':', 00H, ':', 00H, '_'
	DB	00H, 'V', 00H, 'e', 00H, 'c', 00H, 't', 00H, 'o', 00H, 'r', 00H
	DB	'_', 00H, 'v', 00H, 'a', 00H, 'l', 00H, '<', 00H, 's', 00H, 't'
	DB	00H, 'r', 00H, 'u', 00H, 'c', 00H, 't', 00H, ' ', 00H, 's', 00H
	DB	't', 00H, 'd', 00H, ':', 00H, ':', 00H, '_', 00H, 'S', 00H, 'i'
	DB	00H, 'm', 00H, 'p', 00H, 'l', 00H, 'e', 00H, '_', 00H, 't', 00H
	DB	'y', 00H, 'p', 00H, 'e', 00H, 's', 00H, '<', 00H, 'u', 00H, 'n'
	DB	00H, 's', 00H, 'i', 00H, 'g', 00H, 'n', 00H, 'e', 00H, 'd', 00H
	DB	' ', 00H, 'i', 00H, 'n', 00H, 't', 00H, '>', 00H, ' ', 00H, '>'
	DB	00H, ' ', 00H, '>', 00H, ':', 00H, ':', 00H, 'o', 00H, 'p', 00H
	DB	'e', 00H, 'r', 00H, 'a', 00H, 't', 00H, 'o', 00H, 'r', 00H, ' '
	DB	00H, '+', 00H, '+', 00H, 00H, 00H		; `string'
CONST	ENDS
;	COMDAT ??_C@_1NG@DAPFFJEF@?$AAs?$AAt?$AAd?$AA?3?$AA?3?$AA_?$AAV?$AAe?$AAc?$AAt?$AAo?$AAr?$AA_?$AAc?$AAo?$AAn?$AAs?$AAt?$AA_?$AAi?$AAt?$AAe?$AAr?$AAa?$AAt?$AAo?$AAr?$AA?$DM?$AAc?$AAl?$AAa?$AAs@
CONST	SEGMENT
??_C@_1NG@DAPFFJEF@?$AAs?$AAt?$AAd?$AA?3?$AA?3?$AA_?$AAV?$AAe?$AAc?$AAt?$AAo?$AAr?$AA_?$AAc?$AAo?$AAn?$AAs?$AAt?$AA_?$AAi?$AAt?$AAe?$AAr?$AAa?$AAt?$AAo?$AAr?$AA?$DM?$AAc?$AAl?$AAa?$AAs@ DB 's'
	DB	00H, 't', 00H, 'd', 00H, ':', 00H, ':', 00H, '_', 00H, 'V', 00H
	DB	'e', 00H, 'c', 00H, 't', 00H, 'o', 00H, 'r', 00H, '_', 00H, 'c'
	DB	00H, 'o', 00H, 'n', 00H, 's', 00H, 't', 00H, '_', 00H, 'i', 00H
	DB	't', 00H, 'e', 00H, 'r', 00H, 'a', 00H, 't', 00H, 'o', 00H, 'r'
	DB	00H, '<', 00H, 'c', 00H, 'l', 00H, 'a', 00H, 's', 00H, 's', 00H
	DB	' ', 00H, 's', 00H, 't', 00H, 'd', 00H, ':', 00H, ':', 00H, '_'
	DB	00H, 'V', 00H, 'e', 00H, 'c', 00H, 't', 00H, 'o', 00H, 'r', 00H
	DB	'_', 00H, 'v', 00H, 'a', 00H, 'l', 00H, '<', 00H, 's', 00H, 't'
	DB	00H, 'r', 00H, 'u', 00H, 'c', 00H, 't', 00H, ' ', 00H, 's', 00H
	DB	't', 00H, 'd', 00H, ':', 00H, ':', 00H, '_', 00H, 'S', 00H, 'i'
	DB	00H, 'm', 00H, 'p', 00H, 'l', 00H, 'e', 00H, '_', 00H, 't', 00H
	DB	'y', 00H, 'p', 00H, 'e', 00H, 's', 00H, '<', 00H, 'u', 00H, 'n'
	DB	00H, 's', 00H, 'i', 00H, 'g', 00H, 'n', 00H, 'e', 00H, 'd', 00H
	DB	' ', 00H, 'i', 00H, 'n', 00H, 't', 00H, '>', 00H, ' ', 00H, '>'
	DB	00H, ' ', 00H, '>', 00H, ':', 00H, ':', 00H, 'o', 00H, 'p', 00H
	DB	'e', 00H, 'r', 00H, 'a', 00H, 't', 00H, 'o', 00H, 'r', 00H, ' '
	DB	00H, '*', 00H, 00H, 00H			; `string'
CONST	ENDS
;	COMDAT ??_C@_1PK@HACCEAFD@?$AAs?$AAt?$AAd?$AA?3?$AA?3?$AA_?$AAV?$AAe?$AAc?$AAt?$AAo?$AAr?$AA_?$AAc?$AAo?$AAn?$AAs?$AAt?$AA_?$AAi?$AAt?$AAe?$AAr?$AAa?$AAt?$AAo?$AAr?$AA?$DM?$AAc?$AAl?$AAa?$AAs@
CONST	SEGMENT
??_C@_1PK@HACCEAFD@?$AAs?$AAt?$AAd?$AA?3?$AA?3?$AA_?$AAV?$AAe?$AAc?$AAt?$AAo?$AAr?$AA_?$AAc?$AAo?$AAn?$AAs?$AAt?$AA_?$AAi?$AAt?$AAe?$AAr?$AAa?$AAt?$AAo?$AAr?$AA?$DM?$AAc?$AAl?$AAa?$AAs@ DB 's'
	DB	00H, 't', 00H, 'd', 00H, ':', 00H, ':', 00H, '_', 00H, 'V', 00H
	DB	'e', 00H, 'c', 00H, 't', 00H, 'o', 00H, 'r', 00H, '_', 00H, 'c'
	DB	00H, 'o', 00H, 'n', 00H, 's', 00H, 't', 00H, '_', 00H, 'i', 00H
	DB	't', 00H, 'e', 00H, 'r', 00H, 'a', 00H, 't', 00H, 'o', 00H, 'r'
	DB	00H, '<', 00H, 'c', 00H, 'l', 00H, 'a', 00H, 's', 00H, 's', 00H
	DB	' ', 00H, 's', 00H, 't', 00H, 'd', 00H, ':', 00H, ':', 00H, '_'
	DB	00H, 'V', 00H, 'e', 00H, 'c', 00H, 't', 00H, 'o', 00H, 'r', 00H
	DB	'_', 00H, 'v', 00H, 'a', 00H, 'l', 00H, '<', 00H, 's', 00H, 't'
	DB	00H, 'r', 00H, 'u', 00H, 'c', 00H, 't', 00H, ' ', 00H, 's', 00H
	DB	't', 00H, 'd', 00H, ':', 00H, ':', 00H, '_', 00H, 'S', 00H, 'i'
	DB	00H, 'm', 00H, 'p', 00H, 'l', 00H, 'e', 00H, '_', 00H, 't', 00H
	DB	'y', 00H, 'p', 00H, 'e', 00H, 's', 00H, '<', 00H, 'c', 00H, 'l'
	DB	00H, 'a', 00H, 's', 00H, 's', 00H, ' ', 00H, 'C', 00H, 'D', 00H
	DB	'3', 00H, 'D', 00H, '1', 00H, '1', 00H, 'E', 00H, 'n', 00H, 'u'
	DB	00H, 'm', 00H, 'A', 00H, 'd', 00H, 'a', 00H, 'p', 00H, 't', 00H
	DB	'e', 00H, 'r', 00H, 'I', 00H, 'n', 00H, 'f', 00H, 'o', 00H, ' '
	DB	00H, '*', 00H, '>', 00H, ' ', 00H, '>', 00H, ' ', 00H, '>', 00H
	DB	':', 00H, ':', 00H, 'o', 00H, 'p', 00H, 'e', 00H, 'r', 00H, 'a'
	DB	00H, 't', 00H, 'o', 00H, 'r', 00H, ' ', 00H, '+', 00H, '+', 00H
	DB	00H, 00H					; `string'
CONST	ENDS
;	COMDAT ??_C@_1EE@EJDKCLKB@?$AAv?$AAe?$AAc?$AAt?$AAo?$AAr?$AA?5?$AAi?$AAt?$AAe?$AAr?$AAa?$AAt?$AAo?$AAr?$AA?5?$AAn?$AAo?$AAt?$AA?5?$AAi?$AAn?$AAc?$AAr?$AAe?$AAm?$AAe?$AAn?$AAt?$AAa?$AAb?$AAl@
CONST	SEGMENT
??_C@_1EE@EJDKCLKB@?$AAv?$AAe?$AAc?$AAt?$AAo?$AAr?$AA?5?$AAi?$AAt?$AAe?$AAr?$AAa?$AAt?$AAo?$AAr?$AA?5?$AAn?$AAo?$AAt?$AA?5?$AAi?$AAn?$AAc?$AAr?$AAe?$AAm?$AAe?$AAn?$AAt?$AAa?$AAb?$AAl@ DB 'v'
	DB	00H, 'e', 00H, 'c', 00H, 't', 00H, 'o', 00H, 'r', 00H, ' ', 00H
	DB	'i', 00H, 't', 00H, 'e', 00H, 'r', 00H, 'a', 00H, 't', 00H, 'o'
	DB	00H, 'r', 00H, ' ', 00H, 'n', 00H, 'o', 00H, 't', 00H, ' ', 00H
	DB	'i', 00H, 'n', 00H, 'c', 00H, 'r', 00H, 'e', 00H, 'm', 00H, 'e'
	DB	00H, 'n', 00H, 't', 00H, 'a', 00H, 'b', 00H, 'l', 00H, 'e', 00H
	DB	00H, 00H					; `string'
CONST	ENDS
;	COMDAT ??_C@_1PI@MICGNEKL@?$AAs?$AAt?$AAd?$AA?3?$AA?3?$AA_?$AAV?$AAe?$AAc?$AAt?$AAo?$AAr?$AA_?$AAc?$AAo?$AAn?$AAs?$AAt?$AA_?$AAi?$AAt?$AAe?$AAr?$AAa?$AAt?$AAo?$AAr?$AA?$DM?$AAc?$AAl?$AAa?$AAs@
CONST	SEGMENT
??_C@_1PI@MICGNEKL@?$AAs?$AAt?$AAd?$AA?3?$AA?3?$AA_?$AAV?$AAe?$AAc?$AAt?$AAo?$AAr?$AA_?$AAc?$AAo?$AAn?$AAs?$AAt?$AA_?$AAi?$AAt?$AAe?$AAr?$AAa?$AAt?$AAo?$AAr?$AA?$DM?$AAc?$AAl?$AAa?$AAs@ DB 's'
	DB	00H, 't', 00H, 'd', 00H, ':', 00H, ':', 00H, '_', 00H, 'V', 00H
	DB	'e', 00H, 'c', 00H, 't', 00H, 'o', 00H, 'r', 00H, '_', 00H, 'c'
	DB	00H, 'o', 00H, 'n', 00H, 's', 00H, 't', 00H, '_', 00H, 'i', 00H
	DB	't', 00H, 'e', 00H, 'r', 00H, 'a', 00H, 't', 00H, 'o', 00H, 'r'
	DB	00H, '<', 00H, 'c', 00H, 'l', 00H, 'a', 00H, 's', 00H, 's', 00H
	DB	' ', 00H, 's', 00H, 't', 00H, 'd', 00H, ':', 00H, ':', 00H, '_'
	DB	00H, 'V', 00H, 'e', 00H, 'c', 00H, 't', 00H, 'o', 00H, 'r', 00H
	DB	'_', 00H, 'v', 00H, 'a', 00H, 'l', 00H, '<', 00H, 's', 00H, 't'
	DB	00H, 'r', 00H, 'u', 00H, 'c', 00H, 't', 00H, ' ', 00H, 's', 00H
	DB	't', 00H, 'd', 00H, ':', 00H, ':', 00H, '_', 00H, 'S', 00H, 'i'
	DB	00H, 'm', 00H, 'p', 00H, 'l', 00H, 'e', 00H, '_', 00H, 't', 00H
	DB	'y', 00H, 'p', 00H, 'e', 00H, 's', 00H, '<', 00H, 'c', 00H, 'l'
	DB	00H, 'a', 00H, 's', 00H, 's', 00H, ' ', 00H, 'C', 00H, 'D', 00H
	DB	'3', 00H, 'D', 00H, '1', 00H, '1', 00H, 'E', 00H, 'n', 00H, 'u'
	DB	00H, 'm', 00H, 'A', 00H, 'd', 00H, 'a', 00H, 'p', 00H, 't', 00H
	DB	'e', 00H, 'r', 00H, 'I', 00H, 'n', 00H, 'f', 00H, 'o', 00H, ' '
	DB	00H, '*', 00H, '>', 00H, ' ', 00H, '>', 00H, ' ', 00H, '>', 00H
	DB	':', 00H, ':', 00H, 'o', 00H, 'p', 00H, 'e', 00H, 'r', 00H, 'a'
	DB	00H, 't', 00H, 'o', 00H, 'r', 00H, ' ', 00H, '*', 00H, 00H, 00H ; `string'
CONST	ENDS
;	COMDAT ??_C@_1EG@FOHJJHAC@?$AAv?$AAe?$AAc?$AAt?$AAo?$AAr?$AA?5?$AAi?$AAt?$AAe?$AAr?$AAa?$AAt?$AAo?$AAr?$AA?5?$AAn?$AAo?$AAt?$AA?5?$AAd?$AAe?$AAr?$AAe?$AAf?$AAe?$AAr?$AAe?$AAn?$AAc?$AAa?$AAb@
CONST	SEGMENT
??_C@_1EG@FOHJJHAC@?$AAv?$AAe?$AAc?$AAt?$AAo?$AAr?$AA?5?$AAi?$AAt?$AAe?$AAr?$AAa?$AAt?$AAo?$AAr?$AA?5?$AAn?$AAo?$AAt?$AA?5?$AAd?$AAe?$AAr?$AAe?$AAf?$AAe?$AAr?$AAe?$AAn?$AAc?$AAa?$AAb@ DB 'v'
	DB	00H, 'e', 00H, 'c', 00H, 't', 00H, 'o', 00H, 'r', 00H, ' ', 00H
	DB	'i', 00H, 't', 00H, 'e', 00H, 'r', 00H, 'a', 00H, 't', 00H, 'o'
	DB	00H, 'r', 00H, ' ', 00H, 'n', 00H, 'o', 00H, 't', 00H, ' ', 00H
	DB	'd', 00H, 'e', 00H, 'r', 00H, 'e', 00H, 'f', 00H, 'e', 00H, 'r'
	DB	00H, 'e', 00H, 'n', 00H, 'c', 00H, 'a', 00H, 'b', 00H, 'l', 00H
	DB	'e', 00H, 00H, 00H				; `string'
CONST	ENDS
;	COMDAT ??_C@_1LG@FALFGADF@?$AAs?$AAt?$AAd?$AA?3?$AA?3?$AAv?$AAe?$AAc?$AAt?$AAo?$AAr?$AA?$DM?$AAc?$AAl?$AAa?$AAs?$AAs?$AA?5?$AAC?$AAD?$AAX?$AAU?$AAT?$AAE?$AAl?$AAe?$AAm?$AAe?$AAn?$AAt?$AA?5?$AA?$CK@
CONST	SEGMENT
??_C@_1LG@FALFGADF@?$AAs?$AAt?$AAd?$AA?3?$AA?3?$AAv?$AAe?$AAc?$AAt?$AAo?$AAr?$AA?$DM?$AAc?$AAl?$AAa?$AAs?$AAs?$AA?5?$AAC?$AAD?$AAX?$AAU?$AAT?$AAE?$AAl?$AAe?$AAm?$AAe?$AAn?$AAt?$AA?5?$AA?$CK@ DB 's'
	DB	00H, 't', 00H, 'd', 00H, ':', 00H, ':', 00H, 'v', 00H, 'e', 00H
	DB	'c', 00H, 't', 00H, 'o', 00H, 'r', 00H, '<', 00H, 'c', 00H, 'l'
	DB	00H, 'a', 00H, 's', 00H, 's', 00H, ' ', 00H, 'C', 00H, 'D', 00H
	DB	'X', 00H, 'U', 00H, 'T', 00H, 'E', 00H, 'l', 00H, 'e', 00H, 'm'
	DB	00H, 'e', 00H, 'n', 00H, 't', 00H, ' ', 00H, '*', 00H, ',', 00H
	DB	'c', 00H, 'l', 00H, 'a', 00H, 's', 00H, 's', 00H, ' ', 00H, 's'
	DB	00H, 't', 00H, 'd', 00H, ':', 00H, ':', 00H, 'a', 00H, 'l', 00H
	DB	'l', 00H, 'o', 00H, 'c', 00H, 'a', 00H, 't', 00H, 'o', 00H, 'r'
	DB	00H, '<', 00H, 'c', 00H, 'l', 00H, 'a', 00H, 's', 00H, 's', 00H
	DB	' ', 00H, 'C', 00H, 'D', 00H, 'X', 00H, 'U', 00H, 'T', 00H, 'E'
	DB	00H, 'l', 00H, 'e', 00H, 'm', 00H, 'e', 00H, 'n', 00H, 't', 00H
	DB	' ', 00H, '*', 00H, '>', 00H, ' ', 00H, '>', 00H, ':', 00H, ':'
	DB	00H, 'o', 00H, 'p', 00H, 'e', 00H, 'r', 00H, 'a', 00H, 't', 00H
	DB	'o', 00H, 'r', 00H, ' ', 00H, '[', 00H, ']', 00H, 00H, 00H ; `string'
CONST	ENDS
;	COMDAT ??_C@_1JG@ILDNFCDK@?$AAs?$AAt?$AAd?$AA?3?$AA?3?$AAv?$AAe?$AAc?$AAt?$AAo?$AAr?$AA?$DM?$AAu?$AAn?$AAs?$AAi?$AAg?$AAn?$AAe?$AAd?$AA?5?$AAi?$AAn?$AAt?$AA?0?$AAc?$AAl?$AAa?$AAs?$AAs?$AA?5?$AAs@
CONST	SEGMENT
??_C@_1JG@ILDNFCDK@?$AAs?$AAt?$AAd?$AA?3?$AA?3?$AAv?$AAe?$AAc?$AAt?$AAo?$AAr?$AA?$DM?$AAu?$AAn?$AAs?$AAi?$AAg?$AAn?$AAe?$AAd?$AA?5?$AAi?$AAn?$AAt?$AA?0?$AAc?$AAl?$AAa?$AAs?$AAs?$AA?5?$AAs@ DB 's'
	DB	00H, 't', 00H, 'd', 00H, ':', 00H, ':', 00H, 'v', 00H, 'e', 00H
	DB	'c', 00H, 't', 00H, 'o', 00H, 'r', 00H, '<', 00H, 'u', 00H, 'n'
	DB	00H, 's', 00H, 'i', 00H, 'g', 00H, 'n', 00H, 'e', 00H, 'd', 00H
	DB	' ', 00H, 'i', 00H, 'n', 00H, 't', 00H, ',', 00H, 'c', 00H, 'l'
	DB	00H, 'a', 00H, 's', 00H, 's', 00H, ' ', 00H, 's', 00H, 't', 00H
	DB	'd', 00H, ':', 00H, ':', 00H, 'a', 00H, 'l', 00H, 'l', 00H, 'o'
	DB	00H, 'c', 00H, 'a', 00H, 't', 00H, 'o', 00H, 'r', 00H, '<', 00H
	DB	'u', 00H, 'n', 00H, 's', 00H, 'i', 00H, 'g', 00H, 'n', 00H, 'e'
	DB	00H, 'd', 00H, ' ', 00H, 'i', 00H, 'n', 00H, 't', 00H, '>', 00H
	DB	' ', 00H, '>', 00H, ':', 00H, ':', 00H, 'o', 00H, 'p', 00H, 'e'
	DB	00H, 'r', 00H, 'a', 00H, 't', 00H, 'o', 00H, 'r', 00H, ' ', 00H
	DB	'[', 00H, ']', 00H, 00H, 00H			; `string'
CONST	ENDS
;	COMDAT ??_C@_1LK@CIKAIPAF@?$AAs?$AAt?$AAd?$AA?3?$AA?3?$AAv?$AAe?$AAc?$AAt?$AAo?$AAr?$AA?$DM?$AAs?$AAt?$AAr?$AAu?$AAc?$AAt?$AA?5?$AAD?$AAX?$AAG?$AAI?$AA_?$AAM?$AAO?$AAD?$AAE?$AA_?$AAD?$AAE?$AAS@
CONST	SEGMENT
??_C@_1LK@CIKAIPAF@?$AAs?$AAt?$AAd?$AA?3?$AA?3?$AAv?$AAe?$AAc?$AAt?$AAo?$AAr?$AA?$DM?$AAs?$AAt?$AAr?$AAu?$AAc?$AAt?$AA?5?$AAD?$AAX?$AAG?$AAI?$AA_?$AAM?$AAO?$AAD?$AAE?$AA_?$AAD?$AAE?$AAS@ DB 's'
	DB	00H, 't', 00H, 'd', 00H, ':', 00H, ':', 00H, 'v', 00H, 'e', 00H
	DB	'c', 00H, 't', 00H, 'o', 00H, 'r', 00H, '<', 00H, 's', 00H, 't'
	DB	00H, 'r', 00H, 'u', 00H, 'c', 00H, 't', 00H, ' ', 00H, 'D', 00H
	DB	'X', 00H, 'G', 00H, 'I', 00H, '_', 00H, 'M', 00H, 'O', 00H, 'D'
	DB	00H, 'E', 00H, '_', 00H, 'D', 00H, 'E', 00H, 'S', 00H, 'C', 00H
	DB	',', 00H, 'c', 00H, 'l', 00H, 'a', 00H, 's', 00H, 's', 00H, ' '
	DB	00H, 's', 00H, 't', 00H, 'd', 00H, ':', 00H, ':', 00H, 'a', 00H
	DB	'l', 00H, 'l', 00H, 'o', 00H, 'c', 00H, 'a', 00H, 't', 00H, 'o'
	DB	00H, 'r', 00H, '<', 00H, 's', 00H, 't', 00H, 'r', 00H, 'u', 00H
	DB	'c', 00H, 't', 00H, ' ', 00H, 'D', 00H, 'X', 00H, 'G', 00H, 'I'
	DB	00H, '_', 00H, 'M', 00H, 'O', 00H, 'D', 00H, 'E', 00H, '_', 00H
	DB	'D', 00H, 'E', 00H, 'S', 00H, 'C', 00H, '>', 00H, ' ', 00H, '>'
	DB	00H, ':', 00H, ':', 00H, 'o', 00H, 'p', 00H, 'e', 00H, 'r', 00H
	DB	'a', 00H, 't', 00H, 'o', 00H, 'r', 00H, ' ', 00H, '[', 00H, ']'
	DB	00H, 00H, 00H				; `string'
CONST	ENDS
;	COMDAT ??_C@_1PO@FFNDBIOE@?$AAs?$AAt?$AAd?$AA?3?$AA?3?$AAv?$AAe?$AAc?$AAt?$AAo?$AAr?$AA?$DM?$AAs?$AAt?$AAr?$AAu?$AAc?$AAt?$AA?5?$AAC?$AAD?$AA3?$AAD?$AA1?$AA1?$AAE?$AAn?$AAu?$AAm?$AAD?$AAe?$AAv@
CONST	SEGMENT
??_C@_1PO@FFNDBIOE@?$AAs?$AAt?$AAd?$AA?3?$AA?3?$AAv?$AAe?$AAc?$AAt?$AAo?$AAr?$AA?$DM?$AAs?$AAt?$AAr?$AAu?$AAc?$AAt?$AA?5?$AAC?$AAD?$AA3?$AAD?$AA1?$AA1?$AAE?$AAn?$AAu?$AAm?$AAD?$AAe?$AAv@ DB 's'
	DB	00H, 't', 00H, 'd', 00H, ':', 00H, ':', 00H, 'v', 00H, 'e', 00H
	DB	'c', 00H, 't', 00H, 'o', 00H, 'r', 00H, '<', 00H, 's', 00H, 't'
	DB	00H, 'r', 00H, 'u', 00H, 'c', 00H, 't', 00H, ' ', 00H, 'C', 00H
	DB	'D', 00H, '3', 00H, 'D', 00H, '1', 00H, '1', 00H, 'E', 00H, 'n'
	DB	00H, 'u', 00H, 'm', 00H, 'D', 00H, 'e', 00H, 'v', 00H, 'i', 00H
	DB	'c', 00H, 'e', 00H, 'S', 00H, 'e', 00H, 't', 00H, 't', 00H, 'i'
	DB	00H, 'n', 00H, 'g', 00H, 's', 00H, 'C', 00H, 'o', 00H, 'm', 00H
	DB	'b', 00H, 'o', 00H, ' ', 00H, '*', 00H, ',', 00H, 'c', 00H, 'l'
	DB	00H, 'a', 00H, 's', 00H, 's', 00H, ' ', 00H, 's', 00H, 't', 00H
	DB	'd', 00H, ':', 00H, ':', 00H, 'a', 00H, 'l', 00H, 'l', 00H, 'o'
	DB	00H, 'c', 00H, 'a', 00H, 't', 00H, 'o', 00H, 'r', 00H, '<', 00H
	DB	's', 00H, 't', 00H, 'r', 00H, 'u', 00H, 'c', 00H, 't', 00H, ' '
	DB	00H, 'C', 00H, 'D', 00H, '3', 00H, 'D', 00H, '1', 00H, '1', 00H
	DB	'E', 00H, 'n', 00H, 'u', 00H, 'm', 00H, 'D', 00H, 'e', 00H, 'v'
	DB	00H, 'i', 00H, 'c', 00H, 'e', 00H, 'S', 00H, 'e', 00H, 't', 00H
	DB	't', 00H, 'i', 00H, 'n', 00H, 'g', 00H, 's', 00H, 'C', 00H, 'o'
	DB	00H, 'm', 00H, 'b', 00H, 'o', 00H, ' ', 00H, '*', 00H, '>', 00H
	DB	' ', 00H, '>', 00H, ':', 00H, ':', 00H, 'o', 00H, 'p', 00H, 'e'
	DB	00H, 'r', 00H, 'a', 00H, 't', 00H, 'o', 00H, 'r', 00H, ' ', 00H
	DB	'[', 00H, ']', 00H, 00H, 00H			; `string'
CONST	ENDS
;	COMDAT ??_C@_1NG@EIKOPBNN@?$AAs?$AAt?$AAd?$AA?3?$AA?3?$AAv?$AAe?$AAc?$AAt?$AAo?$AAr?$AA?$DM?$AAc?$AAl?$AAa?$AAs?$AAs?$AA?5?$AAC?$AAD?$AA3?$AAD?$AA1?$AA1?$AAE?$AAn?$AAu?$AAm?$AAD?$AAe?$AAv?$AAi@
CONST	SEGMENT
??_C@_1NG@EIKOPBNN@?$AAs?$AAt?$AAd?$AA?3?$AA?3?$AAv?$AAe?$AAc?$AAt?$AAo?$AAr?$AA?$DM?$AAc?$AAl?$AAa?$AAs?$AAs?$AA?5?$AAC?$AAD?$AA3?$AAD?$AA1?$AA1?$AAE?$AAn?$AAu?$AAm?$AAD?$AAe?$AAv?$AAi@ DB 's'
	DB	00H, 't', 00H, 'd', 00H, ':', 00H, ':', 00H, 'v', 00H, 'e', 00H
	DB	'c', 00H, 't', 00H, 'o', 00H, 'r', 00H, '<', 00H, 'c', 00H, 'l'
	DB	00H, 'a', 00H, 's', 00H, 's', 00H, ' ', 00H, 'C', 00H, 'D', 00H
	DB	'3', 00H, 'D', 00H, '1', 00H, '1', 00H, 'E', 00H, 'n', 00H, 'u'
	DB	00H, 'm', 00H, 'D', 00H, 'e', 00H, 'v', 00H, 'i', 00H, 'c', 00H
	DB	'e', 00H, 'I', 00H, 'n', 00H, 'f', 00H, 'o', 00H, ' ', 00H, '*'
	DB	00H, ',', 00H, 'c', 00H, 'l', 00H, 'a', 00H, 's', 00H, 's', 00H
	DB	' ', 00H, 's', 00H, 't', 00H, 'd', 00H, ':', 00H, ':', 00H, 'a'
	DB	00H, 'l', 00H, 'l', 00H, 'o', 00H, 'c', 00H, 'a', 00H, 't', 00H
	DB	'o', 00H, 'r', 00H, '<', 00H, 'c', 00H, 'l', 00H, 'a', 00H, 's'
	DB	00H, 's', 00H, ' ', 00H, 'C', 00H, 'D', 00H, '3', 00H, 'D', 00H
	DB	'1', 00H, '1', 00H, 'E', 00H, 'n', 00H, 'u', 00H, 'm', 00H, 'D'
	DB	00H, 'e', 00H, 'v', 00H, 'i', 00H, 'c', 00H, 'e', 00H, 'I', 00H
	DB	'n', 00H, 'f', 00H, 'o', 00H, ' ', 00H, '*', 00H, '>', 00H, ' '
	DB	00H, '>', 00H, ':', 00H, ':', 00H, 'o', 00H, 'p', 00H, 'e', 00H
	DB	'r', 00H, 'a', 00H, 't', 00H, 'o', 00H, 'r', 00H, ' ', 00H, '['
	DB	00H, ']', 00H, 00H, 00H			; `string'
CONST	ENDS
;	COMDAT ??_C@_1BO@MEPPHOO@?$AA?$CC?$AAo?$AAu?$AAt?$AA?5?$AAo?$AAf?$AA?5?$AAr?$AAa?$AAn?$AAg?$AAe?$AA?$CC?$AA?$AA@
CONST	SEGMENT
??_C@_1BO@MEPPHOO@?$AA?$CC?$AAo?$AAu?$AAt?$AA?5?$AAo?$AAf?$AA?5?$AAr?$AAa?$AAn?$AAg?$AAe?$AA?$CC?$AA?$AA@ DB '"'
	DB	00H, 'o', 00H, 'u', 00H, 't', 00H, ' ', 00H, 'o', 00H, 'f', 00H
	DB	' ', 00H, 'r', 00H, 'a', 00H, 'n', 00H, 'g', 00H, 'e', 00H, '"'
	DB	00H, 00H, 00H				; `string'
CONST	ENDS
;	COMDAT ??_C@_1NG@BAGGOCPN@?$AAs?$AAt?$AAd?$AA?3?$AA?3?$AAv?$AAe?$AAc?$AAt?$AAo?$AAr?$AA?$DM?$AAc?$AAl?$AAa?$AAs?$AAs?$AA?5?$AAC?$AAD?$AA3?$AAD?$AA1?$AA1?$AAE?$AAn?$AAu?$AAm?$AAO?$AAu?$AAt?$AAp@
CONST	SEGMENT
??_C@_1NG@BAGGOCPN@?$AAs?$AAt?$AAd?$AA?3?$AA?3?$AAv?$AAe?$AAc?$AAt?$AAo?$AAr?$AA?$DM?$AAc?$AAl?$AAa?$AAs?$AAs?$AA?5?$AAC?$AAD?$AA3?$AAD?$AA1?$AA1?$AAE?$AAn?$AAu?$AAm?$AAO?$AAu?$AAt?$AAp@ DB 's'
	DB	00H, 't', 00H, 'd', 00H, ':', 00H, ':', 00H, 'v', 00H, 'e', 00H
	DB	'c', 00H, 't', 00H, 'o', 00H, 'r', 00H, '<', 00H, 'c', 00H, 'l'
	DB	00H, 'a', 00H, 's', 00H, 's', 00H, ' ', 00H, 'C', 00H, 'D', 00H
	DB	'3', 00H, 'D', 00H, '1', 00H, '1', 00H, 'E', 00H, 'n', 00H, 'u'
	DB	00H, 'm', 00H, 'O', 00H, 'u', 00H, 't', 00H, 'p', 00H, 'u', 00H
	DB	't', 00H, 'I', 00H, 'n', 00H, 'f', 00H, 'o', 00H, ' ', 00H, '*'
	DB	00H, ',', 00H, 'c', 00H, 'l', 00H, 'a', 00H, 's', 00H, 's', 00H
	DB	' ', 00H, 's', 00H, 't', 00H, 'd', 00H, ':', 00H, ':', 00H, 'a'
	DB	00H, 'l', 00H, 'l', 00H, 'o', 00H, 'c', 00H, 'a', 00H, 't', 00H
	DB	'o', 00H, 'r', 00H, '<', 00H, 'c', 00H, 'l', 00H, 'a', 00H, 's'
	DB	00H, 's', 00H, ' ', 00H, 'C', 00H, 'D', 00H, '3', 00H, 'D', 00H
	DB	'1', 00H, '1', 00H, 'E', 00H, 'n', 00H, 'u', 00H, 'm', 00H, 'O'
	DB	00H, 'u', 00H, 't', 00H, 'p', 00H, 'u', 00H, 't', 00H, 'I', 00H
	DB	'n', 00H, 'f', 00H, 'o', 00H, ' ', 00H, '*', 00H, '>', 00H, ' '
	DB	00H, '>', 00H, ':', 00H, ':', 00H, 'o', 00H, 'p', 00H, 'e', 00H
	DB	'r', 00H, 'a', 00H, 't', 00H, 'o', 00H, 'r', 00H, ' ', 00H, '['
	DB	00H, ']', 00H, 00H, 00H			; `string'
CONST	ENDS
;	COMDAT ??_C@_1FG@IBPIFFN@?$AA?$CC?$AAS?$AAt?$AAa?$AAn?$AAd?$AAa?$AAr?$AAd?$AA?5?$AAC?$AA?$CL?$AA?$CL?$AA?5?$AAL?$AAi?$AAb?$AAr?$AAa?$AAr?$AAi?$AAe?$AAs?$AA?5?$AAO?$AAu?$AAt?$AA?5?$AAo?$AAf?$AA?5?$AAR@
CONST	SEGMENT
??_C@_1FG@IBPIFFN@?$AA?$CC?$AAS?$AAt?$AAa?$AAn?$AAd?$AAa?$AAr?$AAd?$AA?5?$AAC?$AA?$CL?$AA?$CL?$AA?5?$AAL?$AAi?$AAb?$AAr?$AAa?$AAr?$AAi?$AAe?$AAs?$AA?5?$AAO?$AAu?$AAt?$AA?5?$AAo?$AAf?$AA?5?$AAR@ DB '"'
	DB	00H, 'S', 00H, 't', 00H, 'a', 00H, 'n', 00H, 'd', 00H, 'a', 00H
	DB	'r', 00H, 'd', 00H, ' ', 00H, 'C', 00H, '+', 00H, '+', 00H, ' '
	DB	00H, 'L', 00H, 'i', 00H, 'b', 00H, 'r', 00H, 'a', 00H, 'r', 00H
	DB	'i', 00H, 'e', 00H, 's', 00H, ' ', 00H, 'O', 00H, 'u', 00H, 't'
	DB	00H, ' ', 00H, 'o', 00H, 'f', 00H, ' ', 00H, 'R', 00H, 'a', 00H
	DB	'n', 00H, 'g', 00H, 'e', 00H, '"', 00H, ' ', 00H, '&', 00H, '&'
	DB	00H, ' ', 00H, '0', 00H, 00H, 00H		; `string'
CONST	ENDS
;	COMDAT ??_C@_0CE@OFMIGAMM@Standard?5C?$CL?$CL?5Libraries?5Out?5of?5Ra@
CONST	SEGMENT
??_C@_0CE@OFMIGAMM@Standard?5C?$CL?$CL?5Libraries?5Out?5of?5Ra@ DB 'Stand'
	DB	'ard C++ Libraries Out of Range', 00H	; `string'
CONST	ENDS
;	COMDAT ??_C@_1DM@LHGCHCBA@?$AAv?$AAe?$AAc?$AAt?$AAo?$AAr?$AA?5?$AAs?$AAu?$AAb?$AAs?$AAc?$AAr?$AAi?$AAp?$AAt?$AA?5?$AAo?$AAu?$AAt?$AA?5?$AAo?$AAf?$AA?5?$AAr?$AAa?$AAn?$AAg?$AAe?$AA?$AA@
CONST	SEGMENT
??_C@_1DM@LHGCHCBA@?$AAv?$AAe?$AAc?$AAt?$AAo?$AAr?$AA?5?$AAs?$AAu?$AAb?$AAs?$AAc?$AAr?$AAi?$AAp?$AAt?$AA?5?$AAo?$AAu?$AAt?$AA?5?$AAo?$AAf?$AA?5?$AAr?$AAa?$AAn?$AAg?$AAe?$AA?$AA@ DB 'v'
	DB	00H, 'e', 00H, 'c', 00H, 't', 00H, 'o', 00H, 'r', 00H, ' ', 00H
	DB	's', 00H, 'u', 00H, 'b', 00H, 's', 00H, 'c', 00H, 'r', 00H, 'i'
	DB	00H, 'p', 00H, 't', 00H, ' ', 00H, 'o', 00H, 'u', 00H, 't', 00H
	DB	' ', 00H, 'o', 00H, 'f', 00H, ' ', 00H, 'r', 00H, 'a', 00H, 'n'
	DB	00H, 'g', 00H, 'e', 00H, 00H, 00H		; `string'
CONST	ENDS
;	COMDAT ??_C@_1IM@EINEHPHE@?$AAC?$AA?3?$AA?2?$AAP?$AAr?$AAo?$AAg?$AAr?$AAa?$AAm?$AA?5?$AAF?$AAi?$AAl?$AAe?$AAs?$AA?5?$AA?$CI?$AAx?$AA8?$AA6?$AA?$CJ?$AA?2?$AAM?$AAi?$AAc?$AAr?$AAo?$AAs?$AAo?$AAf?$AAt@
CONST	SEGMENT
??_C@_1IM@EINEHPHE@?$AAC?$AA?3?$AA?2?$AAP?$AAr?$AAo?$AAg?$AAr?$AAa?$AAm?$AA?5?$AAF?$AAi?$AAl?$AAe?$AAs?$AA?5?$AA?$CI?$AAx?$AA8?$AA6?$AA?$CJ?$AA?2?$AAM?$AAi?$AAc?$AAr?$AAo?$AAs?$AAo?$AAf?$AAt@ DB 'C'
	DB	00H, ':', 00H, '\', 00H, 'P', 00H, 'r', 00H, 'o', 00H, 'g', 00H
	DB	'r', 00H, 'a', 00H, 'm', 00H, ' ', 00H, 'F', 00H, 'i', 00H, 'l'
	DB	00H, 'e', 00H, 's', 00H, ' ', 00H, '(', 00H, 'x', 00H, '8', 00H
	DB	'6', 00H, ')', 00H, '\', 00H, 'M', 00H, 'i', 00H, 'c', 00H, 'r'
	DB	00H, 'o', 00H, 's', 00H, 'o', 00H, 'f', 00H, 't', 00H, ' ', 00H
	DB	'V', 00H, 'i', 00H, 's', 00H, 'u', 00H, 'a', 00H, 'l', 00H, ' '
	DB	00H, 'S', 00H, 't', 00H, 'u', 00H, 'd', 00H, 'i', 00H, 'o', 00H
	DB	' ', 00H, '1', 00H, '2', 00H, '.', 00H, '0', 00H, '\', 00H, 'V'
	DB	00H, 'C', 00H, '\', 00H, 'i', 00H, 'n', 00H, 'c', 00H, 'l', 00H
	DB	'u', 00H, 'd', 00H, 'e', 00H, '\', 00H, 'v', 00H, 'e', 00H, 'c'
	DB	00H, 't', 00H, 'o', 00H, 'r', 00H, 00H, 00H	; `string'
CONST	ENDS
;	COMDAT ??_C@_1DC@POOIKBAO@?$AAI?$AAT?$AAE?$AAR?$AAA?$AAT?$AAO?$AAR?$AA?5?$AAL?$AAI?$AAS?$AAT?$AA?5?$AAC?$AAO?$AAR?$AAR?$AAU?$AAP?$AAT?$AAE?$AAD?$AA?$CB?$AA?$AA@
CONST	SEGMENT
??_C@_1DC@POOIKBAO@?$AAI?$AAT?$AAE?$AAR?$AAA?$AAT?$AAO?$AAR?$AA?5?$AAL?$AAI?$AAS?$AAT?$AA?5?$AAC?$AAO?$AAR?$AAR?$AAU?$AAP?$AAT?$AAE?$AAD?$AA?$CB?$AA?$AA@ DB 'I'
	DB	00H, 'T', 00H, 'E', 00H, 'R', 00H, 'A', 00H, 'T', 00H, 'O', 00H
	DB	'R', 00H, ' ', 00H, 'L', 00H, 'I', 00H, 'S', 00H, 'T', 00H, ' '
	DB	00H, 'C', 00H, 'O', 00H, 'R', 00H, 'R', 00H, 'U', 00H, 'P', 00H
	DB	'T', 00H, 'E', 00H, 'D', 00H, '!', 00H, 00H, 00H ; `string'
CONST	ENDS
;	COMDAT ??_C@_1JA@EADLBAJ@?$AAC?$AA?3?$AA?2?$AAP?$AAr?$AAo?$AAg?$AAr?$AAa?$AAm?$AA?5?$AAF?$AAi?$AAl?$AAe?$AAs?$AA?5?$AA?$CI?$AAx?$AA8?$AA6?$AA?$CJ?$AA?2?$AAM?$AAi?$AAc?$AAr?$AAo?$AAs?$AAo?$AAf?$AAt@
CONST	SEGMENT
??_C@_1JA@EADLBAJ@?$AAC?$AA?3?$AA?2?$AAP?$AAr?$AAo?$AAg?$AAr?$AAa?$AAm?$AA?5?$AAF?$AAi?$AAl?$AAe?$AAs?$AA?5?$AA?$CI?$AAx?$AA8?$AA6?$AA?$CJ?$AA?2?$AAM?$AAi?$AAc?$AAr?$AAo?$AAs?$AAo?$AAf?$AAt@ DB 'C'
	DB	00H, ':', 00H, '\', 00H, 'P', 00H, 'r', 00H, 'o', 00H, 'g', 00H
	DB	'r', 00H, 'a', 00H, 'm', 00H, ' ', 00H, 'F', 00H, 'i', 00H, 'l'
	DB	00H, 'e', 00H, 's', 00H, ' ', 00H, '(', 00H, 'x', 00H, '8', 00H
	DB	'6', 00H, ')', 00H, '\', 00H, 'M', 00H, 'i', 00H, 'c', 00H, 'r'
	DB	00H, 'o', 00H, 's', 00H, 'o', 00H, 'f', 00H, 't', 00H, ' ', 00H
	DB	'V', 00H, 'i', 00H, 's', 00H, 'u', 00H, 'a', 00H, 'l', 00H, ' '
	DB	00H, 'S', 00H, 't', 00H, 'u', 00H, 'd', 00H, 'i', 00H, 'o', 00H
	DB	' ', 00H, '1', 00H, '2', 00H, '.', 00H, '0', 00H, '\', 00H, 'V'
	DB	00H, 'C', 00H, '\', 00H, 'i', 00H, 'n', 00H, 'c', 00H, 'l', 00H
	DB	'u', 00H, 'd', 00H, 'e', 00H, '\', 00H, 'x', 00H, 'u', 00H, 't'
	DB	00H, 'i', 00H, 'l', 00H, 'i', 00H, 't', 00H, 'y', 00H, 00H, 00H ; `string'
CONST	ENDS
;	COMDAT ??_C@_15GANGMFKL@?$AA?$CF?$AAs?$AA?$AA@
CONST	SEGMENT
??_C@_15GANGMFKL@?$AA?$CF?$AAs?$AA?$AA@ DB '%', 00H, 's', 00H, 00H, 00H ; `string'
CONST	ENDS
;	COMDAT xdata$x
xdata$x	SEGMENT
__unwindtable$??0?$_Vector_const_iterator@V?$_Vector_val@U?$_Simple_types@UDXGI_MODE_DESC@@@std@@@std@@@std@@QAE@PAUDXGI_MODE_DESC@@PBU_Container_base12@1@@Z DD 0ffffffffH
	DD	FLAT:__unwindfunclet$??0?$_Vector_const_iterator@V?$_Vector_val@U?$_Simple_types@UDXGI_MODE_DESC@@@std@@@std@@@std@@QAE@PAUDXGI_MODE_DESC@@PBU_Container_base12@1@@Z$0
__ehfuncinfo$??0?$_Vector_const_iterator@V?$_Vector_val@U?$_Simple_types@UDXGI_MODE_DESC@@@std@@@std@@@std@@QAE@PAUDXGI_MODE_DESC@@PBU_Container_base12@1@@Z DD 019930522H
	DD	01H
	DD	FLAT:__unwindtable$??0?$_Vector_const_iterator@V?$_Vector_val@U?$_Simple_types@UDXGI_MODE_DESC@@@std@@@std@@@std@@QAE@PAUDXGI_MODE_DESC@@PBU_Container_base12@1@@Z
	DD	2 DUP(00H)
	DD	2 DUP(00H)
	DD	00H
	DD	01H
xdata$x	ENDS
;	COMDAT xdata$x
xdata$x	SEGMENT
__unwindtable$??0?$_Vector_const_iterator@V?$_Vector_val@U?$_Simple_types@I@std@@@std@@@std@@QAE@PAIPBU_Container_base12@1@@Z DD 0ffffffffH
	DD	FLAT:__unwindfunclet$??0?$_Vector_const_iterator@V?$_Vector_val@U?$_Simple_types@I@std@@@std@@@std@@QAE@PAIPBU_Container_base12@1@@Z$0
__ehfuncinfo$??0?$_Vector_const_iterator@V?$_Vector_val@U?$_Simple_types@I@std@@@std@@@std@@QAE@PAIPBU_Container_base12@1@@Z DD 019930522H
	DD	01H
	DD	FLAT:__unwindtable$??0?$_Vector_const_iterator@V?$_Vector_val@U?$_Simple_types@I@std@@@std@@@std@@QAE@PAIPBU_Container_base12@1@@Z
	DD	2 DUP(00H)
	DD	2 DUP(00H)
	DD	00H
	DD	01H
xdata$x	ENDS
;	COMDAT xdata$x
xdata$x	SEGMENT
__unwindtable$??0?$_Vector_const_iterator@V?$_Vector_val@U?$_Simple_types@PAVCD3D11EnumAdapterInfo@@@std@@@std@@@std@@QAE@PAPAVCD3D11EnumAdapterInfo@@PBU_Container_base12@1@@Z DD 0ffffffffH
	DD	FLAT:__unwindfunclet$??0?$_Vector_const_iterator@V?$_Vector_val@U?$_Simple_types@PAVCD3D11EnumAdapterInfo@@@std@@@std@@@std@@QAE@PAPAVCD3D11EnumAdapterInfo@@PBU_Container_base12@1@@Z$0
__ehfuncinfo$??0?$_Vector_const_iterator@V?$_Vector_val@U?$_Simple_types@PAVCD3D11EnumAdapterInfo@@@std@@@std@@@std@@QAE@PAPAVCD3D11EnumAdapterInfo@@PBU_Container_base12@1@@Z DD 019930522H
	DD	01H
	DD	FLAT:__unwindtable$??0?$_Vector_const_iterator@V?$_Vector_val@U?$_Simple_types@PAVCD3D11EnumAdapterInfo@@@std@@@std@@@std@@QAE@PAPAVCD3D11EnumAdapterInfo@@PBU_Container_base12@1@@Z
	DD	2 DUP(00H)
	DD	2 DUP(00H)
	DD	00H
	DD	01H
xdata$x	ENDS
xdata$x	SEGMENT
__unwindtable$?DXUTGetD3DSettingsDialog@@YGPAVCD3DSettingsDlg@@XZ DD 0ffffffffH
	DD	FLAT:__unwindfunclet$?DXUTGetD3DSettingsDialog@@YGPAVCD3DSettingsDlg@@XZ$0
__unwindtable$??0CD3DSettingsDlg@@QAE@XZ DD 0ffffffffH
	DD	FLAT:__unwindfunclet$??0CD3DSettingsDlg@@QAE@XZ$0
__unwindtable$?OnBackBufferFormatChanged@CD3DSettingsDlg@@IAEJXZ DD 0ffffffffH
	DD	FLAT:__unwindfunclet$?OnBackBufferFormatChanged@CD3DSettingsDlg@@IAEJXZ$0
	DD	00H
	DD	FLAT:__unwindfunclet$?OnBackBufferFormatChanged@CD3DSettingsDlg@@IAEJXZ$1
__unwindtable$?OnFeatureLevelChanged@CD3DSettingsDlg@@IAEJXZ DD 0ffffffffH
	DD	FLAT:__unwindfunclet$?OnFeatureLevelChanged@CD3DSettingsDlg@@IAEJXZ$0
	DD	00H
	DD	FLAT:__unwindfunclet$?OnFeatureLevelChanged@CD3DSettingsDlg@@IAEJXZ$1
__unwindtable$?UpdateD3D11RefreshRates@CD3DSettingsDlg@@IAEJXZ DD 0ffffffffH
	DD	FLAT:__unwindfunclet$?UpdateD3D11RefreshRates@CD3DSettingsDlg@@IAEJXZ$0
	DD	00H
	DD	FLAT:__unwindfunclet$?UpdateD3D11RefreshRates@CD3DSettingsDlg@@IAEJXZ$1
__unwindtable$??1CD3DSettingsDlg@@QAE@XZ DD 0ffffffffH
	DD	FLAT:__unwindfunclet$??1CD3DSettingsDlg@@QAE@XZ$0
	DD	00H
	DD	FLAT:__unwindfunclet$??1CD3DSettingsDlg@@QAE@XZ$1
__unwindtable$?Refresh@CD3DSettingsDlg@@QAEJXZ DD 0ffffffffH
	DD	FLAT:__unwindfunclet$?Refresh@CD3DSettingsDlg@@QAEJXZ$0
	DD	00H
	DD	FLAT:__unwindfunclet$?Refresh@CD3DSettingsDlg@@QAEJXZ$1
	DD	0ffffffffH
	DD	FLAT:__unwindfunclet$?Refresh@CD3DSettingsDlg@@QAEJXZ$2
	DD	02H
	DD	FLAT:__unwindfunclet$?Refresh@CD3DSettingsDlg@@QAEJXZ$3
__ehfuncinfo$?OnBackBufferFormatChanged@CD3DSettingsDlg@@IAEJXZ DD 019930522H
	DD	02H
	DD	FLAT:__unwindtable$?OnBackBufferFormatChanged@CD3DSettingsDlg@@IAEJXZ
	DD	2 DUP(00H)
	DD	2 DUP(00H)
	DD	00H
	DD	01H
__ehfuncinfo$?OnFeatureLevelChanged@CD3DSettingsDlg@@IAEJXZ DD 019930522H
	DD	02H
	DD	FLAT:__unwindtable$?OnFeatureLevelChanged@CD3DSettingsDlg@@IAEJXZ
	DD	2 DUP(00H)
	DD	2 DUP(00H)
	DD	00H
	DD	01H
__ehfuncinfo$?UpdateD3D11RefreshRates@CD3DSettingsDlg@@IAEJXZ DD 019930522H
	DD	02H
	DD	FLAT:__unwindtable$?UpdateD3D11RefreshRates@CD3DSettingsDlg@@IAEJXZ
	DD	2 DUP(00H)
	DD	2 DUP(00H)
	DD	00H
	DD	01H
__ehfuncinfo$?DXUTGetD3DSettingsDialog@@YGPAVCD3DSettingsDlg@@XZ DD 019930522H
	DD	01H
	DD	FLAT:__unwindtable$?DXUTGetD3DSettingsDialog@@YGPAVCD3DSettingsDlg@@XZ
	DD	2 DUP(00H)
	DD	2 DUP(00H)
	DD	00H
	DD	01H
__ehfuncinfo$?Refresh@CD3DSettingsDlg@@QAEJXZ DD 019930522H
	DD	04H
	DD	FLAT:__unwindtable$?Refresh@CD3DSettingsDlg@@QAEJXZ
	DD	2 DUP(00H)
	DD	2 DUP(00H)
	DD	00H
	DD	01H
__ehfuncinfo$??1CD3DSettingsDlg@@QAE@XZ DD 019930522H
	DD	02H
	DD	FLAT:__unwindtable$??1CD3DSettingsDlg@@QAE@XZ
	DD	2 DUP(00H)
	DD	2 DUP(00H)
	DD	00H
	DD	01H
__ehfuncinfo$??0CD3DSettingsDlg@@QAE@XZ DD 019930522H
	DD	01H
	DD	FLAT:__unwindtable$??0CD3DSettingsDlg@@QAE@XZ
	DD	2 DUP(00H)
	DD	2 DUP(00H)
	DD	00H
	DD	01H
xdata$x	ENDS
;	COMDAT xdata$x
xdata$x	SEGMENT
__unwindtable$?_Adopt@_Iterator_base12@std@@QAEXPBU_Container_base12@2@@Z DD 0ffffffffH
	DD	FLAT:__unwindfunclet$?_Adopt@_Iterator_base12@std@@QAEXPBU_Container_base12@2@@Z$0
	DD	0ffffffffH
	DD	FLAT:__unwindfunclet$?_Adopt@_Iterator_base12@std@@QAEXPBU_Container_base12@2@@Z$1
__ehfuncinfo$?_Adopt@_Iterator_base12@std@@QAEXPBU_Container_base12@2@@Z DD 019930522H
	DD	02H
	DD	FLAT:__unwindtable$?_Adopt@_Iterator_base12@std@@QAEXPBU_Container_base12@2@@Z
	DD	2 DUP(00H)
	DD	2 DUP(00H)
	DD	00H
	DD	01H
xdata$x	ENDS
; Function compile flags: /Odtp /RTCsu
;	COMDAT ??$?RABW4D3D_FEATURE_LEVEL@@ABW40@@?$less@X@std@@QBE_NABW4D3D_FEATURE_LEVEL@@0@Z
_TEXT	SEGMENT
tv65 = -8						; size = 4
_this$ = -4						; size = 4
__Left$ = 8						; size = 4
__Right$ = 12						; size = 4
??$?RABW4D3D_FEATURE_LEVEL@@ABW40@@?$less@X@std@@QBE_NABW4D3D_FEATURE_LEVEL@@0@Z PROC ; std::less<void>::operator()<enum D3D_FEATURE_LEVEL const &,enum D3D_FEATURE_LEVEL const &>, COMDAT
; _this$ = ecx
; File c:\program files (x86)\microsoft visual studio 12.0\vc\include\xstddef
; Line 263
	push	ebp
	mov	ebp, esp
	sub	esp, 8
	mov	DWORD PTR [ebp-8], -858993460		; ccccccccH
	mov	DWORD PTR [ebp-4], -858993460		; ccccccccH
	mov	DWORD PTR _this$[ebp], ecx
; Line 268
	mov	eax, DWORD PTR __Left$[ebp]
	mov	ecx, DWORD PTR __Right$[ebp]
	mov	edx, DWORD PTR [eax]
	cmp	edx, DWORD PTR [ecx]
	jge	SHORT $LN3@operator
	mov	DWORD PTR tv65[ebp], 1
	jmp	SHORT $LN4@operator
$LN3@operator:
	mov	DWORD PTR tv65[ebp], 0
$LN4@operator:
	mov	al, BYTE PTR tv65[ebp]
; Line 269
	mov	esp, ebp
	pop	ebp
	ret	8
??$?RABW4D3D_FEATURE_LEVEL@@ABW40@@?$less@X@std@@QBE_NABW4D3D_FEATURE_LEVEL@@0@Z ENDP ; std::less<void>::operator()<enum D3D_FEATURE_LEVEL const &,enum D3D_FEATURE_LEVEL const &>
_TEXT	ENDS
; Function compile flags: /Odtp /RTCsu
;	COMDAT ??$_Debug_lt_pred@U?$less@X@std@@ABW4D3D_FEATURE_LEVEL@@ABW43@@std@@YA_NU?$less@X@0@ABW4D3D_FEATURE_LEVEL@@1PB_WI@Z
_TEXT	SEGMENT
__Pred$ = 8						; size = 1
__Left$ = 12						; size = 4
__Right$ = 16						; size = 4
__File$ = 20						; size = 4
__Line$ = 24						; size = 4
??$_Debug_lt_pred@U?$less@X@std@@ABW4D3D_FEATURE_LEVEL@@ABW43@@std@@YA_NU?$less@X@0@ABW4D3D_FEATURE_LEVEL@@1PB_WI@Z PROC ; std::_Debug_lt_pred<std::less<void>,enum D3D_FEATURE_LEVEL const &,enum D3D_FEATURE_LEVEL const &>, COMDAT
; File c:\program files (x86)\microsoft visual studio 12.0\vc\include\xutility
; Line 520
	push	ebp
	mov	ebp, esp
	push	esi
; Line 521
	mov	eax, DWORD PTR __Right$[ebp]
	push	eax
	call	??$forward@ABW4D3D_FEATURE_LEVEL@@@std@@YAABW4D3D_FEATURE_LEVEL@@ABW41@@Z ; std::forward<enum D3D_FEATURE_LEVEL const &>
	add	esp, 4
	push	eax
	mov	ecx, DWORD PTR __Left$[ebp]
	push	ecx
	call	??$forward@ABW4D3D_FEATURE_LEVEL@@@std@@YAABW4D3D_FEATURE_LEVEL@@ABW41@@Z ; std::forward<enum D3D_FEATURE_LEVEL const &>
	add	esp, 4
	push	eax
	lea	ecx, DWORD PTR __Pred$[ebp]
	call	??$?RABW4D3D_FEATURE_LEVEL@@ABW40@@?$less@X@std@@QBE_NABW4D3D_FEATURE_LEVEL@@0@Z ; std::less<void>::operator()<enum D3D_FEATURE_LEVEL const &,enum D3D_FEATURE_LEVEL const &>
	movzx	edx, al
	test	edx, edx
	jne	SHORT $LN3@Debug_lt_p
; Line 522
	xor	al, al
	jmp	SHORT $LN4@Debug_lt_p
	jmp	SHORT $LN2@Debug_lt_p
$LN3@Debug_lt_p:
; Line 523
	mov	eax, DWORD PTR __Left$[ebp]
	push	eax
	call	??$forward@ABW4D3D_FEATURE_LEVEL@@@std@@YAABW4D3D_FEATURE_LEVEL@@ABW41@@Z ; std::forward<enum D3D_FEATURE_LEVEL const &>
	add	esp, 4
	push	eax
	mov	ecx, DWORD PTR __Right$[ebp]
	push	ecx
	call	??$forward@ABW4D3D_FEATURE_LEVEL@@@std@@YAABW4D3D_FEATURE_LEVEL@@ABW41@@Z ; std::forward<enum D3D_FEATURE_LEVEL const &>
	add	esp, 4
	push	eax
	lea	ecx, DWORD PTR __Pred$[ebp]
	call	??$?RABW4D3D_FEATURE_LEVEL@@ABW40@@?$less@X@std@@QBE_NABW4D3D_FEATURE_LEVEL@@0@Z ; std::less<void>::operator()<enum D3D_FEATURE_LEVEL const &,enum D3D_FEATURE_LEVEL const &>
	movzx	edx, al
	test	edx, edx
	je	SHORT $LN2@Debug_lt_p
; Line 524
	mov	esi, esp
	mov	eax, DWORD PTR __Line$[ebp]
	push	eax
	mov	ecx, DWORD PTR __File$[ebp]
	push	ecx
	push	OFFSET ??_C@_1CE@IGJMOCCK@?$AAi?$AAn?$AAv?$AAa?$AAl?$AAi?$AAd?$AA?5?$AAo?$AAp?$AAe?$AAr?$AAa?$AAt?$AAo?$AAr?$AA?$DM?$AA?$AA@
	call	DWORD PTR __imp_?_Debug_message@std@@YAXPB_W0I@Z
	add	esp, 12					; 0000000cH
	cmp	esi, esp
	call	__RTC_CheckEsp
$LN2@Debug_lt_p:
; Line 525
	mov	al, 1
$LN4@Debug_lt_p:
; Line 526
	pop	esi
	cmp	ebp, esp
	call	__RTC_CheckEsp
	pop	ebp
	ret	0
??$_Debug_lt_pred@U?$less@X@std@@ABW4D3D_FEATURE_LEVEL@@ABW43@@std@@YA_NU?$less@X@0@ABW4D3D_FEATURE_LEVEL@@1PB_WI@Z ENDP ; std::_Debug_lt_pred<std::less<void>,enum D3D_FEATURE_LEVEL const &,enum D3D_FEATURE_LEVEL const &>
_TEXT	ENDS
; Function compile flags: /Odtp /RTCsu
;	COMDAT ??$forward@ABW4D3D_FEATURE_LEVEL@@@std@@YAABW4D3D_FEATURE_LEVEL@@ABW41@@Z
_TEXT	SEGMENT
__Arg$ = 8						; size = 4
??$forward@ABW4D3D_FEATURE_LEVEL@@@std@@YAABW4D3D_FEATURE_LEVEL@@ABW41@@Z PROC ; std::forward<enum D3D_FEATURE_LEVEL const &>, COMDAT
; File c:\program files (x86)\microsoft visual studio 12.0\vc\include\type_traits
; Line 1504
	push	ebp
	mov	ebp, esp
; Line 1505
	mov	eax, DWORD PTR __Arg$[ebp]
; Line 1506
	pop	ebp
	ret	0
??$forward@ABW4D3D_FEATURE_LEVEL@@@std@@YAABW4D3D_FEATURE_LEVEL@@ABW41@@Z ENDP ; std::forward<enum D3D_FEATURE_LEVEL const &>
_TEXT	ENDS
; Function compile flags: /Odtp /RTCsu
;	COMDAT ??$_Debug_lt@ABW4D3D_FEATURE_LEVEL@@ABW41@@std@@YA_NABW4D3D_FEATURE_LEVEL@@0PB_WI@Z
_TEXT	SEGMENT
$T1 = -1						; size = 1
__Left$ = 8						; size = 4
__Right$ = 12						; size = 4
__File$ = 16						; size = 4
__Line$ = 20						; size = 4
??$_Debug_lt@ABW4D3D_FEATURE_LEVEL@@ABW41@@std@@YA_NABW4D3D_FEATURE_LEVEL@@0PB_WI@Z PROC ; std::_Debug_lt<enum D3D_FEATURE_LEVEL const &,enum D3D_FEATURE_LEVEL const &>, COMDAT
; File c:\program files (x86)\microsoft visual studio 12.0\vc\include\xutility
; Line 532
	push	ebp
	mov	ebp, esp
	push	ecx
	mov	DWORD PTR [ebp-4], -858993460		; ccccccccH
; Line 534
	xor	eax, eax
	mov	BYTE PTR $T1[ebp], al
	mov	ecx, DWORD PTR __Line$[ebp]
	push	ecx
	mov	edx, DWORD PTR __File$[ebp]
	push	edx
	mov	eax, DWORD PTR __Right$[ebp]
	push	eax
	call	??$forward@ABW4D3D_FEATURE_LEVEL@@@std@@YAABW4D3D_FEATURE_LEVEL@@ABW41@@Z ; std::forward<enum D3D_FEATURE_LEVEL const &>
	add	esp, 4
	push	eax
	mov	ecx, DWORD PTR __Left$[ebp]
	push	ecx
	call	??$forward@ABW4D3D_FEATURE_LEVEL@@@std@@YAABW4D3D_FEATURE_LEVEL@@ABW41@@Z ; std::forward<enum D3D_FEATURE_LEVEL const &>
	add	esp, 4
	push	eax
	movzx	edx, BYTE PTR $T1[ebp]
	push	edx
	call	??$_Debug_lt_pred@U?$less@X@std@@ABW4D3D_FEATURE_LEVEL@@ABW43@@std@@YA_NU?$less@X@0@ABW4D3D_FEATURE_LEVEL@@1PB_WI@Z ; std::_Debug_lt_pred<std::less<void>,enum D3D_FEATURE_LEVEL const &,enum D3D_FEATURE_LEVEL const &>
	add	esp, 20					; 00000014H
; Line 535
	add	esp, 4
	cmp	ebp, esp
	call	__RTC_CheckEsp
	mov	esp, ebp
	pop	ebp
	ret	0
??$_Debug_lt@ABW4D3D_FEATURE_LEVEL@@ABW41@@std@@YA_NABW4D3D_FEATURE_LEVEL@@0PB_WI@Z ENDP ; std::_Debug_lt<enum D3D_FEATURE_LEVEL const &,enum D3D_FEATURE_LEVEL const &>
_TEXT	ENDS
; Function compile flags: /Odtp /RTCsu
;	COMDAT ??$addressof@$$CBUDXGI_MODE_DESC@@@std@@YAPBUDXGI_MODE_DESC@@ABU1@@Z
_TEXT	SEGMENT
__Val$ = 8						; size = 4
??$addressof@$$CBUDXGI_MODE_DESC@@@std@@YAPBUDXGI_MODE_DESC@@ABU1@@Z PROC ; std::addressof<DXGI_MODE_DESC const >, COMDAT
; File c:\program files (x86)\microsoft visual studio 12.0\vc\include\xstddef
; Line 92
	push	ebp
	mov	ebp, esp
; Line 95
	mov	eax, DWORD PTR __Val$[ebp]
; Line 96
	pop	ebp
	ret	0
??$addressof@$$CBUDXGI_MODE_DESC@@@std@@YAPBUDXGI_MODE_DESC@@ABU1@@Z ENDP ; std::addressof<DXGI_MODE_DESC const >
_TEXT	ENDS
; Function compile flags: /Odtp /RTCsu
;	COMDAT ?pointer_to@?$pointer_traits@PBUDXGI_MODE_DESC@@@std@@SAPBUDXGI_MODE_DESC@@ABU3@@Z
_TEXT	SEGMENT
__Val$ = 8						; size = 4
?pointer_to@?$pointer_traits@PBUDXGI_MODE_DESC@@@std@@SAPBUDXGI_MODE_DESC@@ABU3@@Z PROC ; std::pointer_traits<DXGI_MODE_DESC const *>::pointer_to, COMDAT
; File c:\program files (x86)\microsoft visual studio 12.0\vc\include\xmemory0
; Line 233
	push	ebp
	mov	ebp, esp
; Line 234
	mov	eax, DWORD PTR __Val$[ebp]
	push	eax
	call	??$addressof@$$CBUDXGI_MODE_DESC@@@std@@YAPBUDXGI_MODE_DESC@@ABU1@@Z ; std::addressof<DXGI_MODE_DESC const >
	add	esp, 4
; Line 235
	cmp	ebp, esp
	call	__RTC_CheckEsp
	pop	ebp
	ret	0
?pointer_to@?$pointer_traits@PBUDXGI_MODE_DESC@@@std@@SAPBUDXGI_MODE_DESC@@ABU3@@Z ENDP ; std::pointer_traits<DXGI_MODE_DESC const *>::pointer_to
_TEXT	ENDS
; Function compile flags: /Odtp /RTCsu
;	COMDAT ??1?$_Vector_const_iterator@V?$_Vector_val@U?$_Simple_types@UDXGI_MODE_DESC@@@std@@@std@@@std@@QAE@XZ
_TEXT	SEGMENT
_this$ = -4						; size = 4
??1?$_Vector_const_iterator@V?$_Vector_val@U?$_Simple_types@UDXGI_MODE_DESC@@@std@@@std@@@std@@QAE@XZ PROC ; std::_Vector_const_iterator<std::_Vector_val<std::_Simple_types<DXGI_MODE_DESC> > >::~_Vector_const_iterator<std::_Vector_val<std::_Simple_types<DXGI_MODE_DESC> > >, COMDAT
; _this$ = ecx
	push	ebp
	mov	ebp, esp
	push	ecx
	mov	DWORD PTR [ebp-4], -858993460		; ccccccccH
	mov	DWORD PTR _this$[ebp], ecx
	mov	ecx, DWORD PTR _this$[ebp]
	call	??1?$_Iterator012@Urandom_access_iterator_tag@std@@UDXGI_MODE_DESC@@HPBU3@ABU3@U_Iterator_base12@2@@std@@QAE@XZ
	add	esp, 4
	cmp	ebp, esp
	call	__RTC_CheckEsp
	mov	esp, ebp
	pop	ebp
	ret	0
??1?$_Vector_const_iterator@V?$_Vector_val@U?$_Simple_types@UDXGI_MODE_DESC@@@std@@@std@@@std@@QAE@XZ ENDP ; std::_Vector_const_iterator<std::_Vector_val<std::_Simple_types<DXGI_MODE_DESC> > >::~_Vector_const_iterator<std::_Vector_val<std::_Simple_types<DXGI_MODE_DESC> > >
_TEXT	ENDS
; Function compile flags: /Odtp /RTCsu
;	COMDAT ?_Compat@?$_Vector_const_iterator@V?$_Vector_val@U?$_Simple_types@UDXGI_MODE_DESC@@@std@@@std@@@std@@QBEXABV12@@Z
_TEXT	SEGMENT
_this$ = -4						; size = 4
__Right$ = 8						; size = 4
?_Compat@?$_Vector_const_iterator@V?$_Vector_val@U?$_Simple_types@UDXGI_MODE_DESC@@@std@@@std@@@std@@QBEXABV12@@Z PROC ; std::_Vector_const_iterator<std::_Vector_val<std::_Simple_types<DXGI_MODE_DESC> > >::_Compat, COMDAT
; _this$ = ecx
; File c:\program files (x86)\microsoft visual studio 12.0\vc\include\vector
; Line 236
	push	ebp
	mov	ebp, esp
	push	ecx
	push	esi
	mov	DWORD PTR [ebp-4], -858993460		; ccccccccH
	mov	DWORD PTR _this$[ebp], ecx
; Line 238
	mov	ecx, DWORD PTR _this$[ebp]
	call	?_Getcont@_Iterator_base12@std@@QBEPBU_Container_base12@2@XZ ; std::_Iterator_base12::_Getcont
	test	eax, eax
	je	SHORT $LN1@Compat
	mov	ecx, DWORD PTR _this$[ebp]
	call	?_Getcont@_Iterator_base12@std@@QBEPBU_Container_base12@2@XZ ; std::_Iterator_base12::_Getcont
	mov	esi, eax
	mov	ecx, DWORD PTR __Right$[ebp]
	call	?_Getcont@_Iterator_base12@std@@QBEPBU_Container_base12@2@XZ ; std::_Iterator_base12::_Getcont
	cmp	esi, eax
	je	$LN3@Compat
$LN1@Compat:
; Line 240
	mov	esi, esp
	push	240					; 000000f0H
	push	OFFSET ??_C@_1IM@EINEHPHE@?$AAC?$AA?3?$AA?2?$AAP?$AAr?$AAo?$AAg?$AAr?$AAa?$AAm?$AA?5?$AAF?$AAi?$AAl?$AAe?$AAs?$AA?5?$AA?$CI?$AAx?$AA8?$AA6?$AA?$CJ?$AA?2?$AAM?$AAi?$AAc?$AAr?$AAo?$AAs?$AAo?$AAf?$AAt@
	push	OFFSET ??_C@_1DM@HINDPMBP@?$AAv?$AAe?$AAc?$AAt?$AAo?$AAr?$AA?5?$AAi?$AAt?$AAe?$AAr?$AAa?$AAt?$AAo?$AAr?$AAs?$AA?5?$AAi?$AAn?$AAc?$AAo?$AAm?$AAp?$AAa?$AAt?$AAi?$AAb?$AAl?$AAe?$AA?$AA@
	call	DWORD PTR __imp_?_Debug_message@std@@YAXPB_W0I@Z
	add	esp, 12					; 0000000cH
	cmp	esi, esp
	call	__RTC_CheckEsp
; Line 241
	mov	eax, OFFSET ??_C@_0CI@FNPHFCCM@Standard?5C?$CL?$CL?5Libraries?5Invalid?5A@
	test	eax, eax
	je	SHORT $LN5@Compat
	xor	ecx, ecx
	jne	SHORT $LN6@Compat
$LN5@Compat:
	mov	esi, esp
	push	OFFSET ??_C@_1FO@GJIHNDLM@?$AA?$CC?$AAS?$AAt?$AAa?$AAn?$AAd?$AAa?$AAr?$AAd?$AA?5?$AAC?$AA?$CL?$AA?$CL?$AA?5?$AAL?$AAi?$AAb?$AAr?$AAa?$AAr?$AAi?$AAe?$AAs?$AA?5?$AAI?$AAn?$AAv?$AAa?$AAl?$AAi?$AAd?$AA?5@
	push	OFFSET ??_C@_15GANGMFKL@?$AA?$CF?$AAs?$AA?$AA@
	push	0
	push	241					; 000000f1H
	push	OFFSET ??_C@_1IM@EINEHPHE@?$AAC?$AA?3?$AA?2?$AAP?$AAr?$AAo?$AAg?$AAr?$AAa?$AAm?$AA?5?$AAF?$AAi?$AAl?$AAe?$AAs?$AA?5?$AA?$CI?$AAx?$AA8?$AA6?$AA?$CJ?$AA?2?$AAM?$AAi?$AAc?$AAr?$AAo?$AAs?$AAo?$AAf?$AAt@
	push	2
	call	DWORD PTR __imp___CrtDbgReportW
	add	esp, 24					; 00000018H
	cmp	esi, esp
	call	__RTC_CheckEsp
	cmp	eax, 1
	jne	SHORT $LN6@Compat
	int	3
$LN6@Compat:
	mov	esi, esp
	push	0
	push	241					; 000000f1H
	push	OFFSET ??_C@_1IM@EINEHPHE@?$AAC?$AA?3?$AA?2?$AAP?$AAr?$AAo?$AAg?$AAr?$AAa?$AAm?$AA?5?$AAF?$AAi?$AAl?$AAe?$AAs?$AA?5?$AA?$CI?$AAx?$AA8?$AA6?$AA?$CJ?$AA?2?$AAM?$AAi?$AAc?$AAr?$AAo?$AAs?$AAo?$AAf?$AAt@
	push	OFFSET ??_C@_1OC@NLODFLEJ@?$AAs?$AAt?$AAd?$AA?3?$AA?3?$AA_?$AAV?$AAe?$AAc?$AAt?$AAo?$AAr?$AA_?$AAc?$AAo?$AAn?$AAs?$AAt?$AA_?$AAi?$AAt?$AAe?$AAr?$AAa?$AAt?$AAo?$AAr?$AA?$DM?$AAc?$AAl?$AAa?$AAs@
	push	OFFSET ??_C@_1CG@JNLFBNGN@?$AA?$CC?$AAi?$AAn?$AAv?$AAa?$AAl?$AAi?$AAd?$AA?5?$AAa?$AAr?$AAg?$AAu?$AAm?$AAe?$AAn?$AAt?$AA?$CC?$AA?$AA@
	call	DWORD PTR __imp___invalid_parameter
	add	esp, 20					; 00000014H
	cmp	esi, esp
	call	__RTC_CheckEsp
$LN3@Compat:
; Line 243
	pop	esi
	add	esp, 4
	cmp	ebp, esp
	call	__RTC_CheckEsp
	mov	esp, ebp
	pop	ebp
	ret	4
?_Compat@?$_Vector_const_iterator@V?$_Vector_val@U?$_Simple_types@UDXGI_MODE_DESC@@@std@@@std@@@std@@QBEXABV12@@Z ENDP ; std::_Vector_const_iterator<std::_Vector_val<std::_Simple_types<DXGI_MODE_DESC> > >::_Compat
_TEXT	ENDS
; Function compile flags: /Odtp /RTCsu
;	COMDAT ??9?$_Vector_const_iterator@V?$_Vector_val@U?$_Simple_types@UDXGI_MODE_DESC@@@std@@@std@@@std@@QBE_NABV01@@Z
_TEXT	SEGMENT
tv69 = -8						; size = 4
_this$ = -4						; size = 4
__Right$ = 8						; size = 4
??9?$_Vector_const_iterator@V?$_Vector_val@U?$_Simple_types@UDXGI_MODE_DESC@@@std@@@std@@@std@@QBE_NABV01@@Z PROC ; std::_Vector_const_iterator<std::_Vector_val<std::_Simple_types<DXGI_MODE_DESC> > >::operator!=, COMDAT
; _this$ = ecx
; File c:\program files (x86)\microsoft visual studio 12.0\vc\include\vector
; Line 209
	push	ebp
	mov	ebp, esp
	sub	esp, 8
	mov	DWORD PTR [ebp-8], -858993460		; ccccccccH
	mov	DWORD PTR [ebp-4], -858993460		; ccccccccH
	mov	DWORD PTR _this$[ebp], ecx
; Line 210
	mov	eax, DWORD PTR __Right$[ebp]
	push	eax
	mov	ecx, DWORD PTR _this$[ebp]
	call	??8?$_Vector_const_iterator@V?$_Vector_val@U?$_Simple_types@UDXGI_MODE_DESC@@@std@@@std@@@std@@QBE_NABV01@@Z ; std::_Vector_const_iterator<std::_Vector_val<std::_Simple_types<DXGI_MODE_DESC> > >::operator==
	movzx	ecx, al
	test	ecx, ecx
	jne	SHORT $LN3@operator
	mov	DWORD PTR tv69[ebp], 1
	jmp	SHORT $LN4@operator
$LN3@operator:
	mov	DWORD PTR tv69[ebp], 0
$LN4@operator:
	mov	al, BYTE PTR tv69[ebp]
; Line 211
	add	esp, 8
	cmp	ebp, esp
	call	__RTC_CheckEsp
	mov	esp, ebp
	pop	ebp
	ret	4
??9?$_Vector_const_iterator@V?$_Vector_val@U?$_Simple_types@UDXGI_MODE_DESC@@@std@@@std@@@std@@QBE_NABV01@@Z ENDP ; std::_Vector_const_iterator<std::_Vector_val<std::_Simple_types<DXGI_MODE_DESC> > >::operator!=
_TEXT	ENDS
; Function compile flags: /Odtp /RTCsu
;	COMDAT ??8?$_Vector_const_iterator@V?$_Vector_val@U?$_Simple_types@UDXGI_MODE_DESC@@@std@@@std@@@std@@QBE_NABV01@@Z
_TEXT	SEGMENT
tv69 = -8						; size = 4
_this$ = -4						; size = 4
__Right$ = 8						; size = 4
??8?$_Vector_const_iterator@V?$_Vector_val@U?$_Simple_types@UDXGI_MODE_DESC@@@std@@@std@@@std@@QBE_NABV01@@Z PROC ; std::_Vector_const_iterator<std::_Vector_val<std::_Simple_types<DXGI_MODE_DESC> > >::operator==, COMDAT
; _this$ = ecx
; File c:\program files (x86)\microsoft visual studio 12.0\vc\include\vector
; Line 203
	push	ebp
	mov	ebp, esp
	sub	esp, 8
	mov	DWORD PTR [ebp-8], -858993460		; ccccccccH
	mov	DWORD PTR [ebp-4], -858993460		; ccccccccH
	mov	DWORD PTR _this$[ebp], ecx
; Line 204
	mov	eax, DWORD PTR __Right$[ebp]
	push	eax
	mov	ecx, DWORD PTR _this$[ebp]
	call	?_Compat@?$_Vector_const_iterator@V?$_Vector_val@U?$_Simple_types@UDXGI_MODE_DESC@@@std@@@std@@@std@@QBEXABV12@@Z ; std::_Vector_const_iterator<std::_Vector_val<std::_Simple_types<DXGI_MODE_DESC> > >::_Compat
; Line 205
	mov	ecx, DWORD PTR _this$[ebp]
	mov	edx, DWORD PTR __Right$[ebp]
	mov	eax, DWORD PTR [ecx+8]
	cmp	eax, DWORD PTR [edx+8]
	jne	SHORT $LN3@operator
	mov	DWORD PTR tv69[ebp], 1
	jmp	SHORT $LN4@operator
$LN3@operator:
	mov	DWORD PTR tv69[ebp], 0
$LN4@operator:
	mov	al, BYTE PTR tv69[ebp]
; Line 206
	add	esp, 8
	cmp	ebp, esp
	call	__RTC_CheckEsp
	mov	esp, ebp
	pop	ebp
	ret	4
??8?$_Vector_const_iterator@V?$_Vector_val@U?$_Simple_types@UDXGI_MODE_DESC@@@std@@@std@@@std@@QBE_NABV01@@Z ENDP ; std::_Vector_const_iterator<std::_Vector_val<std::_Simple_types<DXGI_MODE_DESC> > >::operator==
_TEXT	ENDS
; Function compile flags: /Odtp /RTCsu
;	COMDAT ??E?$_Vector_const_iterator@V?$_Vector_val@U?$_Simple_types@UDXGI_MODE_DESC@@@std@@@std@@@std@@QAEAAV01@XZ
_TEXT	SEGMENT
_this$ = -4						; size = 4
??E?$_Vector_const_iterator@V?$_Vector_val@U?$_Simple_types@UDXGI_MODE_DESC@@@std@@@std@@@std@@QAEAAV01@XZ PROC ; std::_Vector_const_iterator<std::_Vector_val<std::_Simple_types<DXGI_MODE_DESC> > >::operator++, COMDAT
; _this$ = ecx
; File c:\program files (x86)\microsoft visual studio 12.0\vc\include\vector
; Line 95
	push	ebp
	mov	ebp, esp
	push	ecx
	push	esi
	mov	DWORD PTR [ebp-4], -858993460		; ccccccccH
	mov	DWORD PTR _this$[ebp], ecx
; Line 99
	mov	ecx, DWORD PTR _this$[ebp]
	call	?_Getcont@_Iterator_base12@std@@QBEPBU_Container_base12@2@XZ ; std::_Iterator_base12::_Getcont
	test	eax, eax
	je	SHORT $LN1@operator
	mov	eax, DWORD PTR _this$[ebp]
	cmp	DWORD PTR [eax+8], 0
	je	SHORT $LN1@operator
	mov	ecx, DWORD PTR _this$[ebp]
	call	?_Getcont@_Iterator_base12@std@@QBEPBU_Container_base12@2@XZ ; std::_Iterator_base12::_Getcont
	mov	ecx, DWORD PTR _this$[ebp]
	mov	edx, DWORD PTR [eax+8]
	cmp	edx, DWORD PTR [ecx+8]
	ja	SHORT $LN2@operator
$LN1@operator:
; Line 101
	mov	esi, esp
	push	101					; 00000065H
	push	OFFSET ??_C@_1IM@EINEHPHE@?$AAC?$AA?3?$AA?2?$AAP?$AAr?$AAo?$AAg?$AAr?$AAa?$AAm?$AA?5?$AAF?$AAi?$AAl?$AAe?$AAs?$AA?5?$AA?$CI?$AAx?$AA8?$AA6?$AA?$CJ?$AA?2?$AAM?$AAi?$AAc?$AAr?$AAo?$AAs?$AAo?$AAf?$AAt@
	push	OFFSET ??_C@_1EE@EJDKCLKB@?$AAv?$AAe?$AAc?$AAt?$AAo?$AAr?$AA?5?$AAi?$AAt?$AAe?$AAr?$AAa?$AAt?$AAo?$AAr?$AA?5?$AAn?$AAo?$AAt?$AA?5?$AAi?$AAn?$AAc?$AAr?$AAe?$AAm?$AAe?$AAn?$AAt?$AAa?$AAb?$AAl@
	call	DWORD PTR __imp_?_Debug_message@std@@YAXPB_W0I@Z
	add	esp, 12					; 0000000cH
	cmp	esi, esp
	call	__RTC_CheckEsp
; Line 102
	mov	eax, OFFSET ??_C@_0CE@OFMIGAMM@Standard?5C?$CL?$CL?5Libraries?5Out?5of?5Ra@
	test	eax, eax
	je	SHORT $LN5@operator
	xor	ecx, ecx
	jne	SHORT $LN6@operator
$LN5@operator:
	mov	esi, esp
	push	OFFSET ??_C@_1FG@IBPIFFN@?$AA?$CC?$AAS?$AAt?$AAa?$AAn?$AAd?$AAa?$AAr?$AAd?$AA?5?$AAC?$AA?$CL?$AA?$CL?$AA?5?$AAL?$AAi?$AAb?$AAr?$AAa?$AAr?$AAi?$AAe?$AAs?$AA?5?$AAO?$AAu?$AAt?$AA?5?$AAo?$AAf?$AA?5?$AAR@
	push	OFFSET ??_C@_15GANGMFKL@?$AA?$CF?$AAs?$AA?$AA@
	push	0
	push	102					; 00000066H
	push	OFFSET ??_C@_1IM@EINEHPHE@?$AAC?$AA?3?$AA?2?$AAP?$AAr?$AAo?$AAg?$AAr?$AAa?$AAm?$AA?5?$AAF?$AAi?$AAl?$AAe?$AAs?$AA?5?$AA?$CI?$AAx?$AA8?$AA6?$AA?$CJ?$AA?2?$AAM?$AAi?$AAc?$AAr?$AAo?$AAs?$AAo?$AAf?$AAt@
	push	2
	call	DWORD PTR __imp___CrtDbgReportW
	add	esp, 24					; 00000018H
	cmp	esi, esp
	call	__RTC_CheckEsp
	cmp	eax, 1
	jne	SHORT $LN6@operator
	int	3
$LN6@operator:
	mov	esi, esp
	push	0
	push	102					; 00000066H
	push	OFFSET ??_C@_1IM@EINEHPHE@?$AAC?$AA?3?$AA?2?$AAP?$AAr?$AAo?$AAg?$AAr?$AAa?$AAm?$AA?5?$AAF?$AAi?$AAl?$AAe?$AAs?$AA?5?$AA?$CI?$AAx?$AA8?$AA6?$AA?$CJ?$AA?2?$AAM?$AAi?$AAc?$AAr?$AAo?$AAs?$AAo?$AAf?$AAt@
	push	OFFSET ??_C@_1OK@KJNHLBOB@?$AAs?$AAt?$AAd?$AA?3?$AA?3?$AA_?$AAV?$AAe?$AAc?$AAt?$AAo?$AAr?$AA_?$AAc?$AAo?$AAn?$AAs?$AAt?$AA_?$AAi?$AAt?$AAe?$AAr?$AAa?$AAt?$AAo?$AAr?$AA?$DM?$AAc?$AAl?$AAa?$AAs@
	push	OFFSET ??_C@_1BO@MEPPHOO@?$AA?$CC?$AAo?$AAu?$AAt?$AA?5?$AAo?$AAf?$AA?5?$AAr?$AAa?$AAn?$AAg?$AAe?$AA?$CC?$AA?$AA@
	call	DWORD PTR __imp___invalid_parameter
	add	esp, 20					; 00000014H
	cmp	esi, esp
	call	__RTC_CheckEsp
$LN2@operator:
; Line 112
	mov	eax, DWORD PTR _this$[ebp]
	mov	ecx, DWORD PTR [eax+8]
	add	ecx, 28					; 0000001cH
	mov	edx, DWORD PTR _this$[ebp]
	mov	DWORD PTR [edx+8], ecx
; Line 113
	mov	eax, DWORD PTR _this$[ebp]
; Line 114
	pop	esi
	add	esp, 4
	cmp	ebp, esp
	call	__RTC_CheckEsp
	mov	esp, ebp
	pop	ebp
	ret	0
??E?$_Vector_const_iterator@V?$_Vector_val@U?$_Simple_types@UDXGI_MODE_DESC@@@std@@@std@@@std@@QAEAAV01@XZ ENDP ; std::_Vector_const_iterator<std::_Vector_val<std::_Simple_types<DXGI_MODE_DESC> > >::operator++
_TEXT	ENDS
; Function compile flags: /Odtp /RTCsu
;	COMDAT ??C?$_Vector_const_iterator@V?$_Vector_val@U?$_Simple_types@UDXGI_MODE_DESC@@@std@@@std@@@std@@QBEPBUDXGI_MODE_DESC@@XZ
_TEXT	SEGMENT
_this$ = -4						; size = 4
??C?$_Vector_const_iterator@V?$_Vector_val@U?$_Simple_types@UDXGI_MODE_DESC@@@std@@@std@@@std@@QBEPBUDXGI_MODE_DESC@@XZ PROC ; std::_Vector_const_iterator<std::_Vector_val<std::_Simple_types<DXGI_MODE_DESC> > >::operator->, COMDAT
; _this$ = ecx
; File c:\program files (x86)\microsoft visual studio 12.0\vc\include\vector
; Line 90
	push	ebp
	mov	ebp, esp
	push	ecx
	mov	DWORD PTR [ebp-4], -858993460		; ccccccccH
	mov	DWORD PTR _this$[ebp], ecx
; Line 91
	mov	ecx, DWORD PTR _this$[ebp]
	call	??D?$_Vector_const_iterator@V?$_Vector_val@U?$_Simple_types@UDXGI_MODE_DESC@@@std@@@std@@@std@@QBEABUDXGI_MODE_DESC@@XZ ; std::_Vector_const_iterator<std::_Vector_val<std::_Simple_types<DXGI_MODE_DESC> > >::operator*
	push	eax
	call	?pointer_to@?$pointer_traits@PBUDXGI_MODE_DESC@@@std@@SAPBUDXGI_MODE_DESC@@ABU3@@Z ; std::pointer_traits<DXGI_MODE_DESC const *>::pointer_to
	add	esp, 4
; Line 92
	add	esp, 4
	cmp	ebp, esp
	call	__RTC_CheckEsp
	mov	esp, ebp
	pop	ebp
	ret	0
??C?$_Vector_const_iterator@V?$_Vector_val@U?$_Simple_types@UDXGI_MODE_DESC@@@std@@@std@@@std@@QBEPBUDXGI_MODE_DESC@@XZ ENDP ; std::_Vector_const_iterator<std::_Vector_val<std::_Simple_types<DXGI_MODE_DESC> > >::operator->
_TEXT	ENDS
; Function compile flags: /Odtp /RTCsu
;	COMDAT ??D?$_Vector_const_iterator@V?$_Vector_val@U?$_Simple_types@UDXGI_MODE_DESC@@@std@@@std@@@std@@QBEABUDXGI_MODE_DESC@@XZ
_TEXT	SEGMENT
_this$ = -4						; size = 4
??D?$_Vector_const_iterator@V?$_Vector_val@U?$_Simple_types@UDXGI_MODE_DESC@@@std@@@std@@@std@@QBEABUDXGI_MODE_DESC@@XZ PROC ; std::_Vector_const_iterator<std::_Vector_val<std::_Simple_types<DXGI_MODE_DESC> > >::operator*, COMDAT
; _this$ = ecx
; File c:\program files (x86)\microsoft visual studio 12.0\vc\include\vector
; Line 65
	push	ebp
	mov	ebp, esp
	push	ecx
	push	esi
	mov	DWORD PTR [ebp-4], -858993460		; ccccccccH
	mov	DWORD PTR _this$[ebp], ecx
; Line 70
	mov	ecx, DWORD PTR _this$[ebp]
	call	?_Getcont@_Iterator_base12@std@@QBEPBU_Container_base12@2@XZ ; std::_Iterator_base12::_Getcont
	test	eax, eax
	je	SHORT $LN1@operator
	mov	eax, DWORD PTR _this$[ebp]
	cmp	DWORD PTR [eax+8], 0
	je	SHORT $LN1@operator
	mov	ecx, DWORD PTR _this$[ebp]
	call	?_Getcont@_Iterator_base12@std@@QBEPBU_Container_base12@2@XZ ; std::_Iterator_base12::_Getcont
	mov	ecx, DWORD PTR _this$[ebp]
	mov	edx, DWORD PTR [ecx+8]
	cmp	edx, DWORD PTR [eax+4]
	jb	SHORT $LN1@operator
	mov	ecx, DWORD PTR _this$[ebp]
	call	?_Getcont@_Iterator_base12@std@@QBEPBU_Container_base12@2@XZ ; std::_Iterator_base12::_Getcont
	mov	ecx, DWORD PTR _this$[ebp]
	mov	edx, DWORD PTR [eax+8]
	cmp	edx, DWORD PTR [ecx+8]
	ja	SHORT $LN2@operator
$LN1@operator:
; Line 72
	mov	esi, esp
	push	72					; 00000048H
	push	OFFSET ??_C@_1IM@EINEHPHE@?$AAC?$AA?3?$AA?2?$AAP?$AAr?$AAo?$AAg?$AAr?$AAa?$AAm?$AA?5?$AAF?$AAi?$AAl?$AAe?$AAs?$AA?5?$AA?$CI?$AAx?$AA8?$AA6?$AA?$CJ?$AA?2?$AAM?$AAi?$AAc?$AAr?$AAo?$AAs?$AAo?$AAf?$AAt@
	push	OFFSET ??_C@_1EG@FOHJJHAC@?$AAv?$AAe?$AAc?$AAt?$AAo?$AAr?$AA?5?$AAi?$AAt?$AAe?$AAr?$AAa?$AAt?$AAo?$AAr?$AA?5?$AAn?$AAo?$AAt?$AA?5?$AAd?$AAe?$AAr?$AAe?$AAf?$AAe?$AAr?$AAe?$AAn?$AAc?$AAa?$AAb@
	call	DWORD PTR __imp_?_Debug_message@std@@YAXPB_W0I@Z
	add	esp, 12					; 0000000cH
	cmp	esi, esp
	call	__RTC_CheckEsp
; Line 73
	mov	eax, OFFSET ??_C@_0CE@OFMIGAMM@Standard?5C?$CL?$CL?5Libraries?5Out?5of?5Ra@
	test	eax, eax
	je	SHORT $LN5@operator
	xor	ecx, ecx
	jne	SHORT $LN6@operator
$LN5@operator:
	mov	esi, esp
	push	OFFSET ??_C@_1FG@IBPIFFN@?$AA?$CC?$AAS?$AAt?$AAa?$AAn?$AAd?$AAa?$AAr?$AAd?$AA?5?$AAC?$AA?$CL?$AA?$CL?$AA?5?$AAL?$AAi?$AAb?$AAr?$AAa?$AAr?$AAi?$AAe?$AAs?$AA?5?$AAO?$AAu?$AAt?$AA?5?$AAo?$AAf?$AA?5?$AAR@
	push	OFFSET ??_C@_15GANGMFKL@?$AA?$CF?$AAs?$AA?$AA@
	push	0
	push	73					; 00000049H
	push	OFFSET ??_C@_1IM@EINEHPHE@?$AAC?$AA?3?$AA?2?$AAP?$AAr?$AAo?$AAg?$AAr?$AAa?$AAm?$AA?5?$AAF?$AAi?$AAl?$AAe?$AAs?$AA?5?$AA?$CI?$AAx?$AA8?$AA6?$AA?$CJ?$AA?2?$AAM?$AAi?$AAc?$AAr?$AAo?$AAs?$AAo?$AAf?$AAt@
	push	2
	call	DWORD PTR __imp___CrtDbgReportW
	add	esp, 24					; 00000018H
	cmp	esi, esp
	call	__RTC_CheckEsp
	cmp	eax, 1
	jne	SHORT $LN6@operator
	int	3
$LN6@operator:
	mov	esi, esp
	push	0
	push	73					; 00000049H
	push	OFFSET ??_C@_1IM@EINEHPHE@?$AAC?$AA?3?$AA?2?$AAP?$AAr?$AAo?$AAg?$AAr?$AAa?$AAm?$AA?5?$AAF?$AAi?$AAl?$AAe?$AAs?$AA?5?$AA?$CI?$AAx?$AA8?$AA6?$AA?$CJ?$AA?2?$AAM?$AAi?$AAc?$AAr?$AAo?$AAs?$AAo?$AAf?$AAt@
	push	OFFSET ??_C@_1OI@LKCPICFM@?$AAs?$AAt?$AAd?$AA?3?$AA?3?$AA_?$AAV?$AAe?$AAc?$AAt?$AAo?$AAr?$AA_?$AAc?$AAo?$AAn?$AAs?$AAt?$AA_?$AAi?$AAt?$AAe?$AAr?$AAa?$AAt?$AAo?$AAr?$AA?$DM?$AAc?$AAl?$AAa?$AAs@
	push	OFFSET ??_C@_1BO@MEPPHOO@?$AA?$CC?$AAo?$AAu?$AAt?$AA?5?$AAo?$AAf?$AA?5?$AAr?$AAa?$AAn?$AAg?$AAe?$AA?$CC?$AA?$AA@
	call	DWORD PTR __imp___invalid_parameter
	add	esp, 20					; 00000014H
	cmp	esi, esp
	call	__RTC_CheckEsp
$LN2@operator:
; Line 86
	mov	eax, DWORD PTR _this$[ebp]
	mov	eax, DWORD PTR [eax+8]
; Line 87
	pop	esi
	add	esp, 4
	cmp	ebp, esp
	call	__RTC_CheckEsp
	mov	esp, ebp
	pop	ebp
	ret	0
??D?$_Vector_const_iterator@V?$_Vector_val@U?$_Simple_types@UDXGI_MODE_DESC@@@std@@@std@@@std@@QBEABUDXGI_MODE_DESC@@XZ ENDP ; std::_Vector_const_iterator<std::_Vector_val<std::_Simple_types<DXGI_MODE_DESC> > >::operator*
_TEXT	ENDS
; Function compile flags: /Odtp /RTCsu
;	COMDAT ??0?$_Vector_const_iterator@V?$_Vector_val@U?$_Simple_types@UDXGI_MODE_DESC@@@std@@@std@@@std@@QAE@PAUDXGI_MODE_DESC@@PBU_Container_base12@1@@Z
_TEXT	SEGMENT
_this$ = -16						; size = 4
__$EHRec$ = -12						; size = 12
__Parg$ = 8						; size = 4
__Pvector$ = 12						; size = 4
??0?$_Vector_const_iterator@V?$_Vector_val@U?$_Simple_types@UDXGI_MODE_DESC@@@std@@@std@@@std@@QAE@PAUDXGI_MODE_DESC@@PBU_Container_base12@1@@Z PROC ; std::_Vector_const_iterator<std::_Vector_val<std::_Simple_types<DXGI_MODE_DESC> > >::_Vector_const_iterator<std::_Vector_val<std::_Simple_types<DXGI_MODE_DESC> > >, COMDAT
; _this$ = ecx
; File c:\program files (x86)\microsoft visual studio 12.0\vc\include\vector
; Line 47
	push	ebp
	mov	ebp, esp
	push	-1
	push	__ehhandler$??0?$_Vector_const_iterator@V?$_Vector_val@U?$_Simple_types@UDXGI_MODE_DESC@@@std@@@std@@@std@@QAE@PAUDXGI_MODE_DESC@@PBU_Container_base12@1@@Z
	mov	eax, DWORD PTR fs:0
	push	eax
	push	ecx
	mov	DWORD PTR [ebp-16], -858993460		; ccccccccH
	mov	eax, DWORD PTR ___security_cookie
	xor	eax, ebp
	push	eax
	lea	eax, DWORD PTR __$EHRec$[ebp]
	mov	DWORD PTR fs:0, eax
	mov	DWORD PTR _this$[ebp], ecx
	mov	ecx, DWORD PTR _this$[ebp]
	call	??0?$_Iterator012@Urandom_access_iterator_tag@std@@UDXGI_MODE_DESC@@HPBU3@ABU3@U_Iterator_base12@2@@std@@QAE@XZ
	mov	DWORD PTR __$EHRec$[ebp+8], 0
	mov	eax, DWORD PTR _this$[ebp]
	mov	ecx, DWORD PTR __Parg$[ebp]
	mov	DWORD PTR [eax+8], ecx
; Line 48
	mov	edx, DWORD PTR __Pvector$[ebp]
	push	edx
	mov	ecx, DWORD PTR _this$[ebp]
	call	?_Adopt@_Iterator_base12@std@@QAEXPBU_Container_base12@2@@Z ; std::_Iterator_base12::_Adopt
; Line 49
	mov	DWORD PTR __$EHRec$[ebp+8], -1
	mov	eax, DWORD PTR _this$[ebp]
	mov	ecx, DWORD PTR __$EHRec$[ebp]
	mov	DWORD PTR fs:0, ecx
	pop	ecx
	add	esp, 16					; 00000010H
	cmp	ebp, esp
	call	__RTC_CheckEsp
	mov	esp, ebp
	pop	ebp
	ret	8
_TEXT	ENDS
;	COMDAT text$x
text$x	SEGMENT
__unwindfunclet$??0?$_Vector_const_iterator@V?$_Vector_val@U?$_Simple_types@UDXGI_MODE_DESC@@@std@@@std@@@std@@QAE@PAUDXGI_MODE_DESC@@PBU_Container_base12@1@@Z$0:
	mov	ecx, DWORD PTR _this$[ebp]
	jmp	??1?$_Iterator012@Urandom_access_iterator_tag@std@@UDXGI_MODE_DESC@@HPBU3@ABU3@U_Iterator_base12@2@@std@@QAE@XZ
__ehhandler$??0?$_Vector_const_iterator@V?$_Vector_val@U?$_Simple_types@UDXGI_MODE_DESC@@@std@@@std@@@std@@QAE@PAUDXGI_MODE_DESC@@PBU_Container_base12@1@@Z:
	mov	edx, DWORD PTR [esp+8]
	lea	eax, DWORD PTR [edx+12]
	mov	ecx, DWORD PTR [edx-8]
	xor	ecx, eax
	call	@__security_check_cookie@4
	mov	eax, OFFSET __ehfuncinfo$??0?$_Vector_const_iterator@V?$_Vector_val@U?$_Simple_types@UDXGI_MODE_DESC@@@std@@@std@@@std@@QAE@PAUDXGI_MODE_DESC@@PBU_Container_base12@1@@Z
	jmp	___CxxFrameHandler3
text$x	ENDS
??0?$_Vector_const_iterator@V?$_Vector_val@U?$_Simple_types@UDXGI_MODE_DESC@@@std@@@std@@@std@@QAE@PAUDXGI_MODE_DESC@@PBU_Container_base12@1@@Z ENDP ; std::_Vector_const_iterator<std::_Vector_val<std::_Simple_types<DXGI_MODE_DESC> > >::_Vector_const_iterator<std::_Vector_val<std::_Simple_types<DXGI_MODE_DESC> > >
; Function compile flags: /Odtp /RTCsu
;	COMDAT ??1?$_Iterator012@Urandom_access_iterator_tag@std@@UDXGI_MODE_DESC@@HPBU3@ABU3@U_Iterator_base12@2@@std@@QAE@XZ
_TEXT	SEGMENT
_this$ = -4						; size = 4
??1?$_Iterator012@Urandom_access_iterator_tag@std@@UDXGI_MODE_DESC@@HPBU3@ABU3@U_Iterator_base12@2@@std@@QAE@XZ PROC ; std::_Iterator012<std::random_access_iterator_tag,DXGI_MODE_DESC,int,DXGI_MODE_DESC const *,DXGI_MODE_DESC const &,std::_Iterator_base12>::~_Iterator012<std::random_access_iterator_tag,DXGI_MODE_DESC,int,DXGI_MODE_DESC const *,DXGI_MODE_DESC const &,std::_Iterator_base12>, COMDAT
; _this$ = ecx
	push	ebp
	mov	ebp, esp
	push	ecx
	mov	DWORD PTR [ebp-4], -858993460		; ccccccccH
	mov	DWORD PTR _this$[ebp], ecx
	mov	ecx, DWORD PTR _this$[ebp]
	call	??1_Iterator_base12@std@@QAE@XZ		; std::_Iterator_base12::~_Iterator_base12
	add	esp, 4
	cmp	ebp, esp
	call	__RTC_CheckEsp
	mov	esp, ebp
	pop	ebp
	ret	0
??1?$_Iterator012@Urandom_access_iterator_tag@std@@UDXGI_MODE_DESC@@HPBU3@ABU3@U_Iterator_base12@2@@std@@QAE@XZ ENDP ; std::_Iterator012<std::random_access_iterator_tag,DXGI_MODE_DESC,int,DXGI_MODE_DESC const *,DXGI_MODE_DESC const &,std::_Iterator_base12>::~_Iterator012<std::random_access_iterator_tag,DXGI_MODE_DESC,int,DXGI_MODE_DESC const *,DXGI_MODE_DESC const &,std::_Iterator_base12>
_TEXT	ENDS
; Function compile flags: /Odtp /RTCsu
;	COMDAT ??0?$_Iterator012@Urandom_access_iterator_tag@std@@UDXGI_MODE_DESC@@HPBU3@ABU3@U_Iterator_base12@2@@std@@QAE@XZ
_TEXT	SEGMENT
_this$ = -4						; size = 4
??0?$_Iterator012@Urandom_access_iterator_tag@std@@UDXGI_MODE_DESC@@HPBU3@ABU3@U_Iterator_base12@2@@std@@QAE@XZ PROC ; std::_Iterator012<std::random_access_iterator_tag,DXGI_MODE_DESC,int,DXGI_MODE_DESC const *,DXGI_MODE_DESC const &,std::_Iterator_base12>::_Iterator012<std::random_access_iterator_tag,DXGI_MODE_DESC,int,DXGI_MODE_DESC const *,DXGI_MODE_DESC const &,std::_Iterator_base12>, COMDAT
; _this$ = ecx
	push	ebp
	mov	ebp, esp
	push	ecx
	mov	DWORD PTR [ebp-4], -858993460		; ccccccccH
	mov	DWORD PTR _this$[ebp], ecx
	mov	ecx, DWORD PTR _this$[ebp]
	call	??0_Iterator_base12@std@@QAE@XZ		; std::_Iterator_base12::_Iterator_base12
	mov	eax, DWORD PTR _this$[ebp]
	add	esp, 4
	cmp	ebp, esp
	call	__RTC_CheckEsp
	mov	esp, ebp
	pop	ebp
	ret	0
??0?$_Iterator012@Urandom_access_iterator_tag@std@@UDXGI_MODE_DESC@@HPBU3@ABU3@U_Iterator_base12@2@@std@@QAE@XZ ENDP ; std::_Iterator012<std::random_access_iterator_tag,DXGI_MODE_DESC,int,DXGI_MODE_DESC const *,DXGI_MODE_DESC const &,std::_Iterator_base12>::_Iterator012<std::random_access_iterator_tag,DXGI_MODE_DESC,int,DXGI_MODE_DESC const *,DXGI_MODE_DESC const &,std::_Iterator_base12>
_TEXT	ENDS
; Function compile flags: /Odtp /RTCsu
;	COMDAT ??$min@W4D3D_FEATURE_LEVEL@@@std@@YAABW4D3D_FEATURE_LEVEL@@ABW41@0@Z
_TEXT	SEGMENT
tv71 = -8						; size = 4
$T1 = -4						; size = 4
__Left$ = 8						; size = 4
__Right$ = 12						; size = 4
??$min@W4D3D_FEATURE_LEVEL@@@std@@YAABW4D3D_FEATURE_LEVEL@@ABW41@0@Z PROC ; std::min<enum D3D_FEATURE_LEVEL>, COMDAT
; File c:\program files (x86)\microsoft visual studio 12.0\vc\include\algorithm
; Line 4120
	push	ebp
	mov	ebp, esp
	sub	esp, 8
	mov	DWORD PTR [ebp-8], -858993460		; ccccccccH
	mov	DWORD PTR [ebp-4], -858993460		; ccccccccH
; Line 4121
	push	4121					; 00001019H
	push	OFFSET ??_C@_1JC@HALMDPKM@?$AAC?$AA?3?$AA?2?$AAP?$AAr?$AAo?$AAg?$AAr?$AAa?$AAm?$AA?5?$AAF?$AAi?$AAl?$AAe?$AAs?$AA?5?$AA?$CI?$AAx?$AA8?$AA6?$AA?$CJ?$AA?2?$AAM?$AAi?$AAc?$AAr?$AAo?$AAs?$AAo?$AAf?$AAt@
	mov	eax, DWORD PTR __Left$[ebp]
	push	eax
	mov	ecx, DWORD PTR __Right$[ebp]
	push	ecx
	call	??$_Debug_lt@ABW4D3D_FEATURE_LEVEL@@ABW41@@std@@YA_NABW4D3D_FEATURE_LEVEL@@0PB_WI@Z ; std::_Debug_lt<enum D3D_FEATURE_LEVEL const &,enum D3D_FEATURE_LEVEL const &>
	add	esp, 16					; 00000010H
	movzx	edx, al
	test	edx, edx
	je	SHORT $LN3@min
	mov	eax, DWORD PTR __Right$[ebp]
	mov	DWORD PTR tv71[ebp], eax
	jmp	SHORT $LN4@min
$LN3@min:
	mov	ecx, DWORD PTR __Left$[ebp]
	mov	DWORD PTR tv71[ebp], ecx
$LN4@min:
	mov	edx, DWORD PTR tv71[ebp]
	mov	DWORD PTR $T1[ebp], edx
	mov	eax, DWORD PTR $T1[ebp]
; Line 4122
	add	esp, 8
	cmp	ebp, esp
	call	__RTC_CheckEsp
	mov	esp, ebp
	pop	ebp
	ret	0
??$min@W4D3D_FEATURE_LEVEL@@@std@@YAABW4D3D_FEATURE_LEVEL@@ABW41@0@Z ENDP ; std::min<enum D3D_FEATURE_LEVEL>
_TEXT	ENDS
; Function compile flags: /Odtp /RTCsu
;	COMDAT ??1?$_Vector_const_iterator@V?$_Vector_val@U?$_Simple_types@I@std@@@std@@@std@@QAE@XZ
_TEXT	SEGMENT
_this$ = -4						; size = 4
??1?$_Vector_const_iterator@V?$_Vector_val@U?$_Simple_types@I@std@@@std@@@std@@QAE@XZ PROC ; std::_Vector_const_iterator<std::_Vector_val<std::_Simple_types<unsigned int> > >::~_Vector_const_iterator<std::_Vector_val<std::_Simple_types<unsigned int> > >, COMDAT
; _this$ = ecx
	push	ebp
	mov	ebp, esp
	push	ecx
	mov	DWORD PTR [ebp-4], -858993460		; ccccccccH
	mov	DWORD PTR _this$[ebp], ecx
	mov	ecx, DWORD PTR _this$[ebp]
	call	??1?$_Iterator012@Urandom_access_iterator_tag@std@@IHPBIABIU_Iterator_base12@2@@std@@QAE@XZ
	add	esp, 4
	cmp	ebp, esp
	call	__RTC_CheckEsp
	mov	esp, ebp
	pop	ebp
	ret	0
??1?$_Vector_const_iterator@V?$_Vector_val@U?$_Simple_types@I@std@@@std@@@std@@QAE@XZ ENDP ; std::_Vector_const_iterator<std::_Vector_val<std::_Simple_types<unsigned int> > >::~_Vector_const_iterator<std::_Vector_val<std::_Simple_types<unsigned int> > >
_TEXT	ENDS
; Function compile flags: /Odtp /RTCsu
;	COMDAT ?_Compat@?$_Vector_const_iterator@V?$_Vector_val@U?$_Simple_types@I@std@@@std@@@std@@QBEXABV12@@Z
_TEXT	SEGMENT
_this$ = -4						; size = 4
__Right$ = 8						; size = 4
?_Compat@?$_Vector_const_iterator@V?$_Vector_val@U?$_Simple_types@I@std@@@std@@@std@@QBEXABV12@@Z PROC ; std::_Vector_const_iterator<std::_Vector_val<std::_Simple_types<unsigned int> > >::_Compat, COMDAT
; _this$ = ecx
; File c:\program files (x86)\microsoft visual studio 12.0\vc\include\vector
; Line 236
	push	ebp
	mov	ebp, esp
	push	ecx
	push	esi
	mov	DWORD PTR [ebp-4], -858993460		; ccccccccH
	mov	DWORD PTR _this$[ebp], ecx
; Line 238
	mov	ecx, DWORD PTR _this$[ebp]
	call	?_Getcont@_Iterator_base12@std@@QBEPBU_Container_base12@2@XZ ; std::_Iterator_base12::_Getcont
	test	eax, eax
	je	SHORT $LN1@Compat
	mov	ecx, DWORD PTR _this$[ebp]
	call	?_Getcont@_Iterator_base12@std@@QBEPBU_Container_base12@2@XZ ; std::_Iterator_base12::_Getcont
	mov	esi, eax
	mov	ecx, DWORD PTR __Right$[ebp]
	call	?_Getcont@_Iterator_base12@std@@QBEPBU_Container_base12@2@XZ ; std::_Iterator_base12::_Getcont
	cmp	esi, eax
	je	$LN3@Compat
$LN1@Compat:
; Line 240
	mov	esi, esp
	push	240					; 000000f0H
	push	OFFSET ??_C@_1IM@EINEHPHE@?$AAC?$AA?3?$AA?2?$AAP?$AAr?$AAo?$AAg?$AAr?$AAa?$AAm?$AA?5?$AAF?$AAi?$AAl?$AAe?$AAs?$AA?5?$AA?$CI?$AAx?$AA8?$AA6?$AA?$CJ?$AA?2?$AAM?$AAi?$AAc?$AAr?$AAo?$AAs?$AAo?$AAf?$AAt@
	push	OFFSET ??_C@_1DM@HINDPMBP@?$AAv?$AAe?$AAc?$AAt?$AAo?$AAr?$AA?5?$AAi?$AAt?$AAe?$AAr?$AAa?$AAt?$AAo?$AAr?$AAs?$AA?5?$AAi?$AAn?$AAc?$AAo?$AAm?$AAp?$AAa?$AAt?$AAi?$AAb?$AAl?$AAe?$AA?$AA@
	call	DWORD PTR __imp_?_Debug_message@std@@YAXPB_W0I@Z
	add	esp, 12					; 0000000cH
	cmp	esi, esp
	call	__RTC_CheckEsp
; Line 241
	mov	eax, OFFSET ??_C@_0CI@FNPHFCCM@Standard?5C?$CL?$CL?5Libraries?5Invalid?5A@
	test	eax, eax
	je	SHORT $LN5@Compat
	xor	ecx, ecx
	jne	SHORT $LN6@Compat
$LN5@Compat:
	mov	esi, esp
	push	OFFSET ??_C@_1FO@GJIHNDLM@?$AA?$CC?$AAS?$AAt?$AAa?$AAn?$AAd?$AAa?$AAr?$AAd?$AA?5?$AAC?$AA?$CL?$AA?$CL?$AA?5?$AAL?$AAi?$AAb?$AAr?$AAa?$AAr?$AAi?$AAe?$AAs?$AA?5?$AAI?$AAn?$AAv?$AAa?$AAl?$AAi?$AAd?$AA?5@
	push	OFFSET ??_C@_15GANGMFKL@?$AA?$CF?$AAs?$AA?$AA@
	push	0
	push	241					; 000000f1H
	push	OFFSET ??_C@_1IM@EINEHPHE@?$AAC?$AA?3?$AA?2?$AAP?$AAr?$AAo?$AAg?$AAr?$AAa?$AAm?$AA?5?$AAF?$AAi?$AAl?$AAe?$AAs?$AA?5?$AA?$CI?$AAx?$AA8?$AA6?$AA?$CJ?$AA?2?$AAM?$AAi?$AAc?$AAr?$AAo?$AAs?$AAo?$AAf?$AAt@
	push	2
	call	DWORD PTR __imp___CrtDbgReportW
	add	esp, 24					; 00000018H
	cmp	esi, esp
	call	__RTC_CheckEsp
	cmp	eax, 1
	jne	SHORT $LN6@Compat
	int	3
$LN6@Compat:
	mov	esi, esp
	push	0
	push	241					; 000000f1H
	push	OFFSET ??_C@_1IM@EINEHPHE@?$AAC?$AA?3?$AA?2?$AAP?$AAr?$AAo?$AAg?$AAr?$AAa?$AAm?$AA?5?$AAF?$AAi?$AAl?$AAe?$AAs?$AA?5?$AA?$CI?$AAx?$AA8?$AA6?$AA?$CJ?$AA?2?$AAM?$AAi?$AAc?$AAr?$AAo?$AAs?$AAo?$AAf?$AAt@
	push	OFFSET ??_C@_1NA@KDANOKNP@?$AAs?$AAt?$AAd?$AA?3?$AA?3?$AA_?$AAV?$AAe?$AAc?$AAt?$AAo?$AAr?$AA_?$AAc?$AAo?$AAn?$AAs?$AAt?$AA_?$AAi?$AAt?$AAe?$AAr?$AAa?$AAt?$AAo?$AAr?$AA?$DM?$AAc?$AAl?$AAa?$AAs@
	push	OFFSET ??_C@_1CG@JNLFBNGN@?$AA?$CC?$AAi?$AAn?$AAv?$AAa?$AAl?$AAi?$AAd?$AA?5?$AAa?$AAr?$AAg?$AAu?$AAm?$AAe?$AAn?$AAt?$AA?$CC?$AA?$AA@
	call	DWORD PTR __imp___invalid_parameter
	add	esp, 20					; 00000014H
	cmp	esi, esp
	call	__RTC_CheckEsp
$LN3@Compat:
; Line 243
	pop	esi
	add	esp, 4
	cmp	ebp, esp
	call	__RTC_CheckEsp
	mov	esp, ebp
	pop	ebp
	ret	4
?_Compat@?$_Vector_const_iterator@V?$_Vector_val@U?$_Simple_types@I@std@@@std@@@std@@QBEXABV12@@Z ENDP ; std::_Vector_const_iterator<std::_Vector_val<std::_Simple_types<unsigned int> > >::_Compat
_TEXT	ENDS
; Function compile flags: /Odtp /RTCsu
;	COMDAT ??9?$_Vector_const_iterator@V?$_Vector_val@U?$_Simple_types@I@std@@@std@@@std@@QBE_NABV01@@Z
_TEXT	SEGMENT
tv69 = -8						; size = 4
_this$ = -4						; size = 4
__Right$ = 8						; size = 4
??9?$_Vector_const_iterator@V?$_Vector_val@U?$_Simple_types@I@std@@@std@@@std@@QBE_NABV01@@Z PROC ; std::_Vector_const_iterator<std::_Vector_val<std::_Simple_types<unsigned int> > >::operator!=, COMDAT
; _this$ = ecx
; File c:\program files (x86)\microsoft visual studio 12.0\vc\include\vector
; Line 209
	push	ebp
	mov	ebp, esp
	sub	esp, 8
	mov	DWORD PTR [ebp-8], -858993460		; ccccccccH
	mov	DWORD PTR [ebp-4], -858993460		; ccccccccH
	mov	DWORD PTR _this$[ebp], ecx
; Line 210
	mov	eax, DWORD PTR __Right$[ebp]
	push	eax
	mov	ecx, DWORD PTR _this$[ebp]
	call	??8?$_Vector_const_iterator@V?$_Vector_val@U?$_Simple_types@I@std@@@std@@@std@@QBE_NABV01@@Z ; std::_Vector_const_iterator<std::_Vector_val<std::_Simple_types<unsigned int> > >::operator==
	movzx	ecx, al
	test	ecx, ecx
	jne	SHORT $LN3@operator
	mov	DWORD PTR tv69[ebp], 1
	jmp	SHORT $LN4@operator
$LN3@operator:
	mov	DWORD PTR tv69[ebp], 0
$LN4@operator:
	mov	al, BYTE PTR tv69[ebp]
; Line 211
	add	esp, 8
	cmp	ebp, esp
	call	__RTC_CheckEsp
	mov	esp, ebp
	pop	ebp
	ret	4
??9?$_Vector_const_iterator@V?$_Vector_val@U?$_Simple_types@I@std@@@std@@@std@@QBE_NABV01@@Z ENDP ; std::_Vector_const_iterator<std::_Vector_val<std::_Simple_types<unsigned int> > >::operator!=
_TEXT	ENDS
; Function compile flags: /Odtp /RTCsu
;	COMDAT ??8?$_Vector_const_iterator@V?$_Vector_val@U?$_Simple_types@I@std@@@std@@@std@@QBE_NABV01@@Z
_TEXT	SEGMENT
tv69 = -8						; size = 4
_this$ = -4						; size = 4
__Right$ = 8						; size = 4
??8?$_Vector_const_iterator@V?$_Vector_val@U?$_Simple_types@I@std@@@std@@@std@@QBE_NABV01@@Z PROC ; std::_Vector_const_iterator<std::_Vector_val<std::_Simple_types<unsigned int> > >::operator==, COMDAT
; _this$ = ecx
; File c:\program files (x86)\microsoft visual studio 12.0\vc\include\vector
; Line 203
	push	ebp
	mov	ebp, esp
	sub	esp, 8
	mov	DWORD PTR [ebp-8], -858993460		; ccccccccH
	mov	DWORD PTR [ebp-4], -858993460		; ccccccccH
	mov	DWORD PTR _this$[ebp], ecx
; Line 204
	mov	eax, DWORD PTR __Right$[ebp]
	push	eax
	mov	ecx, DWORD PTR _this$[ebp]
	call	?_Compat@?$_Vector_const_iterator@V?$_Vector_val@U?$_Simple_types@I@std@@@std@@@std@@QBEXABV12@@Z ; std::_Vector_const_iterator<std::_Vector_val<std::_Simple_types<unsigned int> > >::_Compat
; Line 205
	mov	ecx, DWORD PTR _this$[ebp]
	mov	edx, DWORD PTR __Right$[ebp]
	mov	eax, DWORD PTR [ecx+8]
	cmp	eax, DWORD PTR [edx+8]
	jne	SHORT $LN3@operator
	mov	DWORD PTR tv69[ebp], 1
	jmp	SHORT $LN4@operator
$LN3@operator:
	mov	DWORD PTR tv69[ebp], 0
$LN4@operator:
	mov	al, BYTE PTR tv69[ebp]
; Line 206
	add	esp, 8
	cmp	ebp, esp
	call	__RTC_CheckEsp
	mov	esp, ebp
	pop	ebp
	ret	4
??8?$_Vector_const_iterator@V?$_Vector_val@U?$_Simple_types@I@std@@@std@@@std@@QBE_NABV01@@Z ENDP ; std::_Vector_const_iterator<std::_Vector_val<std::_Simple_types<unsigned int> > >::operator==
_TEXT	ENDS
; Function compile flags: /Odtp /RTCsu
;	COMDAT ??E?$_Vector_const_iterator@V?$_Vector_val@U?$_Simple_types@I@std@@@std@@@std@@QAEAAV01@XZ
_TEXT	SEGMENT
_this$ = -4						; size = 4
??E?$_Vector_const_iterator@V?$_Vector_val@U?$_Simple_types@I@std@@@std@@@std@@QAEAAV01@XZ PROC ; std::_Vector_const_iterator<std::_Vector_val<std::_Simple_types<unsigned int> > >::operator++, COMDAT
; _this$ = ecx
; File c:\program files (x86)\microsoft visual studio 12.0\vc\include\vector
; Line 95
	push	ebp
	mov	ebp, esp
	push	ecx
	push	esi
	mov	DWORD PTR [ebp-4], -858993460		; ccccccccH
	mov	DWORD PTR _this$[ebp], ecx
; Line 99
	mov	ecx, DWORD PTR _this$[ebp]
	call	?_Getcont@_Iterator_base12@std@@QBEPBU_Container_base12@2@XZ ; std::_Iterator_base12::_Getcont
	test	eax, eax
	je	SHORT $LN1@operator
	mov	eax, DWORD PTR _this$[ebp]
	cmp	DWORD PTR [eax+8], 0
	je	SHORT $LN1@operator
	mov	ecx, DWORD PTR _this$[ebp]
	call	?_Getcont@_Iterator_base12@std@@QBEPBU_Container_base12@2@XZ ; std::_Iterator_base12::_Getcont
	mov	ecx, DWORD PTR _this$[ebp]
	mov	edx, DWORD PTR [eax+8]
	cmp	edx, DWORD PTR [ecx+8]
	ja	SHORT $LN2@operator
$LN1@operator:
; Line 101
	mov	esi, esp
	push	101					; 00000065H
	push	OFFSET ??_C@_1IM@EINEHPHE@?$AAC?$AA?3?$AA?2?$AAP?$AAr?$AAo?$AAg?$AAr?$AAa?$AAm?$AA?5?$AAF?$AAi?$AAl?$AAe?$AAs?$AA?5?$AA?$CI?$AAx?$AA8?$AA6?$AA?$CJ?$AA?2?$AAM?$AAi?$AAc?$AAr?$AAo?$AAs?$AAo?$AAf?$AAt@
	push	OFFSET ??_C@_1EE@EJDKCLKB@?$AAv?$AAe?$AAc?$AAt?$AAo?$AAr?$AA?5?$AAi?$AAt?$AAe?$AAr?$AAa?$AAt?$AAo?$AAr?$AA?5?$AAn?$AAo?$AAt?$AA?5?$AAi?$AAn?$AAc?$AAr?$AAe?$AAm?$AAe?$AAn?$AAt?$AAa?$AAb?$AAl@
	call	DWORD PTR __imp_?_Debug_message@std@@YAXPB_W0I@Z
	add	esp, 12					; 0000000cH
	cmp	esi, esp
	call	__RTC_CheckEsp
; Line 102
	mov	eax, OFFSET ??_C@_0CE@OFMIGAMM@Standard?5C?$CL?$CL?5Libraries?5Out?5of?5Ra@
	test	eax, eax
	je	SHORT $LN5@operator
	xor	ecx, ecx
	jne	SHORT $LN6@operator
$LN5@operator:
	mov	esi, esp
	push	OFFSET ??_C@_1FG@IBPIFFN@?$AA?$CC?$AAS?$AAt?$AAa?$AAn?$AAd?$AAa?$AAr?$AAd?$AA?5?$AAC?$AA?$CL?$AA?$CL?$AA?5?$AAL?$AAi?$AAb?$AAr?$AAa?$AAr?$AAi?$AAe?$AAs?$AA?5?$AAO?$AAu?$AAt?$AA?5?$AAo?$AAf?$AA?5?$AAR@
	push	OFFSET ??_C@_15GANGMFKL@?$AA?$CF?$AAs?$AA?$AA@
	push	0
	push	102					; 00000066H
	push	OFFSET ??_C@_1IM@EINEHPHE@?$AAC?$AA?3?$AA?2?$AAP?$AAr?$AAo?$AAg?$AAr?$AAa?$AAm?$AA?5?$AAF?$AAi?$AAl?$AAe?$AAs?$AA?5?$AA?$CI?$AAx?$AA8?$AA6?$AA?$CJ?$AA?2?$AAM?$AAi?$AAc?$AAr?$AAo?$AAs?$AAo?$AAf?$AAt@
	push	2
	call	DWORD PTR __imp___CrtDbgReportW
	add	esp, 24					; 00000018H
	cmp	esi, esp
	call	__RTC_CheckEsp
	cmp	eax, 1
	jne	SHORT $LN6@operator
	int	3
$LN6@operator:
	mov	esi, esp
	push	0
	push	102					; 00000066H
	push	OFFSET ??_C@_1IM@EINEHPHE@?$AAC?$AA?3?$AA?2?$AAP?$AAr?$AAo?$AAg?$AAr?$AAa?$AAm?$AA?5?$AAF?$AAi?$AAl?$AAe?$AAs?$AA?5?$AA?$CI?$AAx?$AA8?$AA6?$AA?$CJ?$AA?2?$AAM?$AAi?$AAc?$AAr?$AAo?$AAs?$AAo?$AAf?$AAt@
	push	OFFSET ??_C@_1NI@CDNGJJHP@?$AAs?$AAt?$AAd?$AA?3?$AA?3?$AA_?$AAV?$AAe?$AAc?$AAt?$AAo?$AAr?$AA_?$AAc?$AAo?$AAn?$AAs?$AAt?$AA_?$AAi?$AAt?$AAe?$AAr?$AAa?$AAt?$AAo?$AAr?$AA?$DM?$AAc?$AAl?$AAa?$AAs@
	push	OFFSET ??_C@_1BO@MEPPHOO@?$AA?$CC?$AAo?$AAu?$AAt?$AA?5?$AAo?$AAf?$AA?5?$AAr?$AAa?$AAn?$AAg?$AAe?$AA?$CC?$AA?$AA@
	call	DWORD PTR __imp___invalid_parameter
	add	esp, 20					; 00000014H
	cmp	esi, esp
	call	__RTC_CheckEsp
$LN2@operator:
; Line 112
	mov	eax, DWORD PTR _this$[ebp]
	mov	ecx, DWORD PTR [eax+8]
	add	ecx, 4
	mov	edx, DWORD PTR _this$[ebp]
	mov	DWORD PTR [edx+8], ecx
; Line 113
	mov	eax, DWORD PTR _this$[ebp]
; Line 114
	pop	esi
	add	esp, 4
	cmp	ebp, esp
	call	__RTC_CheckEsp
	mov	esp, ebp
	pop	ebp
	ret	0
??E?$_Vector_const_iterator@V?$_Vector_val@U?$_Simple_types@I@std@@@std@@@std@@QAEAAV01@XZ ENDP ; std::_Vector_const_iterator<std::_Vector_val<std::_Simple_types<unsigned int> > >::operator++
_TEXT	ENDS
; Function compile flags: /Odtp /RTCsu
;	COMDAT ??D?$_Vector_const_iterator@V?$_Vector_val@U?$_Simple_types@I@std@@@std@@@std@@QBEABIXZ
_TEXT	SEGMENT
_this$ = -4						; size = 4
??D?$_Vector_const_iterator@V?$_Vector_val@U?$_Simple_types@I@std@@@std@@@std@@QBEABIXZ PROC ; std::_Vector_const_iterator<std::_Vector_val<std::_Simple_types<unsigned int> > >::operator*, COMDAT
; _this$ = ecx
; File c:\program files (x86)\microsoft visual studio 12.0\vc\include\vector
; Line 65
	push	ebp
	mov	ebp, esp
	push	ecx
	push	esi
	mov	DWORD PTR [ebp-4], -858993460		; ccccccccH
	mov	DWORD PTR _this$[ebp], ecx
; Line 70
	mov	ecx, DWORD PTR _this$[ebp]
	call	?_Getcont@_Iterator_base12@std@@QBEPBU_Container_base12@2@XZ ; std::_Iterator_base12::_Getcont
	test	eax, eax
	je	SHORT $LN1@operator
	mov	eax, DWORD PTR _this$[ebp]
	cmp	DWORD PTR [eax+8], 0
	je	SHORT $LN1@operator
	mov	ecx, DWORD PTR _this$[ebp]
	call	?_Getcont@_Iterator_base12@std@@QBEPBU_Container_base12@2@XZ ; std::_Iterator_base12::_Getcont
	mov	ecx, DWORD PTR _this$[ebp]
	mov	edx, DWORD PTR [ecx+8]
	cmp	edx, DWORD PTR [eax+4]
	jb	SHORT $LN1@operator
	mov	ecx, DWORD PTR _this$[ebp]
	call	?_Getcont@_Iterator_base12@std@@QBEPBU_Container_base12@2@XZ ; std::_Iterator_base12::_Getcont
	mov	ecx, DWORD PTR _this$[ebp]
	mov	edx, DWORD PTR [eax+8]
	cmp	edx, DWORD PTR [ecx+8]
	ja	SHORT $LN2@operator
$LN1@operator:
; Line 72
	mov	esi, esp
	push	72					; 00000048H
	push	OFFSET ??_C@_1IM@EINEHPHE@?$AAC?$AA?3?$AA?2?$AAP?$AAr?$AAo?$AAg?$AAr?$AAa?$AAm?$AA?5?$AAF?$AAi?$AAl?$AAe?$AAs?$AA?5?$AA?$CI?$AAx?$AA8?$AA6?$AA?$CJ?$AA?2?$AAM?$AAi?$AAc?$AAr?$AAo?$AAs?$AAo?$AAf?$AAt@
	push	OFFSET ??_C@_1EG@FOHJJHAC@?$AAv?$AAe?$AAc?$AAt?$AAo?$AAr?$AA?5?$AAi?$AAt?$AAe?$AAr?$AAa?$AAt?$AAo?$AAr?$AA?5?$AAn?$AAo?$AAt?$AA?5?$AAd?$AAe?$AAr?$AAe?$AAf?$AAe?$AAr?$AAe?$AAn?$AAc?$AAa?$AAb@
	call	DWORD PTR __imp_?_Debug_message@std@@YAXPB_W0I@Z
	add	esp, 12					; 0000000cH
	cmp	esi, esp
	call	__RTC_CheckEsp
; Line 73
	mov	eax, OFFSET ??_C@_0CE@OFMIGAMM@Standard?5C?$CL?$CL?5Libraries?5Out?5of?5Ra@
	test	eax, eax
	je	SHORT $LN5@operator
	xor	ecx, ecx
	jne	SHORT $LN6@operator
$LN5@operator:
	mov	esi, esp
	push	OFFSET ??_C@_1FG@IBPIFFN@?$AA?$CC?$AAS?$AAt?$AAa?$AAn?$AAd?$AAa?$AAr?$AAd?$AA?5?$AAC?$AA?$CL?$AA?$CL?$AA?5?$AAL?$AAi?$AAb?$AAr?$AAa?$AAr?$AAi?$AAe?$AAs?$AA?5?$AAO?$AAu?$AAt?$AA?5?$AAo?$AAf?$AA?5?$AAR@
	push	OFFSET ??_C@_15GANGMFKL@?$AA?$CF?$AAs?$AA?$AA@
	push	0
	push	73					; 00000049H
	push	OFFSET ??_C@_1IM@EINEHPHE@?$AAC?$AA?3?$AA?2?$AAP?$AAr?$AAo?$AAg?$AAr?$AAa?$AAm?$AA?5?$AAF?$AAi?$AAl?$AAe?$AAs?$AA?5?$AA?$CI?$AAx?$AA8?$AA6?$AA?$CJ?$AA?2?$AAM?$AAi?$AAc?$AAr?$AAo?$AAs?$AAo?$AAf?$AAt@
	push	2
	call	DWORD PTR __imp___CrtDbgReportW
	add	esp, 24					; 00000018H
	cmp	esi, esp
	call	__RTC_CheckEsp
	cmp	eax, 1
	jne	SHORT $LN6@operator
	int	3
$LN6@operator:
	mov	esi, esp
	push	0
	push	73					; 00000049H
	push	OFFSET ??_C@_1IM@EINEHPHE@?$AAC?$AA?3?$AA?2?$AAP?$AAr?$AAo?$AAg?$AAr?$AAa?$AAm?$AA?5?$AAF?$AAi?$AAl?$AAe?$AAs?$AA?5?$AA?$CI?$AAx?$AA8?$AA6?$AA?$CJ?$AA?2?$AAM?$AAi?$AAc?$AAr?$AAo?$AAs?$AAo?$AAf?$AAt@
	push	OFFSET ??_C@_1NG@DAPFFJEF@?$AAs?$AAt?$AAd?$AA?3?$AA?3?$AA_?$AAV?$AAe?$AAc?$AAt?$AAo?$AAr?$AA_?$AAc?$AAo?$AAn?$AAs?$AAt?$AA_?$AAi?$AAt?$AAe?$AAr?$AAa?$AAt?$AAo?$AAr?$AA?$DM?$AAc?$AAl?$AAa?$AAs@
	push	OFFSET ??_C@_1BO@MEPPHOO@?$AA?$CC?$AAo?$AAu?$AAt?$AA?5?$AAo?$AAf?$AA?5?$AAr?$AAa?$AAn?$AAg?$AAe?$AA?$CC?$AA?$AA@
	call	DWORD PTR __imp___invalid_parameter
	add	esp, 20					; 00000014H
	cmp	esi, esp
	call	__RTC_CheckEsp
$LN2@operator:
; Line 86
	mov	eax, DWORD PTR _this$[ebp]
	mov	eax, DWORD PTR [eax+8]
; Line 87
	pop	esi
	add	esp, 4
	cmp	ebp, esp
	call	__RTC_CheckEsp
	mov	esp, ebp
	pop	ebp
	ret	0
??D?$_Vector_const_iterator@V?$_Vector_val@U?$_Simple_types@I@std@@@std@@@std@@QBEABIXZ ENDP ; std::_Vector_const_iterator<std::_Vector_val<std::_Simple_types<unsigned int> > >::operator*
_TEXT	ENDS
; Function compile flags: /Odtp /RTCsu
;	COMDAT ??0?$_Vector_const_iterator@V?$_Vector_val@U?$_Simple_types@I@std@@@std@@@std@@QAE@PAIPBU_Container_base12@1@@Z
_TEXT	SEGMENT
_this$ = -16						; size = 4
__$EHRec$ = -12						; size = 12
__Parg$ = 8						; size = 4
__Pvector$ = 12						; size = 4
??0?$_Vector_const_iterator@V?$_Vector_val@U?$_Simple_types@I@std@@@std@@@std@@QAE@PAIPBU_Container_base12@1@@Z PROC ; std::_Vector_const_iterator<std::_Vector_val<std::_Simple_types<unsigned int> > >::_Vector_const_iterator<std::_Vector_val<std::_Simple_types<unsigned int> > >, COMDAT
; _this$ = ecx
; File c:\program files (x86)\microsoft visual studio 12.0\vc\include\vector
; Line 47
	push	ebp
	mov	ebp, esp
	push	-1
	push	__ehhandler$??0?$_Vector_const_iterator@V?$_Vector_val@U?$_Simple_types@I@std@@@std@@@std@@QAE@PAIPBU_Container_base12@1@@Z
	mov	eax, DWORD PTR fs:0
	push	eax
	push	ecx
	mov	DWORD PTR [ebp-16], -858993460		; ccccccccH
	mov	eax, DWORD PTR ___security_cookie
	xor	eax, ebp
	push	eax
	lea	eax, DWORD PTR __$EHRec$[ebp]
	mov	DWORD PTR fs:0, eax
	mov	DWORD PTR _this$[ebp], ecx
	mov	ecx, DWORD PTR _this$[ebp]
	call	??0?$_Iterator012@Urandom_access_iterator_tag@std@@IHPBIABIU_Iterator_base12@2@@std@@QAE@XZ
	mov	DWORD PTR __$EHRec$[ebp+8], 0
	mov	eax, DWORD PTR _this$[ebp]
	mov	ecx, DWORD PTR __Parg$[ebp]
	mov	DWORD PTR [eax+8], ecx
; Line 48
	mov	edx, DWORD PTR __Pvector$[ebp]
	push	edx
	mov	ecx, DWORD PTR _this$[ebp]
	call	?_Adopt@_Iterator_base12@std@@QAEXPBU_Container_base12@2@@Z ; std::_Iterator_base12::_Adopt
; Line 49
	mov	DWORD PTR __$EHRec$[ebp+8], -1
	mov	eax, DWORD PTR _this$[ebp]
	mov	ecx, DWORD PTR __$EHRec$[ebp]
	mov	DWORD PTR fs:0, ecx
	pop	ecx
	add	esp, 16					; 00000010H
	cmp	ebp, esp
	call	__RTC_CheckEsp
	mov	esp, ebp
	pop	ebp
	ret	8
_TEXT	ENDS
;	COMDAT text$x
text$x	SEGMENT
__unwindfunclet$??0?$_Vector_const_iterator@V?$_Vector_val@U?$_Simple_types@I@std@@@std@@@std@@QAE@PAIPBU_Container_base12@1@@Z$0:
	mov	ecx, DWORD PTR _this$[ebp]
	jmp	??1?$_Iterator012@Urandom_access_iterator_tag@std@@IHPBIABIU_Iterator_base12@2@@std@@QAE@XZ
__ehhandler$??0?$_Vector_const_iterator@V?$_Vector_val@U?$_Simple_types@I@std@@@std@@@std@@QAE@PAIPBU_Container_base12@1@@Z:
	mov	edx, DWORD PTR [esp+8]
	lea	eax, DWORD PTR [edx+12]
	mov	ecx, DWORD PTR [edx-8]
	xor	ecx, eax
	call	@__security_check_cookie@4
	mov	eax, OFFSET __ehfuncinfo$??0?$_Vector_const_iterator@V?$_Vector_val@U?$_Simple_types@I@std@@@std@@@std@@QAE@PAIPBU_Container_base12@1@@Z
	jmp	___CxxFrameHandler3
text$x	ENDS
??0?$_Vector_const_iterator@V?$_Vector_val@U?$_Simple_types@I@std@@@std@@@std@@QAE@PAIPBU_Container_base12@1@@Z ENDP ; std::_Vector_const_iterator<std::_Vector_val<std::_Simple_types<unsigned int> > >::_Vector_const_iterator<std::_Vector_val<std::_Simple_types<unsigned int> > >
; Function compile flags: /Odtp /RTCsu
;	COMDAT ??1?$_Iterator012@Urandom_access_iterator_tag@std@@IHPBIABIU_Iterator_base12@2@@std@@QAE@XZ
_TEXT	SEGMENT
_this$ = -4						; size = 4
??1?$_Iterator012@Urandom_access_iterator_tag@std@@IHPBIABIU_Iterator_base12@2@@std@@QAE@XZ PROC ; std::_Iterator012<std::random_access_iterator_tag,unsigned int,int,unsigned int const *,unsigned int const &,std::_Iterator_base12>::~_Iterator012<std::random_access_iterator_tag,unsigned int,int,unsigned int const *,unsigned int const &,std::_Iterator_base12>, COMDAT
; _this$ = ecx
	push	ebp
	mov	ebp, esp
	push	ecx
	mov	DWORD PTR [ebp-4], -858993460		; ccccccccH
	mov	DWORD PTR _this$[ebp], ecx
	mov	ecx, DWORD PTR _this$[ebp]
	call	??1_Iterator_base12@std@@QAE@XZ		; std::_Iterator_base12::~_Iterator_base12
	add	esp, 4
	cmp	ebp, esp
	call	__RTC_CheckEsp
	mov	esp, ebp
	pop	ebp
	ret	0
??1?$_Iterator012@Urandom_access_iterator_tag@std@@IHPBIABIU_Iterator_base12@2@@std@@QAE@XZ ENDP ; std::_Iterator012<std::random_access_iterator_tag,unsigned int,int,unsigned int const *,unsigned int const &,std::_Iterator_base12>::~_Iterator012<std::random_access_iterator_tag,unsigned int,int,unsigned int const *,unsigned int const &,std::_Iterator_base12>
_TEXT	ENDS
; Function compile flags: /Odtp /RTCsu
;	COMDAT ??0?$_Iterator012@Urandom_access_iterator_tag@std@@IHPBIABIU_Iterator_base12@2@@std@@QAE@XZ
_TEXT	SEGMENT
_this$ = -4						; size = 4
??0?$_Iterator012@Urandom_access_iterator_tag@std@@IHPBIABIU_Iterator_base12@2@@std@@QAE@XZ PROC ; std::_Iterator012<std::random_access_iterator_tag,unsigned int,int,unsigned int const *,unsigned int const &,std::_Iterator_base12>::_Iterator012<std::random_access_iterator_tag,unsigned int,int,unsigned int const *,unsigned int const &,std::_Iterator_base12>, COMDAT
; _this$ = ecx
	push	ebp
	mov	ebp, esp
	push	ecx
	mov	DWORD PTR [ebp-4], -858993460		; ccccccccH
	mov	DWORD PTR _this$[ebp], ecx
	mov	ecx, DWORD PTR _this$[ebp]
	call	??0_Iterator_base12@std@@QAE@XZ		; std::_Iterator_base12::_Iterator_base12
	mov	eax, DWORD PTR _this$[ebp]
	add	esp, 4
	cmp	ebp, esp
	call	__RTC_CheckEsp
	mov	esp, ebp
	pop	ebp
	ret	0
??0?$_Iterator012@Urandom_access_iterator_tag@std@@IHPBIABIU_Iterator_base12@2@@std@@QAE@XZ ENDP ; std::_Iterator012<std::random_access_iterator_tag,unsigned int,int,unsigned int const *,unsigned int const &,std::_Iterator_base12>::_Iterator012<std::random_access_iterator_tag,unsigned int,int,unsigned int const *,unsigned int const &,std::_Iterator_base12>
_TEXT	ENDS
; Function compile flags: /Odtp /RTCsu
;	COMDAT ??1?$_Vector_const_iterator@V?$_Vector_val@U?$_Simple_types@PAVCD3D11EnumAdapterInfo@@@std@@@std@@@std@@QAE@XZ
_TEXT	SEGMENT
_this$ = -4						; size = 4
??1?$_Vector_const_iterator@V?$_Vector_val@U?$_Simple_types@PAVCD3D11EnumAdapterInfo@@@std@@@std@@@std@@QAE@XZ PROC ; std::_Vector_const_iterator<std::_Vector_val<std::_Simple_types<CD3D11EnumAdapterInfo *> > >::~_Vector_const_iterator<std::_Vector_val<std::_Simple_types<CD3D11EnumAdapterInfo *> > >, COMDAT
; _this$ = ecx
	push	ebp
	mov	ebp, esp
	push	ecx
	mov	DWORD PTR [ebp-4], -858993460		; ccccccccH
	mov	DWORD PTR _this$[ebp], ecx
	mov	ecx, DWORD PTR _this$[ebp]
	call	??1?$_Iterator012@Urandom_access_iterator_tag@std@@PAVCD3D11EnumAdapterInfo@@HPBQAV3@ABQAV3@U_Iterator_base12@2@@std@@QAE@XZ
	add	esp, 4
	cmp	ebp, esp
	call	__RTC_CheckEsp
	mov	esp, ebp
	pop	ebp
	ret	0
??1?$_Vector_const_iterator@V?$_Vector_val@U?$_Simple_types@PAVCD3D11EnumAdapterInfo@@@std@@@std@@@std@@QAE@XZ ENDP ; std::_Vector_const_iterator<std::_Vector_val<std::_Simple_types<CD3D11EnumAdapterInfo *> > >::~_Vector_const_iterator<std::_Vector_val<std::_Simple_types<CD3D11EnumAdapterInfo *> > >
_TEXT	ENDS
; Function compile flags: /Odtp /RTCsu
;	COMDAT ?_Compat@?$_Vector_const_iterator@V?$_Vector_val@U?$_Simple_types@PAVCD3D11EnumAdapterInfo@@@std@@@std@@@std@@QBEXABV12@@Z
_TEXT	SEGMENT
_this$ = -4						; size = 4
__Right$ = 8						; size = 4
?_Compat@?$_Vector_const_iterator@V?$_Vector_val@U?$_Simple_types@PAVCD3D11EnumAdapterInfo@@@std@@@std@@@std@@QBEXABV12@@Z PROC ; std::_Vector_const_iterator<std::_Vector_val<std::_Simple_types<CD3D11EnumAdapterInfo *> > >::_Compat, COMDAT
; _this$ = ecx
; File c:\program files (x86)\microsoft visual studio 12.0\vc\include\vector
; Line 236
	push	ebp
	mov	ebp, esp
	push	ecx
	push	esi
	mov	DWORD PTR [ebp-4], -858993460		; ccccccccH
	mov	DWORD PTR _this$[ebp], ecx
; Line 238
	mov	ecx, DWORD PTR _this$[ebp]
	call	?_Getcont@_Iterator_base12@std@@QBEPBU_Container_base12@2@XZ ; std::_Iterator_base12::_Getcont
	test	eax, eax
	je	SHORT $LN1@Compat
	mov	ecx, DWORD PTR _this$[ebp]
	call	?_Getcont@_Iterator_base12@std@@QBEPBU_Container_base12@2@XZ ; std::_Iterator_base12::_Getcont
	mov	esi, eax
	mov	ecx, DWORD PTR __Right$[ebp]
	call	?_Getcont@_Iterator_base12@std@@QBEPBU_Container_base12@2@XZ ; std::_Iterator_base12::_Getcont
	cmp	esi, eax
	je	$LN3@Compat
$LN1@Compat:
; Line 240
	mov	esi, esp
	push	240					; 000000f0H
	push	OFFSET ??_C@_1IM@EINEHPHE@?$AAC?$AA?3?$AA?2?$AAP?$AAr?$AAo?$AAg?$AAr?$AAa?$AAm?$AA?5?$AAF?$AAi?$AAl?$AAe?$AAs?$AA?5?$AA?$CI?$AAx?$AA8?$AA6?$AA?$CJ?$AA?2?$AAM?$AAi?$AAc?$AAr?$AAo?$AAs?$AAo?$AAf?$AAt@
	push	OFFSET ??_C@_1DM@HINDPMBP@?$AAv?$AAe?$AAc?$AAt?$AAo?$AAr?$AA?5?$AAi?$AAt?$AAe?$AAr?$AAa?$AAt?$AAo?$AAr?$AAs?$AA?5?$AAi?$AAn?$AAc?$AAo?$AAm?$AAp?$AAa?$AAt?$AAi?$AAb?$AAl?$AAe?$AA?$AA@
	call	DWORD PTR __imp_?_Debug_message@std@@YAXPB_W0I@Z
	add	esp, 12					; 0000000cH
	cmp	esi, esp
	call	__RTC_CheckEsp
; Line 241
	mov	eax, OFFSET ??_C@_0CI@FNPHFCCM@Standard?5C?$CL?$CL?5Libraries?5Invalid?5A@
	test	eax, eax
	je	SHORT $LN5@Compat
	xor	ecx, ecx
	jne	SHORT $LN6@Compat
$LN5@Compat:
	mov	esi, esp
	push	OFFSET ??_C@_1FO@GJIHNDLM@?$AA?$CC?$AAS?$AAt?$AAa?$AAn?$AAd?$AAa?$AAr?$AAd?$AA?5?$AAC?$AA?$CL?$AA?$CL?$AA?5?$AAL?$AAi?$AAb?$AAr?$AAa?$AAr?$AAi?$AAe?$AAs?$AA?5?$AAI?$AAn?$AAv?$AAa?$AAl?$AAi?$AAd?$AA?5@
	push	OFFSET ??_C@_15GANGMFKL@?$AA?$CF?$AAs?$AA?$AA@
	push	0
	push	241					; 000000f1H
	push	OFFSET ??_C@_1IM@EINEHPHE@?$AAC?$AA?3?$AA?2?$AAP?$AAr?$AAo?$AAg?$AAr?$AAa?$AAm?$AA?5?$AAF?$AAi?$AAl?$AAe?$AAs?$AA?5?$AA?$CI?$AAx?$AA8?$AA6?$AA?$CJ?$AA?2?$AAM?$AAi?$AAc?$AAr?$AAo?$AAs?$AAo?$AAf?$AAt@
	push	2
	call	DWORD PTR __imp___CrtDbgReportW
	add	esp, 24					; 00000018H
	cmp	esi, esp
	call	__RTC_CheckEsp
	cmp	eax, 1
	jne	SHORT $LN6@Compat
	int	3
$LN6@Compat:
	mov	esi, esp
	push	0
	push	241					; 000000f1H
	push	OFFSET ??_C@_1IM@EINEHPHE@?$AAC?$AA?3?$AA?2?$AAP?$AAr?$AAo?$AAg?$AAr?$AAa?$AAm?$AA?5?$AAF?$AAi?$AAl?$AAe?$AAs?$AA?5?$AA?$CI?$AAx?$AA8?$AA6?$AA?$CJ?$AA?2?$AAM?$AAi?$AAc?$AAr?$AAo?$AAs?$AAo?$AAf?$AAt@
	push	OFFSET ??_C@_1PC@LBNCMFIJ@?$AAs?$AAt?$AAd?$AA?3?$AA?3?$AA_?$AAV?$AAe?$AAc?$AAt?$AAo?$AAr?$AA_?$AAc?$AAo?$AAn?$AAs?$AAt?$AA_?$AAi?$AAt?$AAe?$AAr?$AAa?$AAt?$AAo?$AAr?$AA?$DM?$AAc?$AAl?$AAa?$AAs@
	push	OFFSET ??_C@_1CG@JNLFBNGN@?$AA?$CC?$AAi?$AAn?$AAv?$AAa?$AAl?$AAi?$AAd?$AA?5?$AAa?$AAr?$AAg?$AAu?$AAm?$AAe?$AAn?$AAt?$AA?$CC?$AA?$AA@
	call	DWORD PTR __imp___invalid_parameter
	add	esp, 20					; 00000014H
	cmp	esi, esp
	call	__RTC_CheckEsp
$LN3@Compat:
; Line 243
	pop	esi
	add	esp, 4
	cmp	ebp, esp
	call	__RTC_CheckEsp
	mov	esp, ebp
	pop	ebp
	ret	4
?_Compat@?$_Vector_const_iterator@V?$_Vector_val@U?$_Simple_types@PAVCD3D11EnumAdapterInfo@@@std@@@std@@@std@@QBEXABV12@@Z ENDP ; std::_Vector_const_iterator<std::_Vector_val<std::_Simple_types<CD3D11EnumAdapterInfo *> > >::_Compat
_TEXT	ENDS
; Function compile flags: /Odtp /RTCsu
;	COMDAT ??9?$_Vector_const_iterator@V?$_Vector_val@U?$_Simple_types@PAVCD3D11EnumAdapterInfo@@@std@@@std@@@std@@QBE_NABV01@@Z
_TEXT	SEGMENT
tv69 = -8						; size = 4
_this$ = -4						; size = 4
__Right$ = 8						; size = 4
??9?$_Vector_const_iterator@V?$_Vector_val@U?$_Simple_types@PAVCD3D11EnumAdapterInfo@@@std@@@std@@@std@@QBE_NABV01@@Z PROC ; std::_Vector_const_iterator<std::_Vector_val<std::_Simple_types<CD3D11EnumAdapterInfo *> > >::operator!=, COMDAT
; _this$ = ecx
; File c:\program files (x86)\microsoft visual studio 12.0\vc\include\vector
; Line 209
	push	ebp
	mov	ebp, esp
	sub	esp, 8
	mov	DWORD PTR [ebp-8], -858993460		; ccccccccH
	mov	DWORD PTR [ebp-4], -858993460		; ccccccccH
	mov	DWORD PTR _this$[ebp], ecx
; Line 210
	mov	eax, DWORD PTR __Right$[ebp]
	push	eax
	mov	ecx, DWORD PTR _this$[ebp]
	call	??8?$_Vector_const_iterator@V?$_Vector_val@U?$_Simple_types@PAVCD3D11EnumAdapterInfo@@@std@@@std@@@std@@QBE_NABV01@@Z ; std::_Vector_const_iterator<std::_Vector_val<std::_Simple_types<CD3D11EnumAdapterInfo *> > >::operator==
	movzx	ecx, al
	test	ecx, ecx
	jne	SHORT $LN3@operator
	mov	DWORD PTR tv69[ebp], 1
	jmp	SHORT $LN4@operator
$LN3@operator:
	mov	DWORD PTR tv69[ebp], 0
$LN4@operator:
	mov	al, BYTE PTR tv69[ebp]
; Line 211
	add	esp, 8
	cmp	ebp, esp
	call	__RTC_CheckEsp
	mov	esp, ebp
	pop	ebp
	ret	4
??9?$_Vector_const_iterator@V?$_Vector_val@U?$_Simple_types@PAVCD3D11EnumAdapterInfo@@@std@@@std@@@std@@QBE_NABV01@@Z ENDP ; std::_Vector_const_iterator<std::_Vector_val<std::_Simple_types<CD3D11EnumAdapterInfo *> > >::operator!=
_TEXT	ENDS
; Function compile flags: /Odtp /RTCsu
;	COMDAT ??8?$_Vector_const_iterator@V?$_Vector_val@U?$_Simple_types@PAVCD3D11EnumAdapterInfo@@@std@@@std@@@std@@QBE_NABV01@@Z
_TEXT	SEGMENT
tv69 = -8						; size = 4
_this$ = -4						; size = 4
__Right$ = 8						; size = 4
??8?$_Vector_const_iterator@V?$_Vector_val@U?$_Simple_types@PAVCD3D11EnumAdapterInfo@@@std@@@std@@@std@@QBE_NABV01@@Z PROC ; std::_Vector_const_iterator<std::_Vector_val<std::_Simple_types<CD3D11EnumAdapterInfo *> > >::operator==, COMDAT
; _this$ = ecx
; File c:\program files (x86)\microsoft visual studio 12.0\vc\include\vector
; Line 203
	push	ebp
	mov	ebp, esp
	sub	esp, 8
	mov	DWORD PTR [ebp-8], -858993460		; ccccccccH
	mov	DWORD PTR [ebp-4], -858993460		; ccccccccH
	mov	DWORD PTR _this$[ebp], ecx
; Line 204
	mov	eax, DWORD PTR __Right$[ebp]
	push	eax
	mov	ecx, DWORD PTR _this$[ebp]
	call	?_Compat@?$_Vector_const_iterator@V?$_Vector_val@U?$_Simple_types@PAVCD3D11EnumAdapterInfo@@@std@@@std@@@std@@QBEXABV12@@Z ; std::_Vector_const_iterator<std::_Vector_val<std::_Simple_types<CD3D11EnumAdapterInfo *> > >::_Compat
; Line 205
	mov	ecx, DWORD PTR _this$[ebp]
	mov	edx, DWORD PTR __Right$[ebp]
	mov	eax, DWORD PTR [ecx+8]
	cmp	eax, DWORD PTR [edx+8]
	jne	SHORT $LN3@operator
	mov	DWORD PTR tv69[ebp], 1
	jmp	SHORT $LN4@operator
$LN3@operator:
	mov	DWORD PTR tv69[ebp], 0
$LN4@operator:
	mov	al, BYTE PTR tv69[ebp]
; Line 206
	add	esp, 8
	cmp	ebp, esp
	call	__RTC_CheckEsp
	mov	esp, ebp
	pop	ebp
	ret	4
??8?$_Vector_const_iterator@V?$_Vector_val@U?$_Simple_types@PAVCD3D11EnumAdapterInfo@@@std@@@std@@@std@@QBE_NABV01@@Z ENDP ; std::_Vector_const_iterator<std::_Vector_val<std::_Simple_types<CD3D11EnumAdapterInfo *> > >::operator==
_TEXT	ENDS
; Function compile flags: /Odtp /RTCsu
;	COMDAT ??E?$_Vector_const_iterator@V?$_Vector_val@U?$_Simple_types@PAVCD3D11EnumAdapterInfo@@@std@@@std@@@std@@QAEAAV01@XZ
_TEXT	SEGMENT
_this$ = -4						; size = 4
??E?$_Vector_const_iterator@V?$_Vector_val@U?$_Simple_types@PAVCD3D11EnumAdapterInfo@@@std@@@std@@@std@@QAEAAV01@XZ PROC ; std::_Vector_const_iterator<std::_Vector_val<std::_Simple_types<CD3D11EnumAdapterInfo *> > >::operator++, COMDAT
; _this$ = ecx
; File c:\program files (x86)\microsoft visual studio 12.0\vc\include\vector
; Line 95
	push	ebp
	mov	ebp, esp
	push	ecx
	push	esi
	mov	DWORD PTR [ebp-4], -858993460		; ccccccccH
	mov	DWORD PTR _this$[ebp], ecx
; Line 99
	mov	ecx, DWORD PTR _this$[ebp]
	call	?_Getcont@_Iterator_base12@std@@QBEPBU_Container_base12@2@XZ ; std::_Iterator_base12::_Getcont
	test	eax, eax
	je	SHORT $LN1@operator
	mov	eax, DWORD PTR _this$[ebp]
	cmp	DWORD PTR [eax+8], 0
	je	SHORT $LN1@operator
	mov	ecx, DWORD PTR _this$[ebp]
	call	?_Getcont@_Iterator_base12@std@@QBEPBU_Container_base12@2@XZ ; std::_Iterator_base12::_Getcont
	mov	ecx, DWORD PTR _this$[ebp]
	mov	edx, DWORD PTR [eax+8]
	cmp	edx, DWORD PTR [ecx+8]
	ja	SHORT $LN2@operator
$LN1@operator:
; Line 101
	mov	esi, esp
	push	101					; 00000065H
	push	OFFSET ??_C@_1IM@EINEHPHE@?$AAC?$AA?3?$AA?2?$AAP?$AAr?$AAo?$AAg?$AAr?$AAa?$AAm?$AA?5?$AAF?$AAi?$AAl?$AAe?$AAs?$AA?5?$AA?$CI?$AAx?$AA8?$AA6?$AA?$CJ?$AA?2?$AAM?$AAi?$AAc?$AAr?$AAo?$AAs?$AAo?$AAf?$AAt@
	push	OFFSET ??_C@_1EE@EJDKCLKB@?$AAv?$AAe?$AAc?$AAt?$AAo?$AAr?$AA?5?$AAi?$AAt?$AAe?$AAr?$AAa?$AAt?$AAo?$AAr?$AA?5?$AAn?$AAo?$AAt?$AA?5?$AAi?$AAn?$AAc?$AAr?$AAe?$AAm?$AAe?$AAn?$AAt?$AAa?$AAb?$AAl@
	call	DWORD PTR __imp_?_Debug_message@std@@YAXPB_W0I@Z
	add	esp, 12					; 0000000cH
	cmp	esi, esp
	call	__RTC_CheckEsp
; Line 102
	mov	eax, OFFSET ??_C@_0CE@OFMIGAMM@Standard?5C?$CL?$CL?5Libraries?5Out?5of?5Ra@
	test	eax, eax
	je	SHORT $LN5@operator
	xor	ecx, ecx
	jne	SHORT $LN6@operator
$LN5@operator:
	mov	esi, esp
	push	OFFSET ??_C@_1FG@IBPIFFN@?$AA?$CC?$AAS?$AAt?$AAa?$AAn?$AAd?$AAa?$AAr?$AAd?$AA?5?$AAC?$AA?$CL?$AA?$CL?$AA?5?$AAL?$AAi?$AAb?$AAr?$AAa?$AAr?$AAi?$AAe?$AAs?$AA?5?$AAO?$AAu?$AAt?$AA?5?$AAo?$AAf?$AA?5?$AAR@
	push	OFFSET ??_C@_15GANGMFKL@?$AA?$CF?$AAs?$AA?$AA@
	push	0
	push	102					; 00000066H
	push	OFFSET ??_C@_1IM@EINEHPHE@?$AAC?$AA?3?$AA?2?$AAP?$AAr?$AAo?$AAg?$AAr?$AAa?$AAm?$AA?5?$AAF?$AAi?$AAl?$AAe?$AAs?$AA?5?$AA?$CI?$AAx?$AA8?$AA6?$AA?$CJ?$AA?2?$AAM?$AAi?$AAc?$AAr?$AAo?$AAs?$AAo?$AAf?$AAt@
	push	2
	call	DWORD PTR __imp___CrtDbgReportW
	add	esp, 24					; 00000018H
	cmp	esi, esp
	call	__RTC_CheckEsp
	cmp	eax, 1
	jne	SHORT $LN6@operator
	int	3
$LN6@operator:
	mov	esi, esp
	push	0
	push	102					; 00000066H
	push	OFFSET ??_C@_1IM@EINEHPHE@?$AAC?$AA?3?$AA?2?$AAP?$AAr?$AAo?$AAg?$AAr?$AAa?$AAm?$AA?5?$AAF?$AAi?$AAl?$AAe?$AAs?$AA?5?$AA?$CI?$AAx?$AA8?$AA6?$AA?$CJ?$AA?2?$AAM?$AAi?$AAc?$AAr?$AAo?$AAs?$AAo?$AAf?$AAt@
	push	OFFSET ??_C@_1PK@HACCEAFD@?$AAs?$AAt?$AAd?$AA?3?$AA?3?$AA_?$AAV?$AAe?$AAc?$AAt?$AAo?$AAr?$AA_?$AAc?$AAo?$AAn?$AAs?$AAt?$AA_?$AAi?$AAt?$AAe?$AAr?$AAa?$AAt?$AAo?$AAr?$AA?$DM?$AAc?$AAl?$AAa?$AAs@
	push	OFFSET ??_C@_1BO@MEPPHOO@?$AA?$CC?$AAo?$AAu?$AAt?$AA?5?$AAo?$AAf?$AA?5?$AAr?$AAa?$AAn?$AAg?$AAe?$AA?$CC?$AA?$AA@
	call	DWORD PTR __imp___invalid_parameter
	add	esp, 20					; 00000014H
	cmp	esi, esp
	call	__RTC_CheckEsp
$LN2@operator:
; Line 112
	mov	eax, DWORD PTR _this$[ebp]
	mov	ecx, DWORD PTR [eax+8]
	add	ecx, 4
	mov	edx, DWORD PTR _this$[ebp]
	mov	DWORD PTR [edx+8], ecx
; Line 113
	mov	eax, DWORD PTR _this$[ebp]
; Line 114
	pop	esi
	add	esp, 4
	cmp	ebp, esp
	call	__RTC_CheckEsp
	mov	esp, ebp
	pop	ebp
	ret	0
??E?$_Vector_const_iterator@V?$_Vector_val@U?$_Simple_types@PAVCD3D11EnumAdapterInfo@@@std@@@std@@@std@@QAEAAV01@XZ ENDP ; std::_Vector_const_iterator<std::_Vector_val<std::_Simple_types<CD3D11EnumAdapterInfo *> > >::operator++
_TEXT	ENDS
; Function compile flags: /Odtp /RTCsu
;	COMDAT ??D?$_Vector_const_iterator@V?$_Vector_val@U?$_Simple_types@PAVCD3D11EnumAdapterInfo@@@std@@@std@@@std@@QBEABQAVCD3D11EnumAdapterInfo@@XZ
_TEXT	SEGMENT
_this$ = -4						; size = 4
??D?$_Vector_const_iterator@V?$_Vector_val@U?$_Simple_types@PAVCD3D11EnumAdapterInfo@@@std@@@std@@@std@@QBEABQAVCD3D11EnumAdapterInfo@@XZ PROC ; std::_Vector_const_iterator<std::_Vector_val<std::_Simple_types<CD3D11EnumAdapterInfo *> > >::operator*, COMDAT
; _this$ = ecx
; File c:\program files (x86)\microsoft visual studio 12.0\vc\include\vector
; Line 65
	push	ebp
	mov	ebp, esp
	push	ecx
	push	esi
	mov	DWORD PTR [ebp-4], -858993460		; ccccccccH
	mov	DWORD PTR _this$[ebp], ecx
; Line 70
	mov	ecx, DWORD PTR _this$[ebp]
	call	?_Getcont@_Iterator_base12@std@@QBEPBU_Container_base12@2@XZ ; std::_Iterator_base12::_Getcont
	test	eax, eax
	je	SHORT $LN1@operator
	mov	eax, DWORD PTR _this$[ebp]
	cmp	DWORD PTR [eax+8], 0
	je	SHORT $LN1@operator
	mov	ecx, DWORD PTR _this$[ebp]
	call	?_Getcont@_Iterator_base12@std@@QBEPBU_Container_base12@2@XZ ; std::_Iterator_base12::_Getcont
	mov	ecx, DWORD PTR _this$[ebp]
	mov	edx, DWORD PTR [ecx+8]
	cmp	edx, DWORD PTR [eax+4]
	jb	SHORT $LN1@operator
	mov	ecx, DWORD PTR _this$[ebp]
	call	?_Getcont@_Iterator_base12@std@@QBEPBU_Container_base12@2@XZ ; std::_Iterator_base12::_Getcont
	mov	ecx, DWORD PTR _this$[ebp]
	mov	edx, DWORD PTR [eax+8]
	cmp	edx, DWORD PTR [ecx+8]
	ja	SHORT $LN2@operator
$LN1@operator:
; Line 72
	mov	esi, esp
	push	72					; 00000048H
	push	OFFSET ??_C@_1IM@EINEHPHE@?$AAC?$AA?3?$AA?2?$AAP?$AAr?$AAo?$AAg?$AAr?$AAa?$AAm?$AA?5?$AAF?$AAi?$AAl?$AAe?$AAs?$AA?5?$AA?$CI?$AAx?$AA8?$AA6?$AA?$CJ?$AA?2?$AAM?$AAi?$AAc?$AAr?$AAo?$AAs?$AAo?$AAf?$AAt@
	push	OFFSET ??_C@_1EG@FOHJJHAC@?$AAv?$AAe?$AAc?$AAt?$AAo?$AAr?$AA?5?$AAi?$AAt?$AAe?$AAr?$AAa?$AAt?$AAo?$AAr?$AA?5?$AAn?$AAo?$AAt?$AA?5?$AAd?$AAe?$AAr?$AAe?$AAf?$AAe?$AAr?$AAe?$AAn?$AAc?$AAa?$AAb@
	call	DWORD PTR __imp_?_Debug_message@std@@YAXPB_W0I@Z
	add	esp, 12					; 0000000cH
	cmp	esi, esp
	call	__RTC_CheckEsp
; Line 73
	mov	eax, OFFSET ??_C@_0CE@OFMIGAMM@Standard?5C?$CL?$CL?5Libraries?5Out?5of?5Ra@
	test	eax, eax
	je	SHORT $LN5@operator
	xor	ecx, ecx
	jne	SHORT $LN6@operator
$LN5@operator:
	mov	esi, esp
	push	OFFSET ??_C@_1FG@IBPIFFN@?$AA?$CC?$AAS?$AAt?$AAa?$AAn?$AAd?$AAa?$AAr?$AAd?$AA?5?$AAC?$AA?$CL?$AA?$CL?$AA?5?$AAL?$AAi?$AAb?$AAr?$AAa?$AAr?$AAi?$AAe?$AAs?$AA?5?$AAO?$AAu?$AAt?$AA?5?$AAo?$AAf?$AA?5?$AAR@
	push	OFFSET ??_C@_15GANGMFKL@?$AA?$CF?$AAs?$AA?$AA@
	push	0
	push	73					; 00000049H
	push	OFFSET ??_C@_1IM@EINEHPHE@?$AAC?$AA?3?$AA?2?$AAP?$AAr?$AAo?$AAg?$AAr?$AAa?$AAm?$AA?5?$AAF?$AAi?$AAl?$AAe?$AAs?$AA?5?$AA?$CI?$AAx?$AA8?$AA6?$AA?$CJ?$AA?2?$AAM?$AAi?$AAc?$AAr?$AAo?$AAs?$AAo?$AAf?$AAt@
	push	2
	call	DWORD PTR __imp___CrtDbgReportW
	add	esp, 24					; 00000018H
	cmp	esi, esp
	call	__RTC_CheckEsp
	cmp	eax, 1
	jne	SHORT $LN6@operator
	int	3
$LN6@operator:
	mov	esi, esp
	push	0
	push	73					; 00000049H
	push	OFFSET ??_C@_1IM@EINEHPHE@?$AAC?$AA?3?$AA?2?$AAP?$AAr?$AAo?$AAg?$AAr?$AAa?$AAm?$AA?5?$AAF?$AAi?$AAl?$AAe?$AAs?$AA?5?$AA?$CI?$AAx?$AA8?$AA6?$AA?$CJ?$AA?2?$AAM?$AAi?$AAc?$AAr?$AAo?$AAs?$AAo?$AAf?$AAt@
	push	OFFSET ??_C@_1PI@MICGNEKL@?$AAs?$AAt?$AAd?$AA?3?$AA?3?$AA_?$AAV?$AAe?$AAc?$AAt?$AAo?$AAr?$AA_?$AAc?$AAo?$AAn?$AAs?$AAt?$AA_?$AAi?$AAt?$AAe?$AAr?$AAa?$AAt?$AAo?$AAr?$AA?$DM?$AAc?$AAl?$AAa?$AAs@
	push	OFFSET ??_C@_1BO@MEPPHOO@?$AA?$CC?$AAo?$AAu?$AAt?$AA?5?$AAo?$AAf?$AA?5?$AAr?$AAa?$AAn?$AAg?$AAe?$AA?$CC?$AA?$AA@
	call	DWORD PTR __imp___invalid_parameter
	add	esp, 20					; 00000014H
	cmp	esi, esp
	call	__RTC_CheckEsp
$LN2@operator:
; Line 86
	mov	eax, DWORD PTR _this$[ebp]
	mov	eax, DWORD PTR [eax+8]
; Line 87
	pop	esi
	add	esp, 4
	cmp	ebp, esp
	call	__RTC_CheckEsp
	mov	esp, ebp
	pop	ebp
	ret	0
??D?$_Vector_const_iterator@V?$_Vector_val@U?$_Simple_types@PAVCD3D11EnumAdapterInfo@@@std@@@std@@@std@@QBEABQAVCD3D11EnumAdapterInfo@@XZ ENDP ; std::_Vector_const_iterator<std::_Vector_val<std::_Simple_types<CD3D11EnumAdapterInfo *> > >::operator*
_TEXT	ENDS
; Function compile flags: /Odtp /RTCsu
;	COMDAT ??0?$_Vector_const_iterator@V?$_Vector_val@U?$_Simple_types@PAVCD3D11EnumAdapterInfo@@@std@@@std@@@std@@QAE@PAPAVCD3D11EnumAdapterInfo@@PBU_Container_base12@1@@Z
_TEXT	SEGMENT
_this$ = -16						; size = 4
__$EHRec$ = -12						; size = 12
__Parg$ = 8						; size = 4
__Pvector$ = 12						; size = 4
??0?$_Vector_const_iterator@V?$_Vector_val@U?$_Simple_types@PAVCD3D11EnumAdapterInfo@@@std@@@std@@@std@@QAE@PAPAVCD3D11EnumAdapterInfo@@PBU_Container_base12@1@@Z PROC ; std::_Vector_const_iterator<std::_Vector_val<std::_Simple_types<CD3D11EnumAdapterInfo *> > >::_Vector_const_iterator<std::_Vector_val<std::_Simple_types<CD3D11EnumAdapterInfo *> > >, COMDAT
; _this$ = ecx
; File c:\program files (x86)\microsoft visual studio 12.0\vc\include\vector
; Line 47
	push	ebp
	mov	ebp, esp
	push	-1
	push	__ehhandler$??0?$_Vector_const_iterator@V?$_Vector_val@U?$_Simple_types@PAVCD3D11EnumAdapterInfo@@@std@@@std@@@std@@QAE@PAPAVCD3D11EnumAdapterInfo@@PBU_Container_base12@1@@Z
	mov	eax, DWORD PTR fs:0
	push	eax
	push	ecx
	mov	DWORD PTR [ebp-16], -858993460		; ccccccccH
	mov	eax, DWORD PTR ___security_cookie
	xor	eax, ebp
	push	eax
	lea	eax, DWORD PTR __$EHRec$[ebp]
	mov	DWORD PTR fs:0, eax
	mov	DWORD PTR _this$[ebp], ecx
	mov	ecx, DWORD PTR _this$[ebp]
	call	??0?$_Iterator012@Urandom_access_iterator_tag@std@@PAVCD3D11EnumAdapterInfo@@HPBQAV3@ABQAV3@U_Iterator_base12@2@@std@@QAE@XZ
	mov	DWORD PTR __$EHRec$[ebp+8], 0
	mov	eax, DWORD PTR _this$[ebp]
	mov	ecx, DWORD PTR __Parg$[ebp]
	mov	DWORD PTR [eax+8], ecx
; Line 48
	mov	edx, DWORD PTR __Pvector$[ebp]
	push	edx
	mov	ecx, DWORD PTR _this$[ebp]
	call	?_Adopt@_Iterator_base12@std@@QAEXPBU_Container_base12@2@@Z ; std::_Iterator_base12::_Adopt
; Line 49
	mov	DWORD PTR __$EHRec$[ebp+8], -1
	mov	eax, DWORD PTR _this$[ebp]
	mov	ecx, DWORD PTR __$EHRec$[ebp]
	mov	DWORD PTR fs:0, ecx
	pop	ecx
	add	esp, 16					; 00000010H
	cmp	ebp, esp
	call	__RTC_CheckEsp
	mov	esp, ebp
	pop	ebp
	ret	8
_TEXT	ENDS
;	COMDAT text$x
text$x	SEGMENT
__unwindfunclet$??0?$_Vector_const_iterator@V?$_Vector_val@U?$_Simple_types@PAVCD3D11EnumAdapterInfo@@@std@@@std@@@std@@QAE@PAPAVCD3D11EnumAdapterInfo@@PBU_Container_base12@1@@Z$0:
	mov	ecx, DWORD PTR _this$[ebp]
	jmp	??1?$_Iterator012@Urandom_access_iterator_tag@std@@PAVCD3D11EnumAdapterInfo@@HPBQAV3@ABQAV3@U_Iterator_base12@2@@std@@QAE@XZ
__ehhandler$??0?$_Vector_const_iterator@V?$_Vector_val@U?$_Simple_types@PAVCD3D11EnumAdapterInfo@@@std@@@std@@@std@@QAE@PAPAVCD3D11EnumAdapterInfo@@PBU_Container_base12@1@@Z:
	mov	edx, DWORD PTR [esp+8]
	lea	eax, DWORD PTR [edx+12]
	mov	ecx, DWORD PTR [edx-8]
	xor	ecx, eax
	call	@__security_check_cookie@4
	mov	eax, OFFSET __ehfuncinfo$??0?$_Vector_const_iterator@V?$_Vector_val@U?$_Simple_types@PAVCD3D11EnumAdapterInfo@@@std@@@std@@@std@@QAE@PAPAVCD3D11EnumAdapterInfo@@PBU_Container_base12@1@@Z
	jmp	___CxxFrameHandler3
text$x	ENDS
??0?$_Vector_const_iterator@V?$_Vector_val@U?$_Simple_types@PAVCD3D11EnumAdapterInfo@@@std@@@std@@@std@@QAE@PAPAVCD3D11EnumAdapterInfo@@PBU_Container_base12@1@@Z ENDP ; std::_Vector_const_iterator<std::_Vector_val<std::_Simple_types<CD3D11EnumAdapterInfo *> > >::_Vector_const_iterator<std::_Vector_val<std::_Simple_types<CD3D11EnumAdapterInfo *> > >
; Function compile flags: /Odtp /RTCsu
;	COMDAT ??1?$_Iterator012@Urandom_access_iterator_tag@std@@PAVCD3D11EnumAdapterInfo@@HPBQAV3@ABQAV3@U_Iterator_base12@2@@std@@QAE@XZ
_TEXT	SEGMENT
_this$ = -4						; size = 4
??1?$_Iterator012@Urandom_access_iterator_tag@std@@PAVCD3D11EnumAdapterInfo@@HPBQAV3@ABQAV3@U_Iterator_base12@2@@std@@QAE@XZ PROC ; std::_Iterator012<std::random_access_iterator_tag,CD3D11EnumAdapterInfo *,int,CD3D11EnumAdapterInfo * const *,CD3D11EnumAdapterInfo * const &,std::_Iterator_base12>::~_Iterator012<std::random_access_iterator_tag,CD3D11EnumAdapterInfo *,int,CD3D11EnumAdapterInfo * const *,CD3D11EnumAdapterInfo * const &,std::_Iterator_base12>, COMDAT
; _this$ = ecx
	push	ebp
	mov	ebp, esp
	push	ecx
	mov	DWORD PTR [ebp-4], -858993460		; ccccccccH
	mov	DWORD PTR _this$[ebp], ecx
	mov	ecx, DWORD PTR _this$[ebp]
	call	??1_Iterator_base12@std@@QAE@XZ		; std::_Iterator_base12::~_Iterator_base12
	add	esp, 4
	cmp	ebp, esp
	call	__RTC_CheckEsp
	mov	esp, ebp
	pop	ebp
	ret	0
??1?$_Iterator012@Urandom_access_iterator_tag@std@@PAVCD3D11EnumAdapterInfo@@HPBQAV3@ABQAV3@U_Iterator_base12@2@@std@@QAE@XZ ENDP ; std::_Iterator012<std::random_access_iterator_tag,CD3D11EnumAdapterInfo *,int,CD3D11EnumAdapterInfo * const *,CD3D11EnumAdapterInfo * const &,std::_Iterator_base12>::~_Iterator012<std::random_access_iterator_tag,CD3D11EnumAdapterInfo *,int,CD3D11EnumAdapterInfo * const *,CD3D11EnumAdapterInfo * const &,std::_Iterator_base12>
_TEXT	ENDS
; Function compile flags: /Odtp /RTCsu
;	COMDAT ??0?$_Iterator012@Urandom_access_iterator_tag@std@@PAVCD3D11EnumAdapterInfo@@HPBQAV3@ABQAV3@U_Iterator_base12@2@@std@@QAE@XZ
_TEXT	SEGMENT
_this$ = -4						; size = 4
??0?$_Iterator012@Urandom_access_iterator_tag@std@@PAVCD3D11EnumAdapterInfo@@HPBQAV3@ABQAV3@U_Iterator_base12@2@@std@@QAE@XZ PROC ; std::_Iterator012<std::random_access_iterator_tag,CD3D11EnumAdapterInfo *,int,CD3D11EnumAdapterInfo * const *,CD3D11EnumAdapterInfo * const &,std::_Iterator_base12>::_Iterator012<std::random_access_iterator_tag,CD3D11EnumAdapterInfo *,int,CD3D11EnumAdapterInfo * const *,CD3D11EnumAdapterInfo * const &,std::_Iterator_base12>, COMDAT
; _this$ = ecx
	push	ebp
	mov	ebp, esp
	push	ecx
	mov	DWORD PTR [ebp-4], -858993460		; ccccccccH
	mov	DWORD PTR _this$[ebp], ecx
	mov	ecx, DWORD PTR _this$[ebp]
	call	??0_Iterator_base12@std@@QAE@XZ		; std::_Iterator_base12::_Iterator_base12
	mov	eax, DWORD PTR _this$[ebp]
	add	esp, 4
	cmp	ebp, esp
	call	__RTC_CheckEsp
	mov	esp, ebp
	pop	ebp
	ret	0
??0?$_Iterator012@Urandom_access_iterator_tag@std@@PAVCD3D11EnumAdapterInfo@@HPBQAV3@ABQAV3@U_Iterator_base12@2@@std@@QAE@XZ ENDP ; std::_Iterator012<std::random_access_iterator_tag,CD3D11EnumAdapterInfo *,int,CD3D11EnumAdapterInfo * const *,CD3D11EnumAdapterInfo * const &,std::_Iterator_base12>::_Iterator012<std::random_access_iterator_tag,CD3D11EnumAdapterInfo *,int,CD3D11EnumAdapterInfo * const *,CD3D11EnumAdapterInfo * const &,std::_Iterator_base12>
_TEXT	ENDS
; Function compile flags: /Odtp /RTCsu
;	COMDAT ??__Fdlg@?1??DXUTGetD3DSettingsDialog@@YGPAVCD3DSettingsDlg@@XZ@YAXXZ
text$yd	SEGMENT
??__Fdlg@?1??DXUTGetD3DSettingsDialog@@YGPAVCD3DSettingsDlg@@XZ@YAXXZ PROC ; `DXUTGetD3DSettingsDialog'::`2'::`dynamic atexit destructor for 'dlg'', COMDAT
	push	ebp
	mov	ebp, esp
	mov	ecx, OFFSET ?dlg@?1??DXUTGetD3DSettingsDialog@@YGPAVCD3DSettingsDlg@@XZ@4V2@A
	call	??1CD3DSettingsDlg@@QAE@XZ		; CD3DSettingsDlg::~CD3DSettingsDlg
	cmp	ebp, esp
	call	__RTC_CheckEsp
	pop	ebp
	ret	0
??__Fdlg@?1??DXUTGetD3DSettingsDialog@@YGPAVCD3DSettingsDlg@@XZ@YAXXZ ENDP ; `DXUTGetD3DSettingsDialog'::`2'::`dynamic atexit destructor for 'dlg''
text$yd	ENDS
; Function compile flags: /Odtp /RTCsu
_TEXT	SEGMENT
tv64 = -4						; size = 4
_devType$ = 8						; size = 4
?DXUTDeviceTypeToString@@YAPB_WW4D3D_DRIVER_TYPE@@@Z PROC ; DXUTDeviceTypeToString
; File d:\engine class\assignment 1\scratch\dxsse\dxut\optional\dxutsettingsdlg.cpp
; Line 1553
	push	ebp
	mov	ebp, esp
	push	ecx
	mov	DWORD PTR [ebp-4], -858993460		; ccccccccH
; Line 1554
	mov	eax, DWORD PTR _devType$[ebp]
	mov	DWORD PTR tv64[ebp], eax
	mov	ecx, DWORD PTR tv64[ebp]
	sub	ecx, 1
	mov	DWORD PTR tv64[ebp], ecx
	cmp	DWORD PTR tv64[ebp], 4
	ja	SHORT $LN1@DXUTDevice
	mov	edx, DWORD PTR tv64[ebp]
	jmp	DWORD PTR $LN10@DXUTDevice[edx*4]
$LN5@DXUTDevice:
; Line 1557
	mov	eax, OFFSET $SG160591
	jmp	SHORT $LN8@DXUTDevice
$LN4@DXUTDevice:
; Line 1559
	mov	eax, OFFSET $SG160593
	jmp	SHORT $LN8@DXUTDevice
$LN3@DXUTDevice:
; Line 1561
	mov	eax, OFFSET $SG160595
	jmp	SHORT $LN8@DXUTDevice
$LN2@DXUTDevice:
; Line 1563
	mov	eax, OFFSET $SG160597
	jmp	SHORT $LN8@DXUTDevice
$LN1@DXUTDevice:
; Line 1565
	mov	eax, OFFSET $SG160599
$LN8@DXUTDevice:
; Line 1567
	mov	esp, ebp
	pop	ebp
	ret	0
	npad	1
$LN10@DXUTDevice:
	DD	$LN5@DXUTDevice
	DD	$LN4@DXUTDevice
	DD	$LN3@DXUTDevice
	DD	$LN1@DXUTDevice
	DD	$LN2@DXUTDevice
?DXUTDeviceTypeToString@@YAPB_WW4D3D_DRIVER_TYPE@@@Z ENDP ; DXUTDeviceTypeToString
_TEXT	ENDS
; Function compile flags: /Odtp /RTCsu
_TEXT	SEGMENT
_pStatic$ = -280					; size = 4
_buf$ = -272						; size = 138
_CchBuf$ = -128						; size = 4
_StrTimeout$ = -120					; size = 106
_this$ = -8						; size = 4
__$ArrayPad$ = -4					; size = 4
_nSecRemaining$ = 8					; size = 4
?UpdateModeChangeTimeoutText@CD3DSettingsDlg@@IAEXH@Z PROC ; CD3DSettingsDlg::UpdateModeChangeTimeoutText
; _this$ = ecx
; File d:\engine class\assignment 1\scratch\dxsse\dxut\optional\dxutsettingsdlg.cpp
; Line 1538
	push	ebp
	mov	ebp, esp
	sub	esp, 280				; 00000118H
	push	esi
	push	edi
	push	ecx
	lea	edi, DWORD PTR [ebp-280]
	mov	ecx, 70					; 00000046H
	mov	eax, -858993460				; ccccccccH
	rep stosd
	pop	ecx
	mov	eax, DWORD PTR ___security_cookie
	xor	eax, ebp
	mov	DWORD PTR __$ArrayPad$[ebp], eax
	mov	DWORD PTR _this$[ebp], ecx
; Line 1539
	mov	ecx, 26					; 0000001aH
	mov	esi, OFFSET $SG160572
	lea	edi, DWORD PTR _StrTimeout$[ebp]
	rep movsd
	movsw
; Line 1540
	mov	DWORD PTR _CchBuf$[ebp], 69		; 00000045H
; Line 1543
	mov	esi, esp
	mov	eax, DWORD PTR _nSecRemaining$[ebp]
	push	eax
	lea	ecx, DWORD PTR _StrTimeout$[ebp]
	push	ecx
	push	69					; 00000045H
	lea	edx, DWORD PTR _buf$[ebp]
	push	edx
	call	DWORD PTR __imp__swprintf_s
	add	esp, 16					; 00000010H
	cmp	esi, esp
	call	__RTC_CheckEsp
; Line 1545
	push	60					; 0000003cH
	mov	ecx, DWORD PTR _this$[ebp]
	add	ecx, 776				; 00000308H
	call	?GetStatic@CDXUTDialog@@QBEPAVCDXUTStatic@@H@Z ; CDXUTDialog::GetStatic
	mov	DWORD PTR _pStatic$[ebp], eax
; Line 1546
	lea	eax, DWORD PTR _buf$[ebp]
	push	eax
	mov	ecx, DWORD PTR _pStatic$[ebp]
	call	?SetText@CDXUTStatic@@QAEJPB_W@Z	; CDXUTStatic::SetText
; Line 1547
	push	edx
	mov	ecx, ebp
	push	eax
	lea	edx, DWORD PTR $LN6@UpdateMode
	call	@_RTC_CheckStackVars@8
	pop	eax
	pop	edx
	pop	edi
	pop	esi
	mov	ecx, DWORD PTR __$ArrayPad$[ebp]
	xor	ecx, ebp
	call	@__security_check_cookie@4
	add	esp, 280				; 00000118H
	cmp	ebp, esp
	call	__RTC_CheckEsp
	mov	esp, ebp
	pop	ebp
	ret	4
	npad	1
$LN6@UpdateMode:
	DD	2
	DD	$LN5@UpdateMode
$LN5@UpdateMode:
	DD	-120					; ffffff88H
	DD	106					; 0000006aH
	DD	$LN3@UpdateMode
	DD	-272					; fffffef0H
	DD	138					; 0000008aH
	DD	$LN4@UpdateMode
$LN4@UpdateMode:
	DB	98					; 00000062H
	DB	117					; 00000075H
	DB	102					; 00000066H
	DB	0
$LN3@UpdateMode:
	DB	83					; 00000053H
	DB	116					; 00000074H
	DB	114					; 00000072H
	DB	84					; 00000054H
	DB	105					; 00000069H
	DB	109					; 0000006dH
	DB	101					; 00000065H
	DB	111					; 0000006fH
	DB	117					; 00000075H
	DB	116					; 00000074H
	DB	0
?UpdateModeChangeTimeoutText@CD3DSettingsDlg@@IAEXH@Z ENDP ; CD3DSettingsDlg::UpdateModeChangeTimeoutText
_TEXT	ENDS
; Function compile flags: /Odtp /RTCsu
_TEXT	SEGMENT
_bDebugDevice$ = -5					; size = 1
_this$ = -4						; size = 4
?OnDebugDeviceChanged@CD3DSettingsDlg@@IAEJXZ PROC	; CD3DSettingsDlg::OnDebugDeviceChanged
; _this$ = ecx
; File d:\engine class\assignment 1\scratch\dxsse\dxut\optional\dxutsettingsdlg.cpp
; Line 1117
	push	ebp
	mov	ebp, esp
	sub	esp, 8
	mov	DWORD PTR [ebp-8], -858993460		; ccccccccH
	mov	DWORD PTR [ebp-4], -858993460		; ccccccccH
	mov	DWORD PTR _this$[ebp], ecx
; Line 1118
	mov	ecx, DWORD PTR _this$[ebp]
	call	?GetSelectedDebugDeviceValue@CD3DSettingsDlg@@IBE_NXZ ; CD3DSettingsDlg::GetSelectedDebugDeviceValue
	mov	BYTE PTR _bDebugDevice$[ebp], al
; Line 1120
	movzx	eax, BYTE PTR _bDebugDevice$[ebp]
	test	eax, eax
	je	SHORT $LN2@OnDebugDev
; Line 1121
	mov	ecx, DWORD PTR ?g_DeviceSettings@@3UDXUTDeviceSettings@@A+76
	or	ecx, 2
	mov	DWORD PTR ?g_DeviceSettings@@3UDXUTDeviceSettings@@A+76, ecx
; Line 1122
	jmp	SHORT $LN1@OnDebugDev
$LN2@OnDebugDev:
; Line 1123
	mov	edx, DWORD PTR ?g_DeviceSettings@@3UDXUTDeviceSettings@@A+76
	and	edx, -3					; fffffffdH
	mov	DWORD PTR ?g_DeviceSettings@@3UDXUTDeviceSettings@@A+76, edx
$LN1@OnDebugDev:
; Line 1125
	xor	eax, eax
; Line 1126
	add	esp, 8
	cmp	ebp, esp
	call	__RTC_CheckEsp
	mov	esp, ebp
	pop	ebp
	ret	0
?OnDebugDeviceChanged@CD3DSettingsDlg@@IAEJXZ ENDP	; CD3DSettingsDlg::OnDebugDeviceChanged
_TEXT	ENDS
; Function compile flags: /Odtp /RTCsu
_TEXT	SEGMENT
_this$ = -4						; size = 4
?OnPresentIntervalChanged@CD3DSettingsDlg@@IAEJXZ PROC	; CD3DSettingsDlg::OnPresentIntervalChanged
; _this$ = ecx
; File d:\engine class\assignment 1\scratch\dxsse\dxut\optional\dxutsettingsdlg.cpp
; Line 1108
	push	ebp
	mov	ebp, esp
	push	ecx
	mov	DWORD PTR [ebp-4], -858993460		; ccccccccH
	mov	DWORD PTR _this$[ebp], ecx
; Line 1109
	mov	ecx, DWORD PTR _this$[ebp]
	call	?GetSelectedD3D11PresentInterval@CD3DSettingsDlg@@IBEKXZ ; CD3DSettingsDlg::GetSelectedD3D11PresentInterval
	mov	DWORD PTR ?g_DeviceSettings@@3UDXUTDeviceSettings@@A+80, eax
; Line 1111
	xor	eax, eax
; Line 1112
	add	esp, 4
	cmp	ebp, esp
	call	__RTC_CheckEsp
	mov	esp, ebp
	pop	ebp
	ret	0
?OnPresentIntervalChanged@CD3DSettingsDlg@@IAEJXZ ENDP	; CD3DSettingsDlg::OnPresentIntervalChanged
_TEXT	ENDS
; Function compile flags: /Odtp /RTCsu
_TEXT	SEGMENT
_this$ = -4						; size = 4
?OnMultisampleQualityChanged@CD3DSettingsDlg@@IAEJXZ PROC ; CD3DSettingsDlg::OnMultisampleQualityChanged
; _this$ = ecx
; File d:\engine class\assignment 1\scratch\dxsse\dxut\optional\dxutsettingsdlg.cpp
; Line 1099
	push	ebp
	mov	ebp, esp
	push	ecx
	mov	DWORD PTR [ebp-4], -858993460		; ccccccccH
	mov	DWORD PTR _this$[ebp], ecx
; Line 1100
	mov	ecx, DWORD PTR _this$[ebp]
	call	?GetSelectedD3D11MultisampleQuality@CD3DSettingsDlg@@IBEIXZ ; CD3DSettingsDlg::GetSelectedD3D11MultisampleQuality
	mov	DWORD PTR ?g_DeviceSettings@@3UDXUTDeviceSettings@@A+48, eax
; Line 1102
	xor	eax, eax
; Line 1103
	add	esp, 4
	cmp	ebp, esp
	call	__RTC_CheckEsp
	mov	esp, ebp
	pop	ebp
	ret	0
?OnMultisampleQualityChanged@CD3DSettingsDlg@@IAEJXZ ENDP ; CD3DSettingsDlg::OnMultisampleQualityChanged
_TEXT	ENDS
; Function compile flags: /Odtp /RTCsu
_TEXT	SEGMENT
_iQuality$1 = -36					; size = 4
_pMultisampleQualityCombo$ = -32			; size = 4
_Count$2 = -28						; size = 4
_iCount$3 = -24						; size = 4
_MaxQuality$ = -20					; size = 4
_pDeviceSettingsCombo$ = -16				; size = 4
_multisampleCount$ = -12				; size = 4
_hr$ = -8						; size = 4
_this$ = -4						; size = 4
?OnMultisampleTypeChanged@CD3DSettingsDlg@@IAEJXZ PROC	; CD3DSettingsDlg::OnMultisampleTypeChanged
; _this$ = ecx
; File d:\engine class\assignment 1\scratch\dxsse\dxut\optional\dxutsettingsdlg.cpp
; Line 1057
	push	ebp
	mov	ebp, esp
	sub	esp, 36					; 00000024H
	mov	eax, -858993460				; ccccccccH
	mov	DWORD PTR [ebp-36], eax
	mov	DWORD PTR [ebp-32], eax
	mov	DWORD PTR [ebp-28], eax
	mov	DWORD PTR [ebp-24], eax
	mov	DWORD PTR [ebp-20], eax
	mov	DWORD PTR [ebp-16], eax
	mov	DWORD PTR [ebp-12], eax
	mov	DWORD PTR [ebp-8], eax
	mov	DWORD PTR [ebp-4], eax
	mov	DWORD PTR _this$[ebp], ecx
; Line 1058
	mov	DWORD PTR _hr$[ebp], 0
; Line 1060
	mov	ecx, DWORD PTR _this$[ebp]
	call	?GetSelectedD3D11MultisampleCount@CD3DSettingsDlg@@IBEIXZ ; CD3DSettingsDlg::GetSelectedD3D11MultisampleCount
	mov	DWORD PTR _multisampleCount$[ebp], eax
; Line 1061
	mov	eax, DWORD PTR _multisampleCount$[ebp]
	mov	DWORD PTR ?g_DeviceSettings@@3UDXUTDeviceSettings@@A+44, eax
; Line 1063
	mov	ecx, DWORD PTR _this$[ebp]
	call	?GetCurrentD3D11DeviceSettingsCombo@CD3DSettingsDlg@@IBEPAUCD3D11EnumDeviceSettingsCombo@@XZ ; CD3DSettingsDlg::GetCurrentD3D11DeviceSettingsCombo
	mov	DWORD PTR _pDeviceSettingsCombo$[ebp], eax
; Line 1064
	cmp	DWORD PTR _pDeviceSettingsCombo$[ebp], 0
	jne	SHORT $LN9@OnMultisam
; Line 1065
	mov	eax, -2147467259			; 80004005H
	jmp	$LN10@OnMultisam
$LN9@OnMultisam:
; Line 1067
	mov	DWORD PTR _MaxQuality$[ebp], 0
; Line 1068
	mov	DWORD PTR _iCount$3[ebp], 0
	jmp	SHORT $LN8@OnMultisam
$LN7@OnMultisam:
	mov	ecx, DWORD PTR _iCount$3[ebp]
	add	ecx, 1
	mov	DWORD PTR _iCount$3[ebp], ecx
$LN8@OnMultisam:
	mov	ecx, DWORD PTR _pDeviceSettingsCombo$[ebp]
	add	ecx, 20					; 00000014H
	call	?size@?$vector@IV?$allocator@I@std@@@std@@QBEIXZ ; std::vector<unsigned int,std::allocator<unsigned int> >::size
	cmp	DWORD PTR _iCount$3[ebp], eax
	jae	SHORT $LN6@OnMultisam
; Line 1070
	mov	edx, DWORD PTR _iCount$3[ebp]
	push	edx
	mov	ecx, DWORD PTR _pDeviceSettingsCombo$[ebp]
	add	ecx, 20					; 00000014H
	call	??A?$vector@IV?$allocator@I@std@@@std@@QAEAAII@Z ; std::vector<unsigned int,std::allocator<unsigned int> >::operator[]
	mov	eax, DWORD PTR [eax]
	mov	DWORD PTR _Count$2[ebp], eax
; Line 1071
	mov	ecx, DWORD PTR _Count$2[ebp]
	cmp	ecx, DWORD PTR _multisampleCount$[ebp]
	jne	SHORT $LN5@OnMultisam
; Line 1073
	mov	edx, DWORD PTR _iCount$3[ebp]
	push	edx
	mov	ecx, DWORD PTR _pDeviceSettingsCombo$[ebp]
	add	ecx, 36					; 00000024H
	call	??A?$vector@IV?$allocator@I@std@@@std@@QAEAAII@Z ; std::vector<unsigned int,std::allocator<unsigned int> >::operator[]
	mov	eax, DWORD PTR [eax]
	mov	DWORD PTR _MaxQuality$[ebp], eax
; Line 1074
	jmp	SHORT $LN6@OnMultisam
$LN5@OnMultisam:
; Line 1076
	jmp	SHORT $LN7@OnMultisam
$LN6@OnMultisam:
; Line 1079
	push	38					; 00000026H
	mov	ecx, DWORD PTR _this$[ebp]
	add	ecx, 8
	call	?GetComboBox@CDXUTDialog@@QBEPAVCDXUTComboBox@@H@Z ; CDXUTDialog::GetComboBox
	mov	DWORD PTR _pMultisampleQualityCombo$[ebp], eax
; Line 1080
	mov	ecx, DWORD PTR _pMultisampleQualityCombo$[ebp]
	call	?RemoveAllItems@CDXUTComboBox@@QAEXXZ	; CDXUTComboBox::RemoveAllItems
; Line 1082
	mov	DWORD PTR _iQuality$1[ebp], 0
	jmp	SHORT $LN4@OnMultisam
$LN3@OnMultisam:
	mov	ecx, DWORD PTR _iQuality$1[ebp]
	add	ecx, 1
	mov	DWORD PTR _iQuality$1[ebp], ecx
$LN4@OnMultisam:
	mov	edx, DWORD PTR _iQuality$1[ebp]
	cmp	edx, DWORD PTR _MaxQuality$[ebp]
	jae	SHORT $LN2@OnMultisam
; Line 1084
	mov	eax, DWORD PTR _iQuality$1[ebp]
	push	eax
	mov	ecx, DWORD PTR _this$[ebp]
	call	?AddD3D11MultisampleQuality@CD3DSettingsDlg@@IAEXI@Z ; CD3DSettingsDlg::AddD3D11MultisampleQuality
; Line 1085
	jmp	SHORT $LN3@OnMultisam
$LN2@OnMultisam:
; Line 1087
	mov	ecx, DWORD PTR ?g_DeviceSettings@@3UDXUTDeviceSettings@@A+48
	push	ecx
	mov	ecx, DWORD PTR _pMultisampleQualityCombo$[ebp]
	call	?SetSelectedByData@CDXUTComboBox@@QAEJPAX@Z ; CDXUTComboBox::SetSelectedByData
; Line 1089
	mov	ecx, DWORD PTR _this$[ebp]
	call	?OnMultisampleQualityChanged@CD3DSettingsDlg@@IAEJXZ ; CD3DSettingsDlg::OnMultisampleQualityChanged
	mov	DWORD PTR _hr$[ebp], eax
; Line 1090
	cmp	DWORD PTR _hr$[ebp], 0
	jge	SHORT $LN1@OnMultisam
; Line 1091
	mov	eax, DWORD PTR _hr$[ebp]
	jmp	SHORT $LN10@OnMultisam
$LN1@OnMultisam:
; Line 1093
	xor	eax, eax
$LN10@OnMultisam:
; Line 1094
	add	esp, 36					; 00000024H
	cmp	ebp, esp
	call	__RTC_CheckEsp
	mov	esp, ebp
	pop	ebp
	ret	0
?OnMultisampleTypeChanged@CD3DSettingsDlg@@IAEJXZ ENDP	; CD3DSettingsDlg::OnMultisampleTypeChanged
_TEXT	ENDS
; Function compile flags: /Odtp /RTCsu
_TEXT	SEGMENT
tv166 = -92						; size = 4
tv93 = -88						; size = 4
tv80 = -84						; size = 4
$T2 = -80						; size = 12
$T3 = -65						; size = 1
_pPresentIntervalComboBox$4 = -64			; size = 4
_it$5 = -56						; size = 12
_pMultisampleCountCombo$6 = -40				; size = 4
_pDeviceCombo$7 = -36					; size = 4
_idc$8 = -32						; size = 4
_pAdapterInfo$ = -28					; size = 4
_backBufferFormat$ = -24				; size = 4
_hr$ = -20						; size = 4
_this$ = -16						; size = 4
__$EHRec$ = -12						; size = 12
?OnBackBufferFormatChanged@CD3DSettingsDlg@@IAEJXZ PROC	; CD3DSettingsDlg::OnBackBufferFormatChanged
; _this$ = ecx
; File d:\engine class\assignment 1\scratch\dxsse\dxut\optional\dxutsettingsdlg.cpp
; Line 1002
	push	ebp
	mov	ebp, esp
	push	-1
	push	__ehhandler$?OnBackBufferFormatChanged@CD3DSettingsDlg@@IAEJXZ
	mov	eax, DWORD PTR fs:0
	push	eax
	sub	esp, 80					; 00000050H
	push	edi
	push	ecx
	lea	edi, DWORD PTR [ebp-92]
	mov	ecx, 20					; 00000014H
	mov	eax, -858993460				; ccccccccH
	rep stosd
	pop	ecx
	mov	eax, DWORD PTR ___security_cookie
	xor	eax, ebp
	push	eax
	lea	eax, DWORD PTR __$EHRec$[ebp]
	mov	DWORD PTR fs:0, eax
	mov	DWORD PTR _this$[ebp], ecx
; Line 1003
	mov	DWORD PTR _hr$[ebp], 0
; Line 1005
	mov	ecx, DWORD PTR _this$[ebp]
	call	?GetSelectedD3D11BackBufferFormat@CD3DSettingsDlg@@IBE?AW4DXGI_FORMAT@@XZ ; CD3DSettingsDlg::GetSelectedD3D11BackBufferFormat
	mov	DWORD PTR ?g_DeviceSettings@@3UDXUTDeviceSettings@@A+32, eax
; Line 1007
	mov	eax, DWORD PTR ?g_DeviceSettings@@3UDXUTDeviceSettings@@A+32
	mov	DWORD PTR _backBufferFormat$[ebp], eax
; Line 1009
	mov	ecx, DWORD PTR _this$[ebp]
	call	?GetCurrentD3D11AdapterInfo@CD3DSettingsDlg@@IBEPAVCD3D11EnumAdapterInfo@@XZ ; CD3DSettingsDlg::GetCurrentD3D11AdapterInfo
	mov	DWORD PTR _pAdapterInfo$[ebp], eax
; Line 1010
	cmp	DWORD PTR _pAdapterInfo$[ebp], 0
	jne	SHORT $LN12@OnBackBuff
; Line 1011
	mov	eax, -2147467259			; 80004005H
	jmp	$LN13@OnBackBuff
$LN12@OnBackBuff:
; Line 1013
	mov	DWORD PTR _idc$8[ebp], 0
	jmp	SHORT $LN11@OnBackBuff
$LN10@OnBackBuff:
	mov	ecx, DWORD PTR _idc$8[ebp]
	add	ecx, 1
	mov	DWORD PTR _idc$8[ebp], ecx
$LN11@OnBackBuff:
	mov	ecx, DWORD PTR _pAdapterInfo$[ebp]
	add	ecx, 592				; 00000250H
	call	?size@?$vector@PAUCD3D11EnumDeviceSettingsCombo@@V?$allocator@PAUCD3D11EnumDeviceSettingsCombo@@@std@@@std@@QBEIXZ ; std::vector<CD3D11EnumDeviceSettingsCombo *,std::allocator<CD3D11EnumDeviceSettingsCombo *> >::size
	cmp	DWORD PTR _idc$8[ebp], eax
	jae	$LN9@OnBackBuff
; Line 1015
	mov	edx, DWORD PTR _idc$8[ebp]
	push	edx
	mov	ecx, DWORD PTR _pAdapterInfo$[ebp]
	add	ecx, 592				; 00000250H
	call	??A?$vector@PAUCD3D11EnumDeviceSettingsCombo@@V?$allocator@PAUCD3D11EnumDeviceSettingsCombo@@@std@@@std@@QAEAAPAUCD3D11EnumDeviceSettingsCombo@@I@Z ; std::vector<CD3D11EnumDeviceSettingsCombo *,std::allocator<CD3D11EnumDeviceSettingsCombo *> >::operator[]
	mov	eax, DWORD PTR [eax]
	mov	DWORD PTR _pDeviceCombo$7[ebp], eax
; Line 1019
	cmp	DWORD PTR ?g_DeviceSettings@@3UDXUTDeviceSettings@@A+64, 1
	jne	SHORT $LN15@OnBackBuff
	mov	DWORD PTR tv80[ebp], 1
	jmp	SHORT $LN16@OnBackBuff
$LN15@OnBackBuff:
	mov	DWORD PTR tv80[ebp], 0
$LN16@OnBackBuff:
	mov	ecx, DWORD PTR _pDeviceCombo$7[ebp]
	mov	edx, DWORD PTR [ecx+12]
	cmp	edx, DWORD PTR tv80[ebp]
	jne	$LN8@OnBackBuff
	mov	eax, DWORD PTR _pDeviceCombo$7[ebp]
	mov	ecx, DWORD PTR [eax+8]
	cmp	ecx, DWORD PTR _backBufferFormat$[ebp]
	jne	$LN8@OnBackBuff
	mov	edx, DWORD PTR _pDeviceCombo$7[ebp]
	mov	eax, DWORD PTR [edx+4]
	cmp	eax, DWORD PTR ?g_DeviceSettings@@3UDXUTDeviceSettings@@A+8
	jne	$LN8@OnBackBuff
; Line 1021
	push	36					; 00000024H
	mov	ecx, DWORD PTR _this$[ebp]
	add	ecx, 8
	call	?GetComboBox@CDXUTDialog@@QBEPAVCDXUTComboBox@@H@Z ; CDXUTDialog::GetComboBox
	mov	DWORD PTR _pMultisampleCountCombo$6[ebp], eax
; Line 1022
	mov	ecx, DWORD PTR _pMultisampleCountCombo$6[ebp]
	call	?RemoveAllItems@CDXUTComboBox@@QAEXXZ	; CDXUTComboBox::RemoveAllItems
; Line 1024
	lea	ecx, DWORD PTR _it$5[ebp]
	push	ecx
	mov	ecx, DWORD PTR _pDeviceCombo$7[ebp]
	add	ecx, 20					; 00000014H
	call	?cbegin@?$vector@IV?$allocator@I@std@@@std@@QBE?AV?$_Vector_const_iterator@V?$_Vector_val@U?$_Simple_types@I@std@@@std@@@2@XZ ; std::vector<unsigned int,std::allocator<unsigned int> >::cbegin
	mov	DWORD PTR __$EHRec$[ebp+8], 0
	jmp	SHORT $LN7@OnBackBuff
$LN6@OnBackBuff:
	lea	ecx, DWORD PTR _it$5[ebp]
	call	??E?$_Vector_const_iterator@V?$_Vector_val@U?$_Simple_types@I@std@@@std@@@std@@QAEAAV01@XZ ; std::_Vector_const_iterator<std::_Vector_val<std::_Simple_types<unsigned int> > >::operator++
$LN7@OnBackBuff:
	lea	edx, DWORD PTR $T2[ebp]
	push	edx
	mov	ecx, DWORD PTR _pDeviceCombo$7[ebp]
	add	ecx, 20					; 00000014H
	call	?cend@?$vector@IV?$allocator@I@std@@@std@@QBE?AV?$_Vector_const_iterator@V?$_Vector_val@U?$_Simple_types@I@std@@@std@@@2@XZ ; std::vector<unsigned int,std::allocator<unsigned int> >::cend
	mov	DWORD PTR tv93[ebp], eax
	mov	eax, DWORD PTR tv93[ebp]
	mov	DWORD PTR tv166[ebp], eax
	mov	BYTE PTR __$EHRec$[ebp+8], 1
	mov	ecx, DWORD PTR tv166[ebp]
	push	ecx
	lea	ecx, DWORD PTR _it$5[ebp]
	call	??9?$_Vector_const_iterator@V?$_Vector_val@U?$_Simple_types@I@std@@@std@@@std@@QBE_NABV01@@Z ; std::_Vector_const_iterator<std::_Vector_val<std::_Simple_types<unsigned int> > >::operator!=
	mov	BYTE PTR $T3[ebp], al
	mov	BYTE PTR __$EHRec$[ebp+8], 0
	lea	ecx, DWORD PTR $T2[ebp]
	call	??1?$_Vector_const_iterator@V?$_Vector_val@U?$_Simple_types@I@std@@@std@@@std@@QAE@XZ
	movzx	edx, BYTE PTR $T3[ebp]
	test	edx, edx
	je	SHORT $LN5@OnBackBuff
; Line 1025
	lea	ecx, DWORD PTR _it$5[ebp]
	call	??D?$_Vector_const_iterator@V?$_Vector_val@U?$_Simple_types@I@std@@@std@@@std@@QBEABIXZ ; std::_Vector_const_iterator<std::_Vector_val<std::_Simple_types<unsigned int> > >::operator*
	mov	eax, DWORD PTR [eax]
	push	eax
	mov	ecx, DWORD PTR _this$[ebp]
	call	?AddD3D11MultisampleCount@CD3DSettingsDlg@@IAEXI@Z ; CD3DSettingsDlg::AddD3D11MultisampleCount
	jmp	SHORT $LN6@OnBackBuff
$LN5@OnBackBuff:
	mov	DWORD PTR __$EHRec$[ebp+8], -1
	lea	ecx, DWORD PTR _it$5[ebp]
	call	??1?$_Vector_const_iterator@V?$_Vector_val@U?$_Simple_types@I@std@@@std@@@std@@QAE@XZ
; Line 1026
	mov	ecx, DWORD PTR ?g_DeviceSettings@@3UDXUTDeviceSettings@@A+44
	push	ecx
	mov	ecx, DWORD PTR _pMultisampleCountCombo$6[ebp]
	call	?SetSelectedByData@CDXUTComboBox@@QAEJPAX@Z ; CDXUTComboBox::SetSelectedByData
; Line 1028
	mov	ecx, DWORD PTR _this$[ebp]
	call	?OnMultisampleTypeChanged@CD3DSettingsDlg@@IAEJXZ ; CD3DSettingsDlg::OnMultisampleTypeChanged
	mov	DWORD PTR _hr$[ebp], eax
; Line 1029
	cmp	DWORD PTR _hr$[ebp], 0
	jge	SHORT $LN4@OnBackBuff
; Line 1030
	mov	eax, DWORD PTR _hr$[ebp]
	jmp	SHORT $LN13@OnBackBuff
$LN4@OnBackBuff:
; Line 1032
	push	40					; 00000028H
	mov	ecx, DWORD PTR _this$[ebp]
	add	ecx, 8
	call	?GetComboBox@CDXUTDialog@@QBEPAVCDXUTComboBox@@H@Z ; CDXUTDialog::GetComboBox
	mov	DWORD PTR _pPresentIntervalComboBox$4[ebp], eax
; Line 1033
	mov	edx, DWORD PTR ?g_DeviceSettings@@3UDXUTDeviceSettings@@A+80
	push	edx
	mov	ecx, DWORD PTR _pPresentIntervalComboBox$4[ebp]
	call	?SetSelectedByData@CDXUTComboBox@@QAEJPAX@Z ; CDXUTComboBox::SetSelectedByData
; Line 1035
	mov	ecx, DWORD PTR _this$[ebp]
	call	?OnPresentIntervalChanged@CD3DSettingsDlg@@IAEJXZ ; CD3DSettingsDlg::OnPresentIntervalChanged
	mov	DWORD PTR _hr$[ebp], eax
; Line 1036
	cmp	DWORD PTR _hr$[ebp], 0
	jge	SHORT $LN3@OnBackBuff
; Line 1037
	mov	eax, DWORD PTR _hr$[ebp]
	jmp	SHORT $LN13@OnBackBuff
$LN3@OnBackBuff:
; Line 1039
	mov	ecx, DWORD PTR _this$[ebp]
	call	?UpdateD3D11Resolutions@CD3DSettingsDlg@@IAEJXZ ; CD3DSettingsDlg::UpdateD3D11Resolutions
	mov	DWORD PTR _hr$[ebp], eax
; Line 1040
	cmp	DWORD PTR _hr$[ebp], 0
	jge	SHORT $LN2@OnBackBuff
; Line 1041
	mov	eax, DWORD PTR _hr$[ebp]
	jmp	SHORT $LN13@OnBackBuff
$LN2@OnBackBuff:
; Line 1043
	mov	ecx, DWORD PTR _this$[ebp]
	call	?UpdateD3D11RefreshRates@CD3DSettingsDlg@@IAEJXZ ; CD3DSettingsDlg::UpdateD3D11RefreshRates
	mov	DWORD PTR _hr$[ebp], eax
; Line 1044
	cmp	DWORD PTR _hr$[ebp], 0
	jge	SHORT $LN1@OnBackBuff
; Line 1045
	mov	eax, DWORD PTR _hr$[ebp]
	jmp	SHORT $LN13@OnBackBuff
$LN1@OnBackBuff:
; Line 1047
	jmp	SHORT $LN9@OnBackBuff
$LN8@OnBackBuff:
; Line 1049
	jmp	$LN10@OnBackBuff
$LN9@OnBackBuff:
; Line 1051
	xor	eax, eax
$LN13@OnBackBuff:
; Line 1052
	push	edx
	mov	ecx, ebp
	push	eax
	lea	edx, DWORD PTR $LN22@OnBackBuff
	call	@_RTC_CheckStackVars@8
	pop	eax
	pop	edx
	mov	ecx, DWORD PTR __$EHRec$[ebp]
	mov	DWORD PTR fs:0, ecx
	pop	ecx
	pop	edi
	add	esp, 92					; 0000005cH
	cmp	ebp, esp
	call	__RTC_CheckEsp
	mov	esp, ebp
	pop	ebp
	ret	0
	npad	1
$LN22@OnBackBuff:
	DD	1
	DD	$LN21@OnBackBuff
$LN21@OnBackBuff:
	DD	-56					; ffffffc8H
	DD	12					; 0000000cH
	DD	$LN19@OnBackBuff
$LN19@OnBackBuff:
	DB	105					; 00000069H
	DB	116					; 00000074H
	DB	0
_TEXT	ENDS
text$x	SEGMENT
__unwindfunclet$?OnBackBufferFormatChanged@CD3DSettingsDlg@@IAEJXZ$0:
	lea	ecx, DWORD PTR _it$5[ebp]
	jmp	??1?$_Vector_const_iterator@V?$_Vector_val@U?$_Simple_types@I@std@@@std@@@std@@QAE@XZ
__unwindfunclet$?OnBackBufferFormatChanged@CD3DSettingsDlg@@IAEJXZ$1:
	lea	ecx, DWORD PTR $T2[ebp]
	jmp	??1?$_Vector_const_iterator@V?$_Vector_val@U?$_Simple_types@I@std@@@std@@@std@@QAE@XZ
__ehhandler$?OnBackBufferFormatChanged@CD3DSettingsDlg@@IAEJXZ:
	mov	edx, DWORD PTR [esp+8]
	lea	eax, DWORD PTR [edx+12]
	mov	ecx, DWORD PTR [edx-88]
	xor	ecx, eax
	call	@__security_check_cookie@4
	mov	eax, OFFSET __ehfuncinfo$?OnBackBufferFormatChanged@CD3DSettingsDlg@@IAEJXZ
	jmp	___CxxFrameHandler3
text$x	ENDS
?OnBackBufferFormatChanged@CD3DSettingsDlg@@IAEJXZ ENDP	; CD3DSettingsDlg::OnBackBufferFormatChanged
; Function compile flags: /Odtp /RTCsu
_TEXT	SEGMENT
$T1 = -12						; size = 8
_this$ = -4						; size = 4
?OnRefreshRateChanged@CD3DSettingsDlg@@IAEJXZ PROC	; CD3DSettingsDlg::OnRefreshRateChanged
; _this$ = ecx
; File d:\engine class\assignment 1\scratch\dxsse\dxut\optional\dxutsettingsdlg.cpp
; Line 992
	push	ebp
	mov	ebp, esp
	sub	esp, 12					; 0000000cH
	mov	DWORD PTR [ebp-12], -858993460		; ccccccccH
	mov	DWORD PTR [ebp-8], -858993460		; ccccccccH
	mov	DWORD PTR [ebp-4], -858993460		; ccccccccH
	mov	DWORD PTR _this$[ebp], ecx
; Line 994
	lea	eax, DWORD PTR $T1[ebp]
	push	eax
	mov	ecx, DWORD PTR _this$[ebp]
	call	?GetSelectedD3D11RefreshRate@CD3DSettingsDlg@@IBE?AUDXGI_RATIONAL@@XZ ; CD3DSettingsDlg::GetSelectedD3D11RefreshRate
	mov	ecx, DWORD PTR [eax]
	mov	edx, DWORD PTR [eax+4]
	mov	DWORD PTR ?g_DeviceSettings@@3UDXUTDeviceSettings@@A+24, ecx
	mov	DWORD PTR ?g_DeviceSettings@@3UDXUTDeviceSettings@@A+28, edx
; Line 996
	xor	eax, eax
; Line 997
	add	esp, 12					; 0000000cH
	cmp	ebp, esp
	call	__RTC_CheckEsp
	mov	esp, ebp
	pop	ebp
	ret	0
?OnRefreshRateChanged@CD3DSettingsDlg@@IAEJXZ ENDP	; CD3DSettingsDlg::OnRefreshRateChanged
_TEXT	ENDS
; Function compile flags: /Odtp /RTCsu
_TEXT	SEGMENT
tv141 = -128						; size = 4
$T1 = -124						; size = 16
_pDeviceCombo$2 = -108					; size = 4
_idc$3 = -104						; size = 4
_pBackBufferFormatComboBox$ = -100			; size = 4
_pAdapterInfo$ = -96					; size = 4
$T4 = -92						; size = 16
_rc$5 = -72						; size = 16
_mode$6 = -48						; size = 28
_bWindowed$ = -13					; size = 1
_hr$ = -12						; size = 4
_this$ = -8						; size = 4
__$ArrayPad$ = -4					; size = 4
?OnAdapterOutputChanged@CD3DSettingsDlg@@IAEJXZ PROC	; CD3DSettingsDlg::OnAdapterOutputChanged
; _this$ = ecx
; File d:\engine class\assignment 1\scratch\dxsse\dxut\optional\dxutsettingsdlg.cpp
; Line 916
	push	ebp
	mov	ebp, esp
	sub	esp, 128				; 00000080H
	push	edi
	push	ecx
	lea	edi, DWORD PTR [ebp-128]
	mov	ecx, 32					; 00000020H
	mov	eax, -858993460				; ccccccccH
	rep stosd
	pop	ecx
	mov	eax, DWORD PTR ___security_cookie
	xor	eax, ebp
	mov	DWORD PTR __$ArrayPad$[ebp], eax
	mov	DWORD PTR _this$[ebp], ecx
; Line 919
	mov	ecx, DWORD PTR _this$[ebp]
	call	?IsWindowed@CD3DSettingsDlg@@IBE_NXZ	; CD3DSettingsDlg::IsWindowed
	mov	BYTE PTR _bWindowed$[ebp], al
; Line 920
	movzx	eax, BYTE PTR _bWindowed$[ebp]
	mov	DWORD PTR ?g_DeviceSettings@@3UDXUTDeviceSettings@@A+64, eax
; Line 923
	cmp	DWORD PTR ?g_DeviceSettings@@3UDXUTDeviceSettings@@A+64, 0
	je	$LN14@OnAdapterO
; Line 927
	lea	ecx, DWORD PTR _mode$6[ebp]
	push	ecx
	mov	edx, DWORD PTR ?g_DeviceSettings@@3UDXUTDeviceSettings@@A+12
	push	edx
	mov	eax, DWORD PTR ?g_DeviceSettings@@3UDXUTDeviceSettings@@A+4
	push	eax
	call	?DXUTGetD3D11AdapterDisplayMode@@YGJIIPAUDXGI_MODE_DESC@@@Z ; DXUTGetD3D11AdapterDisplayMode
	mov	DWORD PTR _hr$[ebp], eax
; Line 928
	cmp	DWORD PTR _hr$[ebp], 0
	jge	SHORT $LN13@OnAdapterO
; Line 929
	push	0
	push	OFFSET $SG159994
	mov	ecx, DWORD PTR _hr$[ebp]
	push	ecx
	push	929					; 000003a1H
	push	OFFSET $SG159995
	call	_DXTraceW@20
	jmp	$LN15@OnAdapterO
$LN13@OnAdapterO:
; Line 932
	lea	edx, DWORD PTR $T1[ebp]
	push	edx
	call	?DXUTGetFullsceenClientRectAtModeChange@@YG?AUtagRECT@@XZ ; DXUTGetFullsceenClientRectAtModeChange
	mov	ecx, DWORD PTR [eax]
	mov	DWORD PTR $T4[ebp], ecx
	mov	edx, DWORD PTR [eax+4]
	mov	DWORD PTR $T4[ebp+4], edx
	mov	ecx, DWORD PTR [eax+8]
	mov	DWORD PTR $T4[ebp+8], ecx
	mov	edx, DWORD PTR [eax+12]
	mov	DWORD PTR $T4[ebp+12], edx
	mov	eax, DWORD PTR $T4[ebp]
	mov	DWORD PTR _rc$5[ebp], eax
	mov	ecx, DWORD PTR $T4[ebp+4]
	mov	DWORD PTR _rc$5[ebp+4], ecx
	mov	edx, DWORD PTR $T4[ebp+8]
	mov	DWORD PTR _rc$5[ebp+8], edx
	mov	eax, DWORD PTR $T4[ebp+12]
	mov	DWORD PTR _rc$5[ebp+12], eax
; Line 933
	cmp	DWORD PTR _rc$5[ebp+8], 0
	je	SHORT $LN11@OnAdapterO
	cmp	DWORD PTR _rc$5[ebp+12], 0
	jne	SHORT $LN12@OnAdapterO
$LN11@OnAdapterO:
; Line 936
	mov	ecx, DWORD PTR _mode$6[ebp]
	mov	DWORD PTR ?g_DeviceSettings@@3UDXUTDeviceSettings@@A+16, ecx
; Line 937
	mov	edx, DWORD PTR _mode$6[ebp+4]
	mov	DWORD PTR ?g_DeviceSettings@@3UDXUTDeviceSettings@@A+20, edx
; Line 939
	jmp	SHORT $LN10@OnAdapterO
$LN12@OnAdapterO:
; Line 941
	mov	eax, DWORD PTR _rc$5[ebp+8]
	mov	DWORD PTR ?g_DeviceSettings@@3UDXUTDeviceSettings@@A+16, eax
; Line 942
	mov	ecx, DWORD PTR _rc$5[ebp+12]
	mov	DWORD PTR ?g_DeviceSettings@@3UDXUTDeviceSettings@@A+20, ecx
$LN10@OnAdapterO:
; Line 946
	mov	DWORD PTR ?g_DeviceSettings@@3UDXUTDeviceSettings@@A+28, 0
	mov	edx, DWORD PTR ?g_DeviceSettings@@3UDXUTDeviceSettings@@A+28
	mov	DWORD PTR ?g_DeviceSettings@@3UDXUTDeviceSettings@@A+24, edx
$LN14@OnAdapterO:
; Line 949
	mov	ecx, DWORD PTR _this$[ebp]
	call	?GetCurrentD3D11AdapterInfo@CD3DSettingsDlg@@IBEPAVCD3D11EnumAdapterInfo@@XZ ; CD3DSettingsDlg::GetCurrentD3D11AdapterInfo
	mov	DWORD PTR _pAdapterInfo$[ebp], eax
; Line 950
	cmp	DWORD PTR _pAdapterInfo$[ebp], 0
	jne	SHORT $LN9@OnAdapterO
; Line 951
	mov	eax, -2147467259			; 80004005H
	jmp	$LN15@OnAdapterO
$LN9@OnAdapterO:
; Line 954
	mov	ecx, DWORD PTR _this$[ebp]
	call	?UpdateD3D11Resolutions@CD3DSettingsDlg@@IAEJXZ ; CD3DSettingsDlg::UpdateD3D11Resolutions
	mov	DWORD PTR _hr$[ebp], eax
; Line 955
	cmp	DWORD PTR _hr$[ebp], 0
	jge	SHORT $LN8@OnAdapterO
; Line 956
	mov	eax, DWORD PTR _hr$[ebp]
	jmp	$LN15@OnAdapterO
$LN8@OnAdapterO:
; Line 959
	mov	ecx, DWORD PTR _this$[ebp]
	call	?UpdateD3D11RefreshRates@CD3DSettingsDlg@@IAEJXZ ; CD3DSettingsDlg::UpdateD3D11RefreshRates
	mov	DWORD PTR _hr$[ebp], eax
; Line 960
	cmp	DWORD PTR _hr$[ebp], 0
	jge	SHORT $LN7@OnAdapterO
; Line 961
	mov	eax, DWORD PTR _hr$[ebp]
	jmp	$LN15@OnAdapterO
$LN7@OnAdapterO:
; Line 964
	push	34					; 00000022H
	mov	ecx, DWORD PTR _this$[ebp]
	add	ecx, 8
	call	?GetComboBox@CDXUTDialog@@QBEPAVCDXUTComboBox@@H@Z ; CDXUTDialog::GetComboBox
	mov	DWORD PTR _pBackBufferFormatComboBox$[ebp], eax
; Line 965
	mov	ecx, DWORD PTR _pBackBufferFormatComboBox$[ebp]
	call	?RemoveAllItems@CDXUTComboBox@@QAEXXZ	; CDXUTComboBox::RemoveAllItems
; Line 967
	mov	DWORD PTR _idc$3[ebp], 0
	jmp	SHORT $LN6@OnAdapterO
$LN5@OnAdapterO:
	mov	eax, DWORD PTR _idc$3[ebp]
	add	eax, 1
	mov	DWORD PTR _idc$3[ebp], eax
$LN6@OnAdapterO:
	mov	ecx, DWORD PTR _pAdapterInfo$[ebp]
	add	ecx, 592				; 00000250H
	call	?size@?$vector@PAUCD3D11EnumDeviceSettingsCombo@@V?$allocator@PAUCD3D11EnumDeviceSettingsCombo@@@std@@@std@@QBEIXZ ; std::vector<CD3D11EnumDeviceSettingsCombo *,std::allocator<CD3D11EnumDeviceSettingsCombo *> >::size
	cmp	DWORD PTR _idc$3[ebp], eax
	jae	SHORT $LN4@OnAdapterO
; Line 969
	mov	ecx, DWORD PTR _idc$3[ebp]
	push	ecx
	mov	ecx, DWORD PTR _pAdapterInfo$[ebp]
	add	ecx, 592				; 00000250H
	call	??A?$vector@PAUCD3D11EnumDeviceSettingsCombo@@V?$allocator@PAUCD3D11EnumDeviceSettingsCombo@@@std@@@std@@QAEAAPAUCD3D11EnumDeviceSettingsCombo@@I@Z ; std::vector<CD3D11EnumDeviceSettingsCombo *,std::allocator<CD3D11EnumDeviceSettingsCombo *> >::operator[]
	mov	edx, DWORD PTR [eax]
	mov	DWORD PTR _pDeviceCombo$2[ebp], edx
; Line 970
	mov	eax, DWORD PTR _pDeviceCombo$2[ebp]
	cmp	DWORD PTR [eax+12], 1
	jne	SHORT $LN17@OnAdapterO
	mov	DWORD PTR tv141[ebp], 1
	jmp	SHORT $LN18@OnAdapterO
$LN17@OnAdapterO:
	mov	DWORD PTR tv141[ebp], 0
$LN18@OnAdapterO:
	movzx	ecx, BYTE PTR _bWindowed$[ebp]
	cmp	DWORD PTR tv141[ebp], ecx
	jne	SHORT $LN3@OnAdapterO
; Line 972
	mov	edx, DWORD PTR _pDeviceCombo$2[ebp]
	mov	eax, DWORD PTR [edx+8]
	push	eax
	mov	ecx, DWORD PTR _this$[ebp]
	call	?AddD3D11BackBufferFormat@CD3DSettingsDlg@@IAEXW4DXGI_FORMAT@@@Z ; CD3DSettingsDlg::AddD3D11BackBufferFormat
$LN3@OnAdapterO:
; Line 974
	jmp	SHORT $LN5@OnAdapterO
$LN4@OnAdapterO:
; Line 976
	mov	ecx, DWORD PTR ?g_DeviceSettings@@3UDXUTDeviceSettings@@A+32
	push	ecx
	mov	ecx, DWORD PTR _pBackBufferFormatComboBox$[ebp]
	call	?SetSelectedByData@CDXUTComboBox@@QAEJPAX@Z ; CDXUTComboBox::SetSelectedByData
; Line 978
	mov	ecx, DWORD PTR _this$[ebp]
	call	?OnBackBufferFormatChanged@CD3DSettingsDlg@@IAEJXZ ; CD3DSettingsDlg::OnBackBufferFormatChanged
	mov	DWORD PTR _hr$[ebp], eax
; Line 979
	cmp	DWORD PTR _hr$[ebp], 0
	jge	SHORT $LN2@OnAdapterO
; Line 980
	mov	eax, DWORD PTR _hr$[ebp]
	jmp	SHORT $LN15@OnAdapterO
$LN2@OnAdapterO:
; Line 982
	mov	ecx, DWORD PTR _this$[ebp]
	call	?OnRefreshRateChanged@CD3DSettingsDlg@@IAEJXZ ; CD3DSettingsDlg::OnRefreshRateChanged
	mov	DWORD PTR _hr$[ebp], eax
; Line 983
	cmp	DWORD PTR _hr$[ebp], 0
	jge	SHORT $LN1@OnAdapterO
; Line 984
	mov	eax, DWORD PTR _hr$[ebp]
	jmp	SHORT $LN15@OnAdapterO
$LN1@OnAdapterO:
; Line 986
	xor	eax, eax
$LN15@OnAdapterO:
; Line 987
	push	edx
	mov	ecx, ebp
	push	eax
	lea	edx, DWORD PTR $LN22@OnAdapterO
	call	@_RTC_CheckStackVars@8
	pop	eax
	pop	edx
	pop	edi
	mov	ecx, DWORD PTR __$ArrayPad$[ebp]
	xor	ecx, ebp
	call	@__security_check_cookie@4
	add	esp, 128				; 00000080H
	cmp	ebp, esp
	call	__RTC_CheckEsp
	mov	esp, ebp
	pop	ebp
	ret	0
$LN22@OnAdapterO:
	DD	2
	DD	$LN21@OnAdapterO
$LN21@OnAdapterO:
	DD	-48					; ffffffd0H
	DD	28					; 0000001cH
	DD	$LN19@OnAdapterO
	DD	-72					; ffffffb8H
	DD	16					; 00000010H
	DD	$LN20@OnAdapterO
$LN20@OnAdapterO:
	DB	114					; 00000072H
	DB	99					; 00000063H
	DB	0
$LN19@OnAdapterO:
	DB	109					; 0000006dH
	DB	111					; 0000006fH
	DB	100					; 00000064H
	DB	101					; 00000065H
	DB	0
?OnAdapterOutputChanged@CD3DSettingsDlg@@IAEJXZ ENDP	; CD3DSettingsDlg::OnAdapterOutputChanged
_TEXT	ENDS
; Function compile flags: /Odtp /RTCsu
_TEXT	SEGMENT
tv144 = -39						; size = 1
tv137 = -38						; size = 1
tv130 = -37						; size = 1
tv91 = -36						; size = 1
tv84 = -35						; size = 1
tv77 = -34						; size = 1
tv70 = -33						; size = 1
_pOutputInfo$1 = -32					; size = 4
_ioutput$2 = -28					; size = 4
_pAdapterInfo$ = -24					; size = 4
_pOutputComboBox$ = -20					; size = 4
_pD3DEnum$ = -16					; size = 4
_bWindowed$ = -9					; size = 1
_hr$ = -8						; size = 4
_this$ = -4						; size = 4
?OnWindowedFullScreenChanged@CD3DSettingsDlg@@IAEJXZ PROC ; CD3DSettingsDlg::OnWindowedFullScreenChanged
; _this$ = ecx
; File d:\engine class\assignment 1\scratch\dxsse\dxut\optional\dxutsettingsdlg.cpp
; Line 868
	push	ebp
	mov	ebp, esp
	sub	esp, 40					; 00000028H
	push	edi
	push	ecx
	lea	edi, DWORD PTR [ebp-40]
	mov	ecx, 10					; 0000000aH
	mov	eax, -858993460				; ccccccccH
	rep stosd
	pop	ecx
	mov	DWORD PTR _this$[ebp], ecx
; Line 869
	mov	DWORD PTR _hr$[ebp], 0
; Line 870
	mov	ecx, DWORD PTR _this$[ebp]
	call	?IsWindowed@CD3DSettingsDlg@@IBE_NXZ	; CD3DSettingsDlg::IsWindowed
	mov	BYTE PTR _bWindowed$[ebp], al
; Line 872
	movzx	eax, BYTE PTR _bWindowed$[ebp]
	test	eax, eax
	jne	SHORT $LN9@OnWindowed
	mov	BYTE PTR tv70[ebp], 1
	jmp	SHORT $LN10@OnWindowed
$LN9@OnWindowed:
	mov	BYTE PTR tv70[ebp], 0
$LN10@OnWindowed:
	movzx	ecx, BYTE PTR tv70[ebp]
	push	ecx
	push	29					; 0000001dH
	mov	ecx, DWORD PTR _this$[ebp]
	add	ecx, 8
	call	?SetControlEnabled@CDXUTDialog@@QAEXH_N@Z ; CDXUTDialog::SetControlEnabled
; Line 873
	movzx	edx, BYTE PTR _bWindowed$[ebp]
	test	edx, edx
	jne	SHORT $LN11@OnWindowed
	mov	BYTE PTR tv77[ebp], 1
	jmp	SHORT $LN12@OnWindowed
$LN11@OnWindowed:
	mov	BYTE PTR tv77[ebp], 0
$LN12@OnWindowed:
	movzx	eax, BYTE PTR tv77[ebp]
	push	eax
	push	31					; 0000001fH
	mov	ecx, DWORD PTR _this$[ebp]
	add	ecx, 8
	call	?SetControlEnabled@CDXUTDialog@@QAEXH_N@Z ; CDXUTDialog::SetControlEnabled
; Line 874
	movzx	ecx, BYTE PTR _bWindowed$[ebp]
	test	ecx, ecx
	jne	SHORT $LN13@OnWindowed
	mov	BYTE PTR tv84[ebp], 1
	jmp	SHORT $LN14@OnWindowed
$LN13@OnWindowed:
	mov	BYTE PTR tv84[ebp], 0
$LN14@OnWindowed:
	movzx	edx, BYTE PTR tv84[ebp]
	push	edx
	push	33					; 00000021H
	mov	ecx, DWORD PTR _this$[ebp]
	add	ecx, 8
	call	?SetControlEnabled@CDXUTDialog@@QAEXH_N@Z ; CDXUTDialog::SetControlEnabled
; Line 876
	movzx	eax, BYTE PTR _bWindowed$[ebp]
	test	eax, eax
	jne	SHORT $LN15@OnWindowed
	mov	BYTE PTR tv91[ebp], 1
	jmp	SHORT $LN16@OnWindowed
$LN15@OnWindowed:
	mov	BYTE PTR tv91[ebp], 0
$LN16@OnWindowed:
	movzx	ecx, BYTE PTR tv91[ebp]
	push	ecx
	push	26					; 0000001aH
	mov	ecx, DWORD PTR _this$[ebp]
	add	ecx, 8
	call	?SetControlEnabled@CDXUTDialog@@QAEXH_N@Z ; CDXUTDialog::SetControlEnabled
; Line 877
	movzx	edx, BYTE PTR _bWindowed$[ebp]
	test	edx, edx
	jne	SHORT $LN17@OnWindowed
	mov	BYTE PTR tv130[ebp], 1
	jmp	SHORT $LN18@OnWindowed
$LN17@OnWindowed:
	mov	BYTE PTR tv130[ebp], 0
$LN18@OnWindowed:
	movzx	eax, BYTE PTR tv130[ebp]
	push	eax
	push	28					; 0000001cH
	mov	ecx, DWORD PTR _this$[ebp]
	add	ecx, 8
	call	?SetControlEnabled@CDXUTDialog@@QAEXH_N@Z ; CDXUTDialog::SetControlEnabled
; Line 878
	movzx	ecx, BYTE PTR _bWindowed$[ebp]
	test	ecx, ecx
	jne	SHORT $LN19@OnWindowed
	mov	BYTE PTR tv137[ebp], 1
	jmp	SHORT $LN20@OnWindowed
$LN19@OnWindowed:
	mov	BYTE PTR tv137[ebp], 0
$LN20@OnWindowed:
	movzx	edx, BYTE PTR tv137[ebp]
	push	edx
	push	30					; 0000001eH
	mov	ecx, DWORD PTR _this$[ebp]
	add	ecx, 8
	call	?SetControlEnabled@CDXUTDialog@@QAEXH_N@Z ; CDXUTDialog::SetControlEnabled
; Line 879
	movzx	eax, BYTE PTR _bWindowed$[ebp]
	test	eax, eax
	jne	SHORT $LN21@OnWindowed
	mov	BYTE PTR tv144[ebp], 1
	jmp	SHORT $LN22@OnWindowed
$LN21@OnWindowed:
	mov	BYTE PTR tv144[ebp], 0
$LN22@OnWindowed:
	movzx	ecx, BYTE PTR tv144[ebp]
	push	ecx
	push	32					; 00000020H
	mov	ecx, DWORD PTR _this$[ebp]
	add	ecx, 8
	call	?SetControlEnabled@CDXUTDialog@@QAEXH_N@Z ; CDXUTDialog::SetControlEnabled
; Line 881
	movzx	edx, BYTE PTR _bWindowed$[ebp]
	mov	DWORD PTR ?g_DeviceSettings@@3UDXUTDeviceSettings@@A+64, edx
; Line 884
	push	0
	push	1
	push	0
	call	?DXUTGetD3D11Enumeration@@YGPAVCD3D11Enumeration@@_N0W4D3D_FEATURE_LEVEL@@@Z ; DXUTGetD3D11Enumeration
	mov	DWORD PTR _pD3DEnum$[ebp], eax
; Line 886
	push	28					; 0000001cH
	mov	ecx, DWORD PTR _this$[ebp]
	add	ecx, 8
	call	?GetComboBox@CDXUTDialog@@QBEPAVCDXUTComboBox@@H@Z ; CDXUTDialog::GetComboBox
	mov	DWORD PTR _pOutputComboBox$[ebp], eax
; Line 887
	mov	ecx, DWORD PTR _pOutputComboBox$[ebp]
	call	?RemoveAllItems@CDXUTComboBox@@QAEXXZ	; CDXUTComboBox::RemoveAllItems
; Line 889
	mov	eax, DWORD PTR ?g_DeviceSettings@@3UDXUTDeviceSettings@@A+4
	push	eax
	mov	ecx, DWORD PTR _pD3DEnum$[ebp]
	call	?GetAdapterInfo@CD3D11Enumeration@@QBEPAVCD3D11EnumAdapterInfo@@I@Z ; CD3D11Enumeration::GetAdapterInfo
	mov	DWORD PTR _pAdapterInfo$[ebp], eax
; Line 890
	mov	DWORD PTR _ioutput$2[ebp], 0
	jmp	SHORT $LN6@OnWindowed
$LN5@OnWindowed:
	mov	ecx, DWORD PTR _ioutput$2[ebp]
	add	ecx, 1
	mov	DWORD PTR _ioutput$2[ebp], ecx
$LN6@OnWindowed:
	mov	ecx, DWORD PTR _pAdapterInfo$[ebp]
	add	ecx, 560				; 00000230H
	call	?size@?$vector@PAVCD3D11EnumOutputInfo@@V?$allocator@PAVCD3D11EnumOutputInfo@@@std@@@std@@QBEIXZ ; std::vector<CD3D11EnumOutputInfo *,std::allocator<CD3D11EnumOutputInfo *> >::size
	cmp	DWORD PTR _ioutput$2[ebp], eax
	jae	SHORT $LN4@OnWindowed
; Line 892
	mov	edx, DWORD PTR _ioutput$2[ebp]
	push	edx
	mov	ecx, DWORD PTR _pAdapterInfo$[ebp]
	add	ecx, 560				; 00000230H
	call	??A?$vector@PAVCD3D11EnumOutputInfo@@V?$allocator@PAVCD3D11EnumOutputInfo@@@std@@@std@@QAEAAPAVCD3D11EnumOutputInfo@@I@Z ; std::vector<CD3D11EnumOutputInfo *,std::allocator<CD3D11EnumOutputInfo *> >::operator[]
	mov	eax, DWORD PTR [eax]
	mov	DWORD PTR _pOutputInfo$1[ebp], eax
; Line 893
	mov	ecx, DWORD PTR _pOutputInfo$1[ebp]
	mov	edx, DWORD PTR [ecx+4]
	push	edx
	mov	eax, DWORD PTR _pOutputInfo$1[ebp]
	add	eax, 12					; 0000000cH
	push	eax
	mov	ecx, DWORD PTR _this$[ebp]
	call	?AddD3D11AdapterOutput@CD3DSettingsDlg@@IAEXPB_WI@Z ; CD3DSettingsDlg::AddD3D11AdapterOutput
; Line 894
	jmp	SHORT $LN5@OnWindowed
$LN4@OnWindowed:
; Line 896
	mov	ecx, DWORD PTR ?g_DeviceSettings@@3UDXUTDeviceSettings@@A+12
	push	ecx
	mov	ecx, DWORD PTR _pOutputComboBox$[ebp]
	call	?SetSelectedByData@CDXUTComboBox@@QAEJPAX@Z ; CDXUTComboBox::SetSelectedByData
; Line 898
	mov	ecx, DWORD PTR _this$[ebp]
	call	?OnAdapterOutputChanged@CD3DSettingsDlg@@IAEJXZ ; CD3DSettingsDlg::OnAdapterOutputChanged
	mov	DWORD PTR _hr$[ebp], eax
; Line 899
	cmp	DWORD PTR _hr$[ebp], 0
	jge	SHORT $LN3@OnWindowed
; Line 900
	mov	eax, DWORD PTR _hr$[ebp]
	jmp	SHORT $LN7@OnWindowed
$LN3@OnWindowed:
; Line 902
	mov	ecx, DWORD PTR _this$[ebp]
	call	?UpdateD3D11Resolutions@CD3DSettingsDlg@@IAEJXZ ; CD3DSettingsDlg::UpdateD3D11Resolutions
	mov	DWORD PTR _hr$[ebp], eax
; Line 903
	cmp	DWORD PTR _hr$[ebp], 0
	jge	SHORT $LN2@OnWindowed
; Line 904
	mov	eax, DWORD PTR _hr$[ebp]
	jmp	SHORT $LN7@OnWindowed
$LN2@OnWindowed:
; Line 906
	mov	ecx, DWORD PTR _this$[ebp]
	call	?UpdateD3D11RefreshRates@CD3DSettingsDlg@@IAEJXZ ; CD3DSettingsDlg::UpdateD3D11RefreshRates
	mov	DWORD PTR _hr$[ebp], eax
; Line 907
	cmp	DWORD PTR _hr$[ebp], 0
	jge	SHORT $LN1@OnWindowed
; Line 908
	mov	eax, DWORD PTR _hr$[ebp]
	jmp	SHORT $LN7@OnWindowed
$LN1@OnWindowed:
; Line 910
	xor	eax, eax
$LN7@OnWindowed:
; Line 911
	pop	edi
	add	esp, 40					; 00000028H
	cmp	ebp, esp
	call	__RTC_CheckEsp
	mov	esp, ebp
	pop	ebp
	ret	0
?OnWindowedFullScreenChanged@CD3DSettingsDlg@@IAEJXZ ENDP ; CD3DSettingsDlg::OnWindowedFullScreenChanged
_TEXT	ENDS
; Function compile flags: /Odtp /RTCsu
_TEXT	SEGMENT
tv90 = -40						; size = 4
tv81 = -33						; size = 1
_fli$1 = -32						; size = 4
_pFeatureLevelBox$2 = -28				; size = 4
_clampFL$ = -20						; size = 4
_pBestDeviceSettingsCombo$ = -12			; size = 4
_hr$ = -8						; size = 4
_this$ = -4						; size = 4
?OnDeviceTypeChanged@CD3DSettingsDlg@@IAEJXZ PROC	; CD3DSettingsDlg::OnDeviceTypeChanged
; _this$ = ecx
; File d:\engine class\assignment 1\scratch\dxsse\dxut\optional\dxutsettingsdlg.cpp
; Line 800
	push	ebp
	mov	ebp, esp
	sub	esp, 40					; 00000028H
	push	edi
	push	ecx
	lea	edi, DWORD PTR [ebp-40]
	mov	ecx, 10					; 0000000aH
	mov	eax, -858993460				; ccccccccH
	rep stosd
	pop	ecx
	mov	DWORD PTR _this$[ebp], ecx
; Line 801
	mov	DWORD PTR _hr$[ebp], 0
; Line 803
	mov	ecx, DWORD PTR _this$[ebp]
	call	?GetSelectedD3D11DeviceType@CD3DSettingsDlg@@IBE?AW4D3D_DRIVER_TYPE@@XZ ; CD3DSettingsDlg::GetSelectedD3D11DeviceType
	mov	DWORD PTR ?g_DeviceSettings@@3UDXUTDeviceSettings@@A+8, eax
; Line 806
	push	1
	push	5
	mov	ecx, DWORD PTR _this$[ebp]
	add	ecx, 8
	call	?SetControlEnabled@CDXUTDialog@@QAEXH_N@Z ; CDXUTDialog::SetControlEnabled
; Line 807
	cmp	DWORD PTR ?g_DeviceSettings@@3UDXUTDeviceSettings@@A+8, 5
	jne	SHORT $LN15@OnDeviceTy
; Line 809
	push	0
	push	6
	mov	ecx, DWORD PTR _this$[ebp]
	add	ecx, 8
	call	?SetControlEnabled@CDXUTDialog@@QAEXH_N@Z ; CDXUTDialog::SetControlEnabled
; Line 810
	mov	DWORD PTR ?g_DeviceSettings@@3UDXUTDeviceSettings@@A+64, 1
; Line 812
	jmp	SHORT $LN14@OnDeviceTy
$LN15@OnDeviceTy:
; Line 814
	push	1
	push	6
	mov	ecx, DWORD PTR _this$[ebp]
	add	ecx, 8
	call	?SetControlEnabled@CDXUTDialog@@QAEXH_N@Z ; CDXUTDialog::SetControlEnabled
$LN14@OnDeviceTy:
; Line 817
	cmp	DWORD PTR ?g_DeviceSettings@@3UDXUTDeviceSettings@@A+64, 0
	je	SHORT $LN18@OnDeviceTy
	mov	BYTE PTR tv81[ebp], 1
	jmp	SHORT $LN19@OnDeviceTy
$LN18@OnDeviceTy:
	mov	BYTE PTR tv81[ebp], 0
$LN19@OnDeviceTy:
	movzx	eax, BYTE PTR tv81[ebp]
	push	eax
	mov	ecx, DWORD PTR _this$[ebp]
	call	?SetWindowed@CD3DSettingsDlg@@IAEX_N@Z	; CD3DSettingsDlg::SetWindowed
; Line 821
	cmp	DWORD PTR ?g_DeviceSettings@@3UDXUTDeviceSettings@@A+64, 0
	je	SHORT $LN20@OnDeviceTy
	mov	DWORD PTR tv90[ebp], 1
	jmp	SHORT $LN21@OnDeviceTy
$LN20@OnDeviceTy:
	mov	DWORD PTR tv90[ebp], 0
$LN21@OnDeviceTy:
	mov	ecx, DWORD PTR tv90[ebp]
	push	ecx
	mov	edx, DWORD PTR ?g_DeviceSettings@@3UDXUTDeviceSettings@@A+32
	push	edx
	mov	eax, DWORD PTR ?g_DeviceSettings@@3UDXUTDeviceSettings@@A+4
	push	eax
	push	0
	push	1
	push	0
	call	?DXUTGetD3D11Enumeration@@YGPAVCD3D11Enumeration@@_N0W4D3D_FEATURE_LEVEL@@@Z ; DXUTGetD3D11Enumeration
	mov	ecx, eax
	call	?GetDeviceSettingsCombo@CD3D11Enumeration@@QBEPAUCD3D11EnumDeviceSettingsCombo@@IW4DXGI_FORMAT@@H@Z ; CD3D11Enumeration::GetDeviceSettingsCombo
	mov	DWORD PTR _pBestDeviceSettingsCombo$[ebp], eax
; Line 823
	cmp	DWORD PTR _pBestDeviceSettingsCombo$[ebp], 0
	jne	SHORT $LN13@OnDeviceTy
; Line 824
	push	1
	push	OFFSET $SG159897
	push	-2147024809				; 80070057H
	push	824					; 00000338H
	push	OFFSET $SG159898
	call	?DXUTTrace@@YGJPBDKJPB_W_N@Z		; DXUTTrace
	jmp	$LN16@OnDeviceTy
$LN13@OnDeviceTy:
; Line 827
	cmp	DWORD PTR ?g_DeviceSettings@@3UDXUTDeviceSettings@@A+8, 5
	jne	SHORT $LN12@OnDeviceTy
; Line 828
	push	0
	push	1
	push	0
	call	?DXUTGetD3D11Enumeration@@YGPAVCD3D11Enumeration@@_N0W4D3D_FEATURE_LEVEL@@@Z ; DXUTGetD3D11Enumeration
	mov	ecx, eax
	call	?GetWARPFeaturevel@CD3D11Enumeration@@QBE?AW4D3D_FEATURE_LEVEL@@XZ ; CD3D11Enumeration::GetWARPFeaturevel
	mov	DWORD PTR _clampFL$[ebp], eax
	jmp	SHORT $LN11@OnDeviceTy
$LN12@OnDeviceTy:
; Line 829
	cmp	DWORD PTR ?g_DeviceSettings@@3UDXUTDeviceSettings@@A+8, 2
	jne	SHORT $LN10@OnDeviceTy
; Line 830
	push	0
	push	1
	push	0
	call	?DXUTGetD3D11Enumeration@@YGPAVCD3D11Enumeration@@_N0W4D3D_FEATURE_LEVEL@@@Z ; DXUTGetD3D11Enumeration
	mov	ecx, eax
	call	?GetREFFeaturevel@CD3D11Enumeration@@QBE?AW4D3D_FEATURE_LEVEL@@XZ ; CD3D11Enumeration::GetREFFeaturevel
	mov	DWORD PTR _clampFL$[ebp], eax
; Line 831
	jmp	SHORT $LN11@OnDeviceTy
$LN10@OnDeviceTy:
; Line 832
	mov	ecx, DWORD PTR _pBestDeviceSettingsCombo$[ebp]
	mov	edx, DWORD PTR [ecx+56]
	mov	eax, DWORD PTR [edx+12]
	mov	DWORD PTR _clampFL$[ebp], eax
$LN11@OnDeviceTy:
; Line 835
	mov	ecx, DWORD PTR ?g_DeviceSettings@@3UDXUTDeviceSettings@@A+96
	cmp	ecx, DWORD PTR _clampFL$[ebp]
	jg	SHORT $LN7@OnDeviceTy
	mov	edx, DWORD PTR _pBestDeviceSettingsCombo$[ebp]
	mov	eax, DWORD PTR [edx+56]
	mov	ecx, DWORD PTR _clampFL$[ebp]
	cmp	ecx, DWORD PTR [eax+12]
	jle	$LN8@OnDeviceTy
$LN7@OnDeviceTy:
; Line 838
	lea	edx, DWORD PTR _clampFL$[ebp]
	push	edx
	push	OFFSET ?g_DeviceSettings@@3UDXUTDeviceSettings@@A+96
	call	??$min@W4D3D_FEATURE_LEVEL@@@std@@YAABW4D3D_FEATURE_LEVEL@@ABW41@0@Z ; std::min<enum D3D_FEATURE_LEVEL>
	add	esp, 8
	mov	eax, DWORD PTR [eax]
	mov	DWORD PTR ?g_DeviceSettings@@3UDXUTDeviceSettings@@A+96, eax
; Line 840
	push	43					; 0000002bH
	mov	ecx, DWORD PTR _this$[ebp]
	add	ecx, 8
	call	?GetComboBox@CDXUTDialog@@QBEPAVCDXUTComboBox@@H@Z ; CDXUTDialog::GetComboBox
	mov	DWORD PTR _pFeatureLevelBox$2[ebp], eax
; Line 841
	mov	ecx, DWORD PTR _pFeatureLevelBox$2[ebp]
	call	?RemoveAllItems@CDXUTComboBox@@QAEXXZ	; CDXUTComboBox::RemoveAllItems
; Line 842
	mov	DWORD PTR _fli$1[ebp], 0
	jmp	SHORT $LN6@OnDeviceTy
$LN5@OnDeviceTy:
	mov	ecx, DWORD PTR _fli$1[ebp]
	add	ecx, 1
	mov	DWORD PTR _fli$1[ebp], ecx
$LN6@OnDeviceTy:
	cmp	DWORD PTR _fli$1[ebp], 7
	jge	SHORT $LN4@OnDeviceTy
; Line 845
	mov	edx, DWORD PTR _fli$1[ebp]
	mov	eax, DWORD PTR _this$[ebp]
	mov	ecx, DWORD PTR [eax+edx*4+1556]
	cmp	ecx, DWORD PTR ?g_DeviceSettings@@3UDXUTDeviceSettings@@A
	jl	SHORT $LN3@OnDeviceTy
	mov	edx, DWORD PTR _fli$1[ebp]
	mov	eax, DWORD PTR _this$[ebp]
	mov	ecx, DWORD PTR [eax+edx*4+1556]
	cmp	ecx, DWORD PTR _clampFL$[ebp]
	jg	SHORT $LN3@OnDeviceTy
; Line 847
	mov	edx, DWORD PTR _fli$1[ebp]
	mov	eax, DWORD PTR _this$[ebp]
	mov	ecx, DWORD PTR [eax+edx*4+1556]
	push	ecx
	mov	ecx, DWORD PTR _this$[ebp]
	call	?AddD3D11FeatureLevel@CD3DSettingsDlg@@IAEXW4D3D_FEATURE_LEVEL@@@Z ; CD3DSettingsDlg::AddD3D11FeatureLevel
$LN3@OnDeviceTy:
; Line 849
	jmp	SHORT $LN5@OnDeviceTy
$LN4@OnDeviceTy:
; Line 850
	mov	edx, DWORD PTR ?g_DeviceSettings@@3UDXUTDeviceSettings@@A+96
	push	edx
	mov	ecx, DWORD PTR _pFeatureLevelBox$2[ebp]
	call	?SetSelectedByData@CDXUTComboBox@@QAEJPAX@Z ; CDXUTComboBox::SetSelectedByData
; Line 852
	mov	ecx, DWORD PTR _this$[ebp]
	call	?OnFeatureLevelChanged@CD3DSettingsDlg@@IAEJXZ ; CD3DSettingsDlg::OnFeatureLevelChanged
	mov	DWORD PTR _hr$[ebp], eax
; Line 853
	cmp	DWORD PTR _hr$[ebp], 0
	jge	SHORT $LN8@OnDeviceTy
; Line 854
	mov	eax, DWORD PTR _hr$[ebp]
	jmp	SHORT $LN16@OnDeviceTy
$LN8@OnDeviceTy:
; Line 857
	mov	ecx, DWORD PTR _this$[ebp]
	call	?OnWindowedFullScreenChanged@CD3DSettingsDlg@@IAEJXZ ; CD3DSettingsDlg::OnWindowedFullScreenChanged
	mov	DWORD PTR _hr$[ebp], eax
; Line 858
	cmp	DWORD PTR _hr$[ebp], 0
	jge	SHORT $LN1@OnDeviceTy
; Line 859
	mov	eax, DWORD PTR _hr$[ebp]
	jmp	SHORT $LN16@OnDeviceTy
$LN1@OnDeviceTy:
; Line 861
	xor	eax, eax
$LN16@OnDeviceTy:
; Line 862
	push	edx
	mov	ecx, ebp
	push	eax
	lea	edx, DWORD PTR $LN24@OnDeviceTy
	call	@_RTC_CheckStackVars@8
	pop	eax
	pop	edx
	pop	edi
	add	esp, 40					; 00000028H
	cmp	ebp, esp
	call	__RTC_CheckEsp
	mov	esp, ebp
	pop	ebp
	ret	0
	npad	1
$LN24@OnDeviceTy:
	DD	1
	DD	$LN23@OnDeviceTy
$LN23@OnDeviceTy:
	DD	-20					; ffffffecH
	DD	4
	DD	$LN22@OnDeviceTy
$LN22@OnDeviceTy:
	DB	99					; 00000063H
	DB	108					; 0000006cH
	DB	97					; 00000061H
	DB	109					; 0000006dH
	DB	112					; 00000070H
	DB	70					; 00000046H
	DB	76					; 0000004cH
	DB	0
?OnDeviceTypeChanged@CD3DSettingsDlg@@IAEJXZ ENDP	; CD3DSettingsDlg::OnDeviceTypeChanged
_TEXT	ENDS
; Function compile flags: /Odtp /RTCsu
_TEXT	SEGMENT
_hr$ = -24						; size = 4
_pDeviceInfo$1 = -20					; size = 4
_iDeviceInfo$2 = -16					; size = 4
_pAdapterInfo$ = -12					; size = 4
_pDeviceTypeComboBox$ = -8				; size = 4
_this$ = -4						; size = 4
?OnAdapterChanged@CD3DSettingsDlg@@IAEJXZ PROC		; CD3DSettingsDlg::OnAdapterChanged
; _this$ = ecx
; File d:\engine class\assignment 1\scratch\dxsse\dxut\optional\dxutsettingsdlg.cpp
; Line 769
	push	ebp
	mov	ebp, esp
	sub	esp, 24					; 00000018H
	mov	eax, -858993460				; ccccccccH
	mov	DWORD PTR [ebp-24], eax
	mov	DWORD PTR [ebp-20], eax
	mov	DWORD PTR [ebp-16], eax
	mov	DWORD PTR [ebp-12], eax
	mov	DWORD PTR [ebp-8], eax
	mov	DWORD PTR [ebp-4], eax
	mov	DWORD PTR _this$[ebp], ecx
; Line 771
	mov	ecx, DWORD PTR _this$[ebp]
	call	?GetSelectedAdapter@CD3DSettingsDlg@@IBEIXZ ; CD3DSettingsDlg::GetSelectedAdapter
	mov	DWORD PTR ?g_DeviceSettings@@3UDXUTDeviceSettings@@A+4, eax
; Line 774
	push	4
	mov	ecx, DWORD PTR _this$[ebp]
	add	ecx, 8
	call	?GetComboBox@CDXUTDialog@@QBEPAVCDXUTComboBox@@H@Z ; CDXUTDialog::GetComboBox
	mov	DWORD PTR _pDeviceTypeComboBox$[ebp], eax
; Line 775
	mov	ecx, DWORD PTR _pDeviceTypeComboBox$[ebp]
	call	?RemoveAllItems@CDXUTComboBox@@QAEXXZ	; CDXUTComboBox::RemoveAllItems
; Line 777
	mov	ecx, DWORD PTR _this$[ebp]
	call	?GetCurrentD3D11AdapterInfo@CD3DSettingsDlg@@IBEPAVCD3D11EnumAdapterInfo@@XZ ; CD3DSettingsDlg::GetCurrentD3D11AdapterInfo
	mov	DWORD PTR _pAdapterInfo$[ebp], eax
; Line 778
	cmp	DWORD PTR _pAdapterInfo$[ebp], 0
	jne	SHORT $LN5@OnAdapterC
; Line 779
	mov	eax, -2147467259			; 80004005H
	jmp	SHORT $LN6@OnAdapterC
$LN5@OnAdapterC:
; Line 781
	mov	DWORD PTR _iDeviceInfo$2[ebp], 0
	jmp	SHORT $LN4@OnAdapterC
$LN3@OnAdapterC:
	mov	eax, DWORD PTR _iDeviceInfo$2[ebp]
	add	eax, 1
	mov	DWORD PTR _iDeviceInfo$2[ebp], eax
$LN4@OnAdapterC:
	mov	ecx, DWORD PTR _pAdapterInfo$[ebp]
	add	ecx, 576				; 00000240H
	call	?size@?$vector@PAVCD3D11EnumDeviceInfo@@V?$allocator@PAVCD3D11EnumDeviceInfo@@@std@@@std@@QBEIXZ ; std::vector<CD3D11EnumDeviceInfo *,std::allocator<CD3D11EnumDeviceInfo *> >::size
	cmp	DWORD PTR _iDeviceInfo$2[ebp], eax
	jae	SHORT $LN2@OnAdapterC
; Line 783
	mov	ecx, DWORD PTR _iDeviceInfo$2[ebp]
	push	ecx
	mov	ecx, DWORD PTR _pAdapterInfo$[ebp]
	add	ecx, 576				; 00000240H
	call	??A?$vector@PAVCD3D11EnumDeviceInfo@@V?$allocator@PAVCD3D11EnumDeviceInfo@@@std@@@std@@QAEAAPAVCD3D11EnumDeviceInfo@@I@Z ; std::vector<CD3D11EnumDeviceInfo *,std::allocator<CD3D11EnumDeviceInfo *> >::operator[]
	mov	edx, DWORD PTR [eax]
	mov	DWORD PTR _pDeviceInfo$1[ebp], edx
; Line 784
	mov	eax, DWORD PTR _pDeviceInfo$1[ebp]
	mov	ecx, DWORD PTR [eax+4]
	push	ecx
	mov	ecx, DWORD PTR _this$[ebp]
	call	?AddD3D11DeviceType@CD3DSettingsDlg@@IAEXW4D3D_DRIVER_TYPE@@@Z ; CD3DSettingsDlg::AddD3D11DeviceType
; Line 785
	jmp	SHORT $LN3@OnAdapterC
$LN2@OnAdapterC:
; Line 787
	mov	edx, DWORD PTR ?g_DeviceSettings@@3UDXUTDeviceSettings@@A+8
	push	edx
	mov	ecx, DWORD PTR _pDeviceTypeComboBox$[ebp]
	call	?SetSelectedByData@CDXUTComboBox@@QAEJPAX@Z ; CDXUTComboBox::SetSelectedByData
; Line 789
	mov	ecx, DWORD PTR _this$[ebp]
	call	?OnDeviceTypeChanged@CD3DSettingsDlg@@IAEJXZ ; CD3DSettingsDlg::OnDeviceTypeChanged
	mov	DWORD PTR _hr$[ebp], eax
; Line 790
	cmp	DWORD PTR _hr$[ebp], 0
	jge	SHORT $LN1@OnAdapterC
; Line 791
	mov	eax, DWORD PTR _hr$[ebp]
	jmp	SHORT $LN6@OnAdapterC
$LN1@OnAdapterC:
; Line 793
	xor	eax, eax
$LN6@OnAdapterC:
; Line 794
	add	esp, 24					; 00000018H
	cmp	ebp, esp
	call	__RTC_CheckEsp
	mov	esp, ebp
	pop	ebp
	ret	0
?OnAdapterChanged@CD3DSettingsDlg@@IAEJXZ ENDP		; CD3DSettingsDlg::OnAdapterChanged
_TEXT	ENDS
; Function compile flags: /Odtp /RTCsu
_TEXT	SEGMENT
tv185 = -137						; size = 1
tv167 = -136						; size = 4
tv192 = -132						; size = 4
tv89 = -128						; size = 4
$T2 = -124						; size = 12
$T3 = -109						; size = 1
_pCheckBox$ = -108					; size = 4
_pDeviceCombo$4 = -104					; size = 4
_idc$5 = -100						; size = 4
_bWindowed$ = -93					; size = 1
_pAdapterInfo$ = -92					; size = 4
_pBackBufferFormatComboBox$ = -88			; size = 4
_it$6 = -80						; size = 12
_pAdapterComboBox$ = -64				; size = 4
_pAdapterInfoList$ = -60				; size = 4
_pD3DEnum$ = -56					; size = 4
_RefreshRate$ = -48					; size = 8
_Quality$ = -36						; size = 4
_Count$ = -32						; size = 4
_BackBufferFormat$ = -28				; size = 4
_CreateFlags$ = -24					; size = 4
_hr$ = -20						; size = 4
_this$ = -16						; size = 4
__$EHRec$ = -12						; size = 12
?OnFeatureLevelChanged@CD3DSettingsDlg@@IAEJXZ PROC	; CD3DSettingsDlg::OnFeatureLevelChanged
; _this$ = ecx
; File d:\engine class\assignment 1\scratch\dxsse\dxut\optional\dxutsettingsdlg.cpp
; Line 696
	push	ebp
	mov	ebp, esp
	push	-1
	push	__ehhandler$?OnFeatureLevelChanged@CD3DSettingsDlg@@IAEJXZ
	mov	eax, DWORD PTR fs:0
	push	eax
	sub	esp, 128				; 00000080H
	push	edi
	push	ecx
	lea	edi, DWORD PTR [ebp-140]
	mov	ecx, 32					; 00000020H
	mov	eax, -858993460				; ccccccccH
	rep stosd
	pop	ecx
	mov	eax, DWORD PTR ___security_cookie
	xor	eax, ebp
	push	eax
	lea	eax, DWORD PTR __$EHRec$[ebp]
	mov	DWORD PTR fs:0, eax
	mov	DWORD PTR _this$[ebp], ecx
; Line 697
	mov	DWORD PTR _hr$[ebp], -2147467259	; 80004005H
; Line 699
	mov	ecx, DWORD PTR _this$[ebp]
	call	?GetSelectedFeatureLevel@CD3DSettingsDlg@@IBE?AW4D3D_FEATURE_LEVEL@@XZ ; CD3DSettingsDlg::GetSelectedFeatureLevel
	cmp	DWORD PTR ?g_DeviceSettings@@3UDXUTDeviceSettings@@A+96, eax
	jne	SHORT $LN11@OnFeatureL
	xor	eax, eax
	jmp	$LN12@OnFeatureL
$LN11@OnFeatureL:
; Line 702
	mov	eax, DWORD PTR ?g_DeviceSettings@@3UDXUTDeviceSettings@@A+76
	mov	DWORD PTR _CreateFlags$[ebp], eax
; Line 703
	mov	ecx, DWORD PTR ?g_DeviceSettings@@3UDXUTDeviceSettings@@A+32
	mov	DWORD PTR _BackBufferFormat$[ebp], ecx
; Line 704
	mov	edx, DWORD PTR ?g_DeviceSettings@@3UDXUTDeviceSettings@@A+44
	mov	DWORD PTR _Count$[ebp], edx
; Line 705
	mov	eax, DWORD PTR ?g_DeviceSettings@@3UDXUTDeviceSettings@@A+48
	mov	DWORD PTR _Quality$[ebp], eax
; Line 706
	mov	ecx, DWORD PTR ?g_DeviceSettings@@3UDXUTDeviceSettings@@A+24
	mov	DWORD PTR _RefreshRate$[ebp], ecx
	mov	edx, DWORD PTR ?g_DeviceSettings@@3UDXUTDeviceSettings@@A+28
	mov	DWORD PTR _RefreshRate$[ebp+4], edx
; Line 707
	push	100					; 00000064H
	push	0
	push	OFFSET ?g_DeviceSettings@@3UDXUTDeviceSettings@@A ; g_DeviceSettings
	call	_memset
	add	esp, 12					; 0000000cH
; Line 709
	push	OFFSET ?g_DeviceSettings@@3UDXUTDeviceSettings@@A ; g_DeviceSettings
	call	?DXUTApplyDefaultDeviceSettings@@YAXPAUDXUTDeviceSettings@@@Z ; DXUTApplyDefaultDeviceSettings
	add	esp, 4
; Line 710
	mov	eax, DWORD PTR _CreateFlags$[ebp]
	mov	DWORD PTR ?g_DeviceSettings@@3UDXUTDeviceSettings@@A+76, eax
; Line 711
	mov	ecx, DWORD PTR _this$[ebp]
	call	?GetSelectedFeatureLevel@CD3DSettingsDlg@@IBE?AW4D3D_FEATURE_LEVEL@@XZ ; CD3DSettingsDlg::GetSelectedFeatureLevel
	push	eax
	push	1
	push	OFFSET ?g_DeviceSettings@@3UDXUTDeviceSettings@@A ; g_DeviceSettings
	call	?DXUTSnapDeviceSettingsToEnumDevice@@YAJPAUDXUTDeviceSettings@@_NW4D3D_FEATURE_LEVEL@@@Z ; DXUTSnapDeviceSettingsToEnumDevice
	add	esp, 12					; 0000000cH
	mov	DWORD PTR _hr$[ebp], eax
; Line 712
	mov	ecx, DWORD PTR _BackBufferFormat$[ebp]
	mov	DWORD PTR ?g_DeviceSettings@@3UDXUTDeviceSettings@@A+32, ecx
; Line 713
	mov	edx, DWORD PTR _Count$[ebp]
	mov	DWORD PTR ?g_DeviceSettings@@3UDXUTDeviceSettings@@A+44, edx
; Line 714
	mov	eax, DWORD PTR _Quality$[ebp]
	mov	DWORD PTR ?g_DeviceSettings@@3UDXUTDeviceSettings@@A+48, eax
; Line 715
	mov	ecx, DWORD PTR _RefreshRate$[ebp]
	mov	DWORD PTR ?g_DeviceSettings@@3UDXUTDeviceSettings@@A+24, ecx
	mov	edx, DWORD PTR _RefreshRate$[ebp+4]
	mov	DWORD PTR ?g_DeviceSettings@@3UDXUTDeviceSettings@@A+28, edx
; Line 717
	push	0
	push	1
	push	0
	call	?DXUTGetD3D11Enumeration@@YGPAVCD3D11Enumeration@@_N0W4D3D_FEATURE_LEVEL@@@Z ; DXUTGetD3D11Enumeration
	mov	DWORD PTR _pD3DEnum$[ebp], eax
; Line 718
	mov	ecx, DWORD PTR _pD3DEnum$[ebp]
	call	?GetAdapterInfoList@CD3D11Enumeration@@QAEPAV?$vector@PAVCD3D11EnumAdapterInfo@@V?$allocator@PAVCD3D11EnumAdapterInfo@@@std@@@std@@XZ ; CD3D11Enumeration::GetAdapterInfoList
	mov	DWORD PTR _pAdapterInfoList$[ebp], eax
; Line 721
	push	3
	mov	ecx, DWORD PTR _this$[ebp]
	add	ecx, 8
	call	?GetComboBox@CDXUTDialog@@QBEPAVCDXUTComboBox@@H@Z ; CDXUTDialog::GetComboBox
	mov	DWORD PTR _pAdapterComboBox$[ebp], eax
; Line 722
	mov	ecx, DWORD PTR _pAdapterComboBox$[ebp]
	call	?RemoveAllItems@CDXUTComboBox@@QAEXXZ	; CDXUTComboBox::RemoveAllItems
; Line 724
	lea	eax, DWORD PTR _it$6[ebp]
	push	eax
	mov	ecx, DWORD PTR _pAdapterInfoList$[ebp]
	call	?cbegin@?$vector@PAVCD3D11EnumAdapterInfo@@V?$allocator@PAVCD3D11EnumAdapterInfo@@@std@@@std@@QBE?AV?$_Vector_const_iterator@V?$_Vector_val@U?$_Simple_types@PAVCD3D11EnumAdapterInfo@@@std@@@std@@@2@XZ ; std::vector<CD3D11EnumAdapterInfo *,std::allocator<CD3D11EnumAdapterInfo *> >::cbegin
	mov	DWORD PTR __$EHRec$[ebp+8], 0
	jmp	SHORT $LN10@OnFeatureL
$LN9@OnFeatureL:
	lea	ecx, DWORD PTR _it$6[ebp]
	call	??E?$_Vector_const_iterator@V?$_Vector_val@U?$_Simple_types@PAVCD3D11EnumAdapterInfo@@@std@@@std@@@std@@QAEAAV01@XZ ; std::_Vector_const_iterator<std::_Vector_val<std::_Simple_types<CD3D11EnumAdapterInfo *> > >::operator++
$LN10@OnFeatureL:
	lea	ecx, DWORD PTR $T2[ebp]
	push	ecx
	mov	ecx, DWORD PTR _pAdapterInfoList$[ebp]
	call	?cend@?$vector@PAVCD3D11EnumAdapterInfo@@V?$allocator@PAVCD3D11EnumAdapterInfo@@@std@@@std@@QBE?AV?$_Vector_const_iterator@V?$_Vector_val@U?$_Simple_types@PAVCD3D11EnumAdapterInfo@@@std@@@std@@@2@XZ ; std::vector<CD3D11EnumAdapterInfo *,std::allocator<CD3D11EnumAdapterInfo *> >::cend
	mov	DWORD PTR tv89[ebp], eax
	mov	edx, DWORD PTR tv89[ebp]
	mov	DWORD PTR tv192[ebp], edx
	mov	BYTE PTR __$EHRec$[ebp+8], 1
	mov	eax, DWORD PTR tv192[ebp]
	push	eax
	lea	ecx, DWORD PTR _it$6[ebp]
	call	??9?$_Vector_const_iterator@V?$_Vector_val@U?$_Simple_types@PAVCD3D11EnumAdapterInfo@@@std@@@std@@@std@@QBE_NABV01@@Z ; std::_Vector_const_iterator<std::_Vector_val<std::_Simple_types<CD3D11EnumAdapterInfo *> > >::operator!=
	mov	BYTE PTR $T3[ebp], al
	mov	BYTE PTR __$EHRec$[ebp+8], 0
	lea	ecx, DWORD PTR $T2[ebp]
	call	??1?$_Vector_const_iterator@V?$_Vector_val@U?$_Simple_types@PAVCD3D11EnumAdapterInfo@@@std@@@std@@@std@@QAE@XZ
	movzx	ecx, BYTE PTR $T3[ebp]
	test	ecx, ecx
	je	SHORT $LN8@OnFeatureL
; Line 726
	lea	ecx, DWORD PTR _it$6[ebp]
	call	??D?$_Vector_const_iterator@V?$_Vector_val@U?$_Simple_types@PAVCD3D11EnumAdapterInfo@@@std@@@std@@@std@@QBEABQAVCD3D11EnumAdapterInfo@@XZ ; std::_Vector_const_iterator<std::_Vector_val<std::_Simple_types<CD3D11EnumAdapterInfo *> > >::operator*
	mov	edx, DWORD PTR [eax]
	mov	eax, DWORD PTR [edx]
	push	eax
	lea	ecx, DWORD PTR _it$6[ebp]
	call	??D?$_Vector_const_iterator@V?$_Vector_val@U?$_Simple_types@PAVCD3D11EnumAdapterInfo@@@std@@@std@@@std@@QBEABQAVCD3D11EnumAdapterInfo@@XZ ; std::_Vector_const_iterator<std::_Vector_val<std::_Simple_types<CD3D11EnumAdapterInfo *> > >::operator*
	mov	ecx, DWORD PTR [eax]
	add	ecx, 296				; 00000128H
	push	ecx
	mov	ecx, DWORD PTR _this$[ebp]
	call	?AddAdapter@CD3DSettingsDlg@@IAEXPB_WI@Z ; CD3DSettingsDlg::AddAdapter
	jmp	SHORT $LN9@OnFeatureL
$LN8@OnFeatureL:
; Line 727
	mov	DWORD PTR __$EHRec$[ebp+8], -1
	lea	ecx, DWORD PTR _it$6[ebp]
	call	??1?$_Vector_const_iterator@V?$_Vector_val@U?$_Simple_types@PAVCD3D11EnumAdapterInfo@@@std@@@std@@@std@@QAE@XZ
; Line 729
	mov	edx, DWORD PTR ?g_DeviceSettings@@3UDXUTDeviceSettings@@A+4
	push	edx
	mov	ecx, DWORD PTR _pAdapterComboBox$[ebp]
	call	?SetSelectedByData@CDXUTComboBox@@QAEJPAX@Z ; CDXUTComboBox::SetSelectedByData
; Line 732
	push	34					; 00000022H
	mov	ecx, DWORD PTR _this$[ebp]
	add	ecx, 8
	call	?GetComboBox@CDXUTDialog@@QBEPAVCDXUTComboBox@@H@Z ; CDXUTDialog::GetComboBox
	mov	DWORD PTR _pBackBufferFormatComboBox$[ebp], eax
; Line 733
	mov	ecx, DWORD PTR _pBackBufferFormatComboBox$[ebp]
	call	?RemoveAllItems@CDXUTComboBox@@QAEXXZ	; CDXUTComboBox::RemoveAllItems
; Line 735
	mov	ecx, DWORD PTR _this$[ebp]
	call	?GetCurrentD3D11AdapterInfo@CD3DSettingsDlg@@IBEPAVCD3D11EnumAdapterInfo@@XZ ; CD3DSettingsDlg::GetCurrentD3D11AdapterInfo
	mov	DWORD PTR _pAdapterInfo$[ebp], eax
; Line 736
	cmp	DWORD PTR _pAdapterInfo$[ebp], 0
	jne	SHORT $LN7@OnFeatureL
; Line 737
	mov	eax, -2147467259			; 80004005H
	jmp	$LN12@OnFeatureL
$LN7@OnFeatureL:
; Line 739
	mov	ecx, DWORD PTR _this$[ebp]
	call	?IsWindowed@CD3DSettingsDlg@@IBE_NXZ	; CD3DSettingsDlg::IsWindowed
	mov	BYTE PTR _bWindowed$[ebp], al
; Line 741
	mov	DWORD PTR _idc$5[ebp], 0
	jmp	SHORT $LN6@OnFeatureL
$LN5@OnFeatureL:
	mov	eax, DWORD PTR _idc$5[ebp]
	add	eax, 1
	mov	DWORD PTR _idc$5[ebp], eax
$LN6@OnFeatureL:
	mov	ecx, DWORD PTR _pAdapterInfo$[ebp]
	add	ecx, 592				; 00000250H
	call	?size@?$vector@PAUCD3D11EnumDeviceSettingsCombo@@V?$allocator@PAUCD3D11EnumDeviceSettingsCombo@@@std@@@std@@QBEIXZ ; std::vector<CD3D11EnumDeviceSettingsCombo *,std::allocator<CD3D11EnumDeviceSettingsCombo *> >::size
	cmp	DWORD PTR _idc$5[ebp], eax
	jae	SHORT $LN4@OnFeatureL
; Line 743
	mov	ecx, DWORD PTR _idc$5[ebp]
	push	ecx
	mov	ecx, DWORD PTR _pAdapterInfo$[ebp]
	add	ecx, 592				; 00000250H
	call	??A?$vector@PAUCD3D11EnumDeviceSettingsCombo@@V?$allocator@PAUCD3D11EnumDeviceSettingsCombo@@@std@@@std@@QAEAAPAUCD3D11EnumDeviceSettingsCombo@@I@Z ; std::vector<CD3D11EnumDeviceSettingsCombo *,std::allocator<CD3D11EnumDeviceSettingsCombo *> >::operator[]
	mov	edx, DWORD PTR [eax]
	mov	DWORD PTR _pDeviceCombo$4[ebp], edx
; Line 744
	mov	eax, DWORD PTR _pDeviceCombo$4[ebp]
	cmp	DWORD PTR [eax+12], 1
	jne	SHORT $LN14@OnFeatureL
	mov	DWORD PTR tv167[ebp], 1
	jmp	SHORT $LN15@OnFeatureL
$LN14@OnFeatureL:
	mov	DWORD PTR tv167[ebp], 0
$LN15@OnFeatureL:
	movzx	ecx, BYTE PTR _bWindowed$[ebp]
	cmp	DWORD PTR tv167[ebp], ecx
	jne	SHORT $LN3@OnFeatureL
; Line 746
	mov	edx, DWORD PTR _pDeviceCombo$4[ebp]
	mov	eax, DWORD PTR [edx+8]
	push	eax
	mov	ecx, DWORD PTR _this$[ebp]
	call	?AddD3D11BackBufferFormat@CD3DSettingsDlg@@IAEXW4DXGI_FORMAT@@@Z ; CD3DSettingsDlg::AddD3D11BackBufferFormat
$LN3@OnFeatureL:
; Line 748
	jmp	SHORT $LN5@OnFeatureL
$LN4@OnFeatureL:
; Line 750
	mov	ecx, DWORD PTR ?g_DeviceSettings@@3UDXUTDeviceSettings@@A+32
	push	ecx
	mov	ecx, DWORD PTR _pBackBufferFormatComboBox$[ebp]
	call	?SetSelectedByData@CDXUTComboBox@@QAEJPAX@Z ; CDXUTComboBox::SetSelectedByData
; Line 752
	mov	ecx, DWORD PTR _this$[ebp]
	call	?OnBackBufferFormatChanged@CD3DSettingsDlg@@IAEJXZ ; CD3DSettingsDlg::OnBackBufferFormatChanged
	mov	DWORD PTR _hr$[ebp], eax
; Line 753
	cmp	DWORD PTR _hr$[ebp], 0
	jge	SHORT $LN2@OnFeatureL
; Line 754
	mov	eax, DWORD PTR _hr$[ebp]
	jmp	SHORT $LN12@OnFeatureL
$LN2@OnFeatureL:
; Line 756
	push	42					; 0000002aH
	mov	ecx, DWORD PTR _this$[ebp]
	add	ecx, 8
	call	?GetCheckBox@CDXUTDialog@@QBEPAVCDXUTCheckBox@@H@Z ; CDXUTDialog::GetCheckBox
	mov	DWORD PTR _pCheckBox$[ebp], eax
; Line 757
	mov	edx, DWORD PTR ?g_DeviceSettings@@3UDXUTDeviceSettings@@A+76
	and	edx, 2
	je	SHORT $LN16@OnFeatureL
	mov	BYTE PTR tv185[ebp], 1
	jmp	SHORT $LN17@OnFeatureL
$LN16@OnFeatureL:
	mov	BYTE PTR tv185[ebp], 0
$LN17@OnFeatureL:
	movzx	eax, BYTE PTR tv185[ebp]
	push	eax
	mov	ecx, DWORD PTR _pCheckBox$[ebp]
	call	?SetChecked@CDXUTCheckBox@@QAEX_N@Z	; CDXUTCheckBox::SetChecked
; Line 759
	mov	ecx, DWORD PTR _this$[ebp]
	call	?OnAdapterChanged@CD3DSettingsDlg@@IAEJXZ ; CD3DSettingsDlg::OnAdapterChanged
	mov	DWORD PTR _hr$[ebp], eax
; Line 760
	cmp	DWORD PTR _hr$[ebp], 0
	jge	SHORT $LN1@OnFeatureL
; Line 761
	mov	eax, DWORD PTR _hr$[ebp]
	jmp	SHORT $LN12@OnFeatureL
$LN1@OnFeatureL:
; Line 763
	mov	eax, DWORD PTR _hr$[ebp]
$LN12@OnFeatureL:
; Line 764
	push	edx
	mov	ecx, ebp
	push	eax
	lea	edx, DWORD PTR $LN24@OnFeatureL
	call	@_RTC_CheckStackVars@8
	pop	eax
	pop	edx
	mov	ecx, DWORD PTR __$EHRec$[ebp]
	mov	DWORD PTR fs:0, ecx
	pop	ecx
	pop	edi
	add	esp, 140				; 0000008cH
	cmp	ebp, esp
	call	__RTC_CheckEsp
	mov	esp, ebp
	pop	ebp
	ret	0
	npad	2
$LN24@OnFeatureL:
	DD	2
	DD	$LN23@OnFeatureL
$LN23@OnFeatureL:
	DD	-48					; ffffffd0H
	DD	8
	DD	$LN20@OnFeatureL
	DD	-80					; ffffffb0H
	DD	12					; 0000000cH
	DD	$LN21@OnFeatureL
$LN21@OnFeatureL:
	DB	105					; 00000069H
	DB	116					; 00000074H
	DB	0
$LN20@OnFeatureL:
	DB	82					; 00000052H
	DB	101					; 00000065H
	DB	102					; 00000066H
	DB	114					; 00000072H
	DB	101					; 00000065H
	DB	115					; 00000073H
	DB	104					; 00000068H
	DB	82					; 00000052H
	DB	97					; 00000061H
	DB	116					; 00000074H
	DB	101					; 00000065H
	DB	0
_TEXT	ENDS
text$x	SEGMENT
__unwindfunclet$?OnFeatureLevelChanged@CD3DSettingsDlg@@IAEJXZ$0:
	lea	ecx, DWORD PTR _it$6[ebp]
	jmp	??1?$_Vector_const_iterator@V?$_Vector_val@U?$_Simple_types@PAVCD3D11EnumAdapterInfo@@@std@@@std@@@std@@QAE@XZ
__unwindfunclet$?OnFeatureLevelChanged@CD3DSettingsDlg@@IAEJXZ$1:
	lea	ecx, DWORD PTR $T2[ebp]
	jmp	??1?$_Vector_const_iterator@V?$_Vector_val@U?$_Simple_types@PAVCD3D11EnumAdapterInfo@@@std@@@std@@@std@@QAE@XZ
__ehhandler$?OnFeatureLevelChanged@CD3DSettingsDlg@@IAEJXZ:
	mov	edx, DWORD PTR [esp+8]
	lea	eax, DWORD PTR [edx+12]
	mov	ecx, DWORD PTR [edx-136]
	xor	ecx, eax
	call	@__security_check_cookie@4
	mov	eax, OFFSET __ehfuncinfo$?OnFeatureLevelChanged@CD3DSettingsDlg@@IAEJXZ
	jmp	___CxxFrameHandler3
text$x	ENDS
?OnFeatureLevelChanged@CD3DSettingsDlg@@IAEJXZ ENDP	; CD3DSettingsDlg::OnFeatureLevelChanged
; Function compile flags: /Odtp /RTCsu
_TEXT	SEGMENT
_hr$ = -32						; size = 4
_dwHeight$ = -24					; size = 4
_dwWidth$ = -12						; size = 4
_this$ = -4						; size = 4
?OnD3D11ResolutionChanged@CD3DSettingsDlg@@IAEJXZ PROC	; CD3DSettingsDlg::OnD3D11ResolutionChanged
; _this$ = ecx
; File d:\engine class\assignment 1\scratch\dxsse\dxut\optional\dxutsettingsdlg.cpp
; Line 678
	push	ebp
	mov	ebp, esp
	sub	esp, 32					; 00000020H
	mov	eax, -858993460				; ccccccccH
	mov	DWORD PTR [ebp-32], eax
	mov	DWORD PTR [ebp-28], eax
	mov	DWORD PTR [ebp-24], eax
	mov	DWORD PTR [ebp-20], eax
	mov	DWORD PTR [ebp-16], eax
	mov	DWORD PTR [ebp-12], eax
	mov	DWORD PTR [ebp-8], eax
	mov	DWORD PTR [ebp-4], eax
	mov	DWORD PTR _this$[ebp], ecx
; Line 679
	cmp	DWORD PTR ?g_DeviceSettings@@3UDXUTDeviceSettings@@A+64, 0
	je	SHORT $LN2@OnD3D11Res
; Line 680
	xor	eax, eax
	jmp	SHORT $LN3@OnD3D11Res
$LN2@OnD3D11Res:
; Line 683
	lea	eax, DWORD PTR _dwHeight$[ebp]
	push	eax
	lea	ecx, DWORD PTR _dwWidth$[ebp]
	push	ecx
	mov	ecx, DWORD PTR _this$[ebp]
	call	?GetSelectedD3D11Resolution@CD3DSettingsDlg@@IBEXPAK0@Z ; CD3DSettingsDlg::GetSelectedD3D11Resolution
; Line 684
	mov	edx, DWORD PTR _dwWidth$[ebp]
	mov	DWORD PTR ?g_DeviceSettings@@3UDXUTDeviceSettings@@A+16, edx
; Line 685
	mov	eax, DWORD PTR _dwHeight$[ebp]
	mov	DWORD PTR ?g_DeviceSettings@@3UDXUTDeviceSettings@@A+20, eax
; Line 688
	mov	ecx, DWORD PTR _this$[ebp]
	call	?UpdateD3D11RefreshRates@CD3DSettingsDlg@@IAEJXZ ; CD3DSettingsDlg::UpdateD3D11RefreshRates
	mov	DWORD PTR _hr$[ebp], eax
; Line 689
	cmp	DWORD PTR _hr$[ebp], 0
	jge	SHORT $LN1@OnD3D11Res
; Line 690
	mov	eax, DWORD PTR _hr$[ebp]
	jmp	SHORT $LN3@OnD3D11Res
$LN1@OnD3D11Res:
; Line 692
	xor	eax, eax
$LN3@OnD3D11Res:
; Line 693
	push	edx
	mov	ecx, ebp
	push	eax
	lea	edx, DWORD PTR $LN8@OnD3D11Res
	call	@_RTC_CheckStackVars@8
	pop	eax
	pop	edx
	add	esp, 32					; 00000020H
	cmp	ebp, esp
	call	__RTC_CheckEsp
	mov	esp, ebp
	pop	ebp
	ret	0
	npad	1
$LN8@OnD3D11Res:
	DD	2
	DD	$LN7@OnD3D11Res
$LN7@OnD3D11Res:
	DD	-12					; fffffff4H
	DD	4
	DD	$LN5@OnD3D11Res
	DD	-24					; ffffffe8H
	DD	4
	DD	$LN6@OnD3D11Res
$LN6@OnD3D11Res:
	DB	100					; 00000064H
	DB	119					; 00000077H
	DB	72					; 00000048H
	DB	101					; 00000065H
	DB	105					; 00000069H
	DB	103					; 00000067H
	DB	104					; 00000068H
	DB	116					; 00000074H
	DB	0
$LN5@OnD3D11Res:
	DB	100					; 00000064H
	DB	119					; 00000077H
	DB	87					; 00000057H
	DB	105					; 00000069H
	DB	100					; 00000064H
	DB	116					; 00000074H
	DB	104					; 00000068H
	DB	0
?OnD3D11ResolutionChanged@CD3DSettingsDlg@@IAEJXZ ENDP	; CD3DSettingsDlg::OnD3D11ResolutionChanged
_TEXT	ENDS
; Function compile flags: /Odtp /RTCsu
_TEXT	SEGMENT
_pCheckBox$ = -8					; size = 4
_this$ = -4						; size = 4
?GetSelectedDebugDeviceValue@CD3DSettingsDlg@@IBE_NXZ PROC ; CD3DSettingsDlg::GetSelectedDebugDeviceValue
; _this$ = ecx
; File d:\engine class\assignment 1\scratch\dxsse\dxut\optional\dxutsettingsdlg.cpp
; Line 1395
	push	ebp
	mov	ebp, esp
	sub	esp, 8
	mov	DWORD PTR [ebp-8], -858993460		; ccccccccH
	mov	DWORD PTR [ebp-4], -858993460		; ccccccccH
	mov	DWORD PTR _this$[ebp], ecx
; Line 1396
	push	42					; 0000002aH
	mov	ecx, DWORD PTR _this$[ebp]
	add	ecx, 8
	call	?GetCheckBox@CDXUTDialog@@QBEPAVCDXUTCheckBox@@H@Z ; CDXUTDialog::GetCheckBox
	mov	DWORD PTR _pCheckBox$[ebp], eax
; Line 1398
	mov	ecx, DWORD PTR _pCheckBox$[ebp]
	call	?GetChecked@CDXUTCheckBox@@QBE_NXZ	; CDXUTCheckBox::GetChecked
; Line 1399
	add	esp, 8
	cmp	ebp, esp
	call	__RTC_CheckEsp
	mov	esp, ebp
	pop	ebp
	ret	0
?GetSelectedDebugDeviceValue@CD3DSettingsDlg@@IBE_NXZ ENDP ; CD3DSettingsDlg::GetSelectedDebugDeviceValue
_TEXT	ENDS
; Function compile flags: /Odtp /RTCsu
_TEXT	SEGMENT
_pComboBox$ = -8					; size = 4
_this$ = -4						; size = 4
?GetSelectedD3D11PresentInterval@CD3DSettingsDlg@@IBEKXZ PROC ; CD3DSettingsDlg::GetSelectedD3D11PresentInterval
; _this$ = ecx
; File d:\engine class\assignment 1\scratch\dxsse\dxut\optional\dxutsettingsdlg.cpp
; Line 1387
	push	ebp
	mov	ebp, esp
	sub	esp, 8
	mov	DWORD PTR [ebp-8], -858993460		; ccccccccH
	mov	DWORD PTR [ebp-4], -858993460		; ccccccccH
	mov	DWORD PTR _this$[ebp], ecx
; Line 1388
	push	40					; 00000028H
	mov	ecx, DWORD PTR _this$[ebp]
	add	ecx, 8
	call	?GetComboBox@CDXUTDialog@@QBEPAVCDXUTComboBox@@H@Z ; CDXUTDialog::GetComboBox
	mov	DWORD PTR _pComboBox$[ebp], eax
; Line 1390
	mov	ecx, DWORD PTR _pComboBox$[ebp]
	call	?GetSelectedData@CDXUTComboBox@@QBEPAXXZ ; CDXUTComboBox::GetSelectedData
; Line 1391
	add	esp, 8
	cmp	ebp, esp
	call	__RTC_CheckEsp
	mov	esp, ebp
	pop	ebp
	ret	0
?GetSelectedD3D11PresentInterval@CD3DSettingsDlg@@IBEKXZ ENDP ; CD3DSettingsDlg::GetSelectedD3D11PresentInterval
_TEXT	ENDS
; Function compile flags: /Odtp /RTCsu
_TEXT	SEGMENT
_pComboBox$ = -8					; size = 4
_this$ = -4						; size = 4
?GetSelectedD3D11MultisampleQuality@CD3DSettingsDlg@@IBEIXZ PROC ; CD3DSettingsDlg::GetSelectedD3D11MultisampleQuality
; _this$ = ecx
; File d:\engine class\assignment 1\scratch\dxsse\dxut\optional\dxutsettingsdlg.cpp
; Line 1378
	push	ebp
	mov	ebp, esp
	sub	esp, 8
	mov	DWORD PTR [ebp-8], -858993460		; ccccccccH
	mov	DWORD PTR [ebp-4], -858993460		; ccccccccH
	mov	DWORD PTR _this$[ebp], ecx
; Line 1379
	push	38					; 00000026H
	mov	ecx, DWORD PTR _this$[ebp]
	add	ecx, 8
	call	?GetComboBox@CDXUTDialog@@QBEPAVCDXUTComboBox@@H@Z ; CDXUTDialog::GetComboBox
	mov	DWORD PTR _pComboBox$[ebp], eax
; Line 1381
	mov	ecx, DWORD PTR _pComboBox$[ebp]
	call	?GetSelectedData@CDXUTComboBox@@QBEPAXXZ ; CDXUTComboBox::GetSelectedData
; Line 1382
	add	esp, 8
	cmp	ebp, esp
	call	__RTC_CheckEsp
	mov	esp, ebp
	pop	ebp
	ret	0
?GetSelectedD3D11MultisampleQuality@CD3DSettingsDlg@@IBEIXZ ENDP ; CD3DSettingsDlg::GetSelectedD3D11MultisampleQuality
_TEXT	ENDS
; Function compile flags: /Odtp /RTCsu
_TEXT	SEGMENT
_strQuality$ = -116					; size = 100
_pComboBox$ = -12					; size = 4
_this$ = -8						; size = 4
__$ArrayPad$ = -4					; size = 4
_Quality$ = 8						; size = 4
?AddD3D11MultisampleQuality@CD3DSettingsDlg@@IAEXI@Z PROC ; CD3DSettingsDlg::AddD3D11MultisampleQuality
; _this$ = ecx
; File d:\engine class\assignment 1\scratch\dxsse\dxut\optional\dxutsettingsdlg.cpp
; Line 1365
	push	ebp
	mov	ebp, esp
	sub	esp, 120				; 00000078H
	push	esi
	push	edi
	push	ecx
	lea	edi, DWORD PTR [ebp-120]
	mov	ecx, 30					; 0000001eH
	mov	eax, -858993460				; ccccccccH
	rep stosd
	pop	ecx
	mov	eax, DWORD PTR ___security_cookie
	xor	eax, ebp
	mov	DWORD PTR __$ArrayPad$[ebp], eax
	mov	DWORD PTR _this$[ebp], ecx
; Line 1366
	push	38					; 00000026H
	mov	ecx, DWORD PTR _this$[ebp]
	add	ecx, 8
	call	?GetComboBox@CDXUTDialog@@QBEPAVCDXUTComboBox@@H@Z ; CDXUTDialog::GetComboBox
	mov	DWORD PTR _pComboBox$[ebp], eax
; Line 1369
	mov	esi, esp
	mov	eax, DWORD PTR _Quality$[ebp]
	push	eax
	push	OFFSET $SG160344
	push	50					; 00000032H
	lea	ecx, DWORD PTR _strQuality$[ebp]
	push	ecx
	call	DWORD PTR __imp__swprintf_s
	add	esp, 16					; 00000010H
	cmp	esi, esp
	call	__RTC_CheckEsp
; Line 1371
	push	0
	lea	edx, DWORD PTR _strQuality$[ebp]
	push	edx
	mov	ecx, DWORD PTR _pComboBox$[ebp]
	call	?ContainsItem@CDXUTComboBox@@QAE_NPB_WI@Z ; CDXUTComboBox::ContainsItem
	movzx	eax, al
	test	eax, eax
	jne	SHORT $LN2@AddD3D11Mu
; Line 1372
	mov	ecx, DWORD PTR _Quality$[ebp]
	push	ecx
	lea	edx, DWORD PTR _strQuality$[ebp]
	push	edx
	mov	ecx, DWORD PTR _pComboBox$[ebp]
	call	?AddItem@CDXUTComboBox@@QAEJPB_WPAX@Z	; CDXUTComboBox::AddItem
$LN2@AddD3D11Mu:
; Line 1373
	push	edx
	mov	ecx, ebp
	push	eax
	lea	edx, DWORD PTR $LN6@AddD3D11Mu
	call	@_RTC_CheckStackVars@8
	pop	eax
	pop	edx
	pop	edi
	pop	esi
	mov	ecx, DWORD PTR __$ArrayPad$[ebp]
	xor	ecx, ebp
	call	@__security_check_cookie@4
	add	esp, 120				; 00000078H
	cmp	ebp, esp
	call	__RTC_CheckEsp
	mov	esp, ebp
	pop	ebp
	ret	4
	npad	3
$LN6@AddD3D11Mu:
	DD	1
	DD	$LN5@AddD3D11Mu
$LN5@AddD3D11Mu:
	DD	-116					; ffffff8cH
	DD	100					; 00000064H
	DD	$LN4@AddD3D11Mu
$LN4@AddD3D11Mu:
	DB	115					; 00000073H
	DB	116					; 00000074H
	DB	114					; 00000072H
	DB	81					; 00000051H
	DB	117					; 00000075H
	DB	97					; 00000061H
	DB	108					; 0000006cH
	DB	105					; 00000069H
	DB	116					; 00000074H
	DB	121					; 00000079H
	DB	0
?AddD3D11MultisampleQuality@CD3DSettingsDlg@@IAEXI@Z ENDP ; CD3DSettingsDlg::AddD3D11MultisampleQuality
_TEXT	ENDS
; Function compile flags: /Odtp /RTCsu
_TEXT	SEGMENT
_pComboBox$ = -8					; size = 4
_this$ = -4						; size = 4
?GetSelectedD3D11MultisampleCount@CD3DSettingsDlg@@IBEIXZ PROC ; CD3DSettingsDlg::GetSelectedD3D11MultisampleCount
; _this$ = ecx
; File d:\engine class\assignment 1\scratch\dxsse\dxut\optional\dxutsettingsdlg.cpp
; Line 1356
	push	ebp
	mov	ebp, esp
	sub	esp, 8
	mov	DWORD PTR [ebp-8], -858993460		; ccccccccH
	mov	DWORD PTR [ebp-4], -858993460		; ccccccccH
	mov	DWORD PTR _this$[ebp], ecx
; Line 1357
	push	36					; 00000024H
	mov	ecx, DWORD PTR _this$[ebp]
	add	ecx, 8
	call	?GetComboBox@CDXUTDialog@@QBEPAVCDXUTComboBox@@H@Z ; CDXUTDialog::GetComboBox
	mov	DWORD PTR _pComboBox$[ebp], eax
; Line 1359
	mov	ecx, DWORD PTR _pComboBox$[ebp]
	call	?GetSelectedData@CDXUTComboBox@@QBEPAXXZ ; CDXUTComboBox::GetSelectedData
; Line 1360
	add	esp, 8
	cmp	ebp, esp
	call	__RTC_CheckEsp
	mov	esp, ebp
	pop	ebp
	ret	0
?GetSelectedD3D11MultisampleCount@CD3DSettingsDlg@@IBEIXZ ENDP ; CD3DSettingsDlg::GetSelectedD3D11MultisampleCount
_TEXT	ENDS
; Function compile flags: /Odtp /RTCsu
_TEXT	SEGMENT
_str$ = -116						; size = 100
_pComboBox$ = -12					; size = 4
_this$ = -8						; size = 4
__$ArrayPad$ = -4					; size = 4
_Count$ = 8						; size = 4
?AddD3D11MultisampleCount@CD3DSettingsDlg@@IAEXI@Z PROC	; CD3DSettingsDlg::AddD3D11MultisampleCount
; _this$ = ecx
; File d:\engine class\assignment 1\scratch\dxsse\dxut\optional\dxutsettingsdlg.cpp
; Line 1343
	push	ebp
	mov	ebp, esp
	sub	esp, 120				; 00000078H
	push	esi
	push	edi
	push	ecx
	lea	edi, DWORD PTR [ebp-120]
	mov	ecx, 30					; 0000001eH
	mov	eax, -858993460				; ccccccccH
	rep stosd
	pop	ecx
	mov	eax, DWORD PTR ___security_cookie
	xor	eax, ebp
	mov	DWORD PTR __$ArrayPad$[ebp], eax
	mov	DWORD PTR _this$[ebp], ecx
; Line 1344
	push	36					; 00000024H
	mov	ecx, DWORD PTR _this$[ebp]
	add	ecx, 8
	call	?GetComboBox@CDXUTDialog@@QBEPAVCDXUTComboBox@@H@Z ; CDXUTDialog::GetComboBox
	mov	DWORD PTR _pComboBox$[ebp], eax
; Line 1347
	mov	esi, esp
	mov	eax, DWORD PTR _Count$[ebp]
	push	eax
	push	OFFSET $SG160324
	push	50					; 00000032H
	lea	ecx, DWORD PTR _str$[ebp]
	push	ecx
	call	DWORD PTR __imp__swprintf_s
	add	esp, 16					; 00000010H
	cmp	esi, esp
	call	__RTC_CheckEsp
; Line 1349
	push	0
	lea	edx, DWORD PTR _str$[ebp]
	push	edx
	mov	ecx, DWORD PTR _pComboBox$[ebp]
	call	?ContainsItem@CDXUTComboBox@@QAE_NPB_WI@Z ; CDXUTComboBox::ContainsItem
	movzx	eax, al
	test	eax, eax
	jne	SHORT $LN2@AddD3D11Mu
; Line 1350
	mov	ecx, DWORD PTR _Count$[ebp]
	push	ecx
	lea	edx, DWORD PTR _str$[ebp]
	push	edx
	mov	ecx, DWORD PTR _pComboBox$[ebp]
	call	?AddItem@CDXUTComboBox@@QAEJPB_WPAX@Z	; CDXUTComboBox::AddItem
$LN2@AddD3D11Mu:
; Line 1351
	push	edx
	mov	ecx, ebp
	push	eax
	lea	edx, DWORD PTR $LN6@AddD3D11Mu
	call	@_RTC_CheckStackVars@8
	pop	eax
	pop	edx
	pop	edi
	pop	esi
	mov	ecx, DWORD PTR __$ArrayPad$[ebp]
	xor	ecx, ebp
	call	@__security_check_cookie@4
	add	esp, 120				; 00000078H
	cmp	ebp, esp
	call	__RTC_CheckEsp
	mov	esp, ebp
	pop	ebp
	ret	4
	npad	3
$LN6@AddD3D11Mu:
	DD	1
	DD	$LN5@AddD3D11Mu
$LN5@AddD3D11Mu:
	DD	-116					; ffffff8cH
	DD	100					; 00000064H
	DD	$LN4@AddD3D11Mu
$LN4@AddD3D11Mu:
	DB	115					; 00000073H
	DB	116					; 00000074H
	DB	114					; 00000072H
	DB	0
?AddD3D11MultisampleCount@CD3DSettingsDlg@@IAEXI@Z ENDP	; CD3DSettingsDlg::AddD3D11MultisampleCount
_TEXT	ENDS
; Function compile flags: /Odtp /RTCsu
_TEXT	SEGMENT
_pComboBox$ = -8					; size = 4
_this$ = -4						; size = 4
?GetSelectedD3D11BackBufferFormat@CD3DSettingsDlg@@IBE?AW4DXGI_FORMAT@@XZ PROC ; CD3DSettingsDlg::GetSelectedD3D11BackBufferFormat
; _this$ = ecx
; File d:\engine class\assignment 1\scratch\dxsse\dxut\optional\dxutsettingsdlg.cpp
; Line 1334
	push	ebp
	mov	ebp, esp
	sub	esp, 8
	mov	DWORD PTR [ebp-8], -858993460		; ccccccccH
	mov	DWORD PTR [ebp-4], -858993460		; ccccccccH
	mov	DWORD PTR _this$[ebp], ecx
; Line 1335
	push	34					; 00000022H
	mov	ecx, DWORD PTR _this$[ebp]
	add	ecx, 8
	call	?GetComboBox@CDXUTDialog@@QBEPAVCDXUTComboBox@@H@Z ; CDXUTDialog::GetComboBox
	mov	DWORD PTR _pComboBox$[ebp], eax
; Line 1337
	mov	ecx, DWORD PTR _pComboBox$[ebp]
	call	?GetSelectedData@CDXUTComboBox@@QBEPAXXZ ; CDXUTComboBox::GetSelectedData
; Line 1338
	add	esp, 8
	cmp	ebp, esp
	call	__RTC_CheckEsp
	mov	esp, ebp
	pop	ebp
	ret	0
?GetSelectedD3D11BackBufferFormat@CD3DSettingsDlg@@IBE?AW4DXGI_FORMAT@@XZ ENDP ; CD3DSettingsDlg::GetSelectedD3D11BackBufferFormat
_TEXT	ENDS
; Function compile flags: /Odtp /RTCsu
_TEXT	SEGMENT
_pComboBox$ = -8					; size = 4
_this$ = -4						; size = 4
_format$ = 8						; size = 4
?AddD3D11BackBufferFormat@CD3DSettingsDlg@@IAEXW4DXGI_FORMAT@@@Z PROC ; CD3DSettingsDlg::AddD3D11BackBufferFormat
; _this$ = ecx
; File d:\engine class\assignment 1\scratch\dxsse\dxut\optional\dxutsettingsdlg.cpp
; Line 1318
	push	ebp
	mov	ebp, esp
	sub	esp, 8
	mov	DWORD PTR [ebp-8], -858993460		; ccccccccH
	mov	DWORD PTR [ebp-4], -858993460		; ccccccccH
	mov	DWORD PTR _this$[ebp], ecx
; Line 1319
	cmp	DWORD PTR ?g_DeviceSettings@@3UDXUTDeviceSettings@@A+96, 40960 ; 0000a000H
	jge	SHORT $LN4@AddD3D11Ba
; Line 1321
	cmp	DWORD PTR _format$[ebp], 10		; 0000000aH
	je	SHORT $LN2@AddD3D11Ba
	cmp	DWORD PTR _format$[ebp], 24		; 00000018H
	jne	SHORT $LN4@AddD3D11Ba
$LN2@AddD3D11Ba:
; Line 1322
	jmp	SHORT $LN5@AddD3D11Ba
$LN4@AddD3D11Ba:
; Line 1325
	push	34					; 00000022H
	mov	ecx, DWORD PTR _this$[ebp]
	add	ecx, 8
	call	?GetComboBox@CDXUTDialog@@QBEPAVCDXUTComboBox@@H@Z ; CDXUTDialog::GetComboBox
	mov	DWORD PTR _pComboBox$[ebp], eax
; Line 1327
	push	0
	push	1
	mov	eax, DWORD PTR _format$[ebp]
	push	eax
	call	?DXUTDXGIFormatToString@@YGPB_WW4DXGI_FORMAT@@_N@Z ; DXUTDXGIFormatToString
	push	eax
	mov	ecx, DWORD PTR _pComboBox$[ebp]
	call	?ContainsItem@CDXUTComboBox@@QAE_NPB_WI@Z ; CDXUTComboBox::ContainsItem
	movzx	ecx, al
	test	ecx, ecx
	jne	SHORT $LN5@AddD3D11Ba
; Line 1328
	mov	edx, DWORD PTR _format$[ebp]
	push	edx
	push	1
	mov	eax, DWORD PTR _format$[ebp]
	push	eax
	call	?DXUTDXGIFormatToString@@YGPB_WW4DXGI_FORMAT@@_N@Z ; DXUTDXGIFormatToString
	push	eax
	mov	ecx, DWORD PTR _pComboBox$[ebp]
	call	?AddItem@CDXUTComboBox@@QAEJPB_WPAX@Z	; CDXUTComboBox::AddItem
$LN5@AddD3D11Ba:
; Line 1329
	add	esp, 8
	cmp	ebp, esp
	call	__RTC_CheckEsp
	mov	esp, ebp
	pop	ebp
	ret	4
?AddD3D11BackBufferFormat@CD3DSettingsDlg@@IAEXW4DXGI_FORMAT@@@Z ENDP ; CD3DSettingsDlg::AddD3D11BackBufferFormat
_TEXT	ENDS
; Function compile flags: /Odtp /RTCsu
_TEXT	SEGMENT
_pComboBox$ = -8					; size = 4
_this$ = -4						; size = 4
___$ReturnUdt$ = 8					; size = 4
?GetSelectedD3D11RefreshRate@CD3DSettingsDlg@@IBE?AUDXGI_RATIONAL@@XZ PROC ; CD3DSettingsDlg::GetSelectedD3D11RefreshRate
; _this$ = ecx
; File d:\engine class\assignment 1\scratch\dxsse\dxut\optional\dxutsettingsdlg.cpp
; Line 1310
	push	ebp
	mov	ebp, esp
	sub	esp, 8
	mov	DWORD PTR [ebp-8], -858993460		; ccccccccH
	mov	DWORD PTR [ebp-4], -858993460		; ccccccccH
	mov	DWORD PTR _this$[ebp], ecx
; Line 1311
	push	32					; 00000020H
	mov	ecx, DWORD PTR _this$[ebp]
	add	ecx, 8
	call	?GetComboBox@CDXUTDialog@@QBEPAVCDXUTComboBox@@H@Z ; CDXUTDialog::GetComboBox
	mov	DWORD PTR _pComboBox$[ebp], eax
; Line 1312
	mov	ecx, DWORD PTR _pComboBox$[ebp]
	call	?GetSelectedData@CDXUTComboBox@@QBEPAXXZ ; CDXUTComboBox::GetSelectedData
	mov	ecx, DWORD PTR [eax]
	mov	edx, DWORD PTR [eax+4]
	mov	eax, DWORD PTR ___$ReturnUdt$[ebp]
	mov	DWORD PTR [eax], ecx
	mov	DWORD PTR [eax+4], edx
	mov	eax, DWORD PTR ___$ReturnUdt$[ebp]
; Line 1313
	add	esp, 8
	cmp	ebp, esp
	call	__RTC_CheckEsp
	mov	esp, ebp
	pop	ebp
	ret	4
?GetSelectedD3D11RefreshRate@CD3DSettingsDlg@@IBE?AUDXGI_RATIONAL@@XZ ENDP ; CD3DSettingsDlg::GetSelectedD3D11RefreshRate
_TEXT	ENDS
; Function compile flags: /Odtp /RTCsu
_TEXT	SEGMENT
$T1 = -128						; size = 4
_pNewRate$2 = -124					; size = 4
_strRefreshRate$ = -116					; size = 100
_pComboBox$ = -12					; size = 4
_this$ = -8						; size = 4
__$ArrayPad$ = -4					; size = 4
_RefreshRate$ = 8					; size = 8
?AddD3D11RefreshRate@CD3DSettingsDlg@@IAEXUDXGI_RATIONAL@@@Z PROC ; CD3DSettingsDlg::AddD3D11RefreshRate
; _this$ = ecx
; File d:\engine class\assignment 1\scratch\dxsse\dxut\optional\dxutsettingsdlg.cpp
; Line 1286
	push	ebp
	mov	ebp, esp
	sub	esp, 128				; 00000080H
	push	esi
	push	edi
	push	ecx
	lea	edi, DWORD PTR [ebp-128]
	mov	ecx, 32					; 00000020H
	mov	eax, -858993460				; ccccccccH
	rep stosd
	pop	ecx
	mov	eax, DWORD PTR ___security_cookie
	xor	eax, ebp
	mov	DWORD PTR __$ArrayPad$[ebp], eax
	mov	DWORD PTR _this$[ebp], ecx
; Line 1287
	push	32					; 00000020H
	mov	ecx, DWORD PTR _this$[ebp]
	add	ecx, 8
	call	?GetComboBox@CDXUTDialog@@QBEPAVCDXUTComboBox@@H@Z ; CDXUTDialog::GetComboBox
	mov	DWORD PTR _pComboBox$[ebp], eax
; Line 1291
	cmp	DWORD PTR _RefreshRate$[ebp], 0
	jne	SHORT $LN4@AddD3D11Re
	cmp	DWORD PTR _RefreshRate$[ebp+4], 0
	jne	SHORT $LN4@AddD3D11Re
; Line 1292
	mov	esi, esp
	push	OFFSET $SG160280
	push	50					; 00000032H
	lea	eax, DWORD PTR _strRefreshRate$[ebp]
	push	eax
	call	DWORD PTR __imp__wcscpy_s
	add	esp, 12					; 0000000cH
	cmp	esi, esp
	call	__RTC_CheckEsp
; Line 1293
	jmp	SHORT $LN3@AddD3D11Re
$LN4@AddD3D11Re:
; Line 1294
	mov	eax, DWORD PTR _RefreshRate$[ebp]
	xor	edx, edx
	div	DWORD PTR _RefreshRate$[ebp+4]
	mov	esi, esp
	push	eax
	push	OFFSET $SG160282
	push	50					; 00000032H
	lea	ecx, DWORD PTR _strRefreshRate$[ebp]
	push	ecx
	call	DWORD PTR __imp__swprintf_s
	add	esp, 16					; 00000010H
	cmp	esi, esp
	call	__RTC_CheckEsp
$LN3@AddD3D11Re:
; Line 1296
	push	0
	lea	edx, DWORD PTR _strRefreshRate$[ebp]
	push	edx
	mov	ecx, DWORD PTR _pComboBox$[ebp]
	call	?ContainsItem@CDXUTComboBox@@QAE_NPB_WI@Z ; CDXUTComboBox::ContainsItem
	movzx	eax, al
	test	eax, eax
	jne	SHORT $LN5@AddD3D11Re
; Line 1298
	push	OFFSET ?nothrow@std@@3Unothrow_t@1@B	; std::nothrow
	push	8
	call	??2@YAPAXIABUnothrow_t@std@@@Z		; operator new
	add	esp, 8
	mov	DWORD PTR $T1[ebp], eax
	mov	ecx, DWORD PTR $T1[ebp]
	mov	DWORD PTR _pNewRate$2[ebp], ecx
; Line 1299
	cmp	DWORD PTR _pNewRate$2[ebp], 0
	je	SHORT $LN5@AddD3D11Re
; Line 1301
	mov	edx, DWORD PTR _pNewRate$2[ebp]
	mov	eax, DWORD PTR _RefreshRate$[ebp]
	mov	DWORD PTR [edx], eax
	mov	ecx, DWORD PTR _RefreshRate$[ebp+4]
	mov	DWORD PTR [edx+4], ecx
; Line 1302
	mov	edx, DWORD PTR _pNewRate$2[ebp]
	push	edx
	lea	eax, DWORD PTR _strRefreshRate$[ebp]
	push	eax
	mov	ecx, DWORD PTR _pComboBox$[ebp]
	call	?AddItem@CDXUTComboBox@@QAEJPB_WPAX@Z	; CDXUTComboBox::AddItem
$LN5@AddD3D11Re:
; Line 1305
	push	edx
	mov	ecx, ebp
	push	eax
	lea	edx, DWORD PTR $LN9@AddD3D11Re
	call	@_RTC_CheckStackVars@8
	pop	eax
	pop	edx
	pop	edi
	pop	esi
	mov	ecx, DWORD PTR __$ArrayPad$[ebp]
	xor	ecx, ebp
	call	@__security_check_cookie@4
	add	esp, 128				; 00000080H
	cmp	ebp, esp
	call	__RTC_CheckEsp
	mov	esp, ebp
	pop	ebp
	ret	8
	npad	1
$LN9@AddD3D11Re:
	DD	1
	DD	$LN8@AddD3D11Re
$LN8@AddD3D11Re:
	DD	-116					; ffffff8cH
	DD	100					; 00000064H
	DD	$LN7@AddD3D11Re
$LN7@AddD3D11Re:
	DB	115					; 00000073H
	DB	116					; 00000074H
	DB	114					; 00000072H
	DB	82					; 00000052H
	DB	101					; 00000065H
	DB	102					; 00000066H
	DB	114					; 00000072H
	DB	101					; 00000065H
	DB	115					; 00000073H
	DB	104					; 00000068H
	DB	82					; 00000052H
	DB	97					; 00000061H
	DB	116					; 00000074H
	DB	101					; 00000065H
	DB	0
?AddD3D11RefreshRate@CD3DSettingsDlg@@IAEXUDXGI_RATIONAL@@@Z ENDP ; CD3DSettingsDlg::AddD3D11RefreshRate
_TEXT	ENDS
; Function compile flags: /Odtp /RTCsu
_TEXT	SEGMENT
_pComboBox$ = -8					; size = 4
_this$ = -4						; size = 4
?GetSelectedFeatureLevel@CD3DSettingsDlg@@IBE?AW4D3D_FEATURE_LEVEL@@XZ PROC ; CD3DSettingsDlg::GetSelectedFeatureLevel
; _this$ = ecx
; File d:\engine class\assignment 1\scratch\dxsse\dxut\optional\dxutsettingsdlg.cpp
; Line 1277
	push	ebp
	mov	ebp, esp
	sub	esp, 8
	mov	DWORD PTR [ebp-8], -858993460		; ccccccccH
	mov	DWORD PTR [ebp-4], -858993460		; ccccccccH
	mov	DWORD PTR _this$[ebp], ecx
; Line 1278
	push	43					; 0000002bH
	mov	ecx, DWORD PTR _this$[ebp]
	add	ecx, 8
	call	?GetComboBox@CDXUTDialog@@QBEPAVCDXUTComboBox@@H@Z ; CDXUTDialog::GetComboBox
	mov	DWORD PTR _pComboBox$[ebp], eax
; Line 1280
	mov	ecx, DWORD PTR _pComboBox$[ebp]
	call	?GetSelectedData@CDXUTComboBox@@QBEPAXXZ ; CDXUTComboBox::GetSelectedData
; Line 1281
	add	esp, 8
	cmp	ebp, esp
	call	__RTC_CheckEsp
	mov	esp, ebp
	pop	ebp
	ret	0
?GetSelectedFeatureLevel@CD3DSettingsDlg@@IBE?AW4D3D_FEATURE_LEVEL@@XZ ENDP ; CD3DSettingsDlg::GetSelectedFeatureLevel
_TEXT	ENDS
