; Listing generated by Microsoft (R) Optimizing Compiler Version 18.00.30501.0 

	TITLE	D:\Engine Class\Assignment 1\New Scratch\DXUT\Optional\DXUTcamera.cpp
	.686P
	.XMM
	include listing.inc
	.model	flat

INCLUDELIB MSVCRTD
INCLUDELIB OLDNAMES

PUBLIC	?g_XMSinCoefficients0@DirectX@@3UXMVECTORF32@1@B ; DirectX::g_XMSinCoefficients0
PUBLIC	?g_XMSinCoefficients1@DirectX@@3UXMVECTORF32@1@B ; DirectX::g_XMSinCoefficients1
PUBLIC	?g_XMCosCoefficients0@DirectX@@3UXMVECTORF32@1@B ; DirectX::g_XMCosCoefficients0
PUBLIC	?g_XMCosCoefficients1@DirectX@@3UXMVECTORF32@1@B ; DirectX::g_XMCosCoefficients1
PUBLIC	?g_XMIdentityR0@DirectX@@3UXMVECTORF32@1@B	; DirectX::g_XMIdentityR0
PUBLIC	?g_XMIdentityR1@DirectX@@3UXMVECTORF32@1@B	; DirectX::g_XMIdentityR1
PUBLIC	?g_XMIdentityR2@DirectX@@3UXMVECTORF32@1@B	; DirectX::g_XMIdentityR2
PUBLIC	?g_XMIdentityR3@DirectX@@3UXMVECTORF32@1@B	; DirectX::g_XMIdentityR3
PUBLIC	?g_XMNegativeZero@DirectX@@3UXMVECTORI32@1@B	; DirectX::g_XMNegativeZero
PUBLIC	?g_XMMask3@DirectX@@3UXMVECTORI32@1@B		; DirectX::g_XMMask3
PUBLIC	?g_XMMaskY@DirectX@@3UXMVECTORI32@1@B		; DirectX::g_XMMaskY
PUBLIC	?g_XMOne@DirectX@@3UXMVECTORF32@1@B		; DirectX::g_XMOne
PUBLIC	?g_XMZero@DirectX@@3UXMVECTORF32@1@B		; DirectX::g_XMZero
PUBLIC	?g_XMNegativeOne@DirectX@@3UXMVECTORF32@1@B	; DirectX::g_XMNegativeOne
PUBLIC	?g_XMOneHalf@DirectX@@3UXMVECTORF32@1@B		; DirectX::g_XMOneHalf
PUBLIC	?g_XMInfinity@DirectX@@3UXMVECTORI32@1@B	; DirectX::g_XMInfinity
PUBLIC	?g_XMQNaN@DirectX@@3UXMVECTORI32@1@B		; DirectX::g_XMQNaN
PUBLIC	?g_XMAbsMask@DirectX@@3UXMVECTORI32@1@B		; DirectX::g_XMAbsMask
PUBLIC	?g_XMSelect1110@DirectX@@3UXMVECTORI32@1@B	; DirectX::g_XMSelect1110
CONST	SEGMENT
_XM_PI	DD	040490fdbr			; 3.14159
_XM_2PI	DD	040c90fdbr			; 6.28319
_XM_1DIV2PI DD	03e22f983r			; 0.159155
_XM_PIDIV2 DD	03fc90fdbr			; 1.5708
CONST	ENDS
;	COMDAT ?g_XMSelect1110@DirectX@@3UXMVECTORI32@1@B
CONST	SEGMENT
?g_XMSelect1110@DirectX@@3UXMVECTORI32@1@B DD 0ffffffffH ; DirectX::g_XMSelect1110
	DD	0ffffffffH
	DD	0ffffffffH
	DD	00H
CONST	ENDS
;	COMDAT ?g_XMAbsMask@DirectX@@3UXMVECTORI32@1@B
CONST	SEGMENT
?g_XMAbsMask@DirectX@@3UXMVECTORI32@1@B DD 07fffffffH	; DirectX::g_XMAbsMask
	DD	07fffffffH
	DD	07fffffffH
	DD	07fffffffH
CONST	ENDS
;	COMDAT ?g_XMQNaN@DirectX@@3UXMVECTORI32@1@B
CONST	SEGMENT
?g_XMQNaN@DirectX@@3UXMVECTORI32@1@B DD 07fc00000H	; DirectX::g_XMQNaN
	DD	07fc00000H
	DD	07fc00000H
	DD	07fc00000H
CONST	ENDS
;	COMDAT ?g_XMInfinity@DirectX@@3UXMVECTORI32@1@B
CONST	SEGMENT
?g_XMInfinity@DirectX@@3UXMVECTORI32@1@B DD 07f800000H	; DirectX::g_XMInfinity
	DD	07f800000H
	DD	07f800000H
	DD	07f800000H
CONST	ENDS
;	COMDAT ?g_XMOneHalf@DirectX@@3UXMVECTORF32@1@B
CONST	SEGMENT
?g_XMOneHalf@DirectX@@3UXMVECTORF32@1@B DD 03f000000r ; 0.5 ; DirectX::g_XMOneHalf
	DD	03f000000r			; 0.5
	DD	03f000000r			; 0.5
	DD	03f000000r			; 0.5
CONST	ENDS
;	COMDAT ?g_XMNegativeOne@DirectX@@3UXMVECTORF32@1@B
CONST	SEGMENT
?g_XMNegativeOne@DirectX@@3UXMVECTORF32@1@B DD 0bf800000r ; -1 ; DirectX::g_XMNegativeOne
	DD	0bf800000r			; -1
	DD	0bf800000r			; -1
	DD	0bf800000r			; -1
CONST	ENDS
;	COMDAT ?g_XMZero@DirectX@@3UXMVECTORF32@1@B
CONST	SEGMENT
?g_XMZero@DirectX@@3UXMVECTORF32@1@B DD 000000000r ; 0	; DirectX::g_XMZero
	DD	000000000r			; 0
	DD	000000000r			; 0
	DD	000000000r			; 0
CONST	ENDS
;	COMDAT ?g_XMOne@DirectX@@3UXMVECTORF32@1@B
CONST	SEGMENT
?g_XMOne@DirectX@@3UXMVECTORF32@1@B DD 03f800000r ; 1	; DirectX::g_XMOne
	DD	03f800000r			; 1
	DD	03f800000r			; 1
	DD	03f800000r			; 1
CONST	ENDS
;	COMDAT ?g_XMMaskY@DirectX@@3UXMVECTORI32@1@B
CONST	SEGMENT
?g_XMMaskY@DirectX@@3UXMVECTORI32@1@B DD 00H		; DirectX::g_XMMaskY
	DD	0ffffffffH
	DD	00H
	DD	00H
CONST	ENDS
;	COMDAT ?g_XMMask3@DirectX@@3UXMVECTORI32@1@B
CONST	SEGMENT
?g_XMMask3@DirectX@@3UXMVECTORI32@1@B DD 0ffffffffH	; DirectX::g_XMMask3
	DD	0ffffffffH
	DD	0ffffffffH
	DD	00H
CONST	ENDS
;	COMDAT ?g_XMNegativeZero@DirectX@@3UXMVECTORI32@1@B
CONST	SEGMENT
?g_XMNegativeZero@DirectX@@3UXMVECTORI32@1@B DD 080000000H ; DirectX::g_XMNegativeZero
	DD	080000000H
	DD	080000000H
	DD	080000000H
CONST	ENDS
;	COMDAT ?g_XMIdentityR3@DirectX@@3UXMVECTORF32@1@B
CONST	SEGMENT
?g_XMIdentityR3@DirectX@@3UXMVECTORF32@1@B DD 000000000r ; 0 ; DirectX::g_XMIdentityR3
	DD	000000000r			; 0
	DD	000000000r			; 0
	DD	03f800000r			; 1
CONST	ENDS
;	COMDAT ?g_XMIdentityR2@DirectX@@3UXMVECTORF32@1@B
CONST	SEGMENT
?g_XMIdentityR2@DirectX@@3UXMVECTORF32@1@B DD 000000000r ; 0 ; DirectX::g_XMIdentityR2
	DD	000000000r			; 0
	DD	03f800000r			; 1
	DD	000000000r			; 0
CONST	ENDS
;	COMDAT ?g_XMIdentityR1@DirectX@@3UXMVECTORF32@1@B
CONST	SEGMENT
?g_XMIdentityR1@DirectX@@3UXMVECTORF32@1@B DD 000000000r ; 0 ; DirectX::g_XMIdentityR1
	DD	03f800000r			; 1
	DD	000000000r			; 0
	DD	000000000r			; 0
CONST	ENDS
;	COMDAT ?g_XMIdentityR0@DirectX@@3UXMVECTORF32@1@B
CONST	SEGMENT
?g_XMIdentityR0@DirectX@@3UXMVECTORF32@1@B DD 03f800000r ; 1 ; DirectX::g_XMIdentityR0
	DD	000000000r			; 0
	DD	000000000r			; 0
	DD	000000000r			; 0
CONST	ENDS
;	COMDAT ?g_XMCosCoefficients1@DirectX@@3UXMVECTORF32@1@B
CONST	SEGMENT
?g_XMCosCoefficients1@DirectX@@3UXMVECTORF32@1@B DD 0b48bdd11r ; -2.60516e-007 ; DirectX::g_XMCosCoefficients1
	DD	0befff67er			; -0.499927
	DD	03d29f587r			; 0.0414939
	DD	0baa69fdbr			; -0.00127124
CONST	ENDS
;	COMDAT ?g_XMCosCoefficients0@DirectX@@3UXMVECTORF32@1@B
CONST	SEGMENT
?g_XMCosCoefficients0@DirectX@@3UXMVECTORF32@1@B DD 0bf000000r ; -0.5 ; DirectX::g_XMCosCoefficients0
	DD	03d2aaaa3r			; 0.0416666
	DD	0bab609aar			; -0.00138884
	DD	037cfb4c2r			; 2.47605e-005
CONST	ENDS
;	COMDAT ?g_XMSinCoefficients1@DirectX@@3UXMVECTORF32@1@B
CONST	SEGMENT
?g_XMSinCoefficients1@DirectX@@3UXMVECTORF32@1@B DD 0b2cd365br ; -2.38899e-008 ; DirectX::g_XMSinCoefficients1
	DD	0be2aa888r			; -0.166659
	DD	03c08373cr			; 0.00831395
	DD	0b9423ec8r			; -0.000185247
CONST	ENDS
;	COMDAT ?g_XMSinCoefficients0@DirectX@@3UXMVECTORF32@1@B
CONST	SEGMENT
?g_XMSinCoefficients0@DirectX@@3UXMVECTORF32@1@B DD 0be2aaaabr ; -0.166667 ; DirectX::g_XMSinCoefficients0
	DD	03c088886r			; 0.00833333
	DD	0b9500bf1r			; -0.000198409
	DD	03638b88er			; 2.75256e-006
CONST	ENDS
PUBLIC	_atan2f
PUBLIC	_fabsf
PUBLIC	_sqrtf
PUBLIC	??BXMVECTORF32@DirectX@@QBE?AT__m128@@XZ	; DirectX::XMVECTORF32::operator __m128
PUBLIC	??BXMVECTORI32@DirectX@@QBE?AT__m128@@XZ	; DirectX::XMVECTORI32::operator __m128
PUBLIC	??BXMVECTORU32@DirectX@@QBE?AT__m128@@XZ	; DirectX::XMVECTORU32::operator __m128
PUBLIC	??YDirectX@@YQAAT__m128@@AAT1@T1@@Z		; DirectX::operator+=
PUBLIC	??ZDirectX@@YQAAT__m128@@AAT1@T1@@Z		; DirectX::operator-=
PUBLIC	??XDirectX@@YAAAT__m128@@AAT1@M@Z		; DirectX::operator*=
PUBLIC	??HDirectX@@YQ?AT__m128@@T1@0@Z			; DirectX::operator+
PUBLIC	??GDirectX@@YQ?AT__m128@@T1@0@Z			; DirectX::operator-
PUBLIC	??DDirectX@@YQ?AT__m128@@T1@M@Z			; DirectX::operator*
PUBLIC	??KDirectX@@YQ?AT__m128@@T1@M@Z			; DirectX::operator/
PUBLIC	??0XMMATRIX@DirectX@@QAE@XZ			; DirectX::XMMATRIX::XMMATRIX
PUBLIC	??4XMMATRIX@DirectX@@QAEAAU01@ABU01@@Z		; DirectX::XMMATRIX::operator=
PUBLIC	??XXMMATRIX@DirectX@@QAQAAU01@U01@@Z		; DirectX::XMMATRIX::operator*=
PUBLIC	??DXMMATRIX@DirectX@@QBQ?AU01@U01@@Z		; DirectX::XMMATRIX::operator*
PUBLIC	??0XMFLOAT2@DirectX@@QAE@XZ			; DirectX::XMFLOAT2::XMFLOAT2
PUBLIC	??0XMFLOAT2@DirectX@@QAE@MM@Z			; DirectX::XMFLOAT2::XMFLOAT2
PUBLIC	??4XMFLOAT2@DirectX@@QAEAAU01@ABU01@@Z		; DirectX::XMFLOAT2::operator=
PUBLIC	??0XMFLOAT3@DirectX@@QAE@XZ			; DirectX::XMFLOAT3::XMFLOAT3
PUBLIC	??0XMFLOAT3@DirectX@@QAE@MMM@Z			; DirectX::XMFLOAT3::XMFLOAT3
PUBLIC	??4XMFLOAT3@DirectX@@QAEAAU01@ABU01@@Z		; DirectX::XMFLOAT3::operator=
PUBLIC	??0XMFLOAT4@DirectX@@QAE@XZ			; DirectX::XMFLOAT4::XMFLOAT4
PUBLIC	??4XMFLOAT4@DirectX@@QAEAAU01@ABU01@@Z		; DirectX::XMFLOAT4::operator=
PUBLIC	??0XMFLOAT4X4@DirectX@@QAE@XZ			; DirectX::XMFLOAT4X4::XMFLOAT4X4
PUBLIC	?XMLoadFloat2@DirectX@@YQ?AT__m128@@PBUXMFLOAT2@1@@Z ; DirectX::XMLoadFloat2
PUBLIC	?XMLoadFloat3@DirectX@@YQ?AT__m128@@PBUXMFLOAT3@1@@Z ; DirectX::XMLoadFloat3
PUBLIC	?XMLoadFloat4@DirectX@@YQ?AT__m128@@PBUXMFLOAT4@1@@Z ; DirectX::XMLoadFloat4
PUBLIC	?XMLoadFloat4x4@DirectX@@YQ?AUXMMATRIX@1@PBUXMFLOAT4X4@1@@Z ; DirectX::XMLoadFloat4x4
PUBLIC	?XMStoreFloat2@DirectX@@YQXPAUXMFLOAT2@1@T__m128@@@Z ; DirectX::XMStoreFloat2
PUBLIC	?XMStoreFloat3@DirectX@@YQXPAUXMFLOAT3@1@T__m128@@@Z ; DirectX::XMStoreFloat3
PUBLIC	?XMStoreFloat4@DirectX@@YQXPAUXMFLOAT4@1@T__m128@@@Z ; DirectX::XMStoreFloat4
PUBLIC	?XMStoreFloat4x4@DirectX@@YQXPAUXMFLOAT4X4@1@UXMMATRIX@1@@Z ; DirectX::XMStoreFloat4x4
PUBLIC	?XMVectorZero@DirectX@@YQ?AT__m128@@XZ		; DirectX::XMVectorZero
PUBLIC	?XMVectorSet@DirectX@@YQ?AT__m128@@MMMM@Z	; DirectX::XMVectorSet
PUBLIC	?XMVectorReplicate@DirectX@@YQ?AT__m128@@M@Z	; DirectX::XMVectorReplicate
PUBLIC	?XMVectorSplatX@DirectX@@YQ?AT__m128@@T2@@Z	; DirectX::XMVectorSplatX
PUBLIC	?XMVectorSplatY@DirectX@@YQ?AT__m128@@T2@@Z	; DirectX::XMVectorSplatY
PUBLIC	?XMVectorSplatZ@DirectX@@YQ?AT__m128@@T2@@Z	; DirectX::XMVectorSplatZ
PUBLIC	?XMVectorSplatW@DirectX@@YQ?AT__m128@@T2@@Z	; DirectX::XMVectorSplatW
PUBLIC	?XMVectorGetX@DirectX@@YQMT__m128@@@Z		; DirectX::XMVectorGetX
PUBLIC	?XMVectorSelect@DirectX@@YQ?AT__m128@@T2@00@Z	; DirectX::XMVectorSelect
PUBLIC	?XMVectorRound@DirectX@@YQ?AT__m128@@T2@@Z	; DirectX::XMVectorRound
PUBLIC	?XMVectorClamp@DirectX@@YQ?AT__m128@@T2@00@Z	; DirectX::XMVectorClamp
PUBLIC	?XMVectorNegate@DirectX@@YQ?AT__m128@@T2@@Z	; DirectX::XMVectorNegate
PUBLIC	?XMVectorAdd@DirectX@@YQ?AT__m128@@T2@0@Z	; DirectX::XMVectorAdd
PUBLIC	?XMVectorSubtract@DirectX@@YQ?AT__m128@@T2@0@Z	; DirectX::XMVectorSubtract
PUBLIC	?XMVectorMultiply@DirectX@@YQ?AT__m128@@T2@0@Z	; DirectX::XMVectorMultiply
PUBLIC	?XMVectorMultiplyAdd@DirectX@@YQ?AT__m128@@T2@00@Z ; DirectX::XMVectorMultiplyAdd
PUBLIC	?XMVectorDivide@DirectX@@YQ?AT__m128@@T2@0@Z	; DirectX::XMVectorDivide
PUBLIC	?XMVectorScale@DirectX@@YQ?AT__m128@@T2@M@Z	; DirectX::XMVectorScale
PUBLIC	?XMVectorModAngles@DirectX@@YQ?AT__m128@@T2@@Z	; DirectX::XMVectorModAngles
PUBLIC	?XMVectorSinCos@DirectX@@YQXPAT__m128@@0T2@@Z	; DirectX::XMVectorSinCos
PUBLIC	?XMVector3Equal@DirectX@@YQ_NT__m128@@0@Z	; DirectX::XMVector3Equal
PUBLIC	?XMVector3IsInfinite@DirectX@@YQ_NT__m128@@@Z	; DirectX::XMVector3IsInfinite
PUBLIC	?XMVector3Dot@DirectX@@YQ?AT__m128@@T2@0@Z	; DirectX::XMVector3Dot
PUBLIC	?XMVector3Cross@DirectX@@YQ?AT__m128@@T2@0@Z	; DirectX::XMVector3Cross
PUBLIC	?XMVector3LengthSq@DirectX@@YQ?AT__m128@@T2@@Z	; DirectX::XMVector3LengthSq
PUBLIC	?XMVector3Length@DirectX@@YQ?AT__m128@@T2@@Z	; DirectX::XMVector3Length
PUBLIC	?XMVector3Normalize@DirectX@@YQ?AT__m128@@T2@@Z	; DirectX::XMVector3Normalize
PUBLIC	?XMVector3TransformCoord@DirectX@@YQ?AT__m128@@T2@UXMMATRIX@1@@Z ; DirectX::XMVector3TransformCoord
PUBLIC	?XMVector3TransformNormal@DirectX@@YQ?AT__m128@@T2@UXMMATRIX@1@@Z ; DirectX::XMVector3TransformNormal
PUBLIC	?XMVector4LessOrEqual@DirectX@@YQ_NT__m128@@0@Z	; DirectX::XMVector4LessOrEqual
PUBLIC	?XMVector4Dot@DirectX@@YQ?AT__m128@@T2@0@Z	; DirectX::XMVector4Dot
PUBLIC	?XMVector4Length@DirectX@@YQ?AT__m128@@T2@@Z	; DirectX::XMVector4Length
PUBLIC	?XMMatrixMultiply@DirectX@@YQ?AUXMMATRIX@1@U21@ABU21@@Z ; DirectX::XMMatrixMultiply
PUBLIC	?XMMatrixTranspose@DirectX@@YQ?AUXMMATRIX@1@U21@@Z ; DirectX::XMMatrixTranspose
PUBLIC	?XMMatrixInverse@DirectX@@YQ?AUXMMATRIX@1@PAT__m128@@U21@@Z ; DirectX::XMMatrixInverse
PUBLIC	?XMMatrixIdentity@DirectX@@YQ?AUXMMATRIX@1@XZ	; DirectX::XMMatrixIdentity
PUBLIC	?XMMatrixTranslation@DirectX@@YQ?AUXMMATRIX@1@MMM@Z ; DirectX::XMMatrixTranslation
PUBLIC	?XMMatrixRotationRollPitchYaw@DirectX@@YQ?AUXMMATRIX@1@MMM@Z ; DirectX::XMMatrixRotationRollPitchYaw
PUBLIC	?XMMatrixRotationRollPitchYawFromVector@DirectX@@YQ?AUXMMATRIX@1@T__m128@@@Z ; DirectX::XMMatrixRotationRollPitchYawFromVector
PUBLIC	?XMMatrixRotationQuaternion@DirectX@@YQ?AUXMMATRIX@1@T__m128@@@Z ; DirectX::XMMatrixRotationQuaternion
PUBLIC	?XMMatrixLookAtLH@DirectX@@YQ?AUXMMATRIX@1@T__m128@@00@Z ; DirectX::XMMatrixLookAtLH
PUBLIC	?XMMatrixLookToLH@DirectX@@YQ?AUXMMATRIX@1@T__m128@@00@Z ; DirectX::XMMatrixLookToLH
PUBLIC	?XMMatrixPerspectiveFovLH@DirectX@@YQ?AUXMMATRIX@1@MMMM@Z ; DirectX::XMMatrixPerspectiveFovLH
PUBLIC	?XMQuaternionMultiply@DirectX@@YQ?AT__m128@@T2@0@Z ; DirectX::XMQuaternionMultiply
PUBLIC	?XMQuaternionIdentity@DirectX@@YQ?AT__m128@@XZ	; DirectX::XMQuaternionIdentity
PUBLIC	?XMQuaternionRotationRollPitchYawFromVector@DirectX@@YQ?AT__m128@@T2@@Z ; DirectX::XMQuaternionRotationRollPitchYawFromVector
PUBLIC	?XMQuaternionRotationMatrix@DirectX@@YQ?AT__m128@@UXMMATRIX@1@@Z ; DirectX::XMQuaternionRotationMatrix
PUBLIC	?XMScalarNearEqual@DirectX@@YA_NMMM@Z		; DirectX::XMScalarNearEqual
PUBLIC	?XMScalarSinCos@DirectX@@YAXPAM0M@Z		; DirectX::XMScalarSinCos
PUBLIC	??$XMVectorPermute@$0A@$03$03$03@DirectX@@YQ?AT__m128@@T1@0@Z ; DirectX::XMVectorPermute<0,4,4,4>
PUBLIC	??$XMVectorPermute@$04$00$04$04@DirectX@@YQ?AT__m128@@T1@0@Z ; DirectX::XMVectorPermute<5,1,5,5>
PUBLIC	??$XMVectorPermute@$05$05$01$05@DirectX@@YQ?AT__m128@@T1@0@Z ; DirectX::XMVectorPermute<6,6,2,6>
PUBLIC	?IsStopped@CDXUTTimer@@QBE_NXZ			; CDXUTTimer::IsStopped
PUBLIC	?Permute@?$PermuteHelper@$0A@$0A@$00$00$00@Internal@DirectX@@SQ?AT__m128@@T4@0@Z ; DirectX::Internal::PermuteHelper<0,0,1,1,1>::Permute
PUBLIC	?Permute@?$PermuteHelper@$0FF@$00$0A@$00$00@Internal@DirectX@@SQ?AT__m128@@T4@0@Z ; DirectX::Internal::PermuteHelper<85,1,0,1,1>::Permute
PUBLIC	?Permute@?$PermuteHelper@$0KK@$00$00$0A@$00@Internal@DirectX@@SQ?AT__m128@@T4@0@Z ; DirectX::Internal::PermuteHelper<170,1,1,0,1>::Permute
PUBLIC	??0CD3DArcBall@@QAE@XZ				; CD3DArcBall::CD3DArcBall
PUBLIC	?Reset@CD3DArcBall@@QAEXXZ			; CD3DArcBall::Reset
PUBLIC	?SetWindow@CD3DArcBall@@QAEXHHM@Z		; CD3DArcBall::SetWindow
PUBLIC	?SetOffset@CD3DArcBall@@QAEXHH@Z		; CD3DArcBall::SetOffset
PUBLIC	?OnBegin@CD3DArcBall@@QAEXHH@Z			; CD3DArcBall::OnBegin
PUBLIC	?OnMove@CD3DArcBall@@QAEXHH@Z			; CD3DArcBall::OnMove
PUBLIC	?OnEnd@CD3DArcBall@@QAEXXZ			; CD3DArcBall::OnEnd
PUBLIC	?HandleMessages@CD3DArcBall@@QAEJPAUHWND__@@IIJ@Z ; CD3DArcBall::HandleMessages
PUBLIC	?GetRotationMatrix@CD3DArcBall@@QBE?AUXMMATRIX@DirectX@@XZ ; CD3DArcBall::GetRotationMatrix
PUBLIC	?IsBeingDragged@CD3DArcBall@@QBE_NXZ		; CD3DArcBall::IsBeingDragged
PUBLIC	?SetQuatNow@CD3DArcBall@@QAEXABT__m128@@@Z	; CD3DArcBall::SetQuatNow
PUBLIC	?QuatFromBallPoints@CD3DArcBall@@SA?AT__m128@@T2@0@Z ; CD3DArcBall::QuatFromBallPoints
PUBLIC	?ScreenToVector@CD3DArcBall@@IAE?AT__m128@@MM@Z	; CD3DArcBall::ScreenToVector
PUBLIC	??0CBaseCamera@@QAE@XZ				; CBaseCamera::CBaseCamera
PUBLIC	?HandleMessages@CBaseCamera@@UAEJPAUHWND__@@IIJ@Z ; CBaseCamera::HandleMessages
PUBLIC	?Reset@CBaseCamera@@UAEXXZ			; CBaseCamera::Reset
PUBLIC	?SetViewParams@CBaseCamera@@UAEXT__m128@@0@Z	; CBaseCamera::SetViewParams
PUBLIC	?SetProjParams@CBaseCamera@@UAEXMMMM@Z		; CBaseCamera::SetProjParams
PUBLIC	?SetDragRect@CBaseCamera@@UAEXABUtagRECT@@@Z	; CBaseCamera::SetDragRect
PUBLIC	?MapKey@CBaseCamera@@MAE?AW4D3DUtil_CameraKeys@@I@Z ; CBaseCamera::MapKey
PUBLIC	?IsKeyDown@CBaseCamera@@IBE_NE@Z		; CBaseCamera::IsKeyDown
PUBLIC	?ConstrainToBoundary@CBaseCamera@@IAE?AT__m128@@T2@@Z ; CBaseCamera::ConstrainToBoundary
PUBLIC	?UpdateMouseDelta@CBaseCamera@@IAEXXZ		; CBaseCamera::UpdateMouseDelta
PUBLIC	?UpdateVelocity@CBaseCamera@@IAEXM@Z		; CBaseCamera::UpdateVelocity
PUBLIC	?GetInput@CBaseCamera@@IAEX_N00@Z		; CBaseCamera::GetInput
PUBLIC	??0CFirstPersonCamera@@QAE@XZ			; CFirstPersonCamera::CFirstPersonCamera
PUBLIC	?FrameMove@CFirstPersonCamera@@UAEXM@Z		; CFirstPersonCamera::FrameMove
PUBLIC	?SetRotateButtons@CFirstPersonCamera@@QAEX_N000@Z ; CFirstPersonCamera::SetRotateButtons
PUBLIC	??0CModelViewerCamera@@QAE@XZ			; CModelViewerCamera::CModelViewerCamera
PUBLIC	?HandleMessages@CModelViewerCamera@@UAEJPAUHWND__@@IIJ@Z ; CModelViewerCamera::HandleMessages
PUBLIC	?FrameMove@CModelViewerCamera@@UAEXM@Z		; CModelViewerCamera::FrameMove
PUBLIC	?SetDragRect@CModelViewerCamera@@UAEXABUtagRECT@@@Z ; CModelViewerCamera::SetDragRect
PUBLIC	?Reset@CModelViewerCamera@@UAEXXZ		; CModelViewerCamera::Reset
PUBLIC	?SetViewParams@CModelViewerCamera@@UAEXT__m128@@0@Z ; CModelViewerCamera::SetViewParams
PUBLIC	?SetWindow@CModelViewerCamera@@QAEXHHM@Z	; CModelViewerCamera::SetWindow
PUBLIC	?SetRadius@CModelViewerCamera@@QAEXMMM@Z	; CModelViewerCamera::SetRadius
PUBLIC	??0CDXUTDirectionWidget@@QAE@XZ			; CDXUTDirectionWidget::CDXUTDirectionWidget
PUBLIC	?HandleMessages@CDXUTDirectionWidget@@QAEJPAUHWND__@@IIJ@Z ; CDXUTDirectionWidget::HandleMessages
PUBLIC	?OnRender@CDXUTDirectionWidget@@QAEJT__m128@@ABUXMMATRIX@DirectX@@10@Z ; CDXUTDirectionWidget::OnRender
PUBLIC	?StaticOnD3D11CreateDevice@CDXUTDirectionWidget@@SGJPAUID3D11Device@@PAUID3D11DeviceContext@@@Z ; CDXUTDirectionWidget::StaticOnD3D11CreateDevice
PUBLIC	?StaticOnD3D11DestroyDevice@CDXUTDirectionWidget@@SGXXZ ; CDXUTDirectionWidget::StaticOnD3D11DestroyDevice
PUBLIC	?UpdateLightDir@CDXUTDirectionWidget@@IAEJXZ	; CDXUTDirectionWidget::UpdateLightDir
PUBLIC	??$max@M@std@@YAABMABM0@Z			; std::max<float>
PUBLIC	??$min@M@std@@YAABMABM0@Z			; std::min<float>
PUBLIC	??$_Debug_lt@ABMABM@std@@YA_NABM0PB_WI@Z	; std::_Debug_lt<float const &,float const &>
PUBLIC	??$forward@ABM@std@@YAABMABM@Z			; std::forward<float const &>
PUBLIC	??$_Debug_lt_pred@U?$less@X@std@@ABMABM@std@@YA_NU?$less@X@0@ABM1PB_WI@Z ; std::_Debug_lt_pred<std::less<void>,float const &,float const &>
PUBLIC	??$?RABMABM@?$less@X@std@@QBE_NABM0@Z		; std::less<void>::operator()<float const &,float const &>
PUBLIC	?g_XMHalfPi@DirectX@@3UXMVECTORF32@1@B		; DirectX::g_XMHalfPi
PUBLIC	?g_XMPi@DirectX@@3UXMVECTORF32@1@B		; DirectX::g_XMPi
PUBLIC	?g_XMTwoPi@DirectX@@3UXMVECTORF32@1@B		; DirectX::g_XMTwoPi
PUBLIC	?g_XMReciprocalTwoPi@DirectX@@3UXMVECTORF32@1@B	; DirectX::g_XMReciprocalTwoPi
PUBLIC	??_C@_1JE@EKCDEKPD@?$AAc?$AA?3?$AA?2?$AAp?$AAr?$AAo?$AAg?$AAr?$AAa?$AAm?$AA?5?$AAf?$AAi?$AAl?$AAe?$AAs?$AA?5?$AA?$CI?$AAx?$AA8?$AA6?$AA?$CJ?$AA?2?$AAw?$AAi?$AAn?$AAd?$AAo?$AAw?$AAs?$AA?5?$AAk@ ; `string'
PUBLIC	??_C@_1BA@LBADLIHI@?$AAp?$AAS?$AAo?$AAu?$AAr?$AAc?$AAe?$AA?$AA@ ; `string'
PUBLIC	??_C@_1BK@FHLBGAOP@?$AAp?$AAD?$AAe?$AAs?$AAt?$AAi?$AAn?$AAa?$AAt?$AAi?$AAo?$AAn?$AA?$AA@ ; `string'
PUBLIC	??_C@_1JC@LGEHDEBK@?$AAc?$AA?3?$AA?2?$AAp?$AAr?$AAo?$AAg?$AAr?$AAa?$AAm?$AA?5?$AAf?$AAi?$AAl?$AAe?$AAs?$AA?5?$AA?$CI?$AAx?$AA8?$AA6?$AA?$CJ?$AA?2?$AAw?$AAi?$AAn?$AAd?$AAo?$AAw?$AAs?$AA?5?$AAk@ ; `string'
PUBLIC	?magic@?1??XMVectorRound@DirectX@@YQ?AT__m128@@T3@@Z@4UXMVECTORI32@2@B ; `DirectX::XMVectorRound'::`2'::magic
PUBLIC	??_C@_1DO@HJELAGIP@?$AAX?$AAM?$AAV?$AAe?$AAc?$AAt?$AAo?$AAr?$AA4?$AAL?$AAe?$AAs?$AAs?$AAO?$AAr?$AAE?$AAq?$AAu?$AAa?$AAl?$AA?$CI?$AAM?$AAi?$AAn?$AA?0?$AA?5?$AAM?$AAa?$AAx?$AA?$CJ?$AA?$AA@ ; `string'
PUBLIC	??_C@_1CA@PCMAADPN@?$AAp?$AAS?$AAi?$AAn?$AA?5?$AA?$CB?$AA?$DN?$AA?5?$AAn?$AAu?$AAl?$AAl?$AAp?$AAt?$AAr?$AA?$AA@ ; `string'
PUBLIC	??_C@_1CA@LFGCHHDM@?$AAp?$AAC?$AAo?$AAs?$AA?5?$AA?$CB?$AA?$DN?$AA?5?$AAn?$AAu?$AAl?$AAl?$AAp?$AAt?$AAr?$AA?$AA@ ; `string'
PUBLIC	??_C@_1JC@FPIPICAN@?$AAc?$AA?3?$AA?2?$AAp?$AAr?$AAo?$AAg?$AAr?$AAa?$AAm?$AA?5?$AAf?$AAi?$AAl?$AAe?$AAs?$AA?5?$AA?$CI?$AAx?$AA8?$AA6?$AA?$CJ?$AA?2?$AAw?$AAi?$AAn?$AAd?$AAo?$AAw?$AAs?$AA?5?$AAk@ ; `string'
PUBLIC	?Constant1110@?1??XMMatrixRotationQuaternion@DirectX@@YQ?AUXMMATRIX@2@T__m128@@@Z@4UXMVECTORF32@2@B ; `DirectX::XMMatrixRotationQuaternion'::`2'::Constant1110
PUBLIC	??_C@_1FM@KOIPKFLA@?$AA?$CB?$AAX?$AAM?$AAV?$AAe?$AAc?$AAt?$AAo?$AAr?$AA3?$AAE?$AAq?$AAu?$AAa?$AAl?$AA?$CI?$AAE?$AAy?$AAe?$AAD?$AAi?$AAr?$AAe?$AAc?$AAt?$AAi?$AAo?$AAn?$AA?0?$AA?5?$AAX?$AAM@ ; `string'
PUBLIC	??_C@_1EG@DOFHPLOD@?$AA?$CB?$AAX?$AAM?$AAV?$AAe?$AAc?$AAt?$AAo?$AAr?$AA3?$AAI?$AAs?$AAI?$AAn?$AAf?$AAi?$AAn?$AAi?$AAt?$AAe?$AA?$CI?$AAE?$AAy?$AAe?$AAD?$AAi?$AAr?$AAe?$AAc?$AAt?$AAi?$AAo@ ; `string'
PUBLIC	??_C@_1FK@IBPGMKAB@?$AA?$CB?$AAX?$AAM?$AAV?$AAe?$AAc?$AAt?$AAo?$AAr?$AA3?$AAE?$AAq?$AAu?$AAa?$AAl?$AA?$CI?$AAU?$AAp?$AAD?$AAi?$AAr?$AAe?$AAc?$AAt?$AAi?$AAo?$AAn?$AA?0?$AA?5?$AAX?$AAM?$AAV@ ; `string'
PUBLIC	??_C@_1EE@JAOFAOOK@?$AA?$CB?$AAX?$AAM?$AAV?$AAe?$AAc?$AAt?$AAo?$AAr?$AA3?$AAI?$AAs?$AAI?$AAn?$AAf?$AAi?$AAn?$AAi?$AAt?$AAe?$AA?$CI?$AAU?$AAp?$AAD?$AAi?$AAr?$AAe?$AAc?$AAt?$AAi?$AAo?$AAn@ ; `string'
PUBLIC	??_C@_1FE@IMEJOJAH@?$AA?$CB?$AAX?$AAM?$AAS?$AAc?$AAa?$AAl?$AAa?$AAr?$AAN?$AAe?$AAa?$AAr?$AAE?$AAq?$AAu?$AAa?$AAl?$AA?$CI?$AAF?$AAa?$AAr?$AAZ?$AA?0?$AA?5?$AAN?$AAe?$AAa?$AAr?$AAZ?$AA?0?$AA?5@ ; `string'
PUBLIC	??_C@_1GK@EFPMNDEN@?$AA?$CB?$AAX?$AAM?$AAS?$AAc?$AAa?$AAl?$AAa?$AAr?$AAN?$AAe?$AAa?$AAr?$AAE?$AAq?$AAu?$AAa?$AAl?$AA?$CI?$AAF?$AAo?$AAv?$AAA?$AAn?$AAg?$AAl?$AAe?$AAY?$AA?0?$AA?5?$AA0?$AA?4@ ; `string'
PUBLIC	??_C@_1FO@IACFEINC@?$AA?$CB?$AAX?$AAM?$AAS?$AAc?$AAa?$AAl?$AAa?$AAr?$AAN?$AAe?$AAa?$AAr?$AAE?$AAq?$AAu?$AAa?$AAl?$AA?$CI?$AAA?$AAs?$AAp?$AAe?$AAc?$AAt?$AAH?$AAB?$AAy?$AAW?$AA?0?$AA?5?$AA0@ ; `string'
PUBLIC	?ControlWZYX@?1??XMQuaternionMultiply@DirectX@@YQ?AT__m128@@T3@0@Z@4UXMVECTORF32@2@B ; `DirectX::XMQuaternionMultiply'::`2'::ControlWZYX
PUBLIC	?ControlZWXY@?1??XMQuaternionMultiply@DirectX@@YQ?AT__m128@@T3@0@Z@4UXMVECTORF32@2@B ; `DirectX::XMQuaternionMultiply'::`2'::ControlZWXY
PUBLIC	?ControlYXWZ@?1??XMQuaternionMultiply@DirectX@@YQ?AT__m128@@T3@0@Z@4UXMVECTORF32@2@B ; `DirectX::XMQuaternionMultiply'::`2'::ControlYXWZ
PUBLIC	??_C@_1IO@PAPJGEKF@?$AAc?$AA?3?$AA?2?$AAp?$AAr?$AAo?$AAg?$AAr?$AAa?$AAm?$AA?5?$AAf?$AAi?$AAl?$AAe?$AAs?$AA?5?$AA?$CI?$AAx?$AA8?$AA6?$AA?$CJ?$AA?2?$AAw?$AAi?$AAn?$AAd?$AAo?$AAw?$AAs?$AA?5?$AAk@ ; `string'
PUBLIC	?Sign@?1??XMQuaternionRotationRollPitchYawFromVector@DirectX@@YQ?AT__m128@@T3@@Z@4UXMVECTORF32@2@B ; `DirectX::XMQuaternionRotationRollPitchYawFromVector'::`2'::Sign
PUBLIC	?XMPMMP@?1??XMQuaternionRotationMatrix@DirectX@@YQ?AT__m128@@UXMMATRIX@2@@Z@4UXMVECTORF32@2@B ; `DirectX::XMQuaternionRotationMatrix'::`2'::XMPMMP
PUBLIC	?XMMPMP@?1??XMQuaternionRotationMatrix@DirectX@@YQ?AT__m128@@UXMMATRIX@2@@Z@4UXMVECTORF32@2@B ; `DirectX::XMQuaternionRotationMatrix'::`2'::XMMPMP
PUBLIC	?XMMMPP@?1??XMQuaternionRotationMatrix@DirectX@@YQ?AT__m128@@UXMMATRIX@2@@Z@4UXMVECTORF32@2@B ; `DirectX::XMQuaternionRotationMatrix'::`2'::XMMMPP
PUBLIC	??_C@_19MFJHDIJG@?$AAp?$AAS?$AAi?$AAn?$AA?$AA@	; `string'
PUBLIC	??_C@_19MNAGGFOC@?$AAp?$AAC?$AAo?$AAs?$AA?$AA@	; `string'
PUBLIC	?selectMask@?1??Permute@?$PermuteHelper@$0A@$0A@$00$00$00@Internal@DirectX@@SQ?AT__m128@@T5@0@Z@4UXMVECTORU32@4@B ; `DirectX::Internal::PermuteHelper<0,0,1,1,1>::Permute'::`2'::selectMask
PUBLIC	?selectMask@?1??Permute@?$PermuteHelper@$0FF@$00$0A@$00$00@Internal@DirectX@@SQ?AT__m128@@T5@0@Z@4UXMVECTORU32@4@B ; `DirectX::Internal::PermuteHelper<85,1,0,1,1>::Permute'::`2'::selectMask
PUBLIC	?selectMask@?1??Permute@?$PermuteHelper@$0KK@$00$00$0A@$00@Internal@DirectX@@SQ?AT__m128@@T5@0@Z@4UXMVECTORU32@4@B ; `DirectX::Internal::PermuteHelper<170,1,1,0,1>::Permute'::`2'::selectMask
PUBLIC	??_7CBaseCamera@@6B@				; CBaseCamera::`vftable'
PUBLIC	??_7CFirstPersonCamera@@6B@			; CFirstPersonCamera::`vftable'
PUBLIC	??_7CModelViewerCamera@@6B@			; CModelViewerCamera::`vftable'
PUBLIC	??_C@_1JC@HALMDPKM@?$AAC?$AA?3?$AA?2?$AAP?$AAr?$AAo?$AAg?$AAr?$AAa?$AAm?$AA?5?$AAF?$AAi?$AAl?$AAe?$AAs?$AA?5?$AA?$CI?$AAx?$AA8?$AA6?$AA?$CJ?$AA?2?$AAM?$AAi?$AAc?$AAr?$AAo?$AAs?$AAo?$AAf?$AAt@ ; `string'
PUBLIC	??_C@_1CE@IGJMOCCK@?$AAi?$AAn?$AAv?$AAa?$AAl?$AAi?$AAd?$AA?5?$AAo?$AAp?$AAe?$AAr?$AAa?$AAt?$AAo?$AAr?$AA?$DM?$AA?$AA@ ; `string'
PUBLIC	??_R4CBaseCamera@@6B@				; CBaseCamera::`RTTI Complete Object Locator'
PUBLIC	??_R0?AVCBaseCamera@@@8				; CBaseCamera `RTTI Type Descriptor'
PUBLIC	??_R3CBaseCamera@@8				; CBaseCamera::`RTTI Class Hierarchy Descriptor'
PUBLIC	??_R2CBaseCamera@@8				; CBaseCamera::`RTTI Base Class Array'
PUBLIC	??_R1A@?0A@EA@CBaseCamera@@8			; CBaseCamera::`RTTI Base Class Descriptor at (0,-1,0,64)'
PUBLIC	??_R4CFirstPersonCamera@@6B@			; CFirstPersonCamera::`RTTI Complete Object Locator'
PUBLIC	??_R0?AVCFirstPersonCamera@@@8			; CFirstPersonCamera `RTTI Type Descriptor'
PUBLIC	??_R3CFirstPersonCamera@@8			; CFirstPersonCamera::`RTTI Class Hierarchy Descriptor'
PUBLIC	??_R2CFirstPersonCamera@@8			; CFirstPersonCamera::`RTTI Base Class Array'
PUBLIC	??_R1A@?0A@EA@CFirstPersonCamera@@8		; CFirstPersonCamera::`RTTI Base Class Descriptor at (0,-1,0,64)'
PUBLIC	??_R4CModelViewerCamera@@6B@			; CModelViewerCamera::`RTTI Complete Object Locator'
PUBLIC	??_R0?AVCModelViewerCamera@@@8			; CModelViewerCamera `RTTI Type Descriptor'
PUBLIC	??_R3CModelViewerCamera@@8			; CModelViewerCamera::`RTTI Class Hierarchy Descriptor'
PUBLIC	??_R2CModelViewerCamera@@8			; CModelViewerCamera::`RTTI Base Class Array'
PUBLIC	??_R1A@?0A@EA@CModelViewerCamera@@8		; CModelViewerCamera::`RTTI Base Class Descriptor at (0,-1,0,64)'
PUBLIC	__real@00000000
PUBLIC	__real@0000000000000000
PUBLIC	__real@3638b88e
PUBLIC	__real@3727c5ac
PUBLIC	__real@37a7c5ac
PUBLIC	__real@37cfb4c2
PUBLIC	__real@39500bf1
PUBLIC	__real@3ab609aa
PUBLIC	__real@3c088886
PUBLIC	__real@3c23d70a
PUBLIC	__real@3ca3d70a
PUBLIC	__real@3d2aaaa3
PUBLIC	__real@3dcccccd
PUBLIC	__real@3e2aaaab
PUBLIC	__real@3e800000
PUBLIC	__real@3f000000
PUBLIC	__real@3f666666
PUBLIC	__real@3f800000
PUBLIC	__real@40000000
PUBLIC	__real@40800000
PUBLIC	__real@40a00000
PUBLIC	__real@42f00000
PUBLIC	__real@447a0000
PUBLIC	__real@7f7fffff
PUBLIC	__real@b2cd365b
PUBLIC	__real@b48bdd11
PUBLIC	__real@bf800000
PUBLIC	__real@c0000000
PUBLIC	__xmm@7fffffff7fffffff7fffffff7fffffff
PUBLIC	__xmm@80000000800000008000000080000000
EXTRN	__purecall:PROC
EXTRN	__imp__SetCapture@4:PROC
EXTRN	__imp__ReleaseCapture@0:PROC
EXTRN	__imp__GetForegroundWindow@0:PROC
EXTRN	__imp__GetClientRect@8:PROC
EXTRN	__imp__SetCursorPos@8:PROC
EXTRN	__imp__GetCursorPos@4:PROC
EXTRN	__imp__SetRect@20:PROC
EXTRN	__imp__PtInRect@12:PROC
EXTRN	__imp___wassert:PROC
EXTRN	__imp_?_Debug_message@std@@YAXPB_W0I@Z:PROC
EXTRN	?DXUTGetHWND@@YGPAUHWND__@@XZ:PROC		; DXUTGetHWND
EXTRN	?DXUTGetTime@@YGNXZ:PROC			; DXUTGetTime
EXTRN	?DXUTGetFPS@@YGMXZ:PROC				; DXUTGetFPS
EXTRN	?DXUTIsActive@@YG_NXZ:PROC			; DXUTIsActive
EXTRN	?DXUTGetGamepadState@@YAJKPAUDXUT_GAMEPAD@@_N1@Z:PROC ; DXUTGetGamepadState
EXTRN	?DXUTGetGlobalTimer@@YGPAVCDXUTTimer@@XZ:PROC	; DXUTGetGlobalTimer
EXTRN	?DXUTMonitorFromWindow@@YGPAUHMONITOR__@@PAUHWND__@@K@Z:PROC ; DXUTMonitorFromWindow
EXTRN	?DXUTGetMonitorInfo@@YGHPAUHMONITOR__@@PAUtagMONITORINFO@@@Z:PROC ; DXUTGetMonitorInfo
EXTRN	@_RTC_CheckStackVars@8:PROC
EXTRN	@__security_check_cookie@4:PROC
EXTRN	__RTC_CheckEsp:PROC
EXTRN	__RTC_InitBase:PROC
EXTRN	__RTC_Shutdown:PROC
EXTRN	___libm_sse2_atan2:PROC
EXTRN	_memset:PROC
EXTRN	??_7type_info@@6B@:QWORD			; type_info::`vftable'
EXTRN	___security_cookie:DWORD
EXTRN	__fltused:DWORD
;	COMDAT CRT$XCU
CRT$XCU	SEGMENT
_g_XMHalfPi$initializer$ DD FLAT:??__Eg_XMHalfPi@DirectX@@YAXXZ
CRT$XCU	ENDS
;	COMDAT __xmm@80000000800000008000000080000000
CONST	SEGMENT
__xmm@80000000800000008000000080000000 DB 00H, 00H, 00H, 080H, 00H, 00H, 00H
	DB	080H, 00H, 00H, 00H, 080H, 00H, 00H, 00H, 080H
CONST	ENDS
;	COMDAT __xmm@7fffffff7fffffff7fffffff7fffffff
CONST	SEGMENT
__xmm@7fffffff7fffffff7fffffff7fffffff DB 0ffH, 0ffH, 0ffH, 07fH, 0ffH, 0ffH
	DB	0ffH, 07fH, 0ffH, 0ffH, 0ffH, 07fH, 0ffH, 0ffH, 0ffH, 07fH
CONST	ENDS
;	COMDAT __real@c0000000
CONST	SEGMENT
__real@c0000000 DD 0c0000000r			; -2
CONST	ENDS
;	COMDAT __real@bf800000
CONST	SEGMENT
__real@bf800000 DD 0bf800000r			; -1
CONST	ENDS
;	COMDAT __real@b48bdd11
CONST	SEGMENT
__real@b48bdd11 DD 0b48bdd11r			; -2.60516e-007
CONST	ENDS
;	COMDAT __real@b2cd365b
CONST	SEGMENT
__real@b2cd365b DD 0b2cd365br			; -2.38899e-008
CONST	ENDS
;	COMDAT __real@7f7fffff
CONST	SEGMENT
__real@7f7fffff DD 07f7fffffr			; 3.40282e+038
CONST	ENDS
;	COMDAT __real@447a0000
CONST	SEGMENT
__real@447a0000 DD 0447a0000r			; 1000
CONST	ENDS
;	COMDAT __real@42f00000
CONST	SEGMENT
__real@42f00000 DD 042f00000r			; 120
CONST	ENDS
;	COMDAT __real@40a00000
CONST	SEGMENT
__real@40a00000 DD 040a00000r			; 5
CONST	ENDS
;	COMDAT __real@40800000
CONST	SEGMENT
__real@40800000 DD 040800000r			; 4
CONST	ENDS
;	COMDAT __real@40000000
CONST	SEGMENT
__real@40000000 DD 040000000r			; 2
CONST	ENDS
;	COMDAT __real@3f800000
CONST	SEGMENT
__real@3f800000 DD 03f800000r			; 1
CONST	ENDS
;	COMDAT __real@3f666666
CONST	SEGMENT
__real@3f666666 DD 03f666666r			; 0.9
CONST	ENDS
;	COMDAT __real@3f000000
CONST	SEGMENT
__real@3f000000 DD 03f000000r			; 0.5
CONST	ENDS
;	COMDAT __real@3e800000
CONST	SEGMENT
__real@3e800000 DD 03e800000r			; 0.25
CONST	ENDS
;	COMDAT __real@3e2aaaab
CONST	SEGMENT
__real@3e2aaaab DD 03e2aaaabr			; 0.166667
CONST	ENDS
;	COMDAT __real@3dcccccd
CONST	SEGMENT
__real@3dcccccd DD 03dcccccdr			; 0.1
CONST	ENDS
;	COMDAT __real@3d2aaaa3
CONST	SEGMENT
__real@3d2aaaa3 DD 03d2aaaa3r			; 0.0416666
CONST	ENDS
;	COMDAT __real@3ca3d70a
CONST	SEGMENT
__real@3ca3d70a DD 03ca3d70ar			; 0.02
CONST	ENDS
;	COMDAT __real@3c23d70a
CONST	SEGMENT
__real@3c23d70a DD 03c23d70ar			; 0.01
CONST	ENDS
;	COMDAT __real@3c088886
CONST	SEGMENT
__real@3c088886 DD 03c088886r			; 0.00833333
CONST	ENDS
;	COMDAT __real@3ab609aa
CONST	SEGMENT
__real@3ab609aa DD 03ab609aar			; 0.00138884
CONST	ENDS
;	COMDAT __real@39500bf1
CONST	SEGMENT
__real@39500bf1 DD 039500bf1r			; 0.000198409
CONST	ENDS
;	COMDAT __real@37cfb4c2
CONST	SEGMENT
__real@37cfb4c2 DD 037cfb4c2r			; 2.47605e-005
CONST	ENDS
;	COMDAT __real@37a7c5ac
CONST	SEGMENT
__real@37a7c5ac DD 037a7c5acr			; 2e-005
CONST	ENDS
;	COMDAT __real@3727c5ac
CONST	SEGMENT
__real@3727c5ac DD 03727c5acr			; 1e-005
CONST	ENDS
;	COMDAT __real@3638b88e
CONST	SEGMENT
__real@3638b88e DD 03638b88er			; 2.75256e-006
CONST	ENDS
;	COMDAT __real@0000000000000000
CONST	SEGMENT
__real@0000000000000000 DQ 00000000000000000r	; 0
CONST	ENDS
;	COMDAT __real@00000000
CONST	SEGMENT
__real@00000000 DD 000000000r			; 0
CONST	ENDS
;	COMDAT rtc$TMZ
rtc$TMZ	SEGMENT
__RTC_Shutdown.rtc$TMZ DD FLAT:__RTC_Shutdown
rtc$TMZ	ENDS
;	COMDAT rtc$IMZ
rtc$IMZ	SEGMENT
__RTC_InitBase.rtc$IMZ DD FLAT:__RTC_InitBase
rtc$IMZ	ENDS
;	COMDAT ??_R1A@?0A@EA@CModelViewerCamera@@8
rdata$r	SEGMENT
??_R1A@?0A@EA@CModelViewerCamera@@8 DD FLAT:??_R0?AVCModelViewerCamera@@@8 ; CModelViewerCamera::`RTTI Base Class Descriptor at (0,-1,0,64)'
	DD	01H
	DD	00H
	DD	0ffffffffH
	DD	00H
	DD	040H
	DD	FLAT:??_R3CModelViewerCamera@@8
rdata$r	ENDS
;	COMDAT ??_R2CModelViewerCamera@@8
rdata$r	SEGMENT
??_R2CModelViewerCamera@@8 DD FLAT:??_R1A@?0A@EA@CModelViewerCamera@@8 ; CModelViewerCamera::`RTTI Base Class Array'
	DD	FLAT:??_R1A@?0A@EA@CBaseCamera@@8
rdata$r	ENDS
;	COMDAT ??_R3CModelViewerCamera@@8
rdata$r	SEGMENT
??_R3CModelViewerCamera@@8 DD 00H			; CModelViewerCamera::`RTTI Class Hierarchy Descriptor'
	DD	00H
	DD	02H
	DD	FLAT:??_R2CModelViewerCamera@@8
rdata$r	ENDS
;	COMDAT ??_R0?AVCModelViewerCamera@@@8
data$r	SEGMENT
??_R0?AVCModelViewerCamera@@@8 DD FLAT:??_7type_info@@6B@ ; CModelViewerCamera `RTTI Type Descriptor'
	DD	00H
	DB	'.?AVCModelViewerCamera@@', 00H
data$r	ENDS
;	COMDAT ??_R4CModelViewerCamera@@6B@
rdata$r	SEGMENT
??_R4CModelViewerCamera@@6B@ DD 00H			; CModelViewerCamera::`RTTI Complete Object Locator'
	DD	00H
	DD	00H
	DD	FLAT:??_R0?AVCModelViewerCamera@@@8
	DD	FLAT:??_R3CModelViewerCamera@@8
rdata$r	ENDS
;	COMDAT ??_R1A@?0A@EA@CFirstPersonCamera@@8
rdata$r	SEGMENT
??_R1A@?0A@EA@CFirstPersonCamera@@8 DD FLAT:??_R0?AVCFirstPersonCamera@@@8 ; CFirstPersonCamera::`RTTI Base Class Descriptor at (0,-1,0,64)'
	DD	01H
	DD	00H
	DD	0ffffffffH
	DD	00H
	DD	040H
	DD	FLAT:??_R3CFirstPersonCamera@@8
rdata$r	ENDS
;	COMDAT ??_R2CFirstPersonCamera@@8
rdata$r	SEGMENT
??_R2CFirstPersonCamera@@8 DD FLAT:??_R1A@?0A@EA@CFirstPersonCamera@@8 ; CFirstPersonCamera::`RTTI Base Class Array'
	DD	FLAT:??_R1A@?0A@EA@CBaseCamera@@8
rdata$r	ENDS
;	COMDAT ??_R3CFirstPersonCamera@@8
rdata$r	SEGMENT
??_R3CFirstPersonCamera@@8 DD 00H			; CFirstPersonCamera::`RTTI Class Hierarchy Descriptor'
	DD	00H
	DD	02H
	DD	FLAT:??_R2CFirstPersonCamera@@8
rdata$r	ENDS
;	COMDAT ??_R0?AVCFirstPersonCamera@@@8
data$r	SEGMENT
??_R0?AVCFirstPersonCamera@@@8 DD FLAT:??_7type_info@@6B@ ; CFirstPersonCamera `RTTI Type Descriptor'
	DD	00H
	DB	'.?AVCFirstPersonCamera@@', 00H
data$r	ENDS
;	COMDAT ??_R4CFirstPersonCamera@@6B@
rdata$r	SEGMENT
??_R4CFirstPersonCamera@@6B@ DD 00H			; CFirstPersonCamera::`RTTI Complete Object Locator'
	DD	00H
	DD	00H
	DD	FLAT:??_R0?AVCFirstPersonCamera@@@8
	DD	FLAT:??_R3CFirstPersonCamera@@8
rdata$r	ENDS
;	COMDAT ??_R1A@?0A@EA@CBaseCamera@@8
rdata$r	SEGMENT
??_R1A@?0A@EA@CBaseCamera@@8 DD FLAT:??_R0?AVCBaseCamera@@@8 ; CBaseCamera::`RTTI Base Class Descriptor at (0,-1,0,64)'
	DD	00H
	DD	00H
	DD	0ffffffffH
	DD	00H
	DD	040H
	DD	FLAT:??_R3CBaseCamera@@8
rdata$r	ENDS
;	COMDAT ??_R2CBaseCamera@@8
rdata$r	SEGMENT
??_R2CBaseCamera@@8 DD FLAT:??_R1A@?0A@EA@CBaseCamera@@8 ; CBaseCamera::`RTTI Base Class Array'
rdata$r	ENDS
;	COMDAT ??_R3CBaseCamera@@8
rdata$r	SEGMENT
??_R3CBaseCamera@@8 DD 00H				; CBaseCamera::`RTTI Class Hierarchy Descriptor'
	DD	00H
	DD	01H
	DD	FLAT:??_R2CBaseCamera@@8
rdata$r	ENDS
;	COMDAT ??_R0?AVCBaseCamera@@@8
data$r	SEGMENT
??_R0?AVCBaseCamera@@@8 DD FLAT:??_7type_info@@6B@	; CBaseCamera `RTTI Type Descriptor'
	DD	00H
	DB	'.?AVCBaseCamera@@', 00H
data$r	ENDS
;	COMDAT ??_R4CBaseCamera@@6B@
rdata$r	SEGMENT
??_R4CBaseCamera@@6B@ DD 00H				; CBaseCamera::`RTTI Complete Object Locator'
	DD	00H
	DD	00H
	DD	FLAT:??_R0?AVCBaseCamera@@@8
	DD	FLAT:??_R3CBaseCamera@@8
rdata$r	ENDS
;	COMDAT ??_C@_1CE@IGJMOCCK@?$AAi?$AAn?$AAv?$AAa?$AAl?$AAi?$AAd?$AA?5?$AAo?$AAp?$AAe?$AAr?$AAa?$AAt?$AAo?$AAr?$AA?$DM?$AA?$AA@
CONST	SEGMENT
??_C@_1CE@IGJMOCCK@?$AAi?$AAn?$AAv?$AAa?$AAl?$AAi?$AAd?$AA?5?$AAo?$AAp?$AAe?$AAr?$AAa?$AAt?$AAo?$AAr?$AA?$DM?$AA?$AA@ DB 'i'
	DB	00H, 'n', 00H, 'v', 00H, 'a', 00H, 'l', 00H, 'i', 00H, 'd', 00H
	DB	' ', 00H, 'o', 00H, 'p', 00H, 'e', 00H, 'r', 00H, 'a', 00H, 't'
	DB	00H, 'o', 00H, 'r', 00H, '<', 00H, 00H, 00H	; `string'
CONST	ENDS
;	COMDAT ??_C@_1JC@HALMDPKM@?$AAC?$AA?3?$AA?2?$AAP?$AAr?$AAo?$AAg?$AAr?$AAa?$AAm?$AA?5?$AAF?$AAi?$AAl?$AAe?$AAs?$AA?5?$AA?$CI?$AAx?$AA8?$AA6?$AA?$CJ?$AA?2?$AAM?$AAi?$AAc?$AAr?$AAo?$AAs?$AAo?$AAf?$AAt@
CONST	SEGMENT
??_C@_1JC@HALMDPKM@?$AAC?$AA?3?$AA?2?$AAP?$AAr?$AAo?$AAg?$AAr?$AAa?$AAm?$AA?5?$AAF?$AAi?$AAl?$AAe?$AAs?$AA?5?$AA?$CI?$AAx?$AA8?$AA6?$AA?$CJ?$AA?2?$AAM?$AAi?$AAc?$AAr?$AAo?$AAs?$AAo?$AAf?$AAt@ DB 'C'
	DB	00H, ':', 00H, '\', 00H, 'P', 00H, 'r', 00H, 'o', 00H, 'g', 00H
	DB	'r', 00H, 'a', 00H, 'm', 00H, ' ', 00H, 'F', 00H, 'i', 00H, 'l'
	DB	00H, 'e', 00H, 's', 00H, ' ', 00H, '(', 00H, 'x', 00H, '8', 00H
	DB	'6', 00H, ')', 00H, '\', 00H, 'M', 00H, 'i', 00H, 'c', 00H, 'r'
	DB	00H, 'o', 00H, 's', 00H, 'o', 00H, 'f', 00H, 't', 00H, ' ', 00H
	DB	'V', 00H, 'i', 00H, 's', 00H, 'u', 00H, 'a', 00H, 'l', 00H, ' '
	DB	00H, 'S', 00H, 't', 00H, 'u', 00H, 'd', 00H, 'i', 00H, 'o', 00H
	DB	' ', 00H, '1', 00H, '2', 00H, '.', 00H, '0', 00H, '\', 00H, 'V'
	DB	00H, 'C', 00H, '\', 00H, 'i', 00H, 'n', 00H, 'c', 00H, 'l', 00H
	DB	'u', 00H, 'd', 00H, 'e', 00H, '\', 00H, 'a', 00H, 'l', 00H, 'g'
	DB	00H, 'o', 00H, 'r', 00H, 'i', 00H, 't', 00H, 'h', 00H, 'm', 00H
	DB	00H, 00H					; `string'
CONST	ENDS
;	COMDAT ??_7CModelViewerCamera@@6B@
CONST	SEGMENT
??_7CModelViewerCamera@@6B@ DD FLAT:??_R4CModelViewerCamera@@6B@ ; CModelViewerCamera::`vftable'
	DD	FLAT:?HandleMessages@CModelViewerCamera@@UAEJPAUHWND__@@IIJ@Z
	DD	FLAT:?FrameMove@CModelViewerCamera@@UAEXM@Z
	DD	FLAT:?Reset@CModelViewerCamera@@UAEXXZ
	DD	FLAT:?SetViewParams@CModelViewerCamera@@UAEXT__m128@@0@Z
	DD	FLAT:?SetProjParams@CBaseCamera@@UAEXMMMM@Z
	DD	FLAT:?SetDragRect@CModelViewerCamera@@UAEXABUtagRECT@@@Z
	DD	FLAT:?MapKey@CBaseCamera@@MAE?AW4D3DUtil_CameraKeys@@I@Z
CONST	ENDS
;	COMDAT ??_7CFirstPersonCamera@@6B@
CONST	SEGMENT
??_7CFirstPersonCamera@@6B@ DD FLAT:??_R4CFirstPersonCamera@@6B@ ; CFirstPersonCamera::`vftable'
	DD	FLAT:?HandleMessages@CBaseCamera@@UAEJPAUHWND__@@IIJ@Z
	DD	FLAT:?FrameMove@CFirstPersonCamera@@UAEXM@Z
	DD	FLAT:?Reset@CBaseCamera@@UAEXXZ
	DD	FLAT:?SetViewParams@CBaseCamera@@UAEXT__m128@@0@Z
	DD	FLAT:?SetProjParams@CBaseCamera@@UAEXMMMM@Z
	DD	FLAT:?SetDragRect@CBaseCamera@@UAEXABUtagRECT@@@Z
	DD	FLAT:?MapKey@CBaseCamera@@MAE?AW4D3DUtil_CameraKeys@@I@Z
CONST	ENDS
;	COMDAT ??_7CBaseCamera@@6B@
CONST	SEGMENT
??_7CBaseCamera@@6B@ DD FLAT:??_R4CBaseCamera@@6B@	; CBaseCamera::`vftable'
	DD	FLAT:?HandleMessages@CBaseCamera@@UAEJPAUHWND__@@IIJ@Z
	DD	FLAT:__purecall
	DD	FLAT:?Reset@CBaseCamera@@UAEXXZ
	DD	FLAT:?SetViewParams@CBaseCamera@@UAEXT__m128@@0@Z
	DD	FLAT:?SetProjParams@CBaseCamera@@UAEXMMMM@Z
	DD	FLAT:?SetDragRect@CBaseCamera@@UAEXABUtagRECT@@@Z
	DD	FLAT:?MapKey@CBaseCamera@@MAE?AW4D3DUtil_CameraKeys@@I@Z
CONST	ENDS
;	COMDAT ?selectMask@?1??Permute@?$PermuteHelper@$0KK@$00$00$0A@$00@Internal@DirectX@@SQ?AT__m128@@T5@0@Z@4UXMVECTORU32@4@B
CONST	SEGMENT
?selectMask@?1??Permute@?$PermuteHelper@$0KK@$00$00$0A@$00@Internal@DirectX@@SQ?AT__m128@@T5@0@Z@4UXMVECTORU32@4@B DD 0ffffffffH ; `DirectX::Internal::PermuteHelper<170,1,1,0,1>::Permute'::`2'::selectMask
	DD	0ffffffffH
	DD	00H
	DD	0ffffffffH
CONST	ENDS
;	COMDAT ?selectMask@?1??Permute@?$PermuteHelper@$0FF@$00$0A@$00$00@Internal@DirectX@@SQ?AT__m128@@T5@0@Z@4UXMVECTORU32@4@B
CONST	SEGMENT
?selectMask@?1??Permute@?$PermuteHelper@$0FF@$00$0A@$00$00@Internal@DirectX@@SQ?AT__m128@@T5@0@Z@4UXMVECTORU32@4@B DD 0ffffffffH ; `DirectX::Internal::PermuteHelper<85,1,0,1,1>::Permute'::`2'::selectMask
	DD	00H
	DD	0ffffffffH
	DD	0ffffffffH
CONST	ENDS
;	COMDAT ?selectMask@?1??Permute@?$PermuteHelper@$0A@$0A@$00$00$00@Internal@DirectX@@SQ?AT__m128@@T5@0@Z@4UXMVECTORU32@4@B
CONST	SEGMENT
?selectMask@?1??Permute@?$PermuteHelper@$0A@$0A@$00$00$00@Internal@DirectX@@SQ?AT__m128@@T5@0@Z@4UXMVECTORU32@4@B DD 00H ; `DirectX::Internal::PermuteHelper<0,0,1,1,1>::Permute'::`2'::selectMask
	DD	0ffffffffH
	DD	0ffffffffH
	DD	0ffffffffH
CONST	ENDS
;	COMDAT ??_C@_19MNAGGFOC@?$AAp?$AAC?$AAo?$AAs?$AA?$AA@
CONST	SEGMENT
??_C@_19MNAGGFOC@?$AAp?$AAC?$AAo?$AAs?$AA?$AA@ DB 'p', 00H, 'C', 00H, 'o', 00H
	DB	's', 00H, 00H, 00H				; `string'
CONST	ENDS
;	COMDAT ??_C@_19MFJHDIJG@?$AAp?$AAS?$AAi?$AAn?$AA?$AA@
CONST	SEGMENT
??_C@_19MFJHDIJG@?$AAp?$AAS?$AAi?$AAn?$AA?$AA@ DB 'p', 00H, 'S', 00H, 'i', 00H
	DB	'n', 00H, 00H, 00H				; `string'
CONST	ENDS
;	COMDAT ?XMMMPP@?1??XMQuaternionRotationMatrix@DirectX@@YQ?AT__m128@@UXMMATRIX@2@@Z@4UXMVECTORF32@2@B
CONST	SEGMENT
?XMMMPP@?1??XMQuaternionRotationMatrix@DirectX@@YQ?AT__m128@@UXMMATRIX@2@@Z@4UXMVECTORF32@2@B DD 0bf800000r ; -1 ; `DirectX::XMQuaternionRotationMatrix'::`2'::XMMMPP
	DD	0bf800000r			; -1
	DD	03f800000r			; 1
	DD	03f800000r			; 1
CONST	ENDS
;	COMDAT ?XMMPMP@?1??XMQuaternionRotationMatrix@DirectX@@YQ?AT__m128@@UXMMATRIX@2@@Z@4UXMVECTORF32@2@B
CONST	SEGMENT
?XMMPMP@?1??XMQuaternionRotationMatrix@DirectX@@YQ?AT__m128@@UXMMATRIX@2@@Z@4UXMVECTORF32@2@B DD 0bf800000r ; -1 ; `DirectX::XMQuaternionRotationMatrix'::`2'::XMMPMP
	DD	03f800000r			; 1
	DD	0bf800000r			; -1
	DD	03f800000r			; 1
CONST	ENDS
;	COMDAT ?XMPMMP@?1??XMQuaternionRotationMatrix@DirectX@@YQ?AT__m128@@UXMMATRIX@2@@Z@4UXMVECTORF32@2@B
CONST	SEGMENT
?XMPMMP@?1??XMQuaternionRotationMatrix@DirectX@@YQ?AT__m128@@UXMMATRIX@2@@Z@4UXMVECTORF32@2@B DD 03f800000r ; 1 ; `DirectX::XMQuaternionRotationMatrix'::`2'::XMPMMP
	DD	0bf800000r			; -1
	DD	0bf800000r			; -1
	DD	03f800000r			; 1
CONST	ENDS
;	COMDAT ?Sign@?1??XMQuaternionRotationRollPitchYawFromVector@DirectX@@YQ?AT__m128@@T3@@Z@4UXMVECTORF32@2@B
CONST	SEGMENT
?Sign@?1??XMQuaternionRotationRollPitchYawFromVector@DirectX@@YQ?AT__m128@@T3@@Z@4UXMVECTORF32@2@B DD 03f800000r ; 1 ; `DirectX::XMQuaternionRotationRollPitchYawFromVector'::`2'::Sign
	DD	0bf800000r			; -1
	DD	0bf800000r			; -1
	DD	03f800000r			; 1
CONST	ENDS
;	COMDAT ??_C@_1IO@PAPJGEKF@?$AAc?$AA?3?$AA?2?$AAp?$AAr?$AAo?$AAg?$AAr?$AAa?$AAm?$AA?5?$AAf?$AAi?$AAl?$AAe?$AAs?$AA?5?$AA?$CI?$AAx?$AA8?$AA6?$AA?$CJ?$AA?2?$AAw?$AAi?$AAn?$AAd?$AAo?$AAw?$AAs?$AA?5?$AAk@
CONST	SEGMENT
??_C@_1IO@PAPJGEKF@?$AAc?$AA?3?$AA?2?$AAp?$AAr?$AAo?$AAg?$AAr?$AAa?$AAm?$AA?5?$AAf?$AAi?$AAl?$AAe?$AAs?$AA?5?$AA?$CI?$AAx?$AA8?$AA6?$AA?$CJ?$AA?2?$AAw?$AAi?$AAn?$AAd?$AAo?$AAw?$AAs?$AA?5?$AAk@ DB 'c'
	DB	00H, ':', 00H, '\', 00H, 'p', 00H, 'r', 00H, 'o', 00H, 'g', 00H
	DB	'r', 00H, 'a', 00H, 'm', 00H, ' ', 00H, 'f', 00H, 'i', 00H, 'l'
	DB	00H, 'e', 00H, 's', 00H, ' ', 00H, '(', 00H, 'x', 00H, '8', 00H
	DB	'6', 00H, ')', 00H, '\', 00H, 'w', 00H, 'i', 00H, 'n', 00H, 'd'
	DB	00H, 'o', 00H, 'w', 00H, 's', 00H, ' ', 00H, 'k', 00H, 'i', 00H
	DB	't', 00H, 's', 00H, '\', 00H, '8', 00H, '.', 00H, '1', 00H, '\'
	DB	00H, 'i', 00H, 'n', 00H, 'c', 00H, 'l', 00H, 'u', 00H, 'd', 00H
	DB	'e', 00H, '\', 00H, 'u', 00H, 'm', 00H, '\', 00H, 'D', 00H, 'i'
	DB	00H, 'r', 00H, 'e', 00H, 'c', 00H, 't', 00H, 'X', 00H, 'M', 00H
	DB	'a', 00H, 't', 00H, 'h', 00H, 'M', 00H, 'i', 00H, 's', 00H, 'c'
	DB	00H, '.', 00H, 'i', 00H, 'n', 00H, 'l', 00H, 00H, 00H ; `string'
CONST	ENDS
;	COMDAT ?ControlYXWZ@?1??XMQuaternionMultiply@DirectX@@YQ?AT__m128@@T3@0@Z@4UXMVECTORF32@2@B
CONST	SEGMENT
?ControlYXWZ@?1??XMQuaternionMultiply@DirectX@@YQ?AT__m128@@T3@0@Z@4UXMVECTORF32@2@B DD 0bf800000r ; -1 ; `DirectX::XMQuaternionMultiply'::`2'::ControlYXWZ
	DD	03f800000r			; 1
	DD	03f800000r			; 1
	DD	0bf800000r			; -1
CONST	ENDS
;	COMDAT ?ControlZWXY@?1??XMQuaternionMultiply@DirectX@@YQ?AT__m128@@T3@0@Z@4UXMVECTORF32@2@B
CONST	SEGMENT
?ControlZWXY@?1??XMQuaternionMultiply@DirectX@@YQ?AT__m128@@T3@0@Z@4UXMVECTORF32@2@B DD 03f800000r ; 1 ; `DirectX::XMQuaternionMultiply'::`2'::ControlZWXY
	DD	03f800000r			; 1
	DD	0bf800000r			; -1
	DD	0bf800000r			; -1
CONST	ENDS
;	COMDAT ?ControlWZYX@?1??XMQuaternionMultiply@DirectX@@YQ?AT__m128@@T3@0@Z@4UXMVECTORF32@2@B
CONST	SEGMENT
?ControlWZYX@?1??XMQuaternionMultiply@DirectX@@YQ?AT__m128@@T3@0@Z@4UXMVECTORF32@2@B DD 03f800000r ; 1 ; `DirectX::XMQuaternionMultiply'::`2'::ControlWZYX
	DD	0bf800000r			; -1
	DD	03f800000r			; 1
	DD	0bf800000r			; -1
CONST	ENDS
;	COMDAT ??_C@_1FO@IACFEINC@?$AA?$CB?$AAX?$AAM?$AAS?$AAc?$AAa?$AAl?$AAa?$AAr?$AAN?$AAe?$AAa?$AAr?$AAE?$AAq?$AAu?$AAa?$AAl?$AA?$CI?$AAA?$AAs?$AAp?$AAe?$AAc?$AAt?$AAH?$AAB?$AAy?$AAW?$AA?0?$AA?5?$AA0@
CONST	SEGMENT
??_C@_1FO@IACFEINC@?$AA?$CB?$AAX?$AAM?$AAS?$AAc?$AAa?$AAl?$AAa?$AAr?$AAN?$AAe?$AAa?$AAr?$AAE?$AAq?$AAu?$AAa?$AAl?$AA?$CI?$AAA?$AAs?$AAp?$AAe?$AAc?$AAt?$AAH?$AAB?$AAy?$AAW?$AA?0?$AA?5?$AA0@ DB '!'
	DB	00H, 'X', 00H, 'M', 00H, 'S', 00H, 'c', 00H, 'a', 00H, 'l', 00H
	DB	'a', 00H, 'r', 00H, 'N', 00H, 'e', 00H, 'a', 00H, 'r', 00H, 'E'
	DB	00H, 'q', 00H, 'u', 00H, 'a', 00H, 'l', 00H, '(', 00H, 'A', 00H
	DB	's', 00H, 'p', 00H, 'e', 00H, 'c', 00H, 't', 00H, 'H', 00H, 'B'
	DB	00H, 'y', 00H, 'W', 00H, ',', 00H, ' ', 00H, '0', 00H, '.', 00H
	DB	'0', 00H, 'f', 00H, ',', 00H, ' ', 00H, '0', 00H, '.', 00H, '0'
	DB	00H, '0', 00H, '0', 00H, '0', 00H, '1', 00H, 'f', 00H, ')', 00H
	DB	00H, 00H					; `string'
CONST	ENDS
;	COMDAT ??_C@_1GK@EFPMNDEN@?$AA?$CB?$AAX?$AAM?$AAS?$AAc?$AAa?$AAl?$AAa?$AAr?$AAN?$AAe?$AAa?$AAr?$AAE?$AAq?$AAu?$AAa?$AAl?$AA?$CI?$AAF?$AAo?$AAv?$AAA?$AAn?$AAg?$AAl?$AAe?$AAY?$AA?0?$AA?5?$AA0?$AA?4@
CONST	SEGMENT
??_C@_1GK@EFPMNDEN@?$AA?$CB?$AAX?$AAM?$AAS?$AAc?$AAa?$AAl?$AAa?$AAr?$AAN?$AAe?$AAa?$AAr?$AAE?$AAq?$AAu?$AAa?$AAl?$AA?$CI?$AAF?$AAo?$AAv?$AAA?$AAn?$AAg?$AAl?$AAe?$AAY?$AA?0?$AA?5?$AA0?$AA?4@ DB '!'
	DB	00H, 'X', 00H, 'M', 00H, 'S', 00H, 'c', 00H, 'a', 00H, 'l', 00H
	DB	'a', 00H, 'r', 00H, 'N', 00H, 'e', 00H, 'a', 00H, 'r', 00H, 'E'
	DB	00H, 'q', 00H, 'u', 00H, 'a', 00H, 'l', 00H, '(', 00H, 'F', 00H
	DB	'o', 00H, 'v', 00H, 'A', 00H, 'n', 00H, 'g', 00H, 'l', 00H, 'e'
	DB	00H, 'Y', 00H, ',', 00H, ' ', 00H, '0', 00H, '.', 00H, '0', 00H
	DB	'f', 00H, ',', 00H, ' ', 00H, '0', 00H, '.', 00H, '0', 00H, '0'
	DB	00H, '0', 00H, '0', 00H, '1', 00H, 'f', 00H, ' ', 00H, '*', 00H
	DB	' ', 00H, '2', 00H, '.', 00H, '0', 00H, 'f', 00H, ')', 00H, 00H
	DB	00H						; `string'
CONST	ENDS
;	COMDAT ??_C@_1FE@IMEJOJAH@?$AA?$CB?$AAX?$AAM?$AAS?$AAc?$AAa?$AAl?$AAa?$AAr?$AAN?$AAe?$AAa?$AAr?$AAE?$AAq?$AAu?$AAa?$AAl?$AA?$CI?$AAF?$AAa?$AAr?$AAZ?$AA?0?$AA?5?$AAN?$AAe?$AAa?$AAr?$AAZ?$AA?0?$AA?5@
CONST	SEGMENT
??_C@_1FE@IMEJOJAH@?$AA?$CB?$AAX?$AAM?$AAS?$AAc?$AAa?$AAl?$AAa?$AAr?$AAN?$AAe?$AAa?$AAr?$AAE?$AAq?$AAu?$AAa?$AAl?$AA?$CI?$AAF?$AAa?$AAr?$AAZ?$AA?0?$AA?5?$AAN?$AAe?$AAa?$AAr?$AAZ?$AA?0?$AA?5@ DB '!'
	DB	00H, 'X', 00H, 'M', 00H, 'S', 00H, 'c', 00H, 'a', 00H, 'l', 00H
	DB	'a', 00H, 'r', 00H, 'N', 00H, 'e', 00H, 'a', 00H, 'r', 00H, 'E'
	DB	00H, 'q', 00H, 'u', 00H, 'a', 00H, 'l', 00H, '(', 00H, 'F', 00H
	DB	'a', 00H, 'r', 00H, 'Z', 00H, ',', 00H, ' ', 00H, 'N', 00H, 'e'
	DB	00H, 'a', 00H, 'r', 00H, 'Z', 00H, ',', 00H, ' ', 00H, '0', 00H
	DB	'.', 00H, '0', 00H, '0', 00H, '0', 00H, '0', 00H, '1', 00H, 'f'
	DB	00H, ')', 00H, 00H, 00H			; `string'
CONST	ENDS
;	COMDAT ??_C@_1EE@JAOFAOOK@?$AA?$CB?$AAX?$AAM?$AAV?$AAe?$AAc?$AAt?$AAo?$AAr?$AA3?$AAI?$AAs?$AAI?$AAn?$AAf?$AAi?$AAn?$AAi?$AAt?$AAe?$AA?$CI?$AAU?$AAp?$AAD?$AAi?$AAr?$AAe?$AAc?$AAt?$AAi?$AAo?$AAn@
CONST	SEGMENT
??_C@_1EE@JAOFAOOK@?$AA?$CB?$AAX?$AAM?$AAV?$AAe?$AAc?$AAt?$AAo?$AAr?$AA3?$AAI?$AAs?$AAI?$AAn?$AAf?$AAi?$AAn?$AAi?$AAt?$AAe?$AA?$CI?$AAU?$AAp?$AAD?$AAi?$AAr?$AAe?$AAc?$AAt?$AAi?$AAo?$AAn@ DB '!'
	DB	00H, 'X', 00H, 'M', 00H, 'V', 00H, 'e', 00H, 'c', 00H, 't', 00H
	DB	'o', 00H, 'r', 00H, '3', 00H, 'I', 00H, 's', 00H, 'I', 00H, 'n'
	DB	00H, 'f', 00H, 'i', 00H, 'n', 00H, 'i', 00H, 't', 00H, 'e', 00H
	DB	'(', 00H, 'U', 00H, 'p', 00H, 'D', 00H, 'i', 00H, 'r', 00H, 'e'
	DB	00H, 'c', 00H, 't', 00H, 'i', 00H, 'o', 00H, 'n', 00H, ')', 00H
	DB	00H, 00H					; `string'
CONST	ENDS
;	COMDAT ??_C@_1FK@IBPGMKAB@?$AA?$CB?$AAX?$AAM?$AAV?$AAe?$AAc?$AAt?$AAo?$AAr?$AA3?$AAE?$AAq?$AAu?$AAa?$AAl?$AA?$CI?$AAU?$AAp?$AAD?$AAi?$AAr?$AAe?$AAc?$AAt?$AAi?$AAo?$AAn?$AA?0?$AA?5?$AAX?$AAM?$AAV@
CONST	SEGMENT
??_C@_1FK@IBPGMKAB@?$AA?$CB?$AAX?$AAM?$AAV?$AAe?$AAc?$AAt?$AAo?$AAr?$AA3?$AAE?$AAq?$AAu?$AAa?$AAl?$AA?$CI?$AAU?$AAp?$AAD?$AAi?$AAr?$AAe?$AAc?$AAt?$AAi?$AAo?$AAn?$AA?0?$AA?5?$AAX?$AAM?$AAV@ DB '!'
	DB	00H, 'X', 00H, 'M', 00H, 'V', 00H, 'e', 00H, 'c', 00H, 't', 00H
	DB	'o', 00H, 'r', 00H, '3', 00H, 'E', 00H, 'q', 00H, 'u', 00H, 'a'
	DB	00H, 'l', 00H, '(', 00H, 'U', 00H, 'p', 00H, 'D', 00H, 'i', 00H
	DB	'r', 00H, 'e', 00H, 'c', 00H, 't', 00H, 'i', 00H, 'o', 00H, 'n'
	DB	00H, ',', 00H, ' ', 00H, 'X', 00H, 'M', 00H, 'V', 00H, 'e', 00H
	DB	'c', 00H, 't', 00H, 'o', 00H, 'r', 00H, 'Z', 00H, 'e', 00H, 'r'
	DB	00H, 'o', 00H, '(', 00H, ')', 00H, ')', 00H, 00H, 00H ; `string'
CONST	ENDS
;	COMDAT ??_C@_1EG@DOFHPLOD@?$AA?$CB?$AAX?$AAM?$AAV?$AAe?$AAc?$AAt?$AAo?$AAr?$AA3?$AAI?$AAs?$AAI?$AAn?$AAf?$AAi?$AAn?$AAi?$AAt?$AAe?$AA?$CI?$AAE?$AAy?$AAe?$AAD?$AAi?$AAr?$AAe?$AAc?$AAt?$AAi?$AAo@
CONST	SEGMENT
??_C@_1EG@DOFHPLOD@?$AA?$CB?$AAX?$AAM?$AAV?$AAe?$AAc?$AAt?$AAo?$AAr?$AA3?$AAI?$AAs?$AAI?$AAn?$AAf?$AAi?$AAn?$AAi?$AAt?$AAe?$AA?$CI?$AAE?$AAy?$AAe?$AAD?$AAi?$AAr?$AAe?$AAc?$AAt?$AAi?$AAo@ DB '!'
	DB	00H, 'X', 00H, 'M', 00H, 'V', 00H, 'e', 00H, 'c', 00H, 't', 00H
	DB	'o', 00H, 'r', 00H, '3', 00H, 'I', 00H, 's', 00H, 'I', 00H, 'n'
	DB	00H, 'f', 00H, 'i', 00H, 'n', 00H, 'i', 00H, 't', 00H, 'e', 00H
	DB	'(', 00H, 'E', 00H, 'y', 00H, 'e', 00H, 'D', 00H, 'i', 00H, 'r'
	DB	00H, 'e', 00H, 'c', 00H, 't', 00H, 'i', 00H, 'o', 00H, 'n', 00H
	DB	')', 00H, 00H, 00H				; `string'
CONST	ENDS
;	COMDAT ??_C@_1FM@KOIPKFLA@?$AA?$CB?$AAX?$AAM?$AAV?$AAe?$AAc?$AAt?$AAo?$AAr?$AA3?$AAE?$AAq?$AAu?$AAa?$AAl?$AA?$CI?$AAE?$AAy?$AAe?$AAD?$AAi?$AAr?$AAe?$AAc?$AAt?$AAi?$AAo?$AAn?$AA?0?$AA?5?$AAX?$AAM@
CONST	SEGMENT
??_C@_1FM@KOIPKFLA@?$AA?$CB?$AAX?$AAM?$AAV?$AAe?$AAc?$AAt?$AAo?$AAr?$AA3?$AAE?$AAq?$AAu?$AAa?$AAl?$AA?$CI?$AAE?$AAy?$AAe?$AAD?$AAi?$AAr?$AAe?$AAc?$AAt?$AAi?$AAo?$AAn?$AA?0?$AA?5?$AAX?$AAM@ DB '!'
	DB	00H, 'X', 00H, 'M', 00H, 'V', 00H, 'e', 00H, 'c', 00H, 't', 00H
	DB	'o', 00H, 'r', 00H, '3', 00H, 'E', 00H, 'q', 00H, 'u', 00H, 'a'
	DB	00H, 'l', 00H, '(', 00H, 'E', 00H, 'y', 00H, 'e', 00H, 'D', 00H
	DB	'i', 00H, 'r', 00H, 'e', 00H, 'c', 00H, 't', 00H, 'i', 00H, 'o'
	DB	00H, 'n', 00H, ',', 00H, ' ', 00H, 'X', 00H, 'M', 00H, 'V', 00H
	DB	'e', 00H, 'c', 00H, 't', 00H, 'o', 00H, 'r', 00H, 'Z', 00H, 'e'
	DB	00H, 'r', 00H, 'o', 00H, '(', 00H, ')', 00H, ')', 00H, 00H, 00H ; `string'
CONST	ENDS
;	COMDAT ?Constant1110@?1??XMMatrixRotationQuaternion@DirectX@@YQ?AUXMMATRIX@2@T__m128@@@Z@4UXMVECTORF32@2@B
CONST	SEGMENT
?Constant1110@?1??XMMatrixRotationQuaternion@DirectX@@YQ?AUXMMATRIX@2@T__m128@@@Z@4UXMVECTORF32@2@B DD 03f800000r ; 1 ; `DirectX::XMMatrixRotationQuaternion'::`2'::Constant1110
	DD	03f800000r			; 1
	DD	03f800000r			; 1
	DD	000000000r			; 0
CONST	ENDS
;	COMDAT ??_C@_1JC@FPIPICAN@?$AAc?$AA?3?$AA?2?$AAp?$AAr?$AAo?$AAg?$AAr?$AAa?$AAm?$AA?5?$AAf?$AAi?$AAl?$AAe?$AAs?$AA?5?$AA?$CI?$AAx?$AA8?$AA6?$AA?$CJ?$AA?2?$AAw?$AAi?$AAn?$AAd?$AAo?$AAw?$AAs?$AA?5?$AAk@
CONST	SEGMENT
??_C@_1JC@FPIPICAN@?$AAc?$AA?3?$AA?2?$AAp?$AAr?$AAo?$AAg?$AAr?$AAa?$AAm?$AA?5?$AAf?$AAi?$AAl?$AAe?$AAs?$AA?5?$AA?$CI?$AAx?$AA8?$AA6?$AA?$CJ?$AA?2?$AAw?$AAi?$AAn?$AAd?$AAo?$AAw?$AAs?$AA?5?$AAk@ DB 'c'
	DB	00H, ':', 00H, '\', 00H, 'p', 00H, 'r', 00H, 'o', 00H, 'g', 00H
	DB	'r', 00H, 'a', 00H, 'm', 00H, ' ', 00H, 'f', 00H, 'i', 00H, 'l'
	DB	00H, 'e', 00H, 's', 00H, ' ', 00H, '(', 00H, 'x', 00H, '8', 00H
	DB	'6', 00H, ')', 00H, '\', 00H, 'w', 00H, 'i', 00H, 'n', 00H, 'd'
	DB	00H, 'o', 00H, 'w', 00H, 's', 00H, ' ', 00H, 'k', 00H, 'i', 00H
	DB	't', 00H, 's', 00H, '\', 00H, '8', 00H, '.', 00H, '1', 00H, '\'
	DB	00H, 'i', 00H, 'n', 00H, 'c', 00H, 'l', 00H, 'u', 00H, 'd', 00H
	DB	'e', 00H, '\', 00H, 'u', 00H, 'm', 00H, '\', 00H, 'D', 00H, 'i'
	DB	00H, 'r', 00H, 'e', 00H, 'c', 00H, 't', 00H, 'X', 00H, 'M', 00H
	DB	'a', 00H, 't', 00H, 'h', 00H, 'M', 00H, 'a', 00H, 't', 00H, 'r'
	DB	00H, 'i', 00H, 'x', 00H, '.', 00H, 'i', 00H, 'n', 00H, 'l', 00H
	DB	00H, 00H					; `string'
CONST	ENDS
;	COMDAT ??_C@_1CA@LFGCHHDM@?$AAp?$AAC?$AAo?$AAs?$AA?5?$AA?$CB?$AA?$DN?$AA?5?$AAn?$AAu?$AAl?$AAl?$AAp?$AAt?$AAr?$AA?$AA@
CONST	SEGMENT
??_C@_1CA@LFGCHHDM@?$AAp?$AAC?$AAo?$AAs?$AA?5?$AA?$CB?$AA?$DN?$AA?5?$AAn?$AAu?$AAl?$AAl?$AAp?$AAt?$AAr?$AA?$AA@ DB 'p'
	DB	00H, 'C', 00H, 'o', 00H, 's', 00H, ' ', 00H, '!', 00H, '=', 00H
	DB	' ', 00H, 'n', 00H, 'u', 00H, 'l', 00H, 'l', 00H, 'p', 00H, 't'
	DB	00H, 'r', 00H, 00H, 00H			; `string'
CONST	ENDS
;	COMDAT ??_C@_1CA@PCMAADPN@?$AAp?$AAS?$AAi?$AAn?$AA?5?$AA?$CB?$AA?$DN?$AA?5?$AAn?$AAu?$AAl?$AAl?$AAp?$AAt?$AAr?$AA?$AA@
CONST	SEGMENT
??_C@_1CA@PCMAADPN@?$AAp?$AAS?$AAi?$AAn?$AA?5?$AA?$CB?$AA?$DN?$AA?5?$AAn?$AAu?$AAl?$AAl?$AAp?$AAt?$AAr?$AA?$AA@ DB 'p'
	DB	00H, 'S', 00H, 'i', 00H, 'n', 00H, ' ', 00H, '!', 00H, '=', 00H
	DB	' ', 00H, 'n', 00H, 'u', 00H, 'l', 00H, 'l', 00H, 'p', 00H, 't'
	DB	00H, 'r', 00H, 00H, 00H			; `string'
CONST	ENDS
;	COMDAT ??_C@_1DO@HJELAGIP@?$AAX?$AAM?$AAV?$AAe?$AAc?$AAt?$AAo?$AAr?$AA4?$AAL?$AAe?$AAs?$AAs?$AAO?$AAr?$AAE?$AAq?$AAu?$AAa?$AAl?$AA?$CI?$AAM?$AAi?$AAn?$AA?0?$AA?5?$AAM?$AAa?$AAx?$AA?$CJ?$AA?$AA@
CONST	SEGMENT
??_C@_1DO@HJELAGIP@?$AAX?$AAM?$AAV?$AAe?$AAc?$AAt?$AAo?$AAr?$AA4?$AAL?$AAe?$AAs?$AAs?$AAO?$AAr?$AAE?$AAq?$AAu?$AAa?$AAl?$AA?$CI?$AAM?$AAi?$AAn?$AA?0?$AA?5?$AAM?$AAa?$AAx?$AA?$CJ?$AA?$AA@ DB 'X'
	DB	00H, 'M', 00H, 'V', 00H, 'e', 00H, 'c', 00H, 't', 00H, 'o', 00H
	DB	'r', 00H, '4', 00H, 'L', 00H, 'e', 00H, 's', 00H, 's', 00H, 'O'
	DB	00H, 'r', 00H, 'E', 00H, 'q', 00H, 'u', 00H, 'a', 00H, 'l', 00H
	DB	'(', 00H, 'M', 00H, 'i', 00H, 'n', 00H, ',', 00H, ' ', 00H, 'M'
	DB	00H, 'a', 00H, 'x', 00H, ')', 00H, 00H, 00H	; `string'
CONST	ENDS
;	COMDAT ?magic@?1??XMVectorRound@DirectX@@YQ?AT__m128@@T3@@Z@4UXMVECTORI32@2@B
CONST	SEGMENT
?magic@?1??XMVectorRound@DirectX@@YQ?AT__m128@@T3@@Z@4UXMVECTORI32@2@B DD 04b000000H ; `DirectX::XMVectorRound'::`2'::magic
	DD	04b000000H
	DD	04b000000H
	DD	04b000000H
CONST	ENDS
;	COMDAT ??_C@_1JC@LGEHDEBK@?$AAc?$AA?3?$AA?2?$AAp?$AAr?$AAo?$AAg?$AAr?$AAa?$AAm?$AA?5?$AAf?$AAi?$AAl?$AAe?$AAs?$AA?5?$AA?$CI?$AAx?$AA8?$AA6?$AA?$CJ?$AA?2?$AAw?$AAi?$AAn?$AAd?$AAo?$AAw?$AAs?$AA?5?$AAk@
CONST	SEGMENT
??_C@_1JC@LGEHDEBK@?$AAc?$AA?3?$AA?2?$AAp?$AAr?$AAo?$AAg?$AAr?$AAa?$AAm?$AA?5?$AAf?$AAi?$AAl?$AAe?$AAs?$AA?5?$AA?$CI?$AAx?$AA8?$AA6?$AA?$CJ?$AA?2?$AAw?$AAi?$AAn?$AAd?$AAo?$AAw?$AAs?$AA?5?$AAk@ DB 'c'
	DB	00H, ':', 00H, '\', 00H, 'p', 00H, 'r', 00H, 'o', 00H, 'g', 00H
	DB	'r', 00H, 'a', 00H, 'm', 00H, ' ', 00H, 'f', 00H, 'i', 00H, 'l'
	DB	00H, 'e', 00H, 's', 00H, ' ', 00H, '(', 00H, 'x', 00H, '8', 00H
	DB	'6', 00H, ')', 00H, '\', 00H, 'w', 00H, 'i', 00H, 'n', 00H, 'd'
	DB	00H, 'o', 00H, 'w', 00H, 's', 00H, ' ', 00H, 'k', 00H, 'i', 00H
	DB	't', 00H, 's', 00H, '\', 00H, '8', 00H, '.', 00H, '1', 00H, '\'
	DB	00H, 'i', 00H, 'n', 00H, 'c', 00H, 'l', 00H, 'u', 00H, 'd', 00H
	DB	'e', 00H, '\', 00H, 'u', 00H, 'm', 00H, '\', 00H, 'D', 00H, 'i'
	DB	00H, 'r', 00H, 'e', 00H, 'c', 00H, 't', 00H, 'X', 00H, 'M', 00H
	DB	'a', 00H, 't', 00H, 'h', 00H, 'V', 00H, 'e', 00H, 'c', 00H, 't'
	DB	00H, 'o', 00H, 'r', 00H, '.', 00H, 'i', 00H, 'n', 00H, 'l', 00H
	DB	00H, 00H					; `string'
CONST	ENDS
;	COMDAT ??_C@_1BK@FHLBGAOP@?$AAp?$AAD?$AAe?$AAs?$AAt?$AAi?$AAn?$AAa?$AAt?$AAi?$AAo?$AAn?$AA?$AA@
CONST	SEGMENT
??_C@_1BK@FHLBGAOP@?$AAp?$AAD?$AAe?$AAs?$AAt?$AAi?$AAn?$AAa?$AAt?$AAi?$AAo?$AAn?$AA?$AA@ DB 'p'
	DB	00H, 'D', 00H, 'e', 00H, 's', 00H, 't', 00H, 'i', 00H, 'n', 00H
	DB	'a', 00H, 't', 00H, 'i', 00H, 'o', 00H, 'n', 00H, 00H, 00H ; `string'
CONST	ENDS
;	COMDAT ??_C@_1BA@LBADLIHI@?$AAp?$AAS?$AAo?$AAu?$AAr?$AAc?$AAe?$AA?$AA@
CONST	SEGMENT
??_C@_1BA@LBADLIHI@?$AAp?$AAS?$AAo?$AAu?$AAr?$AAc?$AAe?$AA?$AA@ DB 'p', 00H
	DB	'S', 00H, 'o', 00H, 'u', 00H, 'r', 00H, 'c', 00H, 'e', 00H, 00H
	DB	00H						; `string'
CONST	ENDS
;	COMDAT ??_C@_1JE@EKCDEKPD@?$AAc?$AA?3?$AA?2?$AAp?$AAr?$AAo?$AAg?$AAr?$AAa?$AAm?$AA?5?$AAf?$AAi?$AAl?$AAe?$AAs?$AA?5?$AA?$CI?$AAx?$AA8?$AA6?$AA?$CJ?$AA?2?$AAw?$AAi?$AAn?$AAd?$AAo?$AAw?$AAs?$AA?5?$AAk@
CONST	SEGMENT
??_C@_1JE@EKCDEKPD@?$AAc?$AA?3?$AA?2?$AAp?$AAr?$AAo?$AAg?$AAr?$AAa?$AAm?$AA?5?$AAf?$AAi?$AAl?$AAe?$AAs?$AA?5?$AA?$CI?$AAx?$AA8?$AA6?$AA?$CJ?$AA?2?$AAw?$AAi?$AAn?$AAd?$AAo?$AAw?$AAs?$AA?5?$AAk@ DB 'c'
	DB	00H, ':', 00H, '\', 00H, 'p', 00H, 'r', 00H, 'o', 00H, 'g', 00H
	DB	'r', 00H, 'a', 00H, 'm', 00H, ' ', 00H, 'f', 00H, 'i', 00H, 'l'
	DB	00H, 'e', 00H, 's', 00H, ' ', 00H, '(', 00H, 'x', 00H, '8', 00H
	DB	'6', 00H, ')', 00H, '\', 00H, 'w', 00H, 'i', 00H, 'n', 00H, 'd'
	DB	00H, 'o', 00H, 'w', 00H, 's', 00H, ' ', 00H, 'k', 00H, 'i', 00H
	DB	't', 00H, 's', 00H, '\', 00H, '8', 00H, '.', 00H, '1', 00H, '\'
	DB	00H, 'i', 00H, 'n', 00H, 'c', 00H, 'l', 00H, 'u', 00H, 'd', 00H
	DB	'e', 00H, '\', 00H, 'u', 00H, 'm', 00H, '\', 00H, 'D', 00H, 'i'
	DB	00H, 'r', 00H, 'e', 00H, 'c', 00H, 't', 00H, 'X', 00H, 'M', 00H
	DB	'a', 00H, 't', 00H, 'h', 00H, 'C', 00H, 'o', 00H, 'n', 00H, 'v'
	DB	00H, 'e', 00H, 'r', 00H, 't', 00H, '.', 00H, 'i', 00H, 'n', 00H
	DB	'l', 00H, 00H, 00H				; `string'
CONST	ENDS
;	COMDAT ?g_XMReciprocalTwoPi@DirectX@@3UXMVECTORF32@1@B
_DATA	SEGMENT
?g_XMReciprocalTwoPi@DirectX@@3UXMVECTORF32@1@B	ORG $+16 ; DirectX::g_XMReciprocalTwoPi
_DATA	ENDS
;	COMDAT ?g_XMTwoPi@DirectX@@3UXMVECTORF32@1@B
_DATA	SEGMENT
?g_XMTwoPi@DirectX@@3UXMVECTORF32@1@B	ORG $+16		; DirectX::g_XMTwoPi
_DATA	ENDS
;	COMDAT ?g_XMPi@DirectX@@3UXMVECTORF32@1@B
_DATA	SEGMENT
?g_XMPi@DirectX@@3UXMVECTORF32@1@B	ORG $+16		; DirectX::g_XMPi
_DATA	ENDS
;	COMDAT ?g_XMHalfPi@DirectX@@3UXMVECTORF32@1@B
_DATA	SEGMENT
?g_XMHalfPi@DirectX@@3UXMVECTORF32@1@B	ORG $+16		; DirectX::g_XMHalfPi
_DATA	ENDS
;	COMDAT CRT$XCU
CRT$XCU	SEGMENT
_g_XMPi$initializer$ DD FLAT:??__Eg_XMPi@DirectX@@YAXXZ
CRT$XCU	ENDS
;	COMDAT CRT$XCU
CRT$XCU	SEGMENT
_g_XMTwoPi$initializer$ DD FLAT:??__Eg_XMTwoPi@DirectX@@YAXXZ
CRT$XCU	ENDS
;	COMDAT CRT$XCU
CRT$XCU	SEGMENT
_g_XMReciprocalTwoPi$initializer$ DD FLAT:??__Eg_XMReciprocalTwoPi@DirectX@@YAXXZ
CRT$XCU	ENDS
; Function compile flags: /Odtp /RTCsu
;	COMDAT ??$?RABMABM@?$less@X@std@@QBE_NABM0@Z
_TEXT	SEGMENT
tv65 = -8						; size = 4
_this$ = -4						; size = 4
__Left$ = 8						; size = 4
__Right$ = 12						; size = 4
??$?RABMABM@?$less@X@std@@QBE_NABM0@Z PROC		; std::less<void>::operator()<float const &,float const &>, COMDAT
; _this$ = ecx
; File c:\program files (x86)\microsoft visual studio 12.0\vc\include\xstddef
; Line 263
  00000	55		 push	 ebp
  00001	8b ec		 mov	 ebp, esp
  00003	83 ec 08	 sub	 esp, 8
  00006	c7 45 f8 cc cc
	cc cc		 mov	 DWORD PTR [ebp-8], -858993460 ; ccccccccH
  0000d	c7 45 fc cc cc
	cc cc		 mov	 DWORD PTR [ebp-4], -858993460 ; ccccccccH
  00014	89 4d fc	 mov	 DWORD PTR _this$[ebp], ecx
; Line 268
  00017	8b 45 0c	 mov	 eax, DWORD PTR __Right$[ebp]
  0001a	8b 4d 08	 mov	 ecx, DWORD PTR __Left$[ebp]
  0001d	f3 0f 10 00	 movss	 xmm0, DWORD PTR [eax]
  00021	0f 2f 01	 comiss	 xmm0, DWORD PTR [ecx]
  00024	76 09		 jbe	 SHORT $LN3@operator
  00026	c7 45 f8 01 00
	00 00		 mov	 DWORD PTR tv65[ebp], 1
  0002d	eb 07		 jmp	 SHORT $LN4@operator
$LN3@operator:
  0002f	c7 45 f8 00 00
	00 00		 mov	 DWORD PTR tv65[ebp], 0
$LN4@operator:
  00036	8a 45 f8	 mov	 al, BYTE PTR tv65[ebp]
; Line 269
  00039	8b e5		 mov	 esp, ebp
  0003b	5d		 pop	 ebp
  0003c	c2 08 00	 ret	 8
??$?RABMABM@?$less@X@std@@QBE_NABM0@Z ENDP		; std::less<void>::operator()<float const &,float const &>
_TEXT	ENDS
; Function compile flags: /Odtp /RTCsu
;	COMDAT ??$_Debug_lt_pred@U?$less@X@std@@ABMABM@std@@YA_NU?$less@X@0@ABM1PB_WI@Z
_TEXT	SEGMENT
__Pred$ = 8						; size = 1
__Left$ = 12						; size = 4
__Right$ = 16						; size = 4
__File$ = 20						; size = 4
__Line$ = 24						; size = 4
??$_Debug_lt_pred@U?$less@X@std@@ABMABM@std@@YA_NU?$less@X@0@ABM1PB_WI@Z PROC ; std::_Debug_lt_pred<std::less<void>,float const &,float const &>, COMDAT
; File c:\program files (x86)\microsoft visual studio 12.0\vc\include\xutility
; Line 520
  00000	55		 push	 ebp
  00001	8b ec		 mov	 ebp, esp
  00003	56		 push	 esi
; Line 521
  00004	8b 45 10	 mov	 eax, DWORD PTR __Right$[ebp]
  00007	50		 push	 eax
  00008	e8 00 00 00 00	 call	 ??$forward@ABM@std@@YAABMABM@Z ; std::forward<float const &>
  0000d	83 c4 04	 add	 esp, 4
  00010	50		 push	 eax
  00011	8b 4d 0c	 mov	 ecx, DWORD PTR __Left$[ebp]
  00014	51		 push	 ecx
  00015	e8 00 00 00 00	 call	 ??$forward@ABM@std@@YAABMABM@Z ; std::forward<float const &>
  0001a	83 c4 04	 add	 esp, 4
  0001d	50		 push	 eax
  0001e	8d 4d 08	 lea	 ecx, DWORD PTR __Pred$[ebp]
  00021	e8 00 00 00 00	 call	 ??$?RABMABM@?$less@X@std@@QBE_NABM0@Z ; std::less<void>::operator()<float const &,float const &>
  00026	0f b6 d0	 movzx	 edx, al
  00029	85 d2		 test	 edx, edx
  0002b	75 06		 jne	 SHORT $LN3@Debug_lt_p
; Line 522
  0002d	32 c0		 xor	 al, al
  0002f	eb 4c		 jmp	 SHORT $LN4@Debug_lt_p
  00031	eb 48		 jmp	 SHORT $LN2@Debug_lt_p
$LN3@Debug_lt_p:
; Line 523
  00033	8b 45 0c	 mov	 eax, DWORD PTR __Left$[ebp]
  00036	50		 push	 eax
  00037	e8 00 00 00 00	 call	 ??$forward@ABM@std@@YAABMABM@Z ; std::forward<float const &>
  0003c	83 c4 04	 add	 esp, 4
  0003f	50		 push	 eax
  00040	8b 4d 10	 mov	 ecx, DWORD PTR __Right$[ebp]
  00043	51		 push	 ecx
  00044	e8 00 00 00 00	 call	 ??$forward@ABM@std@@YAABMABM@Z ; std::forward<float const &>
  00049	83 c4 04	 add	 esp, 4
  0004c	50		 push	 eax
  0004d	8d 4d 08	 lea	 ecx, DWORD PTR __Pred$[ebp]
  00050	e8 00 00 00 00	 call	 ??$?RABMABM@?$less@X@std@@QBE_NABM0@Z ; std::less<void>::operator()<float const &,float const &>
  00055	0f b6 d0	 movzx	 edx, al
  00058	85 d2		 test	 edx, edx
  0005a	74 1f		 je	 SHORT $LN2@Debug_lt_p
; Line 524
  0005c	8b f4		 mov	 esi, esp
  0005e	8b 45 18	 mov	 eax, DWORD PTR __Line$[ebp]
  00061	50		 push	 eax
  00062	8b 4d 14	 mov	 ecx, DWORD PTR __File$[ebp]
  00065	51		 push	 ecx
  00066	68 00 00 00 00	 push	 OFFSET ??_C@_1CE@IGJMOCCK@?$AAi?$AAn?$AAv?$AAa?$AAl?$AAi?$AAd?$AA?5?$AAo?$AAp?$AAe?$AAr?$AAa?$AAt?$AAo?$AAr?$AA?$DM?$AA?$AA@
  0006b	ff 15 00 00 00
	00		 call	 DWORD PTR __imp_?_Debug_message@std@@YAXPB_W0I@Z
  00071	83 c4 0c	 add	 esp, 12			; 0000000cH
  00074	3b f4		 cmp	 esi, esp
  00076	e8 00 00 00 00	 call	 __RTC_CheckEsp
$LN2@Debug_lt_p:
; Line 525
  0007b	b0 01		 mov	 al, 1
$LN4@Debug_lt_p:
; Line 526
  0007d	5e		 pop	 esi
  0007e	3b ec		 cmp	 ebp, esp
  00080	e8 00 00 00 00	 call	 __RTC_CheckEsp
  00085	5d		 pop	 ebp
  00086	c3		 ret	 0
??$_Debug_lt_pred@U?$less@X@std@@ABMABM@std@@YA_NU?$less@X@0@ABM1PB_WI@Z ENDP ; std::_Debug_lt_pred<std::less<void>,float const &,float const &>
_TEXT	ENDS
; Function compile flags: /Odtp /RTCsu
;	COMDAT ??$forward@ABM@std@@YAABMABM@Z
_TEXT	SEGMENT
__Arg$ = 8						; size = 4
??$forward@ABM@std@@YAABMABM@Z PROC			; std::forward<float const &>, COMDAT
; File c:\program files (x86)\microsoft visual studio 12.0\vc\include\type_traits
; Line 1504
  00000	55		 push	 ebp
  00001	8b ec		 mov	 ebp, esp
; Line 1505
  00003	8b 45 08	 mov	 eax, DWORD PTR __Arg$[ebp]
; Line 1506
  00006	5d		 pop	 ebp
  00007	c3		 ret	 0
??$forward@ABM@std@@YAABMABM@Z ENDP			; std::forward<float const &>
_TEXT	ENDS
; Function compile flags: /Odtp /RTCsu
;	COMDAT ??$_Debug_lt@ABMABM@std@@YA_NABM0PB_WI@Z
_TEXT	SEGMENT
$T1 = -1						; size = 1
__Left$ = 8						; size = 4
__Right$ = 12						; size = 4
__File$ = 16						; size = 4
__Line$ = 20						; size = 4
??$_Debug_lt@ABMABM@std@@YA_NABM0PB_WI@Z PROC		; std::_Debug_lt<float const &,float const &>, COMDAT
; File c:\program files (x86)\microsoft visual studio 12.0\vc\include\xutility
; Line 532
  00000	55		 push	 ebp
  00001	8b ec		 mov	 ebp, esp
  00003	51		 push	 ecx
  00004	c7 45 fc cc cc
	cc cc		 mov	 DWORD PTR [ebp-4], -858993460 ; ccccccccH
; Line 534
  0000b	33 c0		 xor	 eax, eax
  0000d	88 45 ff	 mov	 BYTE PTR $T1[ebp], al
  00010	8b 4d 14	 mov	 ecx, DWORD PTR __Line$[ebp]
  00013	51		 push	 ecx
  00014	8b 55 10	 mov	 edx, DWORD PTR __File$[ebp]
  00017	52		 push	 edx
  00018	8b 45 0c	 mov	 eax, DWORD PTR __Right$[ebp]
  0001b	50		 push	 eax
  0001c	e8 00 00 00 00	 call	 ??$forward@ABM@std@@YAABMABM@Z ; std::forward<float const &>
  00021	83 c4 04	 add	 esp, 4
  00024	50		 push	 eax
  00025	8b 4d 08	 mov	 ecx, DWORD PTR __Left$[ebp]
  00028	51		 push	 ecx
  00029	e8 00 00 00 00	 call	 ??$forward@ABM@std@@YAABMABM@Z ; std::forward<float const &>
  0002e	83 c4 04	 add	 esp, 4
  00031	50		 push	 eax
  00032	0f b6 55 ff	 movzx	 edx, BYTE PTR $T1[ebp]
  00036	52		 push	 edx
  00037	e8 00 00 00 00	 call	 ??$_Debug_lt_pred@U?$less@X@std@@ABMABM@std@@YA_NU?$less@X@0@ABM1PB_WI@Z ; std::_Debug_lt_pred<std::less<void>,float const &,float const &>
  0003c	83 c4 14	 add	 esp, 20			; 00000014H
; Line 535
  0003f	83 c4 04	 add	 esp, 4
  00042	3b ec		 cmp	 ebp, esp
  00044	e8 00 00 00 00	 call	 __RTC_CheckEsp
  00049	8b e5		 mov	 esp, ebp
  0004b	5d		 pop	 ebp
  0004c	c3		 ret	 0
??$_Debug_lt@ABMABM@std@@YA_NABM0PB_WI@Z ENDP		; std::_Debug_lt<float const &,float const &>
_TEXT	ENDS
; Function compile flags: /Odtp /RTCsu
;	COMDAT ??$min@M@std@@YAABMABM0@Z
_TEXT	SEGMENT
tv71 = -8						; size = 4
$T1 = -4						; size = 4
__Left$ = 8						; size = 4
__Right$ = 12						; size = 4
??$min@M@std@@YAABMABM0@Z PROC				; std::min<float>, COMDAT
; File c:\program files (x86)\microsoft visual studio 12.0\vc\include\algorithm
; Line 4120
  00000	55		 push	 ebp
  00001	8b ec		 mov	 ebp, esp
  00003	83 ec 08	 sub	 esp, 8
  00006	c7 45 f8 cc cc
	cc cc		 mov	 DWORD PTR [ebp-8], -858993460 ; ccccccccH
  0000d	c7 45 fc cc cc
	cc cc		 mov	 DWORD PTR [ebp-4], -858993460 ; ccccccccH
; Line 4121
  00014	68 19 10 00 00	 push	 4121			; 00001019H
  00019	68 00 00 00 00	 push	 OFFSET ??_C@_1JC@HALMDPKM@?$AAC?$AA?3?$AA?2?$AAP?$AAr?$AAo?$AAg?$AAr?$AAa?$AAm?$AA?5?$AAF?$AAi?$AAl?$AAe?$AAs?$AA?5?$AA?$CI?$AAx?$AA8?$AA6?$AA?$CJ?$AA?2?$AAM?$AAi?$AAc?$AAr?$AAo?$AAs?$AAo?$AAf?$AAt@
  0001e	8b 45 08	 mov	 eax, DWORD PTR __Left$[ebp]
  00021	50		 push	 eax
  00022	8b 4d 0c	 mov	 ecx, DWORD PTR __Right$[ebp]
  00025	51		 push	 ecx
  00026	e8 00 00 00 00	 call	 ??$_Debug_lt@ABMABM@std@@YA_NABM0PB_WI@Z ; std::_Debug_lt<float const &,float const &>
  0002b	83 c4 10	 add	 esp, 16			; 00000010H
  0002e	0f b6 d0	 movzx	 edx, al
  00031	85 d2		 test	 edx, edx
  00033	74 08		 je	 SHORT $LN3@min
  00035	8b 45 0c	 mov	 eax, DWORD PTR __Right$[ebp]
  00038	89 45 f8	 mov	 DWORD PTR tv71[ebp], eax
  0003b	eb 06		 jmp	 SHORT $LN4@min
$LN3@min:
  0003d	8b 4d 08	 mov	 ecx, DWORD PTR __Left$[ebp]
  00040	89 4d f8	 mov	 DWORD PTR tv71[ebp], ecx
$LN4@min:
  00043	8b 55 f8	 mov	 edx, DWORD PTR tv71[ebp]
  00046	89 55 fc	 mov	 DWORD PTR $T1[ebp], edx
  00049	8b 45 fc	 mov	 eax, DWORD PTR $T1[ebp]
; Line 4122
  0004c	83 c4 08	 add	 esp, 8
  0004f	3b ec		 cmp	 ebp, esp
  00051	e8 00 00 00 00	 call	 __RTC_CheckEsp
  00056	8b e5		 mov	 esp, ebp
  00058	5d		 pop	 ebp
  00059	c3		 ret	 0
??$min@M@std@@YAABMABM0@Z ENDP				; std::min<float>
_TEXT	ENDS
; Function compile flags: /Odtp /RTCsu
;	COMDAT ??$max@M@std@@YAABMABM0@Z
_TEXT	SEGMENT
tv71 = -8						; size = 4
$T1 = -4						; size = 4
__Left$ = 8						; size = 4
__Right$ = 12						; size = 4
??$max@M@std@@YAABMABM0@Z PROC				; std::max<float>, COMDAT
; File c:\program files (x86)\microsoft visual studio 12.0\vc\include\algorithm
; Line 4087
  00000	55		 push	 ebp
  00001	8b ec		 mov	 ebp, esp
  00003	83 ec 08	 sub	 esp, 8
  00006	c7 45 f8 cc cc
	cc cc		 mov	 DWORD PTR [ebp-8], -858993460 ; ccccccccH
  0000d	c7 45 fc cc cc
	cc cc		 mov	 DWORD PTR [ebp-4], -858993460 ; ccccccccH
; Line 4088
  00014	68 f8 0f 00 00	 push	 4088			; 00000ff8H
  00019	68 00 00 00 00	 push	 OFFSET ??_C@_1JC@HALMDPKM@?$AAC?$AA?3?$AA?2?$AAP?$AAr?$AAo?$AAg?$AAr?$AAa?$AAm?$AA?5?$AAF?$AAi?$AAl?$AAe?$AAs?$AA?5?$AA?$CI?$AAx?$AA8?$AA6?$AA?$CJ?$AA?2?$AAM?$AAi?$AAc?$AAr?$AAo?$AAs?$AAo?$AAf?$AAt@
  0001e	8b 45 0c	 mov	 eax, DWORD PTR __Right$[ebp]
  00021	50		 push	 eax
  00022	8b 4d 08	 mov	 ecx, DWORD PTR __Left$[ebp]
  00025	51		 push	 ecx
  00026	e8 00 00 00 00	 call	 ??$_Debug_lt@ABMABM@std@@YA_NABM0PB_WI@Z ; std::_Debug_lt<float const &,float const &>
  0002b	83 c4 10	 add	 esp, 16			; 00000010H
  0002e	0f b6 d0	 movzx	 edx, al
  00031	85 d2		 test	 edx, edx
  00033	74 08		 je	 SHORT $LN3@max
  00035	8b 45 0c	 mov	 eax, DWORD PTR __Right$[ebp]
  00038	89 45 f8	 mov	 DWORD PTR tv71[ebp], eax
  0003b	eb 06		 jmp	 SHORT $LN4@max
$LN3@max:
  0003d	8b 4d 08	 mov	 ecx, DWORD PTR __Left$[ebp]
  00040	89 4d f8	 mov	 DWORD PTR tv71[ebp], ecx
$LN4@max:
  00043	8b 55 f8	 mov	 edx, DWORD PTR tv71[ebp]
  00046	89 55 fc	 mov	 DWORD PTR $T1[ebp], edx
  00049	8b 45 fc	 mov	 eax, DWORD PTR $T1[ebp]
; Line 4089
  0004c	83 c4 08	 add	 esp, 8
  0004f	3b ec		 cmp	 ebp, esp
  00051	e8 00 00 00 00	 call	 __RTC_CheckEsp
  00056	8b e5		 mov	 esp, ebp
  00058	5d		 pop	 ebp
  00059	c3		 ret	 0
??$max@M@std@@YAABMABM0@Z ENDP				; std::max<float>
_TEXT	ENDS
; Function compile flags: /Odtp /RTCsu
_TEXT	SEGMENT
tv397 = -1728						; size = 16
$T1 = -1712						; size = 64
$T2 = -1648						; size = 64
$T3 = -1584						; size = 64
$T4 = -1520						; size = 64
$T5 = -1456						; size = 64
$T6 = -1392						; size = 16
_vCurrentDir$ = -1376					; size = 16
$T7 = -1360						; size = 16
_vDefaultDir$ = -1344					; size = 16
$T8 = -1328						; size = 16
$T9 = -1312						; size = 16
$T10 = -1296						; size = 16
$T11 = -1280						; size = 16
$T12 = -1264						; size = 16
$T13 = -1248						; size = 16
$T14 = -1232						; size = 16
_zBasis$ = -1216					; size = 16
$T15 = -1200						; size = 16
$T16 = -1184						; size = 16
_yBasis$ = -1168					; size = 16
$T17 = -1152						; size = 16
_xBasis$ = -1136					; size = 16
$T18 = -1120						; size = 64
$T19 = -1056						; size = 64
$T20 = -992						; size = 64
$T21 = -928						; size = 64
_mRot$ = -848						; size = 64
_mRot0$ = -768						; size = 64
$T22 = -688						; size = 64
_mLastRotInv$ = -608					; size = 64
$T23 = -528						; size = 64
_mRotSnapshot$ = -448					; size = 64
$T24 = -368						; size = 16
$T25 = -352						; size = 16
$T26 = -336						; size = 16
$T27 = -320						; size = 64
_mInvView$ = -240					; size = 64
$T28 = -160						; size = 64
_mView$ = -80						; size = 64
_this$ = -8						; size = 4
__$ArrayPad$ = -4					; size = 4
?UpdateLightDir@CDXUTDirectionWidget@@IAEJXZ PROC	; CDXUTDirectionWidget::UpdateLightDir
; _this$ = ecx
; File d:\engine class\assignment 1\new scratch\dxut\optional\dxutcamera.cpp
; Line 1163
  00000	53		 push	 ebx
  00001	8b dc		 mov	 ebx, esp
  00003	83 ec 08	 sub	 esp, 8
  00006	83 e4 f0	 and	 esp, -16		; fffffff0H
  00009	83 c4 04	 add	 esp, 4
  0000c	55		 push	 ebp
  0000d	8b 6b 04	 mov	 ebp, DWORD PTR [ebx+4]
  00010	89 6c 24 04	 mov	 DWORD PTR [esp+4], ebp
  00014	8b ec		 mov	 ebp, esp
  00016	81 ec c8 06 00
	00		 sub	 esp, 1736		; 000006c8H
  0001c	56		 push	 esi
  0001d	57		 push	 edi
  0001e	51		 push	 ecx
  0001f	8d bd 38 f9 ff
	ff		 lea	 edi, DWORD PTR [ebp-1736]
  00025	b9 b2 01 00 00	 mov	 ecx, 434		; 000001b2H
  0002a	b8 cc cc cc cc	 mov	 eax, -858993460		; ccccccccH
  0002f	f3 ab		 rep stosd
  00031	59		 pop	 ecx
  00032	a1 00 00 00 00	 mov	 eax, DWORD PTR ___security_cookie
  00037	33 c5		 xor	 eax, ebp
  00039	89 45 fc	 mov	 DWORD PTR __$ArrayPad$[ebp], eax
  0003c	89 4d f8	 mov	 DWORD PTR _this$[ebp], ecx
; Line 1164
  0003f	8b 4d f8	 mov	 ecx, DWORD PTR _this$[ebp]
  00042	81 c1 c4 01 00
	00		 add	 ecx, 452		; 000001c4H
  00048	e8 00 00 00 00	 call	 ?XMLoadFloat4x4@DirectX@@YQ?AUXMMATRIX@1@PBUXMFLOAT4X4@1@@Z ; DirectX::XMLoadFloat4x4
  0004d	0f 29 9d 80 fa
	ff ff		 movaps	 XMMWORD PTR $T5[ebp+48], xmm3
  00054	0f 29 95 70 fa
	ff ff		 movaps	 XMMWORD PTR $T5[ebp+32], xmm2
  0005b	0f 29 8d 60 fa
	ff ff		 movaps	 XMMWORD PTR $T5[ebp+16], xmm1
  00062	0f 29 85 50 fa
	ff ff		 movaps	 XMMWORD PTR $T5[ebp], xmm0
  00069	b9 10 00 00 00	 mov	 ecx, 16			; 00000010H
  0006e	8d b5 50 fa ff
	ff		 lea	 esi, DWORD PTR $T5[ebp]
  00074	8d bd 60 ff ff
	ff		 lea	 edi, DWORD PTR $T28[ebp]
  0007a	f3 a5		 rep movsd
  0007c	b9 10 00 00 00	 mov	 ecx, 16			; 00000010H
  00081	8d b5 60 ff ff
	ff		 lea	 esi, DWORD PTR $T28[ebp]
  00087	8d 7d b0	 lea	 edi, DWORD PTR _mView$[ebp]
  0008a	f3 a5		 rep movsd
; Line 1166
  0008c	33 c9		 xor	 ecx, ecx
  0008e	0f 28 45 b0	 movaps	 xmm0, XMMWORD PTR _mView$[ebp]
  00092	0f 28 4d c0	 movaps	 xmm1, XMMWORD PTR _mView$[ebp+16]
  00096	0f 28 55 d0	 movaps	 xmm2, XMMWORD PTR _mView$[ebp+32]
  0009a	0f 28 5d e0	 movaps	 xmm3, XMMWORD PTR _mView$[ebp+48]
  0009e	e8 00 00 00 00	 call	 ?XMMatrixInverse@DirectX@@YQ?AUXMMATRIX@1@PAT__m128@@U21@@Z ; DirectX::XMMatrixInverse
  000a3	0f 29 9d 40 fa
	ff ff		 movaps	 XMMWORD PTR $T4[ebp+48], xmm3
  000aa	0f 29 95 30 fa
	ff ff		 movaps	 XMMWORD PTR $T4[ebp+32], xmm2
  000b1	0f 29 8d 20 fa
	ff ff		 movaps	 XMMWORD PTR $T4[ebp+16], xmm1
  000b8	0f 29 85 10 fa
	ff ff		 movaps	 XMMWORD PTR $T4[ebp], xmm0
  000bf	b9 10 00 00 00	 mov	 ecx, 16			; 00000010H
  000c4	8d b5 10 fa ff
	ff		 lea	 esi, DWORD PTR $T4[ebp]
  000ca	8d bd c0 fe ff
	ff		 lea	 edi, DWORD PTR $T27[ebp]
  000d0	f3 a5		 rep movsd
  000d2	b9 10 00 00 00	 mov	 ecx, 16			; 00000010H
  000d7	8d b5 c0 fe ff
	ff		 lea	 esi, DWORD PTR $T27[ebp]
  000dd	8d bd 10 ff ff
	ff		 lea	 edi, DWORD PTR _mInvView$[ebp]
  000e3	f3 a5		 rep movsd
; Line 1167
  000e5	8d 85 b0 fe ff
	ff		 lea	 eax, DWORD PTR $T26[ebp]
  000eb	50		 push	 eax
  000ec	b9 00 00 00 00	 mov	 ecx, OFFSET ?g_XMSelect1110@DirectX@@3UXMVECTORI32@1@B ; DirectX::g_XMSelect1110
  000f1	e8 00 00 00 00	 call	 ??BXMVECTORI32@DirectX@@QBE?AT__m128@@XZ ; DirectX::XMVECTORI32::operator __m128
  000f6	0f 10 00	 movups	 xmm0, XMMWORD PTR [eax]
  000f9	8d 8d a0 fe ff
	ff		 lea	 ecx, DWORD PTR $T25[ebp]
  000ff	51		 push	 ecx
  00100	b9 00 00 00 00	 mov	 ecx, OFFSET ?g_XMZero@DirectX@@3UXMVECTORF32@1@B ; DirectX::g_XMZero
  00105	0f 29 85 40 f9
	ff ff		 movaps	 XMMWORD PTR tv397[ebp], xmm0
  0010c	e8 00 00 00 00	 call	 ??BXMVECTORF32@DirectX@@QBE?AT__m128@@XZ ; DirectX::XMVECTORF32::operator __m128
  00111	0f 10 08	 movups	 xmm1, XMMWORD PTR [eax]
  00114	ba 10 00 00 00	 mov	 edx, 16			; 00000010H
  00119	6b c2 03	 imul	 eax, edx, 3
  0011c	0f 10 84 05 10
	ff ff ff	 movups	 xmm0, XMMWORD PTR _mInvView$[ebp+eax]
  00124	0f 28 95 40 f9
	ff ff		 movaps	 xmm2, XMMWORD PTR tv397[ebp]
  0012b	e8 00 00 00 00	 call	 ?XMVectorSelect@DirectX@@YQ?AT__m128@@T2@00@Z ; DirectX::XMVectorSelect
  00130	0f 29 85 90 fe
	ff ff		 movaps	 XMMWORD PTR $T24[ebp], xmm0
  00137	b9 10 00 00 00	 mov	 ecx, 16			; 00000010H
  0013c	6b d1 03	 imul	 edx, ecx, 3
  0013f	0f 10 85 90 fe
	ff ff		 movups	 xmm0, XMMWORD PTR $T24[ebp]
  00146	0f 11 84 15 10
	ff ff ff	 movups	 XMMWORD PTR _mInvView$[ebp+edx], xmm0
; Line 1169
  0014e	8b 4d f8	 mov	 ecx, DWORD PTR _this$[ebp]
  00151	83 c1 40	 add	 ecx, 64			; 00000040H
  00154	e8 00 00 00 00	 call	 ?XMLoadFloat4x4@DirectX@@YQ?AUXMMATRIX@1@PBUXMFLOAT4X4@1@@Z ; DirectX::XMLoadFloat4x4
  00159	0f 29 9d 00 fa
	ff ff		 movaps	 XMMWORD PTR $T3[ebp+48], xmm3
  00160	0f 29 95 f0 f9
	ff ff		 movaps	 XMMWORD PTR $T3[ebp+32], xmm2
  00167	0f 29 8d e0 f9
	ff ff		 movaps	 XMMWORD PTR $T3[ebp+16], xmm1
  0016e	0f 29 85 d0 f9
	ff ff		 movaps	 XMMWORD PTR $T3[ebp], xmm0
  00175	b9 10 00 00 00	 mov	 ecx, 16			; 00000010H
  0017a	8d b5 d0 f9 ff
	ff		 lea	 esi, DWORD PTR $T3[ebp]
  00180	8d bd f0 fd ff
	ff		 lea	 edi, DWORD PTR $T23[ebp]
  00186	f3 a5		 rep movsd
  00188	b9 10 00 00 00	 mov	 ecx, 16			; 00000010H
  0018d	8d b5 f0 fd ff
	ff		 lea	 esi, DWORD PTR $T23[ebp]
  00193	8d bd 40 fe ff
	ff		 lea	 edi, DWORD PTR _mRotSnapshot$[ebp]
  00199	f3 a5		 rep movsd
; Line 1170
  0019b	33 c9		 xor	 ecx, ecx
  0019d	0f 28 85 40 fe
	ff ff		 movaps	 xmm0, XMMWORD PTR _mRotSnapshot$[ebp]
  001a4	0f 28 8d 50 fe
	ff ff		 movaps	 xmm1, XMMWORD PTR _mRotSnapshot$[ebp+16]
  001ab	0f 28 95 60 fe
	ff ff		 movaps	 xmm2, XMMWORD PTR _mRotSnapshot$[ebp+32]
  001b2	0f 28 9d 70 fe
	ff ff		 movaps	 xmm3, XMMWORD PTR _mRotSnapshot$[ebp+48]
  001b9	e8 00 00 00 00	 call	 ?XMMatrixInverse@DirectX@@YQ?AUXMMATRIX@1@PAT__m128@@U21@@Z ; DirectX::XMMatrixInverse
  001be	0f 29 9d c0 f9
	ff ff		 movaps	 XMMWORD PTR $T2[ebp+48], xmm3
  001c5	0f 29 95 b0 f9
	ff ff		 movaps	 XMMWORD PTR $T2[ebp+32], xmm2
  001cc	0f 29 8d a0 f9
	ff ff		 movaps	 XMMWORD PTR $T2[ebp+16], xmm1
  001d3	0f 29 85 90 f9
	ff ff		 movaps	 XMMWORD PTR $T2[ebp], xmm0
  001da	b9 10 00 00 00	 mov	 ecx, 16			; 00000010H
  001df	8d b5 90 f9 ff
	ff		 lea	 esi, DWORD PTR $T2[ebp]
  001e5	8d bd 50 fd ff
	ff		 lea	 edi, DWORD PTR $T22[ebp]
  001eb	f3 a5		 rep movsd
  001ed	b9 10 00 00 00	 mov	 ecx, 16			; 00000010H
  001f2	8d b5 50 fd ff
	ff		 lea	 esi, DWORD PTR $T22[ebp]
  001f8	8d bd a0 fd ff
	ff		 lea	 edi, DWORD PTR _mLastRotInv$[ebp]
  001fe	f3 a5		 rep movsd
; Line 1172
  00200	8d 85 00 fd ff
	ff		 lea	 eax, DWORD PTR _mRot0$[ebp]
  00206	50		 push	 eax
  00207	8b 4d f8	 mov	 ecx, DWORD PTR _this$[ebp]
  0020a	81 c1 88 00 00
	00		 add	 ecx, 136		; 00000088H
  00210	e8 00 00 00 00	 call	 ?GetRotationMatrix@CD3DArcBall@@QBE?AUXMMATRIX@DirectX@@XZ ; CD3DArcBall::GetRotationMatrix
; Line 1173
  00215	8b 4d f8	 mov	 ecx, DWORD PTR _this$[ebp]
  00218	83 c1 40	 add	 ecx, 64			; 00000040H
  0021b	0f 28 85 00 fd
	ff ff		 movaps	 xmm0, XMMWORD PTR _mRot0$[ebp]
  00222	0f 28 8d 10 fd
	ff ff		 movaps	 xmm1, XMMWORD PTR _mRot0$[ebp+16]
  00229	0f 28 95 20 fd
	ff ff		 movaps	 xmm2, XMMWORD PTR _mRot0$[ebp+32]
  00230	0f 28 9d 30 fd
	ff ff		 movaps	 xmm3, XMMWORD PTR _mRot0$[ebp+48]
  00237	e8 00 00 00 00	 call	 ?XMStoreFloat4x4@DirectX@@YQXPAUXMFLOAT4X4@1@UXMMATRIX@1@@Z ; DirectX::XMStoreFloat4x4
; Line 1177
  0023c	8b 4d f8	 mov	 ecx, DWORD PTR _this$[ebp]
  0023f	e8 00 00 00 00	 call	 ?XMLoadFloat4x4@DirectX@@YQ?AUXMMATRIX@1@PBUXMFLOAT4X4@1@@Z ; DirectX::XMLoadFloat4x4
  00244	0f 29 9d 80 f9
	ff ff		 movaps	 XMMWORD PTR $T1[ebp+48], xmm3
  0024b	0f 29 95 70 f9
	ff ff		 movaps	 XMMWORD PTR $T1[ebp+32], xmm2
  00252	0f 29 8d 60 f9
	ff ff		 movaps	 XMMWORD PTR $T1[ebp+16], xmm1
  00259	0f 29 85 50 f9
	ff ff		 movaps	 XMMWORD PTR $T1[ebp], xmm0
  00260	b9 10 00 00 00	 mov	 ecx, 16			; 00000010H
  00265	8d b5 50 f9 ff
	ff		 lea	 esi, DWORD PTR $T1[ebp]
  0026b	8d bd 60 fc ff
	ff		 lea	 edi, DWORD PTR $T21[ebp]
  00271	f3 a5		 rep movsd
  00273	b9 10 00 00 00	 mov	 ecx, 16			; 00000010H
  00278	8d b5 60 fc ff
	ff		 lea	 esi, DWORD PTR $T21[ebp]
  0027e	8d bd b0 fc ff
	ff		 lea	 edi, DWORD PTR _mRot$[ebp]
  00284	f3 a5		 rep movsd
; Line 1178
  00286	8d 95 20 fc ff
	ff		 lea	 edx, DWORD PTR $T20[ebp]
  0028c	8d 4d b0	 lea	 ecx, DWORD PTR _mView$[ebp]
  0028f	0f 28 85 a0 fd
	ff ff		 movaps	 xmm0, XMMWORD PTR _mLastRotInv$[ebp]
  00296	0f 28 8d b0 fd
	ff ff		 movaps	 xmm1, XMMWORD PTR _mLastRotInv$[ebp+16]
  0029d	0f 28 95 c0 fd
	ff ff		 movaps	 xmm2, XMMWORD PTR _mLastRotInv$[ebp+32]
  002a4	0f 28 9d d0 fd
	ff ff		 movaps	 xmm3, XMMWORD PTR _mLastRotInv$[ebp+48]
  002ab	e8 00 00 00 00	 call	 ??DXMMATRIX@DirectX@@QBQ?AU01@U01@@Z ; DirectX::XMMATRIX::operator*
  002b0	8d 95 e0 fb ff
	ff		 lea	 edx, DWORD PTR $T19[ebp]
  002b6	8b c8		 mov	 ecx, eax
  002b8	0f 28 85 00 fd
	ff ff		 movaps	 xmm0, XMMWORD PTR _mRot0$[ebp]
  002bf	0f 28 8d 10 fd
	ff ff		 movaps	 xmm1, XMMWORD PTR _mRot0$[ebp+16]
  002c6	0f 28 95 20 fd
	ff ff		 movaps	 xmm2, XMMWORD PTR _mRot0$[ebp+32]
  002cd	0f 28 9d 30 fd
	ff ff		 movaps	 xmm3, XMMWORD PTR _mRot0$[ebp+48]
  002d4	e8 00 00 00 00	 call	 ??DXMMATRIX@DirectX@@QBQ?AU01@U01@@Z ; DirectX::XMMATRIX::operator*
  002d9	8d 95 a0 fb ff
	ff		 lea	 edx, DWORD PTR $T18[ebp]
  002df	8b c8		 mov	 ecx, eax
  002e1	0f 28 85 10 ff
	ff ff		 movaps	 xmm0, XMMWORD PTR _mInvView$[ebp]
  002e8	0f 28 8d 20 ff
	ff ff		 movaps	 xmm1, XMMWORD PTR _mInvView$[ebp+16]
  002ef	0f 28 95 30 ff
	ff ff		 movaps	 xmm2, XMMWORD PTR _mInvView$[ebp+32]
  002f6	0f 28 9d 40 ff
	ff ff		 movaps	 xmm3, XMMWORD PTR _mInvView$[ebp+48]
  002fd	e8 00 00 00 00	 call	 ??DXMMATRIX@DirectX@@QBQ?AU01@U01@@Z ; DirectX::XMMATRIX::operator*
  00302	8d 8d b0 fc ff
	ff		 lea	 ecx, DWORD PTR _mRot$[ebp]
  00308	0f 28 00	 movaps	 xmm0, XMMWORD PTR [eax]
  0030b	0f 28 48 10	 movaps	 xmm1, XMMWORD PTR [eax+16]
  0030f	0f 28 50 20	 movaps	 xmm2, XMMWORD PTR [eax+32]
  00313	0f 28 58 30	 movaps	 xmm3, XMMWORD PTR [eax+48]
  00317	e8 00 00 00 00	 call	 ??XXMMATRIX@DirectX@@QAQAAU01@U01@@Z ; DirectX::XMMATRIX::operator*=
; Line 1182
  0031c	b9 10 00 00 00	 mov	 ecx, 16			; 00000010H
  00321	6b d1 00	 imul	 edx, ecx, 0
  00324	0f 10 84 15 b0
	fc ff ff	 movups	 xmm0, XMMWORD PTR _mRot$[ebp+edx]
  0032c	e8 00 00 00 00	 call	 ?XMVector3Normalize@DirectX@@YQ?AT__m128@@T2@@Z ; DirectX::XMVector3Normalize
  00331	0f 29 85 80 fb
	ff ff		 movaps	 XMMWORD PTR $T17[ebp], xmm0
  00338	0f 28 85 80 fb
	ff ff		 movaps	 xmm0, XMMWORD PTR $T17[ebp]
  0033f	0f 29 85 90 fb
	ff ff		 movaps	 XMMWORD PTR _xBasis$[ebp], xmm0
; Line 1183
  00346	0f 28 8d 90 fb
	ff ff		 movaps	 xmm1, XMMWORD PTR _xBasis$[ebp]
  0034d	b8 10 00 00 00	 mov	 eax, 16			; 00000010H
  00352	d1 e0		 shl	 eax, 1
  00354	0f 10 84 05 b0
	fc ff ff	 movups	 xmm0, XMMWORD PTR _mRot$[ebp+eax]
  0035c	e8 00 00 00 00	 call	 ?XMVector3Cross@DirectX@@YQ?AT__m128@@T2@0@Z ; DirectX::XMVector3Cross
  00361	0f 29 85 60 fb
	ff ff		 movaps	 XMMWORD PTR $T16[ebp], xmm0
  00368	0f 28 85 60 fb
	ff ff		 movaps	 xmm0, XMMWORD PTR $T16[ebp]
  0036f	0f 29 85 70 fb
	ff ff		 movaps	 XMMWORD PTR _yBasis$[ebp], xmm0
; Line 1184
  00376	0f 28 85 70 fb
	ff ff		 movaps	 xmm0, XMMWORD PTR _yBasis$[ebp]
  0037d	e8 00 00 00 00	 call	 ?XMVector3Normalize@DirectX@@YQ?AT__m128@@T2@@Z ; DirectX::XMVector3Normalize
  00382	0f 29 85 50 fb
	ff ff		 movaps	 XMMWORD PTR $T15[ebp], xmm0
  00389	0f 28 85 50 fb
	ff ff		 movaps	 xmm0, XMMWORD PTR $T15[ebp]
  00390	0f 29 85 70 fb
	ff ff		 movaps	 XMMWORD PTR _yBasis$[ebp], xmm0
; Line 1185
  00397	0f 28 8d 70 fb
	ff ff		 movaps	 xmm1, XMMWORD PTR _yBasis$[ebp]
  0039e	0f 28 85 90 fb
	ff ff		 movaps	 xmm0, XMMWORD PTR _xBasis$[ebp]
  003a5	e8 00 00 00 00	 call	 ?XMVector3Cross@DirectX@@YQ?AT__m128@@T2@0@Z ; DirectX::XMVector3Cross
  003aa	0f 29 85 30 fb
	ff ff		 movaps	 XMMWORD PTR $T14[ebp], xmm0
  003b1	0f 28 85 30 fb
	ff ff		 movaps	 xmm0, XMMWORD PTR $T14[ebp]
  003b8	0f 29 85 40 fb
	ff ff		 movaps	 XMMWORD PTR _zBasis$[ebp], xmm0
; Line 1186
  003bf	8d 8d 20 fb ff
	ff		 lea	 ecx, DWORD PTR $T13[ebp]
  003c5	51		 push	 ecx
  003c6	b9 00 00 00 00	 mov	 ecx, OFFSET ?g_XMSelect1110@DirectX@@3UXMVECTORI32@1@B ; DirectX::g_XMSelect1110
  003cb	e8 00 00 00 00	 call	 ??BXMVECTORI32@DirectX@@QBE?AT__m128@@XZ ; DirectX::XMVECTORI32::operator __m128
  003d0	0f 10 10	 movups	 xmm2, XMMWORD PTR [eax]
  003d3	0f 28 8d 90 fb
	ff ff		 movaps	 xmm1, XMMWORD PTR _xBasis$[ebp]
  003da	ba 10 00 00 00	 mov	 edx, 16			; 00000010H
  003df	6b c2 00	 imul	 eax, edx, 0
  003e2	0f 10 84 05 b0
	fc ff ff	 movups	 xmm0, XMMWORD PTR _mRot$[ebp+eax]
  003ea	e8 00 00 00 00	 call	 ?XMVectorSelect@DirectX@@YQ?AT__m128@@T2@00@Z ; DirectX::XMVectorSelect
  003ef	0f 29 85 10 fb
	ff ff		 movaps	 XMMWORD PTR $T12[ebp], xmm0
  003f6	b9 10 00 00 00	 mov	 ecx, 16			; 00000010H
  003fb	6b d1 00	 imul	 edx, ecx, 0
  003fe	0f 10 85 10 fb
	ff ff		 movups	 xmm0, XMMWORD PTR $T12[ebp]
  00405	0f 11 84 15 b0
	fc ff ff	 movups	 XMMWORD PTR _mRot$[ebp+edx], xmm0
; Line 1187
  0040d	8d 85 00 fb ff
	ff		 lea	 eax, DWORD PTR $T11[ebp]
  00413	50		 push	 eax
  00414	b9 00 00 00 00	 mov	 ecx, OFFSET ?g_XMSelect1110@DirectX@@3UXMVECTORI32@1@B ; DirectX::g_XMSelect1110
  00419	e8 00 00 00 00	 call	 ??BXMVECTORI32@DirectX@@QBE?AT__m128@@XZ ; DirectX::XMVECTORI32::operator __m128
  0041e	0f 10 10	 movups	 xmm2, XMMWORD PTR [eax]
  00421	0f 28 8d 70 fb
	ff ff		 movaps	 xmm1, XMMWORD PTR _yBasis$[ebp]
  00428	b9 10 00 00 00	 mov	 ecx, 16			; 00000010H
  0042d	c1 e1 00	 shl	 ecx, 0
  00430	0f 10 84 0d b0
	fc ff ff	 movups	 xmm0, XMMWORD PTR _mRot$[ebp+ecx]
  00438	e8 00 00 00 00	 call	 ?XMVectorSelect@DirectX@@YQ?AT__m128@@T2@00@Z ; DirectX::XMVectorSelect
  0043d	0f 29 85 f0 fa
	ff ff		 movaps	 XMMWORD PTR $T10[ebp], xmm0
  00444	ba 10 00 00 00	 mov	 edx, 16			; 00000010H
  00449	c1 e2 00	 shl	 edx, 0
  0044c	0f 10 85 f0 fa
	ff ff		 movups	 xmm0, XMMWORD PTR $T10[ebp]
  00453	0f 11 84 15 b0
	fc ff ff	 movups	 XMMWORD PTR _mRot$[ebp+edx], xmm0
; Line 1188
  0045b	8d 85 e0 fa ff
	ff		 lea	 eax, DWORD PTR $T9[ebp]
  00461	50		 push	 eax
  00462	b9 00 00 00 00	 mov	 ecx, OFFSET ?g_XMSelect1110@DirectX@@3UXMVECTORI32@1@B ; DirectX::g_XMSelect1110
  00467	e8 00 00 00 00	 call	 ??BXMVECTORI32@DirectX@@QBE?AT__m128@@XZ ; DirectX::XMVECTORI32::operator __m128
  0046c	0f 10 10	 movups	 xmm2, XMMWORD PTR [eax]
  0046f	0f 28 8d 40 fb
	ff ff		 movaps	 xmm1, XMMWORD PTR _zBasis$[ebp]
  00476	b9 10 00 00 00	 mov	 ecx, 16			; 00000010H
  0047b	d1 e1		 shl	 ecx, 1
  0047d	0f 10 84 0d b0
	fc ff ff	 movups	 xmm0, XMMWORD PTR _mRot$[ebp+ecx]
  00485	e8 00 00 00 00	 call	 ?XMVectorSelect@DirectX@@YQ?AT__m128@@T2@00@Z ; DirectX::XMVectorSelect
  0048a	0f 29 85 d0 fa
	ff ff		 movaps	 XMMWORD PTR $T8[ebp], xmm0
  00491	ba 10 00 00 00	 mov	 edx, 16			; 00000010H
  00496	d1 e2		 shl	 edx, 1
  00498	0f 10 85 d0 fa
	ff ff		 movups	 xmm0, XMMWORD PTR $T8[ebp]
  0049f	0f 11 84 15 b0
	fc ff ff	 movups	 XMMWORD PTR _mRot$[ebp+edx], xmm0
; Line 1189
  004a7	8b 4d f8	 mov	 ecx, DWORD PTR _this$[ebp]
  004aa	0f 28 85 b0 fc
	ff ff		 movaps	 xmm0, XMMWORD PTR _mRot$[ebp]
  004b1	0f 28 8d c0 fc
	ff ff		 movaps	 xmm1, XMMWORD PTR _mRot$[ebp+16]
  004b8	0f 28 95 d0 fc
	ff ff		 movaps	 xmm2, XMMWORD PTR _mRot$[ebp+32]
  004bf	0f 28 9d e0 fc
	ff ff		 movaps	 xmm3, XMMWORD PTR _mRot$[ebp+48]
  004c6	e8 00 00 00 00	 call	 ?XMStoreFloat4x4@DirectX@@YQXPAUXMFLOAT4X4@1@UXMMATRIX@1@@Z ; DirectX::XMStoreFloat4x4
; Line 1192
  004cb	8b 4d f8	 mov	 ecx, DWORD PTR _this$[ebp]
  004ce	81 c1 ac 01 00
	00		 add	 ecx, 428		; 000001acH
  004d4	e8 00 00 00 00	 call	 ?XMLoadFloat3@DirectX@@YQ?AT__m128@@PBUXMFLOAT3@1@@Z ; DirectX::XMLoadFloat3
  004d9	0f 29 85 b0 fa
	ff ff		 movaps	 XMMWORD PTR $T7[ebp], xmm0
  004e0	0f 28 85 b0 fa
	ff ff		 movaps	 xmm0, XMMWORD PTR $T7[ebp]
  004e7	0f 29 85 c0 fa
	ff ff		 movaps	 XMMWORD PTR _vDefaultDir$[ebp], xmm0
; Line 1193
  004ee	0f 28 85 c0 fa
	ff ff		 movaps	 xmm0, XMMWORD PTR _vDefaultDir$[ebp]
  004f5	0f 28 8d b0 fc
	ff ff		 movaps	 xmm1, XMMWORD PTR _mRot$[ebp]
  004fc	0f 28 95 c0 fc
	ff ff		 movaps	 xmm2, XMMWORD PTR _mRot$[ebp+16]
  00503	0f 28 9d d0 fc
	ff ff		 movaps	 xmm3, XMMWORD PTR _mRot$[ebp+32]
  0050a	0f 28 a5 e0 fc
	ff ff		 movaps	 xmm4, XMMWORD PTR _mRot$[ebp+48]
  00511	e8 00 00 00 00	 call	 ?XMVector3TransformNormal@DirectX@@YQ?AT__m128@@T2@UXMMATRIX@1@@Z ; DirectX::XMVector3TransformNormal
  00516	0f 29 85 90 fa
	ff ff		 movaps	 XMMWORD PTR $T6[ebp], xmm0
  0051d	0f 28 85 90 fa
	ff ff		 movaps	 xmm0, XMMWORD PTR $T6[ebp]
  00524	0f 29 85 a0 fa
	ff ff		 movaps	 XMMWORD PTR _vCurrentDir$[ebp], xmm0
; Line 1194
  0052b	0f 28 85 a0 fa
	ff ff		 movaps	 xmm0, XMMWORD PTR _vCurrentDir$[ebp]
  00532	8b 4d f8	 mov	 ecx, DWORD PTR _this$[ebp]
  00535	81 c1 b8 01 00
	00		 add	 ecx, 440		; 000001b8H
  0053b	e8 00 00 00 00	 call	 ?XMStoreFloat3@DirectX@@YQXPAUXMFLOAT3@1@T__m128@@@Z ; DirectX::XMStoreFloat3
; Line 1196
  00540	33 c0		 xor	 eax, eax
; Line 1197
  00542	52		 push	 edx
  00543	8b cd		 mov	 ecx, ebp
  00545	50		 push	 eax
  00546	8d 15 00 00 00
	00		 lea	 edx, DWORD PTR $LN10@UpdateLigh
  0054c	e8 00 00 00 00	 call	 @_RTC_CheckStackVars@8
  00551	58		 pop	 eax
  00552	5a		 pop	 edx
  00553	5f		 pop	 edi
  00554	5e		 pop	 esi
  00555	8b 4d fc	 mov	 ecx, DWORD PTR __$ArrayPad$[ebp]
  00558	33 cd		 xor	 ecx, ebp
  0055a	e8 00 00 00 00	 call	 @__security_check_cookie@4
  0055f	8b e5		 mov	 esp, ebp
  00561	5d		 pop	 ebp
  00562	8b e3		 mov	 esp, ebx
  00564	5b		 pop	 ebx
  00565	c3		 ret	 0
  00566	8b ff		 npad	 2
$LN10@UpdateLigh:
  00568	06 00 00 00	 DD	 6
  0056c	00 00 00 00	 DD	 $LN9@UpdateLigh
$LN9@UpdateLigh:
  00570	b0 ff ff ff	 DD	 -80			; ffffffb0H
  00574	40 00 00 00	 DD	 64			; 00000040H
  00578	00 00 00 00	 DD	 $LN3@UpdateLigh
  0057c	10 ff ff ff	 DD	 -240			; ffffff10H
  00580	40 00 00 00	 DD	 64			; 00000040H
  00584	00 00 00 00	 DD	 $LN4@UpdateLigh
  00588	40 fe ff ff	 DD	 -448			; fffffe40H
  0058c	40 00 00 00	 DD	 64			; 00000040H
  00590	00 00 00 00	 DD	 $LN5@UpdateLigh
  00594	a0 fd ff ff	 DD	 -608			; fffffda0H
  00598	40 00 00 00	 DD	 64			; 00000040H
  0059c	00 00 00 00	 DD	 $LN6@UpdateLigh
  005a0	00 fd ff ff	 DD	 -768			; fffffd00H
  005a4	40 00 00 00	 DD	 64			; 00000040H
  005a8	00 00 00 00	 DD	 $LN7@UpdateLigh
  005ac	b0 fc ff ff	 DD	 -848			; fffffcb0H
  005b0	40 00 00 00	 DD	 64			; 00000040H
  005b4	00 00 00 00	 DD	 $LN8@UpdateLigh
$LN8@UpdateLigh:
  005b8	6d		 DB	 109			; 0000006dH
  005b9	52		 DB	 82			; 00000052H
  005ba	6f		 DB	 111			; 0000006fH
  005bb	74		 DB	 116			; 00000074H
  005bc	00		 DB	 0
$LN7@UpdateLigh:
  005bd	6d		 DB	 109			; 0000006dH
  005be	52		 DB	 82			; 00000052H
  005bf	6f		 DB	 111			; 0000006fH
  005c0	74		 DB	 116			; 00000074H
  005c1	30		 DB	 48			; 00000030H
  005c2	00		 DB	 0
$LN6@UpdateLigh:
  005c3	6d		 DB	 109			; 0000006dH
  005c4	4c		 DB	 76			; 0000004cH
  005c5	61		 DB	 97			; 00000061H
  005c6	73		 DB	 115			; 00000073H
  005c7	74		 DB	 116			; 00000074H
  005c8	52		 DB	 82			; 00000052H
  005c9	6f		 DB	 111			; 0000006fH
  005ca	74		 DB	 116			; 00000074H
  005cb	49		 DB	 73			; 00000049H
  005cc	6e		 DB	 110			; 0000006eH
  005cd	76		 DB	 118			; 00000076H
  005ce	00		 DB	 0
$LN5@UpdateLigh:
  005cf	6d		 DB	 109			; 0000006dH
  005d0	52		 DB	 82			; 00000052H
  005d1	6f		 DB	 111			; 0000006fH
  005d2	74		 DB	 116			; 00000074H
  005d3	53		 DB	 83			; 00000053H
  005d4	6e		 DB	 110			; 0000006eH
  005d5	61		 DB	 97			; 00000061H
  005d6	70		 DB	 112			; 00000070H
  005d7	73		 DB	 115			; 00000073H
  005d8	68		 DB	 104			; 00000068H
  005d9	6f		 DB	 111			; 0000006fH
  005da	74		 DB	 116			; 00000074H
  005db	00		 DB	 0
$LN4@UpdateLigh:
  005dc	6d		 DB	 109			; 0000006dH
  005dd	49		 DB	 73			; 00000049H
  005de	6e		 DB	 110			; 0000006eH
  005df	76		 DB	 118			; 00000076H
  005e0	56		 DB	 86			; 00000056H
  005e1	69		 DB	 105			; 00000069H
  005e2	65		 DB	 101			; 00000065H
  005e3	77		 DB	 119			; 00000077H
  005e4	00		 DB	 0
$LN3@UpdateLigh:
  005e5	6d		 DB	 109			; 0000006dH
  005e6	56		 DB	 86			; 00000056H
  005e7	69		 DB	 105			; 00000069H
  005e8	65		 DB	 101			; 00000065H
  005e9	77		 DB	 119			; 00000077H
  005ea	00		 DB	 0
?UpdateLightDir@CDXUTDirectionWidget@@IAEJXZ ENDP	; CDXUTDirectionWidget::UpdateLightDir
_TEXT	ENDS
; Function compile flags: /Odtp /RTCsu
_TEXT	SEGMENT
?StaticOnD3D11DestroyDevice@CDXUTDirectionWidget@@SGXXZ PROC ; CDXUTDirectionWidget::StaticOnD3D11DestroyDevice
; File d:\engine class\assignment 1\new scratch\dxut\optional\dxutcamera.cpp
; Line 1226
  00000	55		 push	 ebp
  00001	8b ec		 mov	 ebp, esp
; Line 1228
  00003	5d		 pop	 ebp
  00004	c3		 ret	 0
?StaticOnD3D11DestroyDevice@CDXUTDirectionWidget@@SGXXZ ENDP ; CDXUTDirectionWidget::StaticOnD3D11DestroyDevice
_TEXT	ENDS
; Function compile flags: /Odtp /RTCsu
_TEXT	SEGMENT
_pd3dDevice$ = 8					; size = 4
_pd3dImmediateContext$ = 12				; size = 4
?StaticOnD3D11CreateDevice@CDXUTDirectionWidget@@SGJPAUID3D11Device@@PAUID3D11DeviceContext@@@Z PROC ; CDXUTDirectionWidget::StaticOnD3D11CreateDevice
; File d:\engine class\assignment 1\new scratch\dxut\optional\dxutcamera.cpp
; Line 1216
  00000	55		 push	 ebp
  00001	8b ec		 mov	 ebp, esp
; Line 1220
  00003	33 c0		 xor	 eax, eax
; Line 1221
  00005	5d		 pop	 ebp
  00006	c2 08 00	 ret	 8
?StaticOnD3D11CreateDevice@CDXUTDirectionWidget@@SGJPAUID3D11Device@@PAUID3D11DeviceContext@@@Z ENDP ; CDXUTDirectionWidget::StaticOnD3D11CreateDevice
_TEXT	ENDS
; Function compile flags: /Odtp /RTCsu
_TEXT	SEGMENT
_this$ = -36						; size = 4
_vEyePt$ = -32						; size = 16
_color$ = -16						; size = 16
_mView$ = 8						; size = 4
_mProj$ = 12						; size = 4
?OnRender@CDXUTDirectionWidget@@QAEJT__m128@@ABUXMMATRIX@DirectX@@10@Z PROC ; CDXUTDirectionWidget::OnRender
; _this$ = ecx
; _color$ = xmm0
; _vEyePt$ = xmm1
; File d:\engine class\assignment 1\new scratch\dxut\optional\dxutcamera.cpp
; Line 1203
  00000	53		 push	 ebx
  00001	8b dc		 mov	 ebx, esp
  00003	83 ec 08	 sub	 esp, 8
  00006	83 e4 f0	 and	 esp, -16		; fffffff0H
  00009	83 c4 04	 add	 esp, 4
  0000c	55		 push	 ebp
  0000d	8b 6b 04	 mov	 ebp, DWORD PTR [ebx+4]
  00010	89 6c 24 04	 mov	 DWORD PTR [esp+4], ebp
  00014	8b ec		 mov	 ebp, esp
  00016	83 ec 30	 sub	 esp, 48			; 00000030H
  00019	57		 push	 edi
  0001a	51		 push	 ecx
  0001b	8d 7d d0	 lea	 edi, DWORD PTR [ebp-48]
  0001e	b9 0c 00 00 00	 mov	 ecx, 12			; 0000000cH
  00023	b8 cc cc cc cc	 mov	 eax, -858993460		; ccccccccH
  00028	f3 ab		 rep stosd
  0002a	59		 pop	 ecx
  0002b	0f 29 4d e0	 movaps	 XMMWORD PTR _vEyePt$[ebp], xmm1
  0002f	0f 29 45 f0	 movaps	 XMMWORD PTR _color$[ebp], xmm0
  00033	89 4d dc	 mov	 DWORD PTR _this$[ebp], ecx
; Line 1209
  00036	33 c0		 xor	 eax, eax
; Line 1210
  00038	5f		 pop	 edi
  00039	8b e5		 mov	 esp, ebp
  0003b	5d		 pop	 ebp
  0003c	8b e3		 mov	 esp, ebx
  0003e	5b		 pop	 ebx
  0003f	c2 08 00	 ret	 8
?OnRender@CDXUTDirectionWidget@@QAEJT__m128@@ABUXMMATRIX@DirectX@@10@Z ENDP ; CDXUTDirectionWidget::OnRender
_TEXT	ENDS
; Function compile flags: /Odtp /RTCsu
_TEXT	SEGMENT
tv64 = -24						; size = 4
_iMouseY$1 = -20					; size = 4
_iMouseX$2 = -16					; size = 4
_iMouseY$3 = -12					; size = 4
_iMouseX$4 = -8						; size = 4
_this$ = -4						; size = 4
_hWnd$ = 8						; size = 4
_uMsg$ = 12						; size = 4
_wParam$ = 16						; size = 4
_lParam$ = 20						; size = 4
?HandleMessages@CDXUTDirectionWidget@@QAEJPAUHWND__@@IIJ@Z PROC ; CDXUTDirectionWidget::HandleMessages
; _this$ = ecx
; File d:\engine class\assignment 1\new scratch\dxut\optional\dxutcamera.cpp
; Line 1092
  00000	55		 push	 ebp
  00001	8b ec		 mov	 ebp, esp
  00003	83 ec 18	 sub	 esp, 24			; 00000018H
  00006	56		 push	 esi
  00007	b8 cc cc cc cc	 mov	 eax, -858993460		; ccccccccH
  0000c	89 45 e8	 mov	 DWORD PTR [ebp-24], eax
  0000f	89 45 ec	 mov	 DWORD PTR [ebp-20], eax
  00012	89 45 f0	 mov	 DWORD PTR [ebp-16], eax
  00015	89 45 f4	 mov	 DWORD PTR [ebp-12], eax
  00018	89 45 f8	 mov	 DWORD PTR [ebp-8], eax
  0001b	89 45 fc	 mov	 DWORD PTR [ebp-4], eax
  0001e	89 4d fc	 mov	 DWORD PTR _this$[ebp], ecx
; Line 1095
  00021	8b 45 0c	 mov	 eax, DWORD PTR _uMsg$[ebp]
  00024	89 45 e8	 mov	 DWORD PTR tv64[ebp], eax
  00027	8b 4d e8	 mov	 ecx, DWORD PTR tv64[ebp]
  0002a	81 e9 00 02 00
	00		 sub	 ecx, 512		; 00000200H
  00030	89 4d e8	 mov	 DWORD PTR tv64[ebp], ecx
  00033	83 7d e8 15	 cmp	 DWORD PTR tv64[ebp], 21	; 00000015H
  00037	0f 87 cd 01 00
	00		 ja	 $LN17@HandleMess
  0003d	8b 55 e8	 mov	 edx, DWORD PTR tv64[ebp]
  00040	0f b6 82 00 00
	00 00		 movzx	 eax, BYTE PTR $LN21@HandleMess[edx]
  00047	ff 24 85 00 00
	00 00		 jmp	 DWORD PTR $LN22@HandleMess[eax*4]
$LN16@HandleMess:
; Line 1103
  0004e	8b 4d fc	 mov	 ecx, DWORD PTR _this$[ebp]
  00051	8b 91 84 00 00
	00		 mov	 edx, DWORD PTR [ecx+132]
  00057	83 e2 01	 and	 edx, 1
  0005a	74 09		 je	 SHORT $LN13@HandleMess
  0005c	81 7d 0c 01 02
	00 00		 cmp	 DWORD PTR _uMsg$[ebp], 513 ; 00000201H
  00063	74 2e		 je	 SHORT $LN14@HandleMess
$LN13@HandleMess:
  00065	8b 45 fc	 mov	 eax, DWORD PTR _this$[ebp]
  00068	8b 88 84 00 00
	00		 mov	 ecx, DWORD PTR [eax+132]
  0006e	83 e1 02	 and	 ecx, 2
  00071	74 09		 je	 SHORT $LN12@HandleMess
  00073	81 7d 0c 07 02
	00 00		 cmp	 DWORD PTR _uMsg$[ebp], 519 ; 00000207H
  0007a	74 17		 je	 SHORT $LN14@HandleMess
$LN12@HandleMess:
  0007c	8b 55 fc	 mov	 edx, DWORD PTR _this$[ebp]
  0007f	8b 82 84 00 00
	00		 mov	 eax, DWORD PTR [edx+132]
  00085	83 e0 04	 and	 eax, 4
  00088	74 52		 je	 SHORT $LN15@HandleMess
  0008a	81 7d 0c 04 02
	00 00		 cmp	 DWORD PTR _uMsg$[ebp], 516 ; 00000204H
  00091	75 49		 jne	 SHORT $LN15@HandleMess
$LN14@HandleMess:
; Line 1105
  00093	8b 4d 14	 mov	 ecx, DWORD PTR _lParam$[ebp]
  00096	81 e1 ff ff 00
	00		 and	 ecx, 65535		; 0000ffffH
  0009c	0f bf d1	 movsx	 edx, cx
  0009f	89 55 f8	 mov	 DWORD PTR _iMouseX$4[ebp], edx
; Line 1106
  000a2	8b 45 14	 mov	 eax, DWORD PTR _lParam$[ebp]
  000a5	c1 e8 10	 shr	 eax, 16			; 00000010H
  000a8	25 ff ff 00 00	 and	 eax, 65535		; 0000ffffH
  000ad	0f bf c8	 movsx	 ecx, ax
  000b0	89 4d f4	 mov	 DWORD PTR _iMouseY$3[ebp], ecx
; Line 1107
  000b3	8b 55 f4	 mov	 edx, DWORD PTR _iMouseY$3[ebp]
  000b6	52		 push	 edx
  000b7	8b 45 f8	 mov	 eax, DWORD PTR _iMouseX$4[ebp]
  000ba	50		 push	 eax
  000bb	8b 4d fc	 mov	 ecx, DWORD PTR _this$[ebp]
  000be	81 c1 88 00 00
	00		 add	 ecx, 136		; 00000088H
  000c4	e8 00 00 00 00	 call	 ?OnBegin@CD3DArcBall@@QAEXHH@Z ; CD3DArcBall::OnBegin
; Line 1108
  000c9	8b f4		 mov	 esi, esp
  000cb	8b 4d 08	 mov	 ecx, DWORD PTR _hWnd$[ebp]
  000ce	51		 push	 ecx
  000cf	ff 15 00 00 00
	00		 call	 DWORD PTR __imp__SetCapture@4
  000d5	3b f4		 cmp	 esi, esp
  000d7	e8 00 00 00 00	 call	 __RTC_CheckEsp
$LN15@HandleMess:
; Line 1110
  000dc	b8 01 00 00 00	 mov	 eax, 1
  000e1	e9 26 01 00 00	 jmp	 $LN19@HandleMess
$LN11@HandleMess:
; Line 1115
  000e6	8b 4d fc	 mov	 ecx, DWORD PTR _this$[ebp]
  000e9	81 c1 88 00 00
	00		 add	 ecx, 136		; 00000088H
  000ef	e8 00 00 00 00	 call	 ?IsBeingDragged@CD3DArcBall@@QBE_NXZ ; CD3DArcBall::IsBeingDragged
  000f4	0f b6 d0	 movzx	 edx, al
  000f7	85 d2		 test	 edx, edx
  000f9	74 3e		 je	 SHORT $LN10@HandleMess
; Line 1117
  000fb	8b 45 14	 mov	 eax, DWORD PTR _lParam$[ebp]
  000fe	25 ff ff 00 00	 and	 eax, 65535		; 0000ffffH
  00103	0f bf c8	 movsx	 ecx, ax
  00106	89 4d f0	 mov	 DWORD PTR _iMouseX$2[ebp], ecx
; Line 1118
  00109	8b 55 14	 mov	 edx, DWORD PTR _lParam$[ebp]
  0010c	c1 ea 10	 shr	 edx, 16			; 00000010H
  0010f	81 e2 ff ff 00
	00		 and	 edx, 65535		; 0000ffffH
  00115	0f bf c2	 movsx	 eax, dx
  00118	89 45 ec	 mov	 DWORD PTR _iMouseY$1[ebp], eax
; Line 1119
  0011b	8b 4d ec	 mov	 ecx, DWORD PTR _iMouseY$1[ebp]
  0011e	51		 push	 ecx
  0011f	8b 55 f0	 mov	 edx, DWORD PTR _iMouseX$2[ebp]
  00122	52		 push	 edx
  00123	8b 4d fc	 mov	 ecx, DWORD PTR _this$[ebp]
  00126	81 c1 88 00 00
	00		 add	 ecx, 136		; 00000088H
  0012c	e8 00 00 00 00	 call	 ?OnMove@CD3DArcBall@@QAEXHH@Z ; CD3DArcBall::OnMove
; Line 1120
  00131	8b 4d fc	 mov	 ecx, DWORD PTR _this$[ebp]
  00134	e8 00 00 00 00	 call	 ?UpdateLightDir@CDXUTDirectionWidget@@IAEJXZ ; CDXUTDirectionWidget::UpdateLightDir
$LN10@HandleMess:
; Line 1122
  00139	b8 01 00 00 00	 mov	 eax, 1
  0013e	e9 c9 00 00 00	 jmp	 $LN19@HandleMess
$LN9@HandleMess:
; Line 1131
  00143	8b 45 fc	 mov	 eax, DWORD PTR _this$[ebp]
  00146	8b 88 84 00 00
	00		 mov	 ecx, DWORD PTR [eax+132]
  0014c	83 e1 01	 and	 ecx, 1
  0014f	74 09		 je	 SHORT $LN6@HandleMess
  00151	81 7d 0c 02 02
	00 00		 cmp	 DWORD PTR _uMsg$[ebp], 514 ; 00000202H
  00158	74 2e		 je	 SHORT $LN7@HandleMess
$LN6@HandleMess:
  0015a	8b 55 fc	 mov	 edx, DWORD PTR _this$[ebp]
  0015d	8b 82 84 00 00
	00		 mov	 eax, DWORD PTR [edx+132]
  00163	83 e0 02	 and	 eax, 2
  00166	74 09		 je	 SHORT $LN5@HandleMess
  00168	81 7d 0c 08 02
	00 00		 cmp	 DWORD PTR _uMsg$[ebp], 520 ; 00000208H
  0016f	74 17		 je	 SHORT $LN7@HandleMess
$LN5@HandleMess:
  00171	8b 4d fc	 mov	 ecx, DWORD PTR _this$[ebp]
  00174	8b 91 84 00 00
	00		 mov	 edx, DWORD PTR [ecx+132]
  0017a	83 e2 04	 and	 edx, 4
  0017d	74 26		 je	 SHORT $LN8@HandleMess
  0017f	81 7d 0c 05 02
	00 00		 cmp	 DWORD PTR _uMsg$[ebp], 517 ; 00000205H
  00186	75 1d		 jne	 SHORT $LN8@HandleMess
$LN7@HandleMess:
; Line 1133
  00188	8b 4d fc	 mov	 ecx, DWORD PTR _this$[ebp]
  0018b	81 c1 88 00 00
	00		 add	 ecx, 136		; 00000088H
  00191	e8 00 00 00 00	 call	 ?OnEnd@CD3DArcBall@@QAEXXZ ; CD3DArcBall::OnEnd
; Line 1134
  00196	8b f4		 mov	 esi, esp
  00198	ff 15 00 00 00
	00		 call	 DWORD PTR __imp__ReleaseCapture@0
  0019e	3b f4		 cmp	 esi, esp
  001a0	e8 00 00 00 00	 call	 __RTC_CheckEsp
$LN8@HandleMess:
; Line 1137
  001a5	8b 4d fc	 mov	 ecx, DWORD PTR _this$[ebp]
  001a8	e8 00 00 00 00	 call	 ?UpdateLightDir@CDXUTDirectionWidget@@IAEJXZ ; CDXUTDirectionWidget::UpdateLightDir
; Line 1138
  001ad	b8 01 00 00 00	 mov	 eax, 1
  001b2	eb 58		 jmp	 SHORT $LN19@HandleMess
$LN4@HandleMess:
; Line 1143
  001b4	8b 45 14	 mov	 eax, DWORD PTR _lParam$[ebp]
  001b7	3b 45 08	 cmp	 eax, DWORD PTR _hWnd$[ebp]
  001ba	74 47		 je	 SHORT $LN3@HandleMess
; Line 1147
  001bc	8b 4d fc	 mov	 ecx, DWORD PTR _this$[ebp]
  001bf	8b 91 84 00 00
	00		 mov	 edx, DWORD PTR [ecx+132]
  001c5	83 e2 01	 and	 edx, 1
  001c8	75 1c		 jne	 SHORT $LN1@HandleMess
  001ca	8b 45 fc	 mov	 eax, DWORD PTR _this$[ebp]
  001cd	8b 88 84 00 00
	00		 mov	 ecx, DWORD PTR [eax+132]
  001d3	83 e1 02	 and	 ecx, 2
  001d6	75 0e		 jne	 SHORT $LN1@HandleMess
  001d8	8b 55 fc	 mov	 edx, DWORD PTR _this$[ebp]
  001db	8b 82 84 00 00
	00		 mov	 eax, DWORD PTR [edx+132]
  001e1	83 e0 04	 and	 eax, 4
  001e4	74 1d		 je	 SHORT $LN3@HandleMess
$LN1@HandleMess:
; Line 1149
  001e6	8b 4d fc	 mov	 ecx, DWORD PTR _this$[ebp]
  001e9	81 c1 88 00 00
	00		 add	 ecx, 136		; 00000088H
  001ef	e8 00 00 00 00	 call	 ?OnEnd@CD3DArcBall@@QAEXXZ ; CD3DArcBall::OnEnd
; Line 1150
  001f4	8b f4		 mov	 esi, esp
  001f6	ff 15 00 00 00
	00		 call	 DWORD PTR __imp__ReleaseCapture@0
  001fc	3b f4		 cmp	 esi, esp
  001fe	e8 00 00 00 00	 call	 __RTC_CheckEsp
$LN3@HandleMess:
; Line 1153
  00203	b8 01 00 00 00	 mov	 eax, 1
  00208	eb 02		 jmp	 SHORT $LN19@HandleMess
$LN17@HandleMess:
; Line 1157
  0020a	33 c0		 xor	 eax, eax
$LN19@HandleMess:
; Line 1158
  0020c	5e		 pop	 esi
  0020d	83 c4 18	 add	 esp, 24			; 00000018H
  00210	3b ec		 cmp	 ebp, esp
  00212	e8 00 00 00 00	 call	 __RTC_CheckEsp
  00217	8b e5		 mov	 esp, ebp
  00219	5d		 pop	 ebp
  0021a	c2 10 00	 ret	 16			; 00000010H
  0021d	8d 49 00	 npad	 3
$LN22@HandleMess:
  00220	00 00 00 00	 DD	 $LN11@HandleMess
  00224	00 00 00 00	 DD	 $LN16@HandleMess
  00228	00 00 00 00	 DD	 $LN9@HandleMess
  0022c	00 00 00 00	 DD	 $LN4@HandleMess
  00230	00 00 00 00	 DD	 $LN17@HandleMess
$LN21@HandleMess:
  00234	00		 DB	 0
  00235	01		 DB	 1
  00236	02		 DB	 2
  00237	04		 DB	 4
  00238	01		 DB	 1
  00239	02		 DB	 2
  0023a	04		 DB	 4
  0023b	01		 DB	 1
  0023c	02		 DB	 2
  0023d	04		 DB	 4
  0023e	04		 DB	 4
  0023f	04		 DB	 4
  00240	04		 DB	 4
  00241	04		 DB	 4
  00242	04		 DB	 4
  00243	04		 DB	 4
  00244	04		 DB	 4
  00245	04		 DB	 4
  00246	04		 DB	 4
  00247	04		 DB	 4
  00248	04		 DB	 4
  00249	03		 DB	 3
?HandleMessages@CDXUTDirectionWidget@@QAEJPAUHWND__@@IIJ@Z ENDP ; CDXUTDirectionWidget::HandleMessages
_TEXT	ENDS
; Function compile flags: /Odtp /RTCsu
_TEXT	SEGMENT
$T1 = -240						; size = 64
$T2 = -172						; size = 12
$T3 = -160						; size = 64
_id$ = -80						; size = 64
_this$ = -8						; size = 4
__$ArrayPad$ = -4					; size = 4
??0CDXUTDirectionWidget@@QAE@XZ PROC			; CDXUTDirectionWidget::CDXUTDirectionWidget
; _this$ = ecx
; File d:\engine class\assignment 1\new scratch\dxut\optional\dxutcamera.cpp
; Line 1076
  00000	53		 push	 ebx
  00001	8b dc		 mov	 ebx, esp
  00003	83 ec 08	 sub	 esp, 8
  00006	83 e4 f0	 and	 esp, -16		; fffffff0H
  00009	83 c4 04	 add	 esp, 4
  0000c	55		 push	 ebp
  0000d	8b 6b 04	 mov	 ebp, DWORD PTR [ebx+4]
  00010	89 6c 24 04	 mov	 DWORD PTR [esp+4], ebp
  00014	8b ec		 mov	 ebp, esp
  00016	81 ec f8 00 00
	00		 sub	 esp, 248		; 000000f8H
  0001c	56		 push	 esi
  0001d	57		 push	 edi
  0001e	51		 push	 ecx
  0001f	8d bd 08 ff ff
	ff		 lea	 edi, DWORD PTR [ebp-248]
  00025	b9 3e 00 00 00	 mov	 ecx, 62			; 0000003eH
  0002a	b8 cc cc cc cc	 mov	 eax, -858993460		; ccccccccH
  0002f	f3 ab		 rep stosd
  00031	59		 pop	 ecx
  00032	a1 00 00 00 00	 mov	 eax, DWORD PTR ___security_cookie
  00037	33 c5		 xor	 eax, ebp
  00039	89 45 fc	 mov	 DWORD PTR __$ArrayPad$[ebp], eax
  0003c	89 4d f8	 mov	 DWORD PTR _this$[ebp], ecx
  0003f	8b 4d f8	 mov	 ecx, DWORD PTR _this$[ebp]
  00042	e8 00 00 00 00	 call	 ??0XMFLOAT4X4@DirectX@@QAE@XZ ; DirectX::XMFLOAT4X4::XMFLOAT4X4
  00047	8b 4d f8	 mov	 ecx, DWORD PTR _this$[ebp]
  0004a	83 c1 40	 add	 ecx, 64			; 00000040H
  0004d	e8 00 00 00 00	 call	 ??0XMFLOAT4X4@DirectX@@QAE@XZ ; DirectX::XMFLOAT4X4::XMFLOAT4X4
  00052	8b 45 f8	 mov	 eax, DWORD PTR _this$[ebp]
  00055	f3 0f 10 05 00
	00 00 00	 movss	 xmm0, DWORD PTR __real@3f800000
  0005d	f3 0f 11 80 80
	00 00 00	 movss	 DWORD PTR [eax+128], xmm0
  00065	8b 4d f8	 mov	 ecx, DWORD PTR _this$[ebp]
  00068	c7 81 84 00 00
	00 04 00 00 00	 mov	 DWORD PTR [ecx+132], 4
  00072	8b 4d f8	 mov	 ecx, DWORD PTR _this$[ebp]
  00075	81 c1 88 00 00
	00		 add	 ecx, 136		; 00000088H
  0007b	e8 00 00 00 00	 call	 ??0CD3DArcBall@@QAE@XZ	; CD3DArcBall::CD3DArcBall
  00080	8b 4d f8	 mov	 ecx, DWORD PTR _this$[ebp]
  00083	81 c1 ac 01 00
	00		 add	 ecx, 428		; 000001acH
  00089	e8 00 00 00 00	 call	 ??0XMFLOAT3@DirectX@@QAE@XZ ; DirectX::XMFLOAT3::XMFLOAT3
  0008e	8b 4d f8	 mov	 ecx, DWORD PTR _this$[ebp]
  00091	81 c1 b8 01 00
	00		 add	 ecx, 440		; 000001b8H
  00097	e8 00 00 00 00	 call	 ??0XMFLOAT3@DirectX@@QAE@XZ ; DirectX::XMFLOAT3::XMFLOAT3
  0009c	8b 4d f8	 mov	 ecx, DWORD PTR _this$[ebp]
  0009f	81 c1 c4 01 00
	00		 add	 ecx, 452		; 000001c4H
  000a5	e8 00 00 00 00	 call	 ??0XMFLOAT4X4@DirectX@@QAE@XZ ; DirectX::XMFLOAT4X4::XMFLOAT4X4
; Line 1077
  000aa	51		 push	 ecx
  000ab	f3 0f 10 05 00
	00 00 00	 movss	 xmm0, DWORD PTR __real@00000000
  000b3	f3 0f 11 04 24	 movss	 DWORD PTR [esp], xmm0
  000b8	51		 push	 ecx
  000b9	f3 0f 10 05 00
	00 00 00	 movss	 xmm0, DWORD PTR __real@3f800000
  000c1	f3 0f 11 04 24	 movss	 DWORD PTR [esp], xmm0
  000c6	51		 push	 ecx
  000c7	f3 0f 10 05 00
	00 00 00	 movss	 xmm0, DWORD PTR __real@00000000
  000cf	f3 0f 11 04 24	 movss	 DWORD PTR [esp], xmm0
  000d4	8d 8d 54 ff ff
	ff		 lea	 ecx, DWORD PTR $T2[ebp]
  000da	e8 00 00 00 00	 call	 ??0XMFLOAT3@DirectX@@QAE@MMM@Z ; DirectX::XMFLOAT3::XMFLOAT3
  000df	50		 push	 eax
  000e0	8b 4d f8	 mov	 ecx, DWORD PTR _this$[ebp]
  000e3	81 c1 ac 01 00
	00		 add	 ecx, 428		; 000001acH
  000e9	e8 00 00 00 00	 call	 ??4XMFLOAT3@DirectX@@QAEAAU01@ABU01@@Z ; DirectX::XMFLOAT3::operator=
; Line 1078
  000ee	8b 55 f8	 mov	 edx, DWORD PTR _this$[ebp]
  000f1	81 c2 ac 01 00
	00		 add	 edx, 428		; 000001acH
  000f7	52		 push	 edx
  000f8	8b 4d f8	 mov	 ecx, DWORD PTR _this$[ebp]
  000fb	81 c1 b8 01 00
	00		 add	 ecx, 440		; 000001b8H
  00101	e8 00 00 00 00	 call	 ??4XMFLOAT3@DirectX@@QAEAAU01@ABU01@@Z ; DirectX::XMFLOAT3::operator=
; Line 1080
  00106	e8 00 00 00 00	 call	 ?XMMatrixIdentity@DirectX@@YQ?AUXMMATRIX@1@XZ ; DirectX::XMMatrixIdentity
  0010b	0f 29 9d 40 ff
	ff ff		 movaps	 XMMWORD PTR $T1[ebp+48], xmm3
  00112	0f 29 95 30 ff
	ff ff		 movaps	 XMMWORD PTR $T1[ebp+32], xmm2
  00119	0f 29 8d 20 ff
	ff ff		 movaps	 XMMWORD PTR $T1[ebp+16], xmm1
  00120	0f 29 85 10 ff
	ff ff		 movaps	 XMMWORD PTR $T1[ebp], xmm0
  00127	b9 10 00 00 00	 mov	 ecx, 16			; 00000010H
  0012c	8d b5 10 ff ff
	ff		 lea	 esi, DWORD PTR $T1[ebp]
  00132	8d bd 60 ff ff
	ff		 lea	 edi, DWORD PTR $T3[ebp]
  00138	f3 a5		 rep movsd
  0013a	b9 10 00 00 00	 mov	 ecx, 16			; 00000010H
  0013f	8d b5 60 ff ff
	ff		 lea	 esi, DWORD PTR $T3[ebp]
  00145	8d 7d b0	 lea	 edi, DWORD PTR _id$[ebp]
  00148	f3 a5		 rep movsd
; Line 1082
  0014a	8b 4d f8	 mov	 ecx, DWORD PTR _this$[ebp]
  0014d	81 c1 c4 01 00
	00		 add	 ecx, 452		; 000001c4H
  00153	0f 28 45 b0	 movaps	 xmm0, XMMWORD PTR _id$[ebp]
  00157	0f 28 4d c0	 movaps	 xmm1, XMMWORD PTR _id$[ebp+16]
  0015b	0f 28 55 d0	 movaps	 xmm2, XMMWORD PTR _id$[ebp+32]
  0015f	0f 28 5d e0	 movaps	 xmm3, XMMWORD PTR _id$[ebp+48]
  00163	e8 00 00 00 00	 call	 ?XMStoreFloat4x4@DirectX@@YQXPAUXMFLOAT4X4@1@UXMMATRIX@1@@Z ; DirectX::XMStoreFloat4x4
; Line 1083
  00168	8b 4d f8	 mov	 ecx, DWORD PTR _this$[ebp]
  0016b	0f 28 45 b0	 movaps	 xmm0, XMMWORD PTR _id$[ebp]
  0016f	0f 28 4d c0	 movaps	 xmm1, XMMWORD PTR _id$[ebp+16]
  00173	0f 28 55 d0	 movaps	 xmm2, XMMWORD PTR _id$[ebp+32]
  00177	0f 28 5d e0	 movaps	 xmm3, XMMWORD PTR _id$[ebp+48]
  0017b	e8 00 00 00 00	 call	 ?XMStoreFloat4x4@DirectX@@YQXPAUXMFLOAT4X4@1@UXMMATRIX@1@@Z ; DirectX::XMStoreFloat4x4
; Line 1084
  00180	8b 4d f8	 mov	 ecx, DWORD PTR _this$[ebp]
  00183	83 c1 40	 add	 ecx, 64			; 00000040H
  00186	0f 28 45 b0	 movaps	 xmm0, XMMWORD PTR _id$[ebp]
  0018a	0f 28 4d c0	 movaps	 xmm1, XMMWORD PTR _id$[ebp+16]
  0018e	0f 28 55 d0	 movaps	 xmm2, XMMWORD PTR _id$[ebp+32]
  00192	0f 28 5d e0	 movaps	 xmm3, XMMWORD PTR _id$[ebp+48]
  00196	e8 00 00 00 00	 call	 ?XMStoreFloat4x4@DirectX@@YQXPAUXMFLOAT4X4@1@UXMMATRIX@1@@Z ; DirectX::XMStoreFloat4x4
; Line 1085
  0019b	8b 45 f8	 mov	 eax, DWORD PTR _this$[ebp]
  0019e	52		 push	 edx
  0019f	8b cd		 mov	 ecx, ebp
  001a1	50		 push	 eax
  001a2	8d 15 00 00 00
	00		 lea	 edx, DWORD PTR $LN5@CDXUTDirec
  001a8	e8 00 00 00 00	 call	 @_RTC_CheckStackVars@8
  001ad	58		 pop	 eax
  001ae	5a		 pop	 edx
  001af	5f		 pop	 edi
  001b0	5e		 pop	 esi
  001b1	8b 4d fc	 mov	 ecx, DWORD PTR __$ArrayPad$[ebp]
  001b4	33 cd		 xor	 ecx, ebp
  001b6	e8 00 00 00 00	 call	 @__security_check_cookie@4
  001bb	8b e5		 mov	 esp, ebp
  001bd	5d		 pop	 ebp
  001be	8b e3		 mov	 esp, ebx
  001c0	5b		 pop	 ebx
  001c1	c3		 ret	 0
  001c2	8b ff		 npad	 2
$LN5@CDXUTDirec:
  001c4	01 00 00 00	 DD	 1
  001c8	00 00 00 00	 DD	 $LN4@CDXUTDirec
$LN4@CDXUTDirec:
  001cc	b0 ff ff ff	 DD	 -80			; ffffffb0H
  001d0	40 00 00 00	 DD	 64			; 00000040H
  001d4	00 00 00 00	 DD	 $LN3@CDXUTDirec
$LN3@CDXUTDirec:
  001d8	69		 DB	 105			; 00000069H
  001d9	64		 DB	 100			; 00000064H
  001da	00		 DB	 0
??0CDXUTDirectionWidget@@QAE@XZ ENDP			; CDXUTDirectionWidget::CDXUTDirectionWidget
_TEXT	ENDS
; Function compile flags: /Odtp /RTCsu
;	COMDAT ?SetRadius@CModelViewerCamera@@QAEXMMM@Z
_TEXT	SEGMENT
_this$ = -4						; size = 4
_fDefaultRadius$ = 8					; size = 4
_fMinRadius$ = 12					; size = 4
_fMaxRadius$ = 16					; size = 4
?SetRadius@CModelViewerCamera@@QAEXMMM@Z PROC		; CModelViewerCamera::SetRadius, COMDAT
; _this$ = ecx
; File d:\engine class\assignment 1\new scratch\dxut\optional\dxutcamera.h
; Line 331
  00000	55		 push	 ebp
  00001	8b ec		 mov	 ebp, esp
  00003	51		 push	 ecx
  00004	c7 45 fc cc cc
	cc cc		 mov	 DWORD PTR [ebp-4], -858993460 ; ccccccccH
  0000b	89 4d fc	 mov	 DWORD PTR _this$[ebp], ecx
; Line 332
  0000e	8b 45 fc	 mov	 eax, DWORD PTR _this$[ebp]
  00011	f3 0f 10 45 08	 movss	 xmm0, DWORD PTR _fDefaultRadius$[ebp]
  00016	f3 0f 11 80 b4
	05 00 00	 movss	 DWORD PTR [eax+1460], xmm0
  0001e	8b 4d fc	 mov	 ecx, DWORD PTR _this$[ebp]
  00021	f3 0f 10 45 08	 movss	 xmm0, DWORD PTR _fDefaultRadius$[ebp]
  00026	f3 0f 11 81 b8
	05 00 00	 movss	 DWORD PTR [ecx+1464], xmm0
  0002e	8b 55 fc	 mov	 edx, DWORD PTR _this$[ebp]
  00031	f3 0f 10 45 0c	 movss	 xmm0, DWORD PTR _fMinRadius$[ebp]
  00036	f3 0f 11 82 bc
	05 00 00	 movss	 DWORD PTR [edx+1468], xmm0
  0003e	8b 45 fc	 mov	 eax, DWORD PTR _this$[ebp]
  00041	f3 0f 10 45 10	 movss	 xmm0, DWORD PTR _fMaxRadius$[ebp]
  00046	f3 0f 11 80 c0
	05 00 00	 movss	 DWORD PTR [eax+1472], xmm0
; Line 333
  0004e	8b 4d fc	 mov	 ecx, DWORD PTR _this$[ebp]
  00051	c6 81 b2 05 00
	00 01		 mov	 BYTE PTR [ecx+1458], 1
; Line 334
  00058	8b e5		 mov	 esp, ebp
  0005a	5d		 pop	 ebp
  0005b	c2 0c 00	 ret	 12			; 0000000cH
?SetRadius@CModelViewerCamera@@QAEXMMM@Z ENDP		; CModelViewerCamera::SetRadius
_TEXT	ENDS
; Function compile flags: /Odtp /RTCsu
;	COMDAT ?SetWindow@CModelViewerCamera@@QAEXHHM@Z
_TEXT	SEGMENT
_this$ = -4						; size = 4
_nWidth$ = 8						; size = 4
_nHeight$ = 12						; size = 4
_fArcballRadius$ = 16					; size = 4
?SetWindow@CModelViewerCamera@@QAEXHHM@Z PROC		; CModelViewerCamera::SetWindow, COMDAT
; _this$ = ecx
; File d:\engine class\assignment 1\new scratch\dxut\optional\dxutcamera.h
; Line 326
  00000	55		 push	 ebp
  00001	8b ec		 mov	 ebp, esp
  00003	51		 push	 ecx
  00004	c7 45 fc cc cc
	cc cc		 mov	 DWORD PTR [ebp-4], -858993460 ; ccccccccH
  0000b	89 4d fc	 mov	 DWORD PTR _this$[ebp], ecx
; Line 327
  0000e	51		 push	 ecx
  0000f	f3 0f 10 45 10	 movss	 xmm0, DWORD PTR _fArcballRadius$[ebp]
  00014	f3 0f 11 04 24	 movss	 DWORD PTR [esp], xmm0
  00019	8b 45 0c	 mov	 eax, DWORD PTR _nHeight$[ebp]
  0001c	50		 push	 eax
  0001d	8b 4d 08	 mov	 ecx, DWORD PTR _nWidth$[ebp]
  00020	51		 push	 ecx
  00021	8b 4d fc	 mov	 ecx, DWORD PTR _this$[ebp]
  00024	81 c1 90 02 00
	00		 add	 ecx, 656		; 00000290H
  0002a	e8 00 00 00 00	 call	 ?SetWindow@CD3DArcBall@@QAEXHHM@Z ; CD3DArcBall::SetWindow
; Line 328
  0002f	51		 push	 ecx
  00030	f3 0f 10 45 10	 movss	 xmm0, DWORD PTR _fArcballRadius$[ebp]
  00035	f3 0f 11 04 24	 movss	 DWORD PTR [esp], xmm0
  0003a	8b 55 0c	 mov	 edx, DWORD PTR _nHeight$[ebp]
  0003d	52		 push	 edx
  0003e	8b 45 08	 mov	 eax, DWORD PTR _nWidth$[ebp]
  00041	50		 push	 eax
  00042	8b 4d fc	 mov	 ecx, DWORD PTR _this$[ebp]
  00045	81 c1 b4 03 00
	00		 add	 ecx, 948		; 000003b4H
  0004b	e8 00 00 00 00	 call	 ?SetWindow@CD3DArcBall@@QAEXHHM@Z ; CD3DArcBall::SetWindow
; Line 329
  00050	83 c4 04	 add	 esp, 4
  00053	3b ec		 cmp	 ebp, esp
  00055	e8 00 00 00 00	 call	 __RTC_CheckEsp
  0005a	8b e5		 mov	 esp, ebp
  0005c	5d		 pop	 ebp
  0005d	c2 0c 00	 ret	 12			; 0000000cH
?SetWindow@CModelViewerCamera@@QAEXHHM@Z ENDP		; CModelViewerCamera::SetWindow
_TEXT	ENDS
; Function compile flags: /Odtp /RTCsu
_TEXT	SEGMENT
$T1 = -416						; size = 64
$T2 = -352						; size = 16
_len$ = -324						; size = 4
$T3 = -320						; size = 16
_vEyeToPoint$ = -304					; size = 16
$T4 = -288						; size = 16
_quat$ = -256						; size = 16
$T5 = -224						; size = 64
$T6 = -160						; size = 16
_mRotation$ = -128					; size = 64
_this$ = -52						; size = 4
_vLookatPt$ = -48					; size = 16
_vEyePt$ = -32						; size = 16
__$ArrayPad$ = -4					; size = 4
?SetViewParams@CModelViewerCamera@@UAEXT__m128@@0@Z PROC ; CModelViewerCamera::SetViewParams
; _this$ = ecx
; _vEyePt$ = xmm0
; _vLookatPt$ = xmm1
; File d:\engine class\assignment 1\new scratch\dxut\optional\dxutcamera.cpp
; Line 963
  00000	53		 push	 ebx
  00001	8b dc		 mov	 ebx, esp
  00003	83 ec 08	 sub	 esp, 8
  00006	83 e4 f0	 and	 esp, -16		; fffffff0H
  00009	83 c4 04	 add	 esp, 4
  0000c	55		 push	 ebp
  0000d	8b 6b 04	 mov	 ebp, DWORD PTR [ebx+4]
  00010	89 6c 24 04	 mov	 DWORD PTR [esp+4], ebp
  00014	8b ec		 mov	 ebp, esp
  00016	81 ec a8 01 00
	00		 sub	 esp, 424		; 000001a8H
  0001c	56		 push	 esi
  0001d	57		 push	 edi
  0001e	51		 push	 ecx
  0001f	8d bd 58 fe ff
	ff		 lea	 edi, DWORD PTR [ebp-424]
  00025	b9 6a 00 00 00	 mov	 ecx, 106		; 0000006aH
  0002a	b8 cc cc cc cc	 mov	 eax, -858993460		; ccccccccH
  0002f	f3 ab		 rep stosd
  00031	59		 pop	 ecx
  00032	a1 00 00 00 00	 mov	 eax, DWORD PTR ___security_cookie
  00037	33 c5		 xor	 eax, ebp
  00039	89 45 fc	 mov	 DWORD PTR __$ArrayPad$[ebp], eax
  0003c	0f 29 4d d0	 movaps	 XMMWORD PTR _vLookatPt$[ebp], xmm1
  00040	0f 29 45 e0	 movaps	 XMMWORD PTR _vEyePt$[ebp], xmm0
  00044	89 4d cc	 mov	 DWORD PTR _this$[ebp], ecx
; Line 964
  00047	0f 28 4d d0	 movaps	 xmm1, XMMWORD PTR _vLookatPt$[ebp]
  0004b	0f 28 45 e0	 movaps	 xmm0, XMMWORD PTR _vEyePt$[ebp]
  0004f	8b 4d cc	 mov	 ecx, DWORD PTR _this$[ebp]
  00052	e8 00 00 00 00	 call	 ?SetViewParams@CBaseCamera@@UAEXT__m128@@0@Z ; CBaseCamera::SetViewParams
; Line 967
  00057	8d 85 60 ff ff
	ff		 lea	 eax, DWORD PTR $T6[ebp]
  0005d	50		 push	 eax
  0005e	b9 00 00 00 00	 mov	 ecx, OFFSET ?g_XMIdentityR1@DirectX@@3UXMVECTORF32@1@B ; DirectX::g_XMIdentityR1
  00063	e8 00 00 00 00	 call	 ??BXMVECTORF32@DirectX@@QBE?AT__m128@@XZ ; DirectX::XMVECTORF32::operator __m128
  00068	0f 10 10	 movups	 xmm2, XMMWORD PTR [eax]
  0006b	0f 28 4d d0	 movaps	 xmm1, XMMWORD PTR _vLookatPt$[ebp]
  0006f	0f 28 45 e0	 movaps	 xmm0, XMMWORD PTR _vEyePt$[ebp]
  00073	e8 00 00 00 00	 call	 ?XMMatrixLookAtLH@DirectX@@YQ?AUXMMATRIX@1@T__m128@@00@Z ; DirectX::XMMatrixLookAtLH
  00078	0f 29 9d 90 fe
	ff ff		 movaps	 XMMWORD PTR $T1[ebp+48], xmm3
  0007f	0f 29 95 80 fe
	ff ff		 movaps	 XMMWORD PTR $T1[ebp+32], xmm2
  00086	0f 29 8d 70 fe
	ff ff		 movaps	 XMMWORD PTR $T1[ebp+16], xmm1
  0008d	0f 29 85 60 fe
	ff ff		 movaps	 XMMWORD PTR $T1[ebp], xmm0
  00094	b9 10 00 00 00	 mov	 ecx, 16			; 00000010H
  00099	8d b5 60 fe ff
	ff		 lea	 esi, DWORD PTR $T1[ebp]
  0009f	8d bd 20 ff ff
	ff		 lea	 edi, DWORD PTR $T5[ebp]
  000a5	f3 a5		 rep movsd
  000a7	b9 10 00 00 00	 mov	 ecx, 16			; 00000010H
  000ac	8d b5 20 ff ff
	ff		 lea	 esi, DWORD PTR $T5[ebp]
  000b2	8d 7d 80	 lea	 edi, DWORD PTR _mRotation$[ebp]
  000b5	f3 a5		 rep movsd
; Line 968
  000b7	0f 28 45 80	 movaps	 xmm0, XMMWORD PTR _mRotation$[ebp]
  000bb	0f 28 4d 90	 movaps	 xmm1, XMMWORD PTR _mRotation$[ebp+16]
  000bf	0f 28 55 a0	 movaps	 xmm2, XMMWORD PTR _mRotation$[ebp+32]
  000c3	0f 28 5d b0	 movaps	 xmm3, XMMWORD PTR _mRotation$[ebp+48]
  000c7	e8 00 00 00 00	 call	 ?XMQuaternionRotationMatrix@DirectX@@YQ?AT__m128@@UXMMATRIX@1@@Z ; DirectX::XMQuaternionRotationMatrix
  000cc	0f 29 85 e0 fe
	ff ff		 movaps	 XMMWORD PTR $T4[ebp], xmm0
  000d3	0f 28 85 e0 fe
	ff ff		 movaps	 xmm0, XMMWORD PTR $T4[ebp]
  000da	0f 29 85 00 ff
	ff ff		 movaps	 XMMWORD PTR _quat$[ebp], xmm0
; Line 969
  000e1	8d 8d 00 ff ff
	ff		 lea	 ecx, DWORD PTR _quat$[ebp]
  000e7	51		 push	 ecx
  000e8	8b 4d cc	 mov	 ecx, DWORD PTR _this$[ebp]
  000eb	81 c1 b4 03 00
	00		 add	 ecx, 948		; 000003b4H
  000f1	e8 00 00 00 00	 call	 ?SetQuatNow@CD3DArcBall@@QAEXABT__m128@@@Z ; CD3DArcBall::SetQuatNow
; Line 972
  000f6	0f 28 4d e0	 movaps	 xmm1, XMMWORD PTR _vEyePt$[ebp]
  000fa	0f 28 45 d0	 movaps	 xmm0, XMMWORD PTR _vLookatPt$[ebp]
  000fe	e8 00 00 00 00	 call	 ?XMVectorSubtract@DirectX@@YQ?AT__m128@@T2@0@Z ; DirectX::XMVectorSubtract
  00103	0f 29 85 c0 fe
	ff ff		 movaps	 XMMWORD PTR $T3[ebp], xmm0
  0010a	0f 28 85 c0 fe
	ff ff		 movaps	 xmm0, XMMWORD PTR $T3[ebp]
  00111	0f 29 85 d0 fe
	ff ff		 movaps	 XMMWORD PTR _vEyeToPoint$[ebp], xmm0
; Line 973
  00118	0f 28 85 d0 fe
	ff ff		 movaps	 xmm0, XMMWORD PTR _vEyeToPoint$[ebp]
  0011f	e8 00 00 00 00	 call	 ?XMVector3Length@DirectX@@YQ?AT__m128@@T2@@Z ; DirectX::XMVector3Length
  00124	0f 29 85 a0 fe
	ff ff		 movaps	 XMMWORD PTR $T2[ebp], xmm0
  0012b	0f 28 85 a0 fe
	ff ff		 movaps	 xmm0, XMMWORD PTR $T2[ebp]
  00132	e8 00 00 00 00	 call	 ?XMVectorGetX@DirectX@@YQMT__m128@@@Z ; DirectX::XMVectorGetX
  00137	f3 0f 11 85 bc
	fe ff ff	 movss	 DWORD PTR _len$[ebp], xmm0
; Line 974
  0013f	51		 push	 ecx
  00140	f3 0f 10 05 00
	00 00 00	 movss	 xmm0, DWORD PTR __real@7f7fffff
  00148	f3 0f 11 04 24	 movss	 DWORD PTR [esp], xmm0
  0014d	51		 push	 ecx
  0014e	f3 0f 10 05 00
	00 00 00	 movss	 xmm0, DWORD PTR __real@3f800000
  00156	f3 0f 11 04 24	 movss	 DWORD PTR [esp], xmm0
  0015b	51		 push	 ecx
  0015c	f3 0f 10 85 bc
	fe ff ff	 movss	 xmm0, DWORD PTR _len$[ebp]
  00164	f3 0f 11 04 24	 movss	 DWORD PTR [esp], xmm0
  00169	8b 4d cc	 mov	 ecx, DWORD PTR _this$[ebp]
  0016c	e8 00 00 00 00	 call	 ?SetRadius@CModelViewerCamera@@QAEXMMM@Z ; CModelViewerCamera::SetRadius
; Line 977
  00171	8b 55 cc	 mov	 edx, DWORD PTR _this$[ebp]
  00174	c6 82 b2 05 00
	00 01		 mov	 BYTE PTR [edx+1458], 1
; Line 978
  0017b	52		 push	 edx
  0017c	8b cd		 mov	 ecx, ebp
  0017e	50		 push	 eax
  0017f	8d 15 00 00 00
	00		 lea	 edx, DWORD PTR $LN6@SetViewPar
  00185	e8 00 00 00 00	 call	 @_RTC_CheckStackVars@8
  0018a	58		 pop	 eax
  0018b	5a		 pop	 edx
  0018c	5f		 pop	 edi
  0018d	5e		 pop	 esi
  0018e	8b 4d fc	 mov	 ecx, DWORD PTR __$ArrayPad$[ebp]
  00191	33 cd		 xor	 ecx, ebp
  00193	e8 00 00 00 00	 call	 @__security_check_cookie@4
  00198	8b e5		 mov	 esp, ebp
  0019a	5d		 pop	 ebp
  0019b	8b e3		 mov	 esp, ebx
  0019d	5b		 pop	 ebx
  0019e	c3		 ret	 0
  0019f	90		 npad	 1
$LN6@SetViewPar:
  001a0	02 00 00 00	 DD	 2
  001a4	00 00 00 00	 DD	 $LN5@SetViewPar
$LN5@SetViewPar:
  001a8	80 ff ff ff	 DD	 -128			; ffffff80H
  001ac	40 00 00 00	 DD	 64			; 00000040H
  001b0	00 00 00 00	 DD	 $LN3@SetViewPar
  001b4	00 ff ff ff	 DD	 -256			; ffffff00H
  001b8	10 00 00 00	 DD	 16			; 00000010H
  001bc	00 00 00 00	 DD	 $LN4@SetViewPar
$LN4@SetViewPar:
  001c0	71		 DB	 113			; 00000071H
  001c1	75		 DB	 117			; 00000075H
  001c2	61		 DB	 97			; 00000061H
  001c3	74		 DB	 116			; 00000074H
  001c4	00		 DB	 0
$LN3@SetViewPar:
  001c5	6d		 DB	 109			; 0000006dH
  001c6	52		 DB	 82			; 00000052H
  001c7	6f		 DB	 111			; 0000006fH
  001c8	74		 DB	 116			; 00000074H
  001c9	61		 DB	 97			; 00000061H
  001ca	74		 DB	 116			; 00000074H
  001cb	69		 DB	 105			; 00000069H
  001cc	6f		 DB	 111			; 0000006fH
  001cd	6e		 DB	 110			; 0000006eH
  001ce	00		 DB	 0
?SetViewParams@CModelViewerCamera@@UAEXT__m128@@0@Z ENDP ; CModelViewerCamera::SetViewParams
_TEXT	ENDS
; Function compile flags: /Odtp /RTCsu
_TEXT	SEGMENT
$T1 = -224						; size = 64
$T2 = -160						; size = 64
_id$ = -80						; size = 64
_this$ = -8						; size = 4
__$ArrayPad$ = -4					; size = 4
?Reset@CModelViewerCamera@@UAEXXZ PROC			; CModelViewerCamera::Reset
; _this$ = ecx
; File d:\engine class\assignment 1\new scratch\dxut\optional\dxutcamera.cpp
; Line 943
  00000	53		 push	 ebx
  00001	8b dc		 mov	 ebx, esp
  00003	83 ec 08	 sub	 esp, 8
  00006	83 e4 f0	 and	 esp, -16		; fffffff0H
  00009	83 c4 04	 add	 esp, 4
  0000c	55		 push	 ebp
  0000d	8b 6b 04	 mov	 ebp, DWORD PTR [ebx+4]
  00010	89 6c 24 04	 mov	 DWORD PTR [esp+4], ebp
  00014	8b ec		 mov	 ebp, esp
  00016	81 ec e8 00 00
	00		 sub	 esp, 232		; 000000e8H
  0001c	56		 push	 esi
  0001d	57		 push	 edi
  0001e	51		 push	 ecx
  0001f	8d bd 18 ff ff
	ff		 lea	 edi, DWORD PTR [ebp-232]
  00025	b9 3a 00 00 00	 mov	 ecx, 58			; 0000003aH
  0002a	b8 cc cc cc cc	 mov	 eax, -858993460		; ccccccccH
  0002f	f3 ab		 rep stosd
  00031	59		 pop	 ecx
  00032	a1 00 00 00 00	 mov	 eax, DWORD PTR ___security_cookie
  00037	33 c5		 xor	 eax, ebp
  00039	89 45 fc	 mov	 DWORD PTR __$ArrayPad$[ebp], eax
  0003c	89 4d f8	 mov	 DWORD PTR _this$[ebp], ecx
; Line 944
  0003f	8b 4d f8	 mov	 ecx, DWORD PTR _this$[ebp]
  00042	e8 00 00 00 00	 call	 ?Reset@CBaseCamera@@UAEXXZ ; CBaseCamera::Reset
; Line 946
  00047	e8 00 00 00 00	 call	 ?XMMatrixIdentity@DirectX@@YQ?AUXMMATRIX@1@XZ ; DirectX::XMMatrixIdentity
  0004c	0f 29 9d 50 ff
	ff ff		 movaps	 XMMWORD PTR $T1[ebp+48], xmm3
  00053	0f 29 95 40 ff
	ff ff		 movaps	 XMMWORD PTR $T1[ebp+32], xmm2
  0005a	0f 29 8d 30 ff
	ff ff		 movaps	 XMMWORD PTR $T1[ebp+16], xmm1
  00061	0f 29 85 20 ff
	ff ff		 movaps	 XMMWORD PTR $T1[ebp], xmm0
  00068	b9 10 00 00 00	 mov	 ecx, 16			; 00000010H
  0006d	8d b5 20 ff ff
	ff		 lea	 esi, DWORD PTR $T1[ebp]
  00073	8d bd 60 ff ff
	ff		 lea	 edi, DWORD PTR $T2[ebp]
  00079	f3 a5		 rep movsd
  0007b	b9 10 00 00 00	 mov	 ecx, 16			; 00000010H
  00080	8d b5 60 ff ff
	ff		 lea	 esi, DWORD PTR $T2[ebp]
  00086	8d 7d b0	 lea	 edi, DWORD PTR _id$[ebp]
  00089	f3 a5		 rep movsd
; Line 947
  0008b	8b 4d f8	 mov	 ecx, DWORD PTR _this$[ebp]
  0008e	81 c1 64 05 00
	00		 add	 ecx, 1380		; 00000564H
  00094	0f 28 45 b0	 movaps	 xmm0, XMMWORD PTR _id$[ebp]
  00098	0f 28 4d c0	 movaps	 xmm1, XMMWORD PTR _id$[ebp+16]
  0009c	0f 28 55 d0	 movaps	 xmm2, XMMWORD PTR _id$[ebp+32]
  000a0	0f 28 5d e0	 movaps	 xmm3, XMMWORD PTR _id$[ebp+48]
  000a4	e8 00 00 00 00	 call	 ?XMStoreFloat4x4@DirectX@@YQXPAUXMFLOAT4X4@1@UXMMATRIX@1@@Z ; DirectX::XMStoreFloat4x4
; Line 948
  000a9	8b 4d f8	 mov	 ecx, DWORD PTR _this$[ebp]
  000ac	81 c1 24 05 00
	00		 add	 ecx, 1316		; 00000524H
  000b2	0f 28 45 b0	 movaps	 xmm0, XMMWORD PTR _id$[ebp]
  000b6	0f 28 4d c0	 movaps	 xmm1, XMMWORD PTR _id$[ebp+16]
  000ba	0f 28 55 d0	 movaps	 xmm2, XMMWORD PTR _id$[ebp+32]
  000be	0f 28 5d e0	 movaps	 xmm3, XMMWORD PTR _id$[ebp+48]
  000c2	e8 00 00 00 00	 call	 ?XMStoreFloat4x4@DirectX@@YQXPAUXMFLOAT4X4@1@UXMMATRIX@1@@Z ; DirectX::XMStoreFloat4x4
; Line 949
  000c7	8b 4d f8	 mov	 ecx, DWORD PTR _this$[ebp]
  000ca	81 c1 e4 04 00
	00		 add	 ecx, 1252		; 000004e4H
  000d0	0f 28 45 b0	 movaps	 xmm0, XMMWORD PTR _id$[ebp]
  000d4	0f 28 4d c0	 movaps	 xmm1, XMMWORD PTR _id$[ebp+16]
  000d8	0f 28 55 d0	 movaps	 xmm2, XMMWORD PTR _id$[ebp+32]
  000dc	0f 28 5d e0	 movaps	 xmm3, XMMWORD PTR _id$[ebp+48]
  000e0	e8 00 00 00 00	 call	 ?XMStoreFloat4x4@DirectX@@YQXPAUXMFLOAT4X4@1@UXMMATRIX@1@@Z ; DirectX::XMStoreFloat4x4
; Line 950
  000e5	8b 4d f8	 mov	 ecx, DWORD PTR _this$[ebp]
  000e8	81 c1 c4 05 00
	00		 add	 ecx, 1476		; 000005c4H
  000ee	0f 28 45 b0	 movaps	 xmm0, XMMWORD PTR _id$[ebp]
  000f2	0f 28 4d c0	 movaps	 xmm1, XMMWORD PTR _id$[ebp+16]
  000f6	0f 28 55 d0	 movaps	 xmm2, XMMWORD PTR _id$[ebp+32]
  000fa	0f 28 5d e0	 movaps	 xmm3, XMMWORD PTR _id$[ebp+48]
  000fe	e8 00 00 00 00	 call	 ?XMStoreFloat4x4@DirectX@@YQXPAUXMFLOAT4X4@1@UXMMATRIX@1@@Z ; DirectX::XMStoreFloat4x4
; Line 952
  00103	8b 45 f8	 mov	 eax, DWORD PTR _this$[ebp]
  00106	8b 4d f8	 mov	 ecx, DWORD PTR _this$[ebp]
  00109	8b 91 b8 05 00
	00		 mov	 edx, DWORD PTR [ecx+1464]
  0010f	89 90 b4 05 00
	00		 mov	 DWORD PTR [eax+1460], edx
; Line 953
  00115	8b 4d f8	 mov	 ecx, DWORD PTR _this$[ebp]
  00118	81 c1 90 02 00
	00		 add	 ecx, 656		; 00000290H
  0011e	e8 00 00 00 00	 call	 ?Reset@CD3DArcBall@@QAEXXZ ; CD3DArcBall::Reset
; Line 954
  00123	8b 4d f8	 mov	 ecx, DWORD PTR _this$[ebp]
  00126	81 c1 b4 03 00
	00		 add	 ecx, 948		; 000003b4H
  0012c	e8 00 00 00 00	 call	 ?Reset@CD3DArcBall@@QAEXXZ ; CD3DArcBall::Reset
; Line 955
  00131	52		 push	 edx
  00132	8b cd		 mov	 ecx, ebp
  00134	50		 push	 eax
  00135	8d 15 00 00 00
	00		 lea	 edx, DWORD PTR $LN5@Reset
  0013b	e8 00 00 00 00	 call	 @_RTC_CheckStackVars@8
  00140	58		 pop	 eax
  00141	5a		 pop	 edx
  00142	5f		 pop	 edi
  00143	5e		 pop	 esi
  00144	8b 4d fc	 mov	 ecx, DWORD PTR __$ArrayPad$[ebp]
  00147	33 cd		 xor	 ecx, ebp
  00149	e8 00 00 00 00	 call	 @__security_check_cookie@4
  0014e	8b e5		 mov	 esp, ebp
  00150	5d		 pop	 ebp
  00151	8b e3		 mov	 esp, ebx
  00153	5b		 pop	 ebx
  00154	c3		 ret	 0
  00155	8d 49 00	 npad	 3
$LN5@Reset:
  00158	01 00 00 00	 DD	 1
  0015c	00 00 00 00	 DD	 $LN4@Reset
$LN4@Reset:
  00160	b0 ff ff ff	 DD	 -80			; ffffffb0H
  00164	40 00 00 00	 DD	 64			; 00000040H
  00168	00 00 00 00	 DD	 $LN3@Reset
$LN3@Reset:
  0016c	69		 DB	 105			; 00000069H
  0016d	64		 DB	 100			; 00000064H
  0016e	00		 DB	 0
?Reset@CModelViewerCamera@@UAEXXZ ENDP			; CModelViewerCamera::Reset
_TEXT	ENDS
; Function compile flags: /Odtp /RTCsu
_TEXT	SEGMENT
_this$ = -4						; size = 4
_rc$ = 8						; size = 4
?SetDragRect@CModelViewerCamera@@UAEXABUtagRECT@@@Z PROC ; CModelViewerCamera::SetDragRect
; _this$ = ecx
; File d:\engine class\assignment 1\new scratch\dxut\optional\dxutcamera.cpp
; Line 929
  00000	55		 push	 ebp
  00001	8b ec		 mov	 ebp, esp
  00003	51		 push	 ecx
  00004	c7 45 fc cc cc
	cc cc		 mov	 DWORD PTR [ebp-4], -858993460 ; ccccccccH
  0000b	89 4d fc	 mov	 DWORD PTR _this$[ebp], ecx
; Line 930
  0000e	8b 45 08	 mov	 eax, DWORD PTR _rc$[ebp]
  00011	50		 push	 eax
  00012	8b 4d fc	 mov	 ecx, DWORD PTR _this$[ebp]
  00015	e8 00 00 00 00	 call	 ?SetDragRect@CBaseCamera@@UAEXABUtagRECT@@@Z ; CBaseCamera::SetDragRect
; Line 932
  0001a	8b 4d 08	 mov	 ecx, DWORD PTR _rc$[ebp]
  0001d	8b 51 04	 mov	 edx, DWORD PTR [ecx+4]
  00020	52		 push	 edx
  00021	8b 45 08	 mov	 eax, DWORD PTR _rc$[ebp]
  00024	8b 08		 mov	 ecx, DWORD PTR [eax]
  00026	51		 push	 ecx
  00027	8b 4d fc	 mov	 ecx, DWORD PTR _this$[ebp]
  0002a	81 c1 90 02 00
	00		 add	 ecx, 656		; 00000290H
  00030	e8 00 00 00 00	 call	 ?SetOffset@CD3DArcBall@@QAEXHH@Z ; CD3DArcBall::SetOffset
; Line 933
  00035	8b 55 08	 mov	 edx, DWORD PTR _rc$[ebp]
  00038	8b 42 04	 mov	 eax, DWORD PTR [edx+4]
  0003b	50		 push	 eax
  0003c	8b 4d 08	 mov	 ecx, DWORD PTR _rc$[ebp]
  0003f	8b 11		 mov	 edx, DWORD PTR [ecx]
  00041	52		 push	 edx
  00042	8b 4d fc	 mov	 ecx, DWORD PTR _this$[ebp]
  00045	81 c1 b4 03 00
	00		 add	 ecx, 948		; 000003b4H
  0004b	e8 00 00 00 00	 call	 ?SetOffset@CD3DArcBall@@QAEXHH@Z ; CD3DArcBall::SetOffset
; Line 935
  00050	51		 push	 ecx
  00051	f3 0f 10 05 00
	00 00 00	 movss	 xmm0, DWORD PTR __real@3f666666
  00059	f3 0f 11 04 24	 movss	 DWORD PTR [esp], xmm0
  0005e	8b 45 08	 mov	 eax, DWORD PTR _rc$[ebp]
  00061	8b 4d 08	 mov	 ecx, DWORD PTR _rc$[ebp]
  00064	8b 50 0c	 mov	 edx, DWORD PTR [eax+12]
  00067	2b 51 04	 sub	 edx, DWORD PTR [ecx+4]
  0006a	52		 push	 edx
  0006b	8b 45 08	 mov	 eax, DWORD PTR _rc$[ebp]
  0006e	8b 4d 08	 mov	 ecx, DWORD PTR _rc$[ebp]
  00071	8b 50 08	 mov	 edx, DWORD PTR [eax+8]
  00074	2b 11		 sub	 edx, DWORD PTR [ecx]
  00076	52		 push	 edx
  00077	8b 4d fc	 mov	 ecx, DWORD PTR _this$[ebp]
  0007a	e8 00 00 00 00	 call	 ?SetWindow@CModelViewerCamera@@QAEXHHM@Z ; CModelViewerCamera::SetWindow
; Line 936
  0007f	83 c4 04	 add	 esp, 4
  00082	3b ec		 cmp	 ebp, esp
  00084	e8 00 00 00 00	 call	 __RTC_CheckEsp
  00089	8b e5		 mov	 esp, ebp
  0008b	5d		 pop	 ebp
  0008c	c2 04 00	 ret	 4
?SetDragRect@CModelViewerCamera@@UAEXABUtagRECT@@@Z ENDP ; CModelViewerCamera::SetDragRect
_TEXT	ENDS
; Function compile flags: /Odtp /RTCsu
_TEXT	SEGMENT
tv887 = -3184						; size = 16
tv141 = -3153						; size = 1
$T1 = -3152						; size = 64
$T2 = -3088						; size = 64
$T3 = -3024						; size = 64
$T4 = -2960						; size = 64
$T5 = -2896						; size = 64
$T6 = -2832						; size = 64
$T7 = -2768						; size = 64
$T8 = -2704						; size = 64
$T9 = -2640						; size = 64
_mWorld$ = -2560					; size = 64
$T10 = -2480						; size = 64
_mTrans$ = -2400					; size = 64
$T11 = -2320						; size = 16
$T12 = -2304						; size = 16
$T13 = -2288						; size = 16
$T14 = -2272						; size = 16
$T15 = -2256						; size = 16
$T16 = -2240						; size = 16
$T17 = -2224						; size = 16
$T18 = -2208						; size = 16
$T19 = -2192						; size = 16
_zBasis$ = -2176					; size = 16
$T20 = -2160						; size = 16
$T21 = -2144						; size = 16
_yBasis$ = -2128					; size = 16
$T22 = -2112						; size = 16
_xBasis$ = -2096					; size = 16
_mCameraRotDelta$23 = -2064				; size = 64
$T24 = -1984						; size = 64
_mCameraLastRotInv$25 = -1904				; size = 64
$T26 = -1824						; size = 64
_mCameraRotLast$27 = -1744				; size = 64
$T28 = -1664						; size = 64
$T29 = -1600						; size = 64
$T30 = -1536						; size = 64
$T31 = -1472						; size = 64
_mModelRot$ = -1392					; size = 64
_mModelRot0$ = -1312					; size = 64
$T32 = -1232						; size = 64
_mModelLastRotInv$ = -1152				; size = 64
$T33 = -1072						; size = 64
_mModelLastRot$ = -992					; size = 64
$T34 = -912						; size = 16
$T35 = -896						; size = 16
$T36 = -880						; size = 16
$T37 = -864						; size = 64
_mInvView$ = -784					; size = 64
$T38 = -704						; size = 64
_mView$ = -624						; size = 64
$T39 = -544						; size = 16
$T40 = -528						; size = 16
_vEye$ = -512						; size = 16
$T41 = -496						; size = 16
$T42 = -480						; size = 16
_vLookAt$ = -448					; size = 16
$T43 = -416						; size = 16
_vPosDeltaWorld$ = -400					; size = 16
$T44 = -384						; size = 16
$T45 = -368						; size = 16
_vWorldAhead$ = -352					; size = 16
$T46 = -336						; size = 16
$T47 = -320						; size = 16
_vWorldUp$ = -304					; size = 16
$T48 = -288						; size = 64
$T49 = -224						; size = 64
_mCameraRot$ = -144					; size = 64
$T50 = -64						; size = 16
$T51 = -48						; size = 16
_vPosDelta$ = -32					; size = 16
_this$ = -8						; size = 4
__$ArrayPad$ = -4					; size = 4
_fElapsedTime$ = 8					; size = 4
?FrameMove@CModelViewerCamera@@UAEXM@Z PROC		; CModelViewerCamera::FrameMove
; _this$ = ecx
; File d:\engine class\assignment 1\new scratch\dxut\optional\dxutcamera.cpp
; Line 824
  00000	53		 push	 ebx
  00001	8b dc		 mov	 ebx, esp
  00003	83 ec 08	 sub	 esp, 8
  00006	83 e4 f0	 and	 esp, -16		; fffffff0H
  00009	83 c4 04	 add	 esp, 4
  0000c	55		 push	 ebp
  0000d	8b 6b 04	 mov	 ebp, DWORD PTR [ebx+4]
  00010	89 6c 24 04	 mov	 DWORD PTR [esp+4], ebp
  00014	8b ec		 mov	 ebp, esp
  00016	81 ec 78 0c 00
	00		 sub	 esp, 3192		; 00000c78H
  0001c	56		 push	 esi
  0001d	57		 push	 edi
  0001e	51		 push	 ecx
  0001f	8d bd 88 f3 ff
	ff		 lea	 edi, DWORD PTR [ebp-3192]
  00025	b9 1e 03 00 00	 mov	 ecx, 798		; 0000031eH
  0002a	b8 cc cc cc cc	 mov	 eax, -858993460		; ccccccccH
  0002f	f3 ab		 rep stosd
  00031	59		 pop	 ecx
  00032	a1 00 00 00 00	 mov	 eax, DWORD PTR ___security_cookie
  00037	33 c5		 xor	 eax, ebp
  00039	89 45 fc	 mov	 DWORD PTR __$ArrayPad$[ebp], eax
  0003c	89 4d f8	 mov	 DWORD PTR _this$[ebp], ecx
; Line 825
  0003f	b8 01 00 00 00	 mov	 eax, 1
  00044	6b c8 06	 imul	 ecx, eax, 6
  00047	8b 55 f8	 mov	 edx, DWORD PTR _this$[ebp]
  0004a	0f b6 84 0a b4
	01 00 00	 movzx	 eax, BYTE PTR [edx+ecx+436]
  00052	50		 push	 eax
  00053	8b 4d f8	 mov	 ecx, DWORD PTR _this$[ebp]
  00056	e8 00 00 00 00	 call	 ?IsKeyDown@CBaseCamera@@IBE_NE@Z ; CBaseCamera::IsKeyDown
  0005b	0f b6 c8	 movzx	 ecx, al
  0005e	85 c9		 test	 ecx, ecx
  00060	74 16		 je	 SHORT $LN5@FrameMove
; Line 826
  00062	8b 55 f8	 mov	 edx, DWORD PTR _this$[ebp]
  00065	8b 02		 mov	 eax, DWORD PTR [edx]
  00067	8b f4		 mov	 esi, esp
  00069	8b 4d f8	 mov	 ecx, DWORD PTR _this$[ebp]
  0006c	8b 50 08	 mov	 edx, DWORD PTR [eax+8]
  0006f	ff d2		 call	 edx
  00071	3b f4		 cmp	 esi, esp
  00073	e8 00 00 00 00	 call	 __RTC_CheckEsp
$LN5@FrameMove:
; Line 830
  00078	8b 45 f8	 mov	 eax, DWORD PTR _this$[ebp]
  0007b	0f b6 88 b2 05
	00 00		 movzx	 ecx, BYTE PTR [eax+1458]
  00082	85 c9		 test	 ecx, ecx
  00084	75 11		 jne	 SHORT $LN4@FrameMove
  00086	8b 55 f8	 mov	 edx, DWORD PTR _this$[ebp]
  00089	83 ba b0 01 00
	00 00		 cmp	 DWORD PTR [edx+432], 0
  00090	75 05		 jne	 SHORT $LN4@FrameMove
; Line 831
  00092	e9 9e 0a 00 00	 jmp	 $LN6@FrameMove
$LN4@FrameMove:
; Line 833
  00097	8b 45 f8	 mov	 eax, DWORD PTR _this$[ebp]
  0009a	c6 80 b2 05 00
	00 00		 mov	 BYTE PTR [eax+1458], 0
; Line 840
  000a1	8b 4d f8	 mov	 ecx, DWORD PTR _this$[ebp]
  000a4	83 b9 d0 01 00
	00 00		 cmp	 DWORD PTR [ecx+464], 0
  000ab	74 09		 je	 SHORT $LN8@FrameMove
  000ad	c6 85 af f3 ff
	ff 01		 mov	 BYTE PTR tv141[ebp], 1
  000b4	eb 07		 jmp	 SHORT $LN9@FrameMove
$LN8@FrameMove:
  000b6	c6 85 af f3 ff
	ff 00		 mov	 BYTE PTR tv141[ebp], 0
$LN9@FrameMove:
  000bd	6a 01		 push	 1
  000bf	0f b6 95 af f3
	ff ff		 movzx	 edx, BYTE PTR tv141[ebp]
  000c6	52		 push	 edx
  000c7	8b 45 f8	 mov	 eax, DWORD PTR _this$[ebp]
  000ca	0f b6 88 71 02
	00 00		 movzx	 ecx, BYTE PTR [eax+625]
  000d1	51		 push	 ecx
  000d2	8b 4d f8	 mov	 ecx, DWORD PTR _this$[ebp]
  000d5	e8 00 00 00 00	 call	 ?GetInput@CBaseCamera@@IAEX_N00@Z ; CBaseCamera::GetInput
; Line 843
  000da	51		 push	 ecx
  000db	f3 0f 10 43 08	 movss	 xmm0, DWORD PTR _fElapsedTime$[ebx]
  000e0	f3 0f 11 04 24	 movss	 DWORD PTR [esp], xmm0
  000e5	8b 4d f8	 mov	 ecx, DWORD PTR _this$[ebp]
  000e8	e8 00 00 00 00	 call	 ?UpdateVelocity@CBaseCamera@@IAEXM@Z ; CBaseCamera::UpdateVelocity
; Line 846
  000ed	8b 4d f8	 mov	 ecx, DWORD PTR _this$[ebp]
  000f0	81 c1 2c 02 00
	00		 add	 ecx, 556		; 0000022cH
  000f6	e8 00 00 00 00	 call	 ?XMLoadFloat3@DirectX@@YQ?AT__m128@@PBUXMFLOAT3@1@@Z ; DirectX::XMLoadFloat3
  000fb	0f 29 45 d0	 movaps	 XMMWORD PTR $T51[ebp], xmm0
  000ff	0f 28 45 d0	 movaps	 xmm0, XMMWORD PTR $T51[ebp]
  00103	f3 0f 10 4b 08	 movss	 xmm1, DWORD PTR _fElapsedTime$[ebx]
  00108	e8 00 00 00 00	 call	 ??DDirectX@@YQ?AT__m128@@T1@M@Z ; DirectX::operator*
  0010d	0f 29 45 c0	 movaps	 XMMWORD PTR $T50[ebp], xmm0
  00111	0f 28 45 c0	 movaps	 xmm0, XMMWORD PTR $T50[ebp]
  00115	0f 29 45 e0	 movaps	 XMMWORD PTR _vPosDelta$[ebp], xmm0
; Line 849
  00119	8b 55 f8	 mov	 edx, DWORD PTR _this$[ebp]
  0011c	83 ba d4 01 00
	00 00		 cmp	 DWORD PTR [edx+468], 0
  00123	74 4c		 je	 SHORT $LN3@FrameMove
  00125	8b 45 f8	 mov	 eax, DWORD PTR _this$[ebp]
  00128	83 b8 a8 05 00
	00 08		 cmp	 DWORD PTR [eax+1448], 8
  0012f	75 40		 jne	 SHORT $LN3@FrameMove
; Line 850
  00131	8b 4d f8	 mov	 ecx, DWORD PTR _this$[ebp]
  00134	f3 0f 2a 81 d4
	01 00 00	 cvtsi2ss xmm0, DWORD PTR [ecx+468]
  0013c	8b 55 f8	 mov	 edx, DWORD PTR _this$[ebp]
  0013f	f3 0f 59 82 b4
	05 00 00	 mulss	 xmm0, DWORD PTR [edx+1460]
  00147	f3 0f 59 05 00
	00 00 00	 mulss	 xmm0, DWORD PTR __real@3dcccccd
  0014f	f3 0f 5e 05 00
	00 00 00	 divss	 xmm0, DWORD PTR __real@42f00000
  00157	8b 45 f8	 mov	 eax, DWORD PTR _this$[ebp]
  0015a	f3 0f 10 88 b4
	05 00 00	 movss	 xmm1, DWORD PTR [eax+1460]
  00162	f3 0f 5c c8	 subss	 xmm1, xmm0
  00166	8b 4d f8	 mov	 ecx, DWORD PTR _this$[ebp]
  00169	f3 0f 11 89 b4
	05 00 00	 movss	 DWORD PTR [ecx+1460], xmm1
$LN3@FrameMove:
; Line 851
  00171	8b 55 f8	 mov	 edx, DWORD PTR _this$[ebp]
  00174	81 c2 b4 05 00
	00		 add	 edx, 1460		; 000005b4H
  0017a	52		 push	 edx
  0017b	8b 45 f8	 mov	 eax, DWORD PTR _this$[ebp]
  0017e	05 c0 05 00 00	 add	 eax, 1472		; 000005c0H
  00183	50		 push	 eax
  00184	e8 00 00 00 00	 call	 ??$min@M@std@@YAABMABM0@Z ; std::min<float>
  00189	83 c4 08	 add	 esp, 8
  0018c	8b 4d f8	 mov	 ecx, DWORD PTR _this$[ebp]
  0018f	8b 10		 mov	 edx, DWORD PTR [eax]
  00191	89 91 b4 05 00
	00		 mov	 DWORD PTR [ecx+1460], edx
; Line 852
  00197	8b 45 f8	 mov	 eax, DWORD PTR _this$[ebp]
  0019a	05 b4 05 00 00	 add	 eax, 1460		; 000005b4H
  0019f	50		 push	 eax
  001a0	8b 4d f8	 mov	 ecx, DWORD PTR _this$[ebp]
  001a3	81 c1 bc 05 00
	00		 add	 ecx, 1468		; 000005bcH
  001a9	51		 push	 ecx
  001aa	e8 00 00 00 00	 call	 ??$max@M@std@@YAABMABM0@Z ; std::max<float>
  001af	83 c4 08	 add	 esp, 8
  001b2	8b 55 f8	 mov	 edx, DWORD PTR _this$[ebp]
  001b5	8b 00		 mov	 eax, DWORD PTR [eax]
  001b7	89 82 b4 05 00
	00		 mov	 DWORD PTR [edx+1460], eax
; Line 853
  001bd	8b 4d f8	 mov	 ecx, DWORD PTR _this$[ebp]
  001c0	c7 81 d4 01 00
	00 00 00 00 00	 mov	 DWORD PTR [ecx+468], 0
; Line 856
  001ca	8d 95 20 ff ff
	ff		 lea	 edx, DWORD PTR $T49[ebp]
  001d0	52		 push	 edx
  001d1	8b 4d f8	 mov	 ecx, DWORD PTR _this$[ebp]
  001d4	81 c1 b4 03 00
	00		 add	 ecx, 948		; 000003b4H
  001da	e8 00 00 00 00	 call	 ?GetRotationMatrix@CD3DArcBall@@QBE?AUXMMATRIX@DirectX@@XZ ; CD3DArcBall::GetRotationMatrix
  001df	33 c9		 xor	 ecx, ecx
  001e1	0f 28 00	 movaps	 xmm0, XMMWORD PTR [eax]
  001e4	0f 28 48 10	 movaps	 xmm1, XMMWORD PTR [eax+16]
  001e8	0f 28 50 20	 movaps	 xmm2, XMMWORD PTR [eax+32]
  001ec	0f 28 58 30	 movaps	 xmm3, XMMWORD PTR [eax+48]
  001f0	e8 00 00 00 00	 call	 ?XMMatrixInverse@DirectX@@YQ?AUXMMATRIX@1@PAT__m128@@U21@@Z ; DirectX::XMMatrixInverse
  001f5	0f 29 9d e0 f5
	ff ff		 movaps	 XMMWORD PTR $T9[ebp+48], xmm3
  001fc	0f 29 95 d0 f5
	ff ff		 movaps	 XMMWORD PTR $T9[ebp+32], xmm2
  00203	0f 29 8d c0 f5
	ff ff		 movaps	 XMMWORD PTR $T9[ebp+16], xmm1
  0020a	0f 29 85 b0 f5
	ff ff		 movaps	 XMMWORD PTR $T9[ebp], xmm0
  00211	b9 10 00 00 00	 mov	 ecx, 16			; 00000010H
  00216	8d b5 b0 f5 ff
	ff		 lea	 esi, DWORD PTR $T9[ebp]
  0021c	8d bd e0 fe ff
	ff		 lea	 edi, DWORD PTR $T48[ebp]
  00222	f3 a5		 rep movsd
  00224	b9 10 00 00 00	 mov	 ecx, 16			; 00000010H
  00229	8d b5 e0 fe ff
	ff		 lea	 esi, DWORD PTR $T48[ebp]
  0022f	8d bd 70 ff ff
	ff		 lea	 edi, DWORD PTR _mCameraRot$[ebp]
  00235	f3 a5		 rep movsd
; Line 859
  00237	8d 85 c0 fe ff
	ff		 lea	 eax, DWORD PTR $T47[ebp]
  0023d	50		 push	 eax
  0023e	b9 00 00 00 00	 mov	 ecx, OFFSET ?g_XMIdentityR1@DirectX@@3UXMVECTORF32@1@B ; DirectX::g_XMIdentityR1
  00243	e8 00 00 00 00	 call	 ??BXMVECTORF32@DirectX@@QBE?AT__m128@@XZ ; DirectX::XMVECTORF32::operator __m128
  00248	0f 10 00	 movups	 xmm0, XMMWORD PTR [eax]
  0024b	0f 28 8d 70 ff
	ff ff		 movaps	 xmm1, XMMWORD PTR _mCameraRot$[ebp]
  00252	0f 28 55 80	 movaps	 xmm2, XMMWORD PTR _mCameraRot$[ebp+16]
  00256	0f 28 5d 90	 movaps	 xmm3, XMMWORD PTR _mCameraRot$[ebp+32]
  0025a	0f 28 65 a0	 movaps	 xmm4, XMMWORD PTR _mCameraRot$[ebp+48]
  0025e	e8 00 00 00 00	 call	 ?XMVector3TransformCoord@DirectX@@YQ?AT__m128@@T2@UXMMATRIX@1@@Z ; DirectX::XMVector3TransformCoord
  00263	0f 29 85 b0 fe
	ff ff		 movaps	 XMMWORD PTR $T46[ebp], xmm0
  0026a	0f 28 85 b0 fe
	ff ff		 movaps	 xmm0, XMMWORD PTR $T46[ebp]
  00271	0f 29 85 d0 fe
	ff ff		 movaps	 XMMWORD PTR _vWorldUp$[ebp], xmm0
; Line 860
  00278	8d 8d 90 fe ff
	ff		 lea	 ecx, DWORD PTR $T45[ebp]
  0027e	51		 push	 ecx
  0027f	b9 00 00 00 00	 mov	 ecx, OFFSET ?g_XMIdentityR2@DirectX@@3UXMVECTORF32@1@B ; DirectX::g_XMIdentityR2
  00284	e8 00 00 00 00	 call	 ??BXMVECTORF32@DirectX@@QBE?AT__m128@@XZ ; DirectX::XMVECTORF32::operator __m128
  00289	0f 10 00	 movups	 xmm0, XMMWORD PTR [eax]
  0028c	0f 28 8d 70 ff
	ff ff		 movaps	 xmm1, XMMWORD PTR _mCameraRot$[ebp]
  00293	0f 28 55 80	 movaps	 xmm2, XMMWORD PTR _mCameraRot$[ebp+16]
  00297	0f 28 5d 90	 movaps	 xmm3, XMMWORD PTR _mCameraRot$[ebp+32]
  0029b	0f 28 65 a0	 movaps	 xmm4, XMMWORD PTR _mCameraRot$[ebp+48]
  0029f	e8 00 00 00 00	 call	 ?XMVector3TransformCoord@DirectX@@YQ?AT__m128@@T2@UXMMATRIX@1@@Z ; DirectX::XMVector3TransformCoord
  002a4	0f 29 85 80 fe
	ff ff		 movaps	 XMMWORD PTR $T44[ebp], xmm0
  002ab	0f 28 85 80 fe
	ff ff		 movaps	 xmm0, XMMWORD PTR $T44[ebp]
  002b2	0f 29 85 a0 fe
	ff ff		 movaps	 XMMWORD PTR _vWorldAhead$[ebp], xmm0
; Line 863
  002b9	0f 28 45 e0	 movaps	 xmm0, XMMWORD PTR _vPosDelta$[ebp]
  002bd	0f 28 8d 70 ff
	ff ff		 movaps	 xmm1, XMMWORD PTR _mCameraRot$[ebp]
  002c4	0f 28 55 80	 movaps	 xmm2, XMMWORD PTR _mCameraRot$[ebp+16]
  002c8	0f 28 5d 90	 movaps	 xmm3, XMMWORD PTR _mCameraRot$[ebp+32]
  002cc	0f 28 65 a0	 movaps	 xmm4, XMMWORD PTR _mCameraRot$[ebp+48]
  002d0	e8 00 00 00 00	 call	 ?XMVector3TransformCoord@DirectX@@YQ?AT__m128@@T2@UXMMATRIX@1@@Z ; DirectX::XMVector3TransformCoord
  002d5	0f 29 85 60 fe
	ff ff		 movaps	 XMMWORD PTR $T43[ebp], xmm0
  002dc	0f 28 85 60 fe
	ff ff		 movaps	 xmm0, XMMWORD PTR $T43[ebp]
  002e3	0f 29 85 70 fe
	ff ff		 movaps	 XMMWORD PTR _vPosDeltaWorld$[ebp], xmm0
; Line 866
  002ea	8b 4d f8	 mov	 ecx, DWORD PTR _this$[ebp]
  002ed	81 c1 08 02 00
	00		 add	 ecx, 520		; 00000208H
  002f3	e8 00 00 00 00	 call	 ?XMLoadFloat3@DirectX@@YQ?AT__m128@@PBUXMFLOAT3@1@@Z ; DirectX::XMLoadFloat3
  002f8	0f 29 85 20 fe
	ff ff		 movaps	 XMMWORD PTR $T42[ebp], xmm0
  002ff	0f 28 85 20 fe
	ff ff		 movaps	 xmm0, XMMWORD PTR $T42[ebp]
  00306	0f 29 85 40 fe
	ff ff		 movaps	 XMMWORD PTR _vLookAt$[ebp], xmm0
; Line 867
  0030d	0f 28 85 70 fe
	ff ff		 movaps	 xmm0, XMMWORD PTR _vPosDeltaWorld$[ebp]
  00314	8d 8d 40 fe ff
	ff		 lea	 ecx, DWORD PTR _vLookAt$[ebp]
  0031a	e8 00 00 00 00	 call	 ??YDirectX@@YQAAT__m128@@AAT1@T1@@Z ; DirectX::operator+=
; Line 868
  0031f	8b 55 f8	 mov	 edx, DWORD PTR _this$[ebp]
  00322	0f b6 82 73 02
	00 00		 movzx	 eax, BYTE PTR [edx+627]
  00329	85 c0		 test	 eax, eax
  0032b	74 20		 je	 SHORT $LN2@FrameMove
; Line 869
  0032d	0f 28 85 40 fe
	ff ff		 movaps	 xmm0, XMMWORD PTR _vLookAt$[ebp]
  00334	8d 8d 10 fe ff
	ff		 lea	 ecx, DWORD PTR $T41[ebp]
  0033a	51		 push	 ecx
  0033b	8b 4d f8	 mov	 ecx, DWORD PTR _this$[ebp]
  0033e	e8 00 00 00 00	 call	 ?ConstrainToBoundary@CBaseCamera@@IAE?AT__m128@@T2@@Z ; CBaseCamera::ConstrainToBoundary
  00343	0f 10 00	 movups	 xmm0, XMMWORD PTR [eax]
  00346	0f 11 85 40 fe
	ff ff		 movups	 XMMWORD PTR _vLookAt$[ebp], xmm0
$LN2@FrameMove:
; Line 870
  0034d	0f 28 85 40 fe
	ff ff		 movaps	 xmm0, XMMWORD PTR _vLookAt$[ebp]
  00354	8b 4d f8	 mov	 ecx, DWORD PTR _this$[ebp]
  00357	81 c1 08 02 00
	00		 add	 ecx, 520		; 00000208H
  0035d	e8 00 00 00 00	 call	 ?XMStoreFloat3@DirectX@@YQXPAUXMFLOAT3@1@T__m128@@@Z ; DirectX::XMStoreFloat3
; Line 873
  00362	0f 28 85 a0 fe
	ff ff		 movaps	 xmm0, XMMWORD PTR _vWorldAhead$[ebp]
  00369	8b 55 f8	 mov	 edx, DWORD PTR _this$[ebp]
  0036c	f3 0f 10 8a b4
	05 00 00	 movss	 xmm1, DWORD PTR [edx+1460]
  00374	e8 00 00 00 00	 call	 ??DDirectX@@YQ?AT__m128@@T1@M@Z ; DirectX::operator*
  00379	0f 29 85 f0 fd
	ff ff		 movaps	 XMMWORD PTR $T40[ebp], xmm0
  00380	0f 28 8d f0 fd
	ff ff		 movaps	 xmm1, XMMWORD PTR $T40[ebp]
  00387	0f 28 85 40 fe
	ff ff		 movaps	 xmm0, XMMWORD PTR _vLookAt$[ebp]
  0038e	e8 00 00 00 00	 call	 ??GDirectX@@YQ?AT__m128@@T1@0@Z ; DirectX::operator-
  00393	0f 29 85 e0 fd
	ff ff		 movaps	 XMMWORD PTR $T39[ebp], xmm0
  0039a	0f 28 85 e0 fd
	ff ff		 movaps	 xmm0, XMMWORD PTR $T39[ebp]
  003a1	0f 29 85 00 fe
	ff ff		 movaps	 XMMWORD PTR _vEye$[ebp], xmm0
; Line 874
  003a8	0f 28 85 00 fe
	ff ff		 movaps	 xmm0, XMMWORD PTR _vEye$[ebp]
  003af	8b 4d f8	 mov	 ecx, DWORD PTR _this$[ebp]
  003b2	81 c1 fc 01 00
	00		 add	 ecx, 508		; 000001fcH
  003b8	e8 00 00 00 00	 call	 ?XMStoreFloat3@DirectX@@YQXPAUXMFLOAT3@1@T__m128@@@Z ; DirectX::XMStoreFloat3
; Line 877
  003bd	0f 28 95 d0 fe
	ff ff		 movaps	 xmm2, XMMWORD PTR _vWorldUp$[ebp]
  003c4	0f 28 8d 40 fe
	ff ff		 movaps	 xmm1, XMMWORD PTR _vLookAt$[ebp]
  003cb	0f 28 85 00 fe
	ff ff		 movaps	 xmm0, XMMWORD PTR _vEye$[ebp]
  003d2	e8 00 00 00 00	 call	 ?XMMatrixLookAtLH@DirectX@@YQ?AUXMMATRIX@1@T__m128@@00@Z ; DirectX::XMMatrixLookAtLH
  003d7	0f 29 9d a0 f5
	ff ff		 movaps	 XMMWORD PTR $T8[ebp+48], xmm3
  003de	0f 29 95 90 f5
	ff ff		 movaps	 XMMWORD PTR $T8[ebp+32], xmm2
  003e5	0f 29 8d 80 f5
	ff ff		 movaps	 XMMWORD PTR $T8[ebp+16], xmm1
  003ec	0f 29 85 70 f5
	ff ff		 movaps	 XMMWORD PTR $T8[ebp], xmm0
  003f3	b9 10 00 00 00	 mov	 ecx, 16			; 00000010H
  003f8	8d b5 70 f5 ff
	ff		 lea	 esi, DWORD PTR $T8[ebp]
  003fe	8d bd 40 fd ff
	ff		 lea	 edi, DWORD PTR $T38[ebp]
  00404	f3 a5		 rep movsd
  00406	b9 10 00 00 00	 mov	 ecx, 16			; 00000010H
  0040b	8d b5 40 fd ff
	ff		 lea	 esi, DWORD PTR $T38[ebp]
  00411	8d bd 90 fd ff
	ff		 lea	 edi, DWORD PTR _mView$[ebp]
  00417	f3 a5		 rep movsd
; Line 878
  00419	8b 4d f8	 mov	 ecx, DWORD PTR _this$[ebp]
  0041c	83 c1 08	 add	 ecx, 8
  0041f	0f 28 85 90 fd
	ff ff		 movaps	 xmm0, XMMWORD PTR _mView$[ebp]
  00426	0f 28 8d a0 fd
	ff ff		 movaps	 xmm1, XMMWORD PTR _mView$[ebp+16]
  0042d	0f 28 95 b0 fd
	ff ff		 movaps	 xmm2, XMMWORD PTR _mView$[ebp+32]
  00434	0f 28 9d c0 fd
	ff ff		 movaps	 xmm3, XMMWORD PTR _mView$[ebp+48]
  0043b	e8 00 00 00 00	 call	 ?XMStoreFloat4x4@DirectX@@YQXPAUXMFLOAT4X4@1@UXMMATRIX@1@@Z ; DirectX::XMStoreFloat4x4
; Line 880
  00440	33 c9		 xor	 ecx, ecx
  00442	0f 28 85 90 fd
	ff ff		 movaps	 xmm0, XMMWORD PTR _mView$[ebp]
  00449	0f 28 8d a0 fd
	ff ff		 movaps	 xmm1, XMMWORD PTR _mView$[ebp+16]
  00450	0f 28 95 b0 fd
	ff ff		 movaps	 xmm2, XMMWORD PTR _mView$[ebp+32]
  00457	0f 28 9d c0 fd
	ff ff		 movaps	 xmm3, XMMWORD PTR _mView$[ebp+48]
  0045e	e8 00 00 00 00	 call	 ?XMMatrixInverse@DirectX@@YQ?AUXMMATRIX@1@PAT__m128@@U21@@Z ; DirectX::XMMatrixInverse
  00463	0f 29 9d 60 f5
	ff ff		 movaps	 XMMWORD PTR $T7[ebp+48], xmm3
  0046a	0f 29 95 50 f5
	ff ff		 movaps	 XMMWORD PTR $T7[ebp+32], xmm2
  00471	0f 29 8d 40 f5
	ff ff		 movaps	 XMMWORD PTR $T7[ebp+16], xmm1
  00478	0f 29 85 30 f5
	ff ff		 movaps	 XMMWORD PTR $T7[ebp], xmm0
  0047f	b9 10 00 00 00	 mov	 ecx, 16			; 00000010H
  00484	8d b5 30 f5 ff
	ff		 lea	 esi, DWORD PTR $T7[ebp]
  0048a	8d bd a0 fc ff
	ff		 lea	 edi, DWORD PTR $T37[ebp]
  00490	f3 a5		 rep movsd
  00492	b9 10 00 00 00	 mov	 ecx, 16			; 00000010H
  00497	8d b5 a0 fc ff
	ff		 lea	 esi, DWORD PTR $T37[ebp]
  0049d	8d bd f0 fc ff
	ff		 lea	 edi, DWORD PTR _mInvView$[ebp]
  004a3	f3 a5		 rep movsd
; Line 881
  004a5	8d 85 90 fc ff
	ff		 lea	 eax, DWORD PTR $T36[ebp]
  004ab	50		 push	 eax
  004ac	b9 00 00 00 00	 mov	 ecx, OFFSET ?g_XMSelect1110@DirectX@@3UXMVECTORI32@1@B ; DirectX::g_XMSelect1110
  004b1	e8 00 00 00 00	 call	 ??BXMVECTORI32@DirectX@@QBE?AT__m128@@XZ ; DirectX::XMVECTORI32::operator __m128
  004b6	0f 10 00	 movups	 xmm0, XMMWORD PTR [eax]
  004b9	8d 8d 80 fc ff
	ff		 lea	 ecx, DWORD PTR $T35[ebp]
  004bf	51		 push	 ecx
  004c0	b9 00 00 00 00	 mov	 ecx, OFFSET ?g_XMZero@DirectX@@3UXMVECTORF32@1@B ; DirectX::g_XMZero
  004c5	0f 29 85 90 f3
	ff ff		 movaps	 XMMWORD PTR tv887[ebp], xmm0
  004cc	e8 00 00 00 00	 call	 ??BXMVECTORF32@DirectX@@QBE?AT__m128@@XZ ; DirectX::XMVECTORF32::operator __m128
  004d1	0f 10 08	 movups	 xmm1, XMMWORD PTR [eax]
  004d4	ba 10 00 00 00	 mov	 edx, 16			; 00000010H
  004d9	6b c2 03	 imul	 eax, edx, 3
  004dc	0f 10 84 05 f0
	fc ff ff	 movups	 xmm0, XMMWORD PTR _mInvView$[ebp+eax]
  004e4	0f 28 95 90 f3
	ff ff		 movaps	 xmm2, XMMWORD PTR tv887[ebp]
  004eb	e8 00 00 00 00	 call	 ?XMVectorSelect@DirectX@@YQ?AT__m128@@T2@00@Z ; DirectX::XMVectorSelect
  004f0	0f 29 85 70 fc
	ff ff		 movaps	 XMMWORD PTR $T34[ebp], xmm0
  004f7	b9 10 00 00 00	 mov	 ecx, 16			; 00000010H
  004fc	6b d1 03	 imul	 edx, ecx, 3
  004ff	0f 10 85 70 fc
	ff ff		 movups	 xmm0, XMMWORD PTR $T34[ebp]
  00506	0f 11 84 15 f0
	fc ff ff	 movups	 XMMWORD PTR _mInvView$[ebp+edx], xmm0
; Line 883
  0050e	8b 4d f8	 mov	 ecx, DWORD PTR _this$[ebp]
  00511	81 c1 e4 04 00
	00		 add	 ecx, 1252		; 000004e4H
  00517	e8 00 00 00 00	 call	 ?XMLoadFloat4x4@DirectX@@YQ?AUXMMATRIX@1@PBUXMFLOAT4X4@1@@Z ; DirectX::XMLoadFloat4x4
  0051c	0f 29 9d 20 f5
	ff ff		 movaps	 XMMWORD PTR $T6[ebp+48], xmm3
  00523	0f 29 95 10 f5
	ff ff		 movaps	 XMMWORD PTR $T6[ebp+32], xmm2
  0052a	0f 29 8d 00 f5
	ff ff		 movaps	 XMMWORD PTR $T6[ebp+16], xmm1
  00531	0f 29 85 f0 f4
	ff ff		 movaps	 XMMWORD PTR $T6[ebp], xmm0
  00538	b9 10 00 00 00	 mov	 ecx, 16			; 00000010H
  0053d	8d b5 f0 f4 ff
	ff		 lea	 esi, DWORD PTR $T6[ebp]
  00543	8d bd d0 fb ff
	ff		 lea	 edi, DWORD PTR $T33[ebp]
  00549	f3 a5		 rep movsd
  0054b	b9 10 00 00 00	 mov	 ecx, 16			; 00000010H
  00550	8d b5 d0 fb ff
	ff		 lea	 esi, DWORD PTR $T33[ebp]
  00556	8d bd 20 fc ff
	ff		 lea	 edi, DWORD PTR _mModelLastRot$[ebp]
  0055c	f3 a5		 rep movsd
; Line 884
  0055e	33 c9		 xor	 ecx, ecx
  00560	0f 28 85 20 fc
	ff ff		 movaps	 xmm0, XMMWORD PTR _mModelLastRot$[ebp]
  00567	0f 28 8d 30 fc
	ff ff		 movaps	 xmm1, XMMWORD PTR _mModelLastRot$[ebp+16]
  0056e	0f 28 95 40 fc
	ff ff		 movaps	 xmm2, XMMWORD PTR _mModelLastRot$[ebp+32]
  00575	0f 28 9d 50 fc
	ff ff		 movaps	 xmm3, XMMWORD PTR _mModelLastRot$[ebp+48]
  0057c	e8 00 00 00 00	 call	 ?XMMatrixInverse@DirectX@@YQ?AUXMMATRIX@1@PAT__m128@@U21@@Z ; DirectX::XMMatrixInverse
  00581	0f 29 9d e0 f4
	ff ff		 movaps	 XMMWORD PTR $T5[ebp+48], xmm3
  00588	0f 29 95 d0 f4
	ff ff		 movaps	 XMMWORD PTR $T5[ebp+32], xmm2
  0058f	0f 29 8d c0 f4
	ff ff		 movaps	 XMMWORD PTR $T5[ebp+16], xmm1
  00596	0f 29 85 b0 f4
	ff ff		 movaps	 XMMWORD PTR $T5[ebp], xmm0
  0059d	b9 10 00 00 00	 mov	 ecx, 16			; 00000010H
  005a2	8d b5 b0 f4 ff
	ff		 lea	 esi, DWORD PTR $T5[ebp]
  005a8	8d bd 30 fb ff
	ff		 lea	 edi, DWORD PTR $T32[ebp]
  005ae	f3 a5		 rep movsd
  005b0	b9 10 00 00 00	 mov	 ecx, 16			; 00000010H
  005b5	8d b5 30 fb ff
	ff		 lea	 esi, DWORD PTR $T32[ebp]
  005bb	8d bd 80 fb ff
	ff		 lea	 edi, DWORD PTR _mModelLastRotInv$[ebp]
  005c1	f3 a5		 rep movsd
; Line 888
  005c3	8d 85 e0 fa ff
	ff		 lea	 eax, DWORD PTR _mModelRot0$[ebp]
  005c9	50		 push	 eax
  005ca	8b 4d f8	 mov	 ecx, DWORD PTR _this$[ebp]
  005cd	81 c1 90 02 00
	00		 add	 ecx, 656		; 00000290H
  005d3	e8 00 00 00 00	 call	 ?GetRotationMatrix@CD3DArcBall@@QBE?AUXMMATRIX@DirectX@@XZ ; CD3DArcBall::GetRotationMatrix
; Line 889
  005d8	8b 4d f8	 mov	 ecx, DWORD PTR _this$[ebp]
  005db	81 c1 24 05 00
	00		 add	 ecx, 1316		; 00000524H
  005e1	e8 00 00 00 00	 call	 ?XMLoadFloat4x4@DirectX@@YQ?AUXMMATRIX@1@PBUXMFLOAT4X4@1@@Z ; DirectX::XMLoadFloat4x4
  005e6	0f 29 9d a0 f4
	ff ff		 movaps	 XMMWORD PTR $T4[ebp+48], xmm3
  005ed	0f 29 95 90 f4
	ff ff		 movaps	 XMMWORD PTR $T4[ebp+32], xmm2
  005f4	0f 29 8d 80 f4
	ff ff		 movaps	 XMMWORD PTR $T4[ebp+16], xmm1
  005fb	0f 29 85 70 f4
	ff ff		 movaps	 XMMWORD PTR $T4[ebp], xmm0
  00602	b9 10 00 00 00	 mov	 ecx, 16			; 00000010H
  00607	8d b5 70 f4 ff
	ff		 lea	 esi, DWORD PTR $T4[ebp]
  0060d	8d bd 40 fa ff
	ff		 lea	 edi, DWORD PTR $T31[ebp]
  00613	f3 a5		 rep movsd
  00615	b9 10 00 00 00	 mov	 ecx, 16			; 00000010H
  0061a	8d b5 40 fa ff
	ff		 lea	 esi, DWORD PTR $T31[ebp]
  00620	8d bd 90 fa ff
	ff		 lea	 edi, DWORD PTR _mModelRot$[ebp]
  00626	f3 a5		 rep movsd
; Line 890
  00628	8d 95 00 fa ff
	ff		 lea	 edx, DWORD PTR $T30[ebp]
  0062e	8d 8d 90 fd ff
	ff		 lea	 ecx, DWORD PTR _mView$[ebp]
  00634	0f 28 85 80 fb
	ff ff		 movaps	 xmm0, XMMWORD PTR _mModelLastRotInv$[ebp]
  0063b	0f 28 8d 90 fb
	ff ff		 movaps	 xmm1, XMMWORD PTR _mModelLastRotInv$[ebp+16]
  00642	0f 28 95 a0 fb
	ff ff		 movaps	 xmm2, XMMWORD PTR _mModelLastRotInv$[ebp+32]
  00649	0f 28 9d b0 fb
	ff ff		 movaps	 xmm3, XMMWORD PTR _mModelLastRotInv$[ebp+48]
  00650	e8 00 00 00 00	 call	 ??DXMMATRIX@DirectX@@QBQ?AU01@U01@@Z ; DirectX::XMMATRIX::operator*
  00655	8d 95 c0 f9 ff
	ff		 lea	 edx, DWORD PTR $T29[ebp]
  0065b	8b c8		 mov	 ecx, eax
  0065d	0f 28 85 e0 fa
	ff ff		 movaps	 xmm0, XMMWORD PTR _mModelRot0$[ebp]
  00664	0f 28 8d f0 fa
	ff ff		 movaps	 xmm1, XMMWORD PTR _mModelRot0$[ebp+16]
  0066b	0f 28 95 00 fb
	ff ff		 movaps	 xmm2, XMMWORD PTR _mModelRot0$[ebp+32]
  00672	0f 28 9d 10 fb
	ff ff		 movaps	 xmm3, XMMWORD PTR _mModelRot0$[ebp+48]
  00679	e8 00 00 00 00	 call	 ??DXMMATRIX@DirectX@@QBQ?AU01@U01@@Z ; DirectX::XMMATRIX::operator*
  0067e	8d 95 80 f9 ff
	ff		 lea	 edx, DWORD PTR $T28[ebp]
  00684	8b c8		 mov	 ecx, eax
  00686	0f 28 85 f0 fc
	ff ff		 movaps	 xmm0, XMMWORD PTR _mInvView$[ebp]
  0068d	0f 28 8d 00 fd
	ff ff		 movaps	 xmm1, XMMWORD PTR _mInvView$[ebp+16]
  00694	0f 28 95 10 fd
	ff ff		 movaps	 xmm2, XMMWORD PTR _mInvView$[ebp+32]
  0069b	0f 28 9d 20 fd
	ff ff		 movaps	 xmm3, XMMWORD PTR _mInvView$[ebp+48]
  006a2	e8 00 00 00 00	 call	 ??DXMMATRIX@DirectX@@QBQ?AU01@U01@@Z ; DirectX::XMMATRIX::operator*
  006a7	8d 8d 90 fa ff
	ff		 lea	 ecx, DWORD PTR _mModelRot$[ebp]
  006ad	0f 28 00	 movaps	 xmm0, XMMWORD PTR [eax]
  006b0	0f 28 48 10	 movaps	 xmm1, XMMWORD PTR [eax+16]
  006b4	0f 28 50 20	 movaps	 xmm2, XMMWORD PTR [eax+32]
  006b8	0f 28 58 30	 movaps	 xmm3, XMMWORD PTR [eax+48]
  006bc	e8 00 00 00 00	 call	 ??XXMMATRIX@DirectX@@QAQAAU01@U01@@Z ; DirectX::XMMATRIX::operator*=
; Line 892
  006c1	8b 4d f8	 mov	 ecx, DWORD PTR _this$[ebp]
  006c4	81 c1 b4 03 00
	00		 add	 ecx, 948		; 000003b4H
  006ca	e8 00 00 00 00	 call	 ?IsBeingDragged@CD3DArcBall@@QBE_NXZ ; CD3DArcBall::IsBeingDragged
  006cf	0f b6 c8	 movzx	 ecx, al
  006d2	85 c9		 test	 ecx, ecx
  006d4	0f 84 39 01 00
	00		 je	 $LN1@FrameMove
  006da	8b 55 f8	 mov	 edx, DWORD PTR _this$[ebp]
  006dd	0f b6 82 b0 05
	00 00		 movzx	 eax, BYTE PTR [edx+1456]
  006e4	85 c0		 test	 eax, eax
  006e6	0f 84 27 01 00
	00		 je	 $LN1@FrameMove
  006ec	b9 01 00 00 00	 mov	 ecx, 1
  006f1	6b d1 07	 imul	 edx, ecx, 7
  006f4	8b 45 f8	 mov	 eax, DWORD PTR _this$[ebp]
  006f7	0f b6 8c 10 b4
	01 00 00	 movzx	 ecx, BYTE PTR [eax+edx+436]
  006ff	51		 push	 ecx
  00700	8b 4d f8	 mov	 ecx, DWORD PTR _this$[ebp]
  00703	e8 00 00 00 00	 call	 ?IsKeyDown@CBaseCamera@@IBE_NE@Z ; CBaseCamera::IsKeyDown
  00708	0f b6 d0	 movzx	 edx, al
  0070b	85 d2		 test	 edx, edx
  0070d	0f 85 00 01 00
	00		 jne	 $LN1@FrameMove
; Line 895
  00713	8b 4d f8	 mov	 ecx, DWORD PTR _this$[ebp]
  00716	81 c1 c4 05 00
	00		 add	 ecx, 1476		; 000005c4H
  0071c	e8 00 00 00 00	 call	 ?XMLoadFloat4x4@DirectX@@YQ?AUXMMATRIX@1@PBUXMFLOAT4X4@1@@Z ; DirectX::XMLoadFloat4x4
  00721	0f 29 9d 60 f4
	ff ff		 movaps	 XMMWORD PTR $T3[ebp+48], xmm3
  00728	0f 29 95 50 f4
	ff ff		 movaps	 XMMWORD PTR $T3[ebp+32], xmm2
  0072f	0f 29 8d 40 f4
	ff ff		 movaps	 XMMWORD PTR $T3[ebp+16], xmm1
  00736	0f 29 85 30 f4
	ff ff		 movaps	 XMMWORD PTR $T3[ebp], xmm0
  0073d	b9 10 00 00 00	 mov	 ecx, 16			; 00000010H
  00742	8d b5 30 f4 ff
	ff		 lea	 esi, DWORD PTR $T3[ebp]
  00748	8d bd e0 f8 ff
	ff		 lea	 edi, DWORD PTR $T26[ebp]
  0074e	f3 a5		 rep movsd
  00750	b9 10 00 00 00	 mov	 ecx, 16			; 00000010H
  00755	8d b5 e0 f8 ff
	ff		 lea	 esi, DWORD PTR $T26[ebp]
  0075b	8d bd 30 f9 ff
	ff		 lea	 edi, DWORD PTR _mCameraRotLast$27[ebp]
  00761	f3 a5		 rep movsd
; Line 896
  00763	33 c9		 xor	 ecx, ecx
  00765	0f 28 85 30 f9
	ff ff		 movaps	 xmm0, XMMWORD PTR _mCameraRotLast$27[ebp]
  0076c	0f 28 8d 40 f9
	ff ff		 movaps	 xmm1, XMMWORD PTR _mCameraRotLast$27[ebp+16]
  00773	0f 28 95 50 f9
	ff ff		 movaps	 xmm2, XMMWORD PTR _mCameraRotLast$27[ebp+32]
  0077a	0f 28 9d 60 f9
	ff ff		 movaps	 xmm3, XMMWORD PTR _mCameraRotLast$27[ebp+48]
  00781	e8 00 00 00 00	 call	 ?XMMatrixInverse@DirectX@@YQ?AUXMMATRIX@1@PAT__m128@@U21@@Z ; DirectX::XMMatrixInverse
  00786	0f 29 9d 20 f4
	ff ff		 movaps	 XMMWORD PTR $T2[ebp+48], xmm3
  0078d	0f 29 95 10 f4
	ff ff		 movaps	 XMMWORD PTR $T2[ebp+32], xmm2
  00794	0f 29 8d 00 f4
	ff ff		 movaps	 XMMWORD PTR $T2[ebp+16], xmm1
  0079b	0f 29 85 f0 f3
	ff ff		 movaps	 XMMWORD PTR $T2[ebp], xmm0
  007a2	b9 10 00 00 00	 mov	 ecx, 16			; 00000010H
  007a7	8d b5 f0 f3 ff
	ff		 lea	 esi, DWORD PTR $T2[ebp]
  007ad	8d bd 40 f8 ff
	ff		 lea	 edi, DWORD PTR $T24[ebp]
  007b3	f3 a5		 rep movsd
  007b5	b9 10 00 00 00	 mov	 ecx, 16			; 00000010H
  007ba	8d b5 40 f8 ff
	ff		 lea	 esi, DWORD PTR $T24[ebp]
  007c0	8d bd 90 f8 ff
	ff		 lea	 edi, DWORD PTR _mCameraLastRotInv$25[ebp]
  007c6	f3 a5		 rep movsd
; Line 897
  007c8	8d 95 f0 f7 ff
	ff		 lea	 edx, DWORD PTR _mCameraRotDelta$23[ebp]
  007ce	8d 8d 90 f8 ff
	ff		 lea	 ecx, DWORD PTR _mCameraLastRotInv$25[ebp]
  007d4	0f 28 85 70 ff
	ff ff		 movaps	 xmm0, XMMWORD PTR _mCameraRot$[ebp]
  007db	0f 28 4d 80	 movaps	 xmm1, XMMWORD PTR _mCameraRot$[ebp+16]
  007df	0f 28 55 90	 movaps	 xmm2, XMMWORD PTR _mCameraRot$[ebp+32]
  007e3	0f 28 5d a0	 movaps	 xmm3, XMMWORD PTR _mCameraRot$[ebp+48]
  007e7	e8 00 00 00 00	 call	 ??DXMMATRIX@DirectX@@QBQ?AU01@U01@@Z ; DirectX::XMMATRIX::operator*
; Line 898
  007ec	8d 8d 90 fa ff
	ff		 lea	 ecx, DWORD PTR _mModelRot$[ebp]
  007f2	0f 28 85 f0 f7
	ff ff		 movaps	 xmm0, XMMWORD PTR _mCameraRotDelta$23[ebp]
  007f9	0f 28 8d 00 f8
	ff ff		 movaps	 xmm1, XMMWORD PTR _mCameraRotDelta$23[ebp+16]
  00800	0f 28 95 10 f8
	ff ff		 movaps	 xmm2, XMMWORD PTR _mCameraRotDelta$23[ebp+32]
  00807	0f 28 9d 20 f8
	ff ff		 movaps	 xmm3, XMMWORD PTR _mCameraRotDelta$23[ebp+48]
  0080e	e8 00 00 00 00	 call	 ??XXMMATRIX@DirectX@@QAQAAU01@U01@@Z ; DirectX::XMMATRIX::operator*=
$LN1@FrameMove:
; Line 901
  00813	8b 4d f8	 mov	 ecx, DWORD PTR _this$[ebp]
  00816	81 c1 e4 04 00
	00		 add	 ecx, 1252		; 000004e4H
  0081c	0f 28 85 e0 fa
	ff ff		 movaps	 xmm0, XMMWORD PTR _mModelRot0$[ebp]
  00823	0f 28 8d f0 fa
	ff ff		 movaps	 xmm1, XMMWORD PTR _mModelRot0$[ebp+16]
  0082a	0f 28 95 00 fb
	ff ff		 movaps	 xmm2, XMMWORD PTR _mModelRot0$[ebp+32]
  00831	0f 28 9d 10 fb
	ff ff		 movaps	 xmm3, XMMWORD PTR _mModelRot0$[ebp+48]
  00838	e8 00 00 00 00	 call	 ?XMStoreFloat4x4@DirectX@@YQXPAUXMFLOAT4X4@1@UXMMATRIX@1@@Z ; DirectX::XMStoreFloat4x4
; Line 902
  0083d	8b 4d f8	 mov	 ecx, DWORD PTR _this$[ebp]
  00840	81 c1 c4 05 00
	00		 add	 ecx, 1476		; 000005c4H
  00846	0f 28 85 70 ff
	ff ff		 movaps	 xmm0, XMMWORD PTR _mCameraRot$[ebp]
  0084d	0f 28 4d 80	 movaps	 xmm1, XMMWORD PTR _mCameraRot$[ebp+16]
  00851	0f 28 55 90	 movaps	 xmm2, XMMWORD PTR _mCameraRot$[ebp+32]
  00855	0f 28 5d a0	 movaps	 xmm3, XMMWORD PTR _mCameraRot$[ebp+48]
  00859	e8 00 00 00 00	 call	 ?XMStoreFloat4x4@DirectX@@YQXPAUXMFLOAT4X4@1@UXMMATRIX@1@@Z ; DirectX::XMStoreFloat4x4
; Line 906
  0085e	b8 10 00 00 00	 mov	 eax, 16			; 00000010H
  00863	6b c8 00	 imul	 ecx, eax, 0
  00866	0f 10 84 0d 90
	fa ff ff	 movups	 xmm0, XMMWORD PTR _mModelRot$[ebp+ecx]
  0086e	e8 00 00 00 00	 call	 ?XMVector3Normalize@DirectX@@YQ?AT__m128@@T2@@Z ; DirectX::XMVector3Normalize
  00873	0f 29 85 c0 f7
	ff ff		 movaps	 XMMWORD PTR $T22[ebp], xmm0
  0087a	0f 28 85 c0 f7
	ff ff		 movaps	 xmm0, XMMWORD PTR $T22[ebp]
  00881	0f 29 85 d0 f7
	ff ff		 movaps	 XMMWORD PTR _xBasis$[ebp], xmm0
; Line 907
  00888	0f 28 8d d0 f7
	ff ff		 movaps	 xmm1, XMMWORD PTR _xBasis$[ebp]
  0088f	ba 10 00 00 00	 mov	 edx, 16			; 00000010H
  00894	d1 e2		 shl	 edx, 1
  00896	0f 10 84 15 90
	fa ff ff	 movups	 xmm0, XMMWORD PTR _mModelRot$[ebp+edx]
  0089e	e8 00 00 00 00	 call	 ?XMVector3Cross@DirectX@@YQ?AT__m128@@T2@0@Z ; DirectX::XMVector3Cross
  008a3	0f 29 85 a0 f7
	ff ff		 movaps	 XMMWORD PTR $T21[ebp], xmm0
  008aa	0f 28 85 a0 f7
	ff ff		 movaps	 xmm0, XMMWORD PTR $T21[ebp]
  008b1	0f 29 85 b0 f7
	ff ff		 movaps	 XMMWORD PTR _yBasis$[ebp], xmm0
; Line 908
  008b8	0f 28 85 b0 f7
	ff ff		 movaps	 xmm0, XMMWORD PTR _yBasis$[ebp]
  008bf	e8 00 00 00 00	 call	 ?XMVector3Normalize@DirectX@@YQ?AT__m128@@T2@@Z ; DirectX::XMVector3Normalize
  008c4	0f 29 85 90 f7
	ff ff		 movaps	 XMMWORD PTR $T20[ebp], xmm0
  008cb	0f 28 85 90 f7
	ff ff		 movaps	 xmm0, XMMWORD PTR $T20[ebp]
  008d2	0f 29 85 b0 f7
	ff ff		 movaps	 XMMWORD PTR _yBasis$[ebp], xmm0
; Line 909
  008d9	0f 28 8d b0 f7
	ff ff		 movaps	 xmm1, XMMWORD PTR _yBasis$[ebp]
  008e0	0f 28 85 d0 f7
	ff ff		 movaps	 xmm0, XMMWORD PTR _xBasis$[ebp]
  008e7	e8 00 00 00 00	 call	 ?XMVector3Cross@DirectX@@YQ?AT__m128@@T2@0@Z ; DirectX::XMVector3Cross
  008ec	0f 29 85 70 f7
	ff ff		 movaps	 XMMWORD PTR $T19[ebp], xmm0
  008f3	0f 28 85 70 f7
	ff ff		 movaps	 xmm0, XMMWORD PTR $T19[ebp]
  008fa	0f 29 85 80 f7
	ff ff		 movaps	 XMMWORD PTR _zBasis$[ebp], xmm0
; Line 911
  00901	8d 85 60 f7 ff
	ff		 lea	 eax, DWORD PTR $T18[ebp]
  00907	50		 push	 eax
  00908	b9 00 00 00 00	 mov	 ecx, OFFSET ?g_XMSelect1110@DirectX@@3UXMVECTORI32@1@B ; DirectX::g_XMSelect1110
  0090d	e8 00 00 00 00	 call	 ??BXMVECTORI32@DirectX@@QBE?AT__m128@@XZ ; DirectX::XMVECTORI32::operator __m128
  00912	0f 10 10	 movups	 xmm2, XMMWORD PTR [eax]
  00915	0f 28 8d d0 f7
	ff ff		 movaps	 xmm1, XMMWORD PTR _xBasis$[ebp]
  0091c	b9 10 00 00 00	 mov	 ecx, 16			; 00000010H
  00921	6b d1 00	 imul	 edx, ecx, 0
  00924	0f 10 84 15 90
	fa ff ff	 movups	 xmm0, XMMWORD PTR _mModelRot$[ebp+edx]
  0092c	e8 00 00 00 00	 call	 ?XMVectorSelect@DirectX@@YQ?AT__m128@@T2@00@Z ; DirectX::XMVectorSelect
  00931	0f 29 85 50 f7
	ff ff		 movaps	 XMMWORD PTR $T17[ebp], xmm0
  00938	b8 10 00 00 00	 mov	 eax, 16			; 00000010H
  0093d	6b c8 00	 imul	 ecx, eax, 0
  00940	0f 10 85 50 f7
	ff ff		 movups	 xmm0, XMMWORD PTR $T17[ebp]
  00947	0f 11 84 0d 90
	fa ff ff	 movups	 XMMWORD PTR _mModelRot$[ebp+ecx], xmm0
; Line 912
  0094f	8d 95 40 f7 ff
	ff		 lea	 edx, DWORD PTR $T16[ebp]
  00955	52		 push	 edx
  00956	b9 00 00 00 00	 mov	 ecx, OFFSET ?g_XMSelect1110@DirectX@@3UXMVECTORI32@1@B ; DirectX::g_XMSelect1110
  0095b	e8 00 00 00 00	 call	 ??BXMVECTORI32@DirectX@@QBE?AT__m128@@XZ ; DirectX::XMVECTORI32::operator __m128
  00960	0f 10 10	 movups	 xmm2, XMMWORD PTR [eax]
  00963	0f 28 8d b0 f7
	ff ff		 movaps	 xmm1, XMMWORD PTR _yBasis$[ebp]
  0096a	b8 10 00 00 00	 mov	 eax, 16			; 00000010H
  0096f	c1 e0 00	 shl	 eax, 0
  00972	0f 10 84 05 90
	fa ff ff	 movups	 xmm0, XMMWORD PTR _mModelRot$[ebp+eax]
  0097a	e8 00 00 00 00	 call	 ?XMVectorSelect@DirectX@@YQ?AT__m128@@T2@00@Z ; DirectX::XMVectorSelect
  0097f	0f 29 85 30 f7
	ff ff		 movaps	 XMMWORD PTR $T15[ebp], xmm0
  00986	b9 10 00 00 00	 mov	 ecx, 16			; 00000010H
  0098b	c1 e1 00	 shl	 ecx, 0
  0098e	0f 10 85 30 f7
	ff ff		 movups	 xmm0, XMMWORD PTR $T15[ebp]
  00995	0f 11 84 0d 90
	fa ff ff	 movups	 XMMWORD PTR _mModelRot$[ebp+ecx], xmm0
; Line 913
  0099d	8d 95 20 f7 ff
	ff		 lea	 edx, DWORD PTR $T14[ebp]
  009a3	52		 push	 edx
  009a4	b9 00 00 00 00	 mov	 ecx, OFFSET ?g_XMSelect1110@DirectX@@3UXMVECTORI32@1@B ; DirectX::g_XMSelect1110
  009a9	e8 00 00 00 00	 call	 ??BXMVECTORI32@DirectX@@QBE?AT__m128@@XZ ; DirectX::XMVECTORI32::operator __m128
  009ae	0f 10 10	 movups	 xmm2, XMMWORD PTR [eax]
  009b1	0f 28 8d 80 f7
	ff ff		 movaps	 xmm1, XMMWORD PTR _zBasis$[ebp]
  009b8	b8 10 00 00 00	 mov	 eax, 16			; 00000010H
  009bd	d1 e0		 shl	 eax, 1
  009bf	0f 10 84 05 90
	fa ff ff	 movups	 xmm0, XMMWORD PTR _mModelRot$[ebp+eax]
  009c7	e8 00 00 00 00	 call	 ?XMVectorSelect@DirectX@@YQ?AT__m128@@T2@00@Z ; DirectX::XMVectorSelect
  009cc	0f 29 85 10 f7
	ff ff		 movaps	 XMMWORD PTR $T13[ebp], xmm0
  009d3	b9 10 00 00 00	 mov	 ecx, 16			; 00000010H
  009d8	d1 e1		 shl	 ecx, 1
  009da	0f 10 85 10 f7
	ff ff		 movups	 xmm0, XMMWORD PTR $T13[ebp]
  009e1	0f 11 84 0d 90
	fa ff ff	 movups	 XMMWORD PTR _mModelRot$[ebp+ecx], xmm0
; Line 916
  009e9	8d 95 00 f7 ff
	ff		 lea	 edx, DWORD PTR $T12[ebp]
  009ef	52		 push	 edx
  009f0	b9 00 00 00 00	 mov	 ecx, OFFSET ?g_XMSelect1110@DirectX@@3UXMVECTORI32@1@B ; DirectX::g_XMSelect1110
  009f5	e8 00 00 00 00	 call	 ??BXMVECTORI32@DirectX@@QBE?AT__m128@@XZ ; DirectX::XMVECTORI32::operator __m128
  009fa	0f 10 10	 movups	 xmm2, XMMWORD PTR [eax]
  009fd	0f 28 8d 40 fe
	ff ff		 movaps	 xmm1, XMMWORD PTR _vLookAt$[ebp]
  00a04	b8 10 00 00 00	 mov	 eax, 16			; 00000010H
  00a09	6b c8 03	 imul	 ecx, eax, 3
  00a0c	0f 10 84 0d 90
	fa ff ff	 movups	 xmm0, XMMWORD PTR _mModelRot$[ebp+ecx]
  00a14	e8 00 00 00 00	 call	 ?XMVectorSelect@DirectX@@YQ?AT__m128@@T2@00@Z ; DirectX::XMVectorSelect
  00a19	0f 29 85 f0 f6
	ff ff		 movaps	 XMMWORD PTR $T11[ebp], xmm0
  00a20	ba 10 00 00 00	 mov	 edx, 16			; 00000010H
  00a25	6b c2 03	 imul	 eax, edx, 3
  00a28	0f 10 85 f0 f6
	ff ff		 movups	 xmm0, XMMWORD PTR $T11[ebp]
  00a2f	0f 11 84 05 90
	fa ff ff	 movups	 XMMWORD PTR _mModelRot$[ebp+eax], xmm0
; Line 918
  00a37	8b 4d f8	 mov	 ecx, DWORD PTR _this$[ebp]
  00a3a	81 c1 24 05 00
	00		 add	 ecx, 1316		; 00000524H
  00a40	0f 28 85 90 fa
	ff ff		 movaps	 xmm0, XMMWORD PTR _mModelRot$[ebp]
  00a47	0f 28 8d a0 fa
	ff ff		 movaps	 xmm1, XMMWORD PTR _mModelRot$[ebp+16]
  00a4e	0f 28 95 b0 fa
	ff ff		 movaps	 xmm2, XMMWORD PTR _mModelRot$[ebp+32]
  00a55	0f 28 9d c0 fa
	ff ff		 movaps	 xmm3, XMMWORD PTR _mModelRot$[ebp+48]
  00a5c	e8 00 00 00 00	 call	 ?XMStoreFloat4x4@DirectX@@YQXPAUXMFLOAT4X4@1@UXMMATRIX@1@@Z ; DirectX::XMStoreFloat4x4
; Line 921
  00a61	8b 4d f8	 mov	 ecx, DWORD PTR _this$[ebp]
  00a64	f3 0f 10 91 e0
	04 00 00	 movss	 xmm2, DWORD PTR [ecx+1248]
  00a6c	0f 57 15 00 00
	00 00		 xorps	 xmm2, DWORD PTR __xmm@80000000800000008000000080000000
  00a73	8b 55 f8	 mov	 edx, DWORD PTR _this$[ebp]
  00a76	f3 0f 10 8a dc
	04 00 00	 movss	 xmm1, DWORD PTR [edx+1244]
  00a7e	0f 57 0d 00 00
	00 00		 xorps	 xmm1, DWORD PTR __xmm@80000000800000008000000080000000
  00a85	8b 45 f8	 mov	 eax, DWORD PTR _this$[ebp]
  00a88	f3 0f 10 80 d8
	04 00 00	 movss	 xmm0, DWORD PTR [eax+1240]
  00a90	0f 57 05 00 00
	00 00		 xorps	 xmm0, DWORD PTR __xmm@80000000800000008000000080000000
  00a97	e8 00 00 00 00	 call	 ?XMMatrixTranslation@DirectX@@YQ?AUXMMATRIX@1@MMM@Z ; DirectX::XMMatrixTranslation
  00a9c	0f 29 9d e0 f3
	ff ff		 movaps	 XMMWORD PTR $T1[ebp+48], xmm3
  00aa3	0f 29 95 d0 f3
	ff ff		 movaps	 XMMWORD PTR $T1[ebp+32], xmm2
  00aaa	0f 29 8d c0 f3
	ff ff		 movaps	 XMMWORD PTR $T1[ebp+16], xmm1
  00ab1	0f 29 85 b0 f3
	ff ff		 movaps	 XMMWORD PTR $T1[ebp], xmm0
  00ab8	b9 10 00 00 00	 mov	 ecx, 16			; 00000010H
  00abd	8d b5 b0 f3 ff
	ff		 lea	 esi, DWORD PTR $T1[ebp]
  00ac3	8d bd 50 f6 ff
	ff		 lea	 edi, DWORD PTR $T10[ebp]
  00ac9	f3 a5		 rep movsd
  00acb	b9 10 00 00 00	 mov	 ecx, 16			; 00000010H
  00ad0	8d b5 50 f6 ff
	ff		 lea	 esi, DWORD PTR $T10[ebp]
  00ad6	8d bd a0 f6 ff
	ff		 lea	 edi, DWORD PTR _mTrans$[ebp]
  00adc	f3 a5		 rep movsd
; Line 922
  00ade	8d 95 00 f6 ff
	ff		 lea	 edx, DWORD PTR _mWorld$[ebp]
  00ae4	8d 8d a0 f6 ff
	ff		 lea	 ecx, DWORD PTR _mTrans$[ebp]
  00aea	0f 28 85 90 fa
	ff ff		 movaps	 xmm0, XMMWORD PTR _mModelRot$[ebp]
  00af1	0f 28 8d a0 fa
	ff ff		 movaps	 xmm1, XMMWORD PTR _mModelRot$[ebp+16]
  00af8	0f 28 95 b0 fa
	ff ff		 movaps	 xmm2, XMMWORD PTR _mModelRot$[ebp+32]
  00aff	0f 28 9d c0 fa
	ff ff		 movaps	 xmm3, XMMWORD PTR _mModelRot$[ebp+48]
  00b06	e8 00 00 00 00	 call	 ??DXMMATRIX@DirectX@@QBQ?AU01@U01@@Z ; DirectX::XMMATRIX::operator*
; Line 923
  00b0b	8b 4d f8	 mov	 ecx, DWORD PTR _this$[ebp]
  00b0e	81 c1 64 05 00
	00		 add	 ecx, 1380		; 00000564H
  00b14	0f 28 85 00 f6
	ff ff		 movaps	 xmm0, XMMWORD PTR _mWorld$[ebp]
  00b1b	0f 28 8d 10 f6
	ff ff		 movaps	 xmm1, XMMWORD PTR _mWorld$[ebp+16]
  00b22	0f 28 95 20 f6
	ff ff		 movaps	 xmm2, XMMWORD PTR _mWorld$[ebp+32]
  00b29	0f 28 9d 30 f6
	ff ff		 movaps	 xmm3, XMMWORD PTR _mWorld$[ebp+48]
  00b30	e8 00 00 00 00	 call	 ?XMStoreFloat4x4@DirectX@@YQXPAUXMFLOAT4X4@1@UXMMATRIX@1@@Z ; DirectX::XMStoreFloat4x4
$LN6@FrameMove:
; Line 924
  00b35	52		 push	 edx
  00b36	8b cd		 mov	 ecx, ebp
  00b38	50		 push	 eax
  00b39	8d 15 00 00 00
	00		 lea	 edx, DWORD PTR $LN24@FrameMove
  00b3f	e8 00 00 00 00	 call	 @_RTC_CheckStackVars@8
  00b44	58		 pop	 eax
  00b45	5a		 pop	 edx
  00b46	5f		 pop	 edi
  00b47	5e		 pop	 esi
  00b48	8b 4d fc	 mov	 ecx, DWORD PTR __$ArrayPad$[ebp]
  00b4b	33 cd		 xor	 ecx, ebp
  00b4d	e8 00 00 00 00	 call	 @__security_check_cookie@4
  00b52	8b e5		 mov	 esp, ebp
  00b54	5d		 pop	 ebp
  00b55	8b e3		 mov	 esp, ebx
  00b57	5b		 pop	 ebx
  00b58	c2 04 00	 ret	 4
  00b5b	90		 npad	 1
$LN24@FrameMove:
  00b5c	0d 00 00 00	 DD	 13			; 0000000dH
  00b60	00 00 00 00	 DD	 $LN23@FrameMove
$LN23@FrameMove:
  00b64	70 ff ff ff	 DD	 -144			; ffffff70H
  00b68	40 00 00 00	 DD	 64			; 00000040H
  00b6c	00 00 00 00	 DD	 $LN10@FrameMove
  00b70	40 fe ff ff	 DD	 -448			; fffffe40H
  00b74	10 00 00 00	 DD	 16			; 00000010H
  00b78	00 00 00 00	 DD	 $LN11@FrameMove
  00b7c	90 fd ff ff	 DD	 -624			; fffffd90H
  00b80	40 00 00 00	 DD	 64			; 00000040H
  00b84	00 00 00 00	 DD	 $LN12@FrameMove
  00b88	f0 fc ff ff	 DD	 -784			; fffffcf0H
  00b8c	40 00 00 00	 DD	 64			; 00000040H
  00b90	00 00 00 00	 DD	 $LN13@FrameMove
  00b94	20 fc ff ff	 DD	 -992			; fffffc20H
  00b98	40 00 00 00	 DD	 64			; 00000040H
  00b9c	00 00 00 00	 DD	 $LN14@FrameMove
  00ba0	80 fb ff ff	 DD	 -1152			; fffffb80H
  00ba4	40 00 00 00	 DD	 64			; 00000040H
  00ba8	00 00 00 00	 DD	 $LN15@FrameMove
  00bac	e0 fa ff ff	 DD	 -1312			; fffffae0H
  00bb0	40 00 00 00	 DD	 64			; 00000040H
  00bb4	00 00 00 00	 DD	 $LN16@FrameMove
  00bb8	90 fa ff ff	 DD	 -1392			; fffffa90H
  00bbc	40 00 00 00	 DD	 64			; 00000040H
  00bc0	00 00 00 00	 DD	 $LN17@FrameMove
  00bc4	30 f9 ff ff	 DD	 -1744			; fffff930H
  00bc8	40 00 00 00	 DD	 64			; 00000040H
  00bcc	00 00 00 00	 DD	 $LN18@FrameMove
  00bd0	90 f8 ff ff	 DD	 -1904			; fffff890H
  00bd4	40 00 00 00	 DD	 64			; 00000040H
  00bd8	00 00 00 00	 DD	 $LN19@FrameMove
  00bdc	f0 f7 ff ff	 DD	 -2064			; fffff7f0H
  00be0	40 00 00 00	 DD	 64			; 00000040H
  00be4	00 00 00 00	 DD	 $LN20@FrameMove
  00be8	a0 f6 ff ff	 DD	 -2400			; fffff6a0H
  00bec	40 00 00 00	 DD	 64			; 00000040H
  00bf0	00 00 00 00	 DD	 $LN21@FrameMove
  00bf4	00 f6 ff ff	 DD	 -2560			; fffff600H
  00bf8	40 00 00 00	 DD	 64			; 00000040H
  00bfc	00 00 00 00	 DD	 $LN22@FrameMove
$LN22@FrameMove:
  00c00	6d		 DB	 109			; 0000006dH
  00c01	57		 DB	 87			; 00000057H
  00c02	6f		 DB	 111			; 0000006fH
  00c03	72		 DB	 114			; 00000072H
  00c04	6c		 DB	 108			; 0000006cH
  00c05	64		 DB	 100			; 00000064H
  00c06	00		 DB	 0
$LN21@FrameMove:
  00c07	6d		 DB	 109			; 0000006dH
  00c08	54		 DB	 84			; 00000054H
  00c09	72		 DB	 114			; 00000072H
  00c0a	61		 DB	 97			; 00000061H
  00c0b	6e		 DB	 110			; 0000006eH
  00c0c	73		 DB	 115			; 00000073H
  00c0d	00		 DB	 0
$LN20@FrameMove:
  00c0e	6d		 DB	 109			; 0000006dH
  00c0f	43		 DB	 67			; 00000043H
  00c10	61		 DB	 97			; 00000061H
  00c11	6d		 DB	 109			; 0000006dH
  00c12	65		 DB	 101			; 00000065H
  00c13	72		 DB	 114			; 00000072H
  00c14	61		 DB	 97			; 00000061H
  00c15	52		 DB	 82			; 00000052H
  00c16	6f		 DB	 111			; 0000006fH
  00c17	74		 DB	 116			; 00000074H
  00c18	44		 DB	 68			; 00000044H
  00c19	65		 DB	 101			; 00000065H
  00c1a	6c		 DB	 108			; 0000006cH
  00c1b	74		 DB	 116			; 00000074H
  00c1c	61		 DB	 97			; 00000061H
  00c1d	00		 DB	 0
$LN19@FrameMove:
  00c1e	6d		 DB	 109			; 0000006dH
  00c1f	43		 DB	 67			; 00000043H
  00c20	61		 DB	 97			; 00000061H
  00c21	6d		 DB	 109			; 0000006dH
  00c22	65		 DB	 101			; 00000065H
  00c23	72		 DB	 114			; 00000072H
  00c24	61		 DB	 97			; 00000061H
  00c25	4c		 DB	 76			; 0000004cH
  00c26	61		 DB	 97			; 00000061H
  00c27	73		 DB	 115			; 00000073H
  00c28	74		 DB	 116			; 00000074H
  00c29	52		 DB	 82			; 00000052H
  00c2a	6f		 DB	 111			; 0000006fH
  00c2b	74		 DB	 116			; 00000074H
  00c2c	49		 DB	 73			; 00000049H
  00c2d	6e		 DB	 110			; 0000006eH
  00c2e	76		 DB	 118			; 00000076H
  00c2f	00		 DB	 0
$LN18@FrameMove:
  00c30	6d		 DB	 109			; 0000006dH
  00c31	43		 DB	 67			; 00000043H
  00c32	61		 DB	 97			; 00000061H
  00c33	6d		 DB	 109			; 0000006dH
  00c34	65		 DB	 101			; 00000065H
  00c35	72		 DB	 114			; 00000072H
  00c36	61		 DB	 97			; 00000061H
  00c37	52		 DB	 82			; 00000052H
  00c38	6f		 DB	 111			; 0000006fH
  00c39	74		 DB	 116			; 00000074H
  00c3a	4c		 DB	 76			; 0000004cH
  00c3b	61		 DB	 97			; 00000061H
  00c3c	73		 DB	 115			; 00000073H
  00c3d	74		 DB	 116			; 00000074H
  00c3e	00		 DB	 0
$LN17@FrameMove:
  00c3f	6d		 DB	 109			; 0000006dH
  00c40	4d		 DB	 77			; 0000004dH
  00c41	6f		 DB	 111			; 0000006fH
  00c42	64		 DB	 100			; 00000064H
  00c43	65		 DB	 101			; 00000065H
  00c44	6c		 DB	 108			; 0000006cH
  00c45	52		 DB	 82			; 00000052H
  00c46	6f		 DB	 111			; 0000006fH
  00c47	74		 DB	 116			; 00000074H
  00c48	00		 DB	 0
$LN16@FrameMove:
  00c49	6d		 DB	 109			; 0000006dH
  00c4a	4d		 DB	 77			; 0000004dH
  00c4b	6f		 DB	 111			; 0000006fH
  00c4c	64		 DB	 100			; 00000064H
  00c4d	65		 DB	 101			; 00000065H
  00c4e	6c		 DB	 108			; 0000006cH
  00c4f	52		 DB	 82			; 00000052H
  00c50	6f		 DB	 111			; 0000006fH
  00c51	74		 DB	 116			; 00000074H
  00c52	30		 DB	 48			; 00000030H
  00c53	00		 DB	 0
$LN15@FrameMove:
  00c54	6d		 DB	 109			; 0000006dH
  00c55	4d		 DB	 77			; 0000004dH
  00c56	6f		 DB	 111			; 0000006fH
  00c57	64		 DB	 100			; 00000064H
  00c58	65		 DB	 101			; 00000065H
  00c59	6c		 DB	 108			; 0000006cH
  00c5a	4c		 DB	 76			; 0000004cH
  00c5b	61		 DB	 97			; 00000061H
  00c5c	73		 DB	 115			; 00000073H
  00c5d	74		 DB	 116			; 00000074H
  00c5e	52		 DB	 82			; 00000052H
  00c5f	6f		 DB	 111			; 0000006fH
  00c60	74		 DB	 116			; 00000074H
  00c61	49		 DB	 73			; 00000049H
  00c62	6e		 DB	 110			; 0000006eH
  00c63	76		 DB	 118			; 00000076H
  00c64	00		 DB	 0
$LN14@FrameMove:
  00c65	6d		 DB	 109			; 0000006dH
  00c66	4d		 DB	 77			; 0000004dH
  00c67	6f		 DB	 111			; 0000006fH
  00c68	64		 DB	 100			; 00000064H
  00c69	65		 DB	 101			; 00000065H
  00c6a	6c		 DB	 108			; 0000006cH
  00c6b	4c		 DB	 76			; 0000004cH
  00c6c	61		 DB	 97			; 00000061H
  00c6d	73		 DB	 115			; 00000073H
  00c6e	74		 DB	 116			; 00000074H
  00c6f	52		 DB	 82			; 00000052H
  00c70	6f		 DB	 111			; 0000006fH
  00c71	74		 DB	 116			; 00000074H
  00c72	00		 DB	 0
$LN13@FrameMove:
  00c73	6d		 DB	 109			; 0000006dH
  00c74	49		 DB	 73			; 00000049H
  00c75	6e		 DB	 110			; 0000006eH
  00c76	76		 DB	 118			; 00000076H
  00c77	56		 DB	 86			; 00000056H
  00c78	69		 DB	 105			; 00000069H
  00c79	65		 DB	 101			; 00000065H
  00c7a	77		 DB	 119			; 00000077H
  00c7b	00		 DB	 0
$LN12@FrameMove:
  00c7c	6d		 DB	 109			; 0000006dH
  00c7d	56		 DB	 86			; 00000056H
  00c7e	69		 DB	 105			; 00000069H
  00c7f	65		 DB	 101			; 00000065H
  00c80	77		 DB	 119			; 00000077H
  00c81	00		 DB	 0
$LN11@FrameMove:
  00c82	76		 DB	 118			; 00000076H
  00c83	4c		 DB	 76			; 0000004cH
  00c84	6f		 DB	 111			; 0000006fH
  00c85	6f		 DB	 111			; 0000006fH
  00c86	6b		 DB	 107			; 0000006bH
  00c87	41		 DB	 65			; 00000041H
  00c88	74		 DB	 116			; 00000074H
  00c89	00		 DB	 0
$LN10@FrameMove:
  00c8a	6d		 DB	 109			; 0000006dH
  00c8b	43		 DB	 67			; 00000043H
  00c8c	61		 DB	 97			; 00000061H
  00c8d	6d		 DB	 109			; 0000006dH
  00c8e	65		 DB	 101			; 00000065H
  00c8f	72		 DB	 114			; 00000072H
  00c90	61		 DB	 97			; 00000061H
  00c91	52		 DB	 82			; 00000052H
  00c92	6f		 DB	 111			; 0000006fH
  00c93	74		 DB	 116			; 00000074H
  00c94	00		 DB	 0
?FrameMove@CModelViewerCamera@@UAEXM@Z ENDP		; CModelViewerCamera::FrameMove
_TEXT	ENDS
; Function compile flags: /Odtp /RTCsu
_TEXT	SEGMENT
_iMouseY$1 = -28					; size = 4
_iMouseX$2 = -24					; size = 4
_iMouseY$3 = -20					; size = 4
_iMouseX$4 = -16					; size = 4
_iMouseY$5 = -12					; size = 4
_iMouseX$6 = -8						; size = 4
_this$ = -4						; size = 4
_hWnd$ = 8						; size = 4
_uMsg$ = 12						; size = 4
_wParam$ = 16						; size = 4
_lParam$ = 20						; size = 4
?HandleMessages@CModelViewerCamera@@UAEJPAUHWND__@@IIJ@Z PROC ; CModelViewerCamera::HandleMessages
; _this$ = ecx
; File d:\engine class\assignment 1\new scratch\dxut\optional\dxutcamera.cpp
; Line 986
  00000	55		 push	 ebp
  00001	8b ec		 mov	 ebp, esp
  00003	83 ec 1c	 sub	 esp, 28			; 0000001cH
  00006	b8 cc cc cc cc	 mov	 eax, -858993460		; ccccccccH
  0000b	89 45 e4	 mov	 DWORD PTR [ebp-28], eax
  0000e	89 45 e8	 mov	 DWORD PTR [ebp-24], eax
  00011	89 45 ec	 mov	 DWORD PTR [ebp-20], eax
  00014	89 45 f0	 mov	 DWORD PTR [ebp-16], eax
  00017	89 45 f4	 mov	 DWORD PTR [ebp-12], eax
  0001a	89 45 f8	 mov	 DWORD PTR [ebp-8], eax
  0001d	89 45 fc	 mov	 DWORD PTR [ebp-4], eax
  00020	89 4d fc	 mov	 DWORD PTR _this$[ebp], ecx
; Line 987
  00023	8b 45 14	 mov	 eax, DWORD PTR _lParam$[ebp]
  00026	50		 push	 eax
  00027	8b 4d 10	 mov	 ecx, DWORD PTR _wParam$[ebp]
  0002a	51		 push	 ecx
  0002b	8b 55 0c	 mov	 edx, DWORD PTR _uMsg$[ebp]
  0002e	52		 push	 edx
  0002f	8b 45 08	 mov	 eax, DWORD PTR _hWnd$[ebp]
  00032	50		 push	 eax
  00033	8b 4d fc	 mov	 ecx, DWORD PTR _this$[ebp]
  00036	e8 00 00 00 00	 call	 ?HandleMessages@CBaseCamera@@UAEJPAUHWND__@@IIJ@Z ; CBaseCamera::HandleMessages
; Line 991
  0003b	81 7d 0c 01 02
	00 00		 cmp	 DWORD PTR _uMsg$[ebp], 513 ; 00000201H
  00042	74 09		 je	 SHORT $LN28@HandleMess
  00044	81 7d 0c 03 02
	00 00		 cmp	 DWORD PTR _uMsg$[ebp], 515 ; 00000203H
  0004b	75 0e		 jne	 SHORT $LN29@HandleMess
$LN28@HandleMess:
  0004d	8b 4d fc	 mov	 ecx, DWORD PTR _this$[ebp]
  00050	8b 91 a4 05 00
	00		 mov	 edx, DWORD PTR [ecx+1444]
  00056	83 e2 01	 and	 edx, 1
  00059	75 40		 jne	 SHORT $LN30@HandleMess
$LN29@HandleMess:
  0005b	81 7d 0c 07 02
	00 00		 cmp	 DWORD PTR _uMsg$[ebp], 519 ; 00000207H
  00062	74 09		 je	 SHORT $LN26@HandleMess
  00064	81 7d 0c 09 02
	00 00		 cmp	 DWORD PTR _uMsg$[ebp], 521 ; 00000209H
  0006b	75 0e		 jne	 SHORT $LN27@HandleMess
$LN26@HandleMess:
  0006d	8b 45 fc	 mov	 eax, DWORD PTR _this$[ebp]
  00070	8b 88 a4 05 00
	00		 mov	 ecx, DWORD PTR [eax+1444]
  00076	83 e1 02	 and	 ecx, 2
  00079	75 20		 jne	 SHORT $LN30@HandleMess
$LN27@HandleMess:
  0007b	81 7d 0c 04 02
	00 00		 cmp	 DWORD PTR _uMsg$[ebp], 516 ; 00000204H
  00082	74 09		 je	 SHORT $LN25@HandleMess
  00084	81 7d 0c 06 02
	00 00		 cmp	 DWORD PTR _uMsg$[ebp], 518 ; 00000206H
  0008b	75 44		 jne	 SHORT $LN31@HandleMess
$LN25@HandleMess:
  0008d	8b 55 fc	 mov	 edx, DWORD PTR _this$[ebp]
  00090	8b 82 a4 05 00
	00		 mov	 eax, DWORD PTR [edx+1444]
  00096	83 e0 04	 and	 eax, 4
  00099	74 36		 je	 SHORT $LN31@HandleMess
$LN30@HandleMess:
; Line 993
  0009b	8b 4d 14	 mov	 ecx, DWORD PTR _lParam$[ebp]
  0009e	81 e1 ff ff 00
	00		 and	 ecx, 65535		; 0000ffffH
  000a4	0f bf d1	 movsx	 edx, cx
  000a7	89 55 f8	 mov	 DWORD PTR _iMouseX$6[ebp], edx
; Line 994
  000aa	8b 45 14	 mov	 eax, DWORD PTR _lParam$[ebp]
  000ad	c1 e8 10	 shr	 eax, 16			; 00000010H
  000b0	25 ff ff 00 00	 and	 eax, 65535		; 0000ffffH
  000b5	0f bf c8	 movsx	 ecx, ax
  000b8	89 4d f4	 mov	 DWORD PTR _iMouseY$5[ebp], ecx
; Line 995
  000bb	8b 55 f4	 mov	 edx, DWORD PTR _iMouseY$5[ebp]
  000be	52		 push	 edx
  000bf	8b 45 f8	 mov	 eax, DWORD PTR _iMouseX$6[ebp]
  000c2	50		 push	 eax
  000c3	8b 4d fc	 mov	 ecx, DWORD PTR _this$[ebp]
  000c6	81 c1 90 02 00
	00		 add	 ecx, 656		; 00000290H
  000cc	e8 00 00 00 00	 call	 ?OnBegin@CD3DArcBall@@QAEXHH@Z ; CD3DArcBall::OnBegin
$LN31@HandleMess:
; Line 1001
  000d1	81 7d 0c 01 02
	00 00		 cmp	 DWORD PTR _uMsg$[ebp], 513 ; 00000201H
  000d8	74 09		 je	 SHORT $LN21@HandleMess
  000da	81 7d 0c 03 02
	00 00		 cmp	 DWORD PTR _uMsg$[ebp], 515 ; 00000203H
  000e1	75 0e		 jne	 SHORT $LN22@HandleMess
$LN21@HandleMess:
  000e3	8b 4d fc	 mov	 ecx, DWORD PTR _this$[ebp]
  000e6	8b 91 ac 05 00
	00		 mov	 edx, DWORD PTR [ecx+1452]
  000ec	83 e2 01	 and	 edx, 1
  000ef	75 40		 jne	 SHORT $LN23@HandleMess
$LN22@HandleMess:
  000f1	81 7d 0c 07 02
	00 00		 cmp	 DWORD PTR _uMsg$[ebp], 519 ; 00000207H
  000f8	74 09		 je	 SHORT $LN19@HandleMess
  000fa	81 7d 0c 09 02
	00 00		 cmp	 DWORD PTR _uMsg$[ebp], 521 ; 00000209H
  00101	75 0e		 jne	 SHORT $LN20@HandleMess
$LN19@HandleMess:
  00103	8b 45 fc	 mov	 eax, DWORD PTR _this$[ebp]
  00106	8b 88 ac 05 00
	00		 mov	 ecx, DWORD PTR [eax+1452]
  0010c	83 e1 02	 and	 ecx, 2
  0010f	75 20		 jne	 SHORT $LN23@HandleMess
$LN20@HandleMess:
  00111	81 7d 0c 04 02
	00 00		 cmp	 DWORD PTR _uMsg$[ebp], 516 ; 00000204H
  00118	74 09		 je	 SHORT $LN18@HandleMess
  0011a	81 7d 0c 06 02
	00 00		 cmp	 DWORD PTR _uMsg$[ebp], 518 ; 00000206H
  00121	75 44		 jne	 SHORT $LN24@HandleMess
$LN18@HandleMess:
  00123	8b 55 fc	 mov	 edx, DWORD PTR _this$[ebp]
  00126	8b 82 ac 05 00
	00		 mov	 eax, DWORD PTR [edx+1452]
  0012c	83 e0 04	 and	 eax, 4
  0012f	74 36		 je	 SHORT $LN24@HandleMess
$LN23@HandleMess:
; Line 1003
  00131	8b 4d 14	 mov	 ecx, DWORD PTR _lParam$[ebp]
  00134	81 e1 ff ff 00
	00		 and	 ecx, 65535		; 0000ffffH
  0013a	0f bf d1	 movsx	 edx, cx
  0013d	89 55 f0	 mov	 DWORD PTR _iMouseX$4[ebp], edx
; Line 1004
  00140	8b 45 14	 mov	 eax, DWORD PTR _lParam$[ebp]
  00143	c1 e8 10	 shr	 eax, 16			; 00000010H
  00146	25 ff ff 00 00	 and	 eax, 65535		; 0000ffffH
  0014b	0f bf c8	 movsx	 ecx, ax
  0014e	89 4d ec	 mov	 DWORD PTR _iMouseY$3[ebp], ecx
; Line 1005
  00151	8b 55 ec	 mov	 edx, DWORD PTR _iMouseY$3[ebp]
  00154	52		 push	 edx
  00155	8b 45 f0	 mov	 eax, DWORD PTR _iMouseX$4[ebp]
  00158	50		 push	 eax
  00159	8b 4d fc	 mov	 ecx, DWORD PTR _this$[ebp]
  0015c	81 c1 b4 03 00
	00		 add	 ecx, 948		; 000003b4H
  00162	e8 00 00 00 00	 call	 ?OnBegin@CD3DArcBall@@QAEXHH@Z ; CD3DArcBall::OnBegin
$LN24@HandleMess:
; Line 1008
  00167	81 7d 0c 00 02
	00 00		 cmp	 DWORD PTR _uMsg$[ebp], 512 ; 00000200H
  0016e	75 4c		 jne	 SHORT $LN17@HandleMess
; Line 1010
  00170	8b 4d 14	 mov	 ecx, DWORD PTR _lParam$[ebp]
  00173	81 e1 ff ff 00
	00		 and	 ecx, 65535		; 0000ffffH
  00179	0f bf d1	 movsx	 edx, cx
  0017c	89 55 e8	 mov	 DWORD PTR _iMouseX$2[ebp], edx
; Line 1011
  0017f	8b 45 14	 mov	 eax, DWORD PTR _lParam$[ebp]
  00182	c1 e8 10	 shr	 eax, 16			; 00000010H
  00185	25 ff ff 00 00	 and	 eax, 65535		; 0000ffffH
  0018a	0f bf c8	 movsx	 ecx, ax
  0018d	89 4d e4	 mov	 DWORD PTR _iMouseY$1[ebp], ecx
; Line 1012
  00190	8b 55 e4	 mov	 edx, DWORD PTR _iMouseY$1[ebp]
  00193	52		 push	 edx
  00194	8b 45 e8	 mov	 eax, DWORD PTR _iMouseX$2[ebp]
  00197	50		 push	 eax
  00198	8b 4d fc	 mov	 ecx, DWORD PTR _this$[ebp]
  0019b	81 c1 90 02 00
	00		 add	 ecx, 656		; 00000290H
  001a1	e8 00 00 00 00	 call	 ?OnMove@CD3DArcBall@@QAEXHH@Z ; CD3DArcBall::OnMove
; Line 1013
  001a6	8b 4d e4	 mov	 ecx, DWORD PTR _iMouseY$1[ebp]
  001a9	51		 push	 ecx
  001aa	8b 55 e8	 mov	 edx, DWORD PTR _iMouseX$2[ebp]
  001ad	52		 push	 edx
  001ae	8b 4d fc	 mov	 ecx, DWORD PTR _this$[ebp]
  001b1	81 c1 b4 03 00
	00		 add	 ecx, 948		; 000003b4H
  001b7	e8 00 00 00 00	 call	 ?OnMove@CD3DArcBall@@QAEXHH@Z ; CD3DArcBall::OnMove
$LN17@HandleMess:
; Line 1018
  001bc	81 7d 0c 02 02
	00 00		 cmp	 DWORD PTR _uMsg$[ebp], 514 ; 00000202H
  001c3	75 0e		 jne	 SHORT $LN14@HandleMess
  001c5	8b 45 fc	 mov	 eax, DWORD PTR _this$[ebp]
  001c8	8b 88 a4 05 00
	00		 mov	 ecx, DWORD PTR [eax+1444]
  001ce	83 e1 01	 and	 ecx, 1
  001d1	75 2e		 jne	 SHORT $LN15@HandleMess
$LN14@HandleMess:
  001d3	81 7d 0c 08 02
	00 00		 cmp	 DWORD PTR _uMsg$[ebp], 520 ; 00000208H
  001da	75 0e		 jne	 SHORT $LN13@HandleMess
  001dc	8b 55 fc	 mov	 edx, DWORD PTR _this$[ebp]
  001df	8b 82 a4 05 00
	00		 mov	 eax, DWORD PTR [edx+1444]
  001e5	83 e0 02	 and	 eax, 2
  001e8	75 17		 jne	 SHORT $LN15@HandleMess
$LN13@HandleMess:
  001ea	81 7d 0c 05 02
	00 00		 cmp	 DWORD PTR _uMsg$[ebp], 517 ; 00000205H
  001f1	75 1c		 jne	 SHORT $LN16@HandleMess
  001f3	8b 4d fc	 mov	 ecx, DWORD PTR _this$[ebp]
  001f6	8b 91 a4 05 00
	00		 mov	 edx, DWORD PTR [ecx+1444]
  001fc	83 e2 04	 and	 edx, 4
  001ff	74 0e		 je	 SHORT $LN16@HandleMess
$LN15@HandleMess:
; Line 1020
  00201	8b 4d fc	 mov	 ecx, DWORD PTR _this$[ebp]
  00204	81 c1 90 02 00
	00		 add	 ecx, 656		; 00000290H
  0020a	e8 00 00 00 00	 call	 ?OnEnd@CD3DArcBall@@QAEXXZ ; CD3DArcBall::OnEnd
$LN16@HandleMess:
; Line 1025
  0020f	81 7d 0c 02 02
	00 00		 cmp	 DWORD PTR _uMsg$[ebp], 514 ; 00000202H
  00216	75 0e		 jne	 SHORT $LN10@HandleMess
  00218	8b 45 fc	 mov	 eax, DWORD PTR _this$[ebp]
  0021b	8b 88 ac 05 00
	00		 mov	 ecx, DWORD PTR [eax+1452]
  00221	83 e1 01	 and	 ecx, 1
  00224	75 2e		 jne	 SHORT $LN11@HandleMess
$LN10@HandleMess:
  00226	81 7d 0c 08 02
	00 00		 cmp	 DWORD PTR _uMsg$[ebp], 520 ; 00000208H
  0022d	75 0e		 jne	 SHORT $LN9@HandleMess
  0022f	8b 55 fc	 mov	 edx, DWORD PTR _this$[ebp]
  00232	8b 82 ac 05 00
	00		 mov	 eax, DWORD PTR [edx+1452]
  00238	83 e0 02	 and	 eax, 2
  0023b	75 17		 jne	 SHORT $LN11@HandleMess
$LN9@HandleMess:
  0023d	81 7d 0c 05 02
	00 00		 cmp	 DWORD PTR _uMsg$[ebp], 517 ; 00000205H
  00244	75 1c		 jne	 SHORT $LN12@HandleMess
  00246	8b 4d fc	 mov	 ecx, DWORD PTR _this$[ebp]
  00249	8b 91 ac 05 00
	00		 mov	 edx, DWORD PTR [ecx+1452]
  0024f	83 e2 04	 and	 edx, 4
  00252	74 0e		 je	 SHORT $LN12@HandleMess
$LN11@HandleMess:
; Line 1027
  00254	8b 4d fc	 mov	 ecx, DWORD PTR _this$[ebp]
  00257	81 c1 b4 03 00
	00		 add	 ecx, 948		; 000003b4H
  0025d	e8 00 00 00 00	 call	 ?OnEnd@CD3DArcBall@@QAEXXZ ; CD3DArcBall::OnEnd
$LN12@HandleMess:
; Line 1030
  00262	81 7d 0c 15 02
	00 00		 cmp	 DWORD PTR _uMsg$[ebp], 533 ; 00000215H
  00269	75 78		 jne	 SHORT $LN8@HandleMess
; Line 1032
  0026b	8b 45 14	 mov	 eax, DWORD PTR _lParam$[ebp]
  0026e	3b 45 08	 cmp	 eax, DWORD PTR _hWnd$[ebp]
  00271	74 70		 je	 SHORT $LN8@HandleMess
; Line 1036
  00273	8b 4d fc	 mov	 ecx, DWORD PTR _this$[ebp]
  00276	8b 91 a4 05 00
	00		 mov	 edx, DWORD PTR [ecx+1444]
  0027c	83 e2 01	 and	 edx, 1
  0027f	75 1c		 jne	 SHORT $LN5@HandleMess
  00281	8b 45 fc	 mov	 eax, DWORD PTR _this$[ebp]
  00284	8b 88 a4 05 00
	00		 mov	 ecx, DWORD PTR [eax+1444]
  0028a	83 e1 02	 and	 ecx, 2
  0028d	75 0e		 jne	 SHORT $LN5@HandleMess
  0028f	8b 55 fc	 mov	 edx, DWORD PTR _this$[ebp]
  00292	8b 82 a4 05 00
	00		 mov	 eax, DWORD PTR [edx+1444]
  00298	83 e0 04	 and	 eax, 4
  0029b	74 0e		 je	 SHORT $LN6@HandleMess
$LN5@HandleMess:
; Line 1038
  0029d	8b 4d fc	 mov	 ecx, DWORD PTR _this$[ebp]
  002a0	81 c1 90 02 00
	00		 add	 ecx, 656		; 00000290H
  002a6	e8 00 00 00 00	 call	 ?OnEnd@CD3DArcBall@@QAEXXZ ; CD3DArcBall::OnEnd
$LN6@HandleMess:
; Line 1043
  002ab	8b 4d fc	 mov	 ecx, DWORD PTR _this$[ebp]
  002ae	8b 91 ac 05 00
	00		 mov	 edx, DWORD PTR [ecx+1452]
  002b4	83 e2 01	 and	 edx, 1
  002b7	75 1c		 jne	 SHORT $LN3@HandleMess
  002b9	8b 45 fc	 mov	 eax, DWORD PTR _this$[ebp]
  002bc	8b 88 ac 05 00
	00		 mov	 ecx, DWORD PTR [eax+1452]
  002c2	83 e1 02	 and	 ecx, 2
  002c5	75 0e		 jne	 SHORT $LN3@HandleMess
  002c7	8b 55 fc	 mov	 edx, DWORD PTR _this$[ebp]
  002ca	8b 82 ac 05 00
	00		 mov	 eax, DWORD PTR [edx+1452]
  002d0	83 e0 04	 and	 eax, 4
  002d3	74 0e		 je	 SHORT $LN8@HandleMess
$LN3@HandleMess:
; Line 1045
  002d5	8b 4d fc	 mov	 ecx, DWORD PTR _this$[ebp]
  002d8	81 c1 b4 03 00
	00		 add	 ecx, 948		; 000003b4H
  002de	e8 00 00 00 00	 call	 ?OnEnd@CD3DArcBall@@QAEXXZ ; CD3DArcBall::OnEnd
$LN8@HandleMess:
; Line 1060
  002e3	81 7d 0c 01 02
	00 00		 cmp	 DWORD PTR _uMsg$[ebp], 513 ; 00000201H
  002ea	74 5a		 je	 SHORT $LN1@HandleMess
  002ec	81 7d 0c 03 02
	00 00		 cmp	 DWORD PTR _uMsg$[ebp], 515 ; 00000203H
  002f3	74 51		 je	 SHORT $LN1@HandleMess
  002f5	81 7d 0c 07 02
	00 00		 cmp	 DWORD PTR _uMsg$[ebp], 519 ; 00000207H
  002fc	74 48		 je	 SHORT $LN1@HandleMess
  002fe	81 7d 0c 09 02
	00 00		 cmp	 DWORD PTR _uMsg$[ebp], 521 ; 00000209H
  00305	74 3f		 je	 SHORT $LN1@HandleMess
  00307	81 7d 0c 04 02
	00 00		 cmp	 DWORD PTR _uMsg$[ebp], 516 ; 00000204H
  0030e	74 36		 je	 SHORT $LN1@HandleMess
  00310	81 7d 0c 06 02
	00 00		 cmp	 DWORD PTR _uMsg$[ebp], 518 ; 00000206H
  00317	74 2d		 je	 SHORT $LN1@HandleMess
  00319	81 7d 0c 02 02
	00 00		 cmp	 DWORD PTR _uMsg$[ebp], 514 ; 00000202H
  00320	74 24		 je	 SHORT $LN1@HandleMess
  00322	81 7d 0c 08 02
	00 00		 cmp	 DWORD PTR _uMsg$[ebp], 520 ; 00000208H
  00329	74 1b		 je	 SHORT $LN1@HandleMess
  0032b	81 7d 0c 05 02
	00 00		 cmp	 DWORD PTR _uMsg$[ebp], 517 ; 00000205H
  00332	74 12		 je	 SHORT $LN1@HandleMess
  00334	81 7d 0c 0a 02
	00 00		 cmp	 DWORD PTR _uMsg$[ebp], 522 ; 0000020aH
  0033b	74 09		 je	 SHORT $LN1@HandleMess
  0033d	81 7d 0c 00 02
	00 00		 cmp	 DWORD PTR _uMsg$[ebp], 512 ; 00000200H
  00344	75 0a		 jne	 SHORT $LN2@HandleMess
$LN1@HandleMess:
; Line 1062
  00346	8b 4d fc	 mov	 ecx, DWORD PTR _this$[ebp]
  00349	c6 81 b2 05 00
	00 01		 mov	 BYTE PTR [ecx+1458], 1
$LN2@HandleMess:
; Line 1065
  00350	33 c0		 xor	 eax, eax
; Line 1066
  00352	83 c4 1c	 add	 esp, 28			; 0000001cH
  00355	3b ec		 cmp	 ebp, esp
  00357	e8 00 00 00 00	 call	 __RTC_CheckEsp
  0035c	8b e5		 mov	 esp, ebp
  0035e	5d		 pop	 ebp
  0035f	c2 10 00	 ret	 16			; 00000010H
?HandleMessages@CModelViewerCamera@@UAEJPAUHWND__@@IIJ@Z ENDP ; CModelViewerCamera::HandleMessages
_TEXT	ENDS
; Function compile flags: /Odtp /RTCsu
_TEXT	SEGMENT
$T1 = -240						; size = 64
$T2 = -172						; size = 12
$T3 = -160						; size = 64
_id$ = -80						; size = 64
_this$ = -8						; size = 4
__$ArrayPad$ = -4					; size = 4
??0CModelViewerCamera@@QAE@XZ PROC			; CModelViewerCamera::CModelViewerCamera
; _this$ = ecx
; File d:\engine class\assignment 1\new scratch\dxut\optional\dxutcamera.cpp
; Line 806
  00000	53		 push	 ebx
  00001	8b dc		 mov	 ebx, esp
  00003	83 ec 08	 sub	 esp, 8
  00006	83 e4 f0	 and	 esp, -16		; fffffff0H
  00009	83 c4 04	 add	 esp, 4
  0000c	55		 push	 ebp
  0000d	8b 6b 04	 mov	 ebp, DWORD PTR [ebx+4]
  00010	89 6c 24 04	 mov	 DWORD PTR [esp+4], ebp
  00014	8b ec		 mov	 ebp, esp
  00016	81 ec f8 00 00
	00		 sub	 esp, 248		; 000000f8H
  0001c	56		 push	 esi
  0001d	57		 push	 edi
  0001e	51		 push	 ecx
  0001f	8d bd 08 ff ff
	ff		 lea	 edi, DWORD PTR [ebp-248]
  00025	b9 3e 00 00 00	 mov	 ecx, 62			; 0000003eH
  0002a	b8 cc cc cc cc	 mov	 eax, -858993460		; ccccccccH
  0002f	f3 ab		 rep stosd
  00031	59		 pop	 ecx
  00032	a1 00 00 00 00	 mov	 eax, DWORD PTR ___security_cookie
  00037	33 c5		 xor	 eax, ebp
  00039	89 45 fc	 mov	 DWORD PTR __$ArrayPad$[ebp], eax
  0003c	89 4d f8	 mov	 DWORD PTR _this$[ebp], ecx
  0003f	8b 4d f8	 mov	 ecx, DWORD PTR _this$[ebp]
  00042	e8 00 00 00 00	 call	 ??0CBaseCamera@@QAE@XZ	; CBaseCamera::CBaseCamera
  00047	8b 45 f8	 mov	 eax, DWORD PTR _this$[ebp]
  0004a	c7 00 00 00 00
	00		 mov	 DWORD PTR [eax], OFFSET ??_7CModelViewerCamera@@6B@
  00050	8b 4d f8	 mov	 ecx, DWORD PTR _this$[ebp]
  00053	81 c1 90 02 00
	00		 add	 ecx, 656		; 00000290H
  00059	e8 00 00 00 00	 call	 ??0CD3DArcBall@@QAE@XZ	; CD3DArcBall::CD3DArcBall
  0005e	8b 4d f8	 mov	 ecx, DWORD PTR _this$[ebp]
  00061	81 c1 b4 03 00
	00		 add	 ecx, 948		; 000003b4H
  00067	e8 00 00 00 00	 call	 ??0CD3DArcBall@@QAE@XZ	; CD3DArcBall::CD3DArcBall
  0006c	8b 4d f8	 mov	 ecx, DWORD PTR _this$[ebp]
  0006f	81 c1 d8 04 00
	00		 add	 ecx, 1240		; 000004d8H
  00075	e8 00 00 00 00	 call	 ??0XMFLOAT3@DirectX@@QAE@XZ ; DirectX::XMFLOAT3::XMFLOAT3
  0007a	8b 4d f8	 mov	 ecx, DWORD PTR _this$[ebp]
  0007d	81 c1 e4 04 00
	00		 add	 ecx, 1252		; 000004e4H
  00083	e8 00 00 00 00	 call	 ??0XMFLOAT4X4@DirectX@@QAE@XZ ; DirectX::XMFLOAT4X4::XMFLOAT4X4
  00088	8b 4d f8	 mov	 ecx, DWORD PTR _this$[ebp]
  0008b	81 c1 24 05 00
	00		 add	 ecx, 1316		; 00000524H
  00091	e8 00 00 00 00	 call	 ??0XMFLOAT4X4@DirectX@@QAE@XZ ; DirectX::XMFLOAT4X4::XMFLOAT4X4
  00096	8b 4d f8	 mov	 ecx, DWORD PTR _this$[ebp]
  00099	81 c1 64 05 00
	00		 add	 ecx, 1380		; 00000564H
  0009f	e8 00 00 00 00	 call	 ??0XMFLOAT4X4@DirectX@@QAE@XZ ; DirectX::XMFLOAT4X4::XMFLOAT4X4
  000a4	8b 4d f8	 mov	 ecx, DWORD PTR _this$[ebp]
  000a7	c7 81 a4 05 00
	00 01 00 00 00	 mov	 DWORD PTR [ecx+1444], 1
  000b1	8b 55 f8	 mov	 edx, DWORD PTR _this$[ebp]
  000b4	c7 82 a8 05 00
	00 08 00 00 00	 mov	 DWORD PTR [edx+1448], 8
  000be	8b 45 f8	 mov	 eax, DWORD PTR _this$[ebp]
  000c1	c7 80 ac 05 00
	00 04 00 00 00	 mov	 DWORD PTR [eax+1452], 4
  000cb	8b 4d f8	 mov	 ecx, DWORD PTR _this$[ebp]
  000ce	c6 81 b0 05 00
	00 00		 mov	 BYTE PTR [ecx+1456], 0
  000d5	8b 55 f8	 mov	 edx, DWORD PTR _this$[ebp]
  000d8	c6 82 b1 05 00
	00 00		 mov	 BYTE PTR [edx+1457], 0
  000df	8b 45 f8	 mov	 eax, DWORD PTR _this$[ebp]
  000e2	c6 80 b2 05 00
	00 01		 mov	 BYTE PTR [eax+1458], 1
  000e9	8b 4d f8	 mov	 ecx, DWORD PTR _this$[ebp]
  000ec	f3 0f 10 05 00
	00 00 00	 movss	 xmm0, DWORD PTR __real@40a00000
  000f4	f3 0f 11 81 b4
	05 00 00	 movss	 DWORD PTR [ecx+1460], xmm0
  000fc	8b 55 f8	 mov	 edx, DWORD PTR _this$[ebp]
  000ff	f3 0f 10 05 00
	00 00 00	 movss	 xmm0, DWORD PTR __real@40a00000
  00107	f3 0f 11 82 b8
	05 00 00	 movss	 DWORD PTR [edx+1464], xmm0
  0010f	8b 45 f8	 mov	 eax, DWORD PTR _this$[ebp]
  00112	f3 0f 10 05 00
	00 00 00	 movss	 xmm0, DWORD PTR __real@3f800000
  0011a	f3 0f 11 80 bc
	05 00 00	 movss	 DWORD PTR [eax+1468], xmm0
  00122	8b 4d f8	 mov	 ecx, DWORD PTR _this$[ebp]
  00125	f3 0f 10 05 00
	00 00 00	 movss	 xmm0, DWORD PTR __real@7f7fffff
  0012d	f3 0f 11 81 c0
	05 00 00	 movss	 DWORD PTR [ecx+1472], xmm0
  00135	8b 4d f8	 mov	 ecx, DWORD PTR _this$[ebp]
  00138	81 c1 c4 05 00
	00		 add	 ecx, 1476		; 000005c4H
  0013e	e8 00 00 00 00	 call	 ??0XMFLOAT4X4@DirectX@@QAE@XZ ; DirectX::XMFLOAT4X4::XMFLOAT4X4
; Line 807
  00143	e8 00 00 00 00	 call	 ?XMMatrixIdentity@DirectX@@YQ?AUXMMATRIX@1@XZ ; DirectX::XMMatrixIdentity
  00148	0f 29 9d 40 ff
	ff ff		 movaps	 XMMWORD PTR $T1[ebp+48], xmm3
  0014f	0f 29 95 30 ff
	ff ff		 movaps	 XMMWORD PTR $T1[ebp+32], xmm2
  00156	0f 29 8d 20 ff
	ff ff		 movaps	 XMMWORD PTR $T1[ebp+16], xmm1
  0015d	0f 29 85 10 ff
	ff ff		 movaps	 XMMWORD PTR $T1[ebp], xmm0
  00164	b9 10 00 00 00	 mov	 ecx, 16			; 00000010H
  00169	8d b5 10 ff ff
	ff		 lea	 esi, DWORD PTR $T1[ebp]
  0016f	8d bd 60 ff ff
	ff		 lea	 edi, DWORD PTR $T3[ebp]
  00175	f3 a5		 rep movsd
  00177	b9 10 00 00 00	 mov	 ecx, 16			; 00000010H
  0017c	8d b5 60 ff ff
	ff		 lea	 esi, DWORD PTR $T3[ebp]
  00182	8d 7d b0	 lea	 edi, DWORD PTR _id$[ebp]
  00185	f3 a5		 rep movsd
; Line 809
  00187	8b 4d f8	 mov	 ecx, DWORD PTR _this$[ebp]
  0018a	81 c1 64 05 00
	00		 add	 ecx, 1380		; 00000564H
  00190	0f 28 45 b0	 movaps	 xmm0, XMMWORD PTR _id$[ebp]
  00194	0f 28 4d c0	 movaps	 xmm1, XMMWORD PTR _id$[ebp+16]
  00198	0f 28 55 d0	 movaps	 xmm2, XMMWORD PTR _id$[ebp+32]
  0019c	0f 28 5d e0	 movaps	 xmm3, XMMWORD PTR _id$[ebp+48]
  001a0	e8 00 00 00 00	 call	 ?XMStoreFloat4x4@DirectX@@YQXPAUXMFLOAT4X4@1@UXMMATRIX@1@@Z ; DirectX::XMStoreFloat4x4
; Line 810
  001a5	8b 4d f8	 mov	 ecx, DWORD PTR _this$[ebp]
  001a8	81 c1 24 05 00
	00		 add	 ecx, 1316		; 00000524H
  001ae	0f 28 45 b0	 movaps	 xmm0, XMMWORD PTR _id$[ebp]
  001b2	0f 28 4d c0	 movaps	 xmm1, XMMWORD PTR _id$[ebp+16]
  001b6	0f 28 55 d0	 movaps	 xmm2, XMMWORD PTR _id$[ebp+32]
  001ba	0f 28 5d e0	 movaps	 xmm3, XMMWORD PTR _id$[ebp+48]
  001be	e8 00 00 00 00	 call	 ?XMStoreFloat4x4@DirectX@@YQXPAUXMFLOAT4X4@1@UXMMATRIX@1@@Z ; DirectX::XMStoreFloat4x4
; Line 811
  001c3	8b 4d f8	 mov	 ecx, DWORD PTR _this$[ebp]
  001c6	81 c1 e4 04 00
	00		 add	 ecx, 1252		; 000004e4H
  001cc	0f 28 45 b0	 movaps	 xmm0, XMMWORD PTR _id$[ebp]
  001d0	0f 28 4d c0	 movaps	 xmm1, XMMWORD PTR _id$[ebp+16]
  001d4	0f 28 55 d0	 movaps	 xmm2, XMMWORD PTR _id$[ebp+32]
  001d8	0f 28 5d e0	 movaps	 xmm3, XMMWORD PTR _id$[ebp+48]
  001dc	e8 00 00 00 00	 call	 ?XMStoreFloat4x4@DirectX@@YQXPAUXMFLOAT4X4@1@UXMMATRIX@1@@Z ; DirectX::XMStoreFloat4x4
; Line 812
  001e1	8b 4d f8	 mov	 ecx, DWORD PTR _this$[ebp]
  001e4	81 c1 c4 05 00
	00		 add	 ecx, 1476		; 000005c4H
  001ea	0f 28 45 b0	 movaps	 xmm0, XMMWORD PTR _id$[ebp]
  001ee	0f 28 4d c0	 movaps	 xmm1, XMMWORD PTR _id$[ebp+16]
  001f2	0f 28 55 d0	 movaps	 xmm2, XMMWORD PTR _id$[ebp+32]
  001f6	0f 28 5d e0	 movaps	 xmm3, XMMWORD PTR _id$[ebp+48]
  001fa	e8 00 00 00 00	 call	 ?XMStoreFloat4x4@DirectX@@YQXPAUXMFLOAT4X4@1@UXMMATRIX@1@@Z ; DirectX::XMStoreFloat4x4
; Line 813
  001ff	51		 push	 ecx
  00200	f3 0f 10 05 00
	00 00 00	 movss	 xmm0, DWORD PTR __real@00000000
  00208	f3 0f 11 04 24	 movss	 DWORD PTR [esp], xmm0
  0020d	51		 push	 ecx
  0020e	f3 0f 10 05 00
	00 00 00	 movss	 xmm0, DWORD PTR __real@00000000
  00216	f3 0f 11 04 24	 movss	 DWORD PTR [esp], xmm0
  0021b	51		 push	 ecx
  0021c	f3 0f 10 05 00
	00 00 00	 movss	 xmm0, DWORD PTR __real@00000000
  00224	f3 0f 11 04 24	 movss	 DWORD PTR [esp], xmm0
  00229	8d 8d 54 ff ff
	ff		 lea	 ecx, DWORD PTR $T2[ebp]
  0022f	e8 00 00 00 00	 call	 ??0XMFLOAT3@DirectX@@QAE@MMM@Z ; DirectX::XMFLOAT3::XMFLOAT3
  00234	50		 push	 eax
  00235	8b 4d f8	 mov	 ecx, DWORD PTR _this$[ebp]
  00238	81 c1 d8 04 00
	00		 add	 ecx, 1240		; 000004d8H
  0023e	e8 00 00 00 00	 call	 ??4XMFLOAT3@DirectX@@QAEAAU01@ABU01@@Z ; DirectX::XMFLOAT3::operator=
; Line 815
  00243	8b 55 f8	 mov	 edx, DWORD PTR _this$[ebp]
  00246	c6 82 71 02 00
	00 00		 mov	 BYTE PTR [edx+625], 0
; Line 816
  0024d	8b 45 f8	 mov	 eax, DWORD PTR _this$[ebp]
  00250	52		 push	 edx
  00251	8b cd		 mov	 ecx, ebp
  00253	50		 push	 eax
  00254	8d 15 00 00 00
	00		 lea	 edx, DWORD PTR $LN5@CModelView
  0025a	e8 00 00 00 00	 call	 @_RTC_CheckStackVars@8
  0025f	58		 pop	 eax
  00260	5a		 pop	 edx
  00261	5f		 pop	 edi
  00262	5e		 pop	 esi
  00263	8b 4d fc	 mov	 ecx, DWORD PTR __$ArrayPad$[ebp]
  00266	33 cd		 xor	 ecx, ebp
  00268	e8 00 00 00 00	 call	 @__security_check_cookie@4
  0026d	8b e5		 mov	 esp, ebp
  0026f	5d		 pop	 ebp
  00270	8b e3		 mov	 esp, ebx
  00272	5b		 pop	 ebx
  00273	c3		 ret	 0
$LN5@CModelView:
  00274	01 00 00 00	 DD	 1
  00278	00 00 00 00	 DD	 $LN4@CModelView
$LN4@CModelView:
  0027c	b0 ff ff ff	 DD	 -80			; ffffffb0H
  00280	40 00 00 00	 DD	 64			; 00000040H
  00284	00 00 00 00	 DD	 $LN3@CModelView
$LN3@CModelView:
  00288	69		 DB	 105			; 00000069H
  00289	64		 DB	 100			; 00000064H
  0028a	00		 DB	 0
??0CModelViewerCamera@@QAE@XZ ENDP			; CModelViewerCamera::CModelViewerCamera
_TEXT	ENDS
; Function compile flags: /Odtp /RTCsu
_TEXT	SEGMENT
tv74 = -16						; size = 4
tv70 = -12						; size = 4
tv67 = -8						; size = 4
_this$ = -4						; size = 4
_bLeft$ = 8						; size = 1
_bMiddle$ = 12						; size = 1
_bRight$ = 16						; size = 1
_bRotateWithoutButtonDown$ = 20				; size = 1
?SetRotateButtons@CFirstPersonCamera@@QAEX_N000@Z PROC	; CFirstPersonCamera::SetRotateButtons
; _this$ = ecx
; File d:\engine class\assignment 1\new scratch\dxut\optional\dxutcamera.cpp
; Line 782
  00000	55		 push	 ebp
  00001	8b ec		 mov	 ebp, esp
  00003	83 ec 10	 sub	 esp, 16			; 00000010H
  00006	b8 cc cc cc cc	 mov	 eax, -858993460		; ccccccccH
  0000b	89 45 f0	 mov	 DWORD PTR [ebp-16], eax
  0000e	89 45 f4	 mov	 DWORD PTR [ebp-12], eax
  00011	89 45 f8	 mov	 DWORD PTR [ebp-8], eax
  00014	89 45 fc	 mov	 DWORD PTR [ebp-4], eax
  00017	89 4d fc	 mov	 DWORD PTR _this$[ebp], ecx
; Line 785
  0001a	0f b6 45 08	 movzx	 eax, BYTE PTR _bLeft$[ebp]
  0001e	85 c0		 test	 eax, eax
  00020	74 09		 je	 SHORT $LN3@SetRotateB
  00022	c7 45 f8 01 00
	00 00		 mov	 DWORD PTR tv67[ebp], 1
  00029	eb 07		 jmp	 SHORT $LN4@SetRotateB
$LN3@SetRotateB:
  0002b	c7 45 f8 00 00
	00 00		 mov	 DWORD PTR tv67[ebp], 0
$LN4@SetRotateB:
  00032	0f b6 4d 0c	 movzx	 ecx, BYTE PTR _bMiddle$[ebp]
  00036	85 c9		 test	 ecx, ecx
  00038	74 09		 je	 SHORT $LN5@SetRotateB
  0003a	c7 45 f4 02 00
	00 00		 mov	 DWORD PTR tv70[ebp], 2
  00041	eb 07		 jmp	 SHORT $LN6@SetRotateB
$LN5@SetRotateB:
  00043	c7 45 f4 00 00
	00 00		 mov	 DWORD PTR tv70[ebp], 0
$LN6@SetRotateB:
  0004a	0f b6 55 10	 movzx	 edx, BYTE PTR _bRight$[ebp]
  0004e	85 d2		 test	 edx, edx
  00050	74 09		 je	 SHORT $LN7@SetRotateB
  00052	c7 45 f0 04 00
	00 00		 mov	 DWORD PTR tv74[ebp], 4
  00059	eb 07		 jmp	 SHORT $LN8@SetRotateB
$LN7@SetRotateB:
  0005b	c7 45 f0 00 00
	00 00		 mov	 DWORD PTR tv74[ebp], 0
$LN8@SetRotateB:
  00062	8b 45 f8	 mov	 eax, DWORD PTR tv67[ebp]
  00065	0b 45 f4	 or	 eax, DWORD PTR tv70[ebp]
  00068	0b 45 f0	 or	 eax, DWORD PTR tv74[ebp]
  0006b	8b 4d fc	 mov	 ecx, DWORD PTR _this$[ebp]
  0006e	89 81 d0 02 00
	00		 mov	 DWORD PTR [ecx+720], eax
; Line 786
  00074	8b 55 fc	 mov	 edx, DWORD PTR _this$[ebp]
  00077	8a 45 14	 mov	 al, BYTE PTR _bRotateWithoutButtonDown$[ebp]
  0007a	88 82 d4 02 00
	00		 mov	 BYTE PTR [edx+724], al
; Line 787
  00080	8b e5		 mov	 esp, ebp
  00082	5d		 pop	 ebp
  00083	c2 10 00	 ret	 16			; 00000010H
?SetRotateButtons@CFirstPersonCamera@@QAEX_N000@Z ENDP	; CFirstPersonCamera::SetRotateButtons
_TEXT	ENDS
; Function compile flags: /Odtp /RTCsu
_TEXT	SEGMENT
tv145 = -1145						; size = 1
tv376 = -1144						; size = 4
tv369 = -1140						; size = 4
$T1 = -1136						; size = 64
$T2 = -1072						; size = 64
$T3 = -1008						; size = 64
$T4 = -944						; size = 64
$T5 = -872						; size = 4
$T6 = -868						; size = 4
$T7 = -864						; size = 64
_mCameraWorld$ = -784					; size = 64
$T8 = -704						; size = 64
_mView$ = -624						; size = 64
$T9 = -544						; size = 16
_vLookAt$ = -528					; size = 16
$T10 = -512						; size = 16
$T11 = -496						; size = 16
_vEye$ = -464						; size = 16
$T12 = -432						; size = 16
_vPosDeltaWorld$ = -416					; size = 16
$T13 = -400						; size = 64
$T14 = -336						; size = 16
$T15 = -320						; size = 16
_vWorldAhead$ = -304					; size = 16
$T16 = -288						; size = 16
$T17 = -272						; size = 16
_vWorldUp$ = -256					; size = 16
$T18 = -240						; size = 64
_mCameraRot$ = -160					; size = 64
_fPitchDelta$19 = -88					; size = 4
_fYawDelta$20 = -84					; size = 4
$T21 = -80						; size = 16
_vPosDelta$ = -64					; size = 16
$T22 = -48						; size = 16
_vVelocity$ = -32					; size = 16
_this$ = -8						; size = 4
__$ArrayPad$ = -4					; size = 4
_fElapsedTime$ = 8					; size = 4
?FrameMove@CFirstPersonCamera@@UAEXM@Z PROC		; CFirstPersonCamera::FrameMove
; _this$ = ecx
; File d:\engine class\assignment 1\new scratch\dxut\optional\dxutcamera.cpp
; Line 691
  00000	53		 push	 ebx
  00001	8b dc		 mov	 ebx, esp
  00003	83 ec 08	 sub	 esp, 8
  00006	83 e4 f0	 and	 esp, -16		; fffffff0H
  00009	83 c4 04	 add	 esp, 4
  0000c	55		 push	 ebp
  0000d	8b 6b 04	 mov	 ebp, DWORD PTR [ebx+4]
  00010	89 6c 24 04	 mov	 DWORD PTR [esp+4], ebp
  00014	8b ec		 mov	 ebp, esp
  00016	81 ec 88 04 00
	00		 sub	 esp, 1160		; 00000488H
  0001c	56		 push	 esi
  0001d	57		 push	 edi
  0001e	51		 push	 ecx
  0001f	8d bd 78 fb ff
	ff		 lea	 edi, DWORD PTR [ebp-1160]
  00025	b9 22 01 00 00	 mov	 ecx, 290		; 00000122H
  0002a	b8 cc cc cc cc	 mov	 eax, -858993460		; ccccccccH
  0002f	f3 ab		 rep stosd
  00031	59		 pop	 ecx
  00032	a1 00 00 00 00	 mov	 eax, DWORD PTR ___security_cookie
  00037	33 c5		 xor	 eax, ebp
  00039	89 45 fc	 mov	 DWORD PTR __$ArrayPad$[ebp], eax
  0003c	89 4d f8	 mov	 DWORD PTR _this$[ebp], ecx
; Line 692
  0003f	e8 00 00 00 00	 call	 ?DXUTGetGlobalTimer@@YGPAVCDXUTTimer@@XZ ; DXUTGetGlobalTimer
  00044	8b c8		 mov	 ecx, eax
  00046	e8 00 00 00 00	 call	 ?IsStopped@CDXUTTimer@@QBE_NXZ ; CDXUTTimer::IsStopped
  0004b	0f b6 c0	 movzx	 eax, al
  0004e	85 c0		 test	 eax, eax
  00050	74 4f		 je	 SHORT $LN7@FrameMove
; Line 694
  00052	e8 00 00 00 00	 call	 ?DXUTGetFPS@@YGMXZ	; DXUTGetFPS
  00057	d9 9d 8c fb ff
	ff		 fstp	 DWORD PTR tv369[ebp]
  0005d	f3 0f 10 85 8c
	fb ff ff	 movss	 xmm0, DWORD PTR tv369[ebp]
  00065	0f 2e 05 00 00
	00 00		 ucomiss xmm0, DWORD PTR __real@00000000
  0006c	9f		 lahf
  0006d	f6 c4 44	 test	 ah, 68			; 00000044H
  00070	7a 0f		 jp	 SHORT $LN8@FrameMove
; Line 695
  00072	f3 0f 10 05 00
	00 00 00	 movss	 xmm0, DWORD PTR __real@00000000
  0007a	f3 0f 11 43 08	 movss	 DWORD PTR _fElapsedTime$[ebx], xmm0
; Line 696
  0007f	eb 20		 jmp	 SHORT $LN7@FrameMove
$LN8@FrameMove:
; Line 697
  00081	e8 00 00 00 00	 call	 ?DXUTGetFPS@@YGMXZ	; DXUTGetFPS
  00086	d9 9d 88 fb ff
	ff		 fstp	 DWORD PTR tv376[ebp]
  0008c	f3 0f 10 05 00
	00 00 00	 movss	 xmm0, DWORD PTR __real@3f800000
  00094	f3 0f 5e 85 88
	fb ff ff	 divss	 xmm0, DWORD PTR tv376[ebp]
  0009c	f3 0f 11 43 08	 movss	 DWORD PTR _fElapsedTime$[ebx], xmm0
$LN7@FrameMove:
; Line 700
  000a1	b9 01 00 00 00	 mov	 ecx, 1
  000a6	6b d1 06	 imul	 edx, ecx, 6
  000a9	8b 45 f8	 mov	 eax, DWORD PTR _this$[ebp]
  000ac	0f b6 8c 10 b4
	01 00 00	 movzx	 ecx, BYTE PTR [eax+edx+436]
  000b4	51		 push	 ecx
  000b5	8b 4d f8	 mov	 ecx, DWORD PTR _this$[ebp]
  000b8	e8 00 00 00 00	 call	 ?IsKeyDown@CBaseCamera@@IBE_NE@Z ; CBaseCamera::IsKeyDown
  000bd	0f b6 d0	 movzx	 edx, al
  000c0	85 d2		 test	 edx, edx
  000c2	74 16		 je	 SHORT $LN6@FrameMove
; Line 702
  000c4	8b 45 f8	 mov	 eax, DWORD PTR _this$[ebp]
  000c7	8b 10		 mov	 edx, DWORD PTR [eax]
  000c9	8b f4		 mov	 esi, esp
  000cb	8b 4d f8	 mov	 ecx, DWORD PTR _this$[ebp]
  000ce	8b 42 08	 mov	 eax, DWORD PTR [edx+8]
  000d1	ff d0		 call	 eax
  000d3	3b f4		 cmp	 esi, esp
  000d5	e8 00 00 00 00	 call	 __RTC_CheckEsp
$LN6@FrameMove:
; Line 706
  000da	8b 4d f8	 mov	 ecx, DWORD PTR _this$[ebp]
  000dd	8b 55 f8	 mov	 edx, DWORD PTR _this$[ebp]
  000e0	8b 81 d0 02 00
	00		 mov	 eax, DWORD PTR [ecx+720]
  000e6	23 82 d0 01 00
	00		 and	 eax, DWORD PTR [edx+464]
  000ec	75 17		 jne	 SHORT $LN12@FrameMove
  000ee	8b 4d f8	 mov	 ecx, DWORD PTR _this$[ebp]
  000f1	0f b6 91 d4 02
	00 00		 movzx	 edx, BYTE PTR [ecx+724]
  000f8	85 d2		 test	 edx, edx
  000fa	75 09		 jne	 SHORT $LN12@FrameMove
  000fc	c6 85 87 fb ff
	ff 00		 mov	 BYTE PTR tv145[ebp], 0
  00103	eb 07		 jmp	 SHORT $LN13@FrameMove
$LN12@FrameMove:
  00105	c6 85 87 fb ff
	ff 01		 mov	 BYTE PTR tv145[ebp], 1
$LN13@FrameMove:
  0010c	6a 01		 push	 1
  0010e	0f b6 85 87 fb
	ff ff		 movzx	 eax, BYTE PTR tv145[ebp]
  00115	50		 push	 eax
  00116	8b 4d f8	 mov	 ecx, DWORD PTR _this$[ebp]
  00119	0f b6 91 71 02
	00 00		 movzx	 edx, BYTE PTR [ecx+625]
  00120	52		 push	 edx
  00121	8b 4d f8	 mov	 ecx, DWORD PTR _this$[ebp]
  00124	e8 00 00 00 00	 call	 ?GetInput@CBaseCamera@@IAEX_N00@Z ; CBaseCamera::GetInput
; Line 713
  00129	51		 push	 ecx
  0012a	f3 0f 10 43 08	 movss	 xmm0, DWORD PTR _fElapsedTime$[ebx]
  0012f	f3 0f 11 04 24	 movss	 DWORD PTR [esp], xmm0
  00134	8b 4d f8	 mov	 ecx, DWORD PTR _this$[ebp]
  00137	e8 00 00 00 00	 call	 ?UpdateVelocity@CBaseCamera@@IAEXM@Z ; CBaseCamera::UpdateVelocity
; Line 716
  0013c	8b 4d f8	 mov	 ecx, DWORD PTR _this$[ebp]
  0013f	81 c1 2c 02 00
	00		 add	 ecx, 556		; 0000022cH
  00145	e8 00 00 00 00	 call	 ?XMLoadFloat3@DirectX@@YQ?AT__m128@@PBUXMFLOAT3@1@@Z ; DirectX::XMLoadFloat3
  0014a	0f 29 45 d0	 movaps	 XMMWORD PTR $T22[ebp], xmm0
  0014e	0f 28 45 d0	 movaps	 xmm0, XMMWORD PTR $T22[ebp]
  00152	0f 29 45 e0	 movaps	 XMMWORD PTR _vVelocity$[ebp], xmm0
; Line 717
  00156	0f 28 45 e0	 movaps	 xmm0, XMMWORD PTR _vVelocity$[ebp]
  0015a	f3 0f 10 4b 08	 movss	 xmm1, DWORD PTR _fElapsedTime$[ebx]
  0015f	e8 00 00 00 00	 call	 ??DDirectX@@YQ?AT__m128@@T1@M@Z ; DirectX::operator*
  00164	0f 29 45 b0	 movaps	 XMMWORD PTR $T21[ebp], xmm0
  00168	0f 28 45 b0	 movaps	 xmm0, XMMWORD PTR $T21[ebp]
  0016c	0f 29 45 c0	 movaps	 XMMWORD PTR _vPosDelta$[ebp], xmm0
; Line 723
  00170	8b 45 f8	 mov	 eax, DWORD PTR _this$[ebp]
  00173	8b 4d f8	 mov	 ecx, DWORD PTR _this$[ebp]
  00176	8b 90 d0 02 00
	00		 mov	 edx, DWORD PTR [eax+720]
  0017c	23 91 d0 01 00
	00		 and	 edx, DWORD PTR [ecx+464]
  00182	75 42		 jne	 SHORT $LN4@FrameMove
  00184	8b 45 f8	 mov	 eax, DWORD PTR _this$[ebp]
  00187	0f b6 88 d4 02
	00 00		 movzx	 ecx, BYTE PTR [eax+724]
  0018e	85 c9		 test	 ecx, ecx
  00190	75 34		 jne	 SHORT $LN4@FrameMove
  00192	8b 55 f8	 mov	 edx, DWORD PTR _this$[ebp]
  00195	f3 0f 10 82 84
	01 00 00	 movss	 xmm0, DWORD PTR [edx+388]
  0019d	0f 2e 05 00 00
	00 00		 ucomiss xmm0, DWORD PTR __real@00000000
  001a4	9f		 lahf
  001a5	f6 c4 44	 test	 ah, 68			; 00000044H
  001a8	7a 1c		 jp	 SHORT $LN4@FrameMove
  001aa	8b 45 f8	 mov	 eax, DWORD PTR _this$[ebp]
  001ad	f3 0f 10 80 8c
	01 00 00	 movss	 xmm0, DWORD PTR [eax+396]
  001b5	0f 2e 05 00 00
	00 00		 ucomiss xmm0, DWORD PTR __real@00000000
  001bc	9f		 lahf
  001bd	f6 c4 44	 test	 ah, 68			; 00000044H
  001c0	0f 8b f3 00 00
	00		 jnp	 $LN5@FrameMove
$LN4@FrameMove:
; Line 726
  001c6	8b 4d f8	 mov	 ecx, DWORD PTR _this$[ebp]
  001c9	f3 0f 10 81 4c
	02 00 00	 movss	 xmm0, DWORD PTR [ecx+588]
  001d1	f3 0f 11 45 ac	 movss	 DWORD PTR _fYawDelta$20[ebp], xmm0
; Line 727
  001d6	8b 55 f8	 mov	 edx, DWORD PTR _this$[ebp]
  001d9	f3 0f 10 82 50
	02 00 00	 movss	 xmm0, DWORD PTR [edx+592]
  001e1	f3 0f 11 45 a8	 movss	 DWORD PTR _fPitchDelta$19[ebp], xmm0
; Line 730
  001e6	8b 45 f8	 mov	 eax, DWORD PTR _this$[ebp]
  001e9	0f b6 88 70 02
	00 00		 movzx	 ecx, BYTE PTR [eax+624]
  001f0	85 c9		 test	 ecx, ecx
  001f2	74 11		 je	 SHORT $LN3@FrameMove
; Line 731
  001f4	f3 0f 10 45 a8	 movss	 xmm0, DWORD PTR _fPitchDelta$19[ebp]
  001f9	0f 57 05 00 00
	00 00		 xorps	 xmm0, DWORD PTR __xmm@80000000800000008000000080000000
  00200	f3 0f 11 45 a8	 movss	 DWORD PTR _fPitchDelta$19[ebp], xmm0
$LN3@FrameMove:
; Line 733
  00205	8b 55 f8	 mov	 edx, DWORD PTR _this$[ebp]
  00208	f3 0f 10 82 18
	02 00 00	 movss	 xmm0, DWORD PTR [edx+536]
  00210	f3 0f 58 45 a8	 addss	 xmm0, DWORD PTR _fPitchDelta$19[ebp]
  00215	8b 45 f8	 mov	 eax, DWORD PTR _this$[ebp]
  00218	f3 0f 11 80 18
	02 00 00	 movss	 DWORD PTR [eax+536], xmm0
; Line 734
  00220	8b 4d f8	 mov	 ecx, DWORD PTR _this$[ebp]
  00223	f3 0f 10 81 14
	02 00 00	 movss	 xmm0, DWORD PTR [ecx+532]
  0022b	f3 0f 58 45 ac	 addss	 xmm0, DWORD PTR _fYawDelta$20[ebp]
  00230	8b 55 f8	 mov	 edx, DWORD PTR _this$[ebp]
  00233	f3 0f 11 82 14
	02 00 00	 movss	 DWORD PTR [edx+532], xmm0
; Line 737
  0023b	f3 0f 10 05 00
	00 00 00	 movss	 xmm0, DWORD PTR _XM_PI
  00243	0f 57 05 00 00
	00 00		 xorps	 xmm0, DWORD PTR __xmm@80000000800000008000000080000000
  0024a	f3 0f 5e 05 00
	00 00 00	 divss	 xmm0, DWORD PTR __real@40000000
  00252	f3 0f 11 85 9c
	fc ff ff	 movss	 DWORD PTR $T6[ebp], xmm0
  0025a	8b 45 f8	 mov	 eax, DWORD PTR _this$[ebp]
  0025d	05 18 02 00 00	 add	 eax, 536		; 00000218H
  00262	50		 push	 eax
  00263	8d 8d 9c fc ff
	ff		 lea	 ecx, DWORD PTR $T6[ebp]
  00269	51		 push	 ecx
  0026a	e8 00 00 00 00	 call	 ??$max@M@std@@YAABMABM0@Z ; std::max<float>
  0026f	83 c4 08	 add	 esp, 8
  00272	8b 55 f8	 mov	 edx, DWORD PTR _this$[ebp]
  00275	8b 00		 mov	 eax, DWORD PTR [eax]
  00277	89 82 18 02 00
	00		 mov	 DWORD PTR [edx+536], eax
; Line 738
  0027d	f3 0f 10 05 00
	00 00 00	 movss	 xmm0, DWORD PTR _XM_PI
  00285	f3 0f 5e 05 00
	00 00 00	 divss	 xmm0, DWORD PTR __real@40000000
  0028d	f3 0f 11 85 98
	fc ff ff	 movss	 DWORD PTR $T5[ebp], xmm0
  00295	8b 4d f8	 mov	 ecx, DWORD PTR _this$[ebp]
  00298	81 c1 18 02 00
	00		 add	 ecx, 536		; 00000218H
  0029e	51		 push	 ecx
  0029f	8d 95 98 fc ff
	ff		 lea	 edx, DWORD PTR $T5[ebp]
  002a5	52		 push	 edx
  002a6	e8 00 00 00 00	 call	 ??$min@M@std@@YAABMABM0@Z ; std::min<float>
  002ab	83 c4 08	 add	 esp, 8
  002ae	8b 4d f8	 mov	 ecx, DWORD PTR _this$[ebp]
  002b1	8b 10		 mov	 edx, DWORD PTR [eax]
  002b3	89 91 18 02 00
	00		 mov	 DWORD PTR [ecx+536], edx
$LN5@FrameMove:
; Line 742
  002b9	f3 0f 10 15 00
	00 00 00	 movss	 xmm2, DWORD PTR __real@00000000
  002c1	8b 45 f8	 mov	 eax, DWORD PTR _this$[ebp]
  002c4	f3 0f 10 88 14
	02 00 00	 movss	 xmm1, DWORD PTR [eax+532]
  002cc	8b 4d f8	 mov	 ecx, DWORD PTR _this$[ebp]
  002cf	f3 0f 10 81 18
	02 00 00	 movss	 xmm0, DWORD PTR [ecx+536]
  002d7	e8 00 00 00 00	 call	 ?XMMatrixRotationRollPitchYaw@DirectX@@YQ?AUXMMATRIX@1@MMM@Z ; DirectX::XMMatrixRotationRollPitchYaw
  002dc	0f 29 9d 80 fc
	ff ff		 movaps	 XMMWORD PTR $T4[ebp+48], xmm3
  002e3	0f 29 95 70 fc
	ff ff		 movaps	 XMMWORD PTR $T4[ebp+32], xmm2
  002ea	0f 29 8d 60 fc
	ff ff		 movaps	 XMMWORD PTR $T4[ebp+16], xmm1
  002f1	0f 29 85 50 fc
	ff ff		 movaps	 XMMWORD PTR $T4[ebp], xmm0
  002f8	b9 10 00 00 00	 mov	 ecx, 16			; 00000010H
  002fd	8d b5 50 fc ff
	ff		 lea	 esi, DWORD PTR $T4[ebp]
  00303	8d bd 10 ff ff
	ff		 lea	 edi, DWORD PTR $T18[ebp]
  00309	f3 a5		 rep movsd
  0030b	b9 10 00 00 00	 mov	 ecx, 16			; 00000010H
  00310	8d b5 10 ff ff
	ff		 lea	 esi, DWORD PTR $T18[ebp]
  00316	8d bd 60 ff ff
	ff		 lea	 edi, DWORD PTR _mCameraRot$[ebp]
  0031c	f3 a5		 rep movsd
; Line 745
  0031e	8d 95 f0 fe ff
	ff		 lea	 edx, DWORD PTR $T17[ebp]
  00324	52		 push	 edx
  00325	b9 00 00 00 00	 mov	 ecx, OFFSET ?g_XMIdentityR1@DirectX@@3UXMVECTORF32@1@B ; DirectX::g_XMIdentityR1
  0032a	e8 00 00 00 00	 call	 ??BXMVECTORF32@DirectX@@QBE?AT__m128@@XZ ; DirectX::XMVECTORF32::operator __m128
  0032f	0f 10 00	 movups	 xmm0, XMMWORD PTR [eax]
  00332	0f 28 8d 60 ff
	ff ff		 movaps	 xmm1, XMMWORD PTR _mCameraRot$[ebp]
  00339	0f 28 95 70 ff
	ff ff		 movaps	 xmm2, XMMWORD PTR _mCameraRot$[ebp+16]
  00340	0f 28 5d 80	 movaps	 xmm3, XMMWORD PTR _mCameraRot$[ebp+32]
  00344	0f 28 65 90	 movaps	 xmm4, XMMWORD PTR _mCameraRot$[ebp+48]
  00348	e8 00 00 00 00	 call	 ?XMVector3TransformCoord@DirectX@@YQ?AT__m128@@T2@UXMMATRIX@1@@Z ; DirectX::XMVector3TransformCoord
  0034d	0f 29 85 e0 fe
	ff ff		 movaps	 XMMWORD PTR $T16[ebp], xmm0
  00354	0f 28 85 e0 fe
	ff ff		 movaps	 xmm0, XMMWORD PTR $T16[ebp]
  0035b	0f 29 85 00 ff
	ff ff		 movaps	 XMMWORD PTR _vWorldUp$[ebp], xmm0
; Line 746
  00362	8d 85 c0 fe ff
	ff		 lea	 eax, DWORD PTR $T15[ebp]
  00368	50		 push	 eax
  00369	b9 00 00 00 00	 mov	 ecx, OFFSET ?g_XMIdentityR2@DirectX@@3UXMVECTORF32@1@B ; DirectX::g_XMIdentityR2
  0036e	e8 00 00 00 00	 call	 ??BXMVECTORF32@DirectX@@QBE?AT__m128@@XZ ; DirectX::XMVECTORF32::operator __m128
  00373	0f 10 00	 movups	 xmm0, XMMWORD PTR [eax]
  00376	0f 28 8d 60 ff
	ff ff		 movaps	 xmm1, XMMWORD PTR _mCameraRot$[ebp]
  0037d	0f 28 95 70 ff
	ff ff		 movaps	 xmm2, XMMWORD PTR _mCameraRot$[ebp+16]
  00384	0f 28 5d 80	 movaps	 xmm3, XMMWORD PTR _mCameraRot$[ebp+32]
  00388	0f 28 65 90	 movaps	 xmm4, XMMWORD PTR _mCameraRot$[ebp+48]
  0038c	e8 00 00 00 00	 call	 ?XMVector3TransformCoord@DirectX@@YQ?AT__m128@@T2@UXMMATRIX@1@@Z ; DirectX::XMVector3TransformCoord
  00391	0f 29 85 b0 fe
	ff ff		 movaps	 XMMWORD PTR $T14[ebp], xmm0
  00398	0f 28 85 b0 fe
	ff ff		 movaps	 xmm0, XMMWORD PTR $T14[ebp]
  0039f	0f 29 85 d0 fe
	ff ff		 movaps	 XMMWORD PTR _vWorldAhead$[ebp], xmm0
; Line 749
  003a6	8b 4d f8	 mov	 ecx, DWORD PTR _this$[ebp]
  003a9	0f b6 91 72 02
	00 00		 movzx	 edx, BYTE PTR [ecx+626]
  003b0	85 d2		 test	 edx, edx
  003b2	75 61		 jne	 SHORT $LN2@FrameMove
; Line 753
  003b4	f3 0f 10 15 00
	00 00 00	 movss	 xmm2, DWORD PTR __real@00000000
  003bc	8b 45 f8	 mov	 eax, DWORD PTR _this$[ebp]
  003bf	f3 0f 10 88 14
	02 00 00	 movss	 xmm1, DWORD PTR [eax+532]
  003c7	f3 0f 10 05 00
	00 00 00	 movss	 xmm0, DWORD PTR __real@00000000
  003cf	e8 00 00 00 00	 call	 ?XMMatrixRotationRollPitchYaw@DirectX@@YQ?AUXMMATRIX@1@MMM@Z ; DirectX::XMMatrixRotationRollPitchYaw
  003d4	0f 29 9d 40 fc
	ff ff		 movaps	 XMMWORD PTR $T3[ebp+48], xmm3
  003db	0f 29 95 30 fc
	ff ff		 movaps	 XMMWORD PTR $T3[ebp+32], xmm2
  003e2	0f 29 8d 20 fc
	ff ff		 movaps	 XMMWORD PTR $T3[ebp+16], xmm1
  003e9	0f 29 85 10 fc
	ff ff		 movaps	 XMMWORD PTR $T3[ebp], xmm0
  003f0	b9 10 00 00 00	 mov	 ecx, 16			; 00000010H
  003f5	8d b5 10 fc ff
	ff		 lea	 esi, DWORD PTR $T3[ebp]
  003fb	8d bd 70 fe ff
	ff		 lea	 edi, DWORD PTR $T13[ebp]
  00401	f3 a5		 rep movsd
  00403	8d 8d 70 fe ff
	ff		 lea	 ecx, DWORD PTR $T13[ebp]
  00409	51		 push	 ecx
  0040a	8d 8d 60 ff ff
	ff		 lea	 ecx, DWORD PTR _mCameraRot$[ebp]
  00410	e8 00 00 00 00	 call	 ??4XMMATRIX@DirectX@@QAEAAU01@ABU01@@Z ; DirectX::XMMATRIX::operator=
$LN2@FrameMove:
; Line 755
  00415	0f 28 45 c0	 movaps	 xmm0, XMMWORD PTR _vPosDelta$[ebp]
  00419	0f 28 8d 60 ff
	ff ff		 movaps	 xmm1, XMMWORD PTR _mCameraRot$[ebp]
  00420	0f 28 95 70 ff
	ff ff		 movaps	 xmm2, XMMWORD PTR _mCameraRot$[ebp+16]
  00427	0f 28 5d 80	 movaps	 xmm3, XMMWORD PTR _mCameraRot$[ebp+32]
  0042b	0f 28 65 90	 movaps	 xmm4, XMMWORD PTR _mCameraRot$[ebp+48]
  0042f	e8 00 00 00 00	 call	 ?XMVector3TransformCoord@DirectX@@YQ?AT__m128@@T2@UXMMATRIX@1@@Z ; DirectX::XMVector3TransformCoord
  00434	0f 29 85 50 fe
	ff ff		 movaps	 XMMWORD PTR $T12[ebp], xmm0
  0043b	0f 28 85 50 fe
	ff ff		 movaps	 xmm0, XMMWORD PTR $T12[ebp]
  00442	0f 29 85 60 fe
	ff ff		 movaps	 XMMWORD PTR _vPosDeltaWorld$[ebp], xmm0
; Line 758
  00449	8b 4d f8	 mov	 ecx, DWORD PTR _this$[ebp]
  0044c	81 c1 fc 01 00
	00		 add	 ecx, 508		; 000001fcH
  00452	e8 00 00 00 00	 call	 ?XMLoadFloat3@DirectX@@YQ?AT__m128@@PBUXMFLOAT3@1@@Z ; DirectX::XMLoadFloat3
  00457	0f 29 85 10 fe
	ff ff		 movaps	 XMMWORD PTR $T11[ebp], xmm0
  0045e	0f 28 85 10 fe
	ff ff		 movaps	 xmm0, XMMWORD PTR $T11[ebp]
  00465	0f 29 85 30 fe
	ff ff		 movaps	 XMMWORD PTR _vEye$[ebp], xmm0
; Line 759
  0046c	0f 28 85 60 fe
	ff ff		 movaps	 xmm0, XMMWORD PTR _vPosDeltaWorld$[ebp]
  00473	8d 8d 30 fe ff
	ff		 lea	 ecx, DWORD PTR _vEye$[ebp]
  00479	e8 00 00 00 00	 call	 ??YDirectX@@YQAAT__m128@@AAT1@T1@@Z ; DirectX::operator+=
; Line 760
  0047e	8b 55 f8	 mov	 edx, DWORD PTR _this$[ebp]
  00481	0f b6 82 73 02
	00 00		 movzx	 eax, BYTE PTR [edx+627]
  00488	85 c0		 test	 eax, eax
  0048a	74 20		 je	 SHORT $LN1@FrameMove
; Line 761
  0048c	0f 28 85 30 fe
	ff ff		 movaps	 xmm0, XMMWORD PTR _vEye$[ebp]
  00493	8d 8d 00 fe ff
	ff		 lea	 ecx, DWORD PTR $T10[ebp]
  00499	51		 push	 ecx
  0049a	8b 4d f8	 mov	 ecx, DWORD PTR _this$[ebp]
  0049d	e8 00 00 00 00	 call	 ?ConstrainToBoundary@CBaseCamera@@IAE?AT__m128@@T2@@Z ; CBaseCamera::ConstrainToBoundary
  004a2	0f 10 00	 movups	 xmm0, XMMWORD PTR [eax]
  004a5	0f 11 85 30 fe
	ff ff		 movups	 XMMWORD PTR _vEye$[ebp], xmm0
$LN1@FrameMove:
; Line 762
  004ac	0f 28 85 30 fe
	ff ff		 movaps	 xmm0, XMMWORD PTR _vEye$[ebp]
  004b3	8b 4d f8	 mov	 ecx, DWORD PTR _this$[ebp]
  004b6	81 c1 fc 01 00
	00		 add	 ecx, 508		; 000001fcH
  004bc	e8 00 00 00 00	 call	 ?XMStoreFloat3@DirectX@@YQXPAUXMFLOAT3@1@T__m128@@@Z ; DirectX::XMStoreFloat3
; Line 765
  004c1	0f 28 8d d0 fe
	ff ff		 movaps	 xmm1, XMMWORD PTR _vWorldAhead$[ebp]
  004c8	0f 28 85 30 fe
	ff ff		 movaps	 xmm0, XMMWORD PTR _vEye$[ebp]
  004cf	e8 00 00 00 00	 call	 ??HDirectX@@YQ?AT__m128@@T1@0@Z ; DirectX::operator+
  004d4	0f 29 85 e0 fd
	ff ff		 movaps	 XMMWORD PTR $T9[ebp], xmm0
  004db	0f 28 85 e0 fd
	ff ff		 movaps	 xmm0, XMMWORD PTR $T9[ebp]
  004e2	0f 29 85 f0 fd
	ff ff		 movaps	 XMMWORD PTR _vLookAt$[ebp], xmm0
; Line 766
  004e9	0f 28 85 f0 fd
	ff ff		 movaps	 xmm0, XMMWORD PTR _vLookAt$[ebp]
  004f0	8b 4d f8	 mov	 ecx, DWORD PTR _this$[ebp]
  004f3	81 c1 08 02 00
	00		 add	 ecx, 520		; 00000208H
  004f9	e8 00 00 00 00	 call	 ?XMStoreFloat3@DirectX@@YQXPAUXMFLOAT3@1@T__m128@@@Z ; DirectX::XMStoreFloat3
; Line 769
  004fe	0f 28 95 00 ff
	ff ff		 movaps	 xmm2, XMMWORD PTR _vWorldUp$[ebp]
  00505	0f 28 8d f0 fd
	ff ff		 movaps	 xmm1, XMMWORD PTR _vLookAt$[ebp]
  0050c	0f 28 85 30 fe
	ff ff		 movaps	 xmm0, XMMWORD PTR _vEye$[ebp]
  00513	e8 00 00 00 00	 call	 ?XMMatrixLookAtLH@DirectX@@YQ?AUXMMATRIX@1@T__m128@@00@Z ; DirectX::XMMatrixLookAtLH
  00518	0f 29 9d 00 fc
	ff ff		 movaps	 XMMWORD PTR $T2[ebp+48], xmm3
  0051f	0f 29 95 f0 fb
	ff ff		 movaps	 XMMWORD PTR $T2[ebp+32], xmm2
  00526	0f 29 8d e0 fb
	ff ff		 movaps	 XMMWORD PTR $T2[ebp+16], xmm1
  0052d	0f 29 85 d0 fb
	ff ff		 movaps	 XMMWORD PTR $T2[ebp], xmm0
  00534	b9 10 00 00 00	 mov	 ecx, 16			; 00000010H
  00539	8d b5 d0 fb ff
	ff		 lea	 esi, DWORD PTR $T2[ebp]
  0053f	8d bd 40 fd ff
	ff		 lea	 edi, DWORD PTR $T8[ebp]
  00545	f3 a5		 rep movsd
  00547	b9 10 00 00 00	 mov	 ecx, 16			; 00000010H
  0054c	8d b5 40 fd ff
	ff		 lea	 esi, DWORD PTR $T8[ebp]
  00552	8d bd 90 fd ff
	ff		 lea	 edi, DWORD PTR _mView$[ebp]
  00558	f3 a5		 rep movsd
; Line 770
  0055a	8b 4d f8	 mov	 ecx, DWORD PTR _this$[ebp]
  0055d	83 c1 08	 add	 ecx, 8
  00560	0f 28 85 90 fd
	ff ff		 movaps	 xmm0, XMMWORD PTR _mView$[ebp]
  00567	0f 28 8d a0 fd
	ff ff		 movaps	 xmm1, XMMWORD PTR _mView$[ebp+16]
  0056e	0f 28 95 b0 fd
	ff ff		 movaps	 xmm2, XMMWORD PTR _mView$[ebp+32]
  00575	0f 28 9d c0 fd
	ff ff		 movaps	 xmm3, XMMWORD PTR _mView$[ebp+48]
  0057c	e8 00 00 00 00	 call	 ?XMStoreFloat4x4@DirectX@@YQXPAUXMFLOAT4X4@1@UXMMATRIX@1@@Z ; DirectX::XMStoreFloat4x4
; Line 772
  00581	33 c9		 xor	 ecx, ecx
  00583	0f 28 85 90 fd
	ff ff		 movaps	 xmm0, XMMWORD PTR _mView$[ebp]
  0058a	0f 28 8d a0 fd
	ff ff		 movaps	 xmm1, XMMWORD PTR _mView$[ebp+16]
  00591	0f 28 95 b0 fd
	ff ff		 movaps	 xmm2, XMMWORD PTR _mView$[ebp+32]
  00598	0f 28 9d c0 fd
	ff ff		 movaps	 xmm3, XMMWORD PTR _mView$[ebp+48]
  0059f	e8 00 00 00 00	 call	 ?XMMatrixInverse@DirectX@@YQ?AUXMMATRIX@1@PAT__m128@@U21@@Z ; DirectX::XMMatrixInverse
  005a4	0f 29 9d c0 fb
	ff ff		 movaps	 XMMWORD PTR $T1[ebp+48], xmm3
  005ab	0f 29 95 b0 fb
	ff ff		 movaps	 XMMWORD PTR $T1[ebp+32], xmm2
  005b2	0f 29 8d a0 fb
	ff ff		 movaps	 XMMWORD PTR $T1[ebp+16], xmm1
  005b9	0f 29 85 90 fb
	ff ff		 movaps	 XMMWORD PTR $T1[ebp], xmm0
  005c0	b9 10 00 00 00	 mov	 ecx, 16			; 00000010H
  005c5	8d b5 90 fb ff
	ff		 lea	 esi, DWORD PTR $T1[ebp]
  005cb	8d bd a0 fc ff
	ff		 lea	 edi, DWORD PTR $T7[ebp]
  005d1	f3 a5		 rep movsd
  005d3	b9 10 00 00 00	 mov	 ecx, 16			; 00000010H
  005d8	8d b5 a0 fc ff
	ff		 lea	 esi, DWORD PTR $T7[ebp]
  005de	8d bd f0 fc ff
	ff		 lea	 edi, DWORD PTR _mCameraWorld$[ebp]
  005e4	f3 a5		 rep movsd
; Line 773
  005e6	8b 4d f8	 mov	 ecx, DWORD PTR _this$[ebp]
  005e9	81 c1 90 02 00
	00		 add	 ecx, 656		; 00000290H
  005ef	0f 28 85 f0 fc
	ff ff		 movaps	 xmm0, XMMWORD PTR _mCameraWorld$[ebp]
  005f6	0f 28 8d 00 fd
	ff ff		 movaps	 xmm1, XMMWORD PTR _mCameraWorld$[ebp+16]
  005fd	0f 28 95 10 fd
	ff ff		 movaps	 xmm2, XMMWORD PTR _mCameraWorld$[ebp+32]
  00604	0f 28 9d 20 fd
	ff ff		 movaps	 xmm3, XMMWORD PTR _mCameraWorld$[ebp+48]
  0060b	e8 00 00 00 00	 call	 ?XMStoreFloat4x4@DirectX@@YQXPAUXMFLOAT4X4@1@UXMMATRIX@1@@Z ; DirectX::XMStoreFloat4x4
; Line 774
  00610	52		 push	 edx
  00611	8b cd		 mov	 ecx, ebp
  00613	50		 push	 eax
  00614	8d 15 00 00 00
	00		 lea	 edx, DWORD PTR $LN19@FrameMove
  0061a	e8 00 00 00 00	 call	 @_RTC_CheckStackVars@8
  0061f	58		 pop	 eax
  00620	5a		 pop	 edx
  00621	5f		 pop	 edi
  00622	5e		 pop	 esi
  00623	8b 4d fc	 mov	 ecx, DWORD PTR __$ArrayPad$[ebp]
  00626	33 cd		 xor	 ecx, ebp
  00628	e8 00 00 00 00	 call	 @__security_check_cookie@4
  0062d	8b e5		 mov	 esp, ebp
  0062f	5d		 pop	 ebp
  00630	8b e3		 mov	 esp, ebx
  00632	5b		 pop	 ebx
  00633	c2 04 00	 ret	 4
  00636	8b ff		 npad	 2
$LN19@FrameMove:
  00638	04 00 00 00	 DD	 4
  0063c	00 00 00 00	 DD	 $LN18@FrameMove
$LN18@FrameMove:
  00640	60 ff ff ff	 DD	 -160			; ffffff60H
  00644	40 00 00 00	 DD	 64			; 00000040H
  00648	00 00 00 00	 DD	 $LN14@FrameMove
  0064c	30 fe ff ff	 DD	 -464			; fffffe30H
  00650	10 00 00 00	 DD	 16			; 00000010H
  00654	00 00 00 00	 DD	 $LN15@FrameMove
  00658	90 fd ff ff	 DD	 -624			; fffffd90H
  0065c	40 00 00 00	 DD	 64			; 00000040H
  00660	00 00 00 00	 DD	 $LN16@FrameMove
  00664	f0 fc ff ff	 DD	 -784			; fffffcf0H
  00668	40 00 00 00	 DD	 64			; 00000040H
  0066c	00 00 00 00	 DD	 $LN17@FrameMove
$LN17@FrameMove:
  00670	6d		 DB	 109			; 0000006dH
  00671	43		 DB	 67			; 00000043H
  00672	61		 DB	 97			; 00000061H
  00673	6d		 DB	 109			; 0000006dH
  00674	65		 DB	 101			; 00000065H
  00675	72		 DB	 114			; 00000072H
  00676	61		 DB	 97			; 00000061H
  00677	57		 DB	 87			; 00000057H
  00678	6f		 DB	 111			; 0000006fH
  00679	72		 DB	 114			; 00000072H
  0067a	6c		 DB	 108			; 0000006cH
  0067b	64		 DB	 100			; 00000064H
  0067c	00		 DB	 0
$LN16@FrameMove:
  0067d	6d		 DB	 109			; 0000006dH
  0067e	56		 DB	 86			; 00000056H
  0067f	69		 DB	 105			; 00000069H
  00680	65		 DB	 101			; 00000065H
  00681	77		 DB	 119			; 00000077H
  00682	00		 DB	 0
$LN15@FrameMove:
  00683	76		 DB	 118			; 00000076H
  00684	45		 DB	 69			; 00000045H
  00685	79		 DB	 121			; 00000079H
  00686	65		 DB	 101			; 00000065H
  00687	00		 DB	 0
$LN14@FrameMove:
  00688	6d		 DB	 109			; 0000006dH
  00689	43		 DB	 67			; 00000043H
  0068a	61		 DB	 97			; 00000061H
  0068b	6d		 DB	 109			; 0000006dH
  0068c	65		 DB	 101			; 00000065H
  0068d	72		 DB	 114			; 00000072H
  0068e	61		 DB	 97			; 00000061H
  0068f	52		 DB	 82			; 00000052H
  00690	6f		 DB	 111			; 0000006fH
  00691	74		 DB	 116			; 00000074H
  00692	00		 DB	 0
?FrameMove@CFirstPersonCamera@@UAEXM@Z ENDP		; CFirstPersonCamera::FrameMove
_TEXT	ENDS
; Function compile flags: /Odtp /RTCsu
_TEXT	SEGMENT
_this$ = -4						; size = 4
??0CFirstPersonCamera@@QAE@XZ PROC			; CFirstPersonCamera::CFirstPersonCamera
; _this$ = ecx
; File d:\engine class\assignment 1\new scratch\dxut\optional\dxutcamera.cpp
; Line 683
  00000	55		 push	 ebp
  00001	8b ec		 mov	 ebp, esp
  00003	51		 push	 ecx
  00004	c7 45 fc cc cc
	cc cc		 mov	 DWORD PTR [ebp-4], -858993460 ; ccccccccH
  0000b	89 4d fc	 mov	 DWORD PTR _this$[ebp], ecx
  0000e	8b 4d fc	 mov	 ecx, DWORD PTR _this$[ebp]
  00011	e8 00 00 00 00	 call	 ??0CBaseCamera@@QAE@XZ	; CBaseCamera::CBaseCamera
  00016	8b 45 fc	 mov	 eax, DWORD PTR _this$[ebp]
  00019	c7 00 00 00 00
	00		 mov	 DWORD PTR [eax], OFFSET ??_7CFirstPersonCamera@@6B@
  0001f	8b 4d fc	 mov	 ecx, DWORD PTR _this$[ebp]
  00022	81 c1 90 02 00
	00		 add	 ecx, 656		; 00000290H
  00028	e8 00 00 00 00	 call	 ??0XMFLOAT4X4@DirectX@@QAE@XZ ; DirectX::XMFLOAT4X4::XMFLOAT4X4
  0002d	8b 4d fc	 mov	 ecx, DWORD PTR _this$[ebp]
  00030	c7 81 d0 02 00
	00 07 00 00 00	 mov	 DWORD PTR [ecx+720], 7
  0003a	8b 55 fc	 mov	 edx, DWORD PTR _this$[ebp]
  0003d	c6 82 d4 02 00
	00 00		 mov	 BYTE PTR [edx+724], 0
; Line 684
  00044	8b 45 fc	 mov	 eax, DWORD PTR _this$[ebp]
  00047	83 c4 04	 add	 esp, 4
  0004a	3b ec		 cmp	 ebp, esp
  0004c	e8 00 00 00 00	 call	 __RTC_CheckEsp
  00051	8b e5		 mov	 esp, ebp
  00053	5d		 pop	 ebp
  00054	c3		 ret	 0
??0CFirstPersonCamera@@QAE@XZ ENDP			; CFirstPersonCamera::CFirstPersonCamera
_TEXT	ENDS
; Function compile flags: /Odtp /RTCsu
_TEXT	SEGMENT
$T1 = -60						; size = 12
$T2 = -48						; size = 12
$T3 = -36						; size = 12
_iUserIndex$4 = -24					; size = 4
_fMostRecentlyActiveTime$5 = -20			; size = 8
_iMostRecentlyActive$6 = -12				; size = 4
_iUserIndex$7 = -8					; size = 4
_this$ = -4						; size = 4
_bGetKeyboardInput$ = 8					; size = 1
_bGetMouseInput$ = 12					; size = 1
_bGetGamepadInput$ = 16					; size = 1
?GetInput@CBaseCamera@@IAEX_N00@Z PROC			; CBaseCamera::GetInput
; _this$ = ecx
; File d:\engine class\assignment 1\new scratch\dxut\optional\dxutcamera.cpp
; Line 416
  00000	55		 push	 ebp
  00001	8b ec		 mov	 ebp, esp
  00003	83 ec 3c	 sub	 esp, 60			; 0000003cH
  00006	57		 push	 edi
  00007	51		 push	 ecx
  00008	8d 7d c4	 lea	 edi, DWORD PTR [ebp-60]
  0000b	b9 0f 00 00 00	 mov	 ecx, 15			; 0000000fH
  00010	b8 cc cc cc cc	 mov	 eax, -858993460		; ccccccccH
  00015	f3 ab		 rep stosd
  00017	59		 pop	 ecx
  00018	89 4d fc	 mov	 DWORD PTR _this$[ebp], ecx
; Line 417
  0001b	51		 push	 ecx
  0001c	f3 0f 10 05 00
	00 00 00	 movss	 xmm0, DWORD PTR __real@00000000
  00024	f3 0f 11 04 24	 movss	 DWORD PTR [esp], xmm0
  00029	51		 push	 ecx
  0002a	f3 0f 10 05 00
	00 00 00	 movss	 xmm0, DWORD PTR __real@00000000
  00032	f3 0f 11 04 24	 movss	 DWORD PTR [esp], xmm0
  00037	51		 push	 ecx
  00038	f3 0f 10 05 00
	00 00 00	 movss	 xmm0, DWORD PTR __real@00000000
  00040	f3 0f 11 04 24	 movss	 DWORD PTR [esp], xmm0
  00045	8d 4d dc	 lea	 ecx, DWORD PTR $T3[ebp]
  00048	e8 00 00 00 00	 call	 ??0XMFLOAT3@DirectX@@QAE@MMM@Z ; DirectX::XMFLOAT3::XMFLOAT3
  0004d	50		 push	 eax
  0004e	8b 4d fc	 mov	 ecx, DWORD PTR _this$[ebp]
  00051	81 c1 bc 01 00
	00		 add	 ecx, 444		; 000001bcH
  00057	e8 00 00 00 00	 call	 ??4XMFLOAT3@DirectX@@QAEAAU01@ABU01@@Z ; DirectX::XMFLOAT3::operator=
; Line 418
  0005c	0f b6 45 08	 movzx	 eax, BYTE PTR _bGetKeyboardInput$[ebp]
  00060	85 c0		 test	 eax, eax
  00062	0f 84 97 01 00
	00		 je	 $LN13@GetInput
; Line 421
  00068	b9 01 00 00 00	 mov	 ecx, 1
  0006d	d1 e1		 shl	 ecx, 1
  0006f	8b 55 fc	 mov	 edx, DWORD PTR _this$[ebp]
  00072	0f b6 84 0a b4
	01 00 00	 movzx	 eax, BYTE PTR [edx+ecx+436]
  0007a	50		 push	 eax
  0007b	8b 4d fc	 mov	 ecx, DWORD PTR _this$[ebp]
  0007e	e8 00 00 00 00	 call	 ?IsKeyDown@CBaseCamera@@IBE_NE@Z ; CBaseCamera::IsKeyDown
  00083	0f b6 c8	 movzx	 ecx, al
  00086	85 c9		 test	 ecx, ecx
  00088	74 1e		 je	 SHORT $LN19@GetInput
; Line 422
  0008a	8b 55 fc	 mov	 edx, DWORD PTR _this$[ebp]
  0008d	f3 0f 10 82 c4
	01 00 00	 movss	 xmm0, DWORD PTR [edx+452]
  00095	f3 0f 58 05 00
	00 00 00	 addss	 xmm0, DWORD PTR __real@3f800000
  0009d	8b 45 fc	 mov	 eax, DWORD PTR _this$[ebp]
  000a0	f3 0f 11 80 c4
	01 00 00	 movss	 DWORD PTR [eax+452], xmm0
$LN19@GetInput:
; Line 423
  000a8	b9 01 00 00 00	 mov	 ecx, 1
  000ad	6b d1 03	 imul	 edx, ecx, 3
  000b0	8b 45 fc	 mov	 eax, DWORD PTR _this$[ebp]
  000b3	0f b6 8c 10 b4
	01 00 00	 movzx	 ecx, BYTE PTR [eax+edx+436]
  000bb	51		 push	 ecx
  000bc	8b 4d fc	 mov	 ecx, DWORD PTR _this$[ebp]
  000bf	e8 00 00 00 00	 call	 ?IsKeyDown@CBaseCamera@@IBE_NE@Z ; CBaseCamera::IsKeyDown
  000c4	0f b6 d0	 movzx	 edx, al
  000c7	85 d2		 test	 edx, edx
  000c9	74 1e		 je	 SHORT $LN18@GetInput
; Line 424
  000cb	8b 45 fc	 mov	 eax, DWORD PTR _this$[ebp]
  000ce	f3 0f 10 80 c4
	01 00 00	 movss	 xmm0, DWORD PTR [eax+452]
  000d6	f3 0f 5c 05 00
	00 00 00	 subss	 xmm0, DWORD PTR __real@3f800000
  000de	8b 4d fc	 mov	 ecx, DWORD PTR _this$[ebp]
  000e1	f3 0f 11 81 c4
	01 00 00	 movss	 DWORD PTR [ecx+452], xmm0
$LN18@GetInput:
; Line 425
  000e9	8b 55 fc	 mov	 edx, DWORD PTR _this$[ebp]
  000ec	0f b6 82 72 02
	00 00		 movzx	 eax, BYTE PTR [edx+626]
  000f3	85 c0		 test	 eax, eax
  000f5	0f 84 82 00 00
	00		 je	 $LN15@GetInput
; Line 427
  000fb	b9 01 00 00 00	 mov	 ecx, 1
  00100	c1 e1 02	 shl	 ecx, 2
  00103	8b 55 fc	 mov	 edx, DWORD PTR _this$[ebp]
  00106	0f b6 84 0a b4
	01 00 00	 movzx	 eax, BYTE PTR [edx+ecx+436]
  0010e	50		 push	 eax
  0010f	8b 4d fc	 mov	 ecx, DWORD PTR _this$[ebp]
  00112	e8 00 00 00 00	 call	 ?IsKeyDown@CBaseCamera@@IBE_NE@Z ; CBaseCamera::IsKeyDown
  00117	0f b6 c8	 movzx	 ecx, al
  0011a	85 c9		 test	 ecx, ecx
  0011c	74 1e		 je	 SHORT $LN16@GetInput
; Line 428
  0011e	8b 55 fc	 mov	 edx, DWORD PTR _this$[ebp]
  00121	f3 0f 10 82 c0
	01 00 00	 movss	 xmm0, DWORD PTR [edx+448]
  00129	f3 0f 58 05 00
	00 00 00	 addss	 xmm0, DWORD PTR __real@3f800000
  00131	8b 45 fc	 mov	 eax, DWORD PTR _this$[ebp]
  00134	f3 0f 11 80 c0
	01 00 00	 movss	 DWORD PTR [eax+448], xmm0
$LN16@GetInput:
; Line 429
  0013c	b9 01 00 00 00	 mov	 ecx, 1
  00141	6b d1 05	 imul	 edx, ecx, 5
  00144	8b 45 fc	 mov	 eax, DWORD PTR _this$[ebp]
  00147	0f b6 8c 10 b4
	01 00 00	 movzx	 ecx, BYTE PTR [eax+edx+436]
  0014f	51		 push	 ecx
  00150	8b 4d fc	 mov	 ecx, DWORD PTR _this$[ebp]
  00153	e8 00 00 00 00	 call	 ?IsKeyDown@CBaseCamera@@IBE_NE@Z ; CBaseCamera::IsKeyDown
  00158	0f b6 d0	 movzx	 edx, al
  0015b	85 d2		 test	 edx, edx
  0015d	74 1e		 je	 SHORT $LN15@GetInput
; Line 430
  0015f	8b 45 fc	 mov	 eax, DWORD PTR _this$[ebp]
  00162	f3 0f 10 80 c0
	01 00 00	 movss	 xmm0, DWORD PTR [eax+448]
  0016a	f3 0f 5c 05 00
	00 00 00	 subss	 xmm0, DWORD PTR __real@3f800000
  00172	8b 4d fc	 mov	 ecx, DWORD PTR _this$[ebp]
  00175	f3 0f 11 81 c0
	01 00 00	 movss	 DWORD PTR [ecx+448], xmm0
$LN15@GetInput:
; Line 432
  0017d	ba 01 00 00 00	 mov	 edx, 1
  00182	c1 e2 00	 shl	 edx, 0
  00185	8b 45 fc	 mov	 eax, DWORD PTR _this$[ebp]
  00188	0f b6 8c 10 b4
	01 00 00	 movzx	 ecx, BYTE PTR [eax+edx+436]
  00190	51		 push	 ecx
  00191	8b 4d fc	 mov	 ecx, DWORD PTR _this$[ebp]
  00194	e8 00 00 00 00	 call	 ?IsKeyDown@CBaseCamera@@IBE_NE@Z ; CBaseCamera::IsKeyDown
  00199	0f b6 d0	 movzx	 edx, al
  0019c	85 d2		 test	 edx, edx
  0019e	74 1e		 je	 SHORT $LN14@GetInput
; Line 433
  001a0	8b 45 fc	 mov	 eax, DWORD PTR _this$[ebp]
  001a3	f3 0f 10 80 bc
	01 00 00	 movss	 xmm0, DWORD PTR [eax+444]
  001ab	f3 0f 58 05 00
	00 00 00	 addss	 xmm0, DWORD PTR __real@3f800000
  001b3	8b 4d fc	 mov	 ecx, DWORD PTR _this$[ebp]
  001b6	f3 0f 11 81 bc
	01 00 00	 movss	 DWORD PTR [ecx+444], xmm0
$LN14@GetInput:
; Line 434
  001be	ba 01 00 00 00	 mov	 edx, 1
  001c3	6b c2 00	 imul	 eax, edx, 0
  001c6	8b 4d fc	 mov	 ecx, DWORD PTR _this$[ebp]
  001c9	0f b6 94 01 b4
	01 00 00	 movzx	 edx, BYTE PTR [ecx+eax+436]
  001d1	52		 push	 edx
  001d2	8b 4d fc	 mov	 ecx, DWORD PTR _this$[ebp]
  001d5	e8 00 00 00 00	 call	 ?IsKeyDown@CBaseCamera@@IBE_NE@Z ; CBaseCamera::IsKeyDown
  001da	0f b6 c0	 movzx	 eax, al
  001dd	85 c0		 test	 eax, eax
  001df	74 1e		 je	 SHORT $LN13@GetInput
; Line 435
  001e1	8b 4d fc	 mov	 ecx, DWORD PTR _this$[ebp]
  001e4	f3 0f 10 81 bc
	01 00 00	 movss	 xmm0, DWORD PTR [ecx+444]
  001ec	f3 0f 5c 05 00
	00 00 00	 subss	 xmm0, DWORD PTR __real@3f800000
  001f4	8b 55 fc	 mov	 edx, DWORD PTR _this$[ebp]
  001f7	f3 0f 11 82 bc
	01 00 00	 movss	 DWORD PTR [edx+444], xmm0
$LN13@GetInput:
; Line 438
  001ff	0f b6 45 0c	 movzx	 eax, BYTE PTR _bGetMouseInput$[ebp]
  00203	85 c0		 test	 eax, eax
  00205	74 08		 je	 SHORT $LN12@GetInput
; Line 440
  00207	8b 4d fc	 mov	 ecx, DWORD PTR _this$[ebp]
  0020a	e8 00 00 00 00	 call	 ?UpdateMouseDelta@CBaseCamera@@IAEXXZ ; CBaseCamera::UpdateMouseDelta
$LN12@GetInput:
; Line 443
  0020f	0f b6 4d 10	 movzx	 ecx, BYTE PTR _bGetGamepadInput$[ebp]
  00213	85 c9		 test	 ecx, ecx
  00215	0f 84 5a 02 00
	00		 je	 $LN1@GetInput
; Line 445
  0021b	51		 push	 ecx
  0021c	f3 0f 10 05 00
	00 00 00	 movss	 xmm0, DWORD PTR __real@00000000
  00224	f3 0f 11 04 24	 movss	 DWORD PTR [esp], xmm0
  00229	51		 push	 ecx
  0022a	f3 0f 10 05 00
	00 00 00	 movss	 xmm0, DWORD PTR __real@00000000
  00232	f3 0f 11 04 24	 movss	 DWORD PTR [esp], xmm0
  00237	51		 push	 ecx
  00238	f3 0f 10 05 00
	00 00 00	 movss	 xmm0, DWORD PTR __real@00000000
  00240	f3 0f 11 04 24	 movss	 DWORD PTR [esp], xmm0
  00245	8d 4d d0	 lea	 ecx, DWORD PTR $T2[ebp]
  00248	e8 00 00 00 00	 call	 ??0XMFLOAT3@DirectX@@QAE@MMM@Z ; DirectX::XMFLOAT3::XMFLOAT3
  0024d	50		 push	 eax
  0024e	8b 4d fc	 mov	 ecx, DWORD PTR _this$[ebp]
  00251	81 c1 78 01 00
	00		 add	 ecx, 376		; 00000178H
  00257	e8 00 00 00 00	 call	 ??4XMFLOAT3@DirectX@@QAEAAU01@ABU01@@Z ; DirectX::XMFLOAT3::operator=
; Line 446
  0025c	51		 push	 ecx
  0025d	f3 0f 10 05 00
	00 00 00	 movss	 xmm0, DWORD PTR __real@00000000
  00265	f3 0f 11 04 24	 movss	 DWORD PTR [esp], xmm0
  0026a	51		 push	 ecx
  0026b	f3 0f 10 05 00
	00 00 00	 movss	 xmm0, DWORD PTR __real@00000000
  00273	f3 0f 11 04 24	 movss	 DWORD PTR [esp], xmm0
  00278	51		 push	 ecx
  00279	f3 0f 10 05 00
	00 00 00	 movss	 xmm0, DWORD PTR __real@00000000
  00281	f3 0f 11 04 24	 movss	 DWORD PTR [esp], xmm0
  00286	8d 4d c4	 lea	 ecx, DWORD PTR $T1[ebp]
  00289	e8 00 00 00 00	 call	 ??0XMFLOAT3@DirectX@@QAE@MMM@Z ; DirectX::XMFLOAT3::XMFLOAT3
  0028e	50		 push	 eax
  0028f	8b 4d fc	 mov	 ecx, DWORD PTR _this$[ebp]
  00292	81 c1 84 01 00
	00		 add	 ecx, 388		; 00000184H
  00298	e8 00 00 00 00	 call	 ??4XMFLOAT3@DirectX@@QAEAAU01@ABU01@@Z ; DirectX::XMFLOAT3::operator=
; Line 449
  0029d	c7 45 f8 00 00
	00 00		 mov	 DWORD PTR _iUserIndex$7[ebp], 0
  002a4	eb 09		 jmp	 SHORT $LN10@GetInput
$LN9@GetInput:
  002a6	8b 55 f8	 mov	 edx, DWORD PTR _iUserIndex$7[ebp]
  002a9	83 c2 01	 add	 edx, 1
  002ac	89 55 f8	 mov	 DWORD PTR _iUserIndex$7[ebp], edx
$LN10@GetInput:
  002af	83 7d f8 04	 cmp	 DWORD PTR _iUserIndex$7[ebp], 4
  002b3	0f 83 bb 00 00
	00		 jae	 $LN8@GetInput
; Line 451
  002b9	6a 01		 push	 1
  002bb	6a 01		 push	 1
  002bd	6b 45 f8 3c	 imul	 eax, DWORD PTR _iUserIndex$7[ebp], 60
  002c1	8b 4d fc	 mov	 ecx, DWORD PTR _this$[ebp]
  002c4	8d 94 01 88 00
	00 00		 lea	 edx, DWORD PTR [ecx+eax+136]
  002cb	52		 push	 edx
  002cc	8b 45 f8	 mov	 eax, DWORD PTR _iUserIndex$7[ebp]
  002cf	50		 push	 eax
  002d0	e8 00 00 00 00	 call	 ?DXUTGetGamepadState@@YAJKPAUDXUT_GAMEPAD@@_N1@Z ; DXUTGetGamepadState
  002d5	83 c4 10	 add	 esp, 16			; 00000010H
; Line 457
  002d8	6b 4d f8 3c	 imul	 ecx, DWORD PTR _iUserIndex$7[ebp], 60
  002dc	8b 55 fc	 mov	 edx, DWORD PTR _this$[ebp]
  002df	0f b7 84 0a 88
	00 00 00	 movzx	 eax, WORD PTR [edx+ecx+136]
  002e7	85 c0		 test	 eax, eax
  002e9	75 72		 jne	 SHORT $LN6@GetInput
  002eb	6b 4d f8 3c	 imul	 ecx, DWORD PTR _iUserIndex$7[ebp], 60
  002ef	8b 55 fc	 mov	 edx, DWORD PTR _this$[ebp]
  002f2	0f bf 84 0a 8c
	00 00 00	 movsx	 eax, WORD PTR [edx+ecx+140]
  002fa	85 c0		 test	 eax, eax
  002fc	75 5f		 jne	 SHORT $LN6@GetInput
  002fe	6b 4d f8 3c	 imul	 ecx, DWORD PTR _iUserIndex$7[ebp], 60
  00302	8b 55 fc	 mov	 edx, DWORD PTR _this$[ebp]
  00305	0f bf 84 0a 8c
	00 00 00	 movsx	 eax, WORD PTR [edx+ecx+140]
  0030d	85 c0		 test	 eax, eax
  0030f	75 4c		 jne	 SHORT $LN6@GetInput
  00311	6b 4d f8 3c	 imul	 ecx, DWORD PTR _iUserIndex$7[ebp], 60
  00315	8b 55 fc	 mov	 edx, DWORD PTR _this$[ebp]
  00318	0f bf 84 0a 90
	00 00 00	 movsx	 eax, WORD PTR [edx+ecx+144]
  00320	85 c0		 test	 eax, eax
  00322	75 39		 jne	 SHORT $LN6@GetInput
  00324	6b 4d f8 3c	 imul	 ecx, DWORD PTR _iUserIndex$7[ebp], 60
  00328	8b 55 fc	 mov	 edx, DWORD PTR _this$[ebp]
  0032b	0f bf 84 0a 92
	00 00 00	 movsx	 eax, WORD PTR [edx+ecx+146]
  00333	85 c0		 test	 eax, eax
  00335	75 26		 jne	 SHORT $LN6@GetInput
  00337	6b 4d f8 3c	 imul	 ecx, DWORD PTR _iUserIndex$7[ebp], 60
  0033b	8b 55 fc	 mov	 edx, DWORD PTR _this$[ebp]
  0033e	0f b6 84 0a 8a
	00 00 00	 movzx	 eax, BYTE PTR [edx+ecx+138]
  00346	85 c0		 test	 eax, eax
  00348	75 13		 jne	 SHORT $LN6@GetInput
  0034a	6b 4d f8 3c	 imul	 ecx, DWORD PTR _iUserIndex$7[ebp], 60
  0034e	8b 55 fc	 mov	 edx, DWORD PTR _this$[ebp]
  00351	0f b6 84 0a 8b
	00 00 00	 movzx	 eax, BYTE PTR [edx+ecx+139]
  00359	85 c0		 test	 eax, eax
  0035b	74 12		 je	 SHORT $LN7@GetInput
$LN6@GetInput:
; Line 459
  0035d	e8 00 00 00 00	 call	 ?DXUTGetTime@@YGNXZ	; DXUTGetTime
  00362	8b 4d f8	 mov	 ecx, DWORD PTR _iUserIndex$7[ebp]
  00365	8b 55 fc	 mov	 edx, DWORD PTR _this$[ebp]
  00368	dd 9c ca 90 01
	00 00		 fstp	 QWORD PTR [edx+ecx*8+400]
$LN7@GetInput:
; Line 461
  0036f	e9 32 ff ff ff	 jmp	 $LN9@GetInput
$LN8@GetInput:
; Line 464
  00374	c7 45 f4 ff ff
	ff ff		 mov	 DWORD PTR _iMostRecentlyActive$6[ebp], -1
; Line 465
  0037b	f2 0f 10 05 00
	00 00 00	 movsd	 xmm0, QWORD PTR __real@0000000000000000
  00383	f2 0f 11 45 ec	 movsd	 QWORD PTR _fMostRecentlyActiveTime$5[ebp], xmm0
; Line 466
  00388	c7 45 e8 00 00
	00 00		 mov	 DWORD PTR _iUserIndex$4[ebp], 0
  0038f	eb 09		 jmp	 SHORT $LN5@GetInput
$LN4@GetInput:
  00391	8b 45 e8	 mov	 eax, DWORD PTR _iUserIndex$4[ebp]
  00394	83 c0 01	 add	 eax, 1
  00397	89 45 e8	 mov	 DWORD PTR _iUserIndex$4[ebp], eax
$LN5@GetInput:
  0039a	83 7d e8 04	 cmp	 DWORD PTR _iUserIndex$4[ebp], 4
  0039e	73 32		 jae	 SHORT $LN3@GetInput
; Line 468
  003a0	8b 4d e8	 mov	 ecx, DWORD PTR _iUserIndex$4[ebp]
  003a3	8b 55 fc	 mov	 edx, DWORD PTR _this$[ebp]
  003a6	f2 0f 10 84 ca
	90 01 00 00	 movsd	 xmm0, QWORD PTR [edx+ecx*8+400]
  003af	66 0f 2f 45 ec	 comisd	 xmm0, QWORD PTR _fMostRecentlyActiveTime$5[ebp]
  003b4	76 1a		 jbe	 SHORT $LN2@GetInput
; Line 470
  003b6	8b 45 e8	 mov	 eax, DWORD PTR _iUserIndex$4[ebp]
  003b9	8b 4d fc	 mov	 ecx, DWORD PTR _this$[ebp]
  003bc	f2 0f 10 84 c1
	90 01 00 00	 movsd	 xmm0, QWORD PTR [ecx+eax*8+400]
  003c5	f2 0f 11 45 ec	 movsd	 QWORD PTR _fMostRecentlyActiveTime$5[ebp], xmm0
; Line 471
  003ca	8b 55 e8	 mov	 edx, DWORD PTR _iUserIndex$4[ebp]
  003cd	89 55 f4	 mov	 DWORD PTR _iMostRecentlyActive$6[ebp], edx
$LN2@GetInput:
; Line 473
  003d0	eb bf		 jmp	 SHORT $LN4@GetInput
$LN3@GetInput:
; Line 476
  003d2	83 7d f4 00	 cmp	 DWORD PTR _iMostRecentlyActive$6[ebp], 0
  003d6	0f 8c 99 00 00
	00		 jl	 $LN1@GetInput
  003dc	6b 45 f4 3c	 imul	 eax, DWORD PTR _iMostRecentlyActive$6[ebp], 60
  003e0	8b 4d fc	 mov	 ecx, DWORD PTR _this$[ebp]
  003e3	0f b6 94 01 a8
	00 00 00	 movzx	 edx, BYTE PTR [ecx+eax+168]
  003eb	85 d2		 test	 edx, edx
  003ed	0f 84 82 00 00
	00		 je	 $LN1@GetInput
; Line 478
  003f3	6b 45 f4 3c	 imul	 eax, DWORD PTR _iMostRecentlyActive$6[ebp], 60
  003f7	8b 4d fc	 mov	 ecx, DWORD PTR _this$[ebp]
  003fa	8b 55 fc	 mov	 edx, DWORD PTR _this$[ebp]
  003fd	8b 84 02 b4 00
	00 00		 mov	 eax, DWORD PTR [edx+eax+180]
  00404	89 81 78 01 00
	00		 mov	 DWORD PTR [ecx+376], eax
; Line 479
  0040a	8b 4d fc	 mov	 ecx, DWORD PTR _this$[ebp]
  0040d	f3 0f 10 05 00
	00 00 00	 movss	 xmm0, DWORD PTR __real@00000000
  00415	f3 0f 11 81 7c
	01 00 00	 movss	 DWORD PTR [ecx+380], xmm0
; Line 480
  0041d	6b 55 f4 3c	 imul	 edx, DWORD PTR _iMostRecentlyActive$6[ebp], 60
  00421	8b 45 fc	 mov	 eax, DWORD PTR _this$[ebp]
  00424	8b 4d fc	 mov	 ecx, DWORD PTR _this$[ebp]
  00427	8b 94 11 b8 00
	00 00		 mov	 edx, DWORD PTR [ecx+edx+184]
  0042e	89 90 80 01 00
	00		 mov	 DWORD PTR [eax+384], edx
; Line 482
  00434	6b 45 f4 3c	 imul	 eax, DWORD PTR _iMostRecentlyActive$6[ebp], 60
  00438	8b 4d fc	 mov	 ecx, DWORD PTR _this$[ebp]
  0043b	8b 55 fc	 mov	 edx, DWORD PTR _this$[ebp]
  0043e	8b 84 02 ac 00
	00 00		 mov	 eax, DWORD PTR [edx+eax+172]
  00445	89 81 84 01 00
	00		 mov	 DWORD PTR [ecx+388], eax
; Line 483
  0044b	8b 4d fc	 mov	 ecx, DWORD PTR _this$[ebp]
  0044e	f3 0f 10 05 00
	00 00 00	 movss	 xmm0, DWORD PTR __real@00000000
  00456	f3 0f 11 81 88
	01 00 00	 movss	 DWORD PTR [ecx+392], xmm0
; Line 484
  0045e	6b 55 f4 3c	 imul	 edx, DWORD PTR _iMostRecentlyActive$6[ebp], 60
  00462	8b 45 fc	 mov	 eax, DWORD PTR _this$[ebp]
  00465	8b 4d fc	 mov	 ecx, DWORD PTR _this$[ebp]
  00468	8b 94 11 b0 00
	00 00		 mov	 edx, DWORD PTR [ecx+edx+176]
  0046f	89 90 8c 01 00
	00		 mov	 DWORD PTR [eax+396], edx
$LN1@GetInput:
; Line 487
  00475	5f		 pop	 edi
  00476	83 c4 3c	 add	 esp, 60			; 0000003cH
  00479	3b ec		 cmp	 ebp, esp
  0047b	e8 00 00 00 00	 call	 __RTC_CheckEsp
  00480	8b e5		 mov	 esp, ebp
  00482	5d		 pop	 ebp
  00483	c2 0c 00	 ret	 12			; 0000000cH
?GetInput@CBaseCamera@@IAEX_N00@Z ENDP			; CBaseCamera::GetInput
_TEXT	ENDS
; Function compile flags: /Odtp /RTCsu
_TEXT	SEGMENT
$T1 = -444						; size = 12
$T2 = -432						; size = 16
$T3 = -416						; size = 16
_vVelocityDrag$4 = -400					; size = 16
$T5 = -384						; size = 16
_vVelocity$6 = -352					; size = 16
$T7 = -320						; size = 16
$T8 = -304						; size = 16
$T9 = -288						; size = 16
$T10 = -272						; size = 16
_vAccel$ = -240						; size = 16
$T11 = -208						; size = 16
_vGamePadLeftThumb$ = -192				; size = 16
$T12 = -176						; size = 16
_vKeyboardDirection$ = -160				; size = 16
$T13 = -144						; size = 16
$T14 = -128						; size = 16
$T15 = -112						; size = 16
_vRotVelocity$ = -96					; size = 16
$T16 = -80						; size = 16
_vMouseDelta$ = -64					; size = 16
$T17 = -48						; size = 16
_vGamePadRightThumb$ = -32				; size = 16
_this$ = -4						; size = 4
_fElapsedTime$ = 8					; size = 4
?UpdateVelocity@CBaseCamera@@IAEXM@Z PROC		; CBaseCamera::UpdateVelocity
; _this$ = ecx
; File d:\engine class\assignment 1\new scratch\dxut\optional\dxutcamera.cpp
; Line 542
  00000	53		 push	 ebx
  00001	8b dc		 mov	 ebx, esp
  00003	83 ec 08	 sub	 esp, 8
  00006	83 e4 f0	 and	 esp, -16		; fffffff0H
  00009	83 c4 04	 add	 esp, 4
  0000c	55		 push	 ebp
  0000d	8b 6b 04	 mov	 ebp, DWORD PTR [ebx+4]
  00010	89 6c 24 04	 mov	 DWORD PTR [esp+4], ebp
  00014	8b ec		 mov	 ebp, esp
  00016	81 ec c0 01 00
	00		 sub	 esp, 448		; 000001c0H
  0001c	57		 push	 edi
  0001d	51		 push	 ecx
  0001e	8d bd 40 fe ff
	ff		 lea	 edi, DWORD PTR [ebp-448]
  00024	b9 70 00 00 00	 mov	 ecx, 112		; 00000070H
  00029	b8 cc cc cc cc	 mov	 eax, -858993460		; ccccccccH
  0002e	f3 ab		 rep stosd
  00030	59		 pop	 ecx
  00031	89 4d fc	 mov	 DWORD PTR _this$[ebp], ecx
; Line 543
  00034	8b 45 fc	 mov	 eax, DWORD PTR _this$[ebp]
  00037	f3 0f 10 88 8c
	01 00 00	 movss	 xmm1, DWORD PTR [eax+396]
  0003f	0f 57 0d 00 00
	00 00		 xorps	 xmm1, DWORD PTR __xmm@80000000800000008000000080000000
  00046	f3 0f 10 1d 00
	00 00 00	 movss	 xmm3, DWORD PTR __real@00000000
  0004e	f3 0f 10 15 00
	00 00 00	 movss	 xmm2, DWORD PTR __real@00000000
  00056	8b 4d fc	 mov	 ecx, DWORD PTR _this$[ebp]
  00059	f3 0f 10 81 84
	01 00 00	 movss	 xmm0, DWORD PTR [ecx+388]
  00061	e8 00 00 00 00	 call	 ?XMVectorSet@DirectX@@YQ?AT__m128@@MMMM@Z ; DirectX::XMVectorSet
  00066	0f 29 45 d0	 movaps	 XMMWORD PTR $T17[ebp], xmm0
  0006a	0f 28 45 d0	 movaps	 xmm0, XMMWORD PTR $T17[ebp]
  0006e	0f 29 45 e0	 movaps	 XMMWORD PTR _vGamePadRightThumb$[ebp], xmm0
; Line 545
  00072	8b 4d fc	 mov	 ecx, DWORD PTR _this$[ebp]
  00075	81 c1 d8 01 00
	00		 add	 ecx, 472		; 000001d8H
  0007b	e8 00 00 00 00	 call	 ?XMLoadFloat2@DirectX@@YQ?AT__m128@@PBUXMFLOAT2@1@@Z ; DirectX::XMLoadFloat2
  00080	0f 29 45 b0	 movaps	 XMMWORD PTR $T16[ebp], xmm0
  00084	0f 28 45 b0	 movaps	 xmm0, XMMWORD PTR $T16[ebp]
  00088	0f 29 45 c0	 movaps	 XMMWORD PTR _vMouseDelta$[ebp], xmm0
; Line 546
  0008c	0f 28 45 e0	 movaps	 xmm0, XMMWORD PTR _vGamePadRightThumb$[ebp]
  00090	f3 0f 10 0d 00
	00 00 00	 movss	 xmm1, DWORD PTR __real@3ca3d70a
  00098	e8 00 00 00 00	 call	 ??DDirectX@@YQ?AT__m128@@T1@M@Z ; DirectX::operator*
  0009d	0f 29 45 80	 movaps	 XMMWORD PTR $T14[ebp], xmm0
  000a1	0f 28 45 c0	 movaps	 xmm0, XMMWORD PTR _vMouseDelta$[ebp]
  000a5	8b 55 fc	 mov	 edx, DWORD PTR _this$[ebp]
  000a8	f3 0f 10 8a 64
	02 00 00	 movss	 xmm1, DWORD PTR [edx+612]
  000b0	e8 00 00 00 00	 call	 ??DDirectX@@YQ?AT__m128@@T1@M@Z ; DirectX::operator*
  000b5	0f 29 45 90	 movaps	 XMMWORD PTR $T15[ebp], xmm0
  000b9	0f 28 4d 80	 movaps	 xmm1, XMMWORD PTR $T14[ebp]
  000bd	0f 28 45 90	 movaps	 xmm0, XMMWORD PTR $T15[ebp]
  000c1	e8 00 00 00 00	 call	 ??HDirectX@@YQ?AT__m128@@T1@0@Z ; DirectX::operator+
  000c6	0f 29 85 70 ff
	ff ff		 movaps	 XMMWORD PTR $T13[ebp], xmm0
  000cd	0f 28 85 70 ff
	ff ff		 movaps	 xmm0, XMMWORD PTR $T13[ebp]
  000d4	0f 29 45 a0	 movaps	 XMMWORD PTR _vRotVelocity$[ebp], xmm0
; Line 548
  000d8	0f 28 45 a0	 movaps	 xmm0, XMMWORD PTR _vRotVelocity$[ebp]
  000dc	8b 4d fc	 mov	 ecx, DWORD PTR _this$[ebp]
  000df	81 c1 4c 02 00
	00		 add	 ecx, 588		; 0000024cH
  000e5	e8 00 00 00 00	 call	 ?XMStoreFloat2@DirectX@@YQXPAUXMFLOAT2@1@T__m128@@@Z ; DirectX::XMStoreFloat2
; Line 550
  000ea	8b 4d fc	 mov	 ecx, DWORD PTR _this$[ebp]
  000ed	81 c1 bc 01 00
	00		 add	 ecx, 444		; 000001bcH
  000f3	e8 00 00 00 00	 call	 ?XMLoadFloat3@DirectX@@YQ?AT__m128@@PBUXMFLOAT3@1@@Z ; DirectX::XMLoadFloat3
  000f8	0f 29 85 50 ff
	ff ff		 movaps	 XMMWORD PTR $T12[ebp], xmm0
  000ff	0f 28 85 50 ff
	ff ff		 movaps	 xmm0, XMMWORD PTR $T12[ebp]
  00106	0f 29 85 60 ff
	ff ff		 movaps	 XMMWORD PTR _vKeyboardDirection$[ebp], xmm0
; Line 551
  0010d	8b 4d fc	 mov	 ecx, DWORD PTR _this$[ebp]
  00110	81 c1 78 01 00
	00		 add	 ecx, 376		; 00000178H
  00116	e8 00 00 00 00	 call	 ?XMLoadFloat3@DirectX@@YQ?AT__m128@@PBUXMFLOAT3@1@@Z ; DirectX::XMLoadFloat3
  0011b	0f 29 85 30 ff
	ff ff		 movaps	 XMMWORD PTR $T11[ebp], xmm0
  00122	0f 28 85 30 ff
	ff ff		 movaps	 xmm0, XMMWORD PTR $T11[ebp]
  00129	0f 29 85 40 ff
	ff ff		 movaps	 XMMWORD PTR _vGamePadLeftThumb$[ebp], xmm0
; Line 552
  00130	0f 28 8d 40 ff
	ff ff		 movaps	 xmm1, XMMWORD PTR _vGamePadLeftThumb$[ebp]
  00137	0f 28 85 60 ff
	ff ff		 movaps	 xmm0, XMMWORD PTR _vKeyboardDirection$[ebp]
  0013e	e8 00 00 00 00	 call	 ??HDirectX@@YQ?AT__m128@@T1@0@Z ; DirectX::operator+
  00143	0f 29 85 f0 fe
	ff ff		 movaps	 XMMWORD PTR $T10[ebp], xmm0
  0014a	0f 28 85 f0 fe
	ff ff		 movaps	 xmm0, XMMWORD PTR $T10[ebp]
  00151	0f 29 85 10 ff
	ff ff		 movaps	 XMMWORD PTR _vAccel$[ebp], xmm0
; Line 556
  00158	0f 28 85 10 ff
	ff ff		 movaps	 xmm0, XMMWORD PTR _vAccel$[ebp]
  0015f	e8 00 00 00 00	 call	 ?XMVector3Normalize@DirectX@@YQ?AT__m128@@T2@@Z ; DirectX::XMVector3Normalize
  00164	0f 29 85 e0 fe
	ff ff		 movaps	 XMMWORD PTR $T9[ebp], xmm0
  0016b	0f 28 85 e0 fe
	ff ff		 movaps	 xmm0, XMMWORD PTR $T9[ebp]
  00172	0f 29 85 10 ff
	ff ff		 movaps	 XMMWORD PTR _vAccel$[ebp], xmm0
; Line 559
  00179	8b 45 fc	 mov	 eax, DWORD PTR _this$[ebp]
  0017c	51		 push	 ecx
  0017d	f3 0f 10 80 68
	02 00 00	 movss	 xmm0, DWORD PTR [eax+616]
  00185	f3 0f 11 04 24	 movss	 DWORD PTR [esp], xmm0
  0018a	8d 8d 10 ff ff
	ff		 lea	 ecx, DWORD PTR _vAccel$[ebp]
  00190	51		 push	 ecx
  00191	e8 00 00 00 00	 call	 ??XDirectX@@YAAAT__m128@@AAT1@M@Z ; DirectX::operator*=
  00196	83 c4 08	 add	 esp, 8
; Line 561
  00199	8b 55 fc	 mov	 edx, DWORD PTR _this$[ebp]
  0019c	0f b6 82 6f 02
	00 00		 movzx	 eax, BYTE PTR [edx+623]
  001a3	85 c0		 test	 eax, eax
  001a5	0f 84 87 01 00
	00		 je	 $LN6@UpdateVelo
; Line 564
  001ab	0f 28 85 10 ff
	ff ff		 movaps	 xmm0, XMMWORD PTR _vAccel$[ebp]
  001b2	e8 00 00 00 00	 call	 ?XMVector3LengthSq@DirectX@@YQ?AT__m128@@T2@@Z ; DirectX::XMVector3LengthSq
  001b7	0f 29 85 d0 fe
	ff ff		 movaps	 XMMWORD PTR $T8[ebp], xmm0
  001be	0f 28 85 d0 fe
	ff ff		 movaps	 xmm0, XMMWORD PTR $T8[ebp]
  001c5	e8 00 00 00 00	 call	 ?XMVectorGetX@DirectX@@YQMT__m128@@@Z ; DirectX::XMVectorGetX
  001ca	0f 2f 05 00 00
	00 00		 comiss	 xmm0, DWORD PTR __real@00000000
  001d1	76 5f		 jbe	 SHORT $LN5@UpdateVelo
; Line 570
  001d3	0f 28 85 10 ff
	ff ff		 movaps	 xmm0, XMMWORD PTR _vAccel$[ebp]
  001da	8b 4d fc	 mov	 ecx, DWORD PTR _this$[ebp]
  001dd	81 c1 2c 02 00
	00		 add	 ecx, 556		; 0000022cH
  001e3	e8 00 00 00 00	 call	 ?XMStoreFloat3@DirectX@@YQXPAUXMFLOAT3@1@T__m128@@@Z ; DirectX::XMStoreFloat3
; Line 572
  001e8	8b 4d fc	 mov	 ecx, DWORD PTR _this$[ebp]
  001eb	8b 55 fc	 mov	 edx, DWORD PTR _this$[ebp]
  001ee	8b 82 48 02 00
	00		 mov	 eax, DWORD PTR [edx+584]
  001f4	89 81 44 02 00
	00		 mov	 DWORD PTR [ecx+580], eax
; Line 574
  001fa	0f 28 85 10 ff
	ff ff		 movaps	 xmm0, XMMWORD PTR _vAccel$[ebp]
  00201	8b 4d fc	 mov	 ecx, DWORD PTR _this$[ebp]
  00204	f3 0f 10 89 44
	02 00 00	 movss	 xmm1, DWORD PTR [ecx+580]
  0020c	e8 00 00 00 00	 call	 ??KDirectX@@YQ?AT__m128@@T1@M@Z ; DirectX::operator/
  00211	0f 29 85 c0 fe
	ff ff		 movaps	 XMMWORD PTR $T7[ebp], xmm0
  00218	0f 28 85 c0 fe
	ff ff		 movaps	 xmm0, XMMWORD PTR $T7[ebp]
  0021f	8b 4d fc	 mov	 ecx, DWORD PTR _this$[ebp]
  00222	81 c1 38 02 00
	00		 add	 ecx, 568		; 00000238H
  00228	e8 00 00 00 00	 call	 ?XMStoreFloat3@DirectX@@YQXPAUXMFLOAT3@1@T__m128@@@Z ; DirectX::XMStoreFloat3
; Line 576
  0022d	e9 fe 00 00 00	 jmp	 $LN2@UpdateVelo
$LN5@UpdateVelo:
; Line 579
  00232	8b 55 fc	 mov	 edx, DWORD PTR _this$[ebp]
  00235	f3 0f 10 82 44
	02 00 00	 movss	 xmm0, DWORD PTR [edx+580]
  0023d	0f 2f 05 00 00
	00 00		 comiss	 xmm0, DWORD PTR __real@00000000
  00244	0f 86 a2 00 00
	00		 jbe	 $LN3@UpdateVelo
; Line 582
  0024a	8b 4d fc	 mov	 ecx, DWORD PTR _this$[ebp]
  0024d	81 c1 2c 02 00
	00		 add	 ecx, 556		; 0000022cH
  00253	e8 00 00 00 00	 call	 ?XMLoadFloat3@DirectX@@YQ?AT__m128@@PBUXMFLOAT3@1@@Z ; DirectX::XMLoadFloat3
  00258	0f 29 85 80 fe
	ff ff		 movaps	 XMMWORD PTR $T5[ebp], xmm0
  0025f	0f 28 85 80 fe
	ff ff		 movaps	 xmm0, XMMWORD PTR $T5[ebp]
  00266	0f 29 85 a0 fe
	ff ff		 movaps	 XMMWORD PTR _vVelocity$6[ebp], xmm0
; Line 583
  0026d	8b 4d fc	 mov	 ecx, DWORD PTR _this$[ebp]
  00270	81 c1 38 02 00
	00		 add	 ecx, 568		; 00000238H
  00276	e8 00 00 00 00	 call	 ?XMLoadFloat3@DirectX@@YQ?AT__m128@@PBUXMFLOAT3@1@@Z ; DirectX::XMLoadFloat3
  0027b	0f 29 85 60 fe
	ff ff		 movaps	 XMMWORD PTR $T3[ebp], xmm0
  00282	0f 28 85 60 fe
	ff ff		 movaps	 xmm0, XMMWORD PTR $T3[ebp]
  00289	0f 29 85 70 fe
	ff ff		 movaps	 XMMWORD PTR _vVelocityDrag$4[ebp], xmm0
; Line 585
  00290	0f 28 85 70 fe
	ff ff		 movaps	 xmm0, XMMWORD PTR _vVelocityDrag$4[ebp]
  00297	f3 0f 10 4b 08	 movss	 xmm1, DWORD PTR _fElapsedTime$[ebx]
  0029c	e8 00 00 00 00	 call	 ??DDirectX@@YQ?AT__m128@@T1@M@Z ; DirectX::operator*
  002a1	0f 29 85 50 fe
	ff ff		 movaps	 XMMWORD PTR $T2[ebp], xmm0
  002a8	0f 28 85 50 fe
	ff ff		 movaps	 xmm0, XMMWORD PTR $T2[ebp]
  002af	8d 8d a0 fe ff
	ff		 lea	 ecx, DWORD PTR _vVelocity$6[ebp]
  002b5	e8 00 00 00 00	 call	 ??ZDirectX@@YQAAT__m128@@AAT1@T1@@Z ; DirectX::operator-=
; Line 587
  002ba	0f 28 85 a0 fe
	ff ff		 movaps	 xmm0, XMMWORD PTR _vVelocity$6[ebp]
  002c1	8b 4d fc	 mov	 ecx, DWORD PTR _this$[ebp]
  002c4	81 c1 2c 02 00
	00		 add	 ecx, 556		; 0000022cH
  002ca	e8 00 00 00 00	 call	 ?XMStoreFloat3@DirectX@@YQXPAUXMFLOAT3@1@T__m128@@@Z ; DirectX::XMStoreFloat3
; Line 589
  002cf	8b 45 fc	 mov	 eax, DWORD PTR _this$[ebp]
  002d2	f3 0f 10 80 44
	02 00 00	 movss	 xmm0, DWORD PTR [eax+580]
  002da	f3 0f 5c 43 08	 subss	 xmm0, DWORD PTR _fElapsedTime$[ebx]
  002df	8b 4d fc	 mov	 ecx, DWORD PTR _this$[ebp]
  002e2	f3 0f 11 81 44
	02 00 00	 movss	 DWORD PTR [ecx+580], xmm0
; Line 591
  002ea	eb 44		 jmp	 SHORT $LN2@UpdateVelo
$LN3@UpdateVelo:
; Line 594
  002ec	51		 push	 ecx
  002ed	f3 0f 10 05 00
	00 00 00	 movss	 xmm0, DWORD PTR __real@00000000
  002f5	f3 0f 11 04 24	 movss	 DWORD PTR [esp], xmm0
  002fa	51		 push	 ecx
  002fb	f3 0f 10 05 00
	00 00 00	 movss	 xmm0, DWORD PTR __real@00000000
  00303	f3 0f 11 04 24	 movss	 DWORD PTR [esp], xmm0
  00308	51		 push	 ecx
  00309	f3 0f 10 05 00
	00 00 00	 movss	 xmm0, DWORD PTR __real@00000000
  00311	f3 0f 11 04 24	 movss	 DWORD PTR [esp], xmm0
  00316	8d 8d 44 fe ff
	ff		 lea	 ecx, DWORD PTR $T1[ebp]
  0031c	e8 00 00 00 00	 call	 ??0XMFLOAT3@DirectX@@QAE@MMM@Z ; DirectX::XMFLOAT3::XMFLOAT3
  00321	50		 push	 eax
  00322	8b 4d fc	 mov	 ecx, DWORD PTR _this$[ebp]
  00325	81 c1 2c 02 00
	00		 add	 ecx, 556		; 0000022cH
