; Listing generated by Microsoft (R) Optimizing Compiler Version 18.00.30501.0 

	TITLE	D:\Engine Class\Assignment 1\Scratch\DXSSE\DXUT\Optional\DXUTcamera.cpp
	.686P
	.XMM
	include listing.inc
	.model	flat

INCLUDELIB MSVCRTD
INCLUDELIB OLDNAMES

PUBLIC	?g_XMSinCoefficients0@DirectX@@3UXMVECTORF32@1@B ; DirectX::g_XMSinCoefficients0
PUBLIC	?g_XMSinCoefficients1@DirectX@@3UXMVECTORF32@1@B ; DirectX::g_XMSinCoefficients1
PUBLIC	?g_XMCosCoefficients0@DirectX@@3UXMVECTORF32@1@B ; DirectX::g_XMCosCoefficients0
PUBLIC	?g_XMCosCoefficients1@DirectX@@3UXMVECTORF32@1@B ; DirectX::g_XMCosCoefficients1
PUBLIC	?g_XMIdentityR0@DirectX@@3UXMVECTORF32@1@B	; DirectX::g_XMIdentityR0
PUBLIC	?g_XMIdentityR1@DirectX@@3UXMVECTORF32@1@B	; DirectX::g_XMIdentityR1
PUBLIC	?g_XMIdentityR2@DirectX@@3UXMVECTORF32@1@B	; DirectX::g_XMIdentityR2
PUBLIC	?g_XMIdentityR3@DirectX@@3UXMVECTORF32@1@B	; DirectX::g_XMIdentityR3
PUBLIC	?g_XMNegativeZero@DirectX@@3UXMVECTORI32@1@B	; DirectX::g_XMNegativeZero
PUBLIC	?g_XMMask3@DirectX@@3UXMVECTORI32@1@B		; DirectX::g_XMMask3
PUBLIC	?g_XMMaskY@DirectX@@3UXMVECTORI32@1@B		; DirectX::g_XMMaskY
PUBLIC	?g_XMOne@DirectX@@3UXMVECTORF32@1@B		; DirectX::g_XMOne
PUBLIC	?g_XMZero@DirectX@@3UXMVECTORF32@1@B		; DirectX::g_XMZero
PUBLIC	?g_XMNegativeOne@DirectX@@3UXMVECTORF32@1@B	; DirectX::g_XMNegativeOne
PUBLIC	?g_XMOneHalf@DirectX@@3UXMVECTORF32@1@B		; DirectX::g_XMOneHalf
PUBLIC	?g_XMInfinity@DirectX@@3UXMVECTORI32@1@B	; DirectX::g_XMInfinity
PUBLIC	?g_XMQNaN@DirectX@@3UXMVECTORI32@1@B		; DirectX::g_XMQNaN
PUBLIC	?g_XMAbsMask@DirectX@@3UXMVECTORI32@1@B		; DirectX::g_XMAbsMask
PUBLIC	?g_XMSelect1110@DirectX@@3UXMVECTORI32@1@B	; DirectX::g_XMSelect1110
CONST	SEGMENT
_XM_PI	DD	040490fdbr			; 3.14159
_XM_2PI	DD	040c90fdbr			; 6.28319
_XM_1DIV2PI DD	03e22f983r			; 0.159155
_XM_PIDIV2 DD	03fc90fdbr			; 1.5708
CONST	ENDS
;	COMDAT ?g_XMSelect1110@DirectX@@3UXMVECTORI32@1@B
CONST	SEGMENT
?g_XMSelect1110@DirectX@@3UXMVECTORI32@1@B DD 0ffffffffH ; DirectX::g_XMSelect1110
	DD	0ffffffffH
	DD	0ffffffffH
	DD	00H
CONST	ENDS
;	COMDAT ?g_XMAbsMask@DirectX@@3UXMVECTORI32@1@B
CONST	SEGMENT
?g_XMAbsMask@DirectX@@3UXMVECTORI32@1@B DD 07fffffffH	; DirectX::g_XMAbsMask
	DD	07fffffffH
	DD	07fffffffH
	DD	07fffffffH
CONST	ENDS
;	COMDAT ?g_XMQNaN@DirectX@@3UXMVECTORI32@1@B
CONST	SEGMENT
?g_XMQNaN@DirectX@@3UXMVECTORI32@1@B DD 07fc00000H	; DirectX::g_XMQNaN
	DD	07fc00000H
	DD	07fc00000H
	DD	07fc00000H
CONST	ENDS
;	COMDAT ?g_XMInfinity@DirectX@@3UXMVECTORI32@1@B
CONST	SEGMENT
?g_XMInfinity@DirectX@@3UXMVECTORI32@1@B DD 07f800000H	; DirectX::g_XMInfinity
	DD	07f800000H
	DD	07f800000H
	DD	07f800000H
CONST	ENDS
;	COMDAT ?g_XMOneHalf@DirectX@@3UXMVECTORF32@1@B
CONST	SEGMENT
?g_XMOneHalf@DirectX@@3UXMVECTORF32@1@B DD 03f000000r ; 0.5 ; DirectX::g_XMOneHalf
	DD	03f000000r			; 0.5
	DD	03f000000r			; 0.5
	DD	03f000000r			; 0.5
CONST	ENDS
;	COMDAT ?g_XMNegativeOne@DirectX@@3UXMVECTORF32@1@B
CONST	SEGMENT
?g_XMNegativeOne@DirectX@@3UXMVECTORF32@1@B DD 0bf800000r ; -1 ; DirectX::g_XMNegativeOne
	DD	0bf800000r			; -1
	DD	0bf800000r			; -1
	DD	0bf800000r			; -1
CONST	ENDS
;	COMDAT ?g_XMZero@DirectX@@3UXMVECTORF32@1@B
CONST	SEGMENT
?g_XMZero@DirectX@@3UXMVECTORF32@1@B DD 000000000r ; 0	; DirectX::g_XMZero
	DD	000000000r			; 0
	DD	000000000r			; 0
	DD	000000000r			; 0
CONST	ENDS
;	COMDAT ?g_XMOne@DirectX@@3UXMVECTORF32@1@B
CONST	SEGMENT
?g_XMOne@DirectX@@3UXMVECTORF32@1@B DD 03f800000r ; 1	; DirectX::g_XMOne
	DD	03f800000r			; 1
	DD	03f800000r			; 1
	DD	03f800000r			; 1
CONST	ENDS
;	COMDAT ?g_XMMaskY@DirectX@@3UXMVECTORI32@1@B
CONST	SEGMENT
?g_XMMaskY@DirectX@@3UXMVECTORI32@1@B DD 00H		; DirectX::g_XMMaskY
	DD	0ffffffffH
	DD	00H
	DD	00H
CONST	ENDS
;	COMDAT ?g_XMMask3@DirectX@@3UXMVECTORI32@1@B
CONST	SEGMENT
?g_XMMask3@DirectX@@3UXMVECTORI32@1@B DD 0ffffffffH	; DirectX::g_XMMask3
	DD	0ffffffffH
	DD	0ffffffffH
	DD	00H
CONST	ENDS
;	COMDAT ?g_XMNegativeZero@DirectX@@3UXMVECTORI32@1@B
CONST	SEGMENT
?g_XMNegativeZero@DirectX@@3UXMVECTORI32@1@B DD 080000000H ; DirectX::g_XMNegativeZero
	DD	080000000H
	DD	080000000H
	DD	080000000H
CONST	ENDS
;	COMDAT ?g_XMIdentityR3@DirectX@@3UXMVECTORF32@1@B
CONST	SEGMENT
?g_XMIdentityR3@DirectX@@3UXMVECTORF32@1@B DD 000000000r ; 0 ; DirectX::g_XMIdentityR3
	DD	000000000r			; 0
	DD	000000000r			; 0
	DD	03f800000r			; 1
CONST	ENDS
;	COMDAT ?g_XMIdentityR2@DirectX@@3UXMVECTORF32@1@B
CONST	SEGMENT
?g_XMIdentityR2@DirectX@@3UXMVECTORF32@1@B DD 000000000r ; 0 ; DirectX::g_XMIdentityR2
	DD	000000000r			; 0
	DD	03f800000r			; 1
	DD	000000000r			; 0
CONST	ENDS
;	COMDAT ?g_XMIdentityR1@DirectX@@3UXMVECTORF32@1@B
CONST	SEGMENT
?g_XMIdentityR1@DirectX@@3UXMVECTORF32@1@B DD 000000000r ; 0 ; DirectX::g_XMIdentityR1
	DD	03f800000r			; 1
	DD	000000000r			; 0
	DD	000000000r			; 0
CONST	ENDS
;	COMDAT ?g_XMIdentityR0@DirectX@@3UXMVECTORF32@1@B
CONST	SEGMENT
?g_XMIdentityR0@DirectX@@3UXMVECTORF32@1@B DD 03f800000r ; 1 ; DirectX::g_XMIdentityR0
	DD	000000000r			; 0
	DD	000000000r			; 0
	DD	000000000r			; 0
CONST	ENDS
;	COMDAT ?g_XMCosCoefficients1@DirectX@@3UXMVECTORF32@1@B
CONST	SEGMENT
?g_XMCosCoefficients1@DirectX@@3UXMVECTORF32@1@B DD 0b48bdd11r ; -2.60516e-007 ; DirectX::g_XMCosCoefficients1
	DD	0befff67er			; -0.499927
	DD	03d29f587r			; 0.0414939
	DD	0baa69fdbr			; -0.00127124
CONST	ENDS
;	COMDAT ?g_XMCosCoefficients0@DirectX@@3UXMVECTORF32@1@B
CONST	SEGMENT
?g_XMCosCoefficients0@DirectX@@3UXMVECTORF32@1@B DD 0bf000000r ; -0.5 ; DirectX::g_XMCosCoefficients0
	DD	03d2aaaa3r			; 0.0416666
	DD	0bab609aar			; -0.00138884
	DD	037cfb4c2r			; 2.47605e-005
CONST	ENDS
;	COMDAT ?g_XMSinCoefficients1@DirectX@@3UXMVECTORF32@1@B
CONST	SEGMENT
?g_XMSinCoefficients1@DirectX@@3UXMVECTORF32@1@B DD 0b2cd365br ; -2.38899e-008 ; DirectX::g_XMSinCoefficients1
	DD	0be2aa888r			; -0.166659
	DD	03c08373cr			; 0.00831395
	DD	0b9423ec8r			; -0.000185247
CONST	ENDS
;	COMDAT ?g_XMSinCoefficients0@DirectX@@3UXMVECTORF32@1@B
CONST	SEGMENT
?g_XMSinCoefficients0@DirectX@@3UXMVECTORF32@1@B DD 0be2aaaabr ; -0.166667 ; DirectX::g_XMSinCoefficients0
	DD	03c088886r			; 0.00833333
	DD	0b9500bf1r			; -0.000198409
	DD	03638b88er			; 2.75256e-006
CONST	ENDS
PUBLIC	_atan2f
PUBLIC	_fabsf
PUBLIC	_sqrtf
PUBLIC	??BXMVECTORF32@DirectX@@QBE?AT__m128@@XZ	; DirectX::XMVECTORF32::operator __m128
PUBLIC	??BXMVECTORI32@DirectX@@QBE?AT__m128@@XZ	; DirectX::XMVECTORI32::operator __m128
PUBLIC	??BXMVECTORU32@DirectX@@QBE?AT__m128@@XZ	; DirectX::XMVECTORU32::operator __m128
PUBLIC	??YDirectX@@YQAAT__m128@@AAT1@T1@@Z		; DirectX::operator+=
PUBLIC	??ZDirectX@@YQAAT__m128@@AAT1@T1@@Z		; DirectX::operator-=
PUBLIC	??XDirectX@@YAAAT__m128@@AAT1@M@Z		; DirectX::operator*=
PUBLIC	??HDirectX@@YQ?AT__m128@@T1@0@Z			; DirectX::operator+
PUBLIC	??GDirectX@@YQ?AT__m128@@T1@0@Z			; DirectX::operator-
PUBLIC	??DDirectX@@YQ?AT__m128@@T1@M@Z			; DirectX::operator*
PUBLIC	??KDirectX@@YQ?AT__m128@@T1@M@Z			; DirectX::operator/
PUBLIC	??0XMMATRIX@DirectX@@QAE@XZ			; DirectX::XMMATRIX::XMMATRIX
PUBLIC	??4XMMATRIX@DirectX@@QAEAAU01@ABU01@@Z		; DirectX::XMMATRIX::operator=
PUBLIC	??XXMMATRIX@DirectX@@QAQAAU01@U01@@Z		; DirectX::XMMATRIX::operator*=
PUBLIC	??DXMMATRIX@DirectX@@QBQ?AU01@U01@@Z		; DirectX::XMMATRIX::operator*
PUBLIC	??0XMFLOAT2@DirectX@@QAE@XZ			; DirectX::XMFLOAT2::XMFLOAT2
PUBLIC	??0XMFLOAT2@DirectX@@QAE@MM@Z			; DirectX::XMFLOAT2::XMFLOAT2
PUBLIC	??4XMFLOAT2@DirectX@@QAEAAU01@ABU01@@Z		; DirectX::XMFLOAT2::operator=
PUBLIC	??0XMFLOAT3@DirectX@@QAE@XZ			; DirectX::XMFLOAT3::XMFLOAT3
PUBLIC	??0XMFLOAT3@DirectX@@QAE@MMM@Z			; DirectX::XMFLOAT3::XMFLOAT3
PUBLIC	??4XMFLOAT3@DirectX@@QAEAAU01@ABU01@@Z		; DirectX::XMFLOAT3::operator=
PUBLIC	??0XMFLOAT4@DirectX@@QAE@XZ			; DirectX::XMFLOAT4::XMFLOAT4
PUBLIC	??4XMFLOAT4@DirectX@@QAEAAU01@ABU01@@Z		; DirectX::XMFLOAT4::operator=
PUBLIC	??0XMFLOAT4X4@DirectX@@QAE@XZ			; DirectX::XMFLOAT4X4::XMFLOAT4X4
PUBLIC	?XMLoadFloat2@DirectX@@YQ?AT__m128@@PBUXMFLOAT2@1@@Z ; DirectX::XMLoadFloat2
PUBLIC	?XMLoadFloat3@DirectX@@YQ?AT__m128@@PBUXMFLOAT3@1@@Z ; DirectX::XMLoadFloat3
PUBLIC	?XMLoadFloat4@DirectX@@YQ?AT__m128@@PBUXMFLOAT4@1@@Z ; DirectX::XMLoadFloat4
PUBLIC	?XMLoadFloat4x4@DirectX@@YQ?AUXMMATRIX@1@PBUXMFLOAT4X4@1@@Z ; DirectX::XMLoadFloat4x4
PUBLIC	?XMStoreFloat2@DirectX@@YQXPAUXMFLOAT2@1@T__m128@@@Z ; DirectX::XMStoreFloat2
PUBLIC	?XMStoreFloat3@DirectX@@YQXPAUXMFLOAT3@1@T__m128@@@Z ; DirectX::XMStoreFloat3
PUBLIC	?XMStoreFloat4@DirectX@@YQXPAUXMFLOAT4@1@T__m128@@@Z ; DirectX::XMStoreFloat4
PUBLIC	?XMStoreFloat4x4@DirectX@@YQXPAUXMFLOAT4X4@1@UXMMATRIX@1@@Z ; DirectX::XMStoreFloat4x4
PUBLIC	?XMVectorZero@DirectX@@YQ?AT__m128@@XZ		; DirectX::XMVectorZero
PUBLIC	?XMVectorSet@DirectX@@YQ?AT__m128@@MMMM@Z	; DirectX::XMVectorSet
PUBLIC	?XMVectorReplicate@DirectX@@YQ?AT__m128@@M@Z	; DirectX::XMVectorReplicate
PUBLIC	?XMVectorSplatX@DirectX@@YQ?AT__m128@@T2@@Z	; DirectX::XMVectorSplatX
PUBLIC	?XMVectorSplatY@DirectX@@YQ?AT__m128@@T2@@Z	; DirectX::XMVectorSplatY
PUBLIC	?XMVectorSplatZ@DirectX@@YQ?AT__m128@@T2@@Z	; DirectX::XMVectorSplatZ
PUBLIC	?XMVectorSplatW@DirectX@@YQ?AT__m128@@T2@@Z	; DirectX::XMVectorSplatW
PUBLIC	?XMVectorGetX@DirectX@@YQMT__m128@@@Z		; DirectX::XMVectorGetX
PUBLIC	?XMVectorSelect@DirectX@@YQ?AT__m128@@T2@00@Z	; DirectX::XMVectorSelect
PUBLIC	?XMVectorRound@DirectX@@YQ?AT__m128@@T2@@Z	; DirectX::XMVectorRound
PUBLIC	?XMVectorClamp@DirectX@@YQ?AT__m128@@T2@00@Z	; DirectX::XMVectorClamp
PUBLIC	?XMVectorNegate@DirectX@@YQ?AT__m128@@T2@@Z	; DirectX::XMVectorNegate
PUBLIC	?XMVectorAdd@DirectX@@YQ?AT__m128@@T2@0@Z	; DirectX::XMVectorAdd
PUBLIC	?XMVectorSubtract@DirectX@@YQ?AT__m128@@T2@0@Z	; DirectX::XMVectorSubtract
PUBLIC	?XMVectorMultiply@DirectX@@YQ?AT__m128@@T2@0@Z	; DirectX::XMVectorMultiply
PUBLIC	?XMVectorMultiplyAdd@DirectX@@YQ?AT__m128@@T2@00@Z ; DirectX::XMVectorMultiplyAdd
PUBLIC	?XMVectorDivide@DirectX@@YQ?AT__m128@@T2@0@Z	; DirectX::XMVectorDivide
PUBLIC	?XMVectorScale@DirectX@@YQ?AT__m128@@T2@M@Z	; DirectX::XMVectorScale
PUBLIC	?XMVectorModAngles@DirectX@@YQ?AT__m128@@T2@@Z	; DirectX::XMVectorModAngles
PUBLIC	?XMVectorSinCos@DirectX@@YQXPAT__m128@@0T2@@Z	; DirectX::XMVectorSinCos
PUBLIC	?XMVector3Equal@DirectX@@YQ_NT__m128@@0@Z	; DirectX::XMVector3Equal
PUBLIC	?XMVector3IsInfinite@DirectX@@YQ_NT__m128@@@Z	; DirectX::XMVector3IsInfinite
PUBLIC	?XMVector3Dot@DirectX@@YQ?AT__m128@@T2@0@Z	; DirectX::XMVector3Dot
PUBLIC	?XMVector3Cross@DirectX@@YQ?AT__m128@@T2@0@Z	; DirectX::XMVector3Cross
PUBLIC	?XMVector3LengthSq@DirectX@@YQ?AT__m128@@T2@@Z	; DirectX::XMVector3LengthSq
PUBLIC	?XMVector3Length@DirectX@@YQ?AT__m128@@T2@@Z	; DirectX::XMVector3Length
PUBLIC	?XMVector3Normalize@DirectX@@YQ?AT__m128@@T2@@Z	; DirectX::XMVector3Normalize
PUBLIC	?XMVector3TransformCoord@DirectX@@YQ?AT__m128@@T2@UXMMATRIX@1@@Z ; DirectX::XMVector3TransformCoord
PUBLIC	?XMVector3TransformNormal@DirectX@@YQ?AT__m128@@T2@UXMMATRIX@1@@Z ; DirectX::XMVector3TransformNormal
PUBLIC	?XMVector4LessOrEqual@DirectX@@YQ_NT__m128@@0@Z	; DirectX::XMVector4LessOrEqual
PUBLIC	?XMVector4Dot@DirectX@@YQ?AT__m128@@T2@0@Z	; DirectX::XMVector4Dot
PUBLIC	?XMVector4Length@DirectX@@YQ?AT__m128@@T2@@Z	; DirectX::XMVector4Length
PUBLIC	?XMMatrixMultiply@DirectX@@YQ?AUXMMATRIX@1@U21@ABU21@@Z ; DirectX::XMMatrixMultiply
PUBLIC	?XMMatrixTranspose@DirectX@@YQ?AUXMMATRIX@1@U21@@Z ; DirectX::XMMatrixTranspose
PUBLIC	?XMMatrixInverse@DirectX@@YQ?AUXMMATRIX@1@PAT__m128@@U21@@Z ; DirectX::XMMatrixInverse
PUBLIC	?XMMatrixIdentity@DirectX@@YQ?AUXMMATRIX@1@XZ	; DirectX::XMMatrixIdentity
PUBLIC	?XMMatrixTranslation@DirectX@@YQ?AUXMMATRIX@1@MMM@Z ; DirectX::XMMatrixTranslation
PUBLIC	?XMMatrixRotationRollPitchYaw@DirectX@@YQ?AUXMMATRIX@1@MMM@Z ; DirectX::XMMatrixRotationRollPitchYaw
PUBLIC	?XMMatrixRotationRollPitchYawFromVector@DirectX@@YQ?AUXMMATRIX@1@T__m128@@@Z ; DirectX::XMMatrixRotationRollPitchYawFromVector
PUBLIC	?XMMatrixRotationQuaternion@DirectX@@YQ?AUXMMATRIX@1@T__m128@@@Z ; DirectX::XMMatrixRotationQuaternion
PUBLIC	?XMMatrixLookAtLH@DirectX@@YQ?AUXMMATRIX@1@T__m128@@00@Z ; DirectX::XMMatrixLookAtLH
PUBLIC	?XMMatrixLookToLH@DirectX@@YQ?AUXMMATRIX@1@T__m128@@00@Z ; DirectX::XMMatrixLookToLH
PUBLIC	?XMMatrixPerspectiveFovLH@DirectX@@YQ?AUXMMATRIX@1@MMMM@Z ; DirectX::XMMatrixPerspectiveFovLH
PUBLIC	?XMQuaternionMultiply@DirectX@@YQ?AT__m128@@T2@0@Z ; DirectX::XMQuaternionMultiply
PUBLIC	?XMQuaternionIdentity@DirectX@@YQ?AT__m128@@XZ	; DirectX::XMQuaternionIdentity
PUBLIC	?XMQuaternionRotationRollPitchYawFromVector@DirectX@@YQ?AT__m128@@T2@@Z ; DirectX::XMQuaternionRotationRollPitchYawFromVector
PUBLIC	?XMQuaternionRotationMatrix@DirectX@@YQ?AT__m128@@UXMMATRIX@1@@Z ; DirectX::XMQuaternionRotationMatrix
PUBLIC	?XMScalarNearEqual@DirectX@@YA_NMMM@Z		; DirectX::XMScalarNearEqual
PUBLIC	?XMScalarSinCos@DirectX@@YAXPAM0M@Z		; DirectX::XMScalarSinCos
PUBLIC	??$XMVectorPermute@$0A@$03$03$03@DirectX@@YQ?AT__m128@@T1@0@Z ; DirectX::XMVectorPermute<0,4,4,4>
PUBLIC	??$XMVectorPermute@$04$00$04$04@DirectX@@YQ?AT__m128@@T1@0@Z ; DirectX::XMVectorPermute<5,1,5,5>
PUBLIC	??$XMVectorPermute@$05$05$01$05@DirectX@@YQ?AT__m128@@T1@0@Z ; DirectX::XMVectorPermute<6,6,2,6>
PUBLIC	?IsStopped@CDXUTTimer@@QBE_NXZ			; CDXUTTimer::IsStopped
PUBLIC	?Permute@?$PermuteHelper@$0A@$0A@$00$00$00@Internal@DirectX@@SQ?AT__m128@@T4@0@Z ; DirectX::Internal::PermuteHelper<0,0,1,1,1>::Permute
PUBLIC	?Permute@?$PermuteHelper@$0FF@$00$0A@$00$00@Internal@DirectX@@SQ?AT__m128@@T4@0@Z ; DirectX::Internal::PermuteHelper<85,1,0,1,1>::Permute
PUBLIC	?Permute@?$PermuteHelper@$0KK@$00$00$0A@$00@Internal@DirectX@@SQ?AT__m128@@T4@0@Z ; DirectX::Internal::PermuteHelper<170,1,1,0,1>::Permute
PUBLIC	??0CD3DArcBall@@QAE@XZ				; CD3DArcBall::CD3DArcBall
PUBLIC	?Reset@CD3DArcBall@@QAEXXZ			; CD3DArcBall::Reset
PUBLIC	?SetWindow@CD3DArcBall@@QAEXHHM@Z		; CD3DArcBall::SetWindow
PUBLIC	?SetOffset@CD3DArcBall@@QAEXHH@Z		; CD3DArcBall::SetOffset
PUBLIC	?OnBegin@CD3DArcBall@@QAEXHH@Z			; CD3DArcBall::OnBegin
PUBLIC	?OnMove@CD3DArcBall@@QAEXHH@Z			; CD3DArcBall::OnMove
PUBLIC	?OnEnd@CD3DArcBall@@QAEXXZ			; CD3DArcBall::OnEnd
PUBLIC	?HandleMessages@CD3DArcBall@@QAEJPAUHWND__@@IIJ@Z ; CD3DArcBall::HandleMessages
PUBLIC	?GetRotationMatrix@CD3DArcBall@@QBE?AUXMMATRIX@DirectX@@XZ ; CD3DArcBall::GetRotationMatrix
PUBLIC	?IsBeingDragged@CD3DArcBall@@QBE_NXZ		; CD3DArcBall::IsBeingDragged
PUBLIC	?SetQuatNow@CD3DArcBall@@QAEXABT__m128@@@Z	; CD3DArcBall::SetQuatNow
PUBLIC	?QuatFromBallPoints@CD3DArcBall@@SA?AT__m128@@T2@0@Z ; CD3DArcBall::QuatFromBallPoints
PUBLIC	?ScreenToVector@CD3DArcBall@@IAE?AT__m128@@MM@Z	; CD3DArcBall::ScreenToVector
PUBLIC	??0CBaseCamera@@QAE@XZ				; CBaseCamera::CBaseCamera
PUBLIC	?HandleMessages@CBaseCamera@@UAEJPAUHWND__@@IIJ@Z ; CBaseCamera::HandleMessages
PUBLIC	?Reset@CBaseCamera@@UAEXXZ			; CBaseCamera::Reset
PUBLIC	?SetViewParams@CBaseCamera@@UAEXT__m128@@0@Z	; CBaseCamera::SetViewParams
PUBLIC	?SetProjParams@CBaseCamera@@UAEXMMMM@Z		; CBaseCamera::SetProjParams
PUBLIC	?SetDragRect@CBaseCamera@@UAEXABUtagRECT@@@Z	; CBaseCamera::SetDragRect
PUBLIC	?MapKey@CBaseCamera@@MAE?AW4D3DUtil_CameraKeys@@I@Z ; CBaseCamera::MapKey
PUBLIC	?IsKeyDown@CBaseCamera@@IBE_NE@Z		; CBaseCamera::IsKeyDown
PUBLIC	?ConstrainToBoundary@CBaseCamera@@IAE?AT__m128@@T2@@Z ; CBaseCamera::ConstrainToBoundary
PUBLIC	?UpdateMouseDelta@CBaseCamera@@IAEXXZ		; CBaseCamera::UpdateMouseDelta
PUBLIC	?UpdateVelocity@CBaseCamera@@IAEXM@Z		; CBaseCamera::UpdateVelocity
PUBLIC	?GetInput@CBaseCamera@@IAEX_N00@Z		; CBaseCamera::GetInput
PUBLIC	??0CFirstPersonCamera@@QAE@XZ			; CFirstPersonCamera::CFirstPersonCamera
PUBLIC	?FrameMove@CFirstPersonCamera@@UAEXM@Z		; CFirstPersonCamera::FrameMove
PUBLIC	?SetRotateButtons@CFirstPersonCamera@@QAEX_N000@Z ; CFirstPersonCamera::SetRotateButtons
PUBLIC	??0CModelViewerCamera@@QAE@XZ			; CModelViewerCamera::CModelViewerCamera
PUBLIC	?HandleMessages@CModelViewerCamera@@UAEJPAUHWND__@@IIJ@Z ; CModelViewerCamera::HandleMessages
PUBLIC	?FrameMove@CModelViewerCamera@@UAEXM@Z		; CModelViewerCamera::FrameMove
PUBLIC	?SetDragRect@CModelViewerCamera@@UAEXABUtagRECT@@@Z ; CModelViewerCamera::SetDragRect
PUBLIC	?Reset@CModelViewerCamera@@UAEXXZ		; CModelViewerCamera::Reset
PUBLIC	?SetViewParams@CModelViewerCamera@@UAEXT__m128@@0@Z ; CModelViewerCamera::SetViewParams
PUBLIC	?SetWindow@CModelViewerCamera@@QAEXHHM@Z	; CModelViewerCamera::SetWindow
PUBLIC	?SetRadius@CModelViewerCamera@@QAEXMMM@Z	; CModelViewerCamera::SetRadius
PUBLIC	??0CDXUTDirectionWidget@@QAE@XZ			; CDXUTDirectionWidget::CDXUTDirectionWidget
PUBLIC	?HandleMessages@CDXUTDirectionWidget@@QAEJPAUHWND__@@IIJ@Z ; CDXUTDirectionWidget::HandleMessages
PUBLIC	?OnRender@CDXUTDirectionWidget@@QAEJT__m128@@ABUXMMATRIX@DirectX@@10@Z ; CDXUTDirectionWidget::OnRender
PUBLIC	?StaticOnD3D11CreateDevice@CDXUTDirectionWidget@@SGJPAUID3D11Device@@PAUID3D11DeviceContext@@@Z ; CDXUTDirectionWidget::StaticOnD3D11CreateDevice
PUBLIC	?StaticOnD3D11DestroyDevice@CDXUTDirectionWidget@@SGXXZ ; CDXUTDirectionWidget::StaticOnD3D11DestroyDevice
PUBLIC	?UpdateLightDir@CDXUTDirectionWidget@@IAEJXZ	; CDXUTDirectionWidget::UpdateLightDir
PUBLIC	??$max@M@std@@YAABMABM0@Z			; std::max<float>
PUBLIC	??$min@M@std@@YAABMABM0@Z			; std::min<float>
PUBLIC	??$_Debug_lt@ABMABM@std@@YA_NABM0PB_WI@Z	; std::_Debug_lt<float const &,float const &>
PUBLIC	??$forward@ABM@std@@YAABMABM@Z			; std::forward<float const &>
PUBLIC	??$_Debug_lt_pred@U?$less@X@std@@ABMABM@std@@YA_NU?$less@X@0@ABM1PB_WI@Z ; std::_Debug_lt_pred<std::less<void>,float const &,float const &>
PUBLIC	??$?RABMABM@?$less@X@std@@QBE_NABM0@Z		; std::less<void>::operator()<float const &,float const &>
PUBLIC	?g_XMHalfPi@DirectX@@3UXMVECTORF32@1@B		; DirectX::g_XMHalfPi
PUBLIC	?g_XMPi@DirectX@@3UXMVECTORF32@1@B		; DirectX::g_XMPi
PUBLIC	?g_XMTwoPi@DirectX@@3UXMVECTORF32@1@B		; DirectX::g_XMTwoPi
PUBLIC	?g_XMReciprocalTwoPi@DirectX@@3UXMVECTORF32@1@B	; DirectX::g_XMReciprocalTwoPi
PUBLIC	??_C@_1JE@EKCDEKPD@?$AAc?$AA?3?$AA?2?$AAp?$AAr?$AAo?$AAg?$AAr?$AAa?$AAm?$AA?5?$AAf?$AAi?$AAl?$AAe?$AAs?$AA?5?$AA?$CI?$AAx?$AA8?$AA6?$AA?$CJ?$AA?2?$AAw?$AAi?$AAn?$AAd?$AAo?$AAw?$AAs?$AA?5?$AAk@ ; `string'
PUBLIC	??_C@_1BA@LBADLIHI@?$AAp?$AAS?$AAo?$AAu?$AAr?$AAc?$AAe?$AA?$AA@ ; `string'
PUBLIC	??_C@_1BK@FHLBGAOP@?$AAp?$AAD?$AAe?$AAs?$AAt?$AAi?$AAn?$AAa?$AAt?$AAi?$AAo?$AAn?$AA?$AA@ ; `string'
PUBLIC	??_C@_1JC@LGEHDEBK@?$AAc?$AA?3?$AA?2?$AAp?$AAr?$AAo?$AAg?$AAr?$AAa?$AAm?$AA?5?$AAf?$AAi?$AAl?$AAe?$AAs?$AA?5?$AA?$CI?$AAx?$AA8?$AA6?$AA?$CJ?$AA?2?$AAw?$AAi?$AAn?$AAd?$AAo?$AAw?$AAs?$AA?5?$AAk@ ; `string'
PUBLIC	?magic@?1??XMVectorRound@DirectX@@YQ?AT__m128@@T3@@Z@4UXMVECTORI32@2@B ; `DirectX::XMVectorRound'::`2'::magic
PUBLIC	??_C@_1DO@HJELAGIP@?$AAX?$AAM?$AAV?$AAe?$AAc?$AAt?$AAo?$AAr?$AA4?$AAL?$AAe?$AAs?$AAs?$AAO?$AAr?$AAE?$AAq?$AAu?$AAa?$AAl?$AA?$CI?$AAM?$AAi?$AAn?$AA?0?$AA?5?$AAM?$AAa?$AAx?$AA?$CJ?$AA?$AA@ ; `string'
PUBLIC	??_C@_1CA@PCMAADPN@?$AAp?$AAS?$AAi?$AAn?$AA?5?$AA?$CB?$AA?$DN?$AA?5?$AAn?$AAu?$AAl?$AAl?$AAp?$AAt?$AAr?$AA?$AA@ ; `string'
PUBLIC	??_C@_1CA@LFGCHHDM@?$AAp?$AAC?$AAo?$AAs?$AA?5?$AA?$CB?$AA?$DN?$AA?5?$AAn?$AAu?$AAl?$AAl?$AAp?$AAt?$AAr?$AA?$AA@ ; `string'
PUBLIC	??_C@_1JC@FPIPICAN@?$AAc?$AA?3?$AA?2?$AAp?$AAr?$AAo?$AAg?$AAr?$AAa?$AAm?$AA?5?$AAf?$AAi?$AAl?$AAe?$AAs?$AA?5?$AA?$CI?$AAx?$AA8?$AA6?$AA?$CJ?$AA?2?$AAw?$AAi?$AAn?$AAd?$AAo?$AAw?$AAs?$AA?5?$AAk@ ; `string'
PUBLIC	?Constant1110@?1??XMMatrixRotationQuaternion@DirectX@@YQ?AUXMMATRIX@2@T__m128@@@Z@4UXMVECTORF32@2@B ; `DirectX::XMMatrixRotationQuaternion'::`2'::Constant1110
PUBLIC	??_C@_1FM@KOIPKFLA@?$AA?$CB?$AAX?$AAM?$AAV?$AAe?$AAc?$AAt?$AAo?$AAr?$AA3?$AAE?$AAq?$AAu?$AAa?$AAl?$AA?$CI?$AAE?$AAy?$AAe?$AAD?$AAi?$AAr?$AAe?$AAc?$AAt?$AAi?$AAo?$AAn?$AA?0?$AA?5?$AAX?$AAM@ ; `string'
PUBLIC	??_C@_1EG@DOFHPLOD@?$AA?$CB?$AAX?$AAM?$AAV?$AAe?$AAc?$AAt?$AAo?$AAr?$AA3?$AAI?$AAs?$AAI?$AAn?$AAf?$AAi?$AAn?$AAi?$AAt?$AAe?$AA?$CI?$AAE?$AAy?$AAe?$AAD?$AAi?$AAr?$AAe?$AAc?$AAt?$AAi?$AAo@ ; `string'
PUBLIC	??_C@_1FK@IBPGMKAB@?$AA?$CB?$AAX?$AAM?$AAV?$AAe?$AAc?$AAt?$AAo?$AAr?$AA3?$AAE?$AAq?$AAu?$AAa?$AAl?$AA?$CI?$AAU?$AAp?$AAD?$AAi?$AAr?$AAe?$AAc?$AAt?$AAi?$AAo?$AAn?$AA?0?$AA?5?$AAX?$AAM?$AAV@ ; `string'
PUBLIC	??_C@_1EE@JAOFAOOK@?$AA?$CB?$AAX?$AAM?$AAV?$AAe?$AAc?$AAt?$AAo?$AAr?$AA3?$AAI?$AAs?$AAI?$AAn?$AAf?$AAi?$AAn?$AAi?$AAt?$AAe?$AA?$CI?$AAU?$AAp?$AAD?$AAi?$AAr?$AAe?$AAc?$AAt?$AAi?$AAo?$AAn@ ; `string'
PUBLIC	??_C@_1FE@IMEJOJAH@?$AA?$CB?$AAX?$AAM?$AAS?$AAc?$AAa?$AAl?$AAa?$AAr?$AAN?$AAe?$AAa?$AAr?$AAE?$AAq?$AAu?$AAa?$AAl?$AA?$CI?$AAF?$AAa?$AAr?$AAZ?$AA?0?$AA?5?$AAN?$AAe?$AAa?$AAr?$AAZ?$AA?0?$AA?5@ ; `string'
PUBLIC	??_C@_1GK@EFPMNDEN@?$AA?$CB?$AAX?$AAM?$AAS?$AAc?$AAa?$AAl?$AAa?$AAr?$AAN?$AAe?$AAa?$AAr?$AAE?$AAq?$AAu?$AAa?$AAl?$AA?$CI?$AAF?$AAo?$AAv?$AAA?$AAn?$AAg?$AAl?$AAe?$AAY?$AA?0?$AA?5?$AA0?$AA?4@ ; `string'
PUBLIC	??_C@_1FO@IACFEINC@?$AA?$CB?$AAX?$AAM?$AAS?$AAc?$AAa?$AAl?$AAa?$AAr?$AAN?$AAe?$AAa?$AAr?$AAE?$AAq?$AAu?$AAa?$AAl?$AA?$CI?$AAA?$AAs?$AAp?$AAe?$AAc?$AAt?$AAH?$AAB?$AAy?$AAW?$AA?0?$AA?5?$AA0@ ; `string'
PUBLIC	?ControlWZYX@?1??XMQuaternionMultiply@DirectX@@YQ?AT__m128@@T3@0@Z@4UXMVECTORF32@2@B ; `DirectX::XMQuaternionMultiply'::`2'::ControlWZYX
PUBLIC	?ControlZWXY@?1??XMQuaternionMultiply@DirectX@@YQ?AT__m128@@T3@0@Z@4UXMVECTORF32@2@B ; `DirectX::XMQuaternionMultiply'::`2'::ControlZWXY
PUBLIC	?ControlYXWZ@?1??XMQuaternionMultiply@DirectX@@YQ?AT__m128@@T3@0@Z@4UXMVECTORF32@2@B ; `DirectX::XMQuaternionMultiply'::`2'::ControlYXWZ
PUBLIC	??_C@_1IO@PAPJGEKF@?$AAc?$AA?3?$AA?2?$AAp?$AAr?$AAo?$AAg?$AAr?$AAa?$AAm?$AA?5?$AAf?$AAi?$AAl?$AAe?$AAs?$AA?5?$AA?$CI?$AAx?$AA8?$AA6?$AA?$CJ?$AA?2?$AAw?$AAi?$AAn?$AAd?$AAo?$AAw?$AAs?$AA?5?$AAk@ ; `string'
PUBLIC	?Sign@?1??XMQuaternionRotationRollPitchYawFromVector@DirectX@@YQ?AT__m128@@T3@@Z@4UXMVECTORF32@2@B ; `DirectX::XMQuaternionRotationRollPitchYawFromVector'::`2'::Sign
PUBLIC	?XMPMMP@?1??XMQuaternionRotationMatrix@DirectX@@YQ?AT__m128@@UXMMATRIX@2@@Z@4UXMVECTORF32@2@B ; `DirectX::XMQuaternionRotationMatrix'::`2'::XMPMMP
PUBLIC	?XMMPMP@?1??XMQuaternionRotationMatrix@DirectX@@YQ?AT__m128@@UXMMATRIX@2@@Z@4UXMVECTORF32@2@B ; `DirectX::XMQuaternionRotationMatrix'::`2'::XMMPMP
PUBLIC	?XMMMPP@?1??XMQuaternionRotationMatrix@DirectX@@YQ?AT__m128@@UXMMATRIX@2@@Z@4UXMVECTORF32@2@B ; `DirectX::XMQuaternionRotationMatrix'::`2'::XMMMPP
PUBLIC	??_C@_19MFJHDIJG@?$AAp?$AAS?$AAi?$AAn?$AA?$AA@	; `string'
PUBLIC	??_C@_19MNAGGFOC@?$AAp?$AAC?$AAo?$AAs?$AA?$AA@	; `string'
PUBLIC	?selectMask@?1??Permute@?$PermuteHelper@$0A@$0A@$00$00$00@Internal@DirectX@@SQ?AT__m128@@T5@0@Z@4UXMVECTORU32@4@B ; `DirectX::Internal::PermuteHelper<0,0,1,1,1>::Permute'::`2'::selectMask
PUBLIC	?selectMask@?1??Permute@?$PermuteHelper@$0FF@$00$0A@$00$00@Internal@DirectX@@SQ?AT__m128@@T5@0@Z@4UXMVECTORU32@4@B ; `DirectX::Internal::PermuteHelper<85,1,0,1,1>::Permute'::`2'::selectMask
PUBLIC	?selectMask@?1??Permute@?$PermuteHelper@$0KK@$00$00$0A@$00@Internal@DirectX@@SQ?AT__m128@@T5@0@Z@4UXMVECTORU32@4@B ; `DirectX::Internal::PermuteHelper<170,1,1,0,1>::Permute'::`2'::selectMask
PUBLIC	??_7CBaseCamera@@6B@				; CBaseCamera::`vftable'
PUBLIC	??_7CFirstPersonCamera@@6B@			; CFirstPersonCamera::`vftable'
PUBLIC	??_7CModelViewerCamera@@6B@			; CModelViewerCamera::`vftable'
PUBLIC	??_C@_1JC@HALMDPKM@?$AAC?$AA?3?$AA?2?$AAP?$AAr?$AAo?$AAg?$AAr?$AAa?$AAm?$AA?5?$AAF?$AAi?$AAl?$AAe?$AAs?$AA?5?$AA?$CI?$AAx?$AA8?$AA6?$AA?$CJ?$AA?2?$AAM?$AAi?$AAc?$AAr?$AAo?$AAs?$AAo?$AAf?$AAt@ ; `string'
PUBLIC	??_C@_1CE@IGJMOCCK@?$AAi?$AAn?$AAv?$AAa?$AAl?$AAi?$AAd?$AA?5?$AAo?$AAp?$AAe?$AAr?$AAa?$AAt?$AAo?$AAr?$AA?$DM?$AA?$AA@ ; `string'
PUBLIC	??_R4CBaseCamera@@6B@				; CBaseCamera::`RTTI Complete Object Locator'
PUBLIC	??_R0?AVCBaseCamera@@@8				; CBaseCamera `RTTI Type Descriptor'
PUBLIC	??_R3CBaseCamera@@8				; CBaseCamera::`RTTI Class Hierarchy Descriptor'
PUBLIC	??_R2CBaseCamera@@8				; CBaseCamera::`RTTI Base Class Array'
PUBLIC	??_R1A@?0A@EA@CBaseCamera@@8			; CBaseCamera::`RTTI Base Class Descriptor at (0,-1,0,64)'
PUBLIC	??_R4CFirstPersonCamera@@6B@			; CFirstPersonCamera::`RTTI Complete Object Locator'
PUBLIC	??_R0?AVCFirstPersonCamera@@@8			; CFirstPersonCamera `RTTI Type Descriptor'
PUBLIC	??_R3CFirstPersonCamera@@8			; CFirstPersonCamera::`RTTI Class Hierarchy Descriptor'
PUBLIC	??_R2CFirstPersonCamera@@8			; CFirstPersonCamera::`RTTI Base Class Array'
PUBLIC	??_R1A@?0A@EA@CFirstPersonCamera@@8		; CFirstPersonCamera::`RTTI Base Class Descriptor at (0,-1,0,64)'
PUBLIC	??_R4CModelViewerCamera@@6B@			; CModelViewerCamera::`RTTI Complete Object Locator'
PUBLIC	??_R0?AVCModelViewerCamera@@@8			; CModelViewerCamera `RTTI Type Descriptor'
PUBLIC	??_R3CModelViewerCamera@@8			; CModelViewerCamera::`RTTI Class Hierarchy Descriptor'
PUBLIC	??_R2CModelViewerCamera@@8			; CModelViewerCamera::`RTTI Base Class Array'
PUBLIC	??_R1A@?0A@EA@CModelViewerCamera@@8		; CModelViewerCamera::`RTTI Base Class Descriptor at (0,-1,0,64)'
PUBLIC	__real@00000000
PUBLIC	__real@0000000000000000
PUBLIC	__real@3638b88e
PUBLIC	__real@3727c5ac
PUBLIC	__real@37a7c5ac
PUBLIC	__real@37cfb4c2
PUBLIC	__real@39500bf1
PUBLIC	__real@3ab609aa
PUBLIC	__real@3c088886
PUBLIC	__real@3c23d70a
PUBLIC	__real@3ca3d70a
PUBLIC	__real@3d2aaaa3
PUBLIC	__real@3dcccccd
PUBLIC	__real@3e2aaaab
PUBLIC	__real@3e800000
PUBLIC	__real@3f000000
PUBLIC	__real@3f666666
PUBLIC	__real@3f800000
PUBLIC	__real@40000000
PUBLIC	__real@40800000
PUBLIC	__real@40a00000
PUBLIC	__real@42f00000
PUBLIC	__real@447a0000
PUBLIC	__real@7f7fffff
PUBLIC	__real@b2cd365b
PUBLIC	__real@b48bdd11
PUBLIC	__real@bf800000
PUBLIC	__real@c0000000
PUBLIC	__xmm@7fffffff7fffffff7fffffff7fffffff
PUBLIC	__xmm@80000000800000008000000080000000
EXTRN	__purecall:PROC
EXTRN	__imp__SetCapture@4:PROC
EXTRN	__imp__ReleaseCapture@0:PROC
EXTRN	__imp__GetForegroundWindow@0:PROC
EXTRN	__imp__GetClientRect@8:PROC
EXTRN	__imp__SetCursorPos@8:PROC
EXTRN	__imp__GetCursorPos@4:PROC
EXTRN	__imp__SetRect@20:PROC
EXTRN	__imp__PtInRect@12:PROC
EXTRN	__imp___wassert:PROC
EXTRN	__imp_?_Debug_message@std@@YAXPB_W0I@Z:PROC
EXTRN	?DXUTGetHWND@@YGPAUHWND__@@XZ:PROC		; DXUTGetHWND
EXTRN	?DXUTGetTime@@YGNXZ:PROC			; DXUTGetTime
EXTRN	?DXUTGetFPS@@YGMXZ:PROC				; DXUTGetFPS
EXTRN	?DXUTIsActive@@YG_NXZ:PROC			; DXUTIsActive
EXTRN	?DXUTGetGamepadState@@YAJKPAUDXUT_GAMEPAD@@_N1@Z:PROC ; DXUTGetGamepadState
EXTRN	?DXUTGetGlobalTimer@@YGPAVCDXUTTimer@@XZ:PROC	; DXUTGetGlobalTimer
EXTRN	?DXUTMonitorFromWindow@@YGPAUHMONITOR__@@PAUHWND__@@K@Z:PROC ; DXUTMonitorFromWindow
EXTRN	?DXUTGetMonitorInfo@@YGHPAUHMONITOR__@@PAUtagMONITORINFO@@@Z:PROC ; DXUTGetMonitorInfo
EXTRN	@_RTC_CheckStackVars@8:PROC
EXTRN	@__security_check_cookie@4:PROC
EXTRN	__RTC_CheckEsp:PROC
EXTRN	__RTC_InitBase:PROC
EXTRN	__RTC_Shutdown:PROC
EXTRN	___libm_sse2_atan2:PROC
EXTRN	_memset:PROC
EXTRN	??_7type_info@@6B@:QWORD			; type_info::`vftable'
EXTRN	___security_cookie:DWORD
EXTRN	__fltused:DWORD
;	COMDAT CRT$XCU
CRT$XCU	SEGMENT
_g_XMHalfPi$initializer$ DD FLAT:??__Eg_XMHalfPi@DirectX@@YAXXZ
CRT$XCU	ENDS
;	COMDAT __xmm@80000000800000008000000080000000
CONST	SEGMENT
__xmm@80000000800000008000000080000000 DB 00H, 00H, 00H, 080H, 00H, 00H, 00H
	DB	080H, 00H, 00H, 00H, 080H, 00H, 00H, 00H, 080H
CONST	ENDS
;	COMDAT __xmm@7fffffff7fffffff7fffffff7fffffff
CONST	SEGMENT
__xmm@7fffffff7fffffff7fffffff7fffffff DB 0ffH, 0ffH, 0ffH, 07fH, 0ffH, 0ffH
	DB	0ffH, 07fH, 0ffH, 0ffH, 0ffH, 07fH, 0ffH, 0ffH, 0ffH, 07fH
CONST	ENDS
;	COMDAT __real@c0000000
CONST	SEGMENT
__real@c0000000 DD 0c0000000r			; -2
CONST	ENDS
;	COMDAT __real@bf800000
CONST	SEGMENT
__real@bf800000 DD 0bf800000r			; -1
CONST	ENDS
;	COMDAT __real@b48bdd11
CONST	SEGMENT
__real@b48bdd11 DD 0b48bdd11r			; -2.60516e-007
CONST	ENDS
;	COMDAT __real@b2cd365b
CONST	SEGMENT
__real@b2cd365b DD 0b2cd365br			; -2.38899e-008
CONST	ENDS
;	COMDAT __real@7f7fffff
CONST	SEGMENT
__real@7f7fffff DD 07f7fffffr			; 3.40282e+038
CONST	ENDS
;	COMDAT __real@447a0000
CONST	SEGMENT
__real@447a0000 DD 0447a0000r			; 1000
CONST	ENDS
;	COMDAT __real@42f00000
CONST	SEGMENT
__real@42f00000 DD 042f00000r			; 120
CONST	ENDS
;	COMDAT __real@40a00000
CONST	SEGMENT
__real@40a00000 DD 040a00000r			; 5
CONST	ENDS
;	COMDAT __real@40800000
CONST	SEGMENT
__real@40800000 DD 040800000r			; 4
CONST	ENDS
;	COMDAT __real@40000000
CONST	SEGMENT
__real@40000000 DD 040000000r			; 2
CONST	ENDS
;	COMDAT __real@3f800000
CONST	SEGMENT
__real@3f800000 DD 03f800000r			; 1
CONST	ENDS
;	COMDAT __real@3f666666
CONST	SEGMENT
__real@3f666666 DD 03f666666r			; 0.9
CONST	ENDS
;	COMDAT __real@3f000000
CONST	SEGMENT
__real@3f000000 DD 03f000000r			; 0.5
CONST	ENDS
;	COMDAT __real@3e800000
CONST	SEGMENT
__real@3e800000 DD 03e800000r			; 0.25
CONST	ENDS
;	COMDAT __real@3e2aaaab
CONST	SEGMENT
__real@3e2aaaab DD 03e2aaaabr			; 0.166667
CONST	ENDS
;	COMDAT __real@3dcccccd
CONST	SEGMENT
__real@3dcccccd DD 03dcccccdr			; 0.1
CONST	ENDS
;	COMDAT __real@3d2aaaa3
CONST	SEGMENT
__real@3d2aaaa3 DD 03d2aaaa3r			; 0.0416666
CONST	ENDS
;	COMDAT __real@3ca3d70a
CONST	SEGMENT
__real@3ca3d70a DD 03ca3d70ar			; 0.02
CONST	ENDS
;	COMDAT __real@3c23d70a
CONST	SEGMENT
__real@3c23d70a DD 03c23d70ar			; 0.01
CONST	ENDS
;	COMDAT __real@3c088886
CONST	SEGMENT
__real@3c088886 DD 03c088886r			; 0.00833333
CONST	ENDS
;	COMDAT __real@3ab609aa
CONST	SEGMENT
__real@3ab609aa DD 03ab609aar			; 0.00138884
CONST	ENDS
;	COMDAT __real@39500bf1
CONST	SEGMENT
__real@39500bf1 DD 039500bf1r			; 0.000198409
CONST	ENDS
;	COMDAT __real@37cfb4c2
CONST	SEGMENT
__real@37cfb4c2 DD 037cfb4c2r			; 2.47605e-005
CONST	ENDS
;	COMDAT __real@37a7c5ac
CONST	SEGMENT
__real@37a7c5ac DD 037a7c5acr			; 2e-005
CONST	ENDS
;	COMDAT __real@3727c5ac
CONST	SEGMENT
__real@3727c5ac DD 03727c5acr			; 1e-005
CONST	ENDS
;	COMDAT __real@3638b88e
CONST	SEGMENT
__real@3638b88e DD 03638b88er			; 2.75256e-006
CONST	ENDS
;	COMDAT __real@0000000000000000
CONST	SEGMENT
__real@0000000000000000 DQ 00000000000000000r	; 0
CONST	ENDS
;	COMDAT __real@00000000
CONST	SEGMENT
__real@00000000 DD 000000000r			; 0
CONST	ENDS
;	COMDAT rtc$TMZ
rtc$TMZ	SEGMENT
__RTC_Shutdown.rtc$TMZ DD FLAT:__RTC_Shutdown
rtc$TMZ	ENDS
;	COMDAT rtc$IMZ
rtc$IMZ	SEGMENT
__RTC_InitBase.rtc$IMZ DD FLAT:__RTC_InitBase
rtc$IMZ	ENDS
;	COMDAT ??_R1A@?0A@EA@CModelViewerCamera@@8
rdata$r	SEGMENT
??_R1A@?0A@EA@CModelViewerCamera@@8 DD FLAT:??_R0?AVCModelViewerCamera@@@8 ; CModelViewerCamera::`RTTI Base Class Descriptor at (0,-1,0,64)'
	DD	01H
	DD	00H
	DD	0ffffffffH
	DD	00H
	DD	040H
	DD	FLAT:??_R3CModelViewerCamera@@8
rdata$r	ENDS
;	COMDAT ??_R2CModelViewerCamera@@8
rdata$r	SEGMENT
??_R2CModelViewerCamera@@8 DD FLAT:??_R1A@?0A@EA@CModelViewerCamera@@8 ; CModelViewerCamera::`RTTI Base Class Array'
	DD	FLAT:??_R1A@?0A@EA@CBaseCamera@@8
rdata$r	ENDS
;	COMDAT ??_R3CModelViewerCamera@@8
rdata$r	SEGMENT
??_R3CModelViewerCamera@@8 DD 00H			; CModelViewerCamera::`RTTI Class Hierarchy Descriptor'
	DD	00H
	DD	02H
	DD	FLAT:??_R2CModelViewerCamera@@8
rdata$r	ENDS
;	COMDAT ??_R0?AVCModelViewerCamera@@@8
data$r	SEGMENT
??_R0?AVCModelViewerCamera@@@8 DD FLAT:??_7type_info@@6B@ ; CModelViewerCamera `RTTI Type Descriptor'
	DD	00H
	DB	'.?AVCModelViewerCamera@@', 00H
data$r	ENDS
;	COMDAT ??_R4CModelViewerCamera@@6B@
rdata$r	SEGMENT
??_R4CModelViewerCamera@@6B@ DD 00H			; CModelViewerCamera::`RTTI Complete Object Locator'
	DD	00H
	DD	00H
	DD	FLAT:??_R0?AVCModelViewerCamera@@@8
	DD	FLAT:??_R3CModelViewerCamera@@8
rdata$r	ENDS
;	COMDAT ??_R1A@?0A@EA@CFirstPersonCamera@@8
rdata$r	SEGMENT
??_R1A@?0A@EA@CFirstPersonCamera@@8 DD FLAT:??_R0?AVCFirstPersonCamera@@@8 ; CFirstPersonCamera::`RTTI Base Class Descriptor at (0,-1,0,64)'
	DD	01H
	DD	00H
	DD	0ffffffffH
	DD	00H
	DD	040H
	DD	FLAT:??_R3CFirstPersonCamera@@8
rdata$r	ENDS
;	COMDAT ??_R2CFirstPersonCamera@@8
rdata$r	SEGMENT
??_R2CFirstPersonCamera@@8 DD FLAT:??_R1A@?0A@EA@CFirstPersonCamera@@8 ; CFirstPersonCamera::`RTTI Base Class Array'
	DD	FLAT:??_R1A@?0A@EA@CBaseCamera@@8
rdata$r	ENDS
;	COMDAT ??_R3CFirstPersonCamera@@8
rdata$r	SEGMENT
??_R3CFirstPersonCamera@@8 DD 00H			; CFirstPersonCamera::`RTTI Class Hierarchy Descriptor'
	DD	00H
	DD	02H
	DD	FLAT:??_R2CFirstPersonCamera@@8
rdata$r	ENDS
;	COMDAT ??_R0?AVCFirstPersonCamera@@@8
data$r	SEGMENT
??_R0?AVCFirstPersonCamera@@@8 DD FLAT:??_7type_info@@6B@ ; CFirstPersonCamera `RTTI Type Descriptor'
	DD	00H
	DB	'.?AVCFirstPersonCamera@@', 00H
data$r	ENDS
;	COMDAT ??_R4CFirstPersonCamera@@6B@
rdata$r	SEGMENT
??_R4CFirstPersonCamera@@6B@ DD 00H			; CFirstPersonCamera::`RTTI Complete Object Locator'
	DD	00H
	DD	00H
	DD	FLAT:??_R0?AVCFirstPersonCamera@@@8
	DD	FLAT:??_R3CFirstPersonCamera@@8
rdata$r	ENDS
;	COMDAT ??_R1A@?0A@EA@CBaseCamera@@8
rdata$r	SEGMENT
??_R1A@?0A@EA@CBaseCamera@@8 DD FLAT:??_R0?AVCBaseCamera@@@8 ; CBaseCamera::`RTTI Base Class Descriptor at (0,-1,0,64)'
	DD	00H
	DD	00H
	DD	0ffffffffH
	DD	00H
	DD	040H
	DD	FLAT:??_R3CBaseCamera@@8
rdata$r	ENDS
;	COMDAT ??_R2CBaseCamera@@8
rdata$r	SEGMENT
??_R2CBaseCamera@@8 DD FLAT:??_R1A@?0A@EA@CBaseCamera@@8 ; CBaseCamera::`RTTI Base Class Array'
rdata$r	ENDS
;	COMDAT ??_R3CBaseCamera@@8
rdata$r	SEGMENT
??_R3CBaseCamera@@8 DD 00H				; CBaseCamera::`RTTI Class Hierarchy Descriptor'
	DD	00H
	DD	01H
	DD	FLAT:??_R2CBaseCamera@@8
rdata$r	ENDS
;	COMDAT ??_R0?AVCBaseCamera@@@8
data$r	SEGMENT
??_R0?AVCBaseCamera@@@8 DD FLAT:??_7type_info@@6B@	; CBaseCamera `RTTI Type Descriptor'
	DD	00H
	DB	'.?AVCBaseCamera@@', 00H
data$r	ENDS
;	COMDAT ??_R4CBaseCamera@@6B@
rdata$r	SEGMENT
??_R4CBaseCamera@@6B@ DD 00H				; CBaseCamera::`RTTI Complete Object Locator'
	DD	00H
	DD	00H
	DD	FLAT:??_R0?AVCBaseCamera@@@8
	DD	FLAT:??_R3CBaseCamera@@8
rdata$r	ENDS
;	COMDAT ??_C@_1CE@IGJMOCCK@?$AAi?$AAn?$AAv?$AAa?$AAl?$AAi?$AAd?$AA?5?$AAo?$AAp?$AAe?$AAr?$AAa?$AAt?$AAo?$AAr?$AA?$DM?$AA?$AA@
CONST	SEGMENT
??_C@_1CE@IGJMOCCK@?$AAi?$AAn?$AAv?$AAa?$AAl?$AAi?$AAd?$AA?5?$AAo?$AAp?$AAe?$AAr?$AAa?$AAt?$AAo?$AAr?$AA?$DM?$AA?$AA@ DB 'i'
	DB	00H, 'n', 00H, 'v', 00H, 'a', 00H, 'l', 00H, 'i', 00H, 'd', 00H
	DB	' ', 00H, 'o', 00H, 'p', 00H, 'e', 00H, 'r', 00H, 'a', 00H, 't'
	DB	00H, 'o', 00H, 'r', 00H, '<', 00H, 00H, 00H	; `string'
CONST	ENDS
;	COMDAT ??_C@_1JC@HALMDPKM@?$AAC?$AA?3?$AA?2?$AAP?$AAr?$AAo?$AAg?$AAr?$AAa?$AAm?$AA?5?$AAF?$AAi?$AAl?$AAe?$AAs?$AA?5?$AA?$CI?$AAx?$AA8?$AA6?$AA?$CJ?$AA?2?$AAM?$AAi?$AAc?$AAr?$AAo?$AAs?$AAo?$AAf?$AAt@
CONST	SEGMENT
??_C@_1JC@HALMDPKM@?$AAC?$AA?3?$AA?2?$AAP?$AAr?$AAo?$AAg?$AAr?$AAa?$AAm?$AA?5?$AAF?$AAi?$AAl?$AAe?$AAs?$AA?5?$AA?$CI?$AAx?$AA8?$AA6?$AA?$CJ?$AA?2?$AAM?$AAi?$AAc?$AAr?$AAo?$AAs?$AAo?$AAf?$AAt@ DB 'C'
	DB	00H, ':', 00H, '\', 00H, 'P', 00H, 'r', 00H, 'o', 00H, 'g', 00H
	DB	'r', 00H, 'a', 00H, 'm', 00H, ' ', 00H, 'F', 00H, 'i', 00H, 'l'
	DB	00H, 'e', 00H, 's', 00H, ' ', 00H, '(', 00H, 'x', 00H, '8', 00H
	DB	'6', 00H, ')', 00H, '\', 00H, 'M', 00H, 'i', 00H, 'c', 00H, 'r'
	DB	00H, 'o', 00H, 's', 00H, 'o', 00H, 'f', 00H, 't', 00H, ' ', 00H
	DB	'V', 00H, 'i', 00H, 's', 00H, 'u', 00H, 'a', 00H, 'l', 00H, ' '
	DB	00H, 'S', 00H, 't', 00H, 'u', 00H, 'd', 00H, 'i', 00H, 'o', 00H
	DB	' ', 00H, '1', 00H, '2', 00H, '.', 00H, '0', 00H, '\', 00H, 'V'
	DB	00H, 'C', 00H, '\', 00H, 'i', 00H, 'n', 00H, 'c', 00H, 'l', 00H
	DB	'u', 00H, 'd', 00H, 'e', 00H, '\', 00H, 'a', 00H, 'l', 00H, 'g'
	DB	00H, 'o', 00H, 'r', 00H, 'i', 00H, 't', 00H, 'h', 00H, 'm', 00H
	DB	00H, 00H					; `string'
CONST	ENDS
;	COMDAT ??_7CModelViewerCamera@@6B@
CONST	SEGMENT
??_7CModelViewerCamera@@6B@ DD FLAT:??_R4CModelViewerCamera@@6B@ ; CModelViewerCamera::`vftable'
	DD	FLAT:?HandleMessages@CModelViewerCamera@@UAEJPAUHWND__@@IIJ@Z
	DD	FLAT:?FrameMove@CModelViewerCamera@@UAEXM@Z
	DD	FLAT:?Reset@CModelViewerCamera@@UAEXXZ
	DD	FLAT:?SetViewParams@CModelViewerCamera@@UAEXT__m128@@0@Z
	DD	FLAT:?SetProjParams@CBaseCamera@@UAEXMMMM@Z
	DD	FLAT:?SetDragRect@CModelViewerCamera@@UAEXABUtagRECT@@@Z
	DD	FLAT:?MapKey@CBaseCamera@@MAE?AW4D3DUtil_CameraKeys@@I@Z
CONST	ENDS
;	COMDAT ??_7CFirstPersonCamera@@6B@
CONST	SEGMENT
??_7CFirstPersonCamera@@6B@ DD FLAT:??_R4CFirstPersonCamera@@6B@ ; CFirstPersonCamera::`vftable'
	DD	FLAT:?HandleMessages@CBaseCamera@@UAEJPAUHWND__@@IIJ@Z
	DD	FLAT:?FrameMove@CFirstPersonCamera@@UAEXM@Z
	DD	FLAT:?Reset@CBaseCamera@@UAEXXZ
	DD	FLAT:?SetViewParams@CBaseCamera@@UAEXT__m128@@0@Z
	DD	FLAT:?SetProjParams@CBaseCamera@@UAEXMMMM@Z
	DD	FLAT:?SetDragRect@CBaseCamera@@UAEXABUtagRECT@@@Z
	DD	FLAT:?MapKey@CBaseCamera@@MAE?AW4D3DUtil_CameraKeys@@I@Z
CONST	ENDS
;	COMDAT ??_7CBaseCamera@@6B@
CONST	SEGMENT
??_7CBaseCamera@@6B@ DD FLAT:??_R4CBaseCamera@@6B@	; CBaseCamera::`vftable'
	DD	FLAT:?HandleMessages@CBaseCamera@@UAEJPAUHWND__@@IIJ@Z
	DD	FLAT:__purecall
	DD	FLAT:?Reset@CBaseCamera@@UAEXXZ
	DD	FLAT:?SetViewParams@CBaseCamera@@UAEXT__m128@@0@Z
	DD	FLAT:?SetProjParams@CBaseCamera@@UAEXMMMM@Z
	DD	FLAT:?SetDragRect@CBaseCamera@@UAEXABUtagRECT@@@Z
	DD	FLAT:?MapKey@CBaseCamera@@MAE?AW4D3DUtil_CameraKeys@@I@Z
CONST	ENDS
;	COMDAT ?selectMask@?1??Permute@?$PermuteHelper@$0KK@$00$00$0A@$00@Internal@DirectX@@SQ?AT__m128@@T5@0@Z@4UXMVECTORU32@4@B
CONST	SEGMENT
?selectMask@?1??Permute@?$PermuteHelper@$0KK@$00$00$0A@$00@Internal@DirectX@@SQ?AT__m128@@T5@0@Z@4UXMVECTORU32@4@B DD 0ffffffffH ; `DirectX::Internal::PermuteHelper<170,1,1,0,1>::Permute'::`2'::selectMask
	DD	0ffffffffH
	DD	00H
	DD	0ffffffffH
CONST	ENDS
;	COMDAT ?selectMask@?1??Permute@?$PermuteHelper@$0FF@$00$0A@$00$00@Internal@DirectX@@SQ?AT__m128@@T5@0@Z@4UXMVECTORU32@4@B
CONST	SEGMENT
?selectMask@?1??Permute@?$PermuteHelper@$0FF@$00$0A@$00$00@Internal@DirectX@@SQ?AT__m128@@T5@0@Z@4UXMVECTORU32@4@B DD 0ffffffffH ; `DirectX::Internal::PermuteHelper<85,1,0,1,1>::Permute'::`2'::selectMask
	DD	00H
	DD	0ffffffffH
	DD	0ffffffffH
CONST	ENDS
;	COMDAT ?selectMask@?1??Permute@?$PermuteHelper@$0A@$0A@$00$00$00@Internal@DirectX@@SQ?AT__m128@@T5@0@Z@4UXMVECTORU32@4@B
CONST	SEGMENT
?selectMask@?1??Permute@?$PermuteHelper@$0A@$0A@$00$00$00@Internal@DirectX@@SQ?AT__m128@@T5@0@Z@4UXMVECTORU32@4@B DD 00H ; `DirectX::Internal::PermuteHelper<0,0,1,1,1>::Permute'::`2'::selectMask
	DD	0ffffffffH
	DD	0ffffffffH
	DD	0ffffffffH
CONST	ENDS
;	COMDAT ??_C@_19MNAGGFOC@?$AAp?$AAC?$AAo?$AAs?$AA?$AA@
CONST	SEGMENT
??_C@_19MNAGGFOC@?$AAp?$AAC?$AAo?$AAs?$AA?$AA@ DB 'p', 00H, 'C', 00H, 'o', 00H
	DB	's', 00H, 00H, 00H				; `string'
CONST	ENDS
;	COMDAT ??_C@_19MFJHDIJG@?$AAp?$AAS?$AAi?$AAn?$AA?$AA@
CONST	SEGMENT
??_C@_19MFJHDIJG@?$AAp?$AAS?$AAi?$AAn?$AA?$AA@ DB 'p', 00H, 'S', 00H, 'i', 00H
	DB	'n', 00H, 00H, 00H				; `string'
CONST	ENDS
;	COMDAT ?XMMMPP@?1??XMQuaternionRotationMatrix@DirectX@@YQ?AT__m128@@UXMMATRIX@2@@Z@4UXMVECTORF32@2@B
CONST	SEGMENT
?XMMMPP@?1??XMQuaternionRotationMatrix@DirectX@@YQ?AT__m128@@UXMMATRIX@2@@Z@4UXMVECTORF32@2@B DD 0bf800000r ; -1 ; `DirectX::XMQuaternionRotationMatrix'::`2'::XMMMPP
	DD	0bf800000r			; -1
	DD	03f800000r			; 1
	DD	03f800000r			; 1
CONST	ENDS
;	COMDAT ?XMMPMP@?1??XMQuaternionRotationMatrix@DirectX@@YQ?AT__m128@@UXMMATRIX@2@@Z@4UXMVECTORF32@2@B
CONST	SEGMENT
?XMMPMP@?1??XMQuaternionRotationMatrix@DirectX@@YQ?AT__m128@@UXMMATRIX@2@@Z@4UXMVECTORF32@2@B DD 0bf800000r ; -1 ; `DirectX::XMQuaternionRotationMatrix'::`2'::XMMPMP
	DD	03f800000r			; 1
	DD	0bf800000r			; -1
	DD	03f800000r			; 1
CONST	ENDS
;	COMDAT ?XMPMMP@?1??XMQuaternionRotationMatrix@DirectX@@YQ?AT__m128@@UXMMATRIX@2@@Z@4UXMVECTORF32@2@B
CONST	SEGMENT
?XMPMMP@?1??XMQuaternionRotationMatrix@DirectX@@YQ?AT__m128@@UXMMATRIX@2@@Z@4UXMVECTORF32@2@B DD 03f800000r ; 1 ; `DirectX::XMQuaternionRotationMatrix'::`2'::XMPMMP
	DD	0bf800000r			; -1
	DD	0bf800000r			; -1
	DD	03f800000r			; 1
CONST	ENDS
;	COMDAT ?Sign@?1??XMQuaternionRotationRollPitchYawFromVector@DirectX@@YQ?AT__m128@@T3@@Z@4UXMVECTORF32@2@B
CONST	SEGMENT
?Sign@?1??XMQuaternionRotationRollPitchYawFromVector@DirectX@@YQ?AT__m128@@T3@@Z@4UXMVECTORF32@2@B DD 03f800000r ; 1 ; `DirectX::XMQuaternionRotationRollPitchYawFromVector'::`2'::Sign
	DD	0bf800000r			; -1
	DD	0bf800000r			; -1
	DD	03f800000r			; 1
CONST	ENDS
;	COMDAT ??_C@_1IO@PAPJGEKF@?$AAc?$AA?3?$AA?2?$AAp?$AAr?$AAo?$AAg?$AAr?$AAa?$AAm?$AA?5?$AAf?$AAi?$AAl?$AAe?$AAs?$AA?5?$AA?$CI?$AAx?$AA8?$AA6?$AA?$CJ?$AA?2?$AAw?$AAi?$AAn?$AAd?$AAo?$AAw?$AAs?$AA?5?$AAk@
CONST	SEGMENT
??_C@_1IO@PAPJGEKF@?$AAc?$AA?3?$AA?2?$AAp?$AAr?$AAo?$AAg?$AAr?$AAa?$AAm?$AA?5?$AAf?$AAi?$AAl?$AAe?$AAs?$AA?5?$AA?$CI?$AAx?$AA8?$AA6?$AA?$CJ?$AA?2?$AAw?$AAi?$AAn?$AAd?$AAo?$AAw?$AAs?$AA?5?$AAk@ DB 'c'
	DB	00H, ':', 00H, '\', 00H, 'p', 00H, 'r', 00H, 'o', 00H, 'g', 00H
	DB	'r', 00H, 'a', 00H, 'm', 00H, ' ', 00H, 'f', 00H, 'i', 00H, 'l'
	DB	00H, 'e', 00H, 's', 00H, ' ', 00H, '(', 00H, 'x', 00H, '8', 00H
	DB	'6', 00H, ')', 00H, '\', 00H, 'w', 00H, 'i', 00H, 'n', 00H, 'd'
	DB	00H, 'o', 00H, 'w', 00H, 's', 00H, ' ', 00H, 'k', 00H, 'i', 00H
	DB	't', 00H, 's', 00H, '\', 00H, '8', 00H, '.', 00H, '1', 00H, '\'
	DB	00H, 'i', 00H, 'n', 00H, 'c', 00H, 'l', 00H, 'u', 00H, 'd', 00H
	DB	'e', 00H, '\', 00H, 'u', 00H, 'm', 00H, '\', 00H, 'D', 00H, 'i'
	DB	00H, 'r', 00H, 'e', 00H, 'c', 00H, 't', 00H, 'X', 00H, 'M', 00H
	DB	'a', 00H, 't', 00H, 'h', 00H, 'M', 00H, 'i', 00H, 's', 00H, 'c'
	DB	00H, '.', 00H, 'i', 00H, 'n', 00H, 'l', 00H, 00H, 00H ; `string'
CONST	ENDS
;	COMDAT ?ControlYXWZ@?1??XMQuaternionMultiply@DirectX@@YQ?AT__m128@@T3@0@Z@4UXMVECTORF32@2@B
CONST	SEGMENT
?ControlYXWZ@?1??XMQuaternionMultiply@DirectX@@YQ?AT__m128@@T3@0@Z@4UXMVECTORF32@2@B DD 0bf800000r ; -1 ; `DirectX::XMQuaternionMultiply'::`2'::ControlYXWZ
	DD	03f800000r			; 1
	DD	03f800000r			; 1
	DD	0bf800000r			; -1
CONST	ENDS
;	COMDAT ?ControlZWXY@?1??XMQuaternionMultiply@DirectX@@YQ?AT__m128@@T3@0@Z@4UXMVECTORF32@2@B
CONST	SEGMENT
?ControlZWXY@?1??XMQuaternionMultiply@DirectX@@YQ?AT__m128@@T3@0@Z@4UXMVECTORF32@2@B DD 03f800000r ; 1 ; `DirectX::XMQuaternionMultiply'::`2'::ControlZWXY
	DD	03f800000r			; 1
	DD	0bf800000r			; -1
	DD	0bf800000r			; -1
CONST	ENDS
;	COMDAT ?ControlWZYX@?1??XMQuaternionMultiply@DirectX@@YQ?AT__m128@@T3@0@Z@4UXMVECTORF32@2@B
CONST	SEGMENT
?ControlWZYX@?1??XMQuaternionMultiply@DirectX@@YQ?AT__m128@@T3@0@Z@4UXMVECTORF32@2@B DD 03f800000r ; 1 ; `DirectX::XMQuaternionMultiply'::`2'::ControlWZYX
	DD	0bf800000r			; -1
	DD	03f800000r			; 1
	DD	0bf800000r			; -1
CONST	ENDS
;	COMDAT ??_C@_1FO@IACFEINC@?$AA?$CB?$AAX?$AAM?$AAS?$AAc?$AAa?$AAl?$AAa?$AAr?$AAN?$AAe?$AAa?$AAr?$AAE?$AAq?$AAu?$AAa?$AAl?$AA?$CI?$AAA?$AAs?$AAp?$AAe?$AAc?$AAt?$AAH?$AAB?$AAy?$AAW?$AA?0?$AA?5?$AA0@
CONST	SEGMENT
??_C@_1FO@IACFEINC@?$AA?$CB?$AAX?$AAM?$AAS?$AAc?$AAa?$AAl?$AAa?$AAr?$AAN?$AAe?$AAa?$AAr?$AAE?$AAq?$AAu?$AAa?$AAl?$AA?$CI?$AAA?$AAs?$AAp?$AAe?$AAc?$AAt?$AAH?$AAB?$AAy?$AAW?$AA?0?$AA?5?$AA0@ DB '!'
	DB	00H, 'X', 00H, 'M', 00H, 'S', 00H, 'c', 00H, 'a', 00H, 'l', 00H
	DB	'a', 00H, 'r', 00H, 'N', 00H, 'e', 00H, 'a', 00H, 'r', 00H, 'E'
	DB	00H, 'q', 00H, 'u', 00H, 'a', 00H, 'l', 00H, '(', 00H, 'A', 00H
	DB	's', 00H, 'p', 00H, 'e', 00H, 'c', 00H, 't', 00H, 'H', 00H, 'B'
	DB	00H, 'y', 00H, 'W', 00H, ',', 00H, ' ', 00H, '0', 00H, '.', 00H
	DB	'0', 00H, 'f', 00H, ',', 00H, ' ', 00H, '0', 00H, '.', 00H, '0'
	DB	00H, '0', 00H, '0', 00H, '0', 00H, '1', 00H, 'f', 00H, ')', 00H
	DB	00H, 00H					; `string'
CONST	ENDS
;	COMDAT ??_C@_1GK@EFPMNDEN@?$AA?$CB?$AAX?$AAM?$AAS?$AAc?$AAa?$AAl?$AAa?$AAr?$AAN?$AAe?$AAa?$AAr?$AAE?$AAq?$AAu?$AAa?$AAl?$AA?$CI?$AAF?$AAo?$AAv?$AAA?$AAn?$AAg?$AAl?$AAe?$AAY?$AA?0?$AA?5?$AA0?$AA?4@
CONST	SEGMENT
??_C@_1GK@EFPMNDEN@?$AA?$CB?$AAX?$AAM?$AAS?$AAc?$AAa?$AAl?$AAa?$AAr?$AAN?$AAe?$AAa?$AAr?$AAE?$AAq?$AAu?$AAa?$AAl?$AA?$CI?$AAF?$AAo?$AAv?$AAA?$AAn?$AAg?$AAl?$AAe?$AAY?$AA?0?$AA?5?$AA0?$AA?4@ DB '!'
	DB	00H, 'X', 00H, 'M', 00H, 'S', 00H, 'c', 00H, 'a', 00H, 'l', 00H
	DB	'a', 00H, 'r', 00H, 'N', 00H, 'e', 00H, 'a', 00H, 'r', 00H, 'E'
	DB	00H, 'q', 00H, 'u', 00H, 'a', 00H, 'l', 00H, '(', 00H, 'F', 00H
	DB	'o', 00H, 'v', 00H, 'A', 00H, 'n', 00H, 'g', 00H, 'l', 00H, 'e'
	DB	00H, 'Y', 00H, ',', 00H, ' ', 00H, '0', 00H, '.', 00H, '0', 00H
	DB	'f', 00H, ',', 00H, ' ', 00H, '0', 00H, '.', 00H, '0', 00H, '0'
	DB	00H, '0', 00H, '0', 00H, '1', 00H, 'f', 00H, ' ', 00H, '*', 00H
	DB	' ', 00H, '2', 00H, '.', 00H, '0', 00H, 'f', 00H, ')', 00H, 00H
	DB	00H						; `string'
CONST	ENDS
;	COMDAT ??_C@_1FE@IMEJOJAH@?$AA?$CB?$AAX?$AAM?$AAS?$AAc?$AAa?$AAl?$AAa?$AAr?$AAN?$AAe?$AAa?$AAr?$AAE?$AAq?$AAu?$AAa?$AAl?$AA?$CI?$AAF?$AAa?$AAr?$AAZ?$AA?0?$AA?5?$AAN?$AAe?$AAa?$AAr?$AAZ?$AA?0?$AA?5@
CONST	SEGMENT
??_C@_1FE@IMEJOJAH@?$AA?$CB?$AAX?$AAM?$AAS?$AAc?$AAa?$AAl?$AAa?$AAr?$AAN?$AAe?$AAa?$AAr?$AAE?$AAq?$AAu?$AAa?$AAl?$AA?$CI?$AAF?$AAa?$AAr?$AAZ?$AA?0?$AA?5?$AAN?$AAe?$AAa?$AAr?$AAZ?$AA?0?$AA?5@ DB '!'
	DB	00H, 'X', 00H, 'M', 00H, 'S', 00H, 'c', 00H, 'a', 00H, 'l', 00H
	DB	'a', 00H, 'r', 00H, 'N', 00H, 'e', 00H, 'a', 00H, 'r', 00H, 'E'
	DB	00H, 'q', 00H, 'u', 00H, 'a', 00H, 'l', 00H, '(', 00H, 'F', 00H
	DB	'a', 00H, 'r', 00H, 'Z', 00H, ',', 00H, ' ', 00H, 'N', 00H, 'e'
	DB	00H, 'a', 00H, 'r', 00H, 'Z', 00H, ',', 00H, ' ', 00H, '0', 00H
	DB	'.', 00H, '0', 00H, '0', 00H, '0', 00H, '0', 00H, '1', 00H, 'f'
	DB	00H, ')', 00H, 00H, 00H			; `string'
CONST	ENDS
;	COMDAT ??_C@_1EE@JAOFAOOK@?$AA?$CB?$AAX?$AAM?$AAV?$AAe?$AAc?$AAt?$AAo?$AAr?$AA3?$AAI?$AAs?$AAI?$AAn?$AAf?$AAi?$AAn?$AAi?$AAt?$AAe?$AA?$CI?$AAU?$AAp?$AAD?$AAi?$AAr?$AAe?$AAc?$AAt?$AAi?$AAo?$AAn@
CONST	SEGMENT
??_C@_1EE@JAOFAOOK@?$AA?$CB?$AAX?$AAM?$AAV?$AAe?$AAc?$AAt?$AAo?$AAr?$AA3?$AAI?$AAs?$AAI?$AAn?$AAf?$AAi?$AAn?$AAi?$AAt?$AAe?$AA?$CI?$AAU?$AAp?$AAD?$AAi?$AAr?$AAe?$AAc?$AAt?$AAi?$AAo?$AAn@ DB '!'
	DB	00H, 'X', 00H, 'M', 00H, 'V', 00H, 'e', 00H, 'c', 00H, 't', 00H
	DB	'o', 00H, 'r', 00H, '3', 00H, 'I', 00H, 's', 00H, 'I', 00H, 'n'
	DB	00H, 'f', 00H, 'i', 00H, 'n', 00H, 'i', 00H, 't', 00H, 'e', 00H
	DB	'(', 00H, 'U', 00H, 'p', 00H, 'D', 00H, 'i', 00H, 'r', 00H, 'e'
	DB	00H, 'c', 00H, 't', 00H, 'i', 00H, 'o', 00H, 'n', 00H, ')', 00H
	DB	00H, 00H					; `string'
CONST	ENDS
;	COMDAT ??_C@_1FK@IBPGMKAB@?$AA?$CB?$AAX?$AAM?$AAV?$AAe?$AAc?$AAt?$AAo?$AAr?$AA3?$AAE?$AAq?$AAu?$AAa?$AAl?$AA?$CI?$AAU?$AAp?$AAD?$AAi?$AAr?$AAe?$AAc?$AAt?$AAi?$AAo?$AAn?$AA?0?$AA?5?$AAX?$AAM?$AAV@
CONST	SEGMENT
??_C@_1FK@IBPGMKAB@?$AA?$CB?$AAX?$AAM?$AAV?$AAe?$AAc?$AAt?$AAo?$AAr?$AA3?$AAE?$AAq?$AAu?$AAa?$AAl?$AA?$CI?$AAU?$AAp?$AAD?$AAi?$AAr?$AAe?$AAc?$AAt?$AAi?$AAo?$AAn?$AA?0?$AA?5?$AAX?$AAM?$AAV@ DB '!'
	DB	00H, 'X', 00H, 'M', 00H, 'V', 00H, 'e', 00H, 'c', 00H, 't', 00H
	DB	'o', 00H, 'r', 00H, '3', 00H, 'E', 00H, 'q', 00H, 'u', 00H, 'a'
	DB	00H, 'l', 00H, '(', 00H, 'U', 00H, 'p', 00H, 'D', 00H, 'i', 00H
	DB	'r', 00H, 'e', 00H, 'c', 00H, 't', 00H, 'i', 00H, 'o', 00H, 'n'
	DB	00H, ',', 00H, ' ', 00H, 'X', 00H, 'M', 00H, 'V', 00H, 'e', 00H
	DB	'c', 00H, 't', 00H, 'o', 00H, 'r', 00H, 'Z', 00H, 'e', 00H, 'r'
	DB	00H, 'o', 00H, '(', 00H, ')', 00H, ')', 00H, 00H, 00H ; `string'
CONST	ENDS
;	COMDAT ??_C@_1EG@DOFHPLOD@?$AA?$CB?$AAX?$AAM?$AAV?$AAe?$AAc?$AAt?$AAo?$AAr?$AA3?$AAI?$AAs?$AAI?$AAn?$AAf?$AAi?$AAn?$AAi?$AAt?$AAe?$AA?$CI?$AAE?$AAy?$AAe?$AAD?$AAi?$AAr?$AAe?$AAc?$AAt?$AAi?$AAo@
CONST	SEGMENT
??_C@_1EG@DOFHPLOD@?$AA?$CB?$AAX?$AAM?$AAV?$AAe?$AAc?$AAt?$AAo?$AAr?$AA3?$AAI?$AAs?$AAI?$AAn?$AAf?$AAi?$AAn?$AAi?$AAt?$AAe?$AA?$CI?$AAE?$AAy?$AAe?$AAD?$AAi?$AAr?$AAe?$AAc?$AAt?$AAi?$AAo@ DB '!'
	DB	00H, 'X', 00H, 'M', 00H, 'V', 00H, 'e', 00H, 'c', 00H, 't', 00H
	DB	'o', 00H, 'r', 00H, '3', 00H, 'I', 00H, 's', 00H, 'I', 00H, 'n'
	DB	00H, 'f', 00H, 'i', 00H, 'n', 00H, 'i', 00H, 't', 00H, 'e', 00H
	DB	'(', 00H, 'E', 00H, 'y', 00H, 'e', 00H, 'D', 00H, 'i', 00H, 'r'
	DB	00H, 'e', 00H, 'c', 00H, 't', 00H, 'i', 00H, 'o', 00H, 'n', 00H
	DB	')', 00H, 00H, 00H				; `string'
CONST	ENDS
;	COMDAT ??_C@_1FM@KOIPKFLA@?$AA?$CB?$AAX?$AAM?$AAV?$AAe?$AAc?$AAt?$AAo?$AAr?$AA3?$AAE?$AAq?$AAu?$AAa?$AAl?$AA?$CI?$AAE?$AAy?$AAe?$AAD?$AAi?$AAr?$AAe?$AAc?$AAt?$AAi?$AAo?$AAn?$AA?0?$AA?5?$AAX?$AAM@
CONST	SEGMENT
??_C@_1FM@KOIPKFLA@?$AA?$CB?$AAX?$AAM?$AAV?$AAe?$AAc?$AAt?$AAo?$AAr?$AA3?$AAE?$AAq?$AAu?$AAa?$AAl?$AA?$CI?$AAE?$AAy?$AAe?$AAD?$AAi?$AAr?$AAe?$AAc?$AAt?$AAi?$AAo?$AAn?$AA?0?$AA?5?$AAX?$AAM@ DB '!'
	DB	00H, 'X', 00H, 'M', 00H, 'V', 00H, 'e', 00H, 'c', 00H, 't', 00H
	DB	'o', 00H, 'r', 00H, '3', 00H, 'E', 00H, 'q', 00H, 'u', 00H, 'a'
	DB	00H, 'l', 00H, '(', 00H, 'E', 00H, 'y', 00H, 'e', 00H, 'D', 00H
	DB	'i', 00H, 'r', 00H, 'e', 00H, 'c', 00H, 't', 00H, 'i', 00H, 'o'
	DB	00H, 'n', 00H, ',', 00H, ' ', 00H, 'X', 00H, 'M', 00H, 'V', 00H
	DB	'e', 00H, 'c', 00H, 't', 00H, 'o', 00H, 'r', 00H, 'Z', 00H, 'e'
	DB	00H, 'r', 00H, 'o', 00H, '(', 00H, ')', 00H, ')', 00H, 00H, 00H ; `string'
CONST	ENDS
;	COMDAT ?Constant1110@?1??XMMatrixRotationQuaternion@DirectX@@YQ?AUXMMATRIX@2@T__m128@@@Z@4UXMVECTORF32@2@B
CONST	SEGMENT
?Constant1110@?1??XMMatrixRotationQuaternion@DirectX@@YQ?AUXMMATRIX@2@T__m128@@@Z@4UXMVECTORF32@2@B DD 03f800000r ; 1 ; `DirectX::XMMatrixRotationQuaternion'::`2'::Constant1110
	DD	03f800000r			; 1
	DD	03f800000r			; 1
	DD	000000000r			; 0
CONST	ENDS
;	COMDAT ??_C@_1JC@FPIPICAN@?$AAc?$AA?3?$AA?2?$AAp?$AAr?$AAo?$AAg?$AAr?$AAa?$AAm?$AA?5?$AAf?$AAi?$AAl?$AAe?$AAs?$AA?5?$AA?$CI?$AAx?$AA8?$AA6?$AA?$CJ?$AA?2?$AAw?$AAi?$AAn?$AAd?$AAo?$AAw?$AAs?$AA?5?$AAk@
CONST	SEGMENT
??_C@_1JC@FPIPICAN@?$AAc?$AA?3?$AA?2?$AAp?$AAr?$AAo?$AAg?$AAr?$AAa?$AAm?$AA?5?$AAf?$AAi?$AAl?$AAe?$AAs?$AA?5?$AA?$CI?$AAx?$AA8?$AA6?$AA?$CJ?$AA?2?$AAw?$AAi?$AAn?$AAd?$AAo?$AAw?$AAs?$AA?5?$AAk@ DB 'c'
	DB	00H, ':', 00H, '\', 00H, 'p', 00H, 'r', 00H, 'o', 00H, 'g', 00H
	DB	'r', 00H, 'a', 00H, 'm', 00H, ' ', 00H, 'f', 00H, 'i', 00H, 'l'
	DB	00H, 'e', 00H, 's', 00H, ' ', 00H, '(', 00H, 'x', 00H, '8', 00H
	DB	'6', 00H, ')', 00H, '\', 00H, 'w', 00H, 'i', 00H, 'n', 00H, 'd'
	DB	00H, 'o', 00H, 'w', 00H, 's', 00H, ' ', 00H, 'k', 00H, 'i', 00H
	DB	't', 00H, 's', 00H, '\', 00H, '8', 00H, '.', 00H, '1', 00H, '\'
	DB	00H, 'i', 00H, 'n', 00H, 'c', 00H, 'l', 00H, 'u', 00H, 'd', 00H
	DB	'e', 00H, '\', 00H, 'u', 00H, 'm', 00H, '\', 00H, 'D', 00H, 'i'
	DB	00H, 'r', 00H, 'e', 00H, 'c', 00H, 't', 00H, 'X', 00H, 'M', 00H
	DB	'a', 00H, 't', 00H, 'h', 00H, 'M', 00H, 'a', 00H, 't', 00H, 'r'
	DB	00H, 'i', 00H, 'x', 00H, '.', 00H, 'i', 00H, 'n', 00H, 'l', 00H
	DB	00H, 00H					; `string'
CONST	ENDS
;	COMDAT ??_C@_1CA@LFGCHHDM@?$AAp?$AAC?$AAo?$AAs?$AA?5?$AA?$CB?$AA?$DN?$AA?5?$AAn?$AAu?$AAl?$AAl?$AAp?$AAt?$AAr?$AA?$AA@
CONST	SEGMENT
??_C@_1CA@LFGCHHDM@?$AAp?$AAC?$AAo?$AAs?$AA?5?$AA?$CB?$AA?$DN?$AA?5?$AAn?$AAu?$AAl?$AAl?$AAp?$AAt?$AAr?$AA?$AA@ DB 'p'
	DB	00H, 'C', 00H, 'o', 00H, 's', 00H, ' ', 00H, '!', 00H, '=', 00H
	DB	' ', 00H, 'n', 00H, 'u', 00H, 'l', 00H, 'l', 00H, 'p', 00H, 't'
	DB	00H, 'r', 00H, 00H, 00H			; `string'
CONST	ENDS
;	COMDAT ??_C@_1CA@PCMAADPN@?$AAp?$AAS?$AAi?$AAn?$AA?5?$AA?$CB?$AA?$DN?$AA?5?$AAn?$AAu?$AAl?$AAl?$AAp?$AAt?$AAr?$AA?$AA@
CONST	SEGMENT
??_C@_1CA@PCMAADPN@?$AAp?$AAS?$AAi?$AAn?$AA?5?$AA?$CB?$AA?$DN?$AA?5?$AAn?$AAu?$AAl?$AAl?$AAp?$AAt?$AAr?$AA?$AA@ DB 'p'
	DB	00H, 'S', 00H, 'i', 00H, 'n', 00H, ' ', 00H, '!', 00H, '=', 00H
	DB	' ', 00H, 'n', 00H, 'u', 00H, 'l', 00H, 'l', 00H, 'p', 00H, 't'
	DB	00H, 'r', 00H, 00H, 00H			; `string'
CONST	ENDS
;	COMDAT ??_C@_1DO@HJELAGIP@?$AAX?$AAM?$AAV?$AAe?$AAc?$AAt?$AAo?$AAr?$AA4?$AAL?$AAe?$AAs?$AAs?$AAO?$AAr?$AAE?$AAq?$AAu?$AAa?$AAl?$AA?$CI?$AAM?$AAi?$AAn?$AA?0?$AA?5?$AAM?$AAa?$AAx?$AA?$CJ?$AA?$AA@
CONST	SEGMENT
??_C@_1DO@HJELAGIP@?$AAX?$AAM?$AAV?$AAe?$AAc?$AAt?$AAo?$AAr?$AA4?$AAL?$AAe?$AAs?$AAs?$AAO?$AAr?$AAE?$AAq?$AAu?$AAa?$AAl?$AA?$CI?$AAM?$AAi?$AAn?$AA?0?$AA?5?$AAM?$AAa?$AAx?$AA?$CJ?$AA?$AA@ DB 'X'
	DB	00H, 'M', 00H, 'V', 00H, 'e', 00H, 'c', 00H, 't', 00H, 'o', 00H
	DB	'r', 00H, '4', 00H, 'L', 00H, 'e', 00H, 's', 00H, 's', 00H, 'O'
	DB	00H, 'r', 00H, 'E', 00H, 'q', 00H, 'u', 00H, 'a', 00H, 'l', 00H
	DB	'(', 00H, 'M', 00H, 'i', 00H, 'n', 00H, ',', 00H, ' ', 00H, 'M'
	DB	00H, 'a', 00H, 'x', 00H, ')', 00H, 00H, 00H	; `string'
CONST	ENDS
;	COMDAT ?magic@?1??XMVectorRound@DirectX@@YQ?AT__m128@@T3@@Z@4UXMVECTORI32@2@B
CONST	SEGMENT
?magic@?1??XMVectorRound@DirectX@@YQ?AT__m128@@T3@@Z@4UXMVECTORI32@2@B DD 04b000000H ; `DirectX::XMVectorRound'::`2'::magic
	DD	04b000000H
	DD	04b000000H
	DD	04b000000H
CONST	ENDS
;	COMDAT ??_C@_1JC@LGEHDEBK@?$AAc?$AA?3?$AA?2?$AAp?$AAr?$AAo?$AAg?$AAr?$AAa?$AAm?$AA?5?$AAf?$AAi?$AAl?$AAe?$AAs?$AA?5?$AA?$CI?$AAx?$AA8?$AA6?$AA?$CJ?$AA?2?$AAw?$AAi?$AAn?$AAd?$AAo?$AAw?$AAs?$AA?5?$AAk@
CONST	SEGMENT
??_C@_1JC@LGEHDEBK@?$AAc?$AA?3?$AA?2?$AAp?$AAr?$AAo?$AAg?$AAr?$AAa?$AAm?$AA?5?$AAf?$AAi?$AAl?$AAe?$AAs?$AA?5?$AA?$CI?$AAx?$AA8?$AA6?$AA?$CJ?$AA?2?$AAw?$AAi?$AAn?$AAd?$AAo?$AAw?$AAs?$AA?5?$AAk@ DB 'c'
	DB	00H, ':', 00H, '\', 00H, 'p', 00H, 'r', 00H, 'o', 00H, 'g', 00H
	DB	'r', 00H, 'a', 00H, 'm', 00H, ' ', 00H, 'f', 00H, 'i', 00H, 'l'
	DB	00H, 'e', 00H, 's', 00H, ' ', 00H, '(', 00H, 'x', 00H, '8', 00H
	DB	'6', 00H, ')', 00H, '\', 00H, 'w', 00H, 'i', 00H, 'n', 00H, 'd'
	DB	00H, 'o', 00H, 'w', 00H, 's', 00H, ' ', 00H, 'k', 00H, 'i', 00H
	DB	't', 00H, 's', 00H, '\', 00H, '8', 00H, '.', 00H, '1', 00H, '\'
	DB	00H, 'i', 00H, 'n', 00H, 'c', 00H, 'l', 00H, 'u', 00H, 'd', 00H
	DB	'e', 00H, '\', 00H, 'u', 00H, 'm', 00H, '\', 00H, 'D', 00H, 'i'
	DB	00H, 'r', 00H, 'e', 00H, 'c', 00H, 't', 00H, 'X', 00H, 'M', 00H
	DB	'a', 00H, 't', 00H, 'h', 00H, 'V', 00H, 'e', 00H, 'c', 00H, 't'
	DB	00H, 'o', 00H, 'r', 00H, '.', 00H, 'i', 00H, 'n', 00H, 'l', 00H
	DB	00H, 00H					; `string'
CONST	ENDS
;	COMDAT ??_C@_1BK@FHLBGAOP@?$AAp?$AAD?$AAe?$AAs?$AAt?$AAi?$AAn?$AAa?$AAt?$AAi?$AAo?$AAn?$AA?$AA@
CONST	SEGMENT
??_C@_1BK@FHLBGAOP@?$AAp?$AAD?$AAe?$AAs?$AAt?$AAi?$AAn?$AAa?$AAt?$AAi?$AAo?$AAn?$AA?$AA@ DB 'p'
	DB	00H, 'D', 00H, 'e', 00H, 's', 00H, 't', 00H, 'i', 00H, 'n', 00H
	DB	'a', 00H, 't', 00H, 'i', 00H, 'o', 00H, 'n', 00H, 00H, 00H ; `string'
CONST	ENDS
;	COMDAT ??_C@_1BA@LBADLIHI@?$AAp?$AAS?$AAo?$AAu?$AAr?$AAc?$AAe?$AA?$AA@
CONST	SEGMENT
??_C@_1BA@LBADLIHI@?$AAp?$AAS?$AAo?$AAu?$AAr?$AAc?$AAe?$AA?$AA@ DB 'p', 00H
	DB	'S', 00H, 'o', 00H, 'u', 00H, 'r', 00H, 'c', 00H, 'e', 00H, 00H
	DB	00H						; `string'
CONST	ENDS
;	COMDAT ??_C@_1JE@EKCDEKPD@?$AAc?$AA?3?$AA?2?$AAp?$AAr?$AAo?$AAg?$AAr?$AAa?$AAm?$AA?5?$AAf?$AAi?$AAl?$AAe?$AAs?$AA?5?$AA?$CI?$AAx?$AA8?$AA6?$AA?$CJ?$AA?2?$AAw?$AAi?$AAn?$AAd?$AAo?$AAw?$AAs?$AA?5?$AAk@
CONST	SEGMENT
??_C@_1JE@EKCDEKPD@?$AAc?$AA?3?$AA?2?$AAp?$AAr?$AAo?$AAg?$AAr?$AAa?$AAm?$AA?5?$AAf?$AAi?$AAl?$AAe?$AAs?$AA?5?$AA?$CI?$AAx?$AA8?$AA6?$AA?$CJ?$AA?2?$AAw?$AAi?$AAn?$AAd?$AAo?$AAw?$AAs?$AA?5?$AAk@ DB 'c'
	DB	00H, ':', 00H, '\', 00H, 'p', 00H, 'r', 00H, 'o', 00H, 'g', 00H
	DB	'r', 00H, 'a', 00H, 'm', 00H, ' ', 00H, 'f', 00H, 'i', 00H, 'l'
	DB	00H, 'e', 00H, 's', 00H, ' ', 00H, '(', 00H, 'x', 00H, '8', 00H
	DB	'6', 00H, ')', 00H, '\', 00H, 'w', 00H, 'i', 00H, 'n', 00H, 'd'
	DB	00H, 'o', 00H, 'w', 00H, 's', 00H, ' ', 00H, 'k', 00H, 'i', 00H
	DB	't', 00H, 's', 00H, '\', 00H, '8', 00H, '.', 00H, '1', 00H, '\'
	DB	00H, 'i', 00H, 'n', 00H, 'c', 00H, 'l', 00H, 'u', 00H, 'd', 00H
	DB	'e', 00H, '\', 00H, 'u', 00H, 'm', 00H, '\', 00H, 'D', 00H, 'i'
	DB	00H, 'r', 00H, 'e', 00H, 'c', 00H, 't', 00H, 'X', 00H, 'M', 00H
	DB	'a', 00H, 't', 00H, 'h', 00H, 'C', 00H, 'o', 00H, 'n', 00H, 'v'
	DB	00H, 'e', 00H, 'r', 00H, 't', 00H, '.', 00H, 'i', 00H, 'n', 00H
	DB	'l', 00H, 00H, 00H				; `string'
CONST	ENDS
;	COMDAT ?g_XMReciprocalTwoPi@DirectX@@3UXMVECTORF32@1@B
_DATA	SEGMENT
?g_XMReciprocalTwoPi@DirectX@@3UXMVECTORF32@1@B	ORG $+16 ; DirectX::g_XMReciprocalTwoPi
_DATA	ENDS
;	COMDAT ?g_XMTwoPi@DirectX@@3UXMVECTORF32@1@B
_DATA	SEGMENT
?g_XMTwoPi@DirectX@@3UXMVECTORF32@1@B	ORG $+16		; DirectX::g_XMTwoPi
_DATA	ENDS
;	COMDAT ?g_XMPi@DirectX@@3UXMVECTORF32@1@B
_DATA	SEGMENT
?g_XMPi@DirectX@@3UXMVECTORF32@1@B	ORG $+16		; DirectX::g_XMPi
_DATA	ENDS
;	COMDAT ?g_XMHalfPi@DirectX@@3UXMVECTORF32@1@B
_DATA	SEGMENT
?g_XMHalfPi@DirectX@@3UXMVECTORF32@1@B	ORG $+16		; DirectX::g_XMHalfPi
_DATA	ENDS
;	COMDAT CRT$XCU
CRT$XCU	SEGMENT
_g_XMPi$initializer$ DD FLAT:??__Eg_XMPi@DirectX@@YAXXZ
CRT$XCU	ENDS
;	COMDAT CRT$XCU
CRT$XCU	SEGMENT
_g_XMTwoPi$initializer$ DD FLAT:??__Eg_XMTwoPi@DirectX@@YAXXZ
CRT$XCU	ENDS
;	COMDAT CRT$XCU
CRT$XCU	SEGMENT
_g_XMReciprocalTwoPi$initializer$ DD FLAT:??__Eg_XMReciprocalTwoPi@DirectX@@YAXXZ
CRT$XCU	ENDS
; Function compile flags: /Odtp /RTCsu
;	COMDAT ??$?RABMABM@?$less@X@std@@QBE_NABM0@Z
_TEXT	SEGMENT
tv65 = -8						; size = 4
_this$ = -4						; size = 4
__Left$ = 8						; size = 4
__Right$ = 12						; size = 4
??$?RABMABM@?$less@X@std@@QBE_NABM0@Z PROC		; std::less<void>::operator()<float const &,float const &>, COMDAT
; _this$ = ecx
; File c:\program files (x86)\microsoft visual studio 12.0\vc\include\xstddef
; Line 263
	push	ebp
	mov	ebp, esp
	sub	esp, 8
	mov	DWORD PTR [ebp-8], -858993460		; ccccccccH
	mov	DWORD PTR [ebp-4], -858993460		; ccccccccH
	mov	DWORD PTR _this$[ebp], ecx
; Line 268
	mov	eax, DWORD PTR __Right$[ebp]
	mov	ecx, DWORD PTR __Left$[ebp]
	movss	xmm0, DWORD PTR [eax]
	comiss	xmm0, DWORD PTR [ecx]
	jbe	SHORT $LN3@operator
	mov	DWORD PTR tv65[ebp], 1
	jmp	SHORT $LN4@operator
$LN3@operator:
	mov	DWORD PTR tv65[ebp], 0
$LN4@operator:
	mov	al, BYTE PTR tv65[ebp]
; Line 269
	mov	esp, ebp
	pop	ebp
	ret	8
??$?RABMABM@?$less@X@std@@QBE_NABM0@Z ENDP		; std::less<void>::operator()<float const &,float const &>
_TEXT	ENDS
; Function compile flags: /Odtp /RTCsu
;	COMDAT ??$_Debug_lt_pred@U?$less@X@std@@ABMABM@std@@YA_NU?$less@X@0@ABM1PB_WI@Z
_TEXT	SEGMENT
__Pred$ = 8						; size = 1
__Left$ = 12						; size = 4
__Right$ = 16						; size = 4
__File$ = 20						; size = 4
__Line$ = 24						; size = 4
??$_Debug_lt_pred@U?$less@X@std@@ABMABM@std@@YA_NU?$less@X@0@ABM1PB_WI@Z PROC ; std::_Debug_lt_pred<std::less<void>,float const &,float const &>, COMDAT
; File c:\program files (x86)\microsoft visual studio 12.0\vc\include\xutility
; Line 520
	push	ebp
	mov	ebp, esp
	push	esi
; Line 521
	mov	eax, DWORD PTR __Right$[ebp]
	push	eax
	call	??$forward@ABM@std@@YAABMABM@Z		; std::forward<float const &>
	add	esp, 4
	push	eax
	mov	ecx, DWORD PTR __Left$[ebp]
	push	ecx
	call	??$forward@ABM@std@@YAABMABM@Z		; std::forward<float const &>
	add	esp, 4
	push	eax
	lea	ecx, DWORD PTR __Pred$[ebp]
	call	??$?RABMABM@?$less@X@std@@QBE_NABM0@Z	; std::less<void>::operator()<float const &,float const &>
	movzx	edx, al
	test	edx, edx
	jne	SHORT $LN3@Debug_lt_p
; Line 522
	xor	al, al
	jmp	SHORT $LN4@Debug_lt_p
	jmp	SHORT $LN2@Debug_lt_p
$LN3@Debug_lt_p:
; Line 523
	mov	eax, DWORD PTR __Left$[ebp]
	push	eax
	call	??$forward@ABM@std@@YAABMABM@Z		; std::forward<float const &>
	add	esp, 4
	push	eax
	mov	ecx, DWORD PTR __Right$[ebp]
	push	ecx
	call	??$forward@ABM@std@@YAABMABM@Z		; std::forward<float const &>
	add	esp, 4
	push	eax
	lea	ecx, DWORD PTR __Pred$[ebp]
	call	??$?RABMABM@?$less@X@std@@QBE_NABM0@Z	; std::less<void>::operator()<float const &,float const &>
	movzx	edx, al
	test	edx, edx
	je	SHORT $LN2@Debug_lt_p
; Line 524
	mov	esi, esp
	mov	eax, DWORD PTR __Line$[ebp]
	push	eax
	mov	ecx, DWORD PTR __File$[ebp]
	push	ecx
	push	OFFSET ??_C@_1CE@IGJMOCCK@?$AAi?$AAn?$AAv?$AAa?$AAl?$AAi?$AAd?$AA?5?$AAo?$AAp?$AAe?$AAr?$AAa?$AAt?$AAo?$AAr?$AA?$DM?$AA?$AA@
	call	DWORD PTR __imp_?_Debug_message@std@@YAXPB_W0I@Z
	add	esp, 12					; 0000000cH
	cmp	esi, esp
	call	__RTC_CheckEsp
$LN2@Debug_lt_p:
; Line 525
	mov	al, 1
$LN4@Debug_lt_p:
; Line 526
	pop	esi
	cmp	ebp, esp
	call	__RTC_CheckEsp
	pop	ebp
	ret	0
??$_Debug_lt_pred@U?$less@X@std@@ABMABM@std@@YA_NU?$less@X@0@ABM1PB_WI@Z ENDP ; std::_Debug_lt_pred<std::less<void>,float const &,float const &>
_TEXT	ENDS
; Function compile flags: /Odtp /RTCsu
;	COMDAT ??$forward@ABM@std@@YAABMABM@Z
_TEXT	SEGMENT
__Arg$ = 8						; size = 4
??$forward@ABM@std@@YAABMABM@Z PROC			; std::forward<float const &>, COMDAT
; File c:\program files (x86)\microsoft visual studio 12.0\vc\include\type_traits
; Line 1504
	push	ebp
	mov	ebp, esp
; Line 1505
	mov	eax, DWORD PTR __Arg$[ebp]
; Line 1506
	pop	ebp
	ret	0
??$forward@ABM@std@@YAABMABM@Z ENDP			; std::forward<float const &>
_TEXT	ENDS
; Function compile flags: /Odtp /RTCsu
;	COMDAT ??$_Debug_lt@ABMABM@std@@YA_NABM0PB_WI@Z
_TEXT	SEGMENT
$T1 = -1						; size = 1
__Left$ = 8						; size = 4
__Right$ = 12						; size = 4
__File$ = 16						; size = 4
__Line$ = 20						; size = 4
??$_Debug_lt@ABMABM@std@@YA_NABM0PB_WI@Z PROC		; std::_Debug_lt<float const &,float const &>, COMDAT
; File c:\program files (x86)\microsoft visual studio 12.0\vc\include\xutility
; Line 532
	push	ebp
	mov	ebp, esp
	push	ecx
	mov	DWORD PTR [ebp-4], -858993460		; ccccccccH
; Line 534
	xor	eax, eax
	mov	BYTE PTR $T1[ebp], al
	mov	ecx, DWORD PTR __Line$[ebp]
	push	ecx
	mov	edx, DWORD PTR __File$[ebp]
	push	edx
	mov	eax, DWORD PTR __Right$[ebp]
	push	eax
	call	??$forward@ABM@std@@YAABMABM@Z		; std::forward<float const &>
	add	esp, 4
	push	eax
	mov	ecx, DWORD PTR __Left$[ebp]
	push	ecx
	call	??$forward@ABM@std@@YAABMABM@Z		; std::forward<float const &>
	add	esp, 4
	push	eax
	movzx	edx, BYTE PTR $T1[ebp]
	push	edx
	call	??$_Debug_lt_pred@U?$less@X@std@@ABMABM@std@@YA_NU?$less@X@0@ABM1PB_WI@Z ; std::_Debug_lt_pred<std::less<void>,float const &,float const &>
	add	esp, 20					; 00000014H
; Line 535
	add	esp, 4
	cmp	ebp, esp
	call	__RTC_CheckEsp
	mov	esp, ebp
	pop	ebp
	ret	0
??$_Debug_lt@ABMABM@std@@YA_NABM0PB_WI@Z ENDP		; std::_Debug_lt<float const &,float const &>
_TEXT	ENDS
; Function compile flags: /Odtp /RTCsu
;	COMDAT ??$min@M@std@@YAABMABM0@Z
_TEXT	SEGMENT
tv71 = -8						; size = 4
$T1 = -4						; size = 4
__Left$ = 8						; size = 4
__Right$ = 12						; size = 4
??$min@M@std@@YAABMABM0@Z PROC				; std::min<float>, COMDAT
; File c:\program files (x86)\microsoft visual studio 12.0\vc\include\algorithm
; Line 4120
	push	ebp
	mov	ebp, esp
	sub	esp, 8
	mov	DWORD PTR [ebp-8], -858993460		; ccccccccH
	mov	DWORD PTR [ebp-4], -858993460		; ccccccccH
; Line 4121
	push	4121					; 00001019H
	push	OFFSET ??_C@_1JC@HALMDPKM@?$AAC?$AA?3?$AA?2?$AAP?$AAr?$AAo?$AAg?$AAr?$AAa?$AAm?$AA?5?$AAF?$AAi?$AAl?$AAe?$AAs?$AA?5?$AA?$CI?$AAx?$AA8?$AA6?$AA?$CJ?$AA?2?$AAM?$AAi?$AAc?$AAr?$AAo?$AAs?$AAo?$AAf?$AAt@
	mov	eax, DWORD PTR __Left$[ebp]
	push	eax
	mov	ecx, DWORD PTR __Right$[ebp]
	push	ecx
	call	??$_Debug_lt@ABMABM@std@@YA_NABM0PB_WI@Z ; std::_Debug_lt<float const &,float const &>
	add	esp, 16					; 00000010H
	movzx	edx, al
	test	edx, edx
	je	SHORT $LN3@min
	mov	eax, DWORD PTR __Right$[ebp]
	mov	DWORD PTR tv71[ebp], eax
	jmp	SHORT $LN4@min
$LN3@min:
	mov	ecx, DWORD PTR __Left$[ebp]
	mov	DWORD PTR tv71[ebp], ecx
$LN4@min:
	mov	edx, DWORD PTR tv71[ebp]
	mov	DWORD PTR $T1[ebp], edx
	mov	eax, DWORD PTR $T1[ebp]
; Line 4122
	add	esp, 8
	cmp	ebp, esp
	call	__RTC_CheckEsp
	mov	esp, ebp
	pop	ebp
	ret	0
??$min@M@std@@YAABMABM0@Z ENDP				; std::min<float>
_TEXT	ENDS
; Function compile flags: /Odtp /RTCsu
;	COMDAT ??$max@M@std@@YAABMABM0@Z
_TEXT	SEGMENT
tv71 = -8						; size = 4
$T1 = -4						; size = 4
__Left$ = 8						; size = 4
__Right$ = 12						; size = 4
??$max@M@std@@YAABMABM0@Z PROC				; std::max<float>, COMDAT
; File c:\program files (x86)\microsoft visual studio 12.0\vc\include\algorithm
; Line 4087
	push	ebp
	mov	ebp, esp
	sub	esp, 8
	mov	DWORD PTR [ebp-8], -858993460		; ccccccccH
	mov	DWORD PTR [ebp-4], -858993460		; ccccccccH
; Line 4088
	push	4088					; 00000ff8H
	push	OFFSET ??_C@_1JC@HALMDPKM@?$AAC?$AA?3?$AA?2?$AAP?$AAr?$AAo?$AAg?$AAr?$AAa?$AAm?$AA?5?$AAF?$AAi?$AAl?$AAe?$AAs?$AA?5?$AA?$CI?$AAx?$AA8?$AA6?$AA?$CJ?$AA?2?$AAM?$AAi?$AAc?$AAr?$AAo?$AAs?$AAo?$AAf?$AAt@
	mov	eax, DWORD PTR __Right$[ebp]
	push	eax
	mov	ecx, DWORD PTR __Left$[ebp]
	push	ecx
	call	??$_Debug_lt@ABMABM@std@@YA_NABM0PB_WI@Z ; std::_Debug_lt<float const &,float const &>
	add	esp, 16					; 00000010H
	movzx	edx, al
	test	edx, edx
	je	SHORT $LN3@max
	mov	eax, DWORD PTR __Right$[ebp]
	mov	DWORD PTR tv71[ebp], eax
	jmp	SHORT $LN4@max
$LN3@max:
	mov	ecx, DWORD PTR __Left$[ebp]
	mov	DWORD PTR tv71[ebp], ecx
$LN4@max:
	mov	edx, DWORD PTR tv71[ebp]
	mov	DWORD PTR $T1[ebp], edx
	mov	eax, DWORD PTR $T1[ebp]
; Line 4089
	add	esp, 8
	cmp	ebp, esp
	call	__RTC_CheckEsp
	mov	esp, ebp
	pop	ebp
	ret	0
??$max@M@std@@YAABMABM0@Z ENDP				; std::max<float>
_TEXT	ENDS
; Function compile flags: /Odtp /RTCsu
_TEXT	SEGMENT
tv397 = -1728						; size = 16
$T1 = -1712						; size = 64
$T2 = -1648						; size = 64
$T3 = -1584						; size = 64
$T4 = -1520						; size = 64
$T5 = -1456						; size = 64
$T6 = -1392						; size = 16
_vCurrentDir$ = -1376					; size = 16
$T7 = -1360						; size = 16
_vDefaultDir$ = -1344					; size = 16
$T8 = -1328						; size = 16
$T9 = -1312						; size = 16
$T10 = -1296						; size = 16
$T11 = -1280						; size = 16
$T12 = -1264						; size = 16
$T13 = -1248						; size = 16
$T14 = -1232						; size = 16
_zBasis$ = -1216					; size = 16
$T15 = -1200						; size = 16
$T16 = -1184						; size = 16
_yBasis$ = -1168					; size = 16
$T17 = -1152						; size = 16
_xBasis$ = -1136					; size = 16
$T18 = -1120						; size = 64
$T19 = -1056						; size = 64
$T20 = -992						; size = 64
$T21 = -928						; size = 64
_mRot$ = -848						; size = 64
_mRot0$ = -768						; size = 64
$T22 = -688						; size = 64
_mLastRotInv$ = -608					; size = 64
$T23 = -528						; size = 64
_mRotSnapshot$ = -448					; size = 64
$T24 = -368						; size = 16
$T25 = -352						; size = 16
$T26 = -336						; size = 16
$T27 = -320						; size = 64
_mInvView$ = -240					; size = 64
$T28 = -160						; size = 64
_mView$ = -80						; size = 64
_this$ = -8						; size = 4
__$ArrayPad$ = -4					; size = 4
?UpdateLightDir@CDXUTDirectionWidget@@IAEJXZ PROC	; CDXUTDirectionWidget::UpdateLightDir
; _this$ = ecx
; File d:\engine class\assignment 1\scratch\dxsse\dxut\optional\dxutcamera.cpp
; Line 1163
	push	ebx
	mov	ebx, esp
	sub	esp, 8
	and	esp, -16				; fffffff0H
	add	esp, 4
	push	ebp
	mov	ebp, DWORD PTR [ebx+4]
	mov	DWORD PTR [esp+4], ebp
	mov	ebp, esp
	sub	esp, 1736				; 000006c8H
	push	esi
	push	edi
	push	ecx
	lea	edi, DWORD PTR [ebp-1736]
	mov	ecx, 434				; 000001b2H
	mov	eax, -858993460				; ccccccccH
	rep stosd
	pop	ecx
	mov	eax, DWORD PTR ___security_cookie
	xor	eax, ebp
	mov	DWORD PTR __$ArrayPad$[ebp], eax
	mov	DWORD PTR _this$[ebp], ecx
; Line 1164
	mov	ecx, DWORD PTR _this$[ebp]
	add	ecx, 452				; 000001c4H
	call	?XMLoadFloat4x4@DirectX@@YQ?AUXMMATRIX@1@PBUXMFLOAT4X4@1@@Z ; DirectX::XMLoadFloat4x4
	movaps	XMMWORD PTR $T5[ebp+48], xmm3
	movaps	XMMWORD PTR $T5[ebp+32], xmm2
	movaps	XMMWORD PTR $T5[ebp+16], xmm1
	movaps	XMMWORD PTR $T5[ebp], xmm0
	mov	ecx, 16					; 00000010H
	lea	esi, DWORD PTR $T5[ebp]
	lea	edi, DWORD PTR $T28[ebp]
	rep movsd
	mov	ecx, 16					; 00000010H
	lea	esi, DWORD PTR $T28[ebp]
	lea	edi, DWORD PTR _mView$[ebp]
	rep movsd
; Line 1166
	xor	ecx, ecx
	movaps	xmm0, XMMWORD PTR _mView$[ebp]
	movaps	xmm1, XMMWORD PTR _mView$[ebp+16]
	movaps	xmm2, XMMWORD PTR _mView$[ebp+32]
	movaps	xmm3, XMMWORD PTR _mView$[ebp+48]
	call	?XMMatrixInverse@DirectX@@YQ?AUXMMATRIX@1@PAT__m128@@U21@@Z ; DirectX::XMMatrixInverse
	movaps	XMMWORD PTR $T4[ebp+48], xmm3
	movaps	XMMWORD PTR $T4[ebp+32], xmm2
	movaps	XMMWORD PTR $T4[ebp+16], xmm1
	movaps	XMMWORD PTR $T4[ebp], xmm0
	mov	ecx, 16					; 00000010H
	lea	esi, DWORD PTR $T4[ebp]
	lea	edi, DWORD PTR $T27[ebp]
	rep movsd
	mov	ecx, 16					; 00000010H
	lea	esi, DWORD PTR $T27[ebp]
	lea	edi, DWORD PTR _mInvView$[ebp]
	rep movsd
; Line 1167
	lea	eax, DWORD PTR $T26[ebp]
	push	eax
	mov	ecx, OFFSET ?g_XMSelect1110@DirectX@@3UXMVECTORI32@1@B ; DirectX::g_XMSelect1110
	call	??BXMVECTORI32@DirectX@@QBE?AT__m128@@XZ ; DirectX::XMVECTORI32::operator __m128
	movups	xmm0, XMMWORD PTR [eax]
	lea	ecx, DWORD PTR $T25[ebp]
	push	ecx
	mov	ecx, OFFSET ?g_XMZero@DirectX@@3UXMVECTORF32@1@B ; DirectX::g_XMZero
	movaps	XMMWORD PTR tv397[ebp], xmm0
	call	??BXMVECTORF32@DirectX@@QBE?AT__m128@@XZ ; DirectX::XMVECTORF32::operator __m128
	movups	xmm1, XMMWORD PTR [eax]
	mov	edx, 16					; 00000010H
	imul	eax, edx, 3
	movups	xmm0, XMMWORD PTR _mInvView$[ebp+eax]
	movaps	xmm2, XMMWORD PTR tv397[ebp]
	call	?XMVectorSelect@DirectX@@YQ?AT__m128@@T2@00@Z ; DirectX::XMVectorSelect
	movaps	XMMWORD PTR $T24[ebp], xmm0
	mov	ecx, 16					; 00000010H
	imul	edx, ecx, 3
	movups	xmm0, XMMWORD PTR $T24[ebp]
	movups	XMMWORD PTR _mInvView$[ebp+edx], xmm0
; Line 1169
	mov	ecx, DWORD PTR _this$[ebp]
	add	ecx, 64					; 00000040H
	call	?XMLoadFloat4x4@DirectX@@YQ?AUXMMATRIX@1@PBUXMFLOAT4X4@1@@Z ; DirectX::XMLoadFloat4x4
	movaps	XMMWORD PTR $T3[ebp+48], xmm3
	movaps	XMMWORD PTR $T3[ebp+32], xmm2
	movaps	XMMWORD PTR $T3[ebp+16], xmm1
	movaps	XMMWORD PTR $T3[ebp], xmm0
	mov	ecx, 16					; 00000010H
	lea	esi, DWORD PTR $T3[ebp]
	lea	edi, DWORD PTR $T23[ebp]
	rep movsd
	mov	ecx, 16					; 00000010H
	lea	esi, DWORD PTR $T23[ebp]
	lea	edi, DWORD PTR _mRotSnapshot$[ebp]
	rep movsd
; Line 1170
	xor	ecx, ecx
	movaps	xmm0, XMMWORD PTR _mRotSnapshot$[ebp]
	movaps	xmm1, XMMWORD PTR _mRotSnapshot$[ebp+16]
	movaps	xmm2, XMMWORD PTR _mRotSnapshot$[ebp+32]
	movaps	xmm3, XMMWORD PTR _mRotSnapshot$[ebp+48]
	call	?XMMatrixInverse@DirectX@@YQ?AUXMMATRIX@1@PAT__m128@@U21@@Z ; DirectX::XMMatrixInverse
	movaps	XMMWORD PTR $T2[ebp+48], xmm3
	movaps	XMMWORD PTR $T2[ebp+32], xmm2
	movaps	XMMWORD PTR $T2[ebp+16], xmm1
	movaps	XMMWORD PTR $T2[ebp], xmm0
	mov	ecx, 16					; 00000010H
	lea	esi, DWORD PTR $T2[ebp]
	lea	edi, DWORD PTR $T22[ebp]
	rep movsd
	mov	ecx, 16					; 00000010H
	lea	esi, DWORD PTR $T22[ebp]
	lea	edi, DWORD PTR _mLastRotInv$[ebp]
	rep movsd
; Line 1172
	lea	eax, DWORD PTR _mRot0$[ebp]
	push	eax
	mov	ecx, DWORD PTR _this$[ebp]
	add	ecx, 136				; 00000088H
	call	?GetRotationMatrix@CD3DArcBall@@QBE?AUXMMATRIX@DirectX@@XZ ; CD3DArcBall::GetRotationMatrix
; Line 1173
	mov	ecx, DWORD PTR _this$[ebp]
	add	ecx, 64					; 00000040H
	movaps	xmm0, XMMWORD PTR _mRot0$[ebp]
	movaps	xmm1, XMMWORD PTR _mRot0$[ebp+16]
	movaps	xmm2, XMMWORD PTR _mRot0$[ebp+32]
	movaps	xmm3, XMMWORD PTR _mRot0$[ebp+48]
	call	?XMStoreFloat4x4@DirectX@@YQXPAUXMFLOAT4X4@1@UXMMATRIX@1@@Z ; DirectX::XMStoreFloat4x4
; Line 1177
	mov	ecx, DWORD PTR _this$[ebp]
	call	?XMLoadFloat4x4@DirectX@@YQ?AUXMMATRIX@1@PBUXMFLOAT4X4@1@@Z ; DirectX::XMLoadFloat4x4
	movaps	XMMWORD PTR $T1[ebp+48], xmm3
	movaps	XMMWORD PTR $T1[ebp+32], xmm2
	movaps	XMMWORD PTR $T1[ebp+16], xmm1
	movaps	XMMWORD PTR $T1[ebp], xmm0
	mov	ecx, 16					; 00000010H
	lea	esi, DWORD PTR $T1[ebp]
	lea	edi, DWORD PTR $T21[ebp]
	rep movsd
	mov	ecx, 16					; 00000010H
	lea	esi, DWORD PTR $T21[ebp]
	lea	edi, DWORD PTR _mRot$[ebp]
	rep movsd
; Line 1178
	lea	edx, DWORD PTR $T20[ebp]
	lea	ecx, DWORD PTR _mView$[ebp]
	movaps	xmm0, XMMWORD PTR _mLastRotInv$[ebp]
	movaps	xmm1, XMMWORD PTR _mLastRotInv$[ebp+16]
	movaps	xmm2, XMMWORD PTR _mLastRotInv$[ebp+32]
	movaps	xmm3, XMMWORD PTR _mLastRotInv$[ebp+48]
	call	??DXMMATRIX@DirectX@@QBQ?AU01@U01@@Z	; DirectX::XMMATRIX::operator*
	lea	edx, DWORD PTR $T19[ebp]
	mov	ecx, eax
	movaps	xmm0, XMMWORD PTR _mRot0$[ebp]
	movaps	xmm1, XMMWORD PTR _mRot0$[ebp+16]
	movaps	xmm2, XMMWORD PTR _mRot0$[ebp+32]
	movaps	xmm3, XMMWORD PTR _mRot0$[ebp+48]
	call	??DXMMATRIX@DirectX@@QBQ?AU01@U01@@Z	; DirectX::XMMATRIX::operator*
	lea	edx, DWORD PTR $T18[ebp]
	mov	ecx, eax
	movaps	xmm0, XMMWORD PTR _mInvView$[ebp]
	movaps	xmm1, XMMWORD PTR _mInvView$[ebp+16]
	movaps	xmm2, XMMWORD PTR _mInvView$[ebp+32]
	movaps	xmm3, XMMWORD PTR _mInvView$[ebp+48]
	call	??DXMMATRIX@DirectX@@QBQ?AU01@U01@@Z	; DirectX::XMMATRIX::operator*
	lea	ecx, DWORD PTR _mRot$[ebp]
	movaps	xmm0, XMMWORD PTR [eax]
	movaps	xmm1, XMMWORD PTR [eax+16]
	movaps	xmm2, XMMWORD PTR [eax+32]
	movaps	xmm3, XMMWORD PTR [eax+48]
	call	??XXMMATRIX@DirectX@@QAQAAU01@U01@@Z	; DirectX::XMMATRIX::operator*=
; Line 1182
	mov	ecx, 16					; 00000010H
	imul	edx, ecx, 0
	movups	xmm0, XMMWORD PTR _mRot$[ebp+edx]
	call	?XMVector3Normalize@DirectX@@YQ?AT__m128@@T2@@Z ; DirectX::XMVector3Normalize
	movaps	XMMWORD PTR $T17[ebp], xmm0
	movaps	xmm0, XMMWORD PTR $T17[ebp]
	movaps	XMMWORD PTR _xBasis$[ebp], xmm0
; Line 1183
	movaps	xmm1, XMMWORD PTR _xBasis$[ebp]
	mov	eax, 16					; 00000010H
	shl	eax, 1
	movups	xmm0, XMMWORD PTR _mRot$[ebp+eax]
	call	?XMVector3Cross@DirectX@@YQ?AT__m128@@T2@0@Z ; DirectX::XMVector3Cross
	movaps	XMMWORD PTR $T16[ebp], xmm0
	movaps	xmm0, XMMWORD PTR $T16[ebp]
	movaps	XMMWORD PTR _yBasis$[ebp], xmm0
; Line 1184
	movaps	xmm0, XMMWORD PTR _yBasis$[ebp]
	call	?XMVector3Normalize@DirectX@@YQ?AT__m128@@T2@@Z ; DirectX::XMVector3Normalize
	movaps	XMMWORD PTR $T15[ebp], xmm0
	movaps	xmm0, XMMWORD PTR $T15[ebp]
	movaps	XMMWORD PTR _yBasis$[ebp], xmm0
; Line 1185
	movaps	xmm1, XMMWORD PTR _yBasis$[ebp]
	movaps	xmm0, XMMWORD PTR _xBasis$[ebp]
	call	?XMVector3Cross@DirectX@@YQ?AT__m128@@T2@0@Z ; DirectX::XMVector3Cross
	movaps	XMMWORD PTR $T14[ebp], xmm0
	movaps	xmm0, XMMWORD PTR $T14[ebp]
	movaps	XMMWORD PTR _zBasis$[ebp], xmm0
; Line 1186
	lea	ecx, DWORD PTR $T13[ebp]
	push	ecx
	mov	ecx, OFFSET ?g_XMSelect1110@DirectX@@3UXMVECTORI32@1@B ; DirectX::g_XMSelect1110
	call	??BXMVECTORI32@DirectX@@QBE?AT__m128@@XZ ; DirectX::XMVECTORI32::operator __m128
	movups	xmm2, XMMWORD PTR [eax]
	movaps	xmm1, XMMWORD PTR _xBasis$[ebp]
	mov	edx, 16					; 00000010H
	imul	eax, edx, 0
	movups	xmm0, XMMWORD PTR _mRot$[ebp+eax]
	call	?XMVectorSelect@DirectX@@YQ?AT__m128@@T2@00@Z ; DirectX::XMVectorSelect
	movaps	XMMWORD PTR $T12[ebp], xmm0
	mov	ecx, 16					; 00000010H
	imul	edx, ecx, 0
	movups	xmm0, XMMWORD PTR $T12[ebp]
	movups	XMMWORD PTR _mRot$[ebp+edx], xmm0
; Line 1187
	lea	eax, DWORD PTR $T11[ebp]
	push	eax
	mov	ecx, OFFSET ?g_XMSelect1110@DirectX@@3UXMVECTORI32@1@B ; DirectX::g_XMSelect1110
	call	??BXMVECTORI32@DirectX@@QBE?AT__m128@@XZ ; DirectX::XMVECTORI32::operator __m128
	movups	xmm2, XMMWORD PTR [eax]
	movaps	xmm1, XMMWORD PTR _yBasis$[ebp]
	mov	ecx, 16					; 00000010H
	shl	ecx, 0
	movups	xmm0, XMMWORD PTR _mRot$[ebp+ecx]
	call	?XMVectorSelect@DirectX@@YQ?AT__m128@@T2@00@Z ; DirectX::XMVectorSelect
	movaps	XMMWORD PTR $T10[ebp], xmm0
	mov	edx, 16					; 00000010H
	shl	edx, 0
	movups	xmm0, XMMWORD PTR $T10[ebp]
	movups	XMMWORD PTR _mRot$[ebp+edx], xmm0
; Line 1188
	lea	eax, DWORD PTR $T9[ebp]
	push	eax
	mov	ecx, OFFSET ?g_XMSelect1110@DirectX@@3UXMVECTORI32@1@B ; DirectX::g_XMSelect1110
	call	??BXMVECTORI32@DirectX@@QBE?AT__m128@@XZ ; DirectX::XMVECTORI32::operator __m128
	movups	xmm2, XMMWORD PTR [eax]
	movaps	xmm1, XMMWORD PTR _zBasis$[ebp]
	mov	ecx, 16					; 00000010H
	shl	ecx, 1
	movups	xmm0, XMMWORD PTR _mRot$[ebp+ecx]
	call	?XMVectorSelect@DirectX@@YQ?AT__m128@@T2@00@Z ; DirectX::XMVectorSelect
	movaps	XMMWORD PTR $T8[ebp], xmm0
	mov	edx, 16					; 00000010H
	shl	edx, 1
	movups	xmm0, XMMWORD PTR $T8[ebp]
	movups	XMMWORD PTR _mRot$[ebp+edx], xmm0
; Line 1189
	mov	ecx, DWORD PTR _this$[ebp]
	movaps	xmm0, XMMWORD PTR _mRot$[ebp]
	movaps	xmm1, XMMWORD PTR _mRot$[ebp+16]
	movaps	xmm2, XMMWORD PTR _mRot$[ebp+32]
	movaps	xmm3, XMMWORD PTR _mRot$[ebp+48]
	call	?XMStoreFloat4x4@DirectX@@YQXPAUXMFLOAT4X4@1@UXMMATRIX@1@@Z ; DirectX::XMStoreFloat4x4
; Line 1192
	mov	ecx, DWORD PTR _this$[ebp]
	add	ecx, 428				; 000001acH
	call	?XMLoadFloat3@DirectX@@YQ?AT__m128@@PBUXMFLOAT3@1@@Z ; DirectX::XMLoadFloat3
	movaps	XMMWORD PTR $T7[ebp], xmm0
	movaps	xmm0, XMMWORD PTR $T7[ebp]
	movaps	XMMWORD PTR _vDefaultDir$[ebp], xmm0
; Line 1193
	movaps	xmm0, XMMWORD PTR _vDefaultDir$[ebp]
	movaps	xmm1, XMMWORD PTR _mRot$[ebp]
	movaps	xmm2, XMMWORD PTR _mRot$[ebp+16]
	movaps	xmm3, XMMWORD PTR _mRot$[ebp+32]
	movaps	xmm4, XMMWORD PTR _mRot$[ebp+48]
	call	?XMVector3TransformNormal@DirectX@@YQ?AT__m128@@T2@UXMMATRIX@1@@Z ; DirectX::XMVector3TransformNormal
	movaps	XMMWORD PTR $T6[ebp], xmm0
	movaps	xmm0, XMMWORD PTR $T6[ebp]
	movaps	XMMWORD PTR _vCurrentDir$[ebp], xmm0
; Line 1194
	movaps	xmm0, XMMWORD PTR _vCurrentDir$[ebp]
	mov	ecx, DWORD PTR _this$[ebp]
	add	ecx, 440				; 000001b8H
	call	?XMStoreFloat3@DirectX@@YQXPAUXMFLOAT3@1@T__m128@@@Z ; DirectX::XMStoreFloat3
; Line 1196
	xor	eax, eax
; Line 1197
	push	edx
	mov	ecx, ebp
	push	eax
	lea	edx, DWORD PTR $LN10@UpdateLigh
	call	@_RTC_CheckStackVars@8
	pop	eax
	pop	edx
	pop	edi
	pop	esi
	mov	ecx, DWORD PTR __$ArrayPad$[ebp]
	xor	ecx, ebp
	call	@__security_check_cookie@4
	mov	esp, ebp
	pop	ebp
	mov	esp, ebx
	pop	ebx
	ret	0
	npad	2
$LN10@UpdateLigh:
	DD	6
	DD	$LN9@UpdateLigh
$LN9@UpdateLigh:
	DD	-80					; ffffffb0H
	DD	64					; 00000040H
	DD	$LN3@UpdateLigh
	DD	-240					; ffffff10H
	DD	64					; 00000040H
	DD	$LN4@UpdateLigh
	DD	-448					; fffffe40H
	DD	64					; 00000040H
	DD	$LN5@UpdateLigh
	DD	-608					; fffffda0H
	DD	64					; 00000040H
	DD	$LN6@UpdateLigh
	DD	-768					; fffffd00H
	DD	64					; 00000040H
	DD	$LN7@UpdateLigh
	DD	-848					; fffffcb0H
	DD	64					; 00000040H
	DD	$LN8@UpdateLigh
$LN8@UpdateLigh:
	DB	109					; 0000006dH
	DB	82					; 00000052H
	DB	111					; 0000006fH
	DB	116					; 00000074H
	DB	0
$LN7@UpdateLigh:
	DB	109					; 0000006dH
	DB	82					; 00000052H
	DB	111					; 0000006fH
	DB	116					; 00000074H
	DB	48					; 00000030H
	DB	0
$LN6@UpdateLigh:
	DB	109					; 0000006dH
	DB	76					; 0000004cH
	DB	97					; 00000061H
	DB	115					; 00000073H
	DB	116					; 00000074H
	DB	82					; 00000052H
	DB	111					; 0000006fH
	DB	116					; 00000074H
	DB	73					; 00000049H
	DB	110					; 0000006eH
	DB	118					; 00000076H
	DB	0
$LN5@UpdateLigh:
	DB	109					; 0000006dH
	DB	82					; 00000052H
	DB	111					; 0000006fH
	DB	116					; 00000074H
	DB	83					; 00000053H
	DB	110					; 0000006eH
	DB	97					; 00000061H
	DB	112					; 00000070H
	DB	115					; 00000073H
	DB	104					; 00000068H
	DB	111					; 0000006fH
	DB	116					; 00000074H
	DB	0
$LN4@UpdateLigh:
	DB	109					; 0000006dH
	DB	73					; 00000049H
	DB	110					; 0000006eH
	DB	118					; 00000076H
	DB	86					; 00000056H
	DB	105					; 00000069H
	DB	101					; 00000065H
	DB	119					; 00000077H
	DB	0
$LN3@UpdateLigh:
	DB	109					; 0000006dH
	DB	86					; 00000056H
	DB	105					; 00000069H
	DB	101					; 00000065H
	DB	119					; 00000077H
	DB	0
?UpdateLightDir@CDXUTDirectionWidget@@IAEJXZ ENDP	; CDXUTDirectionWidget::UpdateLightDir
_TEXT	ENDS
; Function compile flags: /Odtp /RTCsu
_TEXT	SEGMENT
?StaticOnD3D11DestroyDevice@CDXUTDirectionWidget@@SGXXZ PROC ; CDXUTDirectionWidget::StaticOnD3D11DestroyDevice
; File d:\engine class\assignment 1\scratch\dxsse\dxut\optional\dxutcamera.cpp
; Line 1226
	push	ebp
	mov	ebp, esp
; Line 1228
	pop	ebp
	ret	0
?StaticOnD3D11DestroyDevice@CDXUTDirectionWidget@@SGXXZ ENDP ; CDXUTDirectionWidget::StaticOnD3D11DestroyDevice
_TEXT	ENDS
; Function compile flags: /Odtp /RTCsu
_TEXT	SEGMENT
_pd3dDevice$ = 8					; size = 4
_pd3dImmediateContext$ = 12				; size = 4
?StaticOnD3D11CreateDevice@CDXUTDirectionWidget@@SGJPAUID3D11Device@@PAUID3D11DeviceContext@@@Z PROC ; CDXUTDirectionWidget::StaticOnD3D11CreateDevice
; File d:\engine class\assignment 1\scratch\dxsse\dxut\optional\dxutcamera.cpp
; Line 1216
	push	ebp
	mov	ebp, esp
; Line 1220
	xor	eax, eax
; Line 1221
	pop	ebp
	ret	8
?StaticOnD3D11CreateDevice@CDXUTDirectionWidget@@SGJPAUID3D11Device@@PAUID3D11DeviceContext@@@Z ENDP ; CDXUTDirectionWidget::StaticOnD3D11CreateDevice
_TEXT	ENDS
; Function compile flags: /Odtp /RTCsu
_TEXT	SEGMENT
_this$ = -36						; size = 4
_vEyePt$ = -32						; size = 16
_color$ = -16						; size = 16
_mView$ = 8						; size = 4
_mProj$ = 12						; size = 4
?OnRender@CDXUTDirectionWidget@@QAEJT__m128@@ABUXMMATRIX@DirectX@@10@Z PROC ; CDXUTDirectionWidget::OnRender
; _this$ = ecx
; _color$ = xmm0
; _vEyePt$ = xmm1
; File d:\engine class\assignment 1\scratch\dxsse\dxut\optional\dxutcamera.cpp
; Line 1203
	push	ebx
	mov	ebx, esp
	sub	esp, 8
	and	esp, -16				; fffffff0H
	add	esp, 4
	push	ebp
	mov	ebp, DWORD PTR [ebx+4]
	mov	DWORD PTR [esp+4], ebp
	mov	ebp, esp
	sub	esp, 48					; 00000030H
	push	edi
	push	ecx
	lea	edi, DWORD PTR [ebp-48]
	mov	ecx, 12					; 0000000cH
	mov	eax, -858993460				; ccccccccH
	rep stosd
	pop	ecx
	movaps	XMMWORD PTR _vEyePt$[ebp], xmm1
	movaps	XMMWORD PTR _color$[ebp], xmm0
	mov	DWORD PTR _this$[ebp], ecx
; Line 1209
	xor	eax, eax
; Line 1210
	pop	edi
	mov	esp, ebp
	pop	ebp
	mov	esp, ebx
	pop	ebx
	ret	8
?OnRender@CDXUTDirectionWidget@@QAEJT__m128@@ABUXMMATRIX@DirectX@@10@Z ENDP ; CDXUTDirectionWidget::OnRender
_TEXT	ENDS
; Function compile flags: /Odtp /RTCsu
_TEXT	SEGMENT
tv64 = -24						; size = 4
_iMouseY$1 = -20					; size = 4
_iMouseX$2 = -16					; size = 4
_iMouseY$3 = -12					; size = 4
_iMouseX$4 = -8						; size = 4
_this$ = -4						; size = 4
_hWnd$ = 8						; size = 4
_uMsg$ = 12						; size = 4
_wParam$ = 16						; size = 4
_lParam$ = 20						; size = 4
?HandleMessages@CDXUTDirectionWidget@@QAEJPAUHWND__@@IIJ@Z PROC ; CDXUTDirectionWidget::HandleMessages
; _this$ = ecx
; File d:\engine class\assignment 1\scratch\dxsse\dxut\optional\dxutcamera.cpp
; Line 1092
	push	ebp
	mov	ebp, esp
	sub	esp, 24					; 00000018H
	push	esi
	mov	eax, -858993460				; ccccccccH
	mov	DWORD PTR [ebp-24], eax
	mov	DWORD PTR [ebp-20], eax
	mov	DWORD PTR [ebp-16], eax
	mov	DWORD PTR [ebp-12], eax
	mov	DWORD PTR [ebp-8], eax
	mov	DWORD PTR [ebp-4], eax
	mov	DWORD PTR _this$[ebp], ecx
; Line 1095
	mov	eax, DWORD PTR _uMsg$[ebp]
	mov	DWORD PTR tv64[ebp], eax
	mov	ecx, DWORD PTR tv64[ebp]
	sub	ecx, 512				; 00000200H
	mov	DWORD PTR tv64[ebp], ecx
	cmp	DWORD PTR tv64[ebp], 21			; 00000015H
	ja	$LN17@HandleMess
	mov	edx, DWORD PTR tv64[ebp]
	movzx	eax, BYTE PTR $LN21@HandleMess[edx]
	jmp	DWORD PTR $LN22@HandleMess[eax*4]
$LN16@HandleMess:
; Line 1103
	mov	ecx, DWORD PTR _this$[ebp]
	mov	edx, DWORD PTR [ecx+132]
	and	edx, 1
	je	SHORT $LN13@HandleMess
	cmp	DWORD PTR _uMsg$[ebp], 513		; 00000201H
	je	SHORT $LN14@HandleMess
$LN13@HandleMess:
	mov	eax, DWORD PTR _this$[ebp]
	mov	ecx, DWORD PTR [eax+132]
	and	ecx, 2
	je	SHORT $LN12@HandleMess
	cmp	DWORD PTR _uMsg$[ebp], 519		; 00000207H
	je	SHORT $LN14@HandleMess
$LN12@HandleMess:
	mov	edx, DWORD PTR _this$[ebp]
	mov	eax, DWORD PTR [edx+132]
	and	eax, 4
	je	SHORT $LN15@HandleMess
	cmp	DWORD PTR _uMsg$[ebp], 516		; 00000204H
	jne	SHORT $LN15@HandleMess
$LN14@HandleMess:
; Line 1105
	mov	ecx, DWORD PTR _lParam$[ebp]
	and	ecx, 65535				; 0000ffffH
	movsx	edx, cx
	mov	DWORD PTR _iMouseX$4[ebp], edx
; Line 1106
	mov	eax, DWORD PTR _lParam$[ebp]
	shr	eax, 16					; 00000010H
	and	eax, 65535				; 0000ffffH
	movsx	ecx, ax
	mov	DWORD PTR _iMouseY$3[ebp], ecx
; Line 1107
	mov	edx, DWORD PTR _iMouseY$3[ebp]
	push	edx
	mov	eax, DWORD PTR _iMouseX$4[ebp]
	push	eax
	mov	ecx, DWORD PTR _this$[ebp]
	add	ecx, 136				; 00000088H
	call	?OnBegin@CD3DArcBall@@QAEXHH@Z		; CD3DArcBall::OnBegin
; Line 1108
	mov	esi, esp
	mov	ecx, DWORD PTR _hWnd$[ebp]
	push	ecx
	call	DWORD PTR __imp__SetCapture@4
	cmp	esi, esp
	call	__RTC_CheckEsp
$LN15@HandleMess:
; Line 1110
	mov	eax, 1
	jmp	$LN19@HandleMess
$LN11@HandleMess:
; Line 1115
	mov	ecx, DWORD PTR _this$[ebp]
	add	ecx, 136				; 00000088H
	call	?IsBeingDragged@CD3DArcBall@@QBE_NXZ	; CD3DArcBall::IsBeingDragged
	movzx	edx, al
	test	edx, edx
	je	SHORT $LN10@HandleMess
; Line 1117
	mov	eax, DWORD PTR _lParam$[ebp]
	and	eax, 65535				; 0000ffffH
	movsx	ecx, ax
	mov	DWORD PTR _iMouseX$2[ebp], ecx
; Line 1118
	mov	edx, DWORD PTR _lParam$[ebp]
	shr	edx, 16					; 00000010H
	and	edx, 65535				; 0000ffffH
	movsx	eax, dx
	mov	DWORD PTR _iMouseY$1[ebp], eax
; Line 1119
	mov	ecx, DWORD PTR _iMouseY$1[ebp]
	push	ecx
	mov	edx, DWORD PTR _iMouseX$2[ebp]
	push	edx
	mov	ecx, DWORD PTR _this$[ebp]
	add	ecx, 136				; 00000088H
	call	?OnMove@CD3DArcBall@@QAEXHH@Z		; CD3DArcBall::OnMove
; Line 1120
	mov	ecx, DWORD PTR _this$[ebp]
	call	?UpdateLightDir@CDXUTDirectionWidget@@IAEJXZ ; CDXUTDirectionWidget::UpdateLightDir
$LN10@HandleMess:
; Line 1122
	mov	eax, 1
	jmp	$LN19@HandleMess
$LN9@HandleMess:
; Line 1131
	mov	eax, DWORD PTR _this$[ebp]
	mov	ecx, DWORD PTR [eax+132]
	and	ecx, 1
	je	SHORT $LN6@HandleMess
	cmp	DWORD PTR _uMsg$[ebp], 514		; 00000202H
	je	SHORT $LN7@HandleMess
$LN6@HandleMess:
	mov	edx, DWORD PTR _this$[ebp]
	mov	eax, DWORD PTR [edx+132]
	and	eax, 2
	je	SHORT $LN5@HandleMess
	cmp	DWORD PTR _uMsg$[ebp], 520		; 00000208H
	je	SHORT $LN7@HandleMess
$LN5@HandleMess:
	mov	ecx, DWORD PTR _this$[ebp]
	mov	edx, DWORD PTR [ecx+132]
	and	edx, 4
	je	SHORT $LN8@HandleMess
	cmp	DWORD PTR _uMsg$[ebp], 517		; 00000205H
	jne	SHORT $LN8@HandleMess
$LN7@HandleMess:
; Line 1133
	mov	ecx, DWORD PTR _this$[ebp]
	add	ecx, 136				; 00000088H
	call	?OnEnd@CD3DArcBall@@QAEXXZ		; CD3DArcBall::OnEnd
; Line 1134
	mov	esi, esp
	call	DWORD PTR __imp__ReleaseCapture@0
	cmp	esi, esp
	call	__RTC_CheckEsp
$LN8@HandleMess:
; Line 1137
	mov	ecx, DWORD PTR _this$[ebp]
	call	?UpdateLightDir@CDXUTDirectionWidget@@IAEJXZ ; CDXUTDirectionWidget::UpdateLightDir
; Line 1138
	mov	eax, 1
	jmp	SHORT $LN19@HandleMess
$LN4@HandleMess:
; Line 1143
	mov	eax, DWORD PTR _lParam$[ebp]
	cmp	eax, DWORD PTR _hWnd$[ebp]
	je	SHORT $LN3@HandleMess
; Line 1147
	mov	ecx, DWORD PTR _this$[ebp]
	mov	edx, DWORD PTR [ecx+132]
	and	edx, 1
	jne	SHORT $LN1@HandleMess
	mov	eax, DWORD PTR _this$[ebp]
	mov	ecx, DWORD PTR [eax+132]
	and	ecx, 2
	jne	SHORT $LN1@HandleMess
	mov	edx, DWORD PTR _this$[ebp]
	mov	eax, DWORD PTR [edx+132]
	and	eax, 4
	je	SHORT $LN3@HandleMess
$LN1@HandleMess:
; Line 1149
	mov	ecx, DWORD PTR _this$[ebp]
	add	ecx, 136				; 00000088H
	call	?OnEnd@CD3DArcBall@@QAEXXZ		; CD3DArcBall::OnEnd
; Line 1150
	mov	esi, esp
	call	DWORD PTR __imp__ReleaseCapture@0
	cmp	esi, esp
	call	__RTC_CheckEsp
$LN3@HandleMess:
; Line 1153
	mov	eax, 1
	jmp	SHORT $LN19@HandleMess
$LN17@HandleMess:
; Line 1157
	xor	eax, eax
$LN19@HandleMess:
; Line 1158
	pop	esi
	add	esp, 24					; 00000018H
	cmp	ebp, esp
	call	__RTC_CheckEsp
	mov	esp, ebp
	pop	ebp
	ret	16					; 00000010H
	npad	3
$LN22@HandleMess:
	DD	$LN11@HandleMess
	DD	$LN16@HandleMess
	DD	$LN9@HandleMess
	DD	$LN4@HandleMess
	DD	$LN17@HandleMess
$LN21@HandleMess:
	DB	0
	DB	1
	DB	2
	DB	4
	DB	1
	DB	2
	DB	4
	DB	1
	DB	2
	DB	4
	DB	4
	DB	4
	DB	4
	DB	4
	DB	4
	DB	4
	DB	4
	DB	4
	DB	4
	DB	4
	DB	4
	DB	3
?HandleMessages@CDXUTDirectionWidget@@QAEJPAUHWND__@@IIJ@Z ENDP ; CDXUTDirectionWidget::HandleMessages
_TEXT	ENDS
; Function compile flags: /Odtp /RTCsu
_TEXT	SEGMENT
$T1 = -240						; size = 64
$T2 = -172						; size = 12
$T3 = -160						; size = 64
_id$ = -80						; size = 64
_this$ = -8						; size = 4
__$ArrayPad$ = -4					; size = 4
??0CDXUTDirectionWidget@@QAE@XZ PROC			; CDXUTDirectionWidget::CDXUTDirectionWidget
; _this$ = ecx
; File d:\engine class\assignment 1\scratch\dxsse\dxut\optional\dxutcamera.cpp
; Line 1076
	push	ebx
	mov	ebx, esp
	sub	esp, 8
	and	esp, -16				; fffffff0H
	add	esp, 4
	push	ebp
	mov	ebp, DWORD PTR [ebx+4]
	mov	DWORD PTR [esp+4], ebp
	mov	ebp, esp
	sub	esp, 248				; 000000f8H
	push	esi
	push	edi
	push	ecx
	lea	edi, DWORD PTR [ebp-248]
	mov	ecx, 62					; 0000003eH
	mov	eax, -858993460				; ccccccccH
	rep stosd
	pop	ecx
	mov	eax, DWORD PTR ___security_cookie
	xor	eax, ebp
	mov	DWORD PTR __$ArrayPad$[ebp], eax
	mov	DWORD PTR _this$[ebp], ecx
	mov	ecx, DWORD PTR _this$[ebp]
	call	??0XMFLOAT4X4@DirectX@@QAE@XZ		; DirectX::XMFLOAT4X4::XMFLOAT4X4
	mov	ecx, DWORD PTR _this$[ebp]
	add	ecx, 64					; 00000040H
	call	??0XMFLOAT4X4@DirectX@@QAE@XZ		; DirectX::XMFLOAT4X4::XMFLOAT4X4
	mov	eax, DWORD PTR _this$[ebp]
	movss	xmm0, DWORD PTR __real@3f800000
	movss	DWORD PTR [eax+128], xmm0
	mov	ecx, DWORD PTR _this$[ebp]
	mov	DWORD PTR [ecx+132], 4
	mov	ecx, DWORD PTR _this$[ebp]
	add	ecx, 136				; 00000088H
	call	??0CD3DArcBall@@QAE@XZ			; CD3DArcBall::CD3DArcBall
	mov	ecx, DWORD PTR _this$[ebp]
	add	ecx, 428				; 000001acH
	call	??0XMFLOAT3@DirectX@@QAE@XZ		; DirectX::XMFLOAT3::XMFLOAT3
	mov	ecx, DWORD PTR _this$[ebp]
	add	ecx, 440				; 000001b8H
	call	??0XMFLOAT3@DirectX@@QAE@XZ		; DirectX::XMFLOAT3::XMFLOAT3
	mov	ecx, DWORD PTR _this$[ebp]
	add	ecx, 452				; 000001c4H
	call	??0XMFLOAT4X4@DirectX@@QAE@XZ		; DirectX::XMFLOAT4X4::XMFLOAT4X4
; Line 1077
	push	ecx
	movss	xmm0, DWORD PTR __real@00000000
	movss	DWORD PTR [esp], xmm0
	push	ecx
	movss	xmm0, DWORD PTR __real@3f800000
	movss	DWORD PTR [esp], xmm0
	push	ecx
	movss	xmm0, DWORD PTR __real@00000000
	movss	DWORD PTR [esp], xmm0
	lea	ecx, DWORD PTR $T2[ebp]
	call	??0XMFLOAT3@DirectX@@QAE@MMM@Z		; DirectX::XMFLOAT3::XMFLOAT3
	push	eax
	mov	ecx, DWORD PTR _this$[ebp]
	add	ecx, 428				; 000001acH
	call	??4XMFLOAT3@DirectX@@QAEAAU01@ABU01@@Z	; DirectX::XMFLOAT3::operator=
; Line 1078
	mov	edx, DWORD PTR _this$[ebp]
	add	edx, 428				; 000001acH
	push	edx
	mov	ecx, DWORD PTR _this$[ebp]
	add	ecx, 440				; 000001b8H
	call	??4XMFLOAT3@DirectX@@QAEAAU01@ABU01@@Z	; DirectX::XMFLOAT3::operator=
; Line 1080
	call	?XMMatrixIdentity@DirectX@@YQ?AUXMMATRIX@1@XZ ; DirectX::XMMatrixIdentity
	movaps	XMMWORD PTR $T1[ebp+48], xmm3
	movaps	XMMWORD PTR $T1[ebp+32], xmm2
	movaps	XMMWORD PTR $T1[ebp+16], xmm1
	movaps	XMMWORD PTR $T1[ebp], xmm0
	mov	ecx, 16					; 00000010H
	lea	esi, DWORD PTR $T1[ebp]
	lea	edi, DWORD PTR $T3[ebp]
	rep movsd
	mov	ecx, 16					; 00000010H
	lea	esi, DWORD PTR $T3[ebp]
	lea	edi, DWORD PTR _id$[ebp]
	rep movsd
; Line 1082
	mov	ecx, DWORD PTR _this$[ebp]
	add	ecx, 452				; 000001c4H
	movaps	xmm0, XMMWORD PTR _id$[ebp]
	movaps	xmm1, XMMWORD PTR _id$[ebp+16]
	movaps	xmm2, XMMWORD PTR _id$[ebp+32]
	movaps	xmm3, XMMWORD PTR _id$[ebp+48]
	call	?XMStoreFloat4x4@DirectX@@YQXPAUXMFLOAT4X4@1@UXMMATRIX@1@@Z ; DirectX::XMStoreFloat4x4
; Line 1083
	mov	ecx, DWORD PTR _this$[ebp]
	movaps	xmm0, XMMWORD PTR _id$[ebp]
	movaps	xmm1, XMMWORD PTR _id$[ebp+16]
	movaps	xmm2, XMMWORD PTR _id$[ebp+32]
	movaps	xmm3, XMMWORD PTR _id$[ebp+48]
	call	?XMStoreFloat4x4@DirectX@@YQXPAUXMFLOAT4X4@1@UXMMATRIX@1@@Z ; DirectX::XMStoreFloat4x4
; Line 1084
	mov	ecx, DWORD PTR _this$[ebp]
	add	ecx, 64					; 00000040H
	movaps	xmm0, XMMWORD PTR _id$[ebp]
	movaps	xmm1, XMMWORD PTR _id$[ebp+16]
	movaps	xmm2, XMMWORD PTR _id$[ebp+32]
	movaps	xmm3, XMMWORD PTR _id$[ebp+48]
	call	?XMStoreFloat4x4@DirectX@@YQXPAUXMFLOAT4X4@1@UXMMATRIX@1@@Z ; DirectX::XMStoreFloat4x4
; Line 1085
	mov	eax, DWORD PTR _this$[ebp]
	push	edx
	mov	ecx, ebp
	push	eax
	lea	edx, DWORD PTR $LN5@CDXUTDirec
	call	@_RTC_CheckStackVars@8
	pop	eax
	pop	edx
	pop	edi
	pop	esi
	mov	ecx, DWORD PTR __$ArrayPad$[ebp]
	xor	ecx, ebp
	call	@__security_check_cookie@4
	mov	esp, ebp
	pop	ebp
	mov	esp, ebx
	pop	ebx
	ret	0
	npad	2
$LN5@CDXUTDirec:
	DD	1
	DD	$LN4@CDXUTDirec
$LN4@CDXUTDirec:
	DD	-80					; ffffffb0H
	DD	64					; 00000040H
	DD	$LN3@CDXUTDirec
$LN3@CDXUTDirec:
	DB	105					; 00000069H
	DB	100					; 00000064H
	DB	0
??0CDXUTDirectionWidget@@QAE@XZ ENDP			; CDXUTDirectionWidget::CDXUTDirectionWidget
_TEXT	ENDS
; Function compile flags: /Odtp /RTCsu
;	COMDAT ?SetRadius@CModelViewerCamera@@QAEXMMM@Z
_TEXT	SEGMENT
_this$ = -4						; size = 4
_fDefaultRadius$ = 8					; size = 4
_fMinRadius$ = 12					; size = 4
_fMaxRadius$ = 16					; size = 4
?SetRadius@CModelViewerCamera@@QAEXMMM@Z PROC		; CModelViewerCamera::SetRadius, COMDAT
; _this$ = ecx
; File d:\engine class\assignment 1\scratch\dxsse\dxut\optional\dxutcamera.h
; Line 331
	push	ebp
	mov	ebp, esp
	push	ecx
	mov	DWORD PTR [ebp-4], -858993460		; ccccccccH
	mov	DWORD PTR _this$[ebp], ecx
; Line 332
	mov	eax, DWORD PTR _this$[ebp]
	movss	xmm0, DWORD PTR _fDefaultRadius$[ebp]
	movss	DWORD PTR [eax+1460], xmm0
	mov	ecx, DWORD PTR _this$[ebp]
	movss	xmm0, DWORD PTR _fDefaultRadius$[ebp]
	movss	DWORD PTR [ecx+1464], xmm0
	mov	edx, DWORD PTR _this$[ebp]
	movss	xmm0, DWORD PTR _fMinRadius$[ebp]
	movss	DWORD PTR [edx+1468], xmm0
	mov	eax, DWORD PTR _this$[ebp]
	movss	xmm0, DWORD PTR _fMaxRadius$[ebp]
	movss	DWORD PTR [eax+1472], xmm0
; Line 333
	mov	ecx, DWORD PTR _this$[ebp]
	mov	BYTE PTR [ecx+1458], 1
; Line 334
	mov	esp, ebp
	pop	ebp
	ret	12					; 0000000cH
?SetRadius@CModelViewerCamera@@QAEXMMM@Z ENDP		; CModelViewerCamera::SetRadius
_TEXT	ENDS
; Function compile flags: /Odtp /RTCsu
;	COMDAT ?SetWindow@CModelViewerCamera@@QAEXHHM@Z
_TEXT	SEGMENT
_this$ = -4						; size = 4
_nWidth$ = 8						; size = 4
_nHeight$ = 12						; size = 4
_fArcballRadius$ = 16					; size = 4
?SetWindow@CModelViewerCamera@@QAEXHHM@Z PROC		; CModelViewerCamera::SetWindow, COMDAT
; _this$ = ecx
; File d:\engine class\assignment 1\scratch\dxsse\dxut\optional\dxutcamera.h
; Line 326
	push	ebp
	mov	ebp, esp
	push	ecx
	mov	DWORD PTR [ebp-4], -858993460		; ccccccccH
	mov	DWORD PTR _this$[ebp], ecx
; Line 327
	push	ecx
	movss	xmm0, DWORD PTR _fArcballRadius$[ebp]
	movss	DWORD PTR [esp], xmm0
	mov	eax, DWORD PTR _nHeight$[ebp]
	push	eax
	mov	ecx, DWORD PTR _nWidth$[ebp]
	push	ecx
	mov	ecx, DWORD PTR _this$[ebp]
	add	ecx, 656				; 00000290H
	call	?SetWindow@CD3DArcBall@@QAEXHHM@Z	; CD3DArcBall::SetWindow
; Line 328
	push	ecx
	movss	xmm0, DWORD PTR _fArcballRadius$[ebp]
	movss	DWORD PTR [esp], xmm0
	mov	edx, DWORD PTR _nHeight$[ebp]
	push	edx
	mov	eax, DWORD PTR _nWidth$[ebp]
	push	eax
	mov	ecx, DWORD PTR _this$[ebp]
	add	ecx, 948				; 000003b4H
	call	?SetWindow@CD3DArcBall@@QAEXHHM@Z	; CD3DArcBall::SetWindow
; Line 329
	add	esp, 4
	cmp	ebp, esp
	call	__RTC_CheckEsp
	mov	esp, ebp
	pop	ebp
	ret	12					; 0000000cH
?SetWindow@CModelViewerCamera@@QAEXHHM@Z ENDP		; CModelViewerCamera::SetWindow
_TEXT	ENDS
; Function compile flags: /Odtp /RTCsu
_TEXT	SEGMENT
$T1 = -416						; size = 64
$T2 = -352						; size = 16
_len$ = -324						; size = 4
$T3 = -320						; size = 16
_vEyeToPoint$ = -304					; size = 16
$T4 = -288						; size = 16
_quat$ = -256						; size = 16
$T5 = -224						; size = 64
$T6 = -160						; size = 16
_mRotation$ = -128					; size = 64
_this$ = -52						; size = 4
_vLookatPt$ = -48					; size = 16
_vEyePt$ = -32						; size = 16
__$ArrayPad$ = -4					; size = 4
?SetViewParams@CModelViewerCamera@@UAEXT__m128@@0@Z PROC ; CModelViewerCamera::SetViewParams
; _this$ = ecx
; _vEyePt$ = xmm0
; _vLookatPt$ = xmm1
; File d:\engine class\assignment 1\scratch\dxsse\dxut\optional\dxutcamera.cpp
; Line 963
	push	ebx
	mov	ebx, esp
	sub	esp, 8
	and	esp, -16				; fffffff0H
	add	esp, 4
	push	ebp
	mov	ebp, DWORD PTR [ebx+4]
	mov	DWORD PTR [esp+4], ebp
	mov	ebp, esp
	sub	esp, 424				; 000001a8H
	push	esi
	push	edi
	push	ecx
	lea	edi, DWORD PTR [ebp-424]
	mov	ecx, 106				; 0000006aH
	mov	eax, -858993460				; ccccccccH
	rep stosd
	pop	ecx
	mov	eax, DWORD PTR ___security_cookie
	xor	eax, ebp
	mov	DWORD PTR __$ArrayPad$[ebp], eax
	movaps	XMMWORD PTR _vLookatPt$[ebp], xmm1
	movaps	XMMWORD PTR _vEyePt$[ebp], xmm0
	mov	DWORD PTR _this$[ebp], ecx
; Line 964
	movaps	xmm1, XMMWORD PTR _vLookatPt$[ebp]
	movaps	xmm0, XMMWORD PTR _vEyePt$[ebp]
	mov	ecx, DWORD PTR _this$[ebp]
	call	?SetViewParams@CBaseCamera@@UAEXT__m128@@0@Z ; CBaseCamera::SetViewParams
; Line 967
	lea	eax, DWORD PTR $T6[ebp]
	push	eax
	mov	ecx, OFFSET ?g_XMIdentityR1@DirectX@@3UXMVECTORF32@1@B ; DirectX::g_XMIdentityR1
	call	??BXMVECTORF32@DirectX@@QBE?AT__m128@@XZ ; DirectX::XMVECTORF32::operator __m128
	movups	xmm2, XMMWORD PTR [eax]
	movaps	xmm1, XMMWORD PTR _vLookatPt$[ebp]
	movaps	xmm0, XMMWORD PTR _vEyePt$[ebp]
	call	?XMMatrixLookAtLH@DirectX@@YQ?AUXMMATRIX@1@T__m128@@00@Z ; DirectX::XMMatrixLookAtLH
	movaps	XMMWORD PTR $T1[ebp+48], xmm3
	movaps	XMMWORD PTR $T1[ebp+32], xmm2
	movaps	XMMWORD PTR $T1[ebp+16], xmm1
	movaps	XMMWORD PTR $T1[ebp], xmm0
	mov	ecx, 16					; 00000010H
	lea	esi, DWORD PTR $T1[ebp]
	lea	edi, DWORD PTR $T5[ebp]
	rep movsd
	mov	ecx, 16					; 00000010H
	lea	esi, DWORD PTR $T5[ebp]
	lea	edi, DWORD PTR _mRotation$[ebp]
	rep movsd
; Line 968
	movaps	xmm0, XMMWORD PTR _mRotation$[ebp]
	movaps	xmm1, XMMWORD PTR _mRotation$[ebp+16]
	movaps	xmm2, XMMWORD PTR _mRotation$[ebp+32]
	movaps	xmm3, XMMWORD PTR _mRotation$[ebp+48]
	call	?XMQuaternionRotationMatrix@DirectX@@YQ?AT__m128@@UXMMATRIX@1@@Z ; DirectX::XMQuaternionRotationMatrix
	movaps	XMMWORD PTR $T4[ebp], xmm0
	movaps	xmm0, XMMWORD PTR $T4[ebp]
	movaps	XMMWORD PTR _quat$[ebp], xmm0
; Line 969
	lea	ecx, DWORD PTR _quat$[ebp]
	push	ecx
	mov	ecx, DWORD PTR _this$[ebp]
	add	ecx, 948				; 000003b4H
	call	?SetQuatNow@CD3DArcBall@@QAEXABT__m128@@@Z ; CD3DArcBall::SetQuatNow
; Line 972
	movaps	xmm1, XMMWORD PTR _vEyePt$[ebp]
	movaps	xmm0, XMMWORD PTR _vLookatPt$[ebp]
	call	?XMVectorSubtract@DirectX@@YQ?AT__m128@@T2@0@Z ; DirectX::XMVectorSubtract
	movaps	XMMWORD PTR $T3[ebp], xmm0
	movaps	xmm0, XMMWORD PTR $T3[ebp]
	movaps	XMMWORD PTR _vEyeToPoint$[ebp], xmm0
; Line 973
	movaps	xmm0, XMMWORD PTR _vEyeToPoint$[ebp]
	call	?XMVector3Length@DirectX@@YQ?AT__m128@@T2@@Z ; DirectX::XMVector3Length
	movaps	XMMWORD PTR $T2[ebp], xmm0
	movaps	xmm0, XMMWORD PTR $T2[ebp]
	call	?XMVectorGetX@DirectX@@YQMT__m128@@@Z	; DirectX::XMVectorGetX
	movss	DWORD PTR _len$[ebp], xmm0
; Line 974
	push	ecx
	movss	xmm0, DWORD PTR __real@7f7fffff
	movss	DWORD PTR [esp], xmm0
	push	ecx
	movss	xmm0, DWORD PTR __real@3f800000
	movss	DWORD PTR [esp], xmm0
	push	ecx
	movss	xmm0, DWORD PTR _len$[ebp]
	movss	DWORD PTR [esp], xmm0
	mov	ecx, DWORD PTR _this$[ebp]
	call	?SetRadius@CModelViewerCamera@@QAEXMMM@Z ; CModelViewerCamera::SetRadius
; Line 977
	mov	edx, DWORD PTR _this$[ebp]
	mov	BYTE PTR [edx+1458], 1
; Line 978
	push	edx
	mov	ecx, ebp
	push	eax
	lea	edx, DWORD PTR $LN6@SetViewPar
	call	@_RTC_CheckStackVars@8
	pop	eax
	pop	edx
	pop	edi
	pop	esi
	mov	ecx, DWORD PTR __$ArrayPad$[ebp]
	xor	ecx, ebp
	call	@__security_check_cookie@4
	mov	esp, ebp
	pop	ebp
	mov	esp, ebx
	pop	ebx
	ret	0
	npad	1
$LN6@SetViewPar:
	DD	2
	DD	$LN5@SetViewPar
$LN5@SetViewPar:
	DD	-128					; ffffff80H
	DD	64					; 00000040H
	DD	$LN3@SetViewPar
	DD	-256					; ffffff00H
	DD	16					; 00000010H
	DD	$LN4@SetViewPar
$LN4@SetViewPar:
	DB	113					; 00000071H
	DB	117					; 00000075H
	DB	97					; 00000061H
	DB	116					; 00000074H
	DB	0
$LN3@SetViewPar:
	DB	109					; 0000006dH
	DB	82					; 00000052H
	DB	111					; 0000006fH
	DB	116					; 00000074H
	DB	97					; 00000061H
	DB	116					; 00000074H
	DB	105					; 00000069H
	DB	111					; 0000006fH
	DB	110					; 0000006eH
	DB	0
?SetViewParams@CModelViewerCamera@@UAEXT__m128@@0@Z ENDP ; CModelViewerCamera::SetViewParams
_TEXT	ENDS
; Function compile flags: /Odtp /RTCsu
_TEXT	SEGMENT
$T1 = -224						; size = 64
$T2 = -160						; size = 64
_id$ = -80						; size = 64
_this$ = -8						; size = 4
__$ArrayPad$ = -4					; size = 4
?Reset@CModelViewerCamera@@UAEXXZ PROC			; CModelViewerCamera::Reset
; _this$ = ecx
; File d:\engine class\assignment 1\scratch\dxsse\dxut\optional\dxutcamera.cpp
; Line 943
	push	ebx
	mov	ebx, esp
	sub	esp, 8
	and	esp, -16				; fffffff0H
	add	esp, 4
	push	ebp
	mov	ebp, DWORD PTR [ebx+4]
	mov	DWORD PTR [esp+4], ebp
	mov	ebp, esp
	sub	esp, 232				; 000000e8H
	push	esi
	push	edi
	push	ecx
	lea	edi, DWORD PTR [ebp-232]
	mov	ecx, 58					; 0000003aH
	mov	eax, -858993460				; ccccccccH
	rep stosd
	pop	ecx
	mov	eax, DWORD PTR ___security_cookie
	xor	eax, ebp
	mov	DWORD PTR __$ArrayPad$[ebp], eax
	mov	DWORD PTR _this$[ebp], ecx
; Line 944
	mov	ecx, DWORD PTR _this$[ebp]
	call	?Reset@CBaseCamera@@UAEXXZ		; CBaseCamera::Reset
; Line 946
	call	?XMMatrixIdentity@DirectX@@YQ?AUXMMATRIX@1@XZ ; DirectX::XMMatrixIdentity
	movaps	XMMWORD PTR $T1[ebp+48], xmm3
	movaps	XMMWORD PTR $T1[ebp+32], xmm2
	movaps	XMMWORD PTR $T1[ebp+16], xmm1
	movaps	XMMWORD PTR $T1[ebp], xmm0
	mov	ecx, 16					; 00000010H
	lea	esi, DWORD PTR $T1[ebp]
	lea	edi, DWORD PTR $T2[ebp]
	rep movsd
	mov	ecx, 16					; 00000010H
	lea	esi, DWORD PTR $T2[ebp]
	lea	edi, DWORD PTR _id$[ebp]
	rep movsd
; Line 947
	mov	ecx, DWORD PTR _this$[ebp]
	add	ecx, 1380				; 00000564H
	movaps	xmm0, XMMWORD PTR _id$[ebp]
	movaps	xmm1, XMMWORD PTR _id$[ebp+16]
	movaps	xmm2, XMMWORD PTR _id$[ebp+32]
	movaps	xmm3, XMMWORD PTR _id$[ebp+48]
	call	?XMStoreFloat4x4@DirectX@@YQXPAUXMFLOAT4X4@1@UXMMATRIX@1@@Z ; DirectX::XMStoreFloat4x4
; Line 948
	mov	ecx, DWORD PTR _this$[ebp]
	add	ecx, 1316				; 00000524H
	movaps	xmm0, XMMWORD PTR _id$[ebp]
	movaps	xmm1, XMMWORD PTR _id$[ebp+16]
	movaps	xmm2, XMMWORD PTR _id$[ebp+32]
	movaps	xmm3, XMMWORD PTR _id$[ebp+48]
	call	?XMStoreFloat4x4@DirectX@@YQXPAUXMFLOAT4X4@1@UXMMATRIX@1@@Z ; DirectX::XMStoreFloat4x4
; Line 949
	mov	ecx, DWORD PTR _this$[ebp]
	add	ecx, 1252				; 000004e4H
	movaps	xmm0, XMMWORD PTR _id$[ebp]
	movaps	xmm1, XMMWORD PTR _id$[ebp+16]
	movaps	xmm2, XMMWORD PTR _id$[ebp+32]
	movaps	xmm3, XMMWORD PTR _id$[ebp+48]
	call	?XMStoreFloat4x4@DirectX@@YQXPAUXMFLOAT4X4@1@UXMMATRIX@1@@Z ; DirectX::XMStoreFloat4x4
; Line 950
	mov	ecx, DWORD PTR _this$[ebp]
	add	ecx, 1476				; 000005c4H
	movaps	xmm0, XMMWORD PTR _id$[ebp]
	movaps	xmm1, XMMWORD PTR _id$[ebp+16]
	movaps	xmm2, XMMWORD PTR _id$[ebp+32]
	movaps	xmm3, XMMWORD PTR _id$[ebp+48]
	call	?XMStoreFloat4x4@DirectX@@YQXPAUXMFLOAT4X4@1@UXMMATRIX@1@@Z ; DirectX::XMStoreFloat4x4
; Line 952
	mov	eax, DWORD PTR _this$[ebp]
	mov	ecx, DWORD PTR _this$[ebp]
	mov	edx, DWORD PTR [ecx+1464]
	mov	DWORD PTR [eax+1460], edx
; Line 953
	mov	ecx, DWORD PTR _this$[ebp]
	add	ecx, 656				; 00000290H
	call	?Reset@CD3DArcBall@@QAEXXZ		; CD3DArcBall::Reset
; Line 954
	mov	ecx, DWORD PTR _this$[ebp]
	add	ecx, 948				; 000003b4H
	call	?Reset@CD3DArcBall@@QAEXXZ		; CD3DArcBall::Reset
; Line 955
	push	edx
	mov	ecx, ebp
	push	eax
	lea	edx, DWORD PTR $LN5@Reset
	call	@_RTC_CheckStackVars@8
	pop	eax
	pop	edx
	pop	edi
	pop	esi
	mov	ecx, DWORD PTR __$ArrayPad$[ebp]
	xor	ecx, ebp
	call	@__security_check_cookie@4
	mov	esp, ebp
	pop	ebp
	mov	esp, ebx
	pop	ebx
	ret	0
	npad	3
$LN5@Reset:
	DD	1
	DD	$LN4@Reset
$LN4@Reset:
	DD	-80					; ffffffb0H
	DD	64					; 00000040H
	DD	$LN3@Reset
$LN3@Reset:
	DB	105					; 00000069H
	DB	100					; 00000064H
	DB	0
?Reset@CModelViewerCamera@@UAEXXZ ENDP			; CModelViewerCamera::Reset
_TEXT	ENDS
; Function compile flags: /Odtp /RTCsu
_TEXT	SEGMENT
_this$ = -4						; size = 4
_rc$ = 8						; size = 4
?SetDragRect@CModelViewerCamera@@UAEXABUtagRECT@@@Z PROC ; CModelViewerCamera::SetDragRect
; _this$ = ecx
; File d:\engine class\assignment 1\scratch\dxsse\dxut\optional\dxutcamera.cpp
; Line 929
	push	ebp
	mov	ebp, esp
	push	ecx
	mov	DWORD PTR [ebp-4], -858993460		; ccccccccH
	mov	DWORD PTR _this$[ebp], ecx
; Line 930
	mov	eax, DWORD PTR _rc$[ebp]
	push	eax
	mov	ecx, DWORD PTR _this$[ebp]
	call	?SetDragRect@CBaseCamera@@UAEXABUtagRECT@@@Z ; CBaseCamera::SetDragRect
; Line 932
	mov	ecx, DWORD PTR _rc$[ebp]
	mov	edx, DWORD PTR [ecx+4]
	push	edx
	mov	eax, DWORD PTR _rc$[ebp]
	mov	ecx, DWORD PTR [eax]
	push	ecx
	mov	ecx, DWORD PTR _this$[ebp]
	add	ecx, 656				; 00000290H
	call	?SetOffset@CD3DArcBall@@QAEXHH@Z	; CD3DArcBall::SetOffset
; Line 933
	mov	edx, DWORD PTR _rc$[ebp]
	mov	eax, DWORD PTR [edx+4]
	push	eax
	mov	ecx, DWORD PTR _rc$[ebp]
	mov	edx, DWORD PTR [ecx]
	push	edx
	mov	ecx, DWORD PTR _this$[ebp]
	add	ecx, 948				; 000003b4H
	call	?SetOffset@CD3DArcBall@@QAEXHH@Z	; CD3DArcBall::SetOffset
; Line 935
	push	ecx
	movss	xmm0, DWORD PTR __real@3f666666
	movss	DWORD PTR [esp], xmm0
	mov	eax, DWORD PTR _rc$[ebp]
	mov	ecx, DWORD PTR _rc$[ebp]
	mov	edx, DWORD PTR [eax+12]
	sub	edx, DWORD PTR [ecx+4]
	push	edx
	mov	eax, DWORD PTR _rc$[ebp]
	mov	ecx, DWORD PTR _rc$[ebp]
	mov	edx, DWORD PTR [eax+8]
	sub	edx, DWORD PTR [ecx]
	push	edx
	mov	ecx, DWORD PTR _this$[ebp]
	call	?SetWindow@CModelViewerCamera@@QAEXHHM@Z ; CModelViewerCamera::SetWindow
; Line 936
	add	esp, 4
	cmp	ebp, esp
	call	__RTC_CheckEsp
	mov	esp, ebp
	pop	ebp
	ret	4
?SetDragRect@CModelViewerCamera@@UAEXABUtagRECT@@@Z ENDP ; CModelViewerCamera::SetDragRect
_TEXT	ENDS
; Function compile flags: /Odtp /RTCsu
_TEXT	SEGMENT
tv887 = -3184						; size = 16
tv141 = -3153						; size = 1
$T1 = -3152						; size = 64
$T2 = -3088						; size = 64
$T3 = -3024						; size = 64
$T4 = -2960						; size = 64
$T5 = -2896						; size = 64
$T6 = -2832						; size = 64
$T7 = -2768						; size = 64
$T8 = -2704						; size = 64
$T9 = -2640						; size = 64
_mWorld$ = -2560					; size = 64
$T10 = -2480						; size = 64
_mTrans$ = -2400					; size = 64
$T11 = -2320						; size = 16
$T12 = -2304						; size = 16
$T13 = -2288						; size = 16
$T14 = -2272						; size = 16
$T15 = -2256						; size = 16
$T16 = -2240						; size = 16
$T17 = -2224						; size = 16
$T18 = -2208						; size = 16
$T19 = -2192						; size = 16
_zBasis$ = -2176					; size = 16
$T20 = -2160						; size = 16
$T21 = -2144						; size = 16
_yBasis$ = -2128					; size = 16
$T22 = -2112						; size = 16
_xBasis$ = -2096					; size = 16
_mCameraRotDelta$23 = -2064				; size = 64
$T24 = -1984						; size = 64
_mCameraLastRotInv$25 = -1904				; size = 64
$T26 = -1824						; size = 64
_mCameraRotLast$27 = -1744				; size = 64
$T28 = -1664						; size = 64
$T29 = -1600						; size = 64
$T30 = -1536						; size = 64
$T31 = -1472						; size = 64
_mModelRot$ = -1392					; size = 64
_mModelRot0$ = -1312					; size = 64
$T32 = -1232						; size = 64
_mModelLastRotInv$ = -1152				; size = 64
$T33 = -1072						; size = 64
_mModelLastRot$ = -992					; size = 64
$T34 = -912						; size = 16
$T35 = -896						; size = 16
$T36 = -880						; size = 16
$T37 = -864						; size = 64
_mInvView$ = -784					; size = 64
$T38 = -704						; size = 64
_mView$ = -624						; size = 64
$T39 = -544						; size = 16
$T40 = -528						; size = 16
_vEye$ = -512						; size = 16
$T41 = -496						; size = 16
$T42 = -480						; size = 16
_vLookAt$ = -448					; size = 16
$T43 = -416						; size = 16
_vPosDeltaWorld$ = -400					; size = 16
$T44 = -384						; size = 16
$T45 = -368						; size = 16
_vWorldAhead$ = -352					; size = 16
$T46 = -336						; size = 16
$T47 = -320						; size = 16
_vWorldUp$ = -304					; size = 16
$T48 = -288						; size = 64
$T49 = -224						; size = 64
_mCameraRot$ = -144					; size = 64
$T50 = -64						; size = 16
$T51 = -48						; size = 16
_vPosDelta$ = -32					; size = 16
_this$ = -8						; size = 4
__$ArrayPad$ = -4					; size = 4
_fElapsedTime$ = 8					; size = 4
?FrameMove@CModelViewerCamera@@UAEXM@Z PROC		; CModelViewerCamera::FrameMove
; _this$ = ecx
; File d:\engine class\assignment 1\scratch\dxsse\dxut\optional\dxutcamera.cpp
; Line 824
	push	ebx
	mov	ebx, esp
	sub	esp, 8
	and	esp, -16				; fffffff0H
	add	esp, 4
	push	ebp
	mov	ebp, DWORD PTR [ebx+4]
	mov	DWORD PTR [esp+4], ebp
	mov	ebp, esp
	sub	esp, 3192				; 00000c78H
	push	esi
	push	edi
	push	ecx
	lea	edi, DWORD PTR [ebp-3192]
	mov	ecx, 798				; 0000031eH
	mov	eax, -858993460				; ccccccccH
	rep stosd
	pop	ecx
	mov	eax, DWORD PTR ___security_cookie
	xor	eax, ebp
	mov	DWORD PTR __$ArrayPad$[ebp], eax
	mov	DWORD PTR _this$[ebp], ecx
; Line 825
	mov	eax, 1
	imul	ecx, eax, 6
	mov	edx, DWORD PTR _this$[ebp]
	movzx	eax, BYTE PTR [edx+ecx+436]
	push	eax
	mov	ecx, DWORD PTR _this$[ebp]
	call	?IsKeyDown@CBaseCamera@@IBE_NE@Z	; CBaseCamera::IsKeyDown
	movzx	ecx, al
	test	ecx, ecx
	je	SHORT $LN5@FrameMove
; Line 826
	mov	edx, DWORD PTR _this$[ebp]
	mov	eax, DWORD PTR [edx]
	mov	esi, esp
	mov	ecx, DWORD PTR _this$[ebp]
	mov	edx, DWORD PTR [eax+8]
	call	edx
	cmp	esi, esp
	call	__RTC_CheckEsp
$LN5@FrameMove:
; Line 830
	mov	eax, DWORD PTR _this$[ebp]
	movzx	ecx, BYTE PTR [eax+1458]
	test	ecx, ecx
	jne	SHORT $LN4@FrameMove
	mov	edx, DWORD PTR _this$[ebp]
	cmp	DWORD PTR [edx+432], 0
	jne	SHORT $LN4@FrameMove
; Line 831
	jmp	$LN6@FrameMove
$LN4@FrameMove:
; Line 833
	mov	eax, DWORD PTR _this$[ebp]
	mov	BYTE PTR [eax+1458], 0
; Line 840
	mov	ecx, DWORD PTR _this$[ebp]
	cmp	DWORD PTR [ecx+464], 0
	je	SHORT $LN8@FrameMove
	mov	BYTE PTR tv141[ebp], 1
	jmp	SHORT $LN9@FrameMove
$LN8@FrameMove:
	mov	BYTE PTR tv141[ebp], 0
$LN9@FrameMove:
	push	1
	movzx	edx, BYTE PTR tv141[ebp]
	push	edx
	mov	eax, DWORD PTR _this$[ebp]
	movzx	ecx, BYTE PTR [eax+625]
	push	ecx
	mov	ecx, DWORD PTR _this$[ebp]
	call	?GetInput@CBaseCamera@@IAEX_N00@Z	; CBaseCamera::GetInput
; Line 843
	push	ecx
	movss	xmm0, DWORD PTR _fElapsedTime$[ebx]
	movss	DWORD PTR [esp], xmm0
	mov	ecx, DWORD PTR _this$[ebp]
	call	?UpdateVelocity@CBaseCamera@@IAEXM@Z	; CBaseCamera::UpdateVelocity
; Line 846
	mov	ecx, DWORD PTR _this$[ebp]
	add	ecx, 556				; 0000022cH
	call	?XMLoadFloat3@DirectX@@YQ?AT__m128@@PBUXMFLOAT3@1@@Z ; DirectX::XMLoadFloat3
	movaps	XMMWORD PTR $T51[ebp], xmm0
	movaps	xmm0, XMMWORD PTR $T51[ebp]
	movss	xmm1, DWORD PTR _fElapsedTime$[ebx]
	call	??DDirectX@@YQ?AT__m128@@T1@M@Z		; DirectX::operator*
	movaps	XMMWORD PTR $T50[ebp], xmm0
	movaps	xmm0, XMMWORD PTR $T50[ebp]
	movaps	XMMWORD PTR _vPosDelta$[ebp], xmm0
; Line 849
	mov	edx, DWORD PTR _this$[ebp]
	cmp	DWORD PTR [edx+468], 0
	je	SHORT $LN3@FrameMove
	mov	eax, DWORD PTR _this$[ebp]
	cmp	DWORD PTR [eax+1448], 8
	jne	SHORT $LN3@FrameMove
; Line 850
	mov	ecx, DWORD PTR _this$[ebp]
	cvtsi2ss xmm0, DWORD PTR [ecx+468]
	mov	edx, DWORD PTR _this$[ebp]
	mulss	xmm0, DWORD PTR [edx+1460]
	mulss	xmm0, DWORD PTR __real@3dcccccd
	divss	xmm0, DWORD PTR __real@42f00000
	mov	eax, DWORD PTR _this$[ebp]
	movss	xmm1, DWORD PTR [eax+1460]
	subss	xmm1, xmm0
	mov	ecx, DWORD PTR _this$[ebp]
	movss	DWORD PTR [ecx+1460], xmm1
$LN3@FrameMove:
; Line 851
	mov	edx, DWORD PTR _this$[ebp]
	add	edx, 1460				; 000005b4H
	push	edx
	mov	eax, DWORD PTR _this$[ebp]
	add	eax, 1472				; 000005c0H
	push	eax
	call	??$min@M@std@@YAABMABM0@Z		; std::min<float>
	add	esp, 8
	mov	ecx, DWORD PTR _this$[ebp]
	mov	edx, DWORD PTR [eax]
	mov	DWORD PTR [ecx+1460], edx
; Line 852
	mov	eax, DWORD PTR _this$[ebp]
	add	eax, 1460				; 000005b4H
	push	eax
	mov	ecx, DWORD PTR _this$[ebp]
	add	ecx, 1468				; 000005bcH
	push	ecx
	call	??$max@M@std@@YAABMABM0@Z		; std::max<float>
	add	esp, 8
	mov	edx, DWORD PTR _this$[ebp]
	mov	eax, DWORD PTR [eax]
	mov	DWORD PTR [edx+1460], eax
; Line 853
	mov	ecx, DWORD PTR _this$[ebp]
	mov	DWORD PTR [ecx+468], 0
; Line 856
	lea	edx, DWORD PTR $T49[ebp]
	push	edx
	mov	ecx, DWORD PTR _this$[ebp]
	add	ecx, 948				; 000003b4H
	call	?GetRotationMatrix@CD3DArcBall@@QBE?AUXMMATRIX@DirectX@@XZ ; CD3DArcBall::GetRotationMatrix
	xor	ecx, ecx
	movaps	xmm0, XMMWORD PTR [eax]
	movaps	xmm1, XMMWORD PTR [eax+16]
	movaps	xmm2, XMMWORD PTR [eax+32]
	movaps	xmm3, XMMWORD PTR [eax+48]
	call	?XMMatrixInverse@DirectX@@YQ?AUXMMATRIX@1@PAT__m128@@U21@@Z ; DirectX::XMMatrixInverse
	movaps	XMMWORD PTR $T9[ebp+48], xmm3
	movaps	XMMWORD PTR $T9[ebp+32], xmm2
	movaps	XMMWORD PTR $T9[ebp+16], xmm1
	movaps	XMMWORD PTR $T9[ebp], xmm0
	mov	ecx, 16					; 00000010H
	lea	esi, DWORD PTR $T9[ebp]
	lea	edi, DWORD PTR $T48[ebp]
	rep movsd
	mov	ecx, 16					; 00000010H
	lea	esi, DWORD PTR $T48[ebp]
	lea	edi, DWORD PTR _mCameraRot$[ebp]
	rep movsd
; Line 859
	lea	eax, DWORD PTR $T47[ebp]
	push	eax
	mov	ecx, OFFSET ?g_XMIdentityR1@DirectX@@3UXMVECTORF32@1@B ; DirectX::g_XMIdentityR1
	call	??BXMVECTORF32@DirectX@@QBE?AT__m128@@XZ ; DirectX::XMVECTORF32::operator __m128
	movups	xmm0, XMMWORD PTR [eax]
	movaps	xmm1, XMMWORD PTR _mCameraRot$[ebp]
	movaps	xmm2, XMMWORD PTR _mCameraRot$[ebp+16]
	movaps	xmm3, XMMWORD PTR _mCameraRot$[ebp+32]
	movaps	xmm4, XMMWORD PTR _mCameraRot$[ebp+48]
	call	?XMVector3TransformCoord@DirectX@@YQ?AT__m128@@T2@UXMMATRIX@1@@Z ; DirectX::XMVector3TransformCoord
	movaps	XMMWORD PTR $T46[ebp], xmm0
	movaps	xmm0, XMMWORD PTR $T46[ebp]
	movaps	XMMWORD PTR _vWorldUp$[ebp], xmm0
; Line 860
	lea	ecx, DWORD PTR $T45[ebp]
	push	ecx
	mov	ecx, OFFSET ?g_XMIdentityR2@DirectX@@3UXMVECTORF32@1@B ; DirectX::g_XMIdentityR2
	call	??BXMVECTORF32@DirectX@@QBE?AT__m128@@XZ ; DirectX::XMVECTORF32::operator __m128
	movups	xmm0, XMMWORD PTR [eax]
	movaps	xmm1, XMMWORD PTR _mCameraRot$[ebp]
	movaps	xmm2, XMMWORD PTR _mCameraRot$[ebp+16]
	movaps	xmm3, XMMWORD PTR _mCameraRot$[ebp+32]
	movaps	xmm4, XMMWORD PTR _mCameraRot$[ebp+48]
	call	?XMVector3TransformCoord@DirectX@@YQ?AT__m128@@T2@UXMMATRIX@1@@Z ; DirectX::XMVector3TransformCoord
	movaps	XMMWORD PTR $T44[ebp], xmm0
	movaps	xmm0, XMMWORD PTR $T44[ebp]
	movaps	XMMWORD PTR _vWorldAhead$[ebp], xmm0
; Line 863
	movaps	xmm0, XMMWORD PTR _vPosDelta$[ebp]
	movaps	xmm1, XMMWORD PTR _mCameraRot$[ebp]
	movaps	xmm2, XMMWORD PTR _mCameraRot$[ebp+16]
	movaps	xmm3, XMMWORD PTR _mCameraRot$[ebp+32]
	movaps	xmm4, XMMWORD PTR _mCameraRot$[ebp+48]
	call	?XMVector3TransformCoord@DirectX@@YQ?AT__m128@@T2@UXMMATRIX@1@@Z ; DirectX::XMVector3TransformCoord
	movaps	XMMWORD PTR $T43[ebp], xmm0
	movaps	xmm0, XMMWORD PTR $T43[ebp]
	movaps	XMMWORD PTR _vPosDeltaWorld$[ebp], xmm0
; Line 866
	mov	ecx, DWORD PTR _this$[ebp]
	add	ecx, 520				; 00000208H
	call	?XMLoadFloat3@DirectX@@YQ?AT__m128@@PBUXMFLOAT3@1@@Z ; DirectX::XMLoadFloat3
	movaps	XMMWORD PTR $T42[ebp], xmm0
	movaps	xmm0, XMMWORD PTR $T42[ebp]
	movaps	XMMWORD PTR _vLookAt$[ebp], xmm0
; Line 867
	movaps	xmm0, XMMWORD PTR _vPosDeltaWorld$[ebp]
	lea	ecx, DWORD PTR _vLookAt$[ebp]
	call	??YDirectX@@YQAAT__m128@@AAT1@T1@@Z	; DirectX::operator+=
; Line 868
	mov	edx, DWORD PTR _this$[ebp]
	movzx	eax, BYTE PTR [edx+627]
	test	eax, eax
	je	SHORT $LN2@FrameMove
; Line 869
	movaps	xmm0, XMMWORD PTR _vLookAt$[ebp]
	lea	ecx, DWORD PTR $T41[ebp]
	push	ecx
	mov	ecx, DWORD PTR _this$[ebp]
	call	?ConstrainToBoundary@CBaseCamera@@IAE?AT__m128@@T2@@Z ; CBaseCamera::ConstrainToBoundary
	movups	xmm0, XMMWORD PTR [eax]
	movups	XMMWORD PTR _vLookAt$[ebp], xmm0
$LN2@FrameMove:
; Line 870
	movaps	xmm0, XMMWORD PTR _vLookAt$[ebp]
	mov	ecx, DWORD PTR _this$[ebp]
	add	ecx, 520				; 00000208H
	call	?XMStoreFloat3@DirectX@@YQXPAUXMFLOAT3@1@T__m128@@@Z ; DirectX::XMStoreFloat3
; Line 873
	movaps	xmm0, XMMWORD PTR _vWorldAhead$[ebp]
	mov	edx, DWORD PTR _this$[ebp]
	movss	xmm1, DWORD PTR [edx+1460]
	call	??DDirectX@@YQ?AT__m128@@T1@M@Z		; DirectX::operator*
	movaps	XMMWORD PTR $T40[ebp], xmm0
	movaps	xmm1, XMMWORD PTR $T40[ebp]
	movaps	xmm0, XMMWORD PTR _vLookAt$[ebp]
	call	??GDirectX@@YQ?AT__m128@@T1@0@Z		; DirectX::operator-
	movaps	XMMWORD PTR $T39[ebp], xmm0
	movaps	xmm0, XMMWORD PTR $T39[ebp]
	movaps	XMMWORD PTR _vEye$[ebp], xmm0
; Line 874
	movaps	xmm0, XMMWORD PTR _vEye$[ebp]
	mov	ecx, DWORD PTR _this$[ebp]
	add	ecx, 508				; 000001fcH
	call	?XMStoreFloat3@DirectX@@YQXPAUXMFLOAT3@1@T__m128@@@Z ; DirectX::XMStoreFloat3
; Line 877
	movaps	xmm2, XMMWORD PTR _vWorldUp$[ebp]
	movaps	xmm1, XMMWORD PTR _vLookAt$[ebp]
	movaps	xmm0, XMMWORD PTR _vEye$[ebp]
	call	?XMMatrixLookAtLH@DirectX@@YQ?AUXMMATRIX@1@T__m128@@00@Z ; DirectX::XMMatrixLookAtLH
	movaps	XMMWORD PTR $T8[ebp+48], xmm3
	movaps	XMMWORD PTR $T8[ebp+32], xmm2
	movaps	XMMWORD PTR $T8[ebp+16], xmm1
	movaps	XMMWORD PTR $T8[ebp], xmm0
	mov	ecx, 16					; 00000010H
	lea	esi, DWORD PTR $T8[ebp]
	lea	edi, DWORD PTR $T38[ebp]
	rep movsd
	mov	ecx, 16					; 00000010H
	lea	esi, DWORD PTR $T38[ebp]
	lea	edi, DWORD PTR _mView$[ebp]
	rep movsd
; Line 878
	mov	ecx, DWORD PTR _this$[ebp]
	add	ecx, 8
	movaps	xmm0, XMMWORD PTR _mView$[ebp]
	movaps	xmm1, XMMWORD PTR _mView$[ebp+16]
	movaps	xmm2, XMMWORD PTR _mView$[ebp+32]
	movaps	xmm3, XMMWORD PTR _mView$[ebp+48]
	call	?XMStoreFloat4x4@DirectX@@YQXPAUXMFLOAT4X4@1@UXMMATRIX@1@@Z ; DirectX::XMStoreFloat4x4
; Line 880
	xor	ecx, ecx
	movaps	xmm0, XMMWORD PTR _mView$[ebp]
	movaps	xmm1, XMMWORD PTR _mView$[ebp+16]
	movaps	xmm2, XMMWORD PTR _mView$[ebp+32]
	movaps	xmm3, XMMWORD PTR _mView$[ebp+48]
	call	?XMMatrixInverse@DirectX@@YQ?AUXMMATRIX@1@PAT__m128@@U21@@Z ; DirectX::XMMatrixInverse
	movaps	XMMWORD PTR $T7[ebp+48], xmm3
	movaps	XMMWORD PTR $T7[ebp+32], xmm2
	movaps	XMMWORD PTR $T7[ebp+16], xmm1
	movaps	XMMWORD PTR $T7[ebp], xmm0
	mov	ecx, 16					; 00000010H
	lea	esi, DWORD PTR $T7[ebp]
	lea	edi, DWORD PTR $T37[ebp]
	rep movsd
	mov	ecx, 16					; 00000010H
	lea	esi, DWORD PTR $T37[ebp]
	lea	edi, DWORD PTR _mInvView$[ebp]
	rep movsd
; Line 881
	lea	eax, DWORD PTR $T36[ebp]
	push	eax
	mov	ecx, OFFSET ?g_XMSelect1110@DirectX@@3UXMVECTORI32@1@B ; DirectX::g_XMSelect1110
	call	??BXMVECTORI32@DirectX@@QBE?AT__m128@@XZ ; DirectX::XMVECTORI32::operator __m128
	movups	xmm0, XMMWORD PTR [eax]
	lea	ecx, DWORD PTR $T35[ebp]
	push	ecx
	mov	ecx, OFFSET ?g_XMZero@DirectX@@3UXMVECTORF32@1@B ; DirectX::g_XMZero
	movaps	XMMWORD PTR tv887[ebp], xmm0
	call	??BXMVECTORF32@DirectX@@QBE?AT__m128@@XZ ; DirectX::XMVECTORF32::operator __m128
	movups	xmm1, XMMWORD PTR [eax]
	mov	edx, 16					; 00000010H
	imul	eax, edx, 3
	movups	xmm0, XMMWORD PTR _mInvView$[ebp+eax]
	movaps	xmm2, XMMWORD PTR tv887[ebp]
	call	?XMVectorSelect@DirectX@@YQ?AT__m128@@T2@00@Z ; DirectX::XMVectorSelect
	movaps	XMMWORD PTR $T34[ebp], xmm0
	mov	ecx, 16					; 00000010H
	imul	edx, ecx, 3
	movups	xmm0, XMMWORD PTR $T34[ebp]
	movups	XMMWORD PTR _mInvView$[ebp+edx], xmm0
; Line 883
	mov	ecx, DWORD PTR _this$[ebp]
	add	ecx, 1252				; 000004e4H
	call	?XMLoadFloat4x4@DirectX@@YQ?AUXMMATRIX@1@PBUXMFLOAT4X4@1@@Z ; DirectX::XMLoadFloat4x4
	movaps	XMMWORD PTR $T6[ebp+48], xmm3
	movaps	XMMWORD PTR $T6[ebp+32], xmm2
	movaps	XMMWORD PTR $T6[ebp+16], xmm1
	movaps	XMMWORD PTR $T6[ebp], xmm0
	mov	ecx, 16					; 00000010H
	lea	esi, DWORD PTR $T6[ebp]
	lea	edi, DWORD PTR $T33[ebp]
	rep movsd
	mov	ecx, 16					; 00000010H
	lea	esi, DWORD PTR $T33[ebp]
	lea	edi, DWORD PTR _mModelLastRot$[ebp]
	rep movsd
; Line 884
	xor	ecx, ecx
	movaps	xmm0, XMMWORD PTR _mModelLastRot$[ebp]
	movaps	xmm1, XMMWORD PTR _mModelLastRot$[ebp+16]
	movaps	xmm2, XMMWORD PTR _mModelLastRot$[ebp+32]
	movaps	xmm3, XMMWORD PTR _mModelLastRot$[ebp+48]
	call	?XMMatrixInverse@DirectX@@YQ?AUXMMATRIX@1@PAT__m128@@U21@@Z ; DirectX::XMMatrixInverse
	movaps	XMMWORD PTR $T5[ebp+48], xmm3
	movaps	XMMWORD PTR $T5[ebp+32], xmm2
	movaps	XMMWORD PTR $T5[ebp+16], xmm1
	movaps	XMMWORD PTR $T5[ebp], xmm0
	mov	ecx, 16					; 00000010H
	lea	esi, DWORD PTR $T5[ebp]
	lea	edi, DWORD PTR $T32[ebp]
	rep movsd
	mov	ecx, 16					; 00000010H
	lea	esi, DWORD PTR $T32[ebp]
	lea	edi, DWORD PTR _mModelLastRotInv$[ebp]
	rep movsd
; Line 888
	lea	eax, DWORD PTR _mModelRot0$[ebp]
	push	eax
	mov	ecx, DWORD PTR _this$[ebp]
	add	ecx, 656				; 00000290H
	call	?GetRotationMatrix@CD3DArcBall@@QBE?AUXMMATRIX@DirectX@@XZ ; CD3DArcBall::GetRotationMatrix
; Line 889
	mov	ecx, DWORD PTR _this$[ebp]
	add	ecx, 1316				; 00000524H
	call	?XMLoadFloat4x4@DirectX@@YQ?AUXMMATRIX@1@PBUXMFLOAT4X4@1@@Z ; DirectX::XMLoadFloat4x4
	movaps	XMMWORD PTR $T4[ebp+48], xmm3
	movaps	XMMWORD PTR $T4[ebp+32], xmm2
	movaps	XMMWORD PTR $T4[ebp+16], xmm1
	movaps	XMMWORD PTR $T4[ebp], xmm0
	mov	ecx, 16					; 00000010H
	lea	esi, DWORD PTR $T4[ebp]
	lea	edi, DWORD PTR $T31[ebp]
	rep movsd
	mov	ecx, 16					; 00000010H
	lea	esi, DWORD PTR $T31[ebp]
	lea	edi, DWORD PTR _mModelRot$[ebp]
	rep movsd
; Line 890
	lea	edx, DWORD PTR $T30[ebp]
	lea	ecx, DWORD PTR _mView$[ebp]
	movaps	xmm0, XMMWORD PTR _mModelLastRotInv$[ebp]
	movaps	xmm1, XMMWORD PTR _mModelLastRotInv$[ebp+16]
	movaps	xmm2, XMMWORD PTR _mModelLastRotInv$[ebp+32]
	movaps	xmm3, XMMWORD PTR _mModelLastRotInv$[ebp+48]
	call	??DXMMATRIX@DirectX@@QBQ?AU01@U01@@Z	; DirectX::XMMATRIX::operator*
	lea	edx, DWORD PTR $T29[ebp]
	mov	ecx, eax
	movaps	xmm0, XMMWORD PTR _mModelRot0$[ebp]
	movaps	xmm1, XMMWORD PTR _mModelRot0$[ebp+16]
	movaps	xmm2, XMMWORD PTR _mModelRot0$[ebp+32]
	movaps	xmm3, XMMWORD PTR _mModelRot0$[ebp+48]
	call	??DXMMATRIX@DirectX@@QBQ?AU01@U01@@Z	; DirectX::XMMATRIX::operator*
	lea	edx, DWORD PTR $T28[ebp]
	mov	ecx, eax
	movaps	xmm0, XMMWORD PTR _mInvView$[ebp]
	movaps	xmm1, XMMWORD PTR _mInvView$[ebp+16]
	movaps	xmm2, XMMWORD PTR _mInvView$[ebp+32]
	movaps	xmm3, XMMWORD PTR _mInvView$[ebp+48]
	call	??DXMMATRIX@DirectX@@QBQ?AU01@U01@@Z	; DirectX::XMMATRIX::operator*
	lea	ecx, DWORD PTR _mModelRot$[ebp]
	movaps	xmm0, XMMWORD PTR [eax]
	movaps	xmm1, XMMWORD PTR [eax+16]
	movaps	xmm2, XMMWORD PTR [eax+32]
	movaps	xmm3, XMMWORD PTR [eax+48]
	call	??XXMMATRIX@DirectX@@QAQAAU01@U01@@Z	; DirectX::XMMATRIX::operator*=
; Line 892
	mov	ecx, DWORD PTR _this$[ebp]
	add	ecx, 948				; 000003b4H
	call	?IsBeingDragged@CD3DArcBall@@QBE_NXZ	; CD3DArcBall::IsBeingDragged
	movzx	ecx, al
	test	ecx, ecx
	je	$LN1@FrameMove
	mov	edx, DWORD PTR _this$[ebp]
	movzx	eax, BYTE PTR [edx+1456]
	test	eax, eax
	je	$LN1@FrameMove
	mov	ecx, 1
	imul	edx, ecx, 7
	mov	eax, DWORD PTR _this$[ebp]
	movzx	ecx, BYTE PTR [eax+edx+436]
	push	ecx
	mov	ecx, DWORD PTR _this$[ebp]
	call	?IsKeyDown@CBaseCamera@@IBE_NE@Z	; CBaseCamera::IsKeyDown
	movzx	edx, al
	test	edx, edx
	jne	$LN1@FrameMove
; Line 895
	mov	ecx, DWORD PTR _this$[ebp]
	add	ecx, 1476				; 000005c4H
	call	?XMLoadFloat4x4@DirectX@@YQ?AUXMMATRIX@1@PBUXMFLOAT4X4@1@@Z ; DirectX::XMLoadFloat4x4
	movaps	XMMWORD PTR $T3[ebp+48], xmm3
	movaps	XMMWORD PTR $T3[ebp+32], xmm2
	movaps	XMMWORD PTR $T3[ebp+16], xmm1
	movaps	XMMWORD PTR $T3[ebp], xmm0
	mov	ecx, 16					; 00000010H
	lea	esi, DWORD PTR $T3[ebp]
	lea	edi, DWORD PTR $T26[ebp]
	rep movsd
	mov	ecx, 16					; 00000010H
	lea	esi, DWORD PTR $T26[ebp]
	lea	edi, DWORD PTR _mCameraRotLast$27[ebp]
	rep movsd
; Line 896
	xor	ecx, ecx
	movaps	xmm0, XMMWORD PTR _mCameraRotLast$27[ebp]
	movaps	xmm1, XMMWORD PTR _mCameraRotLast$27[ebp+16]
	movaps	xmm2, XMMWORD PTR _mCameraRotLast$27[ebp+32]
	movaps	xmm3, XMMWORD PTR _mCameraRotLast$27[ebp+48]
	call	?XMMatrixInverse@DirectX@@YQ?AUXMMATRIX@1@PAT__m128@@U21@@Z ; DirectX::XMMatrixInverse
	movaps	XMMWORD PTR $T2[ebp+48], xmm3
	movaps	XMMWORD PTR $T2[ebp+32], xmm2
	movaps	XMMWORD PTR $T2[ebp+16], xmm1
	movaps	XMMWORD PTR $T2[ebp], xmm0
	mov	ecx, 16					; 00000010H
	lea	esi, DWORD PTR $T2[ebp]
	lea	edi, DWORD PTR $T24[ebp]
	rep movsd
	mov	ecx, 16					; 00000010H
	lea	esi, DWORD PTR $T24[ebp]
	lea	edi, DWORD PTR _mCameraLastRotInv$25[ebp]
	rep movsd
; Line 897
	lea	edx, DWORD PTR _mCameraRotDelta$23[ebp]
	lea	ecx, DWORD PTR _mCameraLastRotInv$25[ebp]
	movaps	xmm0, XMMWORD PTR _mCameraRot$[ebp]
	movaps	xmm1, XMMWORD PTR _mCameraRot$[ebp+16]
	movaps	xmm2, XMMWORD PTR _mCameraRot$[ebp+32]
	movaps	xmm3, XMMWORD PTR _mCameraRot$[ebp+48]
	call	??DXMMATRIX@DirectX@@QBQ?AU01@U01@@Z	; DirectX::XMMATRIX::operator*
; Line 898
	lea	ecx, DWORD PTR _mModelRot$[ebp]
	movaps	xmm0, XMMWORD PTR _mCameraRotDelta$23[ebp]
	movaps	xmm1, XMMWORD PTR _mCameraRotDelta$23[ebp+16]
	movaps	xmm2, XMMWORD PTR _mCameraRotDelta$23[ebp+32]
	movaps	xmm3, XMMWORD PTR _mCameraRotDelta$23[ebp+48]
	call	??XXMMATRIX@DirectX@@QAQAAU01@U01@@Z	; DirectX::XMMATRIX::operator*=
$LN1@FrameMove:
; Line 901
	mov	ecx, DWORD PTR _this$[ebp]
	add	ecx, 1252				; 000004e4H
	movaps	xmm0, XMMWORD PTR _mModelRot0$[ebp]
	movaps	xmm1, XMMWORD PTR _mModelRot0$[ebp+16]
	movaps	xmm2, XMMWORD PTR _mModelRot0$[ebp+32]
	movaps	xmm3, XMMWORD PTR _mModelRot0$[ebp+48]
	call	?XMStoreFloat4x4@DirectX@@YQXPAUXMFLOAT4X4@1@UXMMATRIX@1@@Z ; DirectX::XMStoreFloat4x4
; Line 902
	mov	ecx, DWORD PTR _this$[ebp]
	add	ecx, 1476				; 000005c4H
	movaps	xmm0, XMMWORD PTR _mCameraRot$[ebp]
	movaps	xmm1, XMMWORD PTR _mCameraRot$[ebp+16]
	movaps	xmm2, XMMWORD PTR _mCameraRot$[ebp+32]
	movaps	xmm3, XMMWORD PTR _mCameraRot$[ebp+48]
	call	?XMStoreFloat4x4@DirectX@@YQXPAUXMFLOAT4X4@1@UXMMATRIX@1@@Z ; DirectX::XMStoreFloat4x4
; Line 906
	mov	eax, 16					; 00000010H
	imul	ecx, eax, 0
	movups	xmm0, XMMWORD PTR _mModelRot$[ebp+ecx]
	call	?XMVector3Normalize@DirectX@@YQ?AT__m128@@T2@@Z ; DirectX::XMVector3Normalize
	movaps	XMMWORD PTR $T22[ebp], xmm0
	movaps	xmm0, XMMWORD PTR $T22[ebp]
	movaps	XMMWORD PTR _xBasis$[ebp], xmm0
; Line 907
	movaps	xmm1, XMMWORD PTR _xBasis$[ebp]
	mov	edx, 16					; 00000010H
	shl	edx, 1
	movups	xmm0, XMMWORD PTR _mModelRot$[ebp+edx]
	call	?XMVector3Cross@DirectX@@YQ?AT__m128@@T2@0@Z ; DirectX::XMVector3Cross
	movaps	XMMWORD PTR $T21[ebp], xmm0
	movaps	xmm0, XMMWORD PTR $T21[ebp]
	movaps	XMMWORD PTR _yBasis$[ebp], xmm0
; Line 908
	movaps	xmm0, XMMWORD PTR _yBasis$[ebp]
	call	?XMVector3Normalize@DirectX@@YQ?AT__m128@@T2@@Z ; DirectX::XMVector3Normalize
	movaps	XMMWORD PTR $T20[ebp], xmm0
	movaps	xmm0, XMMWORD PTR $T20[ebp]
	movaps	XMMWORD PTR _yBasis$[ebp], xmm0
; Line 909
	movaps	xmm1, XMMWORD PTR _yBasis$[ebp]
	movaps	xmm0, XMMWORD PTR _xBasis$[ebp]
	call	?XMVector3Cross@DirectX@@YQ?AT__m128@@T2@0@Z ; DirectX::XMVector3Cross
	movaps	XMMWORD PTR $T19[ebp], xmm0
	movaps	xmm0, XMMWORD PTR $T19[ebp]
	movaps	XMMWORD PTR _zBasis$[ebp], xmm0
; Line 911
	lea	eax, DWORD PTR $T18[ebp]
	push	eax
	mov	ecx, OFFSET ?g_XMSelect1110@DirectX@@3UXMVECTORI32@1@B ; DirectX::g_XMSelect1110
	call	??BXMVECTORI32@DirectX@@QBE?AT__m128@@XZ ; DirectX::XMVECTORI32::operator __m128
	movups	xmm2, XMMWORD PTR [eax]
	movaps	xmm1, XMMWORD PTR _xBasis$[ebp]
	mov	ecx, 16					; 00000010H
	imul	edx, ecx, 0
	movups	xmm0, XMMWORD PTR _mModelRot$[ebp+edx]
	call	?XMVectorSelect@DirectX@@YQ?AT__m128@@T2@00@Z ; DirectX::XMVectorSelect
	movaps	XMMWORD PTR $T17[ebp], xmm0
	mov	eax, 16					; 00000010H
	imul	ecx, eax, 0
	movups	xmm0, XMMWORD PTR $T17[ebp]
	movups	XMMWORD PTR _mModelRot$[ebp+ecx], xmm0
; Line 912
	lea	edx, DWORD PTR $T16[ebp]
	push	edx
	mov	ecx, OFFSET ?g_XMSelect1110@DirectX@@3UXMVECTORI32@1@B ; DirectX::g_XMSelect1110
	call	??BXMVECTORI32@DirectX@@QBE?AT__m128@@XZ ; DirectX::XMVECTORI32::operator __m128
	movups	xmm2, XMMWORD PTR [eax]
	movaps	xmm1, XMMWORD PTR _yBasis$[ebp]
	mov	eax, 16					; 00000010H
	shl	eax, 0
	movups	xmm0, XMMWORD PTR _mModelRot$[ebp+eax]
	call	?XMVectorSelect@DirectX@@YQ?AT__m128@@T2@00@Z ; DirectX::XMVectorSelect
	movaps	XMMWORD PTR $T15[ebp], xmm0
	mov	ecx, 16					; 00000010H
	shl	ecx, 0
	movups	xmm0, XMMWORD PTR $T15[ebp]
	movups	XMMWORD PTR _mModelRot$[ebp+ecx], xmm0
; Line 913
	lea	edx, DWORD PTR $T14[ebp]
	push	edx
	mov	ecx, OFFSET ?g_XMSelect1110@DirectX@@3UXMVECTORI32@1@B ; DirectX::g_XMSelect1110
	call	??BXMVECTORI32@DirectX@@QBE?AT__m128@@XZ ; DirectX::XMVECTORI32::operator __m128
	movups	xmm2, XMMWORD PTR [eax]
	movaps	xmm1, XMMWORD PTR _zBasis$[ebp]
	mov	eax, 16					; 00000010H
	shl	eax, 1
	movups	xmm0, XMMWORD PTR _mModelRot$[ebp+eax]
	call	?XMVectorSelect@DirectX@@YQ?AT__m128@@T2@00@Z ; DirectX::XMVectorSelect
	movaps	XMMWORD PTR $T13[ebp], xmm0
	mov	ecx, 16					; 00000010H
	shl	ecx, 1
	movups	xmm0, XMMWORD PTR $T13[ebp]
	movups	XMMWORD PTR _mModelRot$[ebp+ecx], xmm0
; Line 916
	lea	edx, DWORD PTR $T12[ebp]
	push	edx
	mov	ecx, OFFSET ?g_XMSelect1110@DirectX@@3UXMVECTORI32@1@B ; DirectX::g_XMSelect1110
	call	??BXMVECTORI32@DirectX@@QBE?AT__m128@@XZ ; DirectX::XMVECTORI32::operator __m128
	movups	xmm2, XMMWORD PTR [eax]
	movaps	xmm1, XMMWORD PTR _vLookAt$[ebp]
	mov	eax, 16					; 00000010H
	imul	ecx, eax, 3
	movups	xmm0, XMMWORD PTR _mModelRot$[ebp+ecx]
	call	?XMVectorSelect@DirectX@@YQ?AT__m128@@T2@00@Z ; DirectX::XMVectorSelect
	movaps	XMMWORD PTR $T11[ebp], xmm0
	mov	edx, 16					; 00000010H
	imul	eax, edx, 3
	movups	xmm0, XMMWORD PTR $T11[ebp]
	movups	XMMWORD PTR _mModelRot$[ebp+eax], xmm0
; Line 918
	mov	ecx, DWORD PTR _this$[ebp]
	add	ecx, 1316				; 00000524H
	movaps	xmm0, XMMWORD PTR _mModelRot$[ebp]
	movaps	xmm1, XMMWORD PTR _mModelRot$[ebp+16]
	movaps	xmm2, XMMWORD PTR _mModelRot$[ebp+32]
	movaps	xmm3, XMMWORD PTR _mModelRot$[ebp+48]
	call	?XMStoreFloat4x4@DirectX@@YQXPAUXMFLOAT4X4@1@UXMMATRIX@1@@Z ; DirectX::XMStoreFloat4x4
; Line 921
	mov	ecx, DWORD PTR _this$[ebp]
	movss	xmm2, DWORD PTR [ecx+1248]
	xorps	xmm2, DWORD PTR __xmm@80000000800000008000000080000000
	mov	edx, DWORD PTR _this$[ebp]
	movss	xmm1, DWORD PTR [edx+1244]
	xorps	xmm1, DWORD PTR __xmm@80000000800000008000000080000000
	mov	eax, DWORD PTR _this$[ebp]
	movss	xmm0, DWORD PTR [eax+1240]
	xorps	xmm0, DWORD PTR __xmm@80000000800000008000000080000000
	call	?XMMatrixTranslation@DirectX@@YQ?AUXMMATRIX@1@MMM@Z ; DirectX::XMMatrixTranslation
	movaps	XMMWORD PTR $T1[ebp+48], xmm3
	movaps	XMMWORD PTR $T1[ebp+32], xmm2
	movaps	XMMWORD PTR $T1[ebp+16], xmm1
	movaps	XMMWORD PTR $T1[ebp], xmm0
	mov	ecx, 16					; 00000010H
	lea	esi, DWORD PTR $T1[ebp]
	lea	edi, DWORD PTR $T10[ebp]
	rep movsd
	mov	ecx, 16					; 00000010H
	lea	esi, DWORD PTR $T10[ebp]
	lea	edi, DWORD PTR _mTrans$[ebp]
	rep movsd
; Line 922
	lea	edx, DWORD PTR _mWorld$[ebp]
	lea	ecx, DWORD PTR _mTrans$[ebp]
	movaps	xmm0, XMMWORD PTR _mModelRot$[ebp]
	movaps	xmm1, XMMWORD PTR _mModelRot$[ebp+16]
	movaps	xmm2, XMMWORD PTR _mModelRot$[ebp+32]
	movaps	xmm3, XMMWORD PTR _mModelRot$[ebp+48]
	call	??DXMMATRIX@DirectX@@QBQ?AU01@U01@@Z	; DirectX::XMMATRIX::operator*
; Line 923
	mov	ecx, DWORD PTR _this$[ebp]
	add	ecx, 1380				; 00000564H
	movaps	xmm0, XMMWORD PTR _mWorld$[ebp]
	movaps	xmm1, XMMWORD PTR _mWorld$[ebp+16]
	movaps	xmm2, XMMWORD PTR _mWorld$[ebp+32]
	movaps	xmm3, XMMWORD PTR _mWorld$[ebp+48]
	call	?XMStoreFloat4x4@DirectX@@YQXPAUXMFLOAT4X4@1@UXMMATRIX@1@@Z ; DirectX::XMStoreFloat4x4
$LN6@FrameMove:
; Line 924
	push	edx
	mov	ecx, ebp
	push	eax
	lea	edx, DWORD PTR $LN24@FrameMove
	call	@_RTC_CheckStackVars@8
	pop	eax
	pop	edx
	pop	edi
	pop	esi
	mov	ecx, DWORD PTR __$ArrayPad$[ebp]
	xor	ecx, ebp
	call	@__security_check_cookie@4
	mov	esp, ebp
	pop	ebp
	mov	esp, ebx
	pop	ebx
	ret	4
	npad	1
$LN24@FrameMove:
	DD	13					; 0000000dH
	DD	$LN23@FrameMove
$LN23@FrameMove:
	DD	-144					; ffffff70H
	DD	64					; 00000040H
	DD	$LN10@FrameMove
	DD	-448					; fffffe40H
	DD	16					; 00000010H
	DD	$LN11@FrameMove
	DD	-624					; fffffd90H
	DD	64					; 00000040H
	DD	$LN12@FrameMove
	DD	-784					; fffffcf0H
	DD	64					; 00000040H
	DD	$LN13@FrameMove
	DD	-992					; fffffc20H
	DD	64					; 00000040H
	DD	$LN14@FrameMove
	DD	-1152					; fffffb80H
	DD	64					; 00000040H
	DD	$LN15@FrameMove
	DD	-1312					; fffffae0H
	DD	64					; 00000040H
	DD	$LN16@FrameMove
	DD	-1392					; fffffa90H
	DD	64					; 00000040H
	DD	$LN17@FrameMove
	DD	-1744					; fffff930H
	DD	64					; 00000040H
	DD	$LN18@FrameMove
	DD	-1904					; fffff890H
	DD	64					; 00000040H
	DD	$LN19@FrameMove
	DD	-2064					; fffff7f0H
	DD	64					; 00000040H
	DD	$LN20@FrameMove
	DD	-2400					; fffff6a0H
	DD	64					; 00000040H
	DD	$LN21@FrameMove
	DD	-2560					; fffff600H
	DD	64					; 00000040H
	DD	$LN22@FrameMove
$LN22@FrameMove:
	DB	109					; 0000006dH
	DB	87					; 00000057H
	DB	111					; 0000006fH
	DB	114					; 00000072H
	DB	108					; 0000006cH
	DB	100					; 00000064H
	DB	0
$LN21@FrameMove:
	DB	109					; 0000006dH
	DB	84					; 00000054H
	DB	114					; 00000072H
	DB	97					; 00000061H
	DB	110					; 0000006eH
	DB	115					; 00000073H
	DB	0
$LN20@FrameMove:
	DB	109					; 0000006dH
	DB	67					; 00000043H
	DB	97					; 00000061H
	DB	109					; 0000006dH
	DB	101					; 00000065H
	DB	114					; 00000072H
	DB	97					; 00000061H
	DB	82					; 00000052H
	DB	111					; 0000006fH
	DB	116					; 00000074H
	DB	68					; 00000044H
	DB	101					; 00000065H
	DB	108					; 0000006cH
	DB	116					; 00000074H
	DB	97					; 00000061H
	DB	0
$LN19@FrameMove:
	DB	109					; 0000006dH
	DB	67					; 00000043H
	DB	97					; 00000061H
	DB	109					; 0000006dH
	DB	101					; 00000065H
	DB	114					; 00000072H
	DB	97					; 00000061H
	DB	76					; 0000004cH
	DB	97					; 00000061H
	DB	115					; 00000073H
	DB	116					; 00000074H
	DB	82					; 00000052H
	DB	111					; 0000006fH
	DB	116					; 00000074H
	DB	73					; 00000049H
	DB	110					; 0000006eH
	DB	118					; 00000076H
	DB	0
$LN18@FrameMove:
	DB	109					; 0000006dH
	DB	67					; 00000043H
	DB	97					; 00000061H
	DB	109					; 0000006dH
	DB	101					; 00000065H
	DB	114					; 00000072H
	DB	97					; 00000061H
	DB	82					; 00000052H
	DB	111					; 0000006fH
	DB	116					; 00000074H
	DB	76					; 0000004cH
	DB	97					; 00000061H
	DB	115					; 00000073H
	DB	116					; 00000074H
	DB	0
$LN17@FrameMove:
	DB	109					; 0000006dH
	DB	77					; 0000004dH
	DB	111					; 0000006fH
	DB	100					; 00000064H
	DB	101					; 00000065H
	DB	108					; 0000006cH
	DB	82					; 00000052H
	DB	111					; 0000006fH
	DB	116					; 00000074H
	DB	0
$LN16@FrameMove:
	DB	109					; 0000006dH
	DB	77					; 0000004dH
	DB	111					; 0000006fH
	DB	100					; 00000064H
	DB	101					; 00000065H
	DB	108					; 0000006cH
	DB	82					; 00000052H
	DB	111					; 0000006fH
	DB	116					; 00000074H
	DB	48					; 00000030H
	DB	0
$LN15@FrameMove:
	DB	109					; 0000006dH
	DB	77					; 0000004dH
	DB	111					; 0000006fH
	DB	100					; 00000064H
	DB	101					; 00000065H
	DB	108					; 0000006cH
	DB	76					; 0000004cH
	DB	97					; 00000061H
	DB	115					; 00000073H
	DB	116					; 00000074H
	DB	82					; 00000052H
	DB	111					; 0000006fH
	DB	116					; 00000074H
	DB	73					; 00000049H
	DB	110					; 0000006eH
	DB	118					; 00000076H
	DB	0
$LN14@FrameMove:
	DB	109					; 0000006dH
	DB	77					; 0000004dH
	DB	111					; 0000006fH
	DB	100					; 00000064H
	DB	101					; 00000065H
	DB	108					; 0000006cH
	DB	76					; 0000004cH
	DB	97					; 00000061H
	DB	115					; 00000073H
	DB	116					; 00000074H
	DB	82					; 00000052H
	DB	111					; 0000006fH
	DB	116					; 00000074H
	DB	0
$LN13@FrameMove:
	DB	109					; 0000006dH
	DB	73					; 00000049H
	DB	110					; 0000006eH
	DB	118					; 00000076H
	DB	86					; 00000056H
	DB	105					; 00000069H
	DB	101					; 00000065H
	DB	119					; 00000077H
	DB	0
$LN12@FrameMove:
	DB	109					; 0000006dH
	DB	86					; 00000056H
	DB	105					; 00000069H
	DB	101					; 00000065H
	DB	119					; 00000077H
	DB	0
$LN11@FrameMove:
	DB	118					; 00000076H
	DB	76					; 0000004cH
	DB	111					; 0000006fH
	DB	111					; 0000006fH
	DB	107					; 0000006bH
	DB	65					; 00000041H
	DB	116					; 00000074H
	DB	0
$LN10@FrameMove:
	DB	109					; 0000006dH
	DB	67					; 00000043H
	DB	97					; 00000061H
	DB	109					; 0000006dH
	DB	101					; 00000065H
	DB	114					; 00000072H
	DB	97					; 00000061H
	DB	82					; 00000052H
	DB	111					; 0000006fH
	DB	116					; 00000074H
	DB	0
?FrameMove@CModelViewerCamera@@UAEXM@Z ENDP		; CModelViewerCamera::FrameMove
_TEXT	ENDS
; Function compile flags: /Odtp /RTCsu
_TEXT	SEGMENT
_iMouseY$1 = -28					; size = 4
_iMouseX$2 = -24					; size = 4
_iMouseY$3 = -20					; size = 4
_iMouseX$4 = -16					; size = 4
_iMouseY$5 = -12					; size = 4
_iMouseX$6 = -8						; size = 4
_this$ = -4						; size = 4
_hWnd$ = 8						; size = 4
_uMsg$ = 12						; size = 4
_wParam$ = 16						; size = 4
_lParam$ = 20						; size = 4
?HandleMessages@CModelViewerCamera@@UAEJPAUHWND__@@IIJ@Z PROC ; CModelViewerCamera::HandleMessages
; _this$ = ecx
; File d:\engine class\assignment 1\scratch\dxsse\dxut\optional\dxutcamera.cpp
; Line 986
	push	ebp
	mov	ebp, esp
	sub	esp, 28					; 0000001cH
	mov	eax, -858993460				; ccccccccH
	mov	DWORD PTR [ebp-28], eax
	mov	DWORD PTR [ebp-24], eax
	mov	DWORD PTR [ebp-20], eax
	mov	DWORD PTR [ebp-16], eax
	mov	DWORD PTR [ebp-12], eax
	mov	DWORD PTR [ebp-8], eax
	mov	DWORD PTR [ebp-4], eax
	mov	DWORD PTR _this$[ebp], ecx
; Line 987
	mov	eax, DWORD PTR _lParam$[ebp]
	push	eax
	mov	ecx, DWORD PTR _wParam$[ebp]
	push	ecx
	mov	edx, DWORD PTR _uMsg$[ebp]
	push	edx
	mov	eax, DWORD PTR _hWnd$[ebp]
	push	eax
	mov	ecx, DWORD PTR _this$[ebp]
	call	?HandleMessages@CBaseCamera@@UAEJPAUHWND__@@IIJ@Z ; CBaseCamera::HandleMessages
; Line 991
	cmp	DWORD PTR _uMsg$[ebp], 513		; 00000201H
	je	SHORT $LN28@HandleMess
	cmp	DWORD PTR _uMsg$[ebp], 515		; 00000203H
	jne	SHORT $LN29@HandleMess
$LN28@HandleMess:
	mov	ecx, DWORD PTR _this$[ebp]
	mov	edx, DWORD PTR [ecx+1444]
	and	edx, 1
	jne	SHORT $LN30@HandleMess
$LN29@HandleMess:
	cmp	DWORD PTR _uMsg$[ebp], 519		; 00000207H
	je	SHORT $LN26@HandleMess
	cmp	DWORD PTR _uMsg$[ebp], 521		; 00000209H
	jne	SHORT $LN27@HandleMess
$LN26@HandleMess:
	mov	eax, DWORD PTR _this$[ebp]
	mov	ecx, DWORD PTR [eax+1444]
	and	ecx, 2
	jne	SHORT $LN30@HandleMess
$LN27@HandleMess:
	cmp	DWORD PTR _uMsg$[ebp], 516		; 00000204H
	je	SHORT $LN25@HandleMess
	cmp	DWORD PTR _uMsg$[ebp], 518		; 00000206H
	jne	SHORT $LN31@HandleMess
$LN25@HandleMess:
	mov	edx, DWORD PTR _this$[ebp]
	mov	eax, DWORD PTR [edx+1444]
	and	eax, 4
	je	SHORT $LN31@HandleMess
$LN30@HandleMess:
; Line 993
	mov	ecx, DWORD PTR _lParam$[ebp]
	and	ecx, 65535				; 0000ffffH
	movsx	edx, cx
	mov	DWORD PTR _iMouseX$6[ebp], edx
; Line 994
	mov	eax, DWORD PTR _lParam$[ebp]
	shr	eax, 16					; 00000010H
	and	eax, 65535				; 0000ffffH
	movsx	ecx, ax
	mov	DWORD PTR _iMouseY$5[ebp], ecx
; Line 995
	mov	edx, DWORD PTR _iMouseY$5[ebp]
	push	edx
	mov	eax, DWORD PTR _iMouseX$6[ebp]
	push	eax
	mov	ecx, DWORD PTR _this$[ebp]
	add	ecx, 656				; 00000290H
	call	?OnBegin@CD3DArcBall@@QAEXHH@Z		; CD3DArcBall::OnBegin
$LN31@HandleMess:
; Line 1001
	cmp	DWORD PTR _uMsg$[ebp], 513		; 00000201H
	je	SHORT $LN21@HandleMess
	cmp	DWORD PTR _uMsg$[ebp], 515		; 00000203H
	jne	SHORT $LN22@HandleMess
$LN21@HandleMess:
	mov	ecx, DWORD PTR _this$[ebp]
	mov	edx, DWORD PTR [ecx+1452]
	and	edx, 1
	jne	SHORT $LN23@HandleMess
$LN22@HandleMess:
	cmp	DWORD PTR _uMsg$[ebp], 519		; 00000207H
	je	SHORT $LN19@HandleMess
	cmp	DWORD PTR _uMsg$[ebp], 521		; 00000209H
	jne	SHORT $LN20@HandleMess
$LN19@HandleMess:
	mov	eax, DWORD PTR _this$[ebp]
	mov	ecx, DWORD PTR [eax+1452]
	and	ecx, 2
	jne	SHORT $LN23@HandleMess
$LN20@HandleMess:
	cmp	DWORD PTR _uMsg$[ebp], 516		; 00000204H
	je	SHORT $LN18@HandleMess
	cmp	DWORD PTR _uMsg$[ebp], 518		; 00000206H
	jne	SHORT $LN24@HandleMess
$LN18@HandleMess:
	mov	edx, DWORD PTR _this$[ebp]
	mov	eax, DWORD PTR [edx+1452]
	and	eax, 4
	je	SHORT $LN24@HandleMess
$LN23@HandleMess:
; Line 1003
	mov	ecx, DWORD PTR _lParam$[ebp]
	and	ecx, 65535				; 0000ffffH
	movsx	edx, cx
	mov	DWORD PTR _iMouseX$4[ebp], edx
; Line 1004
	mov	eax, DWORD PTR _lParam$[ebp]
	shr	eax, 16					; 00000010H
	and	eax, 65535				; 0000ffffH
	movsx	ecx, ax
	mov	DWORD PTR _iMouseY$3[ebp], ecx
; Line 1005
	mov	edx, DWORD PTR _iMouseY$3[ebp]
	push	edx
	mov	eax, DWORD PTR _iMouseX$4[ebp]
	push	eax
	mov	ecx, DWORD PTR _this$[ebp]
	add	ecx, 948				; 000003b4H
	call	?OnBegin@CD3DArcBall@@QAEXHH@Z		; CD3DArcBall::OnBegin
$LN24@HandleMess:
; Line 1008
	cmp	DWORD PTR _uMsg$[ebp], 512		; 00000200H
	jne	SHORT $LN17@HandleMess
; Line 1010
	mov	ecx, DWORD PTR _lParam$[ebp]
	and	ecx, 65535				; 0000ffffH
	movsx	edx, cx
	mov	DWORD PTR _iMouseX$2[ebp], edx
; Line 1011
	mov	eax, DWORD PTR _lParam$[ebp]
	shr	eax, 16					; 00000010H
	and	eax, 65535				; 0000ffffH
	movsx	ecx, ax
	mov	DWORD PTR _iMouseY$1[ebp], ecx
; Line 1012
	mov	edx, DWORD PTR _iMouseY$1[ebp]
	push	edx
	mov	eax, DWORD PTR _iMouseX$2[ebp]
	push	eax
	mov	ecx, DWORD PTR _this$[ebp]
	add	ecx, 656				; 00000290H
	call	?OnMove@CD3DArcBall@@QAEXHH@Z		; CD3DArcBall::OnMove
; Line 1013
	mov	ecx, DWORD PTR _iMouseY$1[ebp]
	push	ecx
	mov	edx, DWORD PTR _iMouseX$2[ebp]
	push	edx
	mov	ecx, DWORD PTR _this$[ebp]
	add	ecx, 948				; 000003b4H
	call	?OnMove@CD3DArcBall@@QAEXHH@Z		; CD3DArcBall::OnMove
$LN17@HandleMess:
; Line 1018
	cmp	DWORD PTR _uMsg$[ebp], 514		; 00000202H
	jne	SHORT $LN14@HandleMess
	mov	eax, DWORD PTR _this$[ebp]
	mov	ecx, DWORD PTR [eax+1444]
	and	ecx, 1
	jne	SHORT $LN15@HandleMess
$LN14@HandleMess:
	cmp	DWORD PTR _uMsg$[ebp], 520		; 00000208H
	jne	SHORT $LN13@HandleMess
	mov	edx, DWORD PTR _this$[ebp]
	mov	eax, DWORD PTR [edx+1444]
	and	eax, 2
	jne	SHORT $LN15@HandleMess
$LN13@HandleMess:
	cmp	DWORD PTR _uMsg$[ebp], 517		; 00000205H
	jne	SHORT $LN16@HandleMess
	mov	ecx, DWORD PTR _this$[ebp]
	mov	edx, DWORD PTR [ecx+1444]
	and	edx, 4
	je	SHORT $LN16@HandleMess
$LN15@HandleMess:
; Line 1020
	mov	ecx, DWORD PTR _this$[ebp]
	add	ecx, 656				; 00000290H
	call	?OnEnd@CD3DArcBall@@QAEXXZ		; CD3DArcBall::OnEnd
$LN16@HandleMess:
; Line 1025
	cmp	DWORD PTR _uMsg$[ebp], 514		; 00000202H
	jne	SHORT $LN10@HandleMess
	mov	eax, DWORD PTR _this$[ebp]
	mov	ecx, DWORD PTR [eax+1452]
	and	ecx, 1
	jne	SHORT $LN11@HandleMess
$LN10@HandleMess:
	cmp	DWORD PTR _uMsg$[ebp], 520		; 00000208H
	jne	SHORT $LN9@HandleMess
	mov	edx, DWORD PTR _this$[ebp]
	mov	eax, DWORD PTR [edx+1452]
	and	eax, 2
	jne	SHORT $LN11@HandleMess
$LN9@HandleMess:
	cmp	DWORD PTR _uMsg$[ebp], 517		; 00000205H
	jne	SHORT $LN12@HandleMess
	mov	ecx, DWORD PTR _this$[ebp]
	mov	edx, DWORD PTR [ecx+1452]
	and	edx, 4
	je	SHORT $LN12@HandleMess
$LN11@HandleMess:
; Line 1027
	mov	ecx, DWORD PTR _this$[ebp]
	add	ecx, 948				; 000003b4H
	call	?OnEnd@CD3DArcBall@@QAEXXZ		; CD3DArcBall::OnEnd
$LN12@HandleMess:
; Line 1030
	cmp	DWORD PTR _uMsg$[ebp], 533		; 00000215H
	jne	SHORT $LN8@HandleMess
; Line 1032
	mov	eax, DWORD PTR _lParam$[ebp]
	cmp	eax, DWORD PTR _hWnd$[ebp]
	je	SHORT $LN8@HandleMess
; Line 1036
	mov	ecx, DWORD PTR _this$[ebp]
	mov	edx, DWORD PTR [ecx+1444]
	and	edx, 1
	jne	SHORT $LN5@HandleMess
	mov	eax, DWORD PTR _this$[ebp]
	mov	ecx, DWORD PTR [eax+1444]
	and	ecx, 2
	jne	SHORT $LN5@HandleMess
	mov	edx, DWORD PTR _this$[ebp]
	mov	eax, DWORD PTR [edx+1444]
	and	eax, 4
	je	SHORT $LN6@HandleMess
$LN5@HandleMess:
; Line 1038
	mov	ecx, DWORD PTR _this$[ebp]
	add	ecx, 656				; 00000290H
	call	?OnEnd@CD3DArcBall@@QAEXXZ		; CD3DArcBall::OnEnd
$LN6@HandleMess:
; Line 1043
	mov	ecx, DWORD PTR _this$[ebp]
	mov	edx, DWORD PTR [ecx+1452]
	and	edx, 1
	jne	SHORT $LN3@HandleMess
	mov	eax, DWORD PTR _this$[ebp]
	mov	ecx, DWORD PTR [eax+1452]
	and	ecx, 2
	jne	SHORT $LN3@HandleMess
	mov	edx, DWORD PTR _this$[ebp]
	mov	eax, DWORD PTR [edx+1452]
	and	eax, 4
	je	SHORT $LN8@HandleMess
$LN3@HandleMess:
; Line 1045
	mov	ecx, DWORD PTR _this$[ebp]
	add	ecx, 948				; 000003b4H
	call	?OnEnd@CD3DArcBall@@QAEXXZ		; CD3DArcBall::OnEnd
$LN8@HandleMess:
; Line 1060
	cmp	DWORD PTR _uMsg$[ebp], 513		; 00000201H
	je	SHORT $LN1@HandleMess
	cmp	DWORD PTR _uMsg$[ebp], 515		; 00000203H
	je	SHORT $LN1@HandleMess
	cmp	DWORD PTR _uMsg$[ebp], 519		; 00000207H
	je	SHORT $LN1@HandleMess
	cmp	DWORD PTR _uMsg$[ebp], 521		; 00000209H
	je	SHORT $LN1@HandleMess
	cmp	DWORD PTR _uMsg$[ebp], 516		; 00000204H
	je	SHORT $LN1@HandleMess
	cmp	DWORD PTR _uMsg$[ebp], 518		; 00000206H
	je	SHORT $LN1@HandleMess
	cmp	DWORD PTR _uMsg$[ebp], 514		; 00000202H
	je	SHORT $LN1@HandleMess
	cmp	DWORD PTR _uMsg$[ebp], 520		; 00000208H
	je	SHORT $LN1@HandleMess
	cmp	DWORD PTR _uMsg$[ebp], 517		; 00000205H
	je	SHORT $LN1@HandleMess
	cmp	DWORD PTR _uMsg$[ebp], 522		; 0000020aH
	je	SHORT $LN1@HandleMess
	cmp	DWORD PTR _uMsg$[ebp], 512		; 00000200H
	jne	SHORT $LN2@HandleMess
$LN1@HandleMess:
; Line 1062
	mov	ecx, DWORD PTR _this$[ebp]
	mov	BYTE PTR [ecx+1458], 1
$LN2@HandleMess:
; Line 1065
	xor	eax, eax
; Line 1066
	add	esp, 28					; 0000001cH
	cmp	ebp, esp
	call	__RTC_CheckEsp
	mov	esp, ebp
	pop	ebp
	ret	16					; 00000010H
?HandleMessages@CModelViewerCamera@@UAEJPAUHWND__@@IIJ@Z ENDP ; CModelViewerCamera::HandleMessages
_TEXT	ENDS
; Function compile flags: /Odtp /RTCsu
_TEXT	SEGMENT
$T1 = -240						; size = 64
$T2 = -172						; size = 12
$T3 = -160						; size = 64
_id$ = -80						; size = 64
_this$ = -8						; size = 4
__$ArrayPad$ = -4					; size = 4
??0CModelViewerCamera@@QAE@XZ PROC			; CModelViewerCamera::CModelViewerCamera
; _this$ = ecx
; File d:\engine class\assignment 1\scratch\dxsse\dxut\optional\dxutcamera.cpp
; Line 806
	push	ebx
	mov	ebx, esp
	sub	esp, 8
	and	esp, -16				; fffffff0H
	add	esp, 4
	push	ebp
	mov	ebp, DWORD PTR [ebx+4]
	mov	DWORD PTR [esp+4], ebp
	mov	ebp, esp
	sub	esp, 248				; 000000f8H
	push	esi
	push	edi
	push	ecx
	lea	edi, DWORD PTR [ebp-248]
	mov	ecx, 62					; 0000003eH
	mov	eax, -858993460				; ccccccccH
	rep stosd
	pop	ecx
	mov	eax, DWORD PTR ___security_cookie
	xor	eax, ebp
	mov	DWORD PTR __$ArrayPad$[ebp], eax
	mov	DWORD PTR _this$[ebp], ecx
	mov	ecx, DWORD PTR _this$[ebp]
	call	??0CBaseCamera@@QAE@XZ			; CBaseCamera::CBaseCamera
	mov	eax, DWORD PTR _this$[ebp]
	mov	DWORD PTR [eax], OFFSET ??_7CModelViewerCamera@@6B@
	mov	ecx, DWORD PTR _this$[ebp]
	add	ecx, 656				; 00000290H
	call	??0CD3DArcBall@@QAE@XZ			; CD3DArcBall::CD3DArcBall
	mov	ecx, DWORD PTR _this$[ebp]
	add	ecx, 948				; 000003b4H
	call	??0CD3DArcBall@@QAE@XZ			; CD3DArcBall::CD3DArcBall
	mov	ecx, DWORD PTR _this$[ebp]
	add	ecx, 1240				; 000004d8H
	call	??0XMFLOAT3@DirectX@@QAE@XZ		; DirectX::XMFLOAT3::XMFLOAT3
	mov	ecx, DWORD PTR _this$[ebp]
	add	ecx, 1252				; 000004e4H
	call	??0XMFLOAT4X4@DirectX@@QAE@XZ		; DirectX::XMFLOAT4X4::XMFLOAT4X4
	mov	ecx, DWORD PTR _this$[ebp]
	add	ecx, 1316				; 00000524H
	call	??0XMFLOAT4X4@DirectX@@QAE@XZ		; DirectX::XMFLOAT4X4::XMFLOAT4X4
	mov	ecx, DWORD PTR _this$[ebp]
	add	ecx, 1380				; 00000564H
	call	??0XMFLOAT4X4@DirectX@@QAE@XZ		; DirectX::XMFLOAT4X4::XMFLOAT4X4
	mov	ecx, DWORD PTR _this$[ebp]
	mov	DWORD PTR [ecx+1444], 1
	mov	edx, DWORD PTR _this$[ebp]
	mov	DWORD PTR [edx+1448], 8
	mov	eax, DWORD PTR _this$[ebp]
	mov	DWORD PTR [eax+1452], 4
	mov	ecx, DWORD PTR _this$[ebp]
	mov	BYTE PTR [ecx+1456], 0
	mov	edx, DWORD PTR _this$[ebp]
	mov	BYTE PTR [edx+1457], 0
	mov	eax, DWORD PTR _this$[ebp]
	mov	BYTE PTR [eax+1458], 1
	mov	ecx, DWORD PTR _this$[ebp]
	movss	xmm0, DWORD PTR __real@40a00000
	movss	DWORD PTR [ecx+1460], xmm0
	mov	edx, DWORD PTR _this$[ebp]
	movss	xmm0, DWORD PTR __real@40a00000
	movss	DWORD PTR [edx+1464], xmm0
	mov	eax, DWORD PTR _this$[ebp]
	movss	xmm0, DWORD PTR __real@3f800000
	movss	DWORD PTR [eax+1468], xmm0
	mov	ecx, DWORD PTR _this$[ebp]
	movss	xmm0, DWORD PTR __real@7f7fffff
	movss	DWORD PTR [ecx+1472], xmm0
	mov	ecx, DWORD PTR _this$[ebp]
	add	ecx, 1476				; 000005c4H
	call	??0XMFLOAT4X4@DirectX@@QAE@XZ		; DirectX::XMFLOAT4X4::XMFLOAT4X4
; Line 807
	call	?XMMatrixIdentity@DirectX@@YQ?AUXMMATRIX@1@XZ ; DirectX::XMMatrixIdentity
	movaps	XMMWORD PTR $T1[ebp+48], xmm3
	movaps	XMMWORD PTR $T1[ebp+32], xmm2
	movaps	XMMWORD PTR $T1[ebp+16], xmm1
	movaps	XMMWORD PTR $T1[ebp], xmm0
	mov	ecx, 16					; 00000010H
	lea	esi, DWORD PTR $T1[ebp]
	lea	edi, DWORD PTR $T3[ebp]
	rep movsd
	mov	ecx, 16					; 00000010H
	lea	esi, DWORD PTR $T3[ebp]
	lea	edi, DWORD PTR _id$[ebp]
	rep movsd
; Line 809
	mov	ecx, DWORD PTR _this$[ebp]
	add	ecx, 1380				; 00000564H
	movaps	xmm0, XMMWORD PTR _id$[ebp]
	movaps	xmm1, XMMWORD PTR _id$[ebp+16]
	movaps	xmm2, XMMWORD PTR _id$[ebp+32]
	movaps	xmm3, XMMWORD PTR _id$[ebp+48]
	call	?XMStoreFloat4x4@DirectX@@YQXPAUXMFLOAT4X4@1@UXMMATRIX@1@@Z ; DirectX::XMStoreFloat4x4
; Line 810
	mov	ecx, DWORD PTR _this$[ebp]
	add	ecx, 1316				; 00000524H
	movaps	xmm0, XMMWORD PTR _id$[ebp]
	movaps	xmm1, XMMWORD PTR _id$[ebp+16]
	movaps	xmm2, XMMWORD PTR _id$[ebp+32]
	movaps	xmm3, XMMWORD PTR _id$[ebp+48]
	call	?XMStoreFloat4x4@DirectX@@YQXPAUXMFLOAT4X4@1@UXMMATRIX@1@@Z ; DirectX::XMStoreFloat4x4
; Line 811
	mov	ecx, DWORD PTR _this$[ebp]
	add	ecx, 1252				; 000004e4H
	movaps	xmm0, XMMWORD PTR _id$[ebp]
	movaps	xmm1, XMMWORD PTR _id$[ebp+16]
	movaps	xmm2, XMMWORD PTR _id$[ebp+32]
	movaps	xmm3, XMMWORD PTR _id$[ebp+48]
	call	?XMStoreFloat4x4@DirectX@@YQXPAUXMFLOAT4X4@1@UXMMATRIX@1@@Z ; DirectX::XMStoreFloat4x4
; Line 812
	mov	ecx, DWORD PTR _this$[ebp]
	add	ecx, 1476				; 000005c4H
	movaps	xmm0, XMMWORD PTR _id$[ebp]
	movaps	xmm1, XMMWORD PTR _id$[ebp+16]
	movaps	xmm2, XMMWORD PTR _id$[ebp+32]
	movaps	xmm3, XMMWORD PTR _id$[ebp+48]
	call	?XMStoreFloat4x4@DirectX@@YQXPAUXMFLOAT4X4@1@UXMMATRIX@1@@Z ; DirectX::XMStoreFloat4x4
; Line 813
	push	ecx
	movss	xmm0, DWORD PTR __real@00000000
	movss	DWORD PTR [esp], xmm0
	push	ecx
	movss	xmm0, DWORD PTR __real@00000000
	movss	DWORD PTR [esp], xmm0
	push	ecx
	movss	xmm0, DWORD PTR __real@00000000
	movss	DWORD PTR [esp], xmm0
	lea	ecx, DWORD PTR $T2[ebp]
	call	??0XMFLOAT3@DirectX@@QAE@MMM@Z		; DirectX::XMFLOAT3::XMFLOAT3
	push	eax
	mov	ecx, DWORD PTR _this$[ebp]
	add	ecx, 1240				; 000004d8H
	call	??4XMFLOAT3@DirectX@@QAEAAU01@ABU01@@Z	; DirectX::XMFLOAT3::operator=
; Line 815
	mov	edx, DWORD PTR _this$[ebp]
	mov	BYTE PTR [edx+625], 0
; Line 816
	mov	eax, DWORD PTR _this$[ebp]
	push	edx
	mov	ecx, ebp
	push	eax
	lea	edx, DWORD PTR $LN5@CModelView
	call	@_RTC_CheckStackVars@8
	pop	eax
	pop	edx
	pop	edi
	pop	esi
	mov	ecx, DWORD PTR __$ArrayPad$[ebp]
	xor	ecx, ebp
	call	@__security_check_cookie@4
	mov	esp, ebp
	pop	ebp
	mov	esp, ebx
	pop	ebx
	ret	0
$LN5@CModelView:
	DD	1
	DD	$LN4@CModelView
$LN4@CModelView:
	DD	-80					; ffffffb0H
	DD	64					; 00000040H
	DD	$LN3@CModelView
$LN3@CModelView:
	DB	105					; 00000069H
	DB	100					; 00000064H
	DB	0
??0CModelViewerCamera@@QAE@XZ ENDP			; CModelViewerCamera::CModelViewerCamera
_TEXT	ENDS
; Function compile flags: /Odtp /RTCsu
_TEXT	SEGMENT
tv74 = -16						; size = 4
tv70 = -12						; size = 4
tv67 = -8						; size = 4
_this$ = -4						; size = 4
_bLeft$ = 8						; size = 1
_bMiddle$ = 12						; size = 1
_bRight$ = 16						; size = 1
_bRotateWithoutButtonDown$ = 20				; size = 1
?SetRotateButtons@CFirstPersonCamera@@QAEX_N000@Z PROC	; CFirstPersonCamera::SetRotateButtons
; _this$ = ecx
; File d:\engine class\assignment 1\scratch\dxsse\dxut\optional\dxutcamera.cpp
; Line 782
	push	ebp
	mov	ebp, esp
	sub	esp, 16					; 00000010H
	mov	eax, -858993460				; ccccccccH
	mov	DWORD PTR [ebp-16], eax
	mov	DWORD PTR [ebp-12], eax
	mov	DWORD PTR [ebp-8], eax
	mov	DWORD PTR [ebp-4], eax
	mov	DWORD PTR _this$[ebp], ecx
; Line 785
	movzx	eax, BYTE PTR _bLeft$[ebp]
	test	eax, eax
	je	SHORT $LN3@SetRotateB
	mov	DWORD PTR tv67[ebp], 1
	jmp	SHORT $LN4@SetRotateB
$LN3@SetRotateB:
	mov	DWORD PTR tv67[ebp], 0
$LN4@SetRotateB:
	movzx	ecx, BYTE PTR _bMiddle$[ebp]
	test	ecx, ecx
	je	SHORT $LN5@SetRotateB
	mov	DWORD PTR tv70[ebp], 2
	jmp	SHORT $LN6@SetRotateB
$LN5@SetRotateB:
	mov	DWORD PTR tv70[ebp], 0
$LN6@SetRotateB:
	movzx	edx, BYTE PTR _bRight$[ebp]
	test	edx, edx
	je	SHORT $LN7@SetRotateB
	mov	DWORD PTR tv74[ebp], 4
	jmp	SHORT $LN8@SetRotateB
$LN7@SetRotateB:
	mov	DWORD PTR tv74[ebp], 0
$LN8@SetRotateB:
	mov	eax, DWORD PTR tv67[ebp]
	or	eax, DWORD PTR tv70[ebp]
	or	eax, DWORD PTR tv74[ebp]
	mov	ecx, DWORD PTR _this$[ebp]
	mov	DWORD PTR [ecx+720], eax
; Line 786
	mov	edx, DWORD PTR _this$[ebp]
	mov	al, BYTE PTR _bRotateWithoutButtonDown$[ebp]
	mov	BYTE PTR [edx+724], al
; Line 787
	mov	esp, ebp
	pop	ebp
	ret	16					; 00000010H
?SetRotateButtons@CFirstPersonCamera@@QAEX_N000@Z ENDP	; CFirstPersonCamera::SetRotateButtons
_TEXT	ENDS
; Function compile flags: /Odtp /RTCsu
_TEXT	SEGMENT
tv145 = -1145						; size = 1
tv376 = -1144						; size = 4
tv369 = -1140						; size = 4
$T1 = -1136						; size = 64
$T2 = -1072						; size = 64
$T3 = -1008						; size = 64
$T4 = -944						; size = 64
$T5 = -872						; size = 4
$T6 = -868						; size = 4
$T7 = -864						; size = 64
_mCameraWorld$ = -784					; size = 64
$T8 = -704						; size = 64
_mView$ = -624						; size = 64
$T9 = -544						; size = 16
_vLookAt$ = -528					; size = 16
$T10 = -512						; size = 16
$T11 = -496						; size = 16
_vEye$ = -464						; size = 16
$T12 = -432						; size = 16
_vPosDeltaWorld$ = -416					; size = 16
$T13 = -400						; size = 64
$T14 = -336						; size = 16
$T15 = -320						; size = 16
_vWorldAhead$ = -304					; size = 16
$T16 = -288						; size = 16
$T17 = -272						; size = 16
_vWorldUp$ = -256					; size = 16
$T18 = -240						; size = 64
_mCameraRot$ = -160					; size = 64
_fPitchDelta$19 = -88					; size = 4
_fYawDelta$20 = -84					; size = 4
$T21 = -80						; size = 16
_vPosDelta$ = -64					; size = 16
$T22 = -48						; size = 16
_vVelocity$ = -32					; size = 16
_this$ = -8						; size = 4
__$ArrayPad$ = -4					; size = 4
_fElapsedTime$ = 8					; size = 4
?FrameMove@CFirstPersonCamera@@UAEXM@Z PROC		; CFirstPersonCamera::FrameMove
; _this$ = ecx
; File d:\engine class\assignment 1\scratch\dxsse\dxut\optional\dxutcamera.cpp
; Line 691
	push	ebx
	mov	ebx, esp
	sub	esp, 8
	and	esp, -16				; fffffff0H
	add	esp, 4
	push	ebp
	mov	ebp, DWORD PTR [ebx+4]
	mov	DWORD PTR [esp+4], ebp
	mov	ebp, esp
	sub	esp, 1160				; 00000488H
	push	esi
	push	edi
	push	ecx
	lea	edi, DWORD PTR [ebp-1160]
	mov	ecx, 290				; 00000122H
	mov	eax, -858993460				; ccccccccH
	rep stosd
	pop	ecx
	mov	eax, DWORD PTR ___security_cookie
	xor	eax, ebp
	mov	DWORD PTR __$ArrayPad$[ebp], eax
	mov	DWORD PTR _this$[ebp], ecx
; Line 692
	call	?DXUTGetGlobalTimer@@YGPAVCDXUTTimer@@XZ ; DXUTGetGlobalTimer
	mov	ecx, eax
	call	?IsStopped@CDXUTTimer@@QBE_NXZ		; CDXUTTimer::IsStopped
	movzx	eax, al
	test	eax, eax
	je	SHORT $LN7@FrameMove
; Line 694
	call	?DXUTGetFPS@@YGMXZ			; DXUTGetFPS
	fstp	DWORD PTR tv369[ebp]
	movss	xmm0, DWORD PTR tv369[ebp]
	ucomiss	xmm0, DWORD PTR __real@00000000
	lahf
	test	ah, 68					; 00000044H
	jp	SHORT $LN8@FrameMove
; Line 695
	movss	xmm0, DWORD PTR __real@00000000
	movss	DWORD PTR _fElapsedTime$[ebx], xmm0
; Line 696
	jmp	SHORT $LN7@FrameMove
$LN8@FrameMove:
; Line 697
	call	?DXUTGetFPS@@YGMXZ			; DXUTGetFPS
	fstp	DWORD PTR tv376[ebp]
	movss	xmm0, DWORD PTR __real@3f800000
	divss	xmm0, DWORD PTR tv376[ebp]
	movss	DWORD PTR _fElapsedTime$[ebx], xmm0
$LN7@FrameMove:
; Line 700
	mov	ecx, 1
	imul	edx, ecx, 6
	mov	eax, DWORD PTR _this$[ebp]
	movzx	ecx, BYTE PTR [eax+edx+436]
	push	ecx
	mov	ecx, DWORD PTR _this$[ebp]
	call	?IsKeyDown@CBaseCamera@@IBE_NE@Z	; CBaseCamera::IsKeyDown
	movzx	edx, al
	test	edx, edx
	je	SHORT $LN6@FrameMove
; Line 702
	mov	eax, DWORD PTR _this$[ebp]
	mov	edx, DWORD PTR [eax]
	mov	esi, esp
	mov	ecx, DWORD PTR _this$[ebp]
	mov	eax, DWORD PTR [edx+8]
	call	eax
	cmp	esi, esp
	call	__RTC_CheckEsp
$LN6@FrameMove:
; Line 706
	mov	ecx, DWORD PTR _this$[ebp]
	mov	edx, DWORD PTR _this$[ebp]
	mov	eax, DWORD PTR [ecx+720]
	and	eax, DWORD PTR [edx+464]
	jne	SHORT $LN12@FrameMove
	mov	ecx, DWORD PTR _this$[ebp]
	movzx	edx, BYTE PTR [ecx+724]
	test	edx, edx
	jne	SHORT $LN12@FrameMove
	mov	BYTE PTR tv145[ebp], 0
	jmp	SHORT $LN13@FrameMove
$LN12@FrameMove:
	mov	BYTE PTR tv145[ebp], 1
$LN13@FrameMove:
	push	1
	movzx	eax, BYTE PTR tv145[ebp]
	push	eax
	mov	ecx, DWORD PTR _this$[ebp]
	movzx	edx, BYTE PTR [ecx+625]
	push	edx
	mov	ecx, DWORD PTR _this$[ebp]
	call	?GetInput@CBaseCamera@@IAEX_N00@Z	; CBaseCamera::GetInput
; Line 713
	push	ecx
	movss	xmm0, DWORD PTR _fElapsedTime$[ebx]
	movss	DWORD PTR [esp], xmm0
	mov	ecx, DWORD PTR _this$[ebp]
	call	?UpdateVelocity@CBaseCamera@@IAEXM@Z	; CBaseCamera::UpdateVelocity
; Line 716
	mov	ecx, DWORD PTR _this$[ebp]
	add	ecx, 556				; 0000022cH
	call	?XMLoadFloat3@DirectX@@YQ?AT__m128@@PBUXMFLOAT3@1@@Z ; DirectX::XMLoadFloat3
	movaps	XMMWORD PTR $T22[ebp], xmm0
	movaps	xmm0, XMMWORD PTR $T22[ebp]
	movaps	XMMWORD PTR _vVelocity$[ebp], xmm0
; Line 717
	movaps	xmm0, XMMWORD PTR _vVelocity$[ebp]
	movss	xmm1, DWORD PTR _fElapsedTime$[ebx]
	call	??DDirectX@@YQ?AT__m128@@T1@M@Z		; DirectX::operator*
	movaps	XMMWORD PTR $T21[ebp], xmm0
	movaps	xmm0, XMMWORD PTR $T21[ebp]
	movaps	XMMWORD PTR _vPosDelta$[ebp], xmm0
; Line 723
	mov	eax, DWORD PTR _this$[ebp]
	mov	ecx, DWORD PTR _this$[ebp]
	mov	edx, DWORD PTR [eax+720]
	and	edx, DWORD PTR [ecx+464]
	jne	SHORT $LN4@FrameMove
	mov	eax, DWORD PTR _this$[ebp]
	movzx	ecx, BYTE PTR [eax+724]
	test	ecx, ecx
	jne	SHORT $LN4@FrameMove
	mov	edx, DWORD PTR _this$[ebp]
	movss	xmm0, DWORD PTR [edx+388]
	ucomiss	xmm0, DWORD PTR __real@00000000
	lahf
	test	ah, 68					; 00000044H
	jp	SHORT $LN4@FrameMove
	mov	eax, DWORD PTR _this$[ebp]
	movss	xmm0, DWORD PTR [eax+396]
	ucomiss	xmm0, DWORD PTR __real@00000000
	lahf
	test	ah, 68					; 00000044H
	jnp	$LN5@FrameMove
$LN4@FrameMove:
; Line 726
	mov	ecx, DWORD PTR _this$[ebp]
	movss	xmm0, DWORD PTR [ecx+588]
	movss	DWORD PTR _fYawDelta$20[ebp], xmm0
; Line 727
	mov	edx, DWORD PTR _this$[ebp]
	movss	xmm0, DWORD PTR [edx+592]
	movss	DWORD PTR _fPitchDelta$19[ebp], xmm0
; Line 730
	mov	eax, DWORD PTR _this$[ebp]
	movzx	ecx, BYTE PTR [eax+624]
	test	ecx, ecx
	je	SHORT $LN3@FrameMove
; Line 731
	movss	xmm0, DWORD PTR _fPitchDelta$19[ebp]
	xorps	xmm0, DWORD PTR __xmm@80000000800000008000000080000000
	movss	DWORD PTR _fPitchDelta$19[ebp], xmm0
$LN3@FrameMove:
; Line 733
	mov	edx, DWORD PTR _this$[ebp]
	movss	xmm0, DWORD PTR [edx+536]
	addss	xmm0, DWORD PTR _fPitchDelta$19[ebp]
	mov	eax, DWORD PTR _this$[ebp]
	movss	DWORD PTR [eax+536], xmm0
; Line 734
	mov	ecx, DWORD PTR _this$[ebp]
	movss	xmm0, DWORD PTR [ecx+532]
	addss	xmm0, DWORD PTR _fYawDelta$20[ebp]
	mov	edx, DWORD PTR _this$[ebp]
	movss	DWORD PTR [edx+532], xmm0
; Line 737
	movss	xmm0, DWORD PTR _XM_PI
	xorps	xmm0, DWORD PTR __xmm@80000000800000008000000080000000
	divss	xmm0, DWORD PTR __real@40000000
	movss	DWORD PTR $T6[ebp], xmm0
	mov	eax, DWORD PTR _this$[ebp]
	add	eax, 536				; 00000218H
	push	eax
	lea	ecx, DWORD PTR $T6[ebp]
	push	ecx
	call	??$max@M@std@@YAABMABM0@Z		; std::max<float>
	add	esp, 8
	mov	edx, DWORD PTR _this$[ebp]
	mov	eax, DWORD PTR [eax]
	mov	DWORD PTR [edx+536], eax
; Line 738
	movss	xmm0, DWORD PTR _XM_PI
	divss	xmm0, DWORD PTR __real@40000000
	movss	DWORD PTR $T5[ebp], xmm0
	mov	ecx, DWORD PTR _this$[ebp]
	add	ecx, 536				; 00000218H
	push	ecx
	lea	edx, DWORD PTR $T5[ebp]
	push	edx
	call	??$min@M@std@@YAABMABM0@Z		; std::min<float>
	add	esp, 8
	mov	ecx, DWORD PTR _this$[ebp]
	mov	edx, DWORD PTR [eax]
	mov	DWORD PTR [ecx+536], edx
$LN5@FrameMove:
; Line 742
	movss	xmm2, DWORD PTR __real@00000000
	mov	eax, DWORD PTR _this$[ebp]
	movss	xmm1, DWORD PTR [eax+532]
	mov	ecx, DWORD PTR _this$[ebp]
	movss	xmm0, DWORD PTR [ecx+536]
	call	?XMMatrixRotationRollPitchYaw@DirectX@@YQ?AUXMMATRIX@1@MMM@Z ; DirectX::XMMatrixRotationRollPitchYaw
	movaps	XMMWORD PTR $T4[ebp+48], xmm3
	movaps	XMMWORD PTR $T4[ebp+32], xmm2
	movaps	XMMWORD PTR $T4[ebp+16], xmm1
	movaps	XMMWORD PTR $T4[ebp], xmm0
	mov	ecx, 16					; 00000010H
	lea	esi, DWORD PTR $T4[ebp]
	lea	edi, DWORD PTR $T18[ebp]
	rep movsd
	mov	ecx, 16					; 00000010H
	lea	esi, DWORD PTR $T18[ebp]
	lea	edi, DWORD PTR _mCameraRot$[ebp]
	rep movsd
; Line 745
	lea	edx, DWORD PTR $T17[ebp]
	push	edx
	mov	ecx, OFFSET ?g_XMIdentityR1@DirectX@@3UXMVECTORF32@1@B ; DirectX::g_XMIdentityR1
	call	??BXMVECTORF32@DirectX@@QBE?AT__m128@@XZ ; DirectX::XMVECTORF32::operator __m128
	movups	xmm0, XMMWORD PTR [eax]
	movaps	xmm1, XMMWORD PTR _mCameraRot$[ebp]
	movaps	xmm2, XMMWORD PTR _mCameraRot$[ebp+16]
	movaps	xmm3, XMMWORD PTR _mCameraRot$[ebp+32]
	movaps	xmm4, XMMWORD PTR _mCameraRot$[ebp+48]
	call	?XMVector3TransformCoord@DirectX@@YQ?AT__m128@@T2@UXMMATRIX@1@@Z ; DirectX::XMVector3TransformCoord
	movaps	XMMWORD PTR $T16[ebp], xmm0
	movaps	xmm0, XMMWORD PTR $T16[ebp]
	movaps	XMMWORD PTR _vWorldUp$[ebp], xmm0
; Line 746
	lea	eax, DWORD PTR $T15[ebp]
	push	eax
	mov	ecx, OFFSET ?g_XMIdentityR2@DirectX@@3UXMVECTORF32@1@B ; DirectX::g_XMIdentityR2
	call	??BXMVECTORF32@DirectX@@QBE?AT__m128@@XZ ; DirectX::XMVECTORF32::operator __m128
	movups	xmm0, XMMWORD PTR [eax]
	movaps	xmm1, XMMWORD PTR _mCameraRot$[ebp]
	movaps	xmm2, XMMWORD PTR _mCameraRot$[ebp+16]
	movaps	xmm3, XMMWORD PTR _mCameraRot$[ebp+32]
	movaps	xmm4, XMMWORD PTR _mCameraRot$[ebp+48]
	call	?XMVector3TransformCoord@DirectX@@YQ?AT__m128@@T2@UXMMATRIX@1@@Z ; DirectX::XMVector3TransformCoord
	movaps	XMMWORD PTR $T14[ebp], xmm0
	movaps	xmm0, XMMWORD PTR $T14[ebp]
	movaps	XMMWORD PTR _vWorldAhead$[ebp], xmm0
; Line 749
	mov	ecx, DWORD PTR _this$[ebp]
	movzx	edx, BYTE PTR [ecx+626]
	test	edx, edx
	jne	SHORT $LN2@FrameMove
; Line 753
	movss	xmm2, DWORD PTR __real@00000000
	mov	eax, DWORD PTR _this$[ebp]
	movss	xmm1, DWORD PTR [eax+532]
	movss	xmm0, DWORD PTR __real@00000000
	call	?XMMatrixRotationRollPitchYaw@DirectX@@YQ?AUXMMATRIX@1@MMM@Z ; DirectX::XMMatrixRotationRollPitchYaw
	movaps	XMMWORD PTR $T3[ebp+48], xmm3
	movaps	XMMWORD PTR $T3[ebp+32], xmm2
	movaps	XMMWORD PTR $T3[ebp+16], xmm1
	movaps	XMMWORD PTR $T3[ebp], xmm0
	mov	ecx, 16					; 00000010H
	lea	esi, DWORD PTR $T3[ebp]
	lea	edi, DWORD PTR $T13[ebp]
	rep movsd
	lea	ecx, DWORD PTR $T13[ebp]
	push	ecx
	lea	ecx, DWORD PTR _mCameraRot$[ebp]
	call	??4XMMATRIX@DirectX@@QAEAAU01@ABU01@@Z	; DirectX::XMMATRIX::operator=
$LN2@FrameMove:
; Line 755
	movaps	xmm0, XMMWORD PTR _vPosDelta$[ebp]
	movaps	xmm1, XMMWORD PTR _mCameraRot$[ebp]
	movaps	xmm2, XMMWORD PTR _mCameraRot$[ebp+16]
	movaps	xmm3, XMMWORD PTR _mCameraRot$[ebp+32]
	movaps	xmm4, XMMWORD PTR _mCameraRot$[ebp+48]
	call	?XMVector3TransformCoord@DirectX@@YQ?AT__m128@@T2@UXMMATRIX@1@@Z ; DirectX::XMVector3TransformCoord
	movaps	XMMWORD PTR $T12[ebp], xmm0
	movaps	xmm0, XMMWORD PTR $T12[ebp]
	movaps	XMMWORD PTR _vPosDeltaWorld$[ebp], xmm0
; Line 758
	mov	ecx, DWORD PTR _this$[ebp]
	add	ecx, 508				; 000001fcH
	call	?XMLoadFloat3@DirectX@@YQ?AT__m128@@PBUXMFLOAT3@1@@Z ; DirectX::XMLoadFloat3
	movaps	XMMWORD PTR $T11[ebp], xmm0
	movaps	xmm0, XMMWORD PTR $T11[ebp]
	movaps	XMMWORD PTR _vEye$[ebp], xmm0
; Line 759
	movaps	xmm0, XMMWORD PTR _vPosDeltaWorld$[ebp]
	lea	ecx, DWORD PTR _vEye$[ebp]
	call	??YDirectX@@YQAAT__m128@@AAT1@T1@@Z	; DirectX::operator+=
; Line 760
	mov	edx, DWORD PTR _this$[ebp]
	movzx	eax, BYTE PTR [edx+627]
	test	eax, eax
	je	SHORT $LN1@FrameMove
; Line 761
	movaps	xmm0, XMMWORD PTR _vEye$[ebp]
	lea	ecx, DWORD PTR $T10[ebp]
	push	ecx
	mov	ecx, DWORD PTR _this$[ebp]
	call	?ConstrainToBoundary@CBaseCamera@@IAE?AT__m128@@T2@@Z ; CBaseCamera::ConstrainToBoundary
	movups	xmm0, XMMWORD PTR [eax]
	movups	XMMWORD PTR _vEye$[ebp], xmm0
$LN1@FrameMove:
; Line 762
	movaps	xmm0, XMMWORD PTR _vEye$[ebp]
	mov	ecx, DWORD PTR _this$[ebp]
	add	ecx, 508				; 000001fcH
	call	?XMStoreFloat3@DirectX@@YQXPAUXMFLOAT3@1@T__m128@@@Z ; DirectX::XMStoreFloat3
; Line 765
	movaps	xmm1, XMMWORD PTR _vWorldAhead$[ebp]
	movaps	xmm0, XMMWORD PTR _vEye$[ebp]
	call	??HDirectX@@YQ?AT__m128@@T1@0@Z		; DirectX::operator+
	movaps	XMMWORD PTR $T9[ebp], xmm0
	movaps	xmm0, XMMWORD PTR $T9[ebp]
	movaps	XMMWORD PTR _vLookAt$[ebp], xmm0
; Line 766
	movaps	xmm0, XMMWORD PTR _vLookAt$[ebp]
	mov	ecx, DWORD PTR _this$[ebp]
	add	ecx, 520				; 00000208H
	call	?XMStoreFloat3@DirectX@@YQXPAUXMFLOAT3@1@T__m128@@@Z ; DirectX::XMStoreFloat3
; Line 769
	movaps	xmm2, XMMWORD PTR _vWorldUp$[ebp]
	movaps	xmm1, XMMWORD PTR _vLookAt$[ebp]
	movaps	xmm0, XMMWORD PTR _vEye$[ebp]
	call	?XMMatrixLookAtLH@DirectX@@YQ?AUXMMATRIX@1@T__m128@@00@Z ; DirectX::XMMatrixLookAtLH
	movaps	XMMWORD PTR $T2[ebp+48], xmm3
	movaps	XMMWORD PTR $T2[ebp+32], xmm2
	movaps	XMMWORD PTR $T2[ebp+16], xmm1
	movaps	XMMWORD PTR $T2[ebp], xmm0
	mov	ecx, 16					; 00000010H
	lea	esi, DWORD PTR $T2[ebp]
	lea	edi, DWORD PTR $T8[ebp]
	rep movsd
	mov	ecx, 16					; 00000010H
	lea	esi, DWORD PTR $T8[ebp]
	lea	edi, DWORD PTR _mView$[ebp]
	rep movsd
; Line 770
	mov	ecx, DWORD PTR _this$[ebp]
	add	ecx, 8
	movaps	xmm0, XMMWORD PTR _mView$[ebp]
	movaps	xmm1, XMMWORD PTR _mView$[ebp+16]
	movaps	xmm2, XMMWORD PTR _mView$[ebp+32]
	movaps	xmm3, XMMWORD PTR _mView$[ebp+48]
	call	?XMStoreFloat4x4@DirectX@@YQXPAUXMFLOAT4X4@1@UXMMATRIX@1@@Z ; DirectX::XMStoreFloat4x4
; Line 772
	xor	ecx, ecx
	movaps	xmm0, XMMWORD PTR _mView$[ebp]
	movaps	xmm1, XMMWORD PTR _mView$[ebp+16]
	movaps	xmm2, XMMWORD PTR _mView$[ebp+32]
	movaps	xmm3, XMMWORD PTR _mView$[ebp+48]
	call	?XMMatrixInverse@DirectX@@YQ?AUXMMATRIX@1@PAT__m128@@U21@@Z ; DirectX::XMMatrixInverse
	movaps	XMMWORD PTR $T1[ebp+48], xmm3
	movaps	XMMWORD PTR $T1[ebp+32], xmm2
	movaps	XMMWORD PTR $T1[ebp+16], xmm1
	movaps	XMMWORD PTR $T1[ebp], xmm0
	mov	ecx, 16					; 00000010H
	lea	esi, DWORD PTR $T1[ebp]
	lea	edi, DWORD PTR $T7[ebp]
	rep movsd
	mov	ecx, 16					; 00000010H
	lea	esi, DWORD PTR $T7[ebp]
	lea	edi, DWORD PTR _mCameraWorld$[ebp]
	rep movsd
; Line 773
	mov	ecx, DWORD PTR _this$[ebp]
	add	ecx, 656				; 00000290H
	movaps	xmm0, XMMWORD PTR _mCameraWorld$[ebp]
	movaps	xmm1, XMMWORD PTR _mCameraWorld$[ebp+16]
	movaps	xmm2, XMMWORD PTR _mCameraWorld$[ebp+32]
	movaps	xmm3, XMMWORD PTR _mCameraWorld$[ebp+48]
	call	?XMStoreFloat4x4@DirectX@@YQXPAUXMFLOAT4X4@1@UXMMATRIX@1@@Z ; DirectX::XMStoreFloat4x4
; Line 774
	push	edx
	mov	ecx, ebp
	push	eax
	lea	edx, DWORD PTR $LN19@FrameMove
	call	@_RTC_CheckStackVars@8
	pop	eax
	pop	edx
	pop	edi
	pop	esi
	mov	ecx, DWORD PTR __$ArrayPad$[ebp]
	xor	ecx, ebp
	call	@__security_check_cookie@4
	mov	esp, ebp
	pop	ebp
	mov	esp, ebx
	pop	ebx
	ret	4
	npad	2
$LN19@FrameMove:
	DD	4
	DD	$LN18@FrameMove
$LN18@FrameMove:
	DD	-160					; ffffff60H
	DD	64					; 00000040H
	DD	$LN14@FrameMove
	DD	-464					; fffffe30H
	DD	16					; 00000010H
	DD	$LN15@FrameMove
	DD	-624					; fffffd90H
	DD	64					; 00000040H
	DD	$LN16@FrameMove
	DD	-784					; fffffcf0H
	DD	64					; 00000040H
	DD	$LN17@FrameMove
$LN17@FrameMove:
	DB	109					; 0000006dH
	DB	67					; 00000043H
	DB	97					; 00000061H
	DB	109					; 0000006dH
	DB	101					; 00000065H
	DB	114					; 00000072H
	DB	97					; 00000061H
	DB	87					; 00000057H
	DB	111					; 0000006fH
	DB	114					; 00000072H
	DB	108					; 0000006cH
	DB	100					; 00000064H
	DB	0
$LN16@FrameMove:
	DB	109					; 0000006dH
	DB	86					; 00000056H
	DB	105					; 00000069H
	DB	101					; 00000065H
	DB	119					; 00000077H
	DB	0
$LN15@FrameMove:
	DB	118					; 00000076H
	DB	69					; 00000045H
	DB	121					; 00000079H
	DB	101					; 00000065H
	DB	0
$LN14@FrameMove:
	DB	109					; 0000006dH
	DB	67					; 00000043H
	DB	97					; 00000061H
	DB	109					; 0000006dH
	DB	101					; 00000065H
	DB	114					; 00000072H
	DB	97					; 00000061H
	DB	82					; 00000052H
	DB	111					; 0000006fH
	DB	116					; 00000074H
	DB	0
?FrameMove@CFirstPersonCamera@@UAEXM@Z ENDP		; CFirstPersonCamera::FrameMove
_TEXT	ENDS
; Function compile flags: /Odtp /RTCsu
_TEXT	SEGMENT
_this$ = -4						; size = 4
??0CFirstPersonCamera@@QAE@XZ PROC			; CFirstPersonCamera::CFirstPersonCamera
; _this$ = ecx
; File d:\engine class\assignment 1\scratch\dxsse\dxut\optional\dxutcamera.cpp
; Line 683
	push	ebp
	mov	ebp, esp
	push	ecx
	mov	DWORD PTR [ebp-4], -858993460		; ccccccccH
	mov	DWORD PTR _this$[ebp], ecx
	mov	ecx, DWORD PTR _this$[ebp]
	call	??0CBaseCamera@@QAE@XZ			; CBaseCamera::CBaseCamera
	mov	eax, DWORD PTR _this$[ebp]
	mov	DWORD PTR [eax], OFFSET ??_7CFirstPersonCamera@@6B@
	mov	ecx, DWORD PTR _this$[ebp]
	add	ecx, 656				; 00000290H
	call	??0XMFLOAT4X4@DirectX@@QAE@XZ		; DirectX::XMFLOAT4X4::XMFLOAT4X4
	mov	ecx, DWORD PTR _this$[ebp]
	mov	DWORD PTR [ecx+720], 7
	mov	edx, DWORD PTR _this$[ebp]
	mov	BYTE PTR [edx+724], 0
; Line 684
	mov	eax, DWORD PTR _this$[ebp]
	add	esp, 4
	cmp	ebp, esp
	call	__RTC_CheckEsp
	mov	esp, ebp
	pop	ebp
	ret	0
??0CFirstPersonCamera@@QAE@XZ ENDP			; CFirstPersonCamera::CFirstPersonCamera
_TEXT	ENDS
; Function compile flags: /Odtp /RTCsu
_TEXT	SEGMENT
$T1 = -60						; size = 12
$T2 = -48						; size = 12
$T3 = -36						; size = 12
_iUserIndex$4 = -24					; size = 4
_fMostRecentlyActiveTime$5 = -20			; size = 8
_iMostRecentlyActive$6 = -12				; size = 4
_iUserIndex$7 = -8					; size = 4
_this$ = -4						; size = 4
_bGetKeyboardInput$ = 8					; size = 1
_bGetMouseInput$ = 12					; size = 1
_bGetGamepadInput$ = 16					; size = 1
?GetInput@CBaseCamera@@IAEX_N00@Z PROC			; CBaseCamera::GetInput
; _this$ = ecx
; File d:\engine class\assignment 1\scratch\dxsse\dxut\optional\dxutcamera.cpp
; Line 416
	push	ebp
	mov	ebp, esp
	sub	esp, 60					; 0000003cH
	push	edi
	push	ecx
	lea	edi, DWORD PTR [ebp-60]
	mov	ecx, 15					; 0000000fH
	mov	eax, -858993460				; ccccccccH
	rep stosd
	pop	ecx
	mov	DWORD PTR _this$[ebp], ecx
; Line 417
	push	ecx
	movss	xmm0, DWORD PTR __real@00000000
	movss	DWORD PTR [esp], xmm0
	push	ecx
	movss	xmm0, DWORD PTR __real@00000000
	movss	DWORD PTR [esp], xmm0
	push	ecx
	movss	xmm0, DWORD PTR __real@00000000
	movss	DWORD PTR [esp], xmm0
	lea	ecx, DWORD PTR $T3[ebp]
	call	??0XMFLOAT3@DirectX@@QAE@MMM@Z		; DirectX::XMFLOAT3::XMFLOAT3
	push	eax
	mov	ecx, DWORD PTR _this$[ebp]
	add	ecx, 444				; 000001bcH
	call	??4XMFLOAT3@DirectX@@QAEAAU01@ABU01@@Z	; DirectX::XMFLOAT3::operator=
; Line 418
	movzx	eax, BYTE PTR _bGetKeyboardInput$[ebp]
	test	eax, eax
	je	$LN13@GetInput
; Line 421
	mov	ecx, 1
	shl	ecx, 1
	mov	edx, DWORD PTR _this$[ebp]
	movzx	eax, BYTE PTR [edx+ecx+436]
	push	eax
	mov	ecx, DWORD PTR _this$[ebp]
	call	?IsKeyDown@CBaseCamera@@IBE_NE@Z	; CBaseCamera::IsKeyDown
	movzx	ecx, al
	test	ecx, ecx
	je	SHORT $LN19@GetInput
; Line 422
	mov	edx, DWORD PTR _this$[ebp]
	movss	xmm0, DWORD PTR [edx+452]
	addss	xmm0, DWORD PTR __real@3f800000
	mov	eax, DWORD PTR _this$[ebp]
	movss	DWORD PTR [eax+452], xmm0
$LN19@GetInput:
; Line 423
	mov	ecx, 1
	imul	edx, ecx, 3
	mov	eax, DWORD PTR _this$[ebp]
	movzx	ecx, BYTE PTR [eax+edx+436]
	push	ecx
	mov	ecx, DWORD PTR _this$[ebp]
	call	?IsKeyDown@CBaseCamera@@IBE_NE@Z	; CBaseCamera::IsKeyDown
	movzx	edx, al
	test	edx, edx
	je	SHORT $LN18@GetInput
; Line 424
	mov	eax, DWORD PTR _this$[ebp]
	movss	xmm0, DWORD PTR [eax+452]
	subss	xmm0, DWORD PTR __real@3f800000
	mov	ecx, DWORD PTR _this$[ebp]
	movss	DWORD PTR [ecx+452], xmm0
$LN18@GetInput:
; Line 425
	mov	edx, DWORD PTR _this$[ebp]
	movzx	eax, BYTE PTR [edx+626]
	test	eax, eax
	je	$LN15@GetInput
; Line 427
	mov	ecx, 1
	shl	ecx, 2
	mov	edx, DWORD PTR _this$[ebp]
	movzx	eax, BYTE PTR [edx+ecx+436]
	push	eax
	mov	ecx, DWORD PTR _this$[ebp]
	call	?IsKeyDown@CBaseCamera@@IBE_NE@Z	; CBaseCamera::IsKeyDown
	movzx	ecx, al
	test	ecx, ecx
	je	SHORT $LN16@GetInput
; Line 428
	mov	edx, DWORD PTR _this$[ebp]
	movss	xmm0, DWORD PTR [edx+448]
	addss	xmm0, DWORD PTR __real@3f800000
	mov	eax, DWORD PTR _this$[ebp]
	movss	DWORD PTR [eax+448], xmm0
$LN16@GetInput:
; Line 429
	mov	ecx, 1
	imul	edx, ecx, 5
	mov	eax, DWORD PTR _this$[ebp]
	movzx	ecx, BYTE PTR [eax+edx+436]
	push	ecx
	mov	ecx, DWORD PTR _this$[ebp]
	call	?IsKeyDown@CBaseCamera@@IBE_NE@Z	; CBaseCamera::IsKeyDown
	movzx	edx, al
	test	edx, edx
	je	SHORT $LN15@GetInput
; Line 430
	mov	eax, DWORD PTR _this$[ebp]
	movss	xmm0, DWORD PTR [eax+448]
	subss	xmm0, DWORD PTR __real@3f800000
	mov	ecx, DWORD PTR _this$[ebp]
	movss	DWORD PTR [ecx+448], xmm0
$LN15@GetInput:
; Line 432
	mov	edx, 1
	shl	edx, 0
	mov	eax, DWORD PTR _this$[ebp]
	movzx	ecx, BYTE PTR [eax+edx+436]
	push	ecx
	mov	ecx, DWORD PTR _this$[ebp]
	call	?IsKeyDown@CBaseCamera@@IBE_NE@Z	; CBaseCamera::IsKeyDown
	movzx	edx, al
	test	edx, edx
	je	SHORT $LN14@GetInput
; Line 433
	mov	eax, DWORD PTR _this$[ebp]
	movss	xmm0, DWORD PTR [eax+444]
	addss	xmm0, DWORD PTR __real@3f800000
	mov	ecx, DWORD PTR _this$[ebp]
	movss	DWORD PTR [ecx+444], xmm0
$LN14@GetInput:
; Line 434
	mov	edx, 1
	imul	eax, edx, 0
	mov	ecx, DWORD PTR _this$[ebp]
	movzx	edx, BYTE PTR [ecx+eax+436]
	push	edx
	mov	ecx, DWORD PTR _this$[ebp]
	call	?IsKeyDown@CBaseCamera@@IBE_NE@Z	; CBaseCamera::IsKeyDown
	movzx	eax, al
	test	eax, eax
	je	SHORT $LN13@GetInput
; Line 435
	mov	ecx, DWORD PTR _this$[ebp]
	movss	xmm0, DWORD PTR [ecx+444]
	subss	xmm0, DWORD PTR __real@3f800000
	mov	edx, DWORD PTR _this$[ebp]
	movss	DWORD PTR [edx+444], xmm0
$LN13@GetInput:
; Line 438
	movzx	eax, BYTE PTR _bGetMouseInput$[ebp]
	test	eax, eax
	je	SHORT $LN12@GetInput
; Line 440
	mov	ecx, DWORD PTR _this$[ebp]
	call	?UpdateMouseDelta@CBaseCamera@@IAEXXZ	; CBaseCamera::UpdateMouseDelta
$LN12@GetInput:
; Line 443
	movzx	ecx, BYTE PTR _bGetGamepadInput$[ebp]
	test	ecx, ecx
	je	$LN1@GetInput
; Line 445
	push	ecx
	movss	xmm0, DWORD PTR __real@00000000
	movss	DWORD PTR [esp], xmm0
	push	ecx
	movss	xmm0, DWORD PTR __real@00000000
	movss	DWORD PTR [esp], xmm0
	push	ecx
	movss	xmm0, DWORD PTR __real@00000000
	movss	DWORD PTR [esp], xmm0
	lea	ecx, DWORD PTR $T2[ebp]
	call	??0XMFLOAT3@DirectX@@QAE@MMM@Z		; DirectX::XMFLOAT3::XMFLOAT3
	push	eax
	mov	ecx, DWORD PTR _this$[ebp]
	add	ecx, 376				; 00000178H
	call	??4XMFLOAT3@DirectX@@QAEAAU01@ABU01@@Z	; DirectX::XMFLOAT3::operator=
; Line 446
	push	ecx
	movss	xmm0, DWORD PTR __real@00000000
	movss	DWORD PTR [esp], xmm0
	push	ecx
	movss	xmm0, DWORD PTR __real@00000000
	movss	DWORD PTR [esp], xmm0
	push	ecx
	movss	xmm0, DWORD PTR __real@00000000
	movss	DWORD PTR [esp], xmm0
	lea	ecx, DWORD PTR $T1[ebp]
	call	??0XMFLOAT3@DirectX@@QAE@MMM@Z		; DirectX::XMFLOAT3::XMFLOAT3
	push	eax
	mov	ecx, DWORD PTR _this$[ebp]
	add	ecx, 388				; 00000184H
	call	??4XMFLOAT3@DirectX@@QAEAAU01@ABU01@@Z	; DirectX::XMFLOAT3::operator=
; Line 449
	mov	DWORD PTR _iUserIndex$7[ebp], 0
	jmp	SHORT $LN10@GetInput
$LN9@GetInput:
	mov	edx, DWORD PTR _iUserIndex$7[ebp]
	add	edx, 1
	mov	DWORD PTR _iUserIndex$7[ebp], edx
$LN10@GetInput:
	cmp	DWORD PTR _iUserIndex$7[ebp], 4
	jae	$LN8@GetInput
; Line 451
	push	1
	push	1
	imul	eax, DWORD PTR _iUserIndex$7[ebp], 60
	mov	ecx, DWORD PTR _this$[ebp]
	lea	edx, DWORD PTR [ecx+eax+136]
	push	edx
	mov	eax, DWORD PTR _iUserIndex$7[ebp]
	push	eax
	call	?DXUTGetGamepadState@@YAJKPAUDXUT_GAMEPAD@@_N1@Z ; DXUTGetGamepadState
	add	esp, 16					; 00000010H
; Line 457
	imul	ecx, DWORD PTR _iUserIndex$7[ebp], 60
	mov	edx, DWORD PTR _this$[ebp]
	movzx	eax, WORD PTR [edx+ecx+136]
	test	eax, eax
	jne	SHORT $LN6@GetInput
	imul	ecx, DWORD PTR _iUserIndex$7[ebp], 60
	mov	edx, DWORD PTR _this$[ebp]
	movsx	eax, WORD PTR [edx+ecx+140]
	test	eax, eax
	jne	SHORT $LN6@GetInput
	imul	ecx, DWORD PTR _iUserIndex$7[ebp], 60
	mov	edx, DWORD PTR _this$[ebp]
	movsx	eax, WORD PTR [edx+ecx+140]
	test	eax, eax
	jne	SHORT $LN6@GetInput
	imul	ecx, DWORD PTR _iUserIndex$7[ebp], 60
	mov	edx, DWORD PTR _this$[ebp]
	movsx	eax, WORD PTR [edx+ecx+144]
	test	eax, eax
	jne	SHORT $LN6@GetInput
	imul	ecx, DWORD PTR _iUserIndex$7[ebp], 60
	mov	edx, DWORD PTR _this$[ebp]
	movsx	eax, WORD PTR [edx+ecx+146]
	test	eax, eax
	jne	SHORT $LN6@GetInput
	imul	ecx, DWORD PTR _iUserIndex$7[ebp], 60
	mov	edx, DWORD PTR _this$[ebp]
	movzx	eax, BYTE PTR [edx+ecx+138]
	test	eax, eax
	jne	SHORT $LN6@GetInput
	imul	ecx, DWORD PTR _iUserIndex$7[ebp], 60
	mov	edx, DWORD PTR _this$[ebp]
	movzx	eax, BYTE PTR [edx+ecx+139]
	test	eax, eax
	je	SHORT $LN7@GetInput
$LN6@GetInput:
; Line 459
	call	?DXUTGetTime@@YGNXZ			; DXUTGetTime
	mov	ecx, DWORD PTR _iUserIndex$7[ebp]
	mov	edx, DWORD PTR _this$[ebp]
	fstp	QWORD PTR [edx+ecx*8+400]
$LN7@GetInput:
; Line 461
	jmp	$LN9@GetInput
$LN8@GetInput:
; Line 464
	mov	DWORD PTR _iMostRecentlyActive$6[ebp], -1
; Line 465
	movsd	xmm0, QWORD PTR __real@0000000000000000
	movsd	QWORD PTR _fMostRecentlyActiveTime$5[ebp], xmm0
; Line 466
	mov	DWORD PTR _iUserIndex$4[ebp], 0
	jmp	SHORT $LN5@GetInput
$LN4@GetInput:
	mov	eax, DWORD PTR _iUserIndex$4[ebp]
	add	eax, 1
	mov	DWORD PTR _iUserIndex$4[ebp], eax
$LN5@GetInput:
	cmp	DWORD PTR _iUserIndex$4[ebp], 4
	jae	SHORT $LN3@GetInput
; Line 468
	mov	ecx, DWORD PTR _iUserIndex$4[ebp]
	mov	edx, DWORD PTR _this$[ebp]
	movsd	xmm0, QWORD PTR [edx+ecx*8+400]
	comisd	xmm0, QWORD PTR _fMostRecentlyActiveTime$5[ebp]
	jbe	SHORT $LN2@GetInput
; Line 470
	mov	eax, DWORD PTR _iUserIndex$4[ebp]
	mov	ecx, DWORD PTR _this$[ebp]
	movsd	xmm0, QWORD PTR [ecx+eax*8+400]
	movsd	QWORD PTR _fMostRecentlyActiveTime$5[ebp], xmm0
; Line 471
	mov	edx, DWORD PTR _iUserIndex$4[ebp]
	mov	DWORD PTR _iMostRecentlyActive$6[ebp], edx
$LN2@GetInput:
; Line 473
	jmp	SHORT $LN4@GetInput
$LN3@GetInput:
; Line 476
	cmp	DWORD PTR _iMostRecentlyActive$6[ebp], 0
	jl	$LN1@GetInput
	imul	eax, DWORD PTR _iMostRecentlyActive$6[ebp], 60
	mov	ecx, DWORD PTR _this$[ebp]
	movzx	edx, BYTE PTR [ecx+eax+168]
	test	edx, edx
	je	$LN1@GetInput
; Line 478
	imul	eax, DWORD PTR _iMostRecentlyActive$6[ebp], 60
	mov	ecx, DWORD PTR _this$[ebp]
	mov	edx, DWORD PTR _this$[ebp]
	mov	eax, DWORD PTR [edx+eax+180]
	mov	DWORD PTR [ecx+376], eax
; Line 479
	mov	ecx, DWORD PTR _this$[ebp]
	movss	xmm0, DWORD PTR __real@00000000
	movss	DWORD PTR [ecx+380], xmm0
; Line 480
	imul	edx, DWORD PTR _iMostRecentlyActive$6[ebp], 60
	mov	eax, DWORD PTR _this$[ebp]
	mov	ecx, DWORD PTR _this$[ebp]
	mov	edx, DWORD PTR [ecx+edx+184]
	mov	DWORD PTR [eax+384], edx
; Line 482
	imul	eax, DWORD PTR _iMostRecentlyActive$6[ebp], 60
	mov	ecx, DWORD PTR _this$[ebp]
	mov	edx, DWORD PTR _this$[ebp]
	mov	eax, DWORD PTR [edx+eax+172]
	mov	DWORD PTR [ecx+388], eax
; Line 483
	mov	ecx, DWORD PTR _this$[ebp]
	movss	xmm0, DWORD PTR __real@00000000
	movss	DWORD PTR [ecx+392], xmm0
; Line 484
	imul	edx, DWORD PTR _iMostRecentlyActive$6[ebp], 60
	mov	eax, DWORD PTR _this$[ebp]
	mov	ecx, DWORD PTR _this$[ebp]
	mov	edx, DWORD PTR [ecx+edx+176]
	mov	DWORD PTR [eax+396], edx
$LN1@GetInput:
; Line 487
	pop	edi
	add	esp, 60					; 0000003cH
	cmp	ebp, esp
	call	__RTC_CheckEsp
	mov	esp, ebp
	pop	ebp
	ret	12					; 0000000cH
?GetInput@CBaseCamera@@IAEX_N00@Z ENDP			; CBaseCamera::GetInput
_TEXT	ENDS
; Function compile flags: /Odtp /RTCsu
_TEXT	SEGMENT
$T1 = -444						; size = 12
$T2 = -432						; size = 16
$T3 = -416						; size = 16
_vVelocityDrag$4 = -400					; size = 16
$T5 = -384						; size = 16
_vVelocity$6 = -352					; size = 16
$T7 = -320						; size = 16
$T8 = -304						; size = 16
$T9 = -288						; size = 16
$T10 = -272						; size = 16
_vAccel$ = -240						; size = 16
$T11 = -208						; size = 16
_vGamePadLeftThumb$ = -192				; size = 16
$T12 = -176						; size = 16
_vKeyboardDirection$ = -160				; size = 16
$T13 = -144						; size = 16
$T14 = -128						; size = 16
$T15 = -112						; size = 16
_vRotVelocity$ = -96					; size = 16
$T16 = -80						; size = 16
_vMouseDelta$ = -64					; size = 16
$T17 = -48						; size = 16
_vGamePadRightThumb$ = -32				; size = 16
_this$ = -4						; size = 4
_fElapsedTime$ = 8					; size = 4
?UpdateVelocity@CBaseCamera@@IAEXM@Z PROC		; CBaseCamera::UpdateVelocity
; _this$ = ecx
; File d:\engine class\assignment 1\scratch\dxsse\dxut\optional\dxutcamera.cpp
; Line 542
	push	ebx
	mov	ebx, esp
	sub	esp, 8
	and	esp, -16				; fffffff0H
	add	esp, 4
	push	ebp
	mov	ebp, DWORD PTR [ebx+4]
	mov	DWORD PTR [esp+4], ebp
	mov	ebp, esp
	sub	esp, 448				; 000001c0H
	push	edi
	push	ecx
	lea	edi, DWORD PTR [ebp-448]
	mov	ecx, 112				; 00000070H
	mov	eax, -858993460				; ccccccccH
	rep stosd
	pop	ecx
	mov	DWORD PTR _this$[ebp], ecx
; Line 543
	mov	eax, DWORD PTR _this$[ebp]
	movss	xmm1, DWORD PTR [eax+396]
	xorps	xmm1, DWORD PTR __xmm@80000000800000008000000080000000
	movss	xmm3, DWORD PTR __real@00000000
	movss	xmm2, DWORD PTR __real@00000000
	mov	ecx, DWORD PTR _this$[ebp]
	movss	xmm0, DWORD PTR [ecx+388]
	call	?XMVectorSet@DirectX@@YQ?AT__m128@@MMMM@Z ; DirectX::XMVectorSet
	movaps	XMMWORD PTR $T17[ebp], xmm0
	movaps	xmm0, XMMWORD PTR $T17[ebp]
	movaps	XMMWORD PTR _vGamePadRightThumb$[ebp], xmm0
; Line 545
	mov	ecx, DWORD PTR _this$[ebp]
	add	ecx, 472				; 000001d8H
	call	?XMLoadFloat2@DirectX@@YQ?AT__m128@@PBUXMFLOAT2@1@@Z ; DirectX::XMLoadFloat2
	movaps	XMMWORD PTR $T16[ebp], xmm0
	movaps	xmm0, XMMWORD PTR $T16[ebp]
	movaps	XMMWORD PTR _vMouseDelta$[ebp], xmm0
; Line 546
	movaps	xmm0, XMMWORD PTR _vGamePadRightThumb$[ebp]
	movss	xmm1, DWORD PTR __real@3ca3d70a
	call	??DDirectX@@YQ?AT__m128@@T1@M@Z		; DirectX::operator*
	movaps	XMMWORD PTR $T14[ebp], xmm0
	movaps	xmm0, XMMWORD PTR _vMouseDelta$[ebp]
	mov	edx, DWORD PTR _this$[ebp]
	movss	xmm1, DWORD PTR [edx+612]
	call	??DDirectX@@YQ?AT__m128@@T1@M@Z		; DirectX::operator*
	movaps	XMMWORD PTR $T15[ebp], xmm0
	movaps	xmm1, XMMWORD PTR $T14[ebp]
	movaps	xmm0, XMMWORD PTR $T15[ebp]
	call	??HDirectX@@YQ?AT__m128@@T1@0@Z		; DirectX::operator+
	movaps	XMMWORD PTR $T13[ebp], xmm0
	movaps	xmm0, XMMWORD PTR $T13[ebp]
	movaps	XMMWORD PTR _vRotVelocity$[ebp], xmm0
; Line 548
	movaps	xmm0, XMMWORD PTR _vRotVelocity$[ebp]
	mov	ecx, DWORD PTR _this$[ebp]
	add	ecx, 588				; 0000024cH
	call	?XMStoreFloat2@DirectX@@YQXPAUXMFLOAT2@1@T__m128@@@Z ; DirectX::XMStoreFloat2
; Line 550
	mov	ecx, DWORD PTR _this$[ebp]
	add	ecx, 444				; 000001bcH
	call	?XMLoadFloat3@DirectX@@YQ?AT__m128@@PBUXMFLOAT3@1@@Z ; DirectX::XMLoadFloat3
	movaps	XMMWORD PTR $T12[ebp], xmm0
	movaps	xmm0, XMMWORD PTR $T12[ebp]
	movaps	XMMWORD PTR _vKeyboardDirection$[ebp], xmm0
; Line 551
	mov	ecx, DWORD PTR _this$[ebp]
	add	ecx, 376				; 00000178H
	call	?XMLoadFloat3@DirectX@@YQ?AT__m128@@PBUXMFLOAT3@1@@Z ; DirectX::XMLoadFloat3
	movaps	XMMWORD PTR $T11[ebp], xmm0
	movaps	xmm0, XMMWORD PTR $T11[ebp]
	movaps	XMMWORD PTR _vGamePadLeftThumb$[ebp], xmm0
; Line 552
	movaps	xmm1, XMMWORD PTR _vGamePadLeftThumb$[ebp]
	movaps	xmm0, XMMWORD PTR _vKeyboardDirection$[ebp]
	call	??HDirectX@@YQ?AT__m128@@T1@0@Z		; DirectX::operator+
	movaps	XMMWORD PTR $T10[ebp], xmm0
	movaps	xmm0, XMMWORD PTR $T10[ebp]
	movaps	XMMWORD PTR _vAccel$[ebp], xmm0
; Line 556
	movaps	xmm0, XMMWORD PTR _vAccel$[ebp]
	call	?XMVector3Normalize@DirectX@@YQ?AT__m128@@T2@@Z ; DirectX::XMVector3Normalize
	movaps	XMMWORD PTR $T9[ebp], xmm0
	movaps	xmm0, XMMWORD PTR $T9[ebp]
	movaps	XMMWORD PTR _vAccel$[ebp], xmm0
; Line 559
	mov	eax, DWORD PTR _this$[ebp]
	push	ecx
	movss	xmm0, DWORD PTR [eax+616]
	movss	DWORD PTR [esp], xmm0
	lea	ecx, DWORD PTR _vAccel$[ebp]
	push	ecx
	call	??XDirectX@@YAAAT__m128@@AAT1@M@Z	; DirectX::operator*=
	add	esp, 8
; Line 561
	mov	edx, DWORD PTR _this$[ebp]
	movzx	eax, BYTE PTR [edx+623]
	test	eax, eax
	je	$LN6@UpdateVelo
; Line 564
	movaps	xmm0, XMMWORD PTR _vAccel$[ebp]
	call	?XMVector3LengthSq@DirectX@@YQ?AT__m128@@T2@@Z ; DirectX::XMVector3LengthSq
	movaps	XMMWORD PTR $T8[ebp], xmm0
	movaps	xmm0, XMMWORD PTR $T8[ebp]
	call	?XMVectorGetX@DirectX@@YQMT__m128@@@Z	; DirectX::XMVectorGetX
	comiss	xmm0, DWORD PTR __real@00000000
	jbe	SHORT $LN5@UpdateVelo
; Line 570
	movaps	xmm0, XMMWORD PTR _vAccel$[ebp]
	mov	ecx, DWORD PTR _this$[ebp]
	add	ecx, 556				; 0000022cH
	call	?XMStoreFloat3@DirectX@@YQXPAUXMFLOAT3@1@T__m128@@@Z ; DirectX::XMStoreFloat3
; Line 572
	mov	ecx, DWORD PTR _this$[ebp]
	mov	edx, DWORD PTR _this$[ebp]
	mov	eax, DWORD PTR [edx+584]
	mov	DWORD PTR [ecx+580], eax
; Line 574
	movaps	xmm0, XMMWORD PTR _vAccel$[ebp]
	mov	ecx, DWORD PTR _this$[ebp]
	movss	xmm1, DWORD PTR [ecx+580]
	call	??KDirectX@@YQ?AT__m128@@T1@M@Z		; DirectX::operator/
	movaps	XMMWORD PTR $T7[ebp], xmm0
	movaps	xmm0, XMMWORD PTR $T7[ebp]
	mov	ecx, DWORD PTR _this$[ebp]
	add	ecx, 568				; 00000238H
	call	?XMStoreFloat3@DirectX@@YQXPAUXMFLOAT3@1@T__m128@@@Z ; DirectX::XMStoreFloat3
; Line 576
	jmp	$LN2@UpdateVelo
$LN5@UpdateVelo:
; Line 579
	mov	edx, DWORD PTR _this$[ebp]
	movss	xmm0, DWORD PTR [edx+580]
	comiss	xmm0, DWORD PTR __real@00000000
	jbe	$LN3@UpdateVelo
; Line 582
	mov	ecx, DWORD PTR _this$[ebp]
	add	ecx, 556				; 0000022cH
	call	?XMLoadFloat3@DirectX@@YQ?AT__m128@@PBUXMFLOAT3@1@@Z ; DirectX::XMLoadFloat3
	movaps	XMMWORD PTR $T5[ebp], xmm0
	movaps	xmm0, XMMWORD PTR $T5[ebp]
	movaps	XMMWORD PTR _vVelocity$6[ebp], xmm0
; Line 583
	mov	ecx, DWORD PTR _this$[ebp]
	add	ecx, 568				; 00000238H
	call	?XMLoadFloat3@DirectX@@YQ?AT__m128@@PBUXMFLOAT3@1@@Z ; DirectX::XMLoadFloat3
	movaps	XMMWORD PTR $T3[ebp], xmm0
	movaps	xmm0, XMMWORD PTR $T3[ebp]
	movaps	XMMWORD PTR _vVelocityDrag$4[ebp], xmm0
; Line 585
	movaps	xmm0, XMMWORD PTR _vVelocityDrag$4[ebp]
	movss	xmm1, DWORD PTR _fElapsedTime$[ebx]
	call	??DDirectX@@YQ?AT__m128@@T1@M@Z		; DirectX::operator*
	movaps	XMMWORD PTR $T2[ebp], xmm0
	movaps	xmm0, XMMWORD PTR $T2[ebp]
	lea	ecx, DWORD PTR _vVelocity$6[ebp]
	call	??ZDirectX@@YQAAT__m128@@AAT1@T1@@Z	; DirectX::operator-=
; Line 587
	movaps	xmm0, XMMWORD PTR _vVelocity$6[ebp]
	mov	ecx, DWORD PTR _this$[ebp]
	add	ecx, 556				; 0000022cH
	call	?XMStoreFloat3@DirectX@@YQXPAUXMFLOAT3@1@T__m128@@@Z ; DirectX::XMStoreFloat3
; Line 589
	mov	eax, DWORD PTR _this$[ebp]
	movss	xmm0, DWORD PTR [eax+580]
	subss	xmm0, DWORD PTR _fElapsedTime$[ebx]
	mov	ecx, DWORD PTR _this$[ebp]
	movss	DWORD PTR [ecx+580], xmm0
; Line 591
	jmp	SHORT $LN2@UpdateVelo
$LN3@UpdateVelo:
; Line 594
	push	ecx
	movss	xmm0, DWORD PTR __real@00000000
	movss	DWORD PTR [esp], xmm0
	push	ecx
	movss	xmm0, DWORD PTR __real@00000000
	movss	DWORD PTR [esp], xmm0
	push	ecx
	movss	xmm0, DWORD PTR __real@00000000
	movss	DWORD PTR [esp], xmm0
	lea	ecx, DWORD PTR $T1[ebp]
	call	??0XMFLOAT3@DirectX@@QAE@MMM@Z		; DirectX::XMFLOAT3::XMFLOAT3
	push	eax
	mov	ecx, DWORD PTR _this$[ebp]
	add	ecx, 556				; 0000022cH
	call	??4XMFLOAT3@DirectX@@QAEAAU01@ABU01@@Z	; DirectX::XMFLOAT3::operator=
$LN2@UpdateVelo:
; Line 598
	jmp	SHORT $LN1@UpdateVelo
$LN6@UpdateVelo:
; Line 601
	movaps	xmm0, XMMWORD PTR _vAccel$[ebp]
	mov	ecx, DWORD PTR _this$[ebp]
	add	ecx, 556				; 0000022cH
	call	?XMStoreFloat3@DirectX@@YQXPAUXMFLOAT3@1@T__m128@@@Z ; DirectX::XMStoreFloat3
$LN1@UpdateVelo:
; Line 603
	push	edx
	mov	ecx, ebp
	push	eax
	lea	edx, DWORD PTR $LN12@UpdateVelo
	call	@_RTC_CheckStackVars@8
	pop	eax
	pop	edx
	pop	edi
	mov	esp, ebp
	pop	ebp
	mov	esp, ebx
	pop	ebx
	ret	4
	npad	2
$LN12@UpdateVelo:
	DD	2
	DD	$LN11@UpdateVelo
$LN11@UpdateVelo:
	DD	-240					; ffffff10H
	DD	16					; 00000010H
	DD	$LN9@UpdateVelo
	DD	-352					; fffffea0H
	DD	16					; 00000010H
	DD	$LN10@UpdateVelo
$LN10@UpdateVelo:
	DB	118					; 00000076H
	DB	86					; 00000056H
	DB	101					; 00000065H
	DB	108					; 0000006cH
	DB	111					; 0000006fH
	DB	99					; 00000063H
	DB	105					; 00000069H
	DB	116					; 00000074H
	DB	121					; 00000079H
	DB	0
$LN9@UpdateVelo:
	DB	118					; 00000076H
	DB	65					; 00000041H
	DB	99					; 00000063H
	DB	99					; 00000063H
	DB	101					; 00000065H
	DB	108					; 0000006cH
	DB	0
?UpdateVelocity@CBaseCamera@@IAEXM@Z ENDP		; CBaseCamera::UpdateVelocity
_TEXT	ENDS
; Function compile flags: /Odtp /RTCsu
_TEXT	SEGMENT
_fPercentOfOld$ = -112					; size = 4
_fPercentOfNew$ = -108					; size = 4
_mi$1 = -100						; size = 40
_ptCenter$2 = -52					; size = 8
_ptCurMouseDelta$ = -36					; size = 8
_ptCurMousePos$ = -20					; size = 8
_this$ = -8						; size = 4
__$ArrayPad$ = -4					; size = 4
?UpdateMouseDelta@CBaseCamera@@IAEXXZ PROC		; CBaseCamera::UpdateMouseDelta
; _this$ = ecx
; File d:\engine class\assignment 1\scratch\dxsse\dxut\optional\dxutcamera.cpp
; Line 494
	push	ebp
	mov	ebp, esp
	sub	esp, 112				; 00000070H
	push	esi
	push	edi
	push	ecx
	lea	edi, DWORD PTR [ebp-112]
	mov	ecx, 28					; 0000001cH
	mov	eax, -858993460				; ccccccccH
	rep stosd
	pop	ecx
	mov	eax, DWORD PTR ___security_cookie
	xor	eax, ebp
	mov	DWORD PTR __$ArrayPad$[ebp], eax
	mov	DWORD PTR _this$[ebp], ecx
; Line 497
	mov	esi, esp
	lea	eax, DWORD PTR _ptCurMousePos$[ebp]
	push	eax
	call	DWORD PTR __imp__GetCursorPos@4
	cmp	esi, esp
	call	__RTC_CheckEsp
; Line 501
	mov	ecx, DWORD PTR _this$[ebp]
	mov	edx, DWORD PTR _ptCurMousePos$[ebp]
	sub	edx, DWORD PTR [ecx+456]
	mov	DWORD PTR _ptCurMouseDelta$[ebp], edx
; Line 502
	mov	eax, DWORD PTR _this$[ebp]
	mov	ecx, DWORD PTR _ptCurMousePos$[ebp+4]
	sub	ecx, DWORD PTR [eax+460]
	mov	DWORD PTR _ptCurMouseDelta$[ebp+4], ecx
; Line 505
	mov	edx, DWORD PTR _this$[ebp]
	mov	eax, DWORD PTR _ptCurMousePos$[ebp]
	mov	DWORD PTR [edx+456], eax
	mov	ecx, DWORD PTR _ptCurMousePos$[ebp+4]
	mov	DWORD PTR [edx+460], ecx
; Line 507
	mov	edx, DWORD PTR _this$[ebp]
	movzx	eax, BYTE PTR [edx+628]
	test	eax, eax
	je	SHORT $LN1@UpdateMous
	call	?DXUTIsActive@@YG_NXZ			; DXUTIsActive
	movzx	ecx, al
	test	ecx, ecx
	je	SHORT $LN1@UpdateMous
; Line 518
	mov	DWORD PTR _mi$1[ebp], 40		; 00000028H
; Line 519
	lea	edx, DWORD PTR _mi$1[ebp]
	push	edx
	push	2
	call	?DXUTGetHWND@@YGPAUHWND__@@XZ		; DXUTGetHWND
	push	eax
	call	?DXUTMonitorFromWindow@@YGPAUHMONITOR__@@PAUHWND__@@K@Z ; DXUTMonitorFromWindow
	push	eax
	call	?DXUTGetMonitorInfo@@YGHPAUHMONITOR__@@PAUtagMONITORINFO@@@Z ; DXUTGetMonitorInfo
; Line 520
	mov	eax, DWORD PTR _mi$1[ebp+4]
	add	eax, DWORD PTR _mi$1[ebp+12]
	cdq
	sub	eax, edx
	sar	eax, 1
	mov	DWORD PTR _ptCenter$2[ebp], eax
; Line 521
	mov	eax, DWORD PTR _mi$1[ebp+8]
	add	eax, DWORD PTR _mi$1[ebp+16]
	cdq
	sub	eax, edx
	sar	eax, 1
	mov	DWORD PTR _ptCenter$2[ebp+4], eax
; Line 522
	mov	esi, esp
	mov	eax, DWORD PTR _ptCenter$2[ebp+4]
	push	eax
	mov	ecx, DWORD PTR _ptCenter$2[ebp]
	push	ecx
	call	DWORD PTR __imp__SetCursorPos@8
	cmp	esi, esp
	call	__RTC_CheckEsp
; Line 523
	mov	edx, DWORD PTR _this$[ebp]
	mov	eax, DWORD PTR _ptCenter$2[ebp]
	mov	DWORD PTR [edx+456], eax
	mov	ecx, DWORD PTR _ptCenter$2[ebp+4]
	mov	DWORD PTR [edx+460], ecx
$LN1@UpdateMous:
; Line 528
	mov	edx, DWORD PTR _this$[ebp]
	movss	xmm0, DWORD PTR __real@3f800000
	divss	xmm0, DWORD PTR [edx+480]
	movss	DWORD PTR _fPercentOfNew$[ebp], xmm0
; Line 529
	movss	xmm0, DWORD PTR __real@3f800000
	subss	xmm0, DWORD PTR _fPercentOfNew$[ebp]
	movss	DWORD PTR _fPercentOfOld$[ebp], xmm0
; Line 530
	mov	eax, DWORD PTR _this$[ebp]
	movss	xmm0, DWORD PTR [eax+472]
	mulss	xmm0, DWORD PTR _fPercentOfOld$[ebp]
	cvtsi2ss xmm1, DWORD PTR _ptCurMouseDelta$[ebp]
	mulss	xmm1, DWORD PTR _fPercentOfNew$[ebp]
	addss	xmm0, xmm1
	mov	ecx, DWORD PTR _this$[ebp]
	movss	DWORD PTR [ecx+472], xmm0
; Line 531
	mov	edx, DWORD PTR _this$[ebp]
	movss	xmm0, DWORD PTR [edx+476]
	mulss	xmm0, DWORD PTR _fPercentOfOld$[ebp]
	cvtsi2ss xmm1, DWORD PTR _ptCurMouseDelta$[ebp+4]
	mulss	xmm1, DWORD PTR _fPercentOfNew$[ebp]
	addss	xmm0, xmm1
	mov	eax, DWORD PTR _this$[ebp]
	movss	DWORD PTR [eax+476], xmm0
; Line 533
	mov	ecx, DWORD PTR _this$[ebp]
	mov	edx, DWORD PTR _this$[ebp]
	movss	xmm0, DWORD PTR [ecx+472]
	mulss	xmm0, DWORD PTR [edx+612]
	mov	eax, DWORD PTR _this$[ebp]
	movss	DWORD PTR [eax+588], xmm0
; Line 534
	mov	ecx, DWORD PTR _this$[ebp]
	mov	edx, DWORD PTR _this$[ebp]
	movss	xmm0, DWORD PTR [ecx+476]
	mulss	xmm0, DWORD PTR [edx+612]
	mov	eax, DWORD PTR _this$[ebp]
	movss	DWORD PTR [eax+592], xmm0
; Line 535
	push	edx
	mov	ecx, ebp
	push	eax
	lea	edx, DWORD PTR $LN9@UpdateMous
	call	@_RTC_CheckStackVars@8
	pop	eax
	pop	edx
	pop	edi
	pop	esi
	mov	ecx, DWORD PTR __$ArrayPad$[ebp]
	xor	ecx, ebp
	call	@__security_check_cookie@4
	add	esp, 112				; 00000070H
	cmp	ebp, esp
	call	__RTC_CheckEsp
	mov	esp, ebp
	pop	ebp
	ret	0
	npad	3
$LN9@UpdateMous:
	DD	4
	DD	$LN8@UpdateMous
$LN8@UpdateMous:
	DD	-20					; ffffffecH
	DD	8
	DD	$LN4@UpdateMous
	DD	-36					; ffffffdcH
	DD	8
	DD	$LN5@UpdateMous
	DD	-52					; ffffffccH
	DD	8
	DD	$LN6@UpdateMous
	DD	-100					; ffffff9cH
	DD	40					; 00000028H
	DD	$LN7@UpdateMous
$LN7@UpdateMous:
	DB	109					; 0000006dH
	DB	105					; 00000069H
	DB	0
$LN6@UpdateMous:
	DB	112					; 00000070H
	DB	116					; 00000074H
	DB	67					; 00000043H
	DB	101					; 00000065H
	DB	110					; 0000006eH
	DB	116					; 00000074H
	DB	101					; 00000065H
	DB	114					; 00000072H
	DB	0
$LN5@UpdateMous:
	DB	112					; 00000070H
	DB	116					; 00000074H
	DB	67					; 00000043H
	DB	117					; 00000075H
	DB	114					; 00000072H
	DB	77					; 0000004dH
	DB	111					; 0000006fH
	DB	117					; 00000075H
	DB	115					; 00000073H
	DB	101					; 00000065H
	DB	68					; 00000044H
	DB	101					; 00000065H
	DB	108					; 0000006cH
	DB	116					; 00000074H
	DB	97					; 00000061H
	DB	0
$LN4@UpdateMous:
	DB	112					; 00000070H
	DB	116					; 00000074H
	DB	67					; 00000043H
	DB	117					; 00000075H
	DB	114					; 00000072H
	DB	77					; 0000004dH
	DB	111					; 0000006fH
	DB	117					; 00000075H
	DB	115					; 00000073H
	DB	101					; 00000065H
	DB	80					; 00000050H
	DB	111					; 0000006fH
	DB	115					; 00000073H
	DB	0
?UpdateMouseDelta@CBaseCamera@@IAEXXZ ENDP		; CBaseCamera::UpdateMouseDelta
_TEXT	ENDS
; Function compile flags: /Odtp /RTCsu
;	COMDAT ?ConstrainToBoundary@CBaseCamera@@IAE?AT__m128@@T2@@Z
_TEXT	SEGMENT
$T1 = -112						; size = 16
$T2 = -96						; size = 16
_vMax$ = -80						; size = 16
$T3 = -64						; size = 16
_vMin$ = -48						; size = 16
_this$ = -20						; size = 4
_v$ = -16						; size = 16
___$ReturnUdt$ = 8					; size = 4
?ConstrainToBoundary@CBaseCamera@@IAE?AT__m128@@T2@@Z PROC ; CBaseCamera::ConstrainToBoundary, COMDAT
; _this$ = ecx
; _v$ = xmm0
; File d:\engine class\assignment 1\scratch\dxsse\dxut\optional\dxutcamera.h
; Line 202
	push	ebx
	mov	ebx, esp
	sub	esp, 8
	and	esp, -16				; fffffff0H
	add	esp, 4
	push	ebp
	mov	ebp, DWORD PTR [ebx+4]
	mov	DWORD PTR [esp+4], ebp
	mov	ebp, esp
	sub	esp, 112				; 00000070H
	push	edi
	push	ecx
	lea	edi, DWORD PTR [ebp-112]
	mov	ecx, 28					; 0000001cH
	mov	eax, -858993460				; ccccccccH
	rep stosd
	pop	ecx
	movaps	XMMWORD PTR _v$[ebp], xmm0
	mov	DWORD PTR _this$[ebp], ecx
; Line 205
	mov	ecx, DWORD PTR _this$[ebp]
	add	ecx, 632				; 00000278H
	call	?XMLoadFloat3@DirectX@@YQ?AT__m128@@PBUXMFLOAT3@1@@Z ; DirectX::XMLoadFloat3
	movaps	XMMWORD PTR $T3[ebp], xmm0
	movaps	xmm0, XMMWORD PTR $T3[ebp]
	movaps	XMMWORD PTR _vMin$[ebp], xmm0
; Line 206
	mov	ecx, DWORD PTR _this$[ebp]
	add	ecx, 644				; 00000284H
	call	?XMLoadFloat3@DirectX@@YQ?AT__m128@@PBUXMFLOAT3@1@@Z ; DirectX::XMLoadFloat3
	movaps	XMMWORD PTR $T2[ebp], xmm0
	movaps	xmm0, XMMWORD PTR $T2[ebp]
	movaps	XMMWORD PTR _vMax$[ebp], xmm0
; Line 209
	movaps	xmm2, XMMWORD PTR _vMax$[ebp]
	movaps	xmm1, XMMWORD PTR _vMin$[ebp]
	movaps	xmm0, XMMWORD PTR _v$[ebp]
	call	?XMVectorClamp@DirectX@@YQ?AT__m128@@T2@00@Z ; DirectX::XMVectorClamp
	movaps	XMMWORD PTR $T1[ebp], xmm0
	mov	eax, DWORD PTR ___$ReturnUdt$[ebx]
	movups	xmm0, XMMWORD PTR $T1[ebp]
	movups	XMMWORD PTR [eax], xmm0
	mov	eax, DWORD PTR ___$ReturnUdt$[ebx]
; Line 210
	pop	edi
	mov	esp, ebp
	pop	ebp
	mov	esp, ebx
	pop	ebx
	ret	4
?ConstrainToBoundary@CBaseCamera@@IAE?AT__m128@@T2@@Z ENDP ; CBaseCamera::ConstrainToBoundary
_TEXT	ENDS
; Function compile flags: /Odtp /RTCsu
;	COMDAT ?IsKeyDown@CBaseCamera@@IBE_NE@Z
_TEXT	SEGMENT
tv67 = -8						; size = 4
_this$ = -4						; size = 4
_key$ = 8						; size = 1
?IsKeyDown@CBaseCamera@@IBE_NE@Z PROC			; CBaseCamera::IsKeyDown, COMDAT
; _this$ = ecx
; File d:\engine class\assignment 1\scratch\dxsse\dxut\optional\dxutcamera.h
; Line 198
	push	ebp
	mov	ebp, esp
	sub	esp, 8
	mov	DWORD PTR [ebp-8], -858993460		; ccccccccH
	mov	DWORD PTR [ebp-4], -858993460		; ccccccccH
	mov	DWORD PTR _this$[ebp], ecx
	movzx	eax, BYTE PTR _key$[ebp]
	and	eax, 1
	je	SHORT $LN3@IsKeyDown
	mov	DWORD PTR tv67[ebp], 1
	jmp	SHORT $LN4@IsKeyDown
$LN3@IsKeyDown:
	mov	DWORD PTR tv67[ebp], 0
$LN4@IsKeyDown:
	mov	al, BYTE PTR tv67[ebp]
	mov	esp, ebp
	pop	ebp
	ret	4
?IsKeyDown@CBaseCamera@@IBE_NE@Z ENDP			; CBaseCamera::IsKeyDown
_TEXT	ENDS
; Function compile flags: /Odtp /RTCsu
_TEXT	SEGMENT
tv64 = -8						; size = 4
_this$ = -4						; size = 4
_nKey$ = 8						; size = 4
?MapKey@CBaseCamera@@MAE?AW4D3DUtil_CameraKeys@@I@Z PROC ; CBaseCamera::MapKey
; _this$ = ecx
; File d:\engine class\assignment 1\scratch\dxsse\dxut\optional\dxutcamera.cpp
; Line 610
	push	ebp
	mov	ebp, esp
	sub	esp, 8
	mov	DWORD PTR [ebp-8], -858993460		; ccccccccH
	mov	DWORD PTR [ebp-4], -858993460		; ccccccccH
	mov	DWORD PTR _this$[ebp], ecx
; Line 613
	mov	eax, DWORD PTR _nKey$[ebp]
	mov	DWORD PTR tv64[ebp], eax
	mov	ecx, DWORD PTR tv64[ebp]
	sub	ecx, 17					; 00000011H
	mov	DWORD PTR tv64[ebp], ecx
	cmp	DWORD PTR tv64[ebp], 88			; 00000058H
	ja	$LN21@MapKey
	mov	edx, DWORD PTR tv64[ebp]
	movzx	eax, BYTE PTR $LN25@MapKey[edx]
	jmp	DWORD PTR $LN26@MapKey[eax*4]
$LN20@MapKey:
; Line 616
	mov	eax, 7
	jmp	$LN23@MapKey
$LN19@MapKey:
; Line 618
	xor	eax, eax
	jmp	SHORT $LN23@MapKey
$LN18@MapKey:
; Line 620
	mov	eax, 1
	jmp	SHORT $LN23@MapKey
$LN17@MapKey:
; Line 622
	mov	eax, 2
	jmp	SHORT $LN23@MapKey
$LN16@MapKey:
; Line 624
	mov	eax, 3
	jmp	SHORT $LN23@MapKey
$LN15@MapKey:
; Line 626
	mov	eax, 4
	jmp	SHORT $LN23@MapKey
$LN14@MapKey:
; Line 628
	mov	eax, 5
	jmp	SHORT $LN23@MapKey
$LN13@MapKey:
; Line 631
	xor	eax, eax
	jmp	SHORT $LN23@MapKey
$LN12@MapKey:
; Line 633
	mov	eax, 1
	jmp	SHORT $LN23@MapKey
$LN11@MapKey:
; Line 635
	mov	eax, 2
	jmp	SHORT $LN23@MapKey
$LN10@MapKey:
; Line 637
	mov	eax, 3
	jmp	SHORT $LN23@MapKey
$LN9@MapKey:
; Line 639
	mov	eax, 5
	jmp	SHORT $LN23@MapKey
$LN8@MapKey:
; Line 641
	mov	eax, 4
	jmp	SHORT $LN23@MapKey
$LN7@MapKey:
; Line 644
	xor	eax, eax
	jmp	SHORT $LN23@MapKey
$LN6@MapKey:
; Line 646
	mov	eax, 1
	jmp	SHORT $LN23@MapKey
$LN5@MapKey:
; Line 648
	mov	eax, 2
	jmp	SHORT $LN23@MapKey
$LN4@MapKey:
; Line 650
	mov	eax, 3
	jmp	SHORT $LN23@MapKey
$LN3@MapKey:
; Line 652
	mov	eax, 4
	jmp	SHORT $LN23@MapKey
$LN2@MapKey:
; Line 654
	mov	eax, 5
	jmp	SHORT $LN23@MapKey
$LN1@MapKey:
; Line 657
	mov	eax, 6
	jmp	SHORT $LN23@MapKey
$LN21@MapKey:
; Line 660
	mov	eax, 255				; 000000ffH
$LN23@MapKey:
; Line 661
	mov	esp, ebp
	pop	ebp
	ret	4
	npad	2
$LN26@MapKey:
	DD	$LN20@MapKey
	DD	$LN15@MapKey
	DD	$LN14@MapKey
	DD	$LN1@MapKey
	DD	$LN19@MapKey
	DD	$LN17@MapKey
	DD	$LN18@MapKey
	DD	$LN16@MapKey
	DD	$LN13@MapKey
	DD	$LN12@MapKey
	DD	$LN8@MapKey
	DD	$LN9@MapKey
	DD	$LN10@MapKey
	DD	$LN11@MapKey
	DD	$LN4@MapKey
	DD	$LN2@MapKey
	DD	$LN7@MapKey
	DD	$LN6@MapKey
	DD	$LN5@MapKey
	DD	$LN3@MapKey
	DD	$LN21@MapKey
$LN25@MapKey:
	DB	0
	DB	20					; 00000014H
	DB	20					; 00000014H
	DB	20					; 00000014H
	DB	20					; 00000014H
	DB	20					; 00000014H
	DB	20					; 00000014H
	DB	20					; 00000014H
	DB	20					; 00000014H
	DB	20					; 00000014H
	DB	20					; 00000014H
	DB	20					; 00000014H
	DB	20					; 00000014H
	DB	20					; 00000014H
	DB	20					; 00000014H
	DB	20					; 00000014H
	DB	1
	DB	2
	DB	20					; 00000014H
	DB	3
	DB	4
	DB	5
	DB	6
	DB	7
	DB	20					; 00000014H
	DB	20					; 00000014H
	DB	20					; 00000014H
	DB	20					; 00000014H
	DB	20					; 00000014H
	DB	20					; 00000014H
	DB	20					; 00000014H
	DB	20					; 00000014H
	DB	20					; 00000014H
	DB	20					; 00000014H
	DB	20					; 00000014H
	DB	20					; 00000014H
	DB	20					; 00000014H
	DB	20					; 00000014H
	DB	20					; 00000014H
	DB	20					; 00000014H
	DB	20					; 00000014H
	DB	20					; 00000014H
	DB	20					; 00000014H
	DB	20					; 00000014H
	DB	20					; 00000014H
	DB	20					; 00000014H
	DB	20					; 00000014H
	DB	20					; 00000014H
	DB	8
	DB	20					; 00000014H
	DB	20					; 00000014H
	DB	9
	DB	10					; 0000000aH
	DB	20					; 00000014H
	DB	20					; 00000014H
	DB	20					; 00000014H
	DB	20					; 00000014H
	DB	20					; 00000014H
	DB	20					; 00000014H
	DB	20					; 00000014H
	DB	20					; 00000014H
	DB	20					; 00000014H
	DB	20					; 00000014H
	DB	20					; 00000014H
	DB	11					; 0000000bH
	DB	20					; 00000014H
	DB	12					; 0000000cH
	DB	20					; 00000014H
	DB	20					; 00000014H
	DB	20					; 00000014H
	DB	13					; 0000000dH
	DB	20					; 00000014H
	DB	20					; 00000014H
	DB	20					; 00000014H
	DB	20					; 00000014H
	DB	20					; 00000014H
	DB	20					; 00000014H
	DB	20					; 00000014H
	DB	20					; 00000014H
	DB	20					; 00000014H
	DB	20					; 00000014H
	DB	14					; 0000000eH
	DB	15					; 0000000fH
	DB	16					; 00000010H
	DB	20					; 00000014H
	DB	17					; 00000011H
	DB	20					; 00000014H
	DB	18					; 00000012H
	DB	19					; 00000013H
?MapKey@CBaseCamera@@MAE?AW4D3DUtil_CameraKeys@@I@Z ENDP ; CBaseCamera::MapKey
_TEXT	ENDS
; Function compile flags: /Odtp /RTCsu
;	COMDAT ?SetDragRect@CBaseCamera@@UAEXABUtagRECT@@@Z
_TEXT	SEGMENT
_this$ = -4						; size = 4
_rc$ = 8						; size = 4
?SetDragRect@CBaseCamera@@UAEXABUtagRECT@@@Z PROC	; CBaseCamera::SetDragRect, COMDAT
; _this$ = ecx
; File d:\engine class\assignment 1\scratch\dxsse\dxut\optional\dxutcamera.h
; Line 158
	push	ebp
	mov	ebp, esp
	push	ecx
	mov	DWORD PTR [ebp-4], -858993460		; ccccccccH
	mov	DWORD PTR _this$[ebp], ecx
	mov	eax, DWORD PTR _this$[ebp]
	add	eax, 540				; 0000021cH
	mov	ecx, DWORD PTR _rc$[ebp]
	mov	edx, DWORD PTR [ecx]
	mov	DWORD PTR [eax], edx
	mov	edx, DWORD PTR [ecx+4]
	mov	DWORD PTR [eax+4], edx
	mov	edx, DWORD PTR [ecx+8]
	mov	DWORD PTR [eax+8], edx
	mov	ecx, DWORD PTR [ecx+12]
	mov	DWORD PTR [eax+12], ecx
	mov	esp, ebp
	pop	ebp
	ret	4
?SetDragRect@CBaseCamera@@UAEXABUtagRECT@@@Z ENDP	; CBaseCamera::SetDragRect
_TEXT	ENDS
; Function compile flags: /Odtp /RTCsu
_TEXT	SEGMENT
$T1 = -224						; size = 64
$T2 = -160						; size = 64
_mProj$ = -80						; size = 64
_this$ = -8						; size = 4
__$ArrayPad$ = -4					; size = 4
_fFOV$ = 8						; size = 4
_fAspect$ = 12						; size = 4
_fNearPlane$ = 16					; size = 4
_fFarPlane$ = 20					; size = 4
?SetProjParams@CBaseCamera@@UAEXMMMM@Z PROC		; CBaseCamera::SetProjParams
; _this$ = ecx
; File d:\engine class\assignment 1\scratch\dxsse\dxut\optional\dxutcamera.cpp
; Line 265
	push	ebx
	mov	ebx, esp
	sub	esp, 8
	and	esp, -16				; fffffff0H
	add	esp, 4
	push	ebp
	mov	ebp, DWORD PTR [ebx+4]
	mov	DWORD PTR [esp+4], ebp
	mov	ebp, esp
	sub	esp, 232				; 000000e8H
	push	esi
	push	edi
	push	ecx
	lea	edi, DWORD PTR [ebp-232]
	mov	ecx, 58					; 0000003aH
	mov	eax, -858993460				; ccccccccH
	rep stosd
	pop	ecx
	mov	eax, DWORD PTR ___security_cookie
	xor	eax, ebp
	mov	DWORD PTR __$ArrayPad$[ebp], eax
	mov	DWORD PTR _this$[ebp], ecx
; Line 267
	mov	eax, DWORD PTR _this$[ebp]
	movss	xmm0, DWORD PTR _fFOV$[ebx]
	movss	DWORD PTR [eax+596], xmm0
; Line 268
	mov	ecx, DWORD PTR _this$[ebp]
	movss	xmm0, DWORD PTR _fAspect$[ebx]
	movss	DWORD PTR [ecx+600], xmm0
; Line 269
	mov	edx, DWORD PTR _this$[ebp]
	movss	xmm0, DWORD PTR _fNearPlane$[ebx]
	movss	DWORD PTR [edx+604], xmm0
; Line 270
	mov	eax, DWORD PTR _this$[ebp]
	movss	xmm0, DWORD PTR _fFarPlane$[ebx]
	movss	DWORD PTR [eax+608], xmm0
; Line 272
	movss	xmm3, DWORD PTR _fFarPlane$[ebx]
	movss	xmm2, DWORD PTR _fNearPlane$[ebx]
	movss	xmm1, DWORD PTR _fAspect$[ebx]
	movss	xmm0, DWORD PTR _fFOV$[ebx]
	call	?XMMatrixPerspectiveFovLH@DirectX@@YQ?AUXMMATRIX@1@MMMM@Z ; DirectX::XMMatrixPerspectiveFovLH
	movaps	XMMWORD PTR $T1[ebp+48], xmm3
	movaps	XMMWORD PTR $T1[ebp+32], xmm2
	movaps	XMMWORD PTR $T1[ebp+16], xmm1
	movaps	XMMWORD PTR $T1[ebp], xmm0
	mov	ecx, 16					; 00000010H
	lea	esi, DWORD PTR $T1[ebp]
	lea	edi, DWORD PTR $T2[ebp]
	rep movsd
	mov	ecx, 16					; 00000010H
	lea	esi, DWORD PTR $T2[ebp]
	lea	edi, DWORD PTR _mProj$[ebp]
	rep movsd
; Line 273
	mov	ecx, DWORD PTR _this$[ebp]
	add	ecx, 72					; 00000048H
	movaps	xmm0, XMMWORD PTR _mProj$[ebp]
	movaps	xmm1, XMMWORD PTR _mProj$[ebp+16]
	movaps	xmm2, XMMWORD PTR _mProj$[ebp+32]
	movaps	xmm3, XMMWORD PTR _mProj$[ebp+48]
	call	?XMStoreFloat4x4@DirectX@@YQXPAUXMFLOAT4X4@1@UXMMATRIX@1@@Z ; DirectX::XMStoreFloat4x4
; Line 274
	push	edx
	mov	ecx, ebp
	push	eax
	lea	edx, DWORD PTR $LN5@SetProjPar
	call	@_RTC_CheckStackVars@8
	pop	eax
	pop	edx
	pop	edi
	pop	esi
	mov	ecx, DWORD PTR __$ArrayPad$[ebp]
	xor	ecx, ebp
	call	@__security_check_cookie@4
	mov	esp, ebp
	pop	ebp
	mov	esp, ebx
	pop	ebx
	ret	16					; 00000010H
$LN5@SetProjPar:
	DD	1
	DD	$LN4@SetProjPar
$LN4@SetProjPar:
	DD	-80					; ffffffb0H
	DD	64					; 00000040H
	DD	$LN3@SetProjPar
$LN3@SetProjPar:
	DB	109					; 0000006dH
	DB	80					; 00000050H
	DB	114					; 00000072H
	DB	111					; 0000006fH
	DB	106					; 0000006aH
	DB	0
?SetProjParams@CBaseCamera@@UAEXMMMM@Z ENDP		; CBaseCamera::SetProjParams
_TEXT	ENDS
; Function compile flags: /Odtp /RTCsu
_TEXT	SEGMENT
tv203 = -548						; size = 4
$T1 = -544						; size = 64
$T2 = -480						; size = 64
_fLen$ = -408						; size = 4
_zBasis$ = -400						; size = 12
$T3 = -384						; size = 64
_mInvView$ = -304					; size = 64
$T4 = -224						; size = 64
$T5 = -160						; size = 16
_mView$ = -128						; size = 64
_this$ = -52						; size = 4
_vLookatPt$ = -48					; size = 16
_vEyePt$ = -32						; size = 16
__$ArrayPad$ = -4					; size = 4
?SetViewParams@CBaseCamera@@UAEXT__m128@@0@Z PROC	; CBaseCamera::SetViewParams
; _this$ = ecx
; _vEyePt$ = xmm0
; _vLookatPt$ = xmm1
; File d:\engine class\assignment 1\scratch\dxsse\dxut\optional\dxutcamera.cpp
; Line 235
	push	ebx
	mov	ebx, esp
	sub	esp, 8
	and	esp, -16				; fffffff0H
	add	esp, 4
	push	ebp
	mov	ebp, DWORD PTR [ebx+4]
	mov	DWORD PTR [esp+4], ebp
	mov	ebp, esp
	sub	esp, 552				; 00000228H
	push	esi
	push	edi
	push	ecx
	lea	edi, DWORD PTR [ebp-552]
	mov	ecx, 138				; 0000008aH
	mov	eax, -858993460				; ccccccccH
	rep stosd
	pop	ecx
	mov	eax, DWORD PTR ___security_cookie
	xor	eax, ebp
	mov	DWORD PTR __$ArrayPad$[ebp], eax
	movaps	XMMWORD PTR _vLookatPt$[ebp], xmm1
	movaps	XMMWORD PTR _vEyePt$[ebp], xmm0
	mov	DWORD PTR _this$[ebp], ecx
; Line 236
	movaps	xmm0, XMMWORD PTR _vEyePt$[ebp]
	mov	ecx, DWORD PTR _this$[ebp]
	add	ecx, 508				; 000001fcH
	call	?XMStoreFloat3@DirectX@@YQXPAUXMFLOAT3@1@T__m128@@@Z ; DirectX::XMStoreFloat3
; Line 237
	movaps	xmm0, XMMWORD PTR _vEyePt$[ebp]
	mov	ecx, DWORD PTR _this$[ebp]
	add	ecx, 484				; 000001e4H
	call	?XMStoreFloat3@DirectX@@YQXPAUXMFLOAT3@1@T__m128@@@Z ; DirectX::XMStoreFloat3
; Line 239
	movaps	xmm0, XMMWORD PTR _vLookatPt$[ebp]
	mov	ecx, DWORD PTR _this$[ebp]
	add	ecx, 520				; 00000208H
	call	?XMStoreFloat3@DirectX@@YQXPAUXMFLOAT3@1@T__m128@@@Z ; DirectX::XMStoreFloat3
; Line 240
	movaps	xmm0, XMMWORD PTR _vLookatPt$[ebp]
	mov	ecx, DWORD PTR _this$[ebp]
	add	ecx, 496				; 000001f0H
	call	?XMStoreFloat3@DirectX@@YQXPAUXMFLOAT3@1@T__m128@@@Z ; DirectX::XMStoreFloat3
; Line 243
	lea	eax, DWORD PTR $T5[ebp]
	push	eax
	mov	ecx, OFFSET ?g_XMIdentityR1@DirectX@@3UXMVECTORF32@1@B ; DirectX::g_XMIdentityR1
	call	??BXMVECTORF32@DirectX@@QBE?AT__m128@@XZ ; DirectX::XMVECTORF32::operator __m128
	movups	xmm2, XMMWORD PTR [eax]
	movaps	xmm1, XMMWORD PTR _vLookatPt$[ebp]
	movaps	xmm0, XMMWORD PTR _vEyePt$[ebp]
	call	?XMMatrixLookAtLH@DirectX@@YQ?AUXMMATRIX@1@T__m128@@00@Z ; DirectX::XMMatrixLookAtLH
	movaps	XMMWORD PTR $T2[ebp+48], xmm3
	movaps	XMMWORD PTR $T2[ebp+32], xmm2
	movaps	XMMWORD PTR $T2[ebp+16], xmm1
	movaps	XMMWORD PTR $T2[ebp], xmm0
	mov	ecx, 16					; 00000010H
	lea	esi, DWORD PTR $T2[ebp]
	lea	edi, DWORD PTR $T4[ebp]
	rep movsd
	mov	ecx, 16					; 00000010H
	lea	esi, DWORD PTR $T4[ebp]
	lea	edi, DWORD PTR _mView$[ebp]
	rep movsd
; Line 244
	mov	ecx, DWORD PTR _this$[ebp]
	add	ecx, 8
	movaps	xmm0, XMMWORD PTR _mView$[ebp]
	movaps	xmm1, XMMWORD PTR _mView$[ebp+16]
	movaps	xmm2, XMMWORD PTR _mView$[ebp+32]
	movaps	xmm3, XMMWORD PTR _mView$[ebp+48]
	call	?XMStoreFloat4x4@DirectX@@YQXPAUXMFLOAT4X4@1@UXMMATRIX@1@@Z ; DirectX::XMStoreFloat4x4
; Line 246
	xor	ecx, ecx
	movaps	xmm0, XMMWORD PTR _mView$[ebp]
	movaps	xmm1, XMMWORD PTR _mView$[ebp+16]
	movaps	xmm2, XMMWORD PTR _mView$[ebp+32]
	movaps	xmm3, XMMWORD PTR _mView$[ebp+48]
	call	?XMMatrixInverse@DirectX@@YQ?AUXMMATRIX@1@PAT__m128@@U21@@Z ; DirectX::XMMatrixInverse
	movaps	XMMWORD PTR $T1[ebp+48], xmm3
	movaps	XMMWORD PTR $T1[ebp+32], xmm2
	movaps	XMMWORD PTR $T1[ebp+16], xmm1
	movaps	XMMWORD PTR $T1[ebp], xmm0
	mov	ecx, 16					; 00000010H
	lea	esi, DWORD PTR $T1[ebp]
	lea	edi, DWORD PTR $T3[ebp]
	rep movsd
	mov	ecx, 16					; 00000010H
	lea	esi, DWORD PTR $T3[ebp]
	lea	edi, DWORD PTR _mInvView$[ebp]
	rep movsd
; Line 251
	lea	ecx, DWORD PTR _zBasis$[ebp]
	call	??0XMFLOAT3@DirectX@@QAE@XZ		; DirectX::XMFLOAT3::XMFLOAT3
; Line 252
	mov	ecx, 16					; 00000010H
	shl	ecx, 1
	movups	xmm0, XMMWORD PTR _mInvView$[ebp+ecx]
	lea	ecx, DWORD PTR _zBasis$[ebp]
	call	?XMStoreFloat3@DirectX@@YQXPAUXMFLOAT3@1@T__m128@@@Z ; DirectX::XMStoreFloat3
; Line 254
	push	ecx
	movss	xmm0, DWORD PTR _zBasis$[ebp+8]
	movss	DWORD PTR [esp], xmm0
	push	ecx
	movss	xmm0, DWORD PTR _zBasis$[ebp]
	movss	DWORD PTR [esp], xmm0
	call	_atan2f
	add	esp, 8
	mov	edx, DWORD PTR _this$[ebp]
	fstp	DWORD PTR [edx+532]
; Line 255
	movss	xmm0, DWORD PTR _zBasis$[ebp+8]
	mulss	xmm0, DWORD PTR _zBasis$[ebp+8]
	movss	xmm1, DWORD PTR _zBasis$[ebp]
	mulss	xmm1, DWORD PTR _zBasis$[ebp]
	addss	xmm0, xmm1
	push	ecx
	movss	DWORD PTR [esp], xmm0
	call	_sqrtf
	add	esp, 4
	fstp	DWORD PTR _fLen$[ebp]
; Line 256
	push	ecx
	movss	xmm0, DWORD PTR _fLen$[ebp]
	movss	DWORD PTR [esp], xmm0
	push	ecx
	movss	xmm0, DWORD PTR _zBasis$[ebp+4]
	movss	DWORD PTR [esp], xmm0
	call	_atan2f
	add	esp, 8
	fstp	DWORD PTR tv203[ebp]
	movss	xmm0, DWORD PTR tv203[ebp]
	xorps	xmm0, DWORD PTR __xmm@80000000800000008000000080000000
	mov	eax, DWORD PTR _this$[ebp]
	movss	DWORD PTR [eax+536], xmm0
; Line 257
	push	edx
	mov	ecx, ebp
	push	eax
	lea	edx, DWORD PTR $LN7@SetViewPar
	call	@_RTC_CheckStackVars@8
	pop	eax
	pop	edx
	pop	edi
	pop	esi
	mov	ecx, DWORD PTR __$ArrayPad$[ebp]
	xor	ecx, ebp
	call	@__security_check_cookie@4
	mov	esp, ebp
	pop	ebp
	mov	esp, ebx
	pop	ebx
	ret	0
	npad	3
$LN7@SetViewPar:
	DD	3
	DD	$LN6@SetViewPar
$LN6@SetViewPar:
	DD	-128					; ffffff80H
	DD	64					; 00000040H
	DD	$LN3@SetViewPar
	DD	-304					; fffffed0H
	DD	64					; 00000040H
	DD	$LN4@SetViewPar
	DD	-400					; fffffe70H
	DD	12					; 0000000cH
	DD	$LN5@SetViewPar
$LN5@SetViewPar:
	DB	122					; 0000007aH
	DB	66					; 00000042H
	DB	97					; 00000061H
	DB	115					; 00000073H
	DB	105					; 00000069H
	DB	115					; 00000073H
	DB	0
$LN4@SetViewPar:
	DB	109					; 0000006dH
	DB	73					; 00000049H
	DB	110					; 0000006eH
	DB	118					; 00000076H
	DB	86					; 00000056H
	DB	105					; 00000069H
	DB	101					; 00000065H
	DB	119					; 00000077H
	DB	0
$LN3@SetViewPar:
	DB	109					; 0000006dH
	DB	86					; 00000056H
	DB	105					; 00000069H
	DB	101					; 00000065H
	DB	119					; 00000077H
	DB	0
?SetViewParams@CBaseCamera@@UAEXT__m128@@0@Z ENDP	; CBaseCamera::SetViewParams
_TEXT	ENDS
; Function compile flags: /Odtp /RTCsu
_TEXT	SEGMENT
$T1 = -80						; size = 16
_vDefaultLookAt$ = -64					; size = 16
$T2 = -48						; size = 16
_vDefaultEye$ = -32					; size = 16
_this$ = -4						; size = 4
?Reset@CBaseCamera@@UAEXXZ PROC				; CBaseCamera::Reset
; _this$ = ecx
; File d:\engine class\assignment 1\scratch\dxsse\dxut\optional\dxutcamera.cpp
; Line 668
	push	ebx
	mov	ebx, esp
	sub	esp, 8
	and	esp, -16				; fffffff0H
	add	esp, 4
	push	ebp
	mov	ebp, DWORD PTR [ebx+4]
	mov	DWORD PTR [esp+4], ebp
	mov	ebp, esp
	sub	esp, 92					; 0000005cH
	push	esi
	push	edi
	push	ecx
	lea	edi, DWORD PTR [ebp-92]
	mov	ecx, 23					; 00000017H
	mov	eax, -858993460				; ccccccccH
	rep stosd
	pop	ecx
	mov	DWORD PTR _this$[ebp], ecx
; Line 669
	mov	ecx, DWORD PTR _this$[ebp]
	add	ecx, 484				; 000001e4H
	call	?XMLoadFloat3@DirectX@@YQ?AT__m128@@PBUXMFLOAT3@1@@Z ; DirectX::XMLoadFloat3
	movaps	XMMWORD PTR $T2[ebp], xmm0
	movaps	xmm0, XMMWORD PTR $T2[ebp]
	movaps	XMMWORD PTR _vDefaultEye$[ebp], xmm0
; Line 670
	mov	ecx, DWORD PTR _this$[ebp]
	add	ecx, 496				; 000001f0H
	call	?XMLoadFloat3@DirectX@@YQ?AT__m128@@PBUXMFLOAT3@1@@Z ; DirectX::XMLoadFloat3
	movaps	XMMWORD PTR $T1[ebp], xmm0
	movaps	xmm0, XMMWORD PTR $T1[ebp]
	movaps	XMMWORD PTR _vDefaultLookAt$[ebp], xmm0
; Line 672
	mov	esi, esp
	movaps	xmm1, XMMWORD PTR _vDefaultLookAt$[ebp]
	movaps	xmm0, XMMWORD PTR _vDefaultEye$[ebp]
	mov	eax, DWORD PTR _this$[ebp]
	mov	edx, DWORD PTR [eax]
	mov	ecx, DWORD PTR _this$[ebp]
	mov	eax, DWORD PTR [edx+12]
	call	eax
	cmp	esi, esp
	call	__RTC_CheckEsp
; Line 673
	pop	edi
	pop	esi
	mov	esp, ebp
	pop	ebp
	mov	esp, ebx
	pop	ebx
	ret	0
?Reset@CBaseCamera@@UAEXXZ ENDP				; CBaseCamera::Reset
_TEXT	ENDS
; Function compile flags: /Odtp /RTCsu
_TEXT	SEGMENT
tv64 = -32						; size = 4
_ptCursor$1 = -24					; size = 8
_mappedKey$2 = -12					; size = 4
_mappedKey$3 = -8					; size = 4
_this$ = -4						; size = 4
_hWnd$ = 8						; size = 4
_uMsg$ = 12						; size = 4
_wParam$ = 16						; size = 4
_lParam$ = 20						; size = 4
?HandleMessages@CBaseCamera@@UAEJPAUHWND__@@IIJ@Z PROC	; CBaseCamera::HandleMessages
; _this$ = ecx
; File d:\engine class\assignment 1\scratch\dxsse\dxut\optional\dxutcamera.cpp
; Line 282
	push	ebp
	mov	ebp, esp
	sub	esp, 32					; 00000020H
	push	esi
	mov	eax, -858993460				; ccccccccH
	mov	DWORD PTR [ebp-32], eax
	mov	DWORD PTR [ebp-28], eax
	mov	DWORD PTR [ebp-24], eax
	mov	DWORD PTR [ebp-20], eax
	mov	DWORD PTR [ebp-16], eax
	mov	DWORD PTR [ebp-12], eax
	mov	DWORD PTR [ebp-8], eax
	mov	DWORD PTR [ebp-4], eax
	mov	DWORD PTR _this$[ebp], ecx
; Line 286
	mov	eax, DWORD PTR _uMsg$[ebp]
	mov	DWORD PTR tv64[ebp], eax
	cmp	DWORD PTR tv64[ebp], 513		; 00000201H
	ja	SHORT $LN27@HandleMess
	cmp	DWORD PTR tv64[ebp], 513		; 00000201H
	je	$LN17@HandleMess
	cmp	DWORD PTR tv64[ebp], 256		; 00000100H
	je	SHORT $LN22@HandleMess
	cmp	DWORD PTR tv64[ebp], 257		; 00000101H
	je	$LN19@HandleMess
	jmp	$LN23@HandleMess
$LN27@HandleMess:
	mov	ecx, DWORD PTR tv64[ebp]
	sub	ecx, 514				; 00000202H
	mov	DWORD PTR tv64[ebp], ecx
	cmp	DWORD PTR tv64[ebp], 19			; 00000013H
	ja	$LN23@HandleMess
	mov	edx, DWORD PTR tv64[ebp]
	movzx	eax, BYTE PTR $LN28@HandleMess[edx]
	jmp	DWORD PTR $LN32@HandleMess[eax*4]
$LN22@HandleMess:
; Line 293
	mov	esi, esp
	mov	ecx, DWORD PTR _wParam$[ebp]
	push	ecx
	mov	edx, DWORD PTR _this$[ebp]
	mov	eax, DWORD PTR [edx]
	mov	ecx, DWORD PTR _this$[ebp]
	mov	edx, DWORD PTR [eax+24]
	call	edx
	cmp	esi, esp
	call	__RTC_CheckEsp
	mov	DWORD PTR _mappedKey$3[ebp], eax
; Line 294
	cmp	DWORD PTR _mappedKey$3[ebp], 255	; 000000ffH
	je	SHORT $LN21@HandleMess
; Line 297
	mov	eax, DWORD PTR _this$[ebp]
	add	eax, DWORD PTR _mappedKey$3[ebp]
	movzx	ecx, BYTE PTR [eax+436]
	push	ecx
	mov	ecx, DWORD PTR _this$[ebp]
	call	?IsKeyDown@CBaseCamera@@IBE_NE@Z	; CBaseCamera::IsKeyDown
	movzx	edx, al
	test	edx, edx
	jne	SHORT $LN21@HandleMess
; Line 299
	mov	eax, DWORD PTR _this$[ebp]
	add	eax, DWORD PTR _mappedKey$3[ebp]
	mov	BYTE PTR [eax+436], 129			; 00000081H
; Line 300
	mov	ecx, DWORD PTR _this$[ebp]
	mov	edx, DWORD PTR [ecx+432]
	add	edx, 1
	mov	eax, DWORD PTR _this$[ebp]
	mov	DWORD PTR [eax+432], edx
$LN21@HandleMess:
; Line 303
	jmp	$LN23@HandleMess
$LN19@HandleMess:
; Line 310
	mov	esi, esp
	mov	ecx, DWORD PTR _wParam$[ebp]
	push	ecx
	mov	edx, DWORD PTR _this$[ebp]
	mov	eax, DWORD PTR [edx]
	mov	ecx, DWORD PTR _this$[ebp]
	mov	edx, DWORD PTR [eax+24]
	call	edx
	cmp	esi, esp
	call	__RTC_CheckEsp
	mov	DWORD PTR _mappedKey$2[ebp], eax
; Line 311
	cmp	DWORD PTR _mappedKey$2[ebp], 255	; 000000ffH
	je	SHORT $LN18@HandleMess
	cmp	DWORD PTR _mappedKey$2[ebp], 8
	jae	SHORT $LN18@HandleMess
; Line 313
	mov	eax, DWORD PTR _this$[ebp]
	add	eax, DWORD PTR _mappedKey$2[ebp]
	movzx	ecx, BYTE PTR [eax+436]
	and	ecx, -2					; fffffffeH
	mov	edx, DWORD PTR _this$[ebp]
	add	edx, DWORD PTR _mappedKey$2[ebp]
	mov	BYTE PTR [edx+436], cl
; Line 314
	mov	eax, DWORD PTR _this$[ebp]
	mov	ecx, DWORD PTR [eax+432]
	sub	ecx, 1
	mov	edx, DWORD PTR _this$[ebp]
	mov	DWORD PTR [edx+432], ecx
$LN18@HandleMess:
; Line 316
	jmp	$LN23@HandleMess
$LN17@HandleMess:
; Line 330
	mov	eax, DWORD PTR _lParam$[ebp]
	and	eax, 65535				; 0000ffffH
	movsx	ecx, ax
	mov	DWORD PTR _ptCursor$1[ebp], ecx
	mov	edx, DWORD PTR _lParam$[ebp]
	shr	edx, 16					; 00000010H
	and	edx, 65535				; 0000ffffH
	movsx	eax, dx
	mov	DWORD PTR _ptCursor$1[ebp+4], eax
; Line 333
	cmp	DWORD PTR _uMsg$[ebp], 513		; 00000201H
	je	SHORT $LN15@HandleMess
	cmp	DWORD PTR _uMsg$[ebp], 515		; 00000203H
	jne	SHORT $LN16@HandleMess
$LN15@HandleMess:
	mov	esi, esp
	mov	ecx, DWORD PTR _ptCursor$1[ebp+4]
	push	ecx
	mov	edx, DWORD PTR _ptCursor$1[ebp]
	push	edx
	mov	eax, DWORD PTR _this$[ebp]
	add	eax, 540				; 0000021cH
	push	eax
	call	DWORD PTR __imp__PtInRect@12
	cmp	esi, esp
	call	__RTC_CheckEsp
	test	eax, eax
	je	SHORT $LN16@HandleMess
; Line 335
	mov	ecx, DWORD PTR _this$[ebp]
	mov	BYTE PTR [ecx+620], 1
	mov	edx, DWORD PTR _this$[ebp]
	mov	eax, DWORD PTR [edx+464]
	or	eax, 1
	mov	ecx, DWORD PTR _this$[ebp]
	mov	DWORD PTR [ecx+464], eax
$LN16@HandleMess:
; Line 337
	cmp	DWORD PTR _uMsg$[ebp], 519		; 00000207H
	je	SHORT $LN13@HandleMess
	cmp	DWORD PTR _uMsg$[ebp], 521		; 00000209H
	jne	SHORT $LN14@HandleMess
$LN13@HandleMess:
	mov	esi, esp
	mov	edx, DWORD PTR _ptCursor$1[ebp+4]
	push	edx
	mov	eax, DWORD PTR _ptCursor$1[ebp]
	push	eax
	mov	ecx, DWORD PTR _this$[ebp]
	add	ecx, 540				; 0000021cH
	push	ecx
	call	DWORD PTR __imp__PtInRect@12
	cmp	esi, esp
	call	__RTC_CheckEsp
	test	eax, eax
	je	SHORT $LN14@HandleMess
; Line 339
	mov	edx, DWORD PTR _this$[ebp]
	mov	BYTE PTR [edx+621], 1
	mov	eax, DWORD PTR _this$[ebp]
	mov	ecx, DWORD PTR [eax+464]
	or	ecx, 2
	mov	edx, DWORD PTR _this$[ebp]
	mov	DWORD PTR [edx+464], ecx
$LN14@HandleMess:
; Line 341
	cmp	DWORD PTR _uMsg$[ebp], 516		; 00000204H
	je	SHORT $LN11@HandleMess
	cmp	DWORD PTR _uMsg$[ebp], 518		; 00000206H
	jne	SHORT $LN12@HandleMess
$LN11@HandleMess:
	mov	esi, esp
	mov	eax, DWORD PTR _ptCursor$1[ebp+4]
	push	eax
	mov	ecx, DWORD PTR _ptCursor$1[ebp]
	push	ecx
	mov	edx, DWORD PTR _this$[ebp]
	add	edx, 540				; 0000021cH
	push	edx
	call	DWORD PTR __imp__PtInRect@12
	cmp	esi, esp
	call	__RTC_CheckEsp
	test	eax, eax
	je	SHORT $LN12@HandleMess
; Line 343
	mov	eax, DWORD PTR _this$[ebp]
	mov	BYTE PTR [eax+622], 1
	mov	ecx, DWORD PTR _this$[ebp]
	mov	edx, DWORD PTR [ecx+464]
	or	edx, 4
	mov	eax, DWORD PTR _this$[ebp]
	mov	DWORD PTR [eax+464], edx
$LN12@HandleMess:
; Line 348
	mov	esi, esp
	mov	ecx, DWORD PTR _hWnd$[ebp]
	push	ecx
	call	DWORD PTR __imp__SetCapture@4
	cmp	esi, esp
	call	__RTC_CheckEsp
; Line 349
	mov	edx, DWORD PTR _this$[ebp]
	add	edx, 456				; 000001c8H
	mov	esi, esp
	push	edx
	call	DWORD PTR __imp__GetCursorPos@4
	cmp	esi, esp
	call	__RTC_CheckEsp
; Line 350
	mov	eax, 1
	jmp	$LN25@HandleMess
$LN10@HandleMess:
; Line 358
	cmp	DWORD PTR _uMsg$[ebp], 514		; 00000202H
	jne	SHORT $LN9@HandleMess
; Line 360
	mov	eax, DWORD PTR _this$[ebp]
	mov	BYTE PTR [eax+620], 0
	mov	ecx, DWORD PTR _this$[ebp]
	mov	edx, DWORD PTR [ecx+464]
	and	edx, -2					; fffffffeH
	mov	eax, DWORD PTR _this$[ebp]
	mov	DWORD PTR [eax+464], edx
$LN9@HandleMess:
; Line 362
	cmp	DWORD PTR _uMsg$[ebp], 520		; 00000208H
	jne	SHORT $LN8@HandleMess
; Line 364
	mov	ecx, DWORD PTR _this$[ebp]
	mov	BYTE PTR [ecx+621], 0
	mov	edx, DWORD PTR _this$[ebp]
	mov	eax, DWORD PTR [edx+464]
	and	eax, -3					; fffffffdH
	mov	ecx, DWORD PTR _this$[ebp]
	mov	DWORD PTR [ecx+464], eax
$LN8@HandleMess:
; Line 366
	cmp	DWORD PTR _uMsg$[ebp], 517		; 00000205H
	jne	SHORT $LN7@HandleMess
; Line 368
	mov	edx, DWORD PTR _this$[ebp]
	mov	BYTE PTR [edx+622], 0
	mov	eax, DWORD PTR _this$[ebp]
	mov	ecx, DWORD PTR [eax+464]
	and	ecx, -5					; fffffffbH
	mov	edx, DWORD PTR _this$[ebp]
	mov	DWORD PTR [edx+464], ecx
$LN7@HandleMess:
; Line 374
	mov	eax, DWORD PTR _this$[ebp]
	movzx	ecx, BYTE PTR [eax+620]
	test	ecx, ecx
	jne	SHORT $LN6@HandleMess
	mov	edx, DWORD PTR _this$[ebp]
	movzx	eax, BYTE PTR [edx+622]
	test	eax, eax
	jne	SHORT $LN6@HandleMess
	mov	ecx, DWORD PTR _this$[ebp]
	movzx	edx, BYTE PTR [ecx+621]
	test	edx, edx
	jne	SHORT $LN6@HandleMess
; Line 376
	mov	esi, esp
	call	DWORD PTR __imp__ReleaseCapture@0
	cmp	esi, esp
	call	__RTC_CheckEsp
$LN6@HandleMess:
; Line 378
	jmp	$LN23@HandleMess
$LN5@HandleMess:
; Line 383
	mov	eax, DWORD PTR _lParam$[ebp]
	cmp	eax, DWORD PTR _hWnd$[ebp]
	je	$LN4@HandleMess
; Line 387
	mov	ecx, DWORD PTR _this$[ebp]
	mov	edx, DWORD PTR [ecx+464]
	and	edx, 1
	jne	SHORT $LN2@HandleMess
	mov	eax, DWORD PTR _this$[ebp]
	mov	ecx, DWORD PTR [eax+464]
	and	ecx, 2
	jne	SHORT $LN2@HandleMess
	mov	edx, DWORD PTR _this$[ebp]
	mov	eax, DWORD PTR [edx+464]
	and	eax, 4
	je	SHORT $LN4@HandleMess
$LN2@HandleMess:
; Line 389
	mov	ecx, DWORD PTR _this$[ebp]
	mov	BYTE PTR [ecx+620], 0
; Line 390
	mov	edx, DWORD PTR _this$[ebp]
	mov	BYTE PTR [edx+621], 0
; Line 391
	mov	eax, DWORD PTR _this$[ebp]
	mov	BYTE PTR [eax+622], 0
; Line 392
	mov	ecx, DWORD PTR _this$[ebp]
	mov	edx, DWORD PTR [ecx+464]
	and	edx, -2					; fffffffeH
	mov	eax, DWORD PTR _this$[ebp]
	mov	DWORD PTR [eax+464], edx
; Line 393
	mov	ecx, DWORD PTR _this$[ebp]
	mov	edx, DWORD PTR [ecx+464]
	and	edx, -3					; fffffffdH
	mov	eax, DWORD PTR _this$[ebp]
	mov	DWORD PTR [eax+464], edx
; Line 394
	mov	ecx, DWORD PTR _this$[ebp]
	mov	edx, DWORD PTR [ecx+464]
	and	edx, -5					; fffffffbH
	mov	eax, DWORD PTR _this$[ebp]
	mov	DWORD PTR [eax+464], edx
; Line 395
	mov	esi, esp
	call	DWORD PTR __imp__ReleaseCapture@0
	cmp	esi, esp
	call	__RTC_CheckEsp
$LN4@HandleMess:
; Line 398
	jmp	SHORT $LN23@HandleMess
$LN1@HandleMess:
; Line 403
	mov	ecx, DWORD PTR _wParam$[ebp]
	shr	ecx, 16					; 00000010H
	and	ecx, 65535				; 0000ffffH
	movsx	edx, cx
	mov	eax, DWORD PTR _this$[ebp]
	add	edx, DWORD PTR [eax+468]
	mov	ecx, DWORD PTR _this$[ebp]
	mov	DWORD PTR [ecx+468], edx
$LN23@HandleMess:
; Line 407
	xor	eax, eax
$LN25@HandleMess:
; Line 408
	push	edx
	mov	ecx, ebp
	push	eax
	lea	edx, DWORD PTR $LN31@HandleMess
	call	@_RTC_CheckStackVars@8
	pop	eax
	pop	edx
	pop	esi
	add	esp, 32					; 00000020H
	cmp	ebp, esp
	call	__RTC_CheckEsp
	mov	esp, ebp
	pop	ebp
	ret	16					; 00000010H
	npad	1
$LN31@HandleMess:
	DD	1
	DD	$LN30@HandleMess
$LN30@HandleMess:
	DD	-24					; ffffffe8H
	DD	8
	DD	$LN29@HandleMess
$LN29@HandleMess:
	DB	112					; 00000070H
	DB	116					; 00000074H
	DB	67					; 00000043H
	DB	117					; 00000075H
	DB	114					; 00000072H
	DB	115					; 00000073H
	DB	111					; 0000006fH
	DB	114					; 00000072H
	DB	0
	npad	3
$LN32@HandleMess:
	DD	$LN10@HandleMess
	DD	$LN17@HandleMess
	DD	$LN1@HandleMess
	DD	$LN5@HandleMess
	DD	$LN23@HandleMess
$LN28@HandleMess:
	DB	0
	DB	1
	DB	1
	DB	0
	DB	1
	DB	1
	DB	0
	DB	1
	DB	2
	DB	4
	DB	4
	DB	4
	DB	4
	DB	4
	DB	4
	DB	4
	DB	4
	DB	4
	DB	4
	DB	3
?HandleMessages@CBaseCamera@@UAEJPAUHWND__@@IIJ@Z ENDP	; CBaseCamera::HandleMessages
_TEXT	ENDS
; Function compile flags: /Odtp /RTCsu
_TEXT	SEGMENT
tv335 = -128						; size = 16
$T1 = -112						; size = 12
$T2 = -100						; size = 12
$T3 = -88						; size = 8
$T4 = -80						; size = 8
$T5 = -72						; size = 12
$T6 = -60						; size = 12
$T7 = -48						; size = 16
$T8 = -32						; size = 16
_this$ = -4						; size = 4
??0CBaseCamera@@QAE@XZ PROC				; CBaseCamera::CBaseCamera
; _this$ = ecx
; File d:\engine class\assignment 1\scratch\dxsse\dxut\optional\dxutcamera.cpp
; Line 206
	push	ebx
	mov	ebx, esp
	sub	esp, 8
	and	esp, -16				; fffffff0H
	add	esp, 4
	push	ebp
	mov	ebp, DWORD PTR [ebx+4]
	mov	DWORD PTR [esp+4], ebp
	mov	ebp, esp
	sub	esp, 140				; 0000008cH
	push	esi
	push	edi
	push	ecx
	lea	edi, DWORD PTR [ebp-140]
	mov	ecx, 35					; 00000023H
	mov	eax, -858993460				; ccccccccH
	rep stosd
	pop	ecx
	mov	DWORD PTR _this$[ebp], ecx
	mov	eax, DWORD PTR _this$[ebp]
	mov	DWORD PTR [eax], OFFSET ??_7CBaseCamera@@6B@
	mov	ecx, DWORD PTR _this$[ebp]
	add	ecx, 8
	call	??0XMFLOAT4X4@DirectX@@QAE@XZ		; DirectX::XMFLOAT4X4::XMFLOAT4X4
	mov	ecx, DWORD PTR _this$[ebp]
	add	ecx, 72					; 00000048H
	call	??0XMFLOAT4X4@DirectX@@QAE@XZ		; DirectX::XMFLOAT4X4::XMFLOAT4X4
	mov	ecx, DWORD PTR _this$[ebp]
	add	ecx, 376				; 00000178H
	call	??0XMFLOAT3@DirectX@@QAE@XZ		; DirectX::XMFLOAT3::XMFLOAT3
	mov	ecx, DWORD PTR _this$[ebp]
	add	ecx, 388				; 00000184H
	call	??0XMFLOAT3@DirectX@@QAE@XZ		; DirectX::XMFLOAT3::XMFLOAT3
	mov	ecx, DWORD PTR _this$[ebp]
	mov	DWORD PTR [ecx+432], 0
	mov	ecx, DWORD PTR _this$[ebp]
	add	ecx, 444				; 000001bcH
	call	??0XMFLOAT3@DirectX@@QAE@XZ		; DirectX::XMFLOAT3::XMFLOAT3
	mov	edx, DWORD PTR _this$[ebp]
	mov	DWORD PTR [edx+464], 0
	mov	eax, DWORD PTR _this$[ebp]
	mov	DWORD PTR [eax+468], 0
	mov	ecx, DWORD PTR _this$[ebp]
	add	ecx, 472				; 000001d8H
	call	??0XMFLOAT2@DirectX@@QAE@XZ		; DirectX::XMFLOAT2::XMFLOAT2
	mov	ecx, DWORD PTR _this$[ebp]
	movss	xmm0, DWORD PTR __real@40000000
	movss	DWORD PTR [ecx+480], xmm0
	mov	ecx, DWORD PTR _this$[ebp]
	add	ecx, 484				; 000001e4H
	call	??0XMFLOAT3@DirectX@@QAE@XZ		; DirectX::XMFLOAT3::XMFLOAT3
	mov	ecx, DWORD PTR _this$[ebp]
	add	ecx, 496				; 000001f0H
	call	??0XMFLOAT3@DirectX@@QAE@XZ		; DirectX::XMFLOAT3::XMFLOAT3
	mov	ecx, DWORD PTR _this$[ebp]
	add	ecx, 508				; 000001fcH
	call	??0XMFLOAT3@DirectX@@QAE@XZ		; DirectX::XMFLOAT3::XMFLOAT3
	mov	ecx, DWORD PTR _this$[ebp]
	add	ecx, 520				; 00000208H
	call	??0XMFLOAT3@DirectX@@QAE@XZ		; DirectX::XMFLOAT3::XMFLOAT3
	mov	edx, DWORD PTR _this$[ebp]
	movss	xmm0, DWORD PTR __real@00000000
	movss	DWORD PTR [edx+532], xmm0
	mov	eax, DWORD PTR _this$[ebp]
	movss	xmm0, DWORD PTR __real@00000000
	movss	DWORD PTR [eax+536], xmm0
	mov	ecx, DWORD PTR _this$[ebp]
	add	ecx, 556				; 0000022cH
	call	??0XMFLOAT3@DirectX@@QAE@XZ		; DirectX::XMFLOAT3::XMFLOAT3
	mov	ecx, DWORD PTR _this$[ebp]
	add	ecx, 568				; 00000238H
	call	??0XMFLOAT3@DirectX@@QAE@XZ		; DirectX::XMFLOAT3::XMFLOAT3
	mov	ecx, DWORD PTR _this$[ebp]
	movss	xmm0, DWORD PTR __real@00000000
	movss	DWORD PTR [ecx+580], xmm0
	mov	edx, DWORD PTR _this$[ebp]
	movss	xmm0, DWORD PTR __real@3e800000
	movss	DWORD PTR [edx+584], xmm0
	mov	ecx, DWORD PTR _this$[ebp]
	add	ecx, 588				; 0000024cH
	call	??0XMFLOAT2@DirectX@@QAE@XZ		; DirectX::XMFLOAT2::XMFLOAT2
	mov	eax, DWORD PTR _this$[ebp]
	movss	xmm0, DWORD PTR __real@3c23d70a
	movss	DWORD PTR [eax+612], xmm0
	mov	ecx, DWORD PTR _this$[ebp]
	movss	xmm0, DWORD PTR __real@40a00000
	movss	DWORD PTR [ecx+616], xmm0
	mov	edx, DWORD PTR _this$[ebp]
	mov	BYTE PTR [edx+620], 0
	mov	eax, DWORD PTR _this$[ebp]
	mov	BYTE PTR [eax+621], 0
	mov	ecx, DWORD PTR _this$[ebp]
	mov	BYTE PTR [ecx+622], 0
	mov	edx, DWORD PTR _this$[ebp]
	mov	BYTE PTR [edx+623], 0
	mov	eax, DWORD PTR _this$[ebp]
	mov	BYTE PTR [eax+624], 0
	mov	ecx, DWORD PTR _this$[ebp]
	mov	BYTE PTR [ecx+625], 1
	mov	edx, DWORD PTR _this$[ebp]
	mov	BYTE PTR [edx+626], 1
	mov	eax, DWORD PTR _this$[ebp]
	mov	BYTE PTR [eax+627], 0
	mov	ecx, DWORD PTR _this$[ebp]
	mov	BYTE PTR [ecx+628], 0
	mov	ecx, DWORD PTR _this$[ebp]
	add	ecx, 632				; 00000278H
	call	??0XMFLOAT3@DirectX@@QAE@XZ		; DirectX::XMFLOAT3::XMFLOAT3
	mov	ecx, DWORD PTR _this$[ebp]
	add	ecx, 644				; 00000284H
	call	??0XMFLOAT3@DirectX@@QAE@XZ		; DirectX::XMFLOAT3::XMFLOAT3
; Line 207
	xor	edx, edx
	mov	eax, DWORD PTR _this$[ebp]
	add	eax, 436				; 000001b4H
	mov	DWORD PTR [eax], edx
	mov	DWORD PTR [eax+4], edx
; Line 208
	push	240					; 000000f0H
	push	0
	mov	ecx, DWORD PTR _this$[ebp]
	add	ecx, 136				; 00000088H
	push	ecx
	call	_memset
	add	esp, 12					; 0000000cH
; Line 211
	lea	edx, DWORD PTR $T8[ebp]
	push	edx
	mov	ecx, OFFSET ?g_XMIdentityR2@DirectX@@3UXMVECTORF32@1@B ; DirectX::g_XMIdentityR2
	call	??BXMVECTORF32@DirectX@@QBE?AT__m128@@XZ ; DirectX::XMVECTORF32::operator __m128
	movups	xmm0, XMMWORD PTR [eax]
	lea	eax, DWORD PTR $T7[ebp]
	push	eax
	mov	ecx, OFFSET ?g_XMZero@DirectX@@3UXMVECTORF32@1@B ; DirectX::g_XMZero
	movaps	XMMWORD PTR tv335[ebp], xmm0
	call	??BXMVECTORF32@DirectX@@QBE?AT__m128@@XZ ; DirectX::XMVECTORF32::operator __m128
	movups	xmm0, XMMWORD PTR [eax]
	mov	ecx, DWORD PTR _this$[ebp]
	movaps	xmm1, XMMWORD PTR tv335[ebp]
	call	?SetViewParams@CBaseCamera@@UAEXT__m128@@0@Z ; CBaseCamera::SetViewParams
; Line 214
	push	ecx
	movss	xmm0, DWORD PTR __real@447a0000
	movss	DWORD PTR [esp], xmm0
	push	ecx
	movss	xmm0, DWORD PTR __real@3f800000
	movss	DWORD PTR [esp], xmm0
	push	ecx
	movss	xmm0, DWORD PTR __real@3f800000
	movss	DWORD PTR [esp], xmm0
	movss	xmm0, DWORD PTR _XM_PI
	divss	xmm0, DWORD PTR __real@40800000
	push	ecx
	movss	DWORD PTR [esp], xmm0
	mov	ecx, DWORD PTR _this$[ebp]
	call	?SetProjParams@CBaseCamera@@UAEXMMMM@Z	; CBaseCamera::SetProjParams
; Line 216
	mov	ecx, DWORD PTR _this$[ebp]
	add	ecx, 456				; 000001c8H
	mov	esi, esp
	push	ecx
	call	DWORD PTR __imp__GetCursorPos@4
	cmp	esi, esp
	call	__RTC_CheckEsp
; Line 218
	mov	esi, esp
	push	2147483647				; 7fffffffH
	push	2147483647				; 7fffffffH
	push	-2147483648				; 80000000H
	push	-2147483648				; 80000000H
	mov	edx, DWORD PTR _this$[ebp]
	add	edx, 540				; 0000021cH
	push	edx
	call	DWORD PTR __imp__SetRect@20
	cmp	esi, esp
	call	__RTC_CheckEsp
; Line 219
	push	ecx
	movss	xmm0, DWORD PTR __real@00000000
	movss	DWORD PTR [esp], xmm0
	push	ecx
	movss	xmm0, DWORD PTR __real@00000000
	movss	DWORD PTR [esp], xmm0
	push	ecx
	movss	xmm0, DWORD PTR __real@00000000
	movss	DWORD PTR [esp], xmm0
	lea	ecx, DWORD PTR $T6[ebp]
	call	??0XMFLOAT3@DirectX@@QAE@MMM@Z		; DirectX::XMFLOAT3::XMFLOAT3
	push	eax
	mov	ecx, DWORD PTR _this$[ebp]
	add	ecx, 556				; 0000022cH
	call	??4XMFLOAT3@DirectX@@QAEAAU01@ABU01@@Z	; DirectX::XMFLOAT3::operator=
; Line 220
	push	ecx
	movss	xmm0, DWORD PTR __real@00000000
	movss	DWORD PTR [esp], xmm0
	push	ecx
	movss	xmm0, DWORD PTR __real@00000000
	movss	DWORD PTR [esp], xmm0
	push	ecx
	movss	xmm0, DWORD PTR __real@00000000
	movss	DWORD PTR [esp], xmm0
	lea	ecx, DWORD PTR $T5[ebp]
	call	??0XMFLOAT3@DirectX@@QAE@MMM@Z		; DirectX::XMFLOAT3::XMFLOAT3
	push	eax
	mov	ecx, DWORD PTR _this$[ebp]
	add	ecx, 568				; 00000238H
	call	??4XMFLOAT3@DirectX@@QAEAAU01@ABU01@@Z	; DirectX::XMFLOAT3::operator=
; Line 221
	push	ecx
	movss	xmm0, DWORD PTR __real@00000000
	movss	DWORD PTR [esp], xmm0
	push	ecx
	movss	xmm0, DWORD PTR __real@00000000
	movss	DWORD PTR [esp], xmm0
	lea	ecx, DWORD PTR $T4[ebp]
	call	??0XMFLOAT2@DirectX@@QAE@MM@Z		; DirectX::XMFLOAT2::XMFLOAT2
	push	eax
	mov	ecx, DWORD PTR _this$[ebp]
	add	ecx, 588				; 0000024cH
	call	??4XMFLOAT2@DirectX@@QAEAAU01@ABU01@@Z	; DirectX::XMFLOAT2::operator=
; Line 223
	push	ecx
	movss	xmm0, DWORD PTR __real@00000000
	movss	DWORD PTR [esp], xmm0
	push	ecx
	movss	xmm0, DWORD PTR __real@00000000
	movss	DWORD PTR [esp], xmm0
	lea	ecx, DWORD PTR $T3[ebp]
	call	??0XMFLOAT2@DirectX@@QAE@MM@Z		; DirectX::XMFLOAT2::XMFLOAT2
	push	eax
	mov	ecx, DWORD PTR _this$[ebp]
	add	ecx, 472				; 000001d8H
	call	??4XMFLOAT2@DirectX@@QAEAAU01@ABU01@@Z	; DirectX::XMFLOAT2::operator=
; Line 225
	push	ecx
	movss	xmm0, DWORD PTR __real@bf800000
	movss	DWORD PTR [esp], xmm0
	push	ecx
	movss	xmm0, DWORD PTR __real@bf800000
	movss	DWORD PTR [esp], xmm0
	push	ecx
	movss	xmm0, DWORD PTR __real@bf800000
	movss	DWORD PTR [esp], xmm0
	lea	ecx, DWORD PTR $T2[ebp]
	call	??0XMFLOAT3@DirectX@@QAE@MMM@Z		; DirectX::XMFLOAT3::XMFLOAT3
	push	eax
	mov	ecx, DWORD PTR _this$[ebp]
	add	ecx, 632				; 00000278H
	call	??4XMFLOAT3@DirectX@@QAEAAU01@ABU01@@Z	; DirectX::XMFLOAT3::operator=
; Line 226
	push	ecx
	movss	xmm0, DWORD PTR __real@3f800000
	movss	DWORD PTR [esp], xmm0
	push	ecx
	movss	xmm0, DWORD PTR __real@3f800000
	movss	DWORD PTR [esp], xmm0
	push	ecx
	movss	xmm0, DWORD PTR __real@3f800000
	movss	DWORD PTR [esp], xmm0
	lea	ecx, DWORD PTR $T1[ebp]
	call	??0XMFLOAT3@DirectX@@QAE@MMM@Z		; DirectX::XMFLOAT3::XMFLOAT3
	push	eax
	mov	ecx, DWORD PTR _this$[ebp]
	add	ecx, 644				; 00000284H
	call	??4XMFLOAT3@DirectX@@QAEAAU01@ABU01@@Z	; DirectX::XMFLOAT3::operator=
; Line 227
	mov	eax, DWORD PTR _this$[ebp]
	pop	edi
	pop	esi
	mov	esp, ebp
	pop	ebp
	mov	esp, ebx
	pop	ebx
	ret	0
??0CBaseCamera@@QAE@XZ ENDP				; CBaseCamera::CBaseCamera
_TEXT	ENDS
; Function compile flags: /Odtp /RTCsu
;	COMDAT ?ScreenToVector@CD3DArcBall@@IAE?AT__m128@@MM@Z
_TEXT	SEGMENT
tv177 = -52						; size = 4
$T1 = -48						; size = 16
_scale$2 = -24						; size = 4
_mag$ = -20						; size = 4
_z$ = -16						; size = 4
_y$ = -12						; size = 4
_x$ = -8						; size = 4
_this$ = -4						; size = 4
___$ReturnUdt$ = 8					; size = 4
_fScreenPtX$ = 12					; size = 4
_fScreenPtY$ = 16					; size = 4
?ScreenToVector@CD3DArcBall@@IAE?AT__m128@@MM@Z PROC	; CD3DArcBall::ScreenToVector, COMDAT
; _this$ = ecx
; File d:\engine class\assignment 1\scratch\dxsse\dxut\optional\dxutcamera.h
; Line 90
	push	ebx
	mov	ebx, esp
	sub	esp, 8
	and	esp, -16				; fffffff0H
	add	esp, 4
	push	ebp
	mov	ebp, DWORD PTR [ebx+4]
	mov	DWORD PTR [esp+4], ebp
	mov	ebp, esp
	sub	esp, 64					; 00000040H
	push	edi
	push	ecx
	lea	edi, DWORD PTR [ebp-64]
	mov	ecx, 16					; 00000010H
	mov	eax, -858993460				; ccccccccH
	rep stosd
	pop	ecx
	mov	DWORD PTR _this$[ebp], ecx
; Line 92
	mov	eax, DWORD PTR _this$[ebp]
	cvtsi2ss xmm0, DWORD PTR [eax+192]
	movss	xmm1, DWORD PTR _fScreenPtX$[ebx]
	subss	xmm1, xmm0
	mov	ecx, DWORD PTR _this$[ebp]
	mov	eax, DWORD PTR [ecx+200]
	cdq
	sub	eax, edx
	sar	eax, 1
	cvtsi2ss xmm0, eax
	subss	xmm1, xmm0
	xorps	xmm1, DWORD PTR __xmm@80000000800000008000000080000000
	mov	edx, DWORD PTR _this$[ebp]
	cvtsi2ss xmm0, DWORD PTR [edx+200]
	mov	eax, DWORD PTR _this$[ebp]
	mulss	xmm0, DWORD PTR [eax+216]
	divss	xmm0, DWORD PTR __real@40000000
	divss	xmm1, xmm0
	movss	DWORD PTR _x$[ebp], xmm1
; Line 93
	mov	ecx, DWORD PTR _this$[ebp]
	cvtsi2ss xmm0, DWORD PTR [ecx+196]
	movss	xmm1, DWORD PTR _fScreenPtY$[ebx]
	subss	xmm1, xmm0
	mov	edx, DWORD PTR _this$[ebp]
	mov	eax, DWORD PTR [edx+204]
	cdq
	sub	eax, edx
	sar	eax, 1
	cvtsi2ss xmm0, eax
	subss	xmm1, xmm0
	mov	eax, DWORD PTR _this$[ebp]
	cvtsi2ss xmm0, DWORD PTR [eax+204]
	mov	ecx, DWORD PTR _this$[ebp]
	mulss	xmm0, DWORD PTR [ecx+216]
	divss	xmm0, DWORD PTR __real@40000000
	divss	xmm1, xmm0
	movss	DWORD PTR _y$[ebp], xmm1
; Line 95
	movss	xmm0, DWORD PTR __real@00000000
	movss	DWORD PTR _z$[ebp], xmm0
; Line 96
	movss	xmm0, DWORD PTR _x$[ebp]
	mulss	xmm0, DWORD PTR _x$[ebp]
	movss	xmm1, DWORD PTR _y$[ebp]
	mulss	xmm1, DWORD PTR _y$[ebp]
	addss	xmm0, xmm1
	movss	DWORD PTR _mag$[ebp], xmm0
; Line 98
	movss	xmm0, DWORD PTR _mag$[ebp]
	comiss	xmm0, DWORD PTR __real@3f800000
	jbe	SHORT $LN2@ScreenToVe
; Line 100
	push	ecx
	movss	xmm0, DWORD PTR _mag$[ebp]
	movss	DWORD PTR [esp], xmm0
	call	_sqrtf
	add	esp, 4
	fstp	DWORD PTR tv177[ebp]
	movss	xmm0, DWORD PTR __real@3f800000
	divss	xmm0, DWORD PTR tv177[ebp]
	movss	DWORD PTR _scale$2[ebp], xmm0
; Line 101
	movss	xmm0, DWORD PTR _x$[ebp]
	mulss	xmm0, DWORD PTR _scale$2[ebp]
	movss	DWORD PTR _x$[ebp], xmm0
; Line 102
	movss	xmm0, DWORD PTR _y$[ebp]
	mulss	xmm0, DWORD PTR _scale$2[ebp]
	movss	DWORD PTR _y$[ebp], xmm0
; Line 104
	jmp	SHORT $LN1@ScreenToVe
$LN2@ScreenToVe:
; Line 105
	movss	xmm0, DWORD PTR __real@3f800000
	subss	xmm0, DWORD PTR _mag$[ebp]
	push	ecx
	movss	DWORD PTR [esp], xmm0
	call	_sqrtf
	add	esp, 4
	fstp	DWORD PTR _z$[ebp]
$LN1@ScreenToVe:
; Line 107
	movss	xmm3, DWORD PTR __real@00000000
	movss	xmm2, DWORD PTR _z$[ebp]
	movss	xmm1, DWORD PTR _y$[ebp]
	movss	xmm0, DWORD PTR _x$[ebp]
	call	?XMVectorSet@DirectX@@YQ?AT__m128@@MMMM@Z ; DirectX::XMVectorSet
	movaps	XMMWORD PTR $T1[ebp], xmm0
	mov	edx, DWORD PTR ___$ReturnUdt$[ebx]
	movups	xmm0, XMMWORD PTR $T1[ebp]
	movups	XMMWORD PTR [edx], xmm0
	mov	eax, DWORD PTR ___$ReturnUdt$[ebx]
; Line 108
	pop	edi
	mov	esp, ebp
	pop	ebp
	mov	esp, ebx
	pop	ebx
	ret	12					; 0000000cH
?ScreenToVector@CD3DArcBall@@IAE?AT__m128@@MM@Z ENDP	; CD3DArcBall::ScreenToVector
_TEXT	ENDS
; Function compile flags: /Odtp /RTCsu
;	COMDAT ?QuatFromBallPoints@CD3DArcBall@@SA?AT__m128@@T2@0@Z
_TEXT	SEGMENT
$T1 = -128						; size = 16
$T2 = -112						; size = 16
$T3 = -96						; size = 16
_vPart$ = -80						; size = 16
$T4 = -64						; size = 16
_dot$ = -48						; size = 16
_vTo$ = -32						; size = 16
_vFrom$ = -16						; size = 16
?QuatFromBallPoints@CD3DArcBall@@SA?AT__m128@@T2@0@Z PROC ; CD3DArcBall::QuatFromBallPoints, COMDAT
; _vFrom$ = xmm0
; _vTo$ = xmm1
; File d:\engine class\assignment 1\scratch\dxsse\dxut\optional\dxutcamera.h
; Line 61
	push	ebx
	mov	ebx, esp
	sub	esp, 8
	and	esp, -16				; fffffff0H
	add	esp, 4
	push	ebp
	mov	ebp, DWORD PTR [ebx+4]
	mov	DWORD PTR [esp+4], ebp
	mov	ebp, esp
	sub	esp, 128				; 00000080H
	push	edi
	lea	edi, DWORD PTR [ebp-128]
	mov	ecx, 32					; 00000020H
	mov	eax, -858993460				; ccccccccH
	rep stosd
	movaps	XMMWORD PTR _vTo$[ebp], xmm1
	movaps	XMMWORD PTR _vFrom$[ebp], xmm0
; Line 64
	movaps	xmm1, XMMWORD PTR _vTo$[ebp]
	movaps	xmm0, XMMWORD PTR _vFrom$[ebp]
	call	?XMVector3Dot@DirectX@@YQ?AT__m128@@T2@0@Z ; DirectX::XMVector3Dot
	movaps	XMMWORD PTR $T4[ebp], xmm0
	movaps	xmm0, XMMWORD PTR $T4[ebp]
	movaps	XMMWORD PTR _dot$[ebp], xmm0
; Line 65
	movaps	xmm1, XMMWORD PTR _vTo$[ebp]
	movaps	xmm0, XMMWORD PTR _vFrom$[ebp]
	call	?XMVector3Cross@DirectX@@YQ?AT__m128@@T2@0@Z ; DirectX::XMVector3Cross
	movaps	XMMWORD PTR $T3[ebp], xmm0
	movaps	xmm0, XMMWORD PTR $T3[ebp]
	movaps	XMMWORD PTR _vPart$[ebp], xmm0
; Line 66
	lea	eax, DWORD PTR $T2[ebp]
	push	eax
	mov	ecx, OFFSET ?g_XMSelect1110@DirectX@@3UXMVECTORI32@1@B ; DirectX::g_XMSelect1110
	call	??BXMVECTORI32@DirectX@@QBE?AT__m128@@XZ ; DirectX::XMVECTORI32::operator __m128
	movups	xmm2, XMMWORD PTR [eax]
	movaps	xmm1, XMMWORD PTR _vPart$[ebp]
	movaps	xmm0, XMMWORD PTR _dot$[ebp]
	call	?XMVectorSelect@DirectX@@YQ?AT__m128@@T2@00@Z ; DirectX::XMVectorSelect
	movaps	XMMWORD PTR $T1[ebp], xmm0
	movaps	xmm0, XMMWORD PTR $T1[ebp]
; Line 67
	pop	edi
	mov	esp, ebp
	pop	ebp
	mov	esp, ebx
	pop	ebx
	ret	0
?QuatFromBallPoints@CD3DArcBall@@SA?AT__m128@@T2@0@Z ENDP ; CD3DArcBall::QuatFromBallPoints
_TEXT	ENDS
; Function compile flags: /Odtp /RTCsu
;	COMDAT ?SetQuatNow@CD3DArcBall@@QAEXABT__m128@@@Z
_TEXT	SEGMENT
_this$ = -4						; size = 4
_q$ = 8							; size = 4
?SetQuatNow@CD3DArcBall@@QAEXABT__m128@@@Z PROC		; CD3DArcBall::SetQuatNow, COMDAT
; _this$ = ecx
; File d:\engine class\assignment 1\scratch\dxsse\dxut\optional\dxutcamera.h
; Line 58
	push	ebp
	mov	ebp, esp
	push	ecx
	mov	DWORD PTR [ebp-4], -858993460		; ccccccccH
	mov	DWORD PTR _this$[ebp], ecx
	mov	eax, DWORD PTR _q$[ebp]
	movups	xmm0, XMMWORD PTR [eax]
	mov	ecx, DWORD PTR _this$[ebp]
	add	ecx, 240				; 000000f0H
	call	?XMStoreFloat4@DirectX@@YQXPAUXMFLOAT4@1@T__m128@@@Z ; DirectX::XMStoreFloat4
	add	esp, 4
	cmp	ebp, esp
	call	__RTC_CheckEsp
	mov	esp, ebp
	pop	ebp
	ret	4
?SetQuatNow@CD3DArcBall@@QAEXABT__m128@@@Z ENDP		; CD3DArcBall::SetQuatNow
_TEXT	ENDS
; Function compile flags: /Odtp /RTCsu
;	COMDAT ?IsBeingDragged@CD3DArcBall@@QBE_NXZ
_TEXT	SEGMENT
_this$ = -4						; size = 4
?IsBeingDragged@CD3DArcBall@@QBE_NXZ PROC		; CD3DArcBall::IsBeingDragged, COMDAT
; _this$ = ecx
; File d:\engine class\assignment 1\scratch\dxsse\dxut\optional\dxutcamera.h
; Line 56
	push	ebp
	mov	ebp, esp
	push	ecx
	mov	DWORD PTR [ebp-4], -858993460		; ccccccccH
	mov	DWORD PTR _this$[ebp], ecx
	mov	eax, DWORD PTR _this$[ebp]
	mov	al, BYTE PTR [eax+256]
	mov	esp, ebp
	pop	ebp
	ret	0
?IsBeingDragged@CD3DArcBall@@QBE_NXZ ENDP		; CD3DArcBall::IsBeingDragged
_TEXT	ENDS
; Function compile flags: /Odtp /RTCsu
;	COMDAT ?GetRotationMatrix@CD3DArcBall@@QBE?AUXMMATRIX@DirectX@@XZ
_TEXT	SEGMENT
$T1 = -176						; size = 64
$T2 = -112						; size = 64
$T3 = -48						; size = 16
_q$ = -32						; size = 16
_this$ = -8						; size = 4
__$ArrayPad$ = -4					; size = 4
___$ReturnUdt$ = 8					; size = 4
?GetRotationMatrix@CD3DArcBall@@QBE?AUXMMATRIX@DirectX@@XZ PROC ; CD3DArcBall::GetRotationMatrix, COMDAT
; _this$ = ecx
; File d:\engine class\assignment 1\scratch\dxsse\dxut\optional\dxutcamera.h
; Line 49
	push	ebx
	mov	ebx, esp
	sub	esp, 8
	and	esp, -16				; fffffff0H
	add	esp, 4
	push	ebp
	mov	ebp, DWORD PTR [ebx+4]
	mov	DWORD PTR [esp+4], ebp
	mov	ebp, esp
	sub	esp, 184				; 000000b8H
	push	esi
	push	edi
	push	ecx
	lea	edi, DWORD PTR [ebp-184]
	mov	ecx, 46					; 0000002eH
	mov	eax, -858993460				; ccccccccH
	rep stosd
	pop	ecx
	mov	eax, DWORD PTR ___security_cookie
	xor	eax, ebp
	mov	DWORD PTR __$ArrayPad$[ebp], eax
	mov	DWORD PTR _this$[ebp], ecx
; Line 51
	mov	ecx, DWORD PTR _this$[ebp]
	add	ecx, 240				; 000000f0H
	call	?XMLoadFloat4@DirectX@@YQ?AT__m128@@PBUXMFLOAT4@1@@Z ; DirectX::XMLoadFloat4
	movaps	XMMWORD PTR $T3[ebp], xmm0
	movaps	xmm0, XMMWORD PTR $T3[ebp]
	movaps	XMMWORD PTR _q$[ebp], xmm0
; Line 52
	movaps	xmm0, XMMWORD PTR _q$[ebp]
	call	?XMMatrixRotationQuaternion@DirectX@@YQ?AUXMMATRIX@1@T__m128@@@Z ; DirectX::XMMatrixRotationQuaternion
	movaps	XMMWORD PTR $T1[ebp+48], xmm3
	movaps	XMMWORD PTR $T1[ebp+32], xmm2
	movaps	XMMWORD PTR $T1[ebp+16], xmm1
	movaps	XMMWORD PTR $T1[ebp], xmm0
	mov	ecx, 16					; 00000010H
	lea	esi, DWORD PTR $T1[ebp]
	lea	edi, DWORD PTR $T2[ebp]
	rep movsd
	mov	ecx, 16					; 00000010H
	lea	esi, DWORD PTR $T2[ebp]
	mov	edi, DWORD PTR ___$ReturnUdt$[ebx]
	rep movsd
	mov	eax, DWORD PTR ___$ReturnUdt$[ebx]
; Line 53
	pop	edi
	pop	esi
	mov	ecx, DWORD PTR __$ArrayPad$[ebp]
	xor	ecx, ebp
	call	@__security_check_cookie@4
	mov	esp, ebp
	pop	ebp
	mov	esp, ebx
	pop	ebx
	ret	4
?GetRotationMatrix@CD3DArcBall@@QBE?AUXMMATRIX@DirectX@@XZ ENDP ; CD3DArcBall::GetRotationMatrix
_TEXT	ENDS
; Function compile flags: /Odtp /RTCsu
_TEXT	SEGMENT
tv71 = -836						; size = 4
$T1 = -832						; size = 64
$T2 = -768						; size = 64
$T3 = -704						; size = 64
$T4 = -640						; size = 64
$T5 = -576						; size = 64
$T6 = -512						; size = 64
$T7 = -448						; size = 64
$T8 = -384						; size = 64
$T9 = -320						; size = 64
$T10 = -256						; size = 64
_mTranslation$11 = -176					; size = 64
_mTranslationDelta$12 = -96				; size = 64
_fDeltaY$13 = -24					; size = 4
_fDeltaX$14 = -20					; size = 4
_iMouseY$ = -16						; size = 4
_iMouseX$ = -12						; size = 4
_this$ = -8						; size = 4
__$ArrayPad$ = -4					; size = 4
_hWnd$ = 8						; size = 4
_uMsg$ = 12						; size = 4
_wParam$ = 16						; size = 4
_lParam$ = 20						; size = 4
?HandleMessages@CD3DArcBall@@QAEJPAUHWND__@@IIJ@Z PROC	; CD3DArcBall::HandleMessages
; _this$ = ecx
; File d:\engine class\assignment 1\scratch\dxsse\dxut\optional\dxutcamera.cpp
; Line 101
	push	ebx
	mov	ebx, esp
	sub	esp, 8
	and	esp, -16				; fffffff0H
	add	esp, 4
	push	ebp
	mov	ebp, DWORD PTR [ebx+4]
	mov	DWORD PTR [esp+4], ebp
	mov	ebp, esp
	sub	esp, 840				; 00000348H
	push	esi
	push	edi
	push	ecx
	lea	edi, DWORD PTR [ebp-840]
	mov	ecx, 210				; 000000d2H
	mov	eax, -858993460				; ccccccccH
	rep stosd
	pop	ecx
	mov	eax, DWORD PTR ___security_cookie
	xor	eax, ebp
	mov	DWORD PTR __$ArrayPad$[ebp], eax
	mov	DWORD PTR _this$[ebp], ecx
; Line 103
	mov	eax, DWORD PTR _lParam$[ebx]
	and	eax, 65535				; 0000ffffH
	movsx	ecx, ax
	mov	DWORD PTR _iMouseX$[ebp], ecx
; Line 104
	mov	edx, DWORD PTR _lParam$[ebx]
	shr	edx, 16					; 00000010H
	and	edx, 65535				; 0000ffffH
	movsx	eax, dx
	mov	DWORD PTR _iMouseY$[ebp], eax
; Line 106
	mov	ecx, DWORD PTR _uMsg$[ebx]
	mov	DWORD PTR tv71[ebp], ecx
	mov	edx, DWORD PTR tv71[ebp]
	sub	edx, 512				; 00000200H
	mov	DWORD PTR tv71[ebp], edx
	cmp	DWORD PTR tv71[ebp], 21			; 00000015H
	ja	$LN14@HandleMess
	mov	eax, DWORD PTR tv71[ebp]
	movzx	ecx, BYTE PTR $LN18@HandleMess[eax]
	jmp	DWORD PTR $LN23@HandleMess[ecx*4]
$LN13@HandleMess:
; Line 110
	mov	esi, esp
	mov	edx, DWORD PTR _hWnd$[ebx]
	push	edx
	call	DWORD PTR __imp__SetCapture@4
	cmp	esi, esp
	call	__RTC_CheckEsp
; Line 111
	mov	eax, DWORD PTR _iMouseY$[ebp]
	push	eax
	mov	ecx, DWORD PTR _iMouseX$[ebp]
	push	ecx
	mov	ecx, DWORD PTR _this$[ebp]
	call	?OnBegin@CD3DArcBall@@QAEXHH@Z		; CD3DArcBall::OnBegin
; Line 112
	mov	eax, 1
	jmp	$LN16@HandleMess
$LN12@HandleMess:
; Line 115
	mov	esi, esp
	call	DWORD PTR __imp__ReleaseCapture@0
	cmp	esi, esp
	call	__RTC_CheckEsp
; Line 116
	mov	ecx, DWORD PTR _this$[ebp]
	call	?OnEnd@CD3DArcBall@@QAEXXZ		; CD3DArcBall::OnEnd
; Line 117
	mov	eax, 1
	jmp	$LN16@HandleMess
$LN11@HandleMess:
; Line 119
	mov	edx, DWORD PTR _lParam$[ebx]
	cmp	edx, DWORD PTR _hWnd$[ebx]
	je	SHORT $LN10@HandleMess
; Line 121
	mov	esi, esp
	call	DWORD PTR __imp__ReleaseCapture@0
	cmp	esi, esp
	call	__RTC_CheckEsp
; Line 122
	mov	ecx, DWORD PTR _this$[ebp]
	call	?OnEnd@CD3DArcBall@@QAEXXZ		; CD3DArcBall::OnEnd
$LN10@HandleMess:
; Line 124
	mov	eax, 1
	jmp	$LN16@HandleMess
$LN9@HandleMess:
; Line 130
	mov	esi, esp
	mov	eax, DWORD PTR _hWnd$[ebx]
	push	eax
	call	DWORD PTR __imp__SetCapture@4
	cmp	esi, esp
	call	__RTC_CheckEsp
; Line 132
	mov	ecx, DWORD PTR _this$[ebp]
	mov	edx, DWORD PTR _iMouseX$[ebp]
	mov	DWORD PTR [ecx+260], edx
; Line 133
	mov	eax, DWORD PTR _this$[ebp]
	mov	ecx, DWORD PTR _iMouseY$[ebp]
	mov	DWORD PTR [eax+264], ecx
; Line 134
	mov	eax, 1
	jmp	$LN16@HandleMess
$LN8@HandleMess:
; Line 138
	mov	esi, esp
	call	DWORD PTR __imp__ReleaseCapture@0
	cmp	esi, esp
	call	__RTC_CheckEsp
; Line 139
	mov	eax, 1
	jmp	$LN16@HandleMess
$LN7@HandleMess:
; Line 142
	mov	edx, DWORD PTR _wParam$[ebx]
	and	edx, 1
	je	SHORT $LN6@HandleMess
; Line 144
	mov	eax, DWORD PTR _iMouseY$[ebp]
	push	eax
	mov	ecx, DWORD PTR _iMouseX$[ebp]
	push	ecx
	mov	ecx, DWORD PTR _this$[ebp]
	call	?OnMove@CD3DArcBall@@QAEXHH@Z		; CD3DArcBall::OnMove
	jmp	$LN4@HandleMess
$LN6@HandleMess:
; Line 146
	mov	edx, DWORD PTR _wParam$[ebx]
	and	edx, 2
	jne	SHORT $LN3@HandleMess
	mov	eax, DWORD PTR _wParam$[ebx]
	and	eax, 16					; 00000010H
	je	$LN4@HandleMess
$LN3@HandleMess:
; Line 149
	mov	ecx, DWORD PTR _this$[ebp]
	mov	edx, DWORD PTR [ecx+260]
	sub	edx, DWORD PTR _iMouseX$[ebp]
	cvtsi2ss xmm0, edx
	mov	eax, DWORD PTR _this$[ebp]
	mulss	xmm0, DWORD PTR [eax+220]
	mov	ecx, DWORD PTR _this$[ebp]
	cvtsi2ss xmm1, DWORD PTR [ecx+200]
	divss	xmm0, xmm1
	movss	DWORD PTR _fDeltaX$14[ebp], xmm0
; Line 150
	mov	edx, DWORD PTR _this$[ebp]
	mov	eax, DWORD PTR [edx+264]
	sub	eax, DWORD PTR _iMouseY$[ebp]
	cvtsi2ss xmm0, eax
	mov	ecx, DWORD PTR _this$[ebp]
	mulss	xmm0, DWORD PTR [ecx+220]
	mov	edx, DWORD PTR _this$[ebp]
	cvtsi2ss xmm1, DWORD PTR [edx+204]
	divss	xmm0, xmm1
	movss	DWORD PTR _fDeltaY$13[ebp], xmm0
; Line 152
	lea	ecx, DWORD PTR _mTranslationDelta$12[ebp]
	call	??0XMMATRIX@DirectX@@QAE@XZ		; DirectX::XMMATRIX::XMMATRIX
; Line 153
	mov	ecx, DWORD PTR _this$[ebp]
	add	ecx, 64					; 00000040H
	call	?XMLoadFloat4x4@DirectX@@YQ?AUXMMATRIX@1@PBUXMFLOAT4X4@1@@Z ; DirectX::XMLoadFloat4x4
	movaps	XMMWORD PTR $T5[ebp+48], xmm3
	movaps	XMMWORD PTR $T5[ebp+32], xmm2
	movaps	XMMWORD PTR $T5[ebp+16], xmm1
	movaps	XMMWORD PTR $T5[ebp], xmm0
	mov	ecx, 16					; 00000010H
	lea	esi, DWORD PTR $T5[ebp]
	lea	edi, DWORD PTR $T10[ebp]
	rep movsd
	mov	ecx, 16					; 00000010H
	lea	esi, DWORD PTR $T10[ebp]
	lea	edi, DWORD PTR _mTranslation$11[ebp]
	rep movsd
; Line 154
	mov	eax, DWORD PTR _wParam$[ebx]
	and	eax, 2
	je	$LN2@HandleMess
; Line 156
	movss	xmm1, DWORD PTR __real@40000000
	mulss	xmm1, DWORD PTR _fDeltaY$13[ebp]
	movss	xmm0, DWORD PTR __real@c0000000
	mulss	xmm0, DWORD PTR _fDeltaX$14[ebp]
	movss	xmm2, DWORD PTR __real@00000000
	call	?XMMatrixTranslation@DirectX@@YQ?AUXMMATRIX@1@MMM@Z ; DirectX::XMMatrixTranslation
	movaps	XMMWORD PTR $T4[ebp+48], xmm3
	movaps	XMMWORD PTR $T4[ebp+32], xmm2
	movaps	XMMWORD PTR $T4[ebp+16], xmm1
	movaps	XMMWORD PTR $T4[ebp], xmm0
	mov	ecx, 16					; 00000010H
	lea	esi, DWORD PTR $T4[ebp]
	lea	edi, DWORD PTR $T9[ebp]
	rep movsd
	lea	ecx, DWORD PTR $T9[ebp]
	push	ecx
	lea	ecx, DWORD PTR _mTranslationDelta$12[ebp]
	call	??4XMMATRIX@DirectX@@QAEAAU01@ABU01@@Z	; DirectX::XMMATRIX::operator=
; Line 157
	lea	ecx, DWORD PTR _mTranslationDelta$12[ebp]
	movaps	xmm0, XMMWORD PTR _mTranslation$11[ebp]
	movaps	xmm1, XMMWORD PTR _mTranslation$11[ebp+16]
	movaps	xmm2, XMMWORD PTR _mTranslation$11[ebp+32]
	movaps	xmm3, XMMWORD PTR _mTranslation$11[ebp+48]
	call	?XMMatrixMultiply@DirectX@@YQ?AUXMMATRIX@1@U21@ABU21@@Z ; DirectX::XMMatrixMultiply
	movaps	XMMWORD PTR $T3[ebp+48], xmm3
	movaps	XMMWORD PTR $T3[ebp+32], xmm2
	movaps	XMMWORD PTR $T3[ebp+16], xmm1
	movaps	XMMWORD PTR $T3[ebp], xmm0
	mov	ecx, 16					; 00000010H
	lea	esi, DWORD PTR $T3[ebp]
	lea	edi, DWORD PTR $T8[ebp]
	rep movsd
	lea	edx, DWORD PTR $T8[ebp]
	push	edx
	lea	ecx, DWORD PTR _mTranslation$11[ebp]
	call	??4XMMATRIX@DirectX@@QAEAAU01@ABU01@@Z	; DirectX::XMMATRIX::operator=
; Line 159
	jmp	$LN1@HandleMess
$LN2@HandleMess:
; Line 161
	movss	xmm2, DWORD PTR __real@40a00000
	mulss	xmm2, DWORD PTR _fDeltaY$13[ebp]
	movss	xmm1, DWORD PTR __real@00000000
	movss	xmm0, DWORD PTR __real@00000000
	call	?XMMatrixTranslation@DirectX@@YQ?AUXMMATRIX@1@MMM@Z ; DirectX::XMMatrixTranslation
	movaps	XMMWORD PTR $T2[ebp+48], xmm3
	movaps	XMMWORD PTR $T2[ebp+32], xmm2
	movaps	XMMWORD PTR $T2[ebp+16], xmm1
	movaps	XMMWORD PTR $T2[ebp], xmm0
	mov	ecx, 16					; 00000010H
	lea	esi, DWORD PTR $T2[ebp]
	lea	edi, DWORD PTR $T7[ebp]
	rep movsd
	lea	eax, DWORD PTR $T7[ebp]
	push	eax
	lea	ecx, DWORD PTR _mTranslationDelta$12[ebp]
	call	??4XMMATRIX@DirectX@@QAEAAU01@ABU01@@Z	; DirectX::XMMATRIX::operator=
; Line 162
	lea	ecx, DWORD PTR _mTranslationDelta$12[ebp]
	movaps	xmm0, XMMWORD PTR _mTranslation$11[ebp]
	movaps	xmm1, XMMWORD PTR _mTranslation$11[ebp+16]
	movaps	xmm2, XMMWORD PTR _mTranslation$11[ebp+32]
	movaps	xmm3, XMMWORD PTR _mTranslation$11[ebp+48]
	call	?XMMatrixMultiply@DirectX@@YQ?AUXMMATRIX@1@U21@ABU21@@Z ; DirectX::XMMatrixMultiply
	movaps	XMMWORD PTR $T1[ebp+48], xmm3
	movaps	XMMWORD PTR $T1[ebp+32], xmm2
	movaps	XMMWORD PTR $T1[ebp+16], xmm1
	movaps	XMMWORD PTR $T1[ebp], xmm0
	mov	ecx, 16					; 00000010H
	lea	esi, DWORD PTR $T1[ebp]
	lea	edi, DWORD PTR $T6[ebp]
	rep movsd
	lea	ecx, DWORD PTR $T6[ebp]
	push	ecx
	lea	ecx, DWORD PTR _mTranslation$11[ebp]
	call	??4XMMATRIX@DirectX@@QAEAAU01@ABU01@@Z	; DirectX::XMMATRIX::operator=
$LN1@HandleMess:
; Line 165
	mov	ecx, DWORD PTR _this$[ebp]
	add	ecx, 128				; 00000080H
	movaps	xmm0, XMMWORD PTR _mTranslationDelta$12[ebp]
	movaps	xmm1, XMMWORD PTR _mTranslationDelta$12[ebp+16]
	movaps	xmm2, XMMWORD PTR _mTranslationDelta$12[ebp+32]
	movaps	xmm3, XMMWORD PTR _mTranslationDelta$12[ebp+48]
	call	?XMStoreFloat4x4@DirectX@@YQXPAUXMFLOAT4X4@1@UXMMATRIX@1@@Z ; DirectX::XMStoreFloat4x4
; Line 166
	mov	ecx, DWORD PTR _this$[ebp]
	add	ecx, 64					; 00000040H
	movaps	xmm0, XMMWORD PTR _mTranslation$11[ebp]
	movaps	xmm1, XMMWORD PTR _mTranslation$11[ebp+16]
	movaps	xmm2, XMMWORD PTR _mTranslation$11[ebp+32]
	movaps	xmm3, XMMWORD PTR _mTranslation$11[ebp+48]
	call	?XMStoreFloat4x4@DirectX@@YQXPAUXMFLOAT4X4@1@UXMMATRIX@1@@Z ; DirectX::XMStoreFloat4x4
; Line 169
	mov	edx, DWORD PTR _this$[ebp]
	mov	eax, DWORD PTR _iMouseX$[ebp]
	mov	DWORD PTR [edx+260], eax
; Line 170
	mov	ecx, DWORD PTR _this$[ebp]
	mov	edx, DWORD PTR _iMouseY$[ebp]
	mov	DWORD PTR [ecx+264], edx
$LN4@HandleMess:
; Line 172
	mov	eax, 1
	jmp	SHORT $LN16@HandleMess
$LN14@HandleMess:
; Line 175
	xor	eax, eax
$LN16@HandleMess:
; Line 176
	push	edx
	mov	ecx, ebp
	push	eax
	lea	edx, DWORD PTR $LN22@HandleMess
	call	@_RTC_CheckStackVars@8
	pop	eax
	pop	edx
	pop	edi
	pop	esi
	mov	ecx, DWORD PTR __$ArrayPad$[ebp]
	xor	ecx, ebp
	call	@__security_check_cookie@4
	mov	esp, ebp
	pop	ebp
	mov	esp, ebx
	pop	ebx
	ret	16					; 00000010H
	npad	1
$LN22@HandleMess:
	DD	2
	DD	$LN21@HandleMess
$LN21@HandleMess:
	DD	-96					; ffffffa0H
	DD	64					; 00000040H
	DD	$LN19@HandleMess
	DD	-176					; ffffff50H
	DD	64					; 00000040H
	DD	$LN20@HandleMess
$LN20@HandleMess:
	DB	109					; 0000006dH
	DB	84					; 00000054H
	DB	114					; 00000072H
	DB	97					; 00000061H
	DB	110					; 0000006eH
	DB	115					; 00000073H
	DB	108					; 0000006cH
	DB	97					; 00000061H
	DB	116					; 00000074H
	DB	105					; 00000069H
	DB	111					; 0000006fH
	DB	110					; 0000006eH
	DB	0
$LN19@HandleMess:
	DB	109					; 0000006dH
	DB	84					; 00000054H
	DB	114					; 00000072H
	DB	97					; 00000061H
	DB	110					; 0000006eH
	DB	115					; 00000073H
	DB	108					; 0000006cH
	DB	97					; 00000061H
	DB	116					; 00000074H
	DB	105					; 00000069H
	DB	111					; 0000006fH
	DB	110					; 0000006eH
	DB	68					; 00000044H
	DB	101					; 00000065H
	DB	108					; 0000006cH
	DB	116					; 00000074H
	DB	97					; 00000061H
	DB	0
	npad	1
$LN23@HandleMess:
	DD	$LN7@HandleMess
	DD	$LN13@HandleMess
	DD	$LN12@HandleMess
	DD	$LN9@HandleMess
	DD	$LN8@HandleMess
	DD	$LN11@HandleMess
	DD	$LN14@HandleMess
$LN18@HandleMess:
	DB	0
	DB	1
	DB	2
	DB	1
	DB	3
	DB	4
	DB	3
	DB	3
	DB	4
	DB	3
	DB	6
	DB	6
	DB	6
	DB	6
	DB	6
	DB	6
	DB	6
	DB	6
	DB	6
	DB	6
	DB	6
	DB	5
?HandleMessages@CD3DArcBall@@QAEJPAUHWND__@@IIJ@Z ENDP	; CD3DArcBall::HandleMessages
_TEXT	ENDS
; Function compile flags: /Odtp /RTCsu
_TEXT	SEGMENT
_this$ = -4						; size = 4
?OnEnd@CD3DArcBall@@QAEXXZ PROC				; CD3DArcBall::OnEnd
; _this$ = ecx
; File d:\engine class\assignment 1\scratch\dxsse\dxut\optional\dxutcamera.cpp
; Line 93
	push	ebp
	mov	ebp, esp
	push	ecx
	mov	DWORD PTR [ebp-4], -858993460		; ccccccccH
	mov	DWORD PTR _this$[ebp], ecx
; Line 94
	mov	eax, DWORD PTR _this$[ebp]
	mov	BYTE PTR [eax+256], 0
; Line 95
	mov	esp, ebp
	pop	ebp
	ret	0
?OnEnd@CD3DArcBall@@QAEXXZ ENDP				; CD3DArcBall::OnEnd
_TEXT	ENDS
; Function compile flags: /Odtp /RTCsu
_TEXT	SEGMENT
$T1 = -160						; size = 16
$T2 = -144						; size = 16
_result$3 = -128					; size = 16
$T4 = -112						; size = 16
_qdown$5 = -96						; size = 16
$T6 = -80						; size = 16
_down$7 = -64						; size = 16
_curr$8 = -32						; size = 16
_this$ = -4						; size = 4
_nX$ = 8						; size = 4
_nY$ = 12						; size = 4
?OnMove@CD3DArcBall@@QAEXHH@Z PROC			; CD3DArcBall::OnMove
; _this$ = ecx
; File d:\engine class\assignment 1\scratch\dxsse\dxut\optional\dxutcamera.cpp
; Line 76
	push	ebx
	mov	ebx, esp
	sub	esp, 8
	and	esp, -16				; fffffff0H
	add	esp, 4
	push	ebp
	mov	ebp, DWORD PTR [ebx+4]
	mov	DWORD PTR [esp+4], ebp
	mov	ebp, esp
	sub	esp, 160				; 000000a0H
	push	edi
	push	ecx
	lea	edi, DWORD PTR [ebp-160]
	mov	ecx, 40					; 00000028H
	mov	eax, -858993460				; ccccccccH
	rep stosd
	pop	ecx
	mov	DWORD PTR _this$[ebp], ecx
; Line 77
	mov	eax, DWORD PTR _this$[ebp]
	movzx	ecx, BYTE PTR [eax+256]
	test	ecx, ecx
	je	$LN1@OnMove
; Line 79
	cvtsi2ss xmm0, DWORD PTR _nY$[ebx]
	push	ecx
	movss	DWORD PTR [esp], xmm0
	cvtsi2ss xmm0, DWORD PTR _nX$[ebx]
	push	ecx
	movss	DWORD PTR [esp], xmm0
	lea	edx, DWORD PTR _curr$8[ebp]
	push	edx
	mov	ecx, DWORD PTR _this$[ebp]
	call	?ScreenToVector@CD3DArcBall@@IAE?AT__m128@@MM@Z ; CD3DArcBall::ScreenToVector
; Line 80
	movaps	xmm0, XMMWORD PTR _curr$8[ebp]
	mov	ecx, DWORD PTR _this$[ebp]
	add	ecx, 280				; 00000118H
	call	?XMStoreFloat3@DirectX@@YQXPAUXMFLOAT3@1@T__m128@@@Z ; DirectX::XMStoreFloat3
; Line 82
	mov	ecx, DWORD PTR _this$[ebp]
	add	ecx, 268				; 0000010cH
	call	?XMLoadFloat3@DirectX@@YQ?AT__m128@@PBUXMFLOAT3@1@@Z ; DirectX::XMLoadFloat3
	movaps	XMMWORD PTR $T6[ebp], xmm0
	movaps	xmm0, XMMWORD PTR $T6[ebp]
	movaps	XMMWORD PTR _down$7[ebp], xmm0
; Line 83
	mov	ecx, DWORD PTR _this$[ebp]
	add	ecx, 224				; 000000e0H
	call	?XMLoadFloat4@DirectX@@YQ?AT__m128@@PBUXMFLOAT4@1@@Z ; DirectX::XMLoadFloat4
	movaps	XMMWORD PTR $T4[ebp], xmm0
	movaps	xmm0, XMMWORD PTR $T4[ebp]
	movaps	XMMWORD PTR _qdown$5[ebp], xmm0
; Line 85
	movaps	xmm1, XMMWORD PTR _curr$8[ebp]
	movaps	xmm0, XMMWORD PTR _down$7[ebp]
	call	?QuatFromBallPoints@CD3DArcBall@@SA?AT__m128@@T2@0@Z ; CD3DArcBall::QuatFromBallPoints
	movaps	XMMWORD PTR $T2[ebp], xmm0
	movaps	xmm1, XMMWORD PTR $T2[ebp]
	movaps	xmm0, XMMWORD PTR _qdown$5[ebp]
	call	?XMQuaternionMultiply@DirectX@@YQ?AT__m128@@T2@0@Z ; DirectX::XMQuaternionMultiply
	movaps	XMMWORD PTR $T1[ebp], xmm0
	movaps	xmm0, XMMWORD PTR $T1[ebp]
	movaps	XMMWORD PTR _result$3[ebp], xmm0
; Line 86
	movaps	xmm0, XMMWORD PTR _result$3[ebp]
	mov	ecx, DWORD PTR _this$[ebp]
	add	ecx, 240				; 000000f0H
	call	?XMStoreFloat4@DirectX@@YQXPAUXMFLOAT4@1@T__m128@@@Z ; DirectX::XMStoreFloat4
$LN1@OnMove:
; Line 88
	push	edx
	mov	ecx, ebp
	push	eax
	lea	edx, DWORD PTR $LN6@OnMove
	call	@_RTC_CheckStackVars@8
	pop	eax
	pop	edx
	pop	edi
	mov	esp, ebp
	pop	ebp
	mov	esp, ebx
