; Listing generated by Microsoft (R) Optimizing Compiler Version 18.00.30501.0 

	TITLE	D:\Engine Class\Assignment 1\New Scratch\DXUT\Optional\DXUTgui.cpp
	.686P
	.XMM
	include listing.inc
	.model	flat

INCLUDELIB MSVCRTD
INCLUDELIB OLDNAMES

PUBLIC	?s_fTimeRefresh@CDXUTDialog@@0NA		; CDXUTDialog::s_fTimeRefresh
PUBLIC	?s_pControlFocus@CDXUTDialog@@0PAVCDXUTControl@@A ; CDXUTDialog::s_pControlFocus
PUBLIC	?s_pControlPressed@CDXUTDialog@@0PAVCDXUTControl@@A ; CDXUTDialog::s_pControlPressed
PUBLIC	?s_bHideCaret@CDXUTEditBox@@1_NA		; CDXUTEditBox::s_bHideCaret
PUBLIC	?g_strUIEffectFile@@3PADA			; g_strUIEffectFile
PUBLIC	?g_pFontBuffer11@@3PAUID3D11Buffer@@A		; g_pFontBuffer11
PUBLIC	?g_FontBufferBytes11@@3IA			; g_FontBufferBytes11
PUBLIC	?g_pFont11@@3PAUID3D11ShaderResourceView@@A	; g_pFont11
PUBLIC	?g_pInputLayout11@@3PAUID3D11InputLayout@@A	; g_pInputLayout11
PUBLIC	_WKPDID_D3DDebugObjectName
_BSS	SEGMENT
?s_fTimeRefresh@CDXUTDialog@@0NA DQ 01H DUP (?)		; CDXUTDialog::s_fTimeRefresh
?s_pControlFocus@CDXUTDialog@@0PAVCDXUTControl@@A DD 01H DUP (?) ; CDXUTDialog::s_pControlFocus
?s_pControlPressed@CDXUTDialog@@0PAVCDXUTControl@@A DD 01H DUP (?) ; CDXUTDialog::s_pControlPressed
?s_bHideCaret@CDXUTEditBox@@1_NA DB 01H DUP (?)		; CDXUTEditBox::s_bHideCaret
	ALIGN	4

?g_pFontBuffer11@@3PAUID3D11Buffer@@A DD 01H DUP (?)	; g_pFontBuffer11
?g_FontBufferBytes11@@3IA DD 01H DUP (?)		; g_FontBufferBytes11
?g_pFont11@@3PAUID3D11ShaderResourceView@@A DD 01H DUP (?) ; g_pFont11
?g_pInputLayout11@@3PAUID3D11InputLayout@@A DD 01H DUP (?) ; g_pInputLayout11
_BSS	ENDS
;	COMDAT _WKPDID_D3DDebugObjectName
CONST	SEGMENT
_WKPDID_D3DDebugObjectName DD 0429b8c22H
	DW	09188H
	DW	04b0cH
	DB	087H
	DB	042H
	DB	0acH
	DB	0b0H
	DB	0bfH
	DB	085H
	DB	0c2H
	DB	00H
CONST	ENDS
_DATA	SEGMENT
?g_strUIEffectFile@@3PADA DB 'Texture2D g_Texture;SamplerState Sampler{  '
	DB	'  Filter = MIN_MAG_MIP_LINEAR;    AddressU = Wrap;    Address'
	DB	'V = Wrap;};BlendState UIBlend{    AlphaToCoverageEnable = FAL'
	DB	'SE;    BlendEnable[0] = TRUE;    SrcBlend = SRC_ALPHA;    Des'
	DB	'tBlend = INV_SRC_ALPHA;    BlendOp = ADD;    SrcBlendAlpha = '
	DB	'ONE;    DestBlendAlpha = ZERO;    BlendOpAlpha = ADD;    Rend'
	DB	'erTargetWriteMask[0] = 0x0F;};BlendState NoBlending{    Blend'
	DB	'Enable[0] = FALSE;    RenderTargetWriteMask[0] = 0x0F;};Depth'
	DB	'StencilState DisableDepth{    DepthEnable = false;};DepthSten'
	DB	'cilState EnableDepth{    DepthEnable = true;};struct VS_OUTPU'
	DB	'T{    float4 Pos : POSITION;    float4 Dif : COLOR;    float2'
	DB	' Tex : TEXCOORD;};VS_OUTPUT VS( float3 vPos : POSITION,      '
	DB	'        float4 Dif : COLOR,              float2 vTexCoord0 : '
	DB	'TEXCOORD ){    VS_OUTPUT Output;    Output.Pos = float4( vPos'
	DB	', 1.0f );    Output.Dif = Dif;    Output.Tex = vTexCoord0;   '
	DB	' return Output;}float4 PS( VS_OUTPUT In ) : SV_Target{    ret'
	DB	'urn g_Texture.Sample( Sampler, In.Tex ) * In.Dif;}float4 PSUn'
	DB	'tex( VS_OUTPUT In ) : SV_Target{    return In.Dif;}technique1'
	DB	'0 RenderUI{    pass P0    {        SetVertexShader( CompileSh'
	DB	'ader( vs_4_0, VS() ) );        SetGeometryShader( NULL );    '
	DB	'    SetPixelShader( CompileShader( ps_4_0, PS() ) );        S'
	DB	'etDepthStencilState( DisableDepth, 0 );        SetBlendState('
	DB	' UIBlend, float4( 0.0f, 0.0f, 0.0f, 0.0f ), 0xFFFFFFFF );    '
	DB	'}}technique10 RenderUIUntex{    pass P0    {        SetVertex'
	DB	'Shader( CompileShader( vs_4_0, VS() ) );        SetGeometrySh'
	DB	'ader( NULL );        SetPixelShader( CompileShader( ps_4_0, P'
	DB	'SUntex() ) );        SetDepthStencilState( DisableDepth, 0 );'
	DB	'        SetBlendState( UIBlend, float4( 0.0f, 0.0f, 0.0f, 0.0'
	DB	'f ), 0xFFFFFFFF );    }}technique10 RestoreState{    pass P0 '
	DB	'   {        SetDepthStencilState( EnableDepth, 0 );        Se'
	DB	'tBlendState( NoBlending, float4( 0.0f, 0.0f, 0.0f, 0.0f ), 0x'
	DB	'FFFFFFFF );    }}', 00H			; g_strUIEffectFile
_DATA	ENDS
CONST	SEGMENT
$SG160768 DB	'm', 00H, '_', 00H, 'p', 00H, 'M', 00H, 'a', 00H, 'n', 00H
	DB	'a', 00H, 'g', 00H, 'e', 00H, 'r', 00H, '-', 00H, '>', 00H, 'G'
	DB	00H, 'e', 00H, 't', 00H, 'D', 00H, '3', 00H, 'D', 00H, '1', 00H
	DB	'1', 00H, 'D', 00H, 'e', 00H, 'v', 00H, 'i', 00H, 'c', 00H, 'e'
	DB	00H, '(', 00H, ')', 00H, ' ', 00H, '&', 00H, '&', 00H, ' ', 00H
	DB	'L', 00H, '"', 00H, 'T', 00H, 'o', 00H, ' ', 00H, 'f', 00H, 'i'
	DB	00H, 'x', 00H, ' ', 00H, 'h', 00H, 'o', 00H, 'o', 00H, 'k', 00H
	DB	' ', 00H, 'u', 00H, 'p', 00H, ' ', 00H, 'C', 00H, 'D', 00H, 'X'
	DB	00H, 'U', 00H, 'T', 00H, 'D', 00H, 'i', 00H, 'a', 00H, 'l', 00H
	DB	'o', 00H, 'g', 00H, 'R', 00H, 'e', 00H, 's', 00H, 'o', 00H, 'u'
	DB	00H, 'r', 00H, 'c', 00H, 'e', 00H, 'M', 00H, 'a', 00H, 'n', 00H
	DB	'a', 00H, 'g', 00H, 'e', 00H, 'r', 00H, ' ', 00H, 't', 00H, 'o'
	DB	00H, ' ', 00H, 'd', 00H, 'e', 00H, 'v', 00H, 'i', 00H, 'c', 00H
	DB	'e', 00H, ' ', 00H, 'c', 00H, 'a', 00H, 'l', 00H, 'l', 00H, 'b'
	DB	00H, 'a', 00H, 'c', 00H, 'k', 00H, 's', 00H, '.', 00H, ' ', 00H
	DB	' ', 00H, 'S', 00H, 'e', 00H, 'e', 00H, ' ', 00H, 'c', 00H, 'o'
	DB	00H, 'm', 00H, 'm', 00H, 'e', 00H, 'n', 00H, 't', 00H, 's', 00H
	DB	' ', 00H, 'f', 00H, 'o', 00H, 'r', 00H, ' ', 00H, 'd', 00H, 'e'
	DB	00H, 't', 00H, 'a', 00H, 'i', 00H, 'l', 00H, 's', 00H, '"', 00H
	DB	00H, 00H
$SG160800 DB	' ', 00H, '(', 00H, 'M', 00H, 'i', 00H, 'n', 00H, 'i', 00H
	DB	'm', 00H, 'i', 00H, 'z', 00H, 'e', 00H, 'd', 00H, ')', 00H, 00H
	DB	00H
	ORG $+2
$SG161846 DB	'D', 00H, 'X', 00H, 'U', 00H, 'T', 00H, 'g', 00H, 'u', 00H
	DB	'i', 00H, '.', 00H, 'c', 00H, 'p', 00H, 'p', 00H, 00H, 00H
$SG161847 DB	'p', 00H, 'C', 00H, 'o', 00H, 'n', 00H, 't', 00H, 'r', 00H
	DB	'o', 00H, 'l', 00H, ' ', 00H, '!', 00H, '=', 00H, ' ', 00H, '0'
	DB	00H, 00H, 00H
$SG161849 DB	'D', 00H, 'X', 00H, 'U', 00H, 'T', 00H, 'g', 00H, 'u', 00H
	DB	'i', 00H, '.', 00H, 'c', 00H, 'p', 00H, 'p', 00H, 00H, 00H
$SG161850 DB	'p', 00H, 'C', 00H, 'o', 00H, 'n', 00H, 't', 00H, 'r', 00H
	DB	'o', 00H, 'l', 00H, ' ', 00H, '!', 00H, '=', 00H, ' ', 00H, '0'
	DB	00H, 00H, 00H
$SG161968 DB	'A', 00H, 'r', 00H, 'i', 00H, 'a', 00H, 'l', 00H, 00H, 00H
$SG160830 DB	'T', 00H, 'o', 00H, ' ', 00H, 'f', 00H, 'i', 00H, 'x', 00H
	DB	' ', 00H, 'c', 00H, 'a', 00H, 'l', 00H, 'l', 00H, ' ', 00H, 'C'
	DB	00H, 'D', 00H, 'X', 00H, 'U', 00H, 'T', 00H, 'D', 00H, 'i', 00H
	DB	'a', 00H, 'l', 00H, 'o', 00H, 'g', 00H, ':', 00H, ':', 00H, 'I'
	DB	00H, 'n', 00H, 'i', 00H, 't', 00H, '(', 00H, ')', 00H, ' ', 00H
	DB	'f', 00H, 'i', 00H, 'r', 00H, 's', 00H, 't', 00H, '.', 00H, ' '
	DB	00H, ' ', 00H, 'S', 00H, 'e', 00H, 'e', 00H, ' ', 00H, 'c', 00H
	DB	'o', 00H, 'm', 00H, 'm', 00H, 'e', 00H, 'n', 00H, 't', 00H, 's'
	DB	00H, ' ', 00H, 'f', 00H, 'o', 00H, 'r', 00H, ' ', 00H, 'd', 00H
	DB	'e', 00H, 't', 00H, 'a', 00H, 'i', 00H, 'l', 00H, 's', 00H, '.'
	DB	00H, 00H, 00H
$SG160831 DB	'D', 00H, 'X', 00H, 'U', 00H, 'T', 00H, 'g', 00H, 'u', 00H
	DB	'i', 00H, '.', 00H, 'c', 00H, 'p', 00H, 'p', 00H, 00H, 00H
$SG160270 DB	'DXUTgui.cpp', 00H
$SG160832 DB	'm', 00H, '_', 00H, 'p', 00H, 'M', 00H, 'a', 00H, 'n', 00H
	DB	'a', 00H, 'g', 00H, 'e', 00H, 'r', 00H, ' ', 00H, '&', 00H, '&'
	DB	00H, ' ', 00H, 'L', 00H, '"', 00H, 'T', 00H, 'o', 00H, ' ', 00H
	DB	'f', 00H, 'i', 00H, 'x', 00H, ' ', 00H, 'c', 00H, 'a', 00H, 'l'
	DB	00H, 'l', 00H, ' ', 00H, 'C', 00H, 'D', 00H, 'X', 00H, 'U', 00H
	DB	'T', 00H, 'D', 00H, 'i', 00H, 'a', 00H, 'l', 00H, 'o', 00H, 'g'
	DB	00H, ':', 00H, ':', 00H, 'I', 00H, 'n', 00H, 'i', 00H, 't', 00H
	DB	'(', 00H, ')', 00H, ' ', 00H, 'f', 00H, 'i', 00H, 'r', 00H, 's'
	DB	00H, 't', 00H, '.', 00H, ' ', 00H, ' ', 00H, 'S', 00H, 'e', 00H
	DB	'e', 00H, ' ', 00H, 'c', 00H, 'o', 00H, 'm', 00H, 'm', 00H, 'e'
	DB	00H, 'n', 00H, 't', 00H, 's', 00H, ' ', 00H, 'f', 00H, 'o', 00H
	DB	'r', 00H, ' ', 00H, 'd', 00H, 'e', 00H, 't', 00H, 'a', 00H, 'i'
	DB	00H, 'l', 00H, 's', 00H, '.', 00H, '"', 00H, 00H, 00H
	ORG $+2
$SG160851 DB	'T', 00H, 'o', 00H, ' ', 00H, 'f', 00H, 'i', 00H, 'x', 00H
	DB	' ', 00H, 't', 00H, 'h', 00H, 'i', 00H, 's', 00H, ',', 00H, ' '
	DB	00H, 'c', 00H, 'a', 00H, 'l', 00H, 'l', 00H, ' ', 00H, 'C', 00H
	DB	'D', 00H, 'X', 00H, 'U', 00H, 'T', 00H, 'D', 00H, 'i', 00H, 'a'
	DB	00H, 'l', 00H, 'o', 00H, 'g', 00H, ':', 00H, ':', 00H, 'I', 00H
	DB	'n', 00H, 'i', 00H, 't', 00H, '(', 00H, ')', 00H, ' ', 00H, 'f'
	DB	00H, 'i', 00H, 'r', 00H, 's', 00H, 't', 00H, '.', 00H, ' ', 00H
	DB	' ', 00H, 'S', 00H, 'e', 00H, 'e', 00H, ' ', 00H, 'c', 00H, 'o'
	DB	00H, 'm', 00H, 'm', 00H, 'e', 00H, 'n', 00H, 't', 00H, 's', 00H
	DB	' ', 00H, 'f', 00H, 'o', 00H, 'r', 00H, ' ', 00H, 'd', 00H, 'e'
	DB	00H, 't', 00H, 'a', 00H, 'i', 00H, 'l', 00H, 's', 00H, '.', 00H
	DB	00H, 00H
$SG160852 DB	'D', 00H, 'X', 00H, 'U', 00H, 'T', 00H, 'g', 00H, 'u', 00H
	DB	'i', 00H, '.', 00H, 'c', 00H, 'p', 00H, 'p', 00H, 00H, 00H
$SG160853 DB	'm', 00H, '_', 00H, 'p', 00H, 'M', 00H, 'a', 00H, 'n', 00H
	DB	'a', 00H, 'g', 00H, 'e', 00H, 'r', 00H, ' ', 00H, '&', 00H, '&'
	DB	00H, ' ', 00H, 'L', 00H, '"', 00H, 'T', 00H, 'o', 00H, ' ', 00H
	DB	'f', 00H, 'i', 00H, 'x', 00H, ' ', 00H, 't', 00H, 'h', 00H, 'i'
	DB	00H, 's', 00H, ',', 00H, ' ', 00H, 'c', 00H, 'a', 00H, 'l', 00H
	DB	'l', 00H, ' ', 00H, 'C', 00H, 'D', 00H, 'X', 00H, 'U', 00H, 'T'
	DB	00H, 'D', 00H, 'i', 00H, 'a', 00H, 'l', 00H, 'o', 00H, 'g', 00H
	DB	':', 00H, ':', 00H, 'I', 00H, 'n', 00H, 'i', 00H, 't', 00H, '('
	DB	00H, ')', 00H, ' ', 00H, 'f', 00H, 'i', 00H, 'r', 00H, 's', 00H
	DB	't', 00H, '.', 00H, ' ', 00H, ' ', 00H, 'S', 00H, 'e', 00H, 'e'
	DB	00H, ' ', 00H, 'c', 00H, 'o', 00H, 'm', 00H, 'm', 00H, 'e', 00H
	DB	'n', 00H, 't', 00H, 's', 00H, ' ', 00H, 'f', 00H, 'o', 00H, 'r'
	DB	00H, ' ', 00H, 'd', 00H, 'e', 00H, 't', 00H, 'a', 00H, 'i', 00H
	DB	'l', 00H, 's', 00H, '.', 00H, '"', 00H, 00H, 00H
	ORG $+2
$SG160869 DB	'D', 00H, 'X', 00H, 'U', 00H, 'T', 00H, 'g', 00H, 'u', 00H
	DB	'i', 00H, '.', 00H, 'c', 00H, 'p', 00H, 'p', 00H, 00H, 00H
$SG160275 DB	'DXUTgui.cpp', 00H
$SG160868 DB	'T', 00H, 'o', 00H, ' ', 00H, 'f', 00H, 'i', 00H, 'x', 00H
	DB	' ', 00H, 't', 00H, 'h', 00H, 'i', 00H, 's', 00H, ',', 00H, ' '
	DB	00H, 'c', 00H, 'a', 00H, 'l', 00H, 'l', 00H, ' ', 00H, 'C', 00H
	DB	'D', 00H, 'X', 00H, 'U', 00H, 'T', 00H, 'D', 00H, 'i', 00H, 'a'
	DB	00H, 'l', 00H, 'o', 00H, 'g', 00H, ':', 00H, ':', 00H, 'I', 00H
	DB	'n', 00H, 'i', 00H, 't', 00H, '(', 00H, ')', 00H, ' ', 00H, 'f'
	DB	00H, 'i', 00H, 'r', 00H, 's', 00H, 't', 00H, '.', 00H, ' ', 00H
	DB	' ', 00H, 'S', 00H, 'e', 00H, 'e', 00H, ' ', 00H, 'c', 00H, 'o'
	DB	00H, 'm', 00H, 'm', 00H, 'e', 00H, 'n', 00H, 't', 00H, 's', 00H
	DB	' ', 00H, 'f', 00H, 'o', 00H, 'r', 00H, ' ', 00H, 'd', 00H, 'e'
	DB	00H, 't', 00H, 'a', 00H, 'i', 00H, 'l', 00H, 's', 00H, '.', 00H
	DB	00H, 00H
$SG160870 DB	'm', 00H, '_', 00H, 'p', 00H, 'M', 00H, 'a', 00H, 'n', 00H
	DB	'a', 00H, 'g', 00H, 'e', 00H, 'r', 00H, ' ', 00H, '&', 00H, '&'
	DB	00H, ' ', 00H, 'L', 00H, '"', 00H, 'T', 00H, 'o', 00H, ' ', 00H
	DB	'f', 00H, 'i', 00H, 'x', 00H, ' ', 00H, 't', 00H, 'h', 00H, 'i'
	DB	00H, 's', 00H, ',', 00H, ' ', 00H, 'c', 00H, 'a', 00H, 'l', 00H
	DB	'l', 00H, ' ', 00H, 'C', 00H, 'D', 00H, 'X', 00H, 'U', 00H, 'T'
	DB	00H, 'D', 00H, 'i', 00H, 'a', 00H, 'l', 00H, 'o', 00H, 'g', 00H
	DB	':', 00H, ':', 00H, 'I', 00H, 'n', 00H, 'i', 00H, 't', 00H, '('
	DB	00H, ')', 00H, ' ', 00H, 'f', 00H, 'i', 00H, 'r', 00H, 's', 00H
	DB	't', 00H, '.', 00H, ' ', 00H, ' ', 00H, 'S', 00H, 'e', 00H, 'e'
	DB	00H, ' ', 00H, 'c', 00H, 'o', 00H, 'm', 00H, 'm', 00H, 'e', 00H
	DB	'n', 00H, 't', 00H, 's', 00H, ' ', 00H, 'f', 00H, 'o', 00H, 'r'
	DB	00H, ' ', 00H, 'd', 00H, 'e', 00H, 't', 00H, 'a', 00H, 'i', 00H
	DB	'l', 00H, 's', 00H, '.', 00H, '"', 00H, 00H, 00H
	ORG $+2
$SG161946 DB	'D', 00H, 'X', 00H, 'U', 00H, 'T', 00H, 'g', 00H, 'u', 00H
	DB	'i', 00H, '.', 00H, 'c', 00H, 'p', 00H, 'p', 00H, 00H, 00H
$SG161317 DB	'DXUTgui.cpp', 00H
$SG161945 DB	'C', 00H, 'D', 00H, 'X', 00H, 'U', 00H, 'T', 00H, 'D', 00H
	DB	'i', 00H, 'a', 00H, 'l', 00H, 'o', 00H, 'g', 00H, ':', 00H, ' '
	DB	00H, 'M', 00H, 'u', 00H, 'l', 00H, 't', 00H, 'i', 00H, 'p', 00H
	DB	'l', 00H, 'e', 00H, ' ', 00H, 'd', 00H, 'i', 00H, 'a', 00H, 'l'
	DB	00H, 'o', 00H, 'g', 00H, 's', 00H, ' ', 00H, 'a', 00H, 'r', 00H
	DB	'e', 00H, ' ', 00H, 'i', 00H, 'm', 00H, 'p', 00H, 'r', 00H, 'o'
	DB	00H, 'p', 00H, 'e', 00H, 'r', 00H, 'l', 00H, 'y', 00H, ' ', 00H
	DB	'c', 00H, 'h', 00H, 'a', 00H, 'i', 00H, 'n', 00H, 'e', 00H, 'd'
	DB	00H, ' ', 00H, 't', 00H, 'o', 00H, 'g', 00H, 'e', 00H, 't', 00H
	DB	'h', 00H, 'e', 00H, 'r', 00H, 00H, 00H
$SG160265 DB	'U', 00H, 'I', 00H, '\', 00H, 'F', 00H, 'o', 00H, 'n', 00H
	DB	't', 00H, '.', 00H, 'd', 00H, 'd', 00H, 's', 00H, 00H, 00H
$SG162346 DB	'vs_4_0_level_9_1', 00H
	ORG $+3
$SG160269 DB	'D', 00H, 'X', 00H, 'U', 00H, 'T', 00H, 'F', 00H, 'i', 00H
	DB	'n', 00H, 'd', 00H, 'D', 00H, 'X', 00H, 'S', 00H, 'D', 00H, 'K'
	DB	00H, 'M', 00H, 'e', 00H, 'd', 00H, 'i', 00H, 'a', 00H, 'F', 00H
	DB	'i', 00H, 'l', 00H, 'e', 00H, 'C', 00H, 'c', 00H, 'h', 00H, '('
	DB	00H, ' ', 00H, 's', 00H, 't', 00H, 'r', 00H, ',', 00H, ' ', 00H
	DB	'M', 00H, 'A', 00H, 'X', 00H, '_', 00H, 'P', 00H, 'A', 00H, 'T'
	DB	00H, 'H', 00H, ',', 00H, ' ', 00H, 'L', 00H, '"', 00H, 'U', 00H
	DB	'I', 00H, '\', 00H, '\', 00H, 'F', 00H, 'o', 00H, 'n', 00H, 't'
	DB	00H, '.', 00H, 'd', 00H, 'd', 00H, 's', 00H, '"', 00H, ' ', 00H
	DB	')', 00H, 00H, 00H
$SG164370 DB	'D', 00H, 'X', 00H, 'U', 00H, 'T', 00H, 'g', 00H, 'u', 00H
	DB	'i', 00H, '.', 00H, 'c', 00H, 'p', 00H, 'p', 00H, 00H, 00H
$SG160274 DB	'C', 00H, 'r', 00H, 'e', 00H, 'a', 00H, 't', 00H, 'e', 00H
	DB	'D', 00H, 'D', 00H, 'S', 00H, 'T', 00H, 'e', 00H, 'x', 00H, 't'
	DB	00H, 'u', 00H, 'r', 00H, 'e', 00H, 'F', 00H, 'r', 00H, 'o', 00H
	DB	'm', 00H, 'F', 00H, 'i', 00H, 'l', 00H, 'e', 00H, '(', 00H, ' '
	DB	00H, 'p', 00H, 'd', 00H, '3', 00H, 'd', 00H, '1', 00H, '1', 00H
	DB	'D', 00H, 'e', 00H, 'v', 00H, 'i', 00H, 'c', 00H, 'e', 00H, ','
	DB	00H, ' ', 00H, 's', 00H, 't', 00H, 'r', 00H, ',', 00H, ' ', 00H
	DB	'n', 00H, 'u', 00H, 'l', 00H, 'l', 00H, 'p', 00H, 't', 00H, 'r'
	DB	00H, ',', 00H, ' ', 00H, '&', 00H, 'g', 00H, '_', 00H, 'p', 00H
	DB	'F', 00H, 'o', 00H, 'n', 00H, 't', 00H, '1', 00H, '1', 00H, ' '
	DB	00H, ')', 00H, 00H, 00H
	ORG $+2
$SG164371 DB	'n', 00H, 'C', 00H, 'P', 00H, ' ', 00H, '>', 00H, '=', 00H
	DB	' ', 00H, '0', 00H, ' ', 00H, '&', 00H, '&', 00H, ' ', 00H, 'n'
	DB	00H, 'C', 00H, 'P', 00H, ' ', 00H, '<', 00H, '=', 00H, ' ', 00H
	DB	'm', 00H, '_', 00H, 'B', 00H, 'u', 00H, 'f', 00H, 'f', 00H, 'e'
	DB	00H, 'r', 00H, '.', 00H, 'G', 00H, 'e', 00H, 't', 00H, 'T', 00H
	DB	'e', 00H, 'x', 00H, 't', 00H, 'S', 00H, 'i', 00H, 'z', 00H, 'e'
	DB	00H, '(', 00H, ')', 00H, 00H, 00H
$SG161316 DB	'p', 00H, 'C', 00H, 'o', 00H, 'n', 00H, 't', 00H, 'r', 00H
	DB	'o', 00H, 'l', 00H, '-', 00H, '>', 00H, 'O', 00H, 'n', 00H, 'I'
	DB	00H, 'n', 00H, 'i', 00H, 't', 00H, '(', 00H, ')', 00H, 00H, 00H
	ORG $+2
$SG164394 DB	'D', 00H, 'X', 00H, 'U', 00H, 'T', 00H, 'g', 00H, 'u', 00H
	DB	'i', 00H, '.', 00H, 'c', 00H, 'p', 00H, 'p', 00H, 00H, 00H
$SG164395 DB	'w', 00H, 's', 00H, 'z', 00H, 'T', 00H, 'e', 00H, 'x', 00H
	DB	't', 00H, 00H, 00H
$SG163371 DB	'n', 00H, 'e', 00H, 'w', 00H, 00H, 00H
$SG162347 DB	'VS', 00H
	ORG $+1
$SG163372 DB	'D', 00H, 'X', 00H, 'U', 00H, 'T', 00H, 'g', 00H, 'u', 00H
	DB	'i', 00H, '.', 00H, 'c', 00H, 'p', 00H, 'p', 00H, 00H, 00H
$SG162348 DB	'none', 00H
	ORG $+3
$SG162352 DB	'D', 00H, '3', 00H, 'D', 00H, 'C', 00H, 'o', 00H, 'm', 00H
	DB	'p', 00H, 'i', 00H, 'l', 00H, 'e', 00H, '(', 00H, ' ', 00H, 'g'
	DB	00H, '_', 00H, 's', 00H, 't', 00H, 'r', 00H, 'U', 00H, 'I', 00H
	DB	'E', 00H, 'f', 00H, 'f', 00H, 'e', 00H, 'c', 00H, 't', 00H, 'F'
	DB	00H, 'i', 00H, 'l', 00H, 'e', 00H, ',', 00H, ' ', 00H, 'g', 00H
	DB	'_', 00H, 'u', 00H, 'U', 00H, 'I', 00H, 'E', 00H, 'f', 00H, 'f'
	DB	00H, 'e', 00H, 'c', 00H, 't', 00H, 'F', 00H, 'i', 00H, 'l', 00H
	DB	'e', 00H, 'S', 00H, 'i', 00H, 'z', 00H, 'e', 00H, ',', 00H, ' '
	DB	00H, '"', 00H, 'n', 00H, 'o', 00H, 'n', 00H, 'e', 00H, '"', 00H
	DB	',', 00H, ' ', 00H, 'n', 00H, 'u', 00H, 'l', 00H, 'l', 00H, 'p'
	DB	00H, 't', 00H, 'r', 00H, ',', 00H, ' ', 00H, 'n', 00H, 'u', 00H
	DB	'l', 00H, 'l', 00H, 'p', 00H, 't', 00H, 'r', 00H, ',', 00H, ' '
	DB	00H, '"', 00H, 'V', 00H, 'S', 00H, '"', 00H, ',', 00H, ' ', 00H
	DB	'"', 00H, 'v', 00H, 's', 00H, '_', 00H, '4', 00H, '_', 00H, '0'
	DB	00H, '_', 00H, 'l', 00H, 'e', 00H, 'v', 00H, 'e', 00H, 'l', 00H
	DB	'_', 00H, '9', 00H, '_', 00H, '1', 00H, '"', 00H, ',', 00H, ' '
	DB	00H, 'D', 00H, '3', 00H, 'D', 00H, '1', 00H, '0', 00H, '_', 00H
	DB	'S', 00H, 'H', 00H, 'A', 00H, 'D', 00H, 'E', 00H, 'R', 00H, '_'
	DB	00H, 'E', 00H, 'N', 00H, 'A', 00H, 'B', 00H, 'L', 00H, 'E', 00H
	DB	'_', 00H, 'B', 00H, 'A', 00H, 'C', 00H, 'K', 00H, 'W', 00H, 'A'
	DB	00H, 'R', 00H, 'D', 00H, 'S', 00H, '_', 00H, 'C', 00H, 'O', 00H
	DB	'M', 00H, 'P', 00H, 'A', 00H, 'T', 00H, 'I', 00H, 'B', 00H, 'I'
	DB	00H, 'L', 00H, 'I', 00H, 'T', 00H, 'Y', 00H, ',', 00H, ' ', 00H
	DB	'0', 00H, ',', 00H, ' ', 00H, '&', 00H, 'p', 00H, 'V', 00H, 'S'
	DB	00H, 'B', 00H, 'l', 00H, 'o', 00H, 'b', 00H, ',', 00H, ' ', 00H
	DB	'n', 00H, 'u', 00H, 'l', 00H, 'l', 00H, 'p', 00H, 't', 00H, 'r'
	DB	00H, ' ', 00H, ')', 00H, 00H, 00H
$SG161328 DB	'C', 00H, 'D', 00H, 'X', 00H, 'U', 00H, 'T', 00H, 'D', 00H
	DB	'i', 00H, 'a', 00H, 'l', 00H, 'o', 00H, 'g', 00H, ':', 00H, ':'
	DB	00H, 'I', 00H, 'n', 00H, 'i', 00H, 't', 00H, 'C', 00H, 'o', 00H
	DB	'n', 00H, 't', 00H, 'r', 00H, 'o', 00H, 'l', 00H, 00H, 00H
	ORG $+2
$SG162353 DB	'DXUTgui.cpp', 00H
$SG161329 DB	'D', 00H, 'X', 00H, 'U', 00H, 'T', 00H, 'g', 00H, 'u', 00H
	DB	'i', 00H, '.', 00H, 'c', 00H, 'p', 00H, 'p', 00H, 00H, 00H
$SG164402 DB	'D', 00H, 'X', 00H, 'U', 00H, 'T', 00H, 'g', 00H, 'u', 00H
	DB	'i', 00H, '.', 00H, 'c', 00H, 'p', 00H, 'p', 00H, 00H, 00H
$SG162354 DB	'ps_4_0_level_9_1', 00H
	ORG $+3
$SG164403 DB	's', 00H, 't', 00H, 'r', 00H, 'D', 00H, 'e', 00H, 's', 00H
	DB	't', 00H, 00H, 00H
$SG162355 DB	'PS', 00H
	ORG $+1
$SG162356 DB	'none', 00H
	ORG $+3
$SG162360 DB	'D', 00H, '3', 00H, 'D', 00H, 'C', 00H, 'o', 00H, 'm', 00H
	DB	'p', 00H, 'i', 00H, 'l', 00H, 'e', 00H, '(', 00H, ' ', 00H, 'g'
	DB	00H, '_', 00H, 's', 00H, 't', 00H, 'r', 00H, 'U', 00H, 'I', 00H
	DB	'E', 00H, 'f', 00H, 'f', 00H, 'e', 00H, 'c', 00H, 't', 00H, 'F'
	DB	00H, 'i', 00H, 'l', 00H, 'e', 00H, ',', 00H, ' ', 00H, 'g', 00H
	DB	'_', 00H, 'u', 00H, 'U', 00H, 'I', 00H, 'E', 00H, 'f', 00H, 'f'
	DB	00H, 'e', 00H, 'c', 00H, 't', 00H, 'F', 00H, 'i', 00H, 'l', 00H
	DB	'e', 00H, 'S', 00H, 'i', 00H, 'z', 00H, 'e', 00H, ',', 00H, ' '
	DB	00H, '"', 00H, 'n', 00H, 'o', 00H, 'n', 00H, 'e', 00H, '"', 00H
	DB	',', 00H, ' ', 00H, 'n', 00H, 'u', 00H, 'l', 00H, 'l', 00H, 'p'
	DB	00H, 't', 00H, 'r', 00H, ',', 00H, ' ', 00H, 'n', 00H, 'u', 00H
	DB	'l', 00H, 'l', 00H, 'p', 00H, 't', 00H, 'r', 00H, ',', 00H, ' '
	DB	00H, '"', 00H, 'P', 00H, 'S', 00H, '"', 00H, ',', 00H, ' ', 00H
	DB	'"', 00H, 'p', 00H, 's', 00H, '_', 00H, '4', 00H, '_', 00H, '0'
	DB	00H, '_', 00H, 'l', 00H, 'e', 00H, 'v', 00H, 'e', 00H, 'l', 00H
	DB	'_', 00H, '9', 00H, '_', 00H, '1', 00H, '"', 00H, ',', 00H, ' '
	DB	00H, 'D', 00H, '3', 00H, 'D', 00H, '1', 00H, '0', 00H, '_', 00H
	DB	'S', 00H, 'H', 00H, 'A', 00H, 'D', 00H, 'E', 00H, 'R', 00H, '_'
	DB	00H, 'E', 00H, 'N', 00H, 'A', 00H, 'B', 00H, 'L', 00H, 'E', 00H
	DB	'_', 00H, 'B', 00H, 'A', 00H, 'C', 00H, 'K', 00H, 'W', 00H, 'A'
	DB	00H, 'R', 00H, 'D', 00H, 'S', 00H, '_', 00H, 'C', 00H, 'O', 00H
	DB	'M', 00H, 'P', 00H, 'A', 00H, 'T', 00H, 'I', 00H, 'B', 00H, 'I'
	DB	00H, 'L', 00H, 'I', 00H, 'T', 00H, 'Y', 00H, ',', 00H, ' ', 00H
	DB	'0', 00H, ',', 00H, ' ', 00H, '&', 00H, 'p', 00H, 'P', 00H, 'S'
	DB	00H, 'B', 00H, 'l', 00H, 'o', 00H, 'b', 00H, ',', 00H, ' ', 00H
	DB	'n', 00H, 'u', 00H, 'l', 00H, 'l', 00H, 'p', 00H, 't', 00H, 'r'
	DB	00H, ' ', 00H, ')', 00H, 00H, 00H
$SG162361 DB	'DXUTgui.cpp', 00H
$SG162362 DB	'ps_4_0_level_9_1', 00H
	ORG $+3
$SG162363 DB	'PSUntex', 00H
$SG162364 DB	'none', 00H
	ORG $+3
$SG162368 DB	'D', 00H, '3', 00H, 'D', 00H, 'C', 00H, 'o', 00H, 'm', 00H
	DB	'p', 00H, 'i', 00H, 'l', 00H, 'e', 00H, '(', 00H, ' ', 00H, 'g'
	DB	00H, '_', 00H, 's', 00H, 't', 00H, 'r', 00H, 'U', 00H, 'I', 00H
	DB	'E', 00H, 'f', 00H, 'f', 00H, 'e', 00H, 'c', 00H, 't', 00H, 'F'
	DB	00H, 'i', 00H, 'l', 00H, 'e', 00H, ',', 00H, ' ', 00H, 'g', 00H
	DB	'_', 00H, 'u', 00H, 'U', 00H, 'I', 00H, 'E', 00H, 'f', 00H, 'f'
	DB	00H, 'e', 00H, 'c', 00H, 't', 00H, 'F', 00H, 'i', 00H, 'l', 00H
	DB	'e', 00H, 'S', 00H, 'i', 00H, 'z', 00H, 'e', 00H, ',', 00H, ' '
	DB	00H, '"', 00H, 'n', 00H, 'o', 00H, 'n', 00H, 'e', 00H, '"', 00H
	DB	',', 00H, ' ', 00H, 'n', 00H, 'u', 00H, 'l', 00H, 'l', 00H, 'p'
	DB	00H, 't', 00H, 'r', 00H, ',', 00H, ' ', 00H, 'n', 00H, 'u', 00H
	DB	'l', 00H, 'l', 00H, 'p', 00H, 't', 00H, 'r', 00H, ',', 00H, ' '
	DB	00H, '"', 00H, 'P', 00H, 'S', 00H, 'U', 00H, 'n', 00H, 't', 00H
	DB	'e', 00H, 'x', 00H, '"', 00H, ',', 00H, ' ', 00H, '"', 00H, 'p'
	DB	00H, 's', 00H, '_', 00H, '4', 00H, '_', 00H, '0', 00H, '_', 00H
	DB	'l', 00H, 'e', 00H, 'v', 00H, 'e', 00H, 'l', 00H, '_', 00H, '9'
	DB	00H, '_', 00H, '1', 00H, '"', 00H, ',', 00H, ' ', 00H, 'D', 00H
	DB	'3', 00H, 'D', 00H, '1', 00H, '0', 00H, '_', 00H, 'S', 00H, 'H'
	DB	00H, 'A', 00H, 'D', 00H, 'E', 00H, 'R', 00H, '_', 00H, 'E', 00H
	DB	'N', 00H, 'A', 00H, 'B', 00H, 'L', 00H, 'E', 00H, '_', 00H, 'B'
	DB	00H, 'A', 00H, 'C', 00H, 'K', 00H, 'W', 00H, 'A', 00H, 'R', 00H
	DB	'D', 00H, 'S', 00H, '_', 00H, 'C', 00H, 'O', 00H, 'M', 00H, 'P'
	DB	00H, 'A', 00H, 'T', 00H, 'I', 00H, 'B', 00H, 'I', 00H, 'L', 00H
	DB	'I', 00H, 'T', 00H, 'Y', 00H, ',', 00H, ' ', 00H, '0', 00H, ','
	DB	00H, ' ', 00H, '&', 00H, 'p', 00H, 'P', 00H, 'S', 00H, 'U', 00H
	DB	'n', 00H, 't', 00H, 'e', 00H, 'x', 00H, 'B', 00H, 'l', 00H, 'o'
	DB	00H, 'b', 00H, ',', 00H, ' ', 00H, 'n', 00H, 'u', 00H, 'l', 00H
	DB	'l', 00H, 'p', 00H, 't', 00H, 'r', 00H, ' ', 00H, ')', 00H, 00H
	DB	00H
$SG162369 DB	'DXUTgui.cpp', 00H
$SG162373 DB	'p', 00H, 'd', 00H, '3', 00H, 'd', 00H, 'D', 00H, 'e', 00H
	DB	'v', 00H, 'i', 00H, 'c', 00H, 'e', 00H, '-', 00H, '>', 00H, 'C'
	DB	00H, 'r', 00H, 'e', 00H, 'a', 00H, 't', 00H, 'e', 00H, 'V', 00H
	DB	'e', 00H, 'r', 00H, 't', 00H, 'e', 00H, 'x', 00H, 'S', 00H, 'h'
	DB	00H, 'a', 00H, 'd', 00H, 'e', 00H, 'r', 00H, '(', 00H, ' ', 00H
	DB	'p', 00H, 'V', 00H, 'S', 00H, 'B', 00H, 'l', 00H, 'o', 00H, 'b'
	DB	00H, '-', 00H, '>', 00H, 'G', 00H, 'e', 00H, 't', 00H, 'B', 00H
	DB	'u', 00H, 'f', 00H, 'f', 00H, 'e', 00H, 'r', 00H, 'P', 00H, 'o'
	DB	00H, 'i', 00H, 'n', 00H, 't', 00H, 'e', 00H, 'r', 00H, '(', 00H
	DB	')', 00H, ',', 00H, ' ', 00H, 'p', 00H, 'V', 00H, 'S', 00H, 'B'
	DB	00H, 'l', 00H, 'o', 00H, 'b', 00H, '-', 00H, '>', 00H, 'G', 00H
	DB	'e', 00H, 't', 00H, 'B', 00H, 'u', 00H, 'f', 00H, 'f', 00H, 'e'
	DB	00H, 'r', 00H, 'S', 00H, 'i', 00H, 'z', 00H, 'e', 00H, '(', 00H
	DB	')', 00H, ',', 00H, ' ', 00H, 'n', 00H, 'u', 00H, 'l', 00H, 'l'
	DB	00H, 'p', 00H, 't', 00H, 'r', 00H, ',', 00H, ' ', 00H, '&', 00H
	DB	'm', 00H, '_', 00H, 'p', 00H, 'V', 00H, 'S', 00H, 'R', 00H, 'e'
	DB	00H, 'n', 00H, 'd', 00H, 'e', 00H, 'r', 00H, 'U', 00H, 'I', 00H
	DB	'1', 00H, '1', 00H, ' ', 00H, ')', 00H, 00H, 00H
	ORG $+2
$SG162374 DB	'DXUTgui.cpp', 00H
$SG162375 DB	'CDXUTDialogResourceManager', 00H
	ORG $+1
$SG162379 DB	'p', 00H, 'd', 00H, '3', 00H, 'd', 00H, 'D', 00H, 'e', 00H
	DB	'v', 00H, 'i', 00H, 'c', 00H, 'e', 00H, '-', 00H, '>', 00H, 'C'
	DB	00H, 'r', 00H, 'e', 00H, 'a', 00H, 't', 00H, 'e', 00H, 'P', 00H
	DB	'i', 00H, 'x', 00H, 'e', 00H, 'l', 00H, 'S', 00H, 'h', 00H, 'a'
	DB	00H, 'd', 00H, 'e', 00H, 'r', 00H, '(', 00H, ' ', 00H, 'p', 00H
	DB	'P', 00H, 'S', 00H, 'B', 00H, 'l', 00H, 'o', 00H, 'b', 00H, '-'
	DB	00H, '>', 00H, 'G', 00H, 'e', 00H, 't', 00H, 'B', 00H, 'u', 00H
	DB	'f', 00H, 'f', 00H, 'e', 00H, 'r', 00H, 'P', 00H, 'o', 00H, 'i'
	DB	00H, 'n', 00H, 't', 00H, 'e', 00H, 'r', 00H, '(', 00H, ')', 00H
	DB	',', 00H, ' ', 00H, 'p', 00H, 'P', 00H, 'S', 00H, 'B', 00H, 'l'
	DB	00H, 'o', 00H, 'b', 00H, '-', 00H, '>', 00H, 'G', 00H, 'e', 00H
	DB	't', 00H, 'B', 00H, 'u', 00H, 'f', 00H, 'f', 00H, 'e', 00H, 'r'
	DB	00H, 'S', 00H, 'i', 00H, 'z', 00H, 'e', 00H, '(', 00H, ')', 00H
	DB	',', 00H, ' ', 00H, 'n', 00H, 'u', 00H, 'l', 00H, 'l', 00H, 'p'
	DB	00H, 't', 00H, 'r', 00H, ',', 00H, ' ', 00H, '&', 00H, 'm', 00H
	DB	'_', 00H, 'p', 00H, 'P', 00H, 'S', 00H, 'R', 00H, 'e', 00H, 'n'
	DB	00H, 'd', 00H, 'e', 00H, 'r', 00H, 'U', 00H, 'I', 00H, '1', 00H
	DB	'1', 00H, ' ', 00H, ')', 00H, 00H, 00H
$SG162380 DB	'DXUTgui.cpp', 00H
$SG162381 DB	'CDXUTDialogResourceManager', 00H
	ORG $+1
$SG162386 DB	'DXUTgui.cpp', 00H
$SG162385 DB	'p', 00H, 'd', 00H, '3', 00H, 'd', 00H, 'D', 00H, 'e', 00H
	DB	'v', 00H, 'i', 00H, 'c', 00H, 'e', 00H, '-', 00H, '>', 00H, 'C'
	DB	00H, 'r', 00H, 'e', 00H, 'a', 00H, 't', 00H, 'e', 00H, 'P', 00H
	DB	'i', 00H, 'x', 00H, 'e', 00H, 'l', 00H, 'S', 00H, 'h', 00H, 'a'
	DB	00H, 'd', 00H, 'e', 00H, 'r', 00H, '(', 00H, ' ', 00H, 'p', 00H
	DB	'P', 00H, 'S', 00H, 'U', 00H, 'n', 00H, 't', 00H, 'e', 00H, 'x'
	DB	00H, 'B', 00H, 'l', 00H, 'o', 00H, 'b', 00H, '-', 00H, '>', 00H
	DB	'G', 00H, 'e', 00H, 't', 00H, 'B', 00H, 'u', 00H, 'f', 00H, 'f'
	DB	00H, 'e', 00H, 'r', 00H, 'P', 00H, 'o', 00H, 'i', 00H, 'n', 00H
	DB	't', 00H, 'e', 00H, 'r', 00H, '(', 00H, ')', 00H, ',', 00H, ' '
	DB	00H, 'p', 00H, 'P', 00H, 'S', 00H, 'U', 00H, 'n', 00H, 't', 00H
	DB	'e', 00H, 'x', 00H, 'B', 00H, 'l', 00H, 'o', 00H, 'b', 00H, '-'
	DB	00H, '>', 00H, 'G', 00H, 'e', 00H, 't', 00H, 'B', 00H, 'u', 00H
	DB	'f', 00H, 'f', 00H, 'e', 00H, 'r', 00H, 'S', 00H, 'i', 00H, 'z'
	DB	00H, 'e', 00H, '(', 00H, ')', 00H, ',', 00H, ' ', 00H, 'n', 00H
	DB	'u', 00H, 'l', 00H, 'l', 00H, 'p', 00H, 't', 00H, 'r', 00H, ','
	DB	00H, ' ', 00H, '&', 00H, 'm', 00H, '_', 00H, 'p', 00H, 'P', 00H
	DB	'S', 00H, 'R', 00H, 'e', 00H, 'n', 00H, 'd', 00H, 'e', 00H, 'r'
	DB	00H, 'U', 00H, 'I', 00H, 'U', 00H, 'n', 00H, 't', 00H, 'e', 00H
	DB	'x', 00H, '1', 00H, '1', 00H, ' ', 00H, ')', 00H, 00H, 00H
	ORG $+2
$SG162387 DB	'CDXUTDialogResourceManager', 00H
	ORG $+1
$SG162393 DB	'p', 00H, 'd', 00H, '3', 00H, 'd', 00H, 'D', 00H, 'e', 00H
	DB	'v', 00H, 'i', 00H, 'c', 00H, 'e', 00H, '-', 00H, '>', 00H, 'C'
	DB	00H, 'r', 00H, 'e', 00H, 'a', 00H, 't', 00H, 'e', 00H, 'D', 00H
	DB	'e', 00H, 'p', 00H, 't', 00H, 'h', 00H, 'S', 00H, 't', 00H, 'e'
	DB	00H, 'n', 00H, 'c', 00H, 'i', 00H, 'l', 00H, 'S', 00H, 't', 00H
	DB	'a', 00H, 't', 00H, 'e', 00H, '(', 00H, ' ', 00H, '&', 00H, 'D'
	DB	00H, 'S', 00H, 'D', 00H, 'e', 00H, 's', 00H, 'c', 00H, ',', 00H
	DB	' ', 00H, '&', 00H, 'm', 00H, '_', 00H, 'p', 00H, 'D', 00H, 'e'
	DB	00H, 'p', 00H, 't', 00H, 'h', 00H, 'S', 00H, 't', 00H, 'e', 00H
	DB	'n', 00H, 'c', 00H, 'i', 00H, 'l', 00H, 'S', 00H, 't', 00H, 'a'
	DB	00H, 't', 00H, 'e', 00H, 'U', 00H, 'I', 00H, '1', 00H, '1', 00H
	DB	' ', 00H, ')', 00H, 00H, 00H
$SG162394 DB	'DXUTgui.cpp', 00H
$SG162395 DB	'CDXUTDialogResourceManager', 00H
	ORG $+1
$SG160350 DB	'DXUT Text11', 00H
$SG162400 DB	'p', 00H, 'd', 00H, '3', 00H, 'd', 00H, 'D', 00H, 'e', 00H
	DB	'v', 00H, 'i', 00H, 'c', 00H, 'e', 00H, '-', 00H, '>', 00H, 'C'
	DB	00H, 'r', 00H, 'e', 00H, 'a', 00H, 't', 00H, 'e', 00H, 'R', 00H
	DB	'a', 00H, 's', 00H, 't', 00H, 'e', 00H, 'r', 00H, 'i', 00H, 'z'
	DB	00H, 'e', 00H, 'r', 00H, 'S', 00H, 't', 00H, 'a', 00H, 't', 00H
	DB	'e', 00H, '(', 00H, ' ', 00H, '&', 00H, 'R', 00H, 'S', 00H, 'D'
	DB	00H, 'e', 00H, 's', 00H, 'c', 00H, ',', 00H, ' ', 00H, '&', 00H
	DB	'm', 00H, '_', 00H, 'p', 00H, 'R', 00H, 'a', 00H, 's', 00H, 't'
	DB	00H, 'e', 00H, 'r', 00H, 'i', 00H, 'z', 00H, 'e', 00H, 'r', 00H
	DB	'S', 00H, 't', 00H, 'a', 00H, 't', 00H, 'e', 00H, 'U', 00H, 'I'
	DB	00H, '1', 00H, '1', 00H, ' ', 00H, ')', 00H, 00H, 00H
$SG162401 DB	'DXUTgui.cpp', 00H
$SG162402 DB	'CDXUTDialogResourceManager', 00H
	ORG $+1
$SG162409 DB	'DXUTgui.cpp', 00H
$SG162408 DB	'p', 00H, 'd', 00H, '3', 00H, 'd', 00H, 'D', 00H, 'e', 00H
	DB	'v', 00H, 'i', 00H, 'c', 00H, 'e', 00H, '-', 00H, '>', 00H, 'C'
	DB	00H, 'r', 00H, 'e', 00H, 'a', 00H, 't', 00H, 'e', 00H, 'B', 00H
	DB	'l', 00H, 'e', 00H, 'n', 00H, 'd', 00H, 'S', 00H, 't', 00H, 'a'
	DB	00H, 't', 00H, 'e', 00H, '(', 00H, ' ', 00H, '&', 00H, 'B', 00H
	DB	'S', 00H, 'D', 00H, 'e', 00H, 's', 00H, 'c', 00H, ',', 00H, ' '
	DB	00H, '&', 00H, 'm', 00H, '_', 00H, 'p', 00H, 'B', 00H, 'l', 00H
	DB	'e', 00H, 'n', 00H, 'd', 00H, 'S', 00H, 't', 00H, 'a', 00H, 't'
	DB	00H, 'e', 00H, 'U', 00H, 'I', 00H, '1', 00H, '1', 00H, ' ', 00H
	DB	')', 00H, 00H, 00H
$SG162410 DB	'CDXUTDialogResourceManager', 00H
	ORG $+1
$SG162418 DB	'DXUTgui.cpp', 00H
$SG162417 DB	'p', 00H, 'd', 00H, '3', 00H, 'd', 00H, 'D', 00H, 'e', 00H
	DB	'v', 00H, 'i', 00H, 'c', 00H, 'e', 00H, '-', 00H, '>', 00H, 'C'
	DB	00H, 'r', 00H, 'e', 00H, 'a', 00H, 't', 00H, 'e', 00H, 'S', 00H
	DB	'a', 00H, 'm', 00H, 'p', 00H, 'l', 00H, 'e', 00H, 'r', 00H, 'S'
	DB	00H, 't', 00H, 'a', 00H, 't', 00H, 'e', 00H, '(', 00H, ' ', 00H
	DB	'&', 00H, 'S', 00H, 'S', 00H, 'D', 00H, 'e', 00H, 's', 00H, 'c'
	DB	00H, ',', 00H, ' ', 00H, '&', 00H, 'm', 00H, '_', 00H, 'p', 00H
	DB	'S', 00H, 'a', 00H, 'm', 00H, 'p', 00H, 'l', 00H, 'e', 00H, 'r'
	DB	00H, 'S', 00H, 't', 00H, 'a', 00H, 't', 00H, 'e', 00H, 'U', 00H
	DB	'I', 00H, '1', 00H, '1', 00H, ' ', 00H, ')', 00H, 00H, 00H
$SG162419 DB	'CDXUTDialogResourceManager', 00H
	ORG $+1
$SG162428 DB	'POSITION', 00H
	ORG $+3
$SG162429 DB	'COLOR', 00H
	ORG $+2
$SG162430 DB	'TEXCOORD', 00H
	ORG $+3
$SG162440 DB	'DXUTgui.cpp', 00H
$SG162439 DB	'p', 00H, 'd', 00H, '3', 00H, 'd', 00H, 'D', 00H, 'e', 00H
	DB	'v', 00H, 'i', 00H, 'c', 00H, 'e', 00H, '-', 00H, '>', 00H, 'C'
	DB	00H, 'r', 00H, 'e', 00H, 'a', 00H, 't', 00H, 'e', 00H, 'I', 00H
	DB	'n', 00H, 'p', 00H, 'u', 00H, 't', 00H, 'L', 00H, 'a', 00H, 'y'
	DB	00H, 'o', 00H, 'u', 00H, 't', 00H, '(', 00H, ' ', 00H, 'l', 00H
	DB	'a', 00H, 'y', 00H, 'o', 00H, 'u', 00H, 't', 00H, ',', 00H, ' '
	DB	00H, 'A', 00H, 'R', 00H, 'R', 00H, 'A', 00H, 'Y', 00H, 'S', 00H
	DB	'I', 00H, 'Z', 00H, 'E', 00H, '(', 00H, ' ', 00H, 'l', 00H, 'a'
	DB	00H, 'y', 00H, 'o', 00H, 'u', 00H, 't', 00H, ' ', 00H, ')', 00H
	DB	',', 00H, ' ', 00H, 'p', 00H, 'V', 00H, 'S', 00H, 'B', 00H, 'l'
	DB	00H, 'o', 00H, 'b', 00H, '-', 00H, '>', 00H, 'G', 00H, 'e', 00H
	DB	't', 00H, 'B', 00H, 'u', 00H, 'f', 00H, 'f', 00H, 'e', 00H, 'r'
	DB	00H, 'P', 00H, 'o', 00H, 'i', 00H, 'n', 00H, 't', 00H, 'e', 00H
	DB	'r', 00H, '(', 00H, ')', 00H, ',', 00H, ' ', 00H, 'p', 00H, 'V'
	DB	00H, 'S', 00H, 'B', 00H, 'l', 00H, 'o', 00H, 'b', 00H, '-', 00H
	DB	'>', 00H, 'G', 00H, 'e', 00H, 't', 00H, 'B', 00H, 'u', 00H, 'f'
	DB	00H, 'f', 00H, 'e', 00H, 'r', 00H, 'S', 00H, 'i', 00H, 'z', 00H
	DB	'e', 00H, '(', 00H, ')', 00H, ',', 00H, ' ', 00H, '&', 00H, 'm'
	DB	00H, '_', 00H, 'p', 00H, 'I', 00H, 'n', 00H, 'p', 00H, 'u', 00H
	DB	't', 00H, 'L', 00H, 'a', 00H, 'y', 00H, 'o', 00H, 'u', 00H, 't'
	DB	00H, '1', 00H, '1', 00H, ' ', 00H, ')', 00H, 00H, 00H
	ORG $+2
$SG162441 DB	'CDXUTDialogResourceManager', 00H
	ORG $+1
$SG162451 DB	'DXUTgui.cpp', 00H
$SG162450 DB	'p', 00H, 'd', 00H, '3', 00H, 'd', 00H, 'D', 00H, 'e', 00H
	DB	'v', 00H, 'i', 00H, 'c', 00H, 'e', 00H, '-', 00H, '>', 00H, 'C'
	DB	00H, 'r', 00H, 'e', 00H, 'a', 00H, 't', 00H, 'e', 00H, 'B', 00H
	DB	'u', 00H, 'f', 00H, 'f', 00H, 'e', 00H, 'r', 00H, '(', 00H, ' '
	DB	00H, '&', 00H, 'B', 00H, 'u', 00H, 'f', 00H, 'D', 00H, 'e', 00H
	DB	's', 00H, 'c', 00H, ',', 00H, ' ', 00H, 'n', 00H, 'u', 00H, 'l'
	DB	00H, 'l', 00H, 'p', 00H, 't', 00H, 'r', 00H, ',', 00H, ' ', 00H
	DB	'&', 00H, 'm', 00H, '_', 00H, 'p', 00H, 'V', 00H, 'B', 00H, 'S'
	DB	00H, 'c', 00H, 'r', 00H, 'e', 00H, 'e', 00H, 'n', 00H, 'Q', 00H
	DB	'u', 00H, 'a', 00H, 'd', 00H, '1', 00H, '1', 00H, ' ', 00H, ')'
	DB	00H, 00H, 00H
$SG162452 DB	'CDXUTDialogResourceManager', 00H
	ORG $+1
$SG162529 DB	'CDXUTDialogResourceManager', 00H
	ORG $+1
$SG163600 DB	'C', 00H, 'D', 00H, 'X', 00H, 'U', 00H, 'T', 00H, 'C', 00H
	DB	'o', 00H, 'm', 00H, 'b', 00H, 'o', 00H, 'B', 00H, 'o', 00H, 'x'
	DB	00H, ':', 00H, ':', 00H, 'G', 00H, 'e', 00H, 't', 00H, 'I', 00H
	DB	't', 00H, 'e', 00H, 'm', 00H, 'D', 00H, 'a', 00H, 't', 00H, 'a'
	DB	00H, 00H, 00H
	ORG $+2
$SG163601 DB	'D', 00H, 'X', 00H, 'U', 00H, 'T', 00H, 'g', 00H, 'u', 00H
	DB	'i', 00H, '.', 00H, 'c', 00H, 'p', 00H, 'p', 00H, 00H, 00H
$SG164662 DB	'%', 00H, '.', 00H, '4', 00H, 'f', 00H, ' ', 00H, 00H, 00H
$SG160557 DB	'T', 00H, 'o', 00H, ' ', 00H, 'f', 00H, 'i', 00H, 'x', 00H
	DB	' ', 00H, 'c', 00H, 'a', 00H, 'l', 00H, 'l', 00H, ' ', 00H, 'C'
	DB	00H, 'D', 00H, 'X', 00H, 'U', 00H, 'T', 00H, 'D', 00H, 'i', 00H
	DB	'a', 00H, 'l', 00H, 'o', 00H, 'g', 00H, ':', 00H, ':', 00H, 'I'
	DB	00H, 'n', 00H, 'i', 00H, 't', 00H, '(', 00H, ')', 00H, ' ', 00H
	DB	'f', 00H, 'i', 00H, 'r', 00H, 's', 00H, 't', 00H, '.', 00H, ' '
	DB	00H, ' ', 00H, 'S', 00H, 'e', 00H, 'e', 00H, ' ', 00H, 'c', 00H
	DB	'o', 00H, 'm', 00H, 'm', 00H, 'e', 00H, 'n', 00H, 't', 00H, 's'
	DB	00H, ' ', 00H, 'f', 00H, 'o', 00H, 'r', 00H, ' ', 00H, 'd', 00H
	DB	'e', 00H, 't', 00H, 'a', 00H, 'i', 00H, 'l', 00H, 's', 00H, '.'
	DB	00H, 00H, 00H
$SG160558 DB	'D', 00H, 'X', 00H, 'U', 00H, 'T', 00H, 'g', 00H, 'u', 00H
	DB	'i', 00H, '.', 00H, 'c', 00H, 'p', 00H, 'p', 00H, 00H, 00H
$SG162683 DB	'DXUT GUI Texture', 00H
	ORG $+3
$SG160559 DB	'm', 00H, '_', 00H, 'p', 00H, 'M', 00H, 'a', 00H, 'n', 00H
	DB	'a', 00H, 'g', 00H, 'e', 00H, 'r', 00H, ' ', 00H, '&', 00H, '&'
	DB	00H, ' ', 00H, 'L', 00H, '"', 00H, 'T', 00H, 'o', 00H, ' ', 00H
	DB	'f', 00H, 'i', 00H, 'x', 00H, ' ', 00H, 'c', 00H, 'a', 00H, 'l'
	DB	00H, 'l', 00H, ' ', 00H, 'C', 00H, 'D', 00H, 'X', 00H, 'U', 00H
	DB	'T', 00H, 'D', 00H, 'i', 00H, 'a', 00H, 'l', 00H, 'o', 00H, 'g'
	DB	00H, ':', 00H, ':', 00H, 'I', 00H, 'n', 00H, 'i', 00H, 't', 00H
	DB	'(', 00H, ')', 00H, ' ', 00H, 'f', 00H, 'i', 00H, 'r', 00H, 's'
	DB	00H, 't', 00H, '.', 00H, ' ', 00H, ' ', 00H, 'S', 00H, 'e', 00H
	DB	'e', 00H, ' ', 00H, 'c', 00H, 'o', 00H, 'm', 00H, 'm', 00H, 'e'
	DB	00H, 'n', 00H, 't', 00H, 's', 00H, ' ', 00H, 'f', 00H, 'o', 00H
	DB	'r', 00H, ' ', 00H, 'd', 00H, 'e', 00H, 't', 00H, 'a', 00H, 'i'
	DB	00H, 'l', 00H, 's', 00H, '.', 00H, '"', 00H, 00H, 00H
	ORG $+2
$SG164725 DB	'D', 00H, 'X', 00H, 'U', 00H, 'T', 00H, 'g', 00H, 'u', 00H
	DB	'i', 00H, '.', 00H, 'c', 00H, 'p', 00H, 'p', 00H, 00H, 00H
$SG164726 DB	'n', 00H, 'I', 00H, 'n', 00H, 'd', 00H, 'e', 00H, 'x', 00H
	DB	' ', 00H, '>', 00H, '=', 00H, ' ', 00H, '0', 00H, 00H, 00H
$SG162681 DB	'D', 00H, 'X', 00H, 'U', 00H, 'T', 00H, 'C', 00H, 'r', 00H
	DB	'e', 00H, 'a', 00H, 't', 00H, 'e', 00H, 'G', 00H, 'U', 00H, 'I'
	DB	00H, 'T', 00H, 'e', 00H, 'x', 00H, 't', 00H, 'u', 00H, 'r', 00H
	DB	'e', 00H, 'F', 00H, 'r', 00H, 'o', 00H, 'm', 00H, 'I', 00H, 'n'
	DB	00H, 't', 00H, 'e', 00H, 'r', 00H, 'n', 00H, 'a', 00H, 'l', 00H
	DB	'A', 00H, 'r', 00H, 'r', 00H, 'a', 00H, 'y', 00H, 00H, 00H
$SG162682 DB	'D', 00H, 'X', 00H, 'U', 00H, 'T', 00H, 'g', 00H, 'u', 00H
	DB	'i', 00H, '.', 00H, 'c', 00H, 'p', 00H, 'p', 00H, 00H, 00H
$SG164735 DB	'D', 00H, 'X', 00H, 'U', 00H, 'T', 00H, 'g', 00H, 'u', 00H
	DB	'i', 00H, '.', 00H, 'c', 00H, 'p', 00H, 'p', 00H, 00H, 00H
$SG164736 DB	'm', 00H, '_', 00H, 'n', 00H, 'B', 00H, 'u', 00H, 'f', 00H
	DB	'f', 00H, 'e', 00H, 'r', 00H, 'S', 00H, 'i', 00H, 'z', 00H, 'e'
	DB	00H, ' ', 00H, '>', 00H, '=', 00H, ' ', 00H, '2', 00H, 00H, 00H
	ORG $+2
$SG162688 DB	'DXUT GUI Texture', 00H
	ORG $+3
$SG164758 DB	'D', 00H, 'X', 00H, 'U', 00H, 'T', 00H, 'g', 00H, 'u', 00H
	DB	'i', 00H, '.', 00H, 'c', 00H, 'p', 00H, 'p', 00H, 00H, 00H
$SG164759 DB	'n', 00H, 'I', 00H, 'n', 00H, 'd', 00H, 'e', 00H, 'x', 00H
	DB	' ', 00H, '>', 00H, '=', 00H, ' ', 00H, '0', 00H, 00H, 00H
$SG164777 DB	'D', 00H, 'X', 00H, 'U', 00H, 'T', 00H, 'g', 00H, 'u', 00H
	DB	'i', 00H, '.', 00H, 'c', 00H, 'p', 00H, 'p', 00H, 00H, 00H
$SG164778 DB	'w', 00H, 's', 00H, 'z', 00H, 'T', 00H, 'e', 00H, 'x', 00H
	DB	't', 00H, 00H, 00H
$SG164794 DB	'D', 00H, 'X', 00H, 'U', 00H, 'T', 00H, 'g', 00H, 'u', 00H
	DB	'i', 00H, '.', 00H, 'c', 00H, 'p', 00H, 'p', 00H, 00H, 00H
$SG164795 DB	'p', 00H, 'X', 00H, 00H, 00H
	ORG $+2
$SG164810 DB	'D', 00H, 'X', 00H, 'U', 00H, 'T', 00H, 'g', 00H, 'u', 00H
	DB	'i', 00H, '.', 00H, 'c', 00H, 'p', 00H, 'p', 00H, 00H, 00H
$SG164811 DB	'p', 00H, 'C', 00H, 'P', 00H, ' ', 00H, '&', 00H, '&', 00H
	DB	' ', 00H, 'p', 00H, 'n', 00H, 'T', 00H, 'r', 00H, 'a', 00H, 'i'
	DB	00H, 'l', 00H, 00H, 00H
	ORG $+2
$SG160766 DB	'T', 00H, 'o', 00H, ' ', 00H, 'f', 00H, 'i', 00H, 'x', 00H
	DB	' ', 00H, 'h', 00H, 'o', 00H, 'o', 00H, 'k', 00H, ' ', 00H, 'u'
	DB	00H, 'p', 00H, ' ', 00H, 'C', 00H, 'D', 00H, 'X', 00H, 'U', 00H
	DB	'T', 00H, 'D', 00H, 'i', 00H, 'a', 00H, 'l', 00H, 'o', 00H, 'g'
	DB	00H, 'R', 00H, 'e', 00H, 's', 00H, 'o', 00H, 'u', 00H, 'r', 00H
	DB	'c', 00H, 'e', 00H, 'M', 00H, 'a', 00H, 'n', 00H, 'a', 00H, 'g'
	DB	00H, 'e', 00H, 'r', 00H, ' ', 00H, 't', 00H, 'o', 00H, ' ', 00H
	DB	'd', 00H, 'e', 00H, 'v', 00H, 'i', 00H, 'c', 00H, 'e', 00H, ' '
	DB	00H, 'c', 00H, 'a', 00H, 'l', 00H, 'l', 00H, 'b', 00H, 'a', 00H
	DB	'c', 00H, 'k', 00H, 's', 00H, '.', 00H, ' ', 00H, ' ', 00H, 'S'
	DB	00H, 'e', 00H, 'e', 00H, ' ', 00H, 'c', 00H, 'o', 00H, 'm', 00H
	DB	'm', 00H, 'e', 00H, 'n', 00H, 't', 00H, 's', 00H, ' ', 00H, 'f'
	DB	00H, 'o', 00H, 'r', 00H, ' ', 00H, 'd', 00H, 'e', 00H, 't', 00H
	DB	'a', 00H, 'i', 00H, 'l', 00H, 's', 00H, 00H, 00H
	ORG $+2
$SG160767 DB	'D', 00H, 'X', 00H, 'U', 00H, 'T', 00H, 'g', 00H, 'u', 00H
	DB	'i', 00H, '.', 00H, 'c', 00H, 'p', 00H, 'p', 00H, 00H, 00H
CONST	ENDS
PUBLIC	??2@YAPAXIPAX@Z					; operator new
PUBLIC	??3@YAXPAX0@Z					; operator delete
PUBLIC	_powf
PUBLIC	??0XMFLOAT2@DirectX@@QAE@XZ			; DirectX::XMFLOAT2::XMFLOAT2
PUBLIC	??0XMFLOAT2@DirectX@@QAE@MM@Z			; DirectX::XMFLOAT2::XMFLOAT2
PUBLIC	??4XMFLOAT2@DirectX@@QAEAAU01@ABU01@@Z		; DirectX::XMFLOAT2::operator=
PUBLIC	??0XMFLOAT3@DirectX@@QAE@XZ			; DirectX::XMFLOAT3::XMFLOAT3
PUBLIC	??0XMFLOAT3@DirectX@@QAE@MMM@Z			; DirectX::XMFLOAT3::XMFLOAT3
PUBLIC	??4XMFLOAT3@DirectX@@QAEAAU01@ABU01@@Z		; DirectX::XMFLOAT3::operator=
PUBLIC	??0XMFLOAT4@DirectX@@QAE@XZ			; DirectX::XMFLOAT4::XMFLOAT4
PUBLIC	??0XMFLOAT4@DirectX@@QAE@MMMM@Z			; DirectX::XMFLOAT4::XMFLOAT4
PUBLIC	??4XMFLOAT4@DirectX@@QAEAAU01@ABU01@@Z		; DirectX::XMFLOAT4::operator=
PUBLIC	?XMLoadFloat4@DirectX@@YQ?AT__m128@@PBUXMFLOAT4@1@@Z ; DirectX::XMLoadFloat4
PUBLIC	?XMStoreFloat4@DirectX@@YQXPAUXMFLOAT4@1@T__m128@@@Z ; DirectX::XMStoreFloat4
PUBLIC	?XMVectorLerp@DirectX@@YQ?AT__m128@@T2@0M@Z	; DirectX::XMVectorLerp
PUBLIC	??0_Container_proxy@std@@QAE@XZ			; std::_Container_proxy::_Container_proxy
PUBLIC	??0_Iterator_base12@std@@QAE@XZ			; std::_Iterator_base12::_Iterator_base12
PUBLIC	??0_Iterator_base12@std@@QAE@ABU01@@Z		; std::_Iterator_base12::_Iterator_base12
PUBLIC	??4_Iterator_base12@std@@QAEAAU01@ABU01@@Z	; std::_Iterator_base12::operator=
PUBLIC	??1_Iterator_base12@std@@QAE@XZ			; std::_Iterator_base12::~_Iterator_base12
PUBLIC	?_Adopt@_Iterator_base12@std@@QAEXPBU_Container_base12@2@@Z ; std::_Iterator_base12::_Adopt
PUBLIC	?_Clrcont@_Iterator_base12@std@@QAEXXZ		; std::_Iterator_base12::_Clrcont
PUBLIC	?_Getcont@_Iterator_base12@std@@QBEPBU_Container_base12@2@XZ ; std::_Iterator_base12::_Getcont
PUBLIC	?_Getpnext@_Iterator_base12@std@@QAEPAPAU12@XZ	; std::_Iterator_base12::_Getpnext
PUBLIC	?_Orphan_me@_Iterator_base12@std@@QAEXXZ	; std::_Iterator_base12::_Orphan_me
PUBLIC	?DXUT_SetDebugName@@YAXPAUID3D11DeviceChild@@PBD@Z ; DXUT_SetDebugName
PUBLIC	??0?$allocator@U_Container_proxy@std@@@std@@QAE@XZ ; std::allocator<std::_Container_proxy>::allocator<std::_Container_proxy>
PUBLIC	?deallocate@?$allocator@U_Container_proxy@std@@@std@@QAEXPAU_Container_proxy@2@I@Z ; std::allocator<std::_Container_proxy>::deallocate
PUBLIC	?allocate@?$allocator@U_Container_proxy@std@@@std@@QAEPAU_Container_proxy@2@I@Z ; std::allocator<std::_Container_proxy>::allocate
PUBLIC	??0?$_Wrap_alloc@V?$allocator@U_Container_proxy@std@@@std@@@std@@QAE@XZ ; std::_Wrap_alloc<std::allocator<std::_Container_proxy> >::_Wrap_alloc<std::allocator<std::_Container_proxy> >
PUBLIC	?allocate@?$_Wrap_alloc@V?$allocator@U_Container_proxy@std@@@std@@@std@@QAEPAU_Container_proxy@2@I@Z ; std::_Wrap_alloc<std::allocator<std::_Container_proxy> >::allocate
PUBLIC	?deallocate@?$_Wrap_alloc@V?$allocator@U_Container_proxy@std@@@std@@@std@@QAEXPAU_Container_proxy@2@I@Z ; std::_Wrap_alloc<std::allocator<std::_Container_proxy> >::deallocate
PUBLIC	??$construct@U_Container_proxy@std@@U12@@?$_Wrap_alloc@V?$allocator@U_Container_proxy@std@@@std@@@std@@QAEXPAU_Container_proxy@1@$$QAU21@@Z ; std::_Wrap_alloc<std::allocator<std::_Container_proxy> >::construct<std::_Container_proxy,std::_Container_proxy>
PUBLIC	??$destroy@U_Container_proxy@std@@@?$_Wrap_alloc@V?$allocator@U_Container_proxy@std@@@std@@@std@@QAEXPAU_Container_proxy@1@@Z ; std::_Wrap_alloc<std::allocator<std::_Container_proxy> >::destroy<std::_Container_proxy>
PUBLIC	??$_Allocate@U_Container_proxy@std@@@std@@YAPAU_Container_proxy@0@IPAU10@@Z ; std::_Allocate<std::_Container_proxy>
PUBLIC	??$forward@U_Container_proxy@std@@@std@@YA$$QAU_Container_proxy@0@AAU10@@Z ; std::forward<std::_Container_proxy>
PUBLIC	??$construct@U_Container_proxy@std@@U12@@?$allocator_traits@V?$allocator@U_Container_proxy@std@@@std@@@std@@SAXAAV?$allocator@U_Container_proxy@std@@@1@PAU_Container_proxy@1@$$QAU31@@Z ; std::allocator_traits<std::allocator<std::_Container_proxy> >::construct<std::_Container_proxy,std::_Container_proxy>
PUBLIC	??$destroy@U_Container_proxy@std@@@?$allocator_traits@V?$allocator@U_Container_proxy@std@@@std@@@std@@SAXAAV?$allocator@U_Container_proxy@std@@@1@PAU_Container_proxy@1@@Z ; std::allocator_traits<std::allocator<std::_Container_proxy> >::destroy<std::_Container_proxy>
PUBLIC	??$construct@U_Container_proxy@std@@U12@@?$allocator@U_Container_proxy@std@@@std@@QAEXPAU_Container_proxy@1@$$QAU21@@Z ; std::allocator<std::_Container_proxy>::construct<std::_Container_proxy,std::_Container_proxy>
PUBLIC	??$destroy@U_Container_proxy@std@@@?$allocator@U_Container_proxy@std@@@std@@QAEXPAU_Container_proxy@1@@Z ; std::allocator<std::_Container_proxy>::destroy<std::_Container_proxy>
PUBLIC	?Init@DXUTBlendColor@@QAEXKKK@Z			; DXUTBlendColor::Init
PUBLIC	?Blend@DXUTBlendColor@@QAEXIMM@Z		; DXUTBlendColor::Blend
PUBLIC	?SetCurrent@DXUTBlendColor@@QAEXK@Z		; DXUTBlendColor::SetCurrent
PUBLIC	??0DXUTBlendColor@@QAE@XZ			; DXUTBlendColor::DXUTBlendColor
PUBLIC	??4DXUTBlendColor@@QAEAAU0@ABU0@@Z		; DXUTBlendColor::operator=
PUBLIC	?SetTexture@CDXUTElement@@QAEXIPAUtagRECT@@K@Z	; CDXUTElement::SetTexture
PUBLIC	?SetFont@CDXUTElement@@QAEXIKK@Z		; CDXUTElement::SetFont
PUBLIC	?Refresh@CDXUTElement@@QAEXXZ			; CDXUTElement::Refresh
PUBLIC	??0CDXUTElement@@QAE@XZ				; CDXUTElement::CDXUTElement
PUBLIC	??4CDXUTElement@@QAEAAV0@ABV0@@Z		; CDXUTElement::operator=
PUBLIC	??0CDXUTDialog@@QAE@XZ				; CDXUTDialog::CDXUTDialog
PUBLIC	??1CDXUTDialog@@QAE@XZ				; CDXUTDialog::~CDXUTDialog
PUBLIC	?Init@CDXUTDialog@@QAEXPAVCDXUTDialogResourceManager@@_N@Z ; CDXUTDialog::Init
PUBLIC	?Init@CDXUTDialog@@QAEXPAVCDXUTDialogResourceManager@@_NPB_W@Z ; CDXUTDialog::Init
PUBLIC	?Init@CDXUTDialog@@QAEXPAVCDXUTDialogResourceManager@@_NPB_WPAUHINSTANCE__@@@Z ; CDXUTDialog::Init
PUBLIC	?MsgProc@CDXUTDialog@@QAE_NPAUHWND__@@IIJ@Z	; CDXUTDialog::MsgProc
PUBLIC	?AddStatic@CDXUTDialog@@QAEJHPB_WHHHH_NPAPAVCDXUTStatic@@@Z ; CDXUTDialog::AddStatic
PUBLIC	?AddButton@CDXUTDialog@@QAEJHPB_WHHHHI_NPAPAVCDXUTButton@@@Z ; CDXUTDialog::AddButton
PUBLIC	?AddCheckBox@CDXUTDialog@@QAEJHPB_WHHHH_NI1PAPAVCDXUTCheckBox@@@Z ; CDXUTDialog::AddCheckBox
PUBLIC	?AddRadioButton@CDXUTDialog@@QAEJHIPB_WHHHH_NI1PAPAVCDXUTRadioButton@@@Z ; CDXUTDialog::AddRadioButton
PUBLIC	?AddComboBox@CDXUTDialog@@QAEJHHHHHI_NPAPAVCDXUTComboBox@@@Z ; CDXUTDialog::AddComboBox
PUBLIC	?AddSlider@CDXUTDialog@@QAEJHHHHHHHH_NPAPAVCDXUTSlider@@@Z ; CDXUTDialog::AddSlider
PUBLIC	?AddEditBox@CDXUTDialog@@QAEJHPB_WHHHH_NPAPAVCDXUTEditBox@@@Z ; CDXUTDialog::AddEditBox
PUBLIC	?AddListBox@CDXUTDialog@@QAEJHHHHHKPAPAVCDXUTListBox@@@Z ; CDXUTDialog::AddListBox
PUBLIC	?AddControl@CDXUTDialog@@QAEJPAVCDXUTControl@@@Z ; CDXUTDialog::AddControl
PUBLIC	?InitControl@CDXUTDialog@@QAEJPAVCDXUTControl@@@Z ; CDXUTDialog::InitControl
PUBLIC	?GetComboBox@CDXUTDialog@@QBEPAVCDXUTComboBox@@H@Z ; CDXUTDialog::GetComboBox
PUBLIC	?GetControl@CDXUTDialog@@QBEPAVCDXUTControl@@H@Z ; CDXUTDialog::GetControl
PUBLIC	?GetControl@CDXUTDialog@@QBEPAVCDXUTControl@@HI@Z ; CDXUTDialog::GetControl
PUBLIC	?GetControlAtPoint@CDXUTDialog@@QBEPAVCDXUTControl@@ABUtagPOINT@@@Z ; CDXUTDialog::GetControlAtPoint
PUBLIC	?GetControlEnabled@CDXUTDialog@@QBE_NH@Z	; CDXUTDialog::GetControlEnabled
PUBLIC	?SetControlEnabled@CDXUTDialog@@QAEXH_N@Z	; CDXUTDialog::SetControlEnabled
PUBLIC	?ClearRadioButtonGroup@CDXUTDialog@@QAEXI@Z	; CDXUTDialog::ClearRadioButtonGroup
PUBLIC	?ClearComboBox@CDXUTDialog@@QAEXH@Z		; CDXUTDialog::ClearComboBox
PUBLIC	?SetDefaultElement@CDXUTDialog@@QAEJIIPAVCDXUTElement@@@Z ; CDXUTDialog::SetDefaultElement
PUBLIC	?GetDefaultElement@CDXUTDialog@@QBEPAVCDXUTElement@@II@Z ; CDXUTDialog::GetDefaultElement
PUBLIC	?SendEvent@CDXUTDialog@@QAEXI_NPAVCDXUTControl@@@Z ; CDXUTDialog::SendEvent
PUBLIC	?RequestFocus@CDXUTDialog@@QAEXPAVCDXUTControl@@@Z ; CDXUTDialog::RequestFocus
PUBLIC	?DrawRect@CDXUTDialog@@QAEJPBUtagRECT@@K@Z	; CDXUTDialog::DrawRect
PUBLIC	?DrawSprite@CDXUTDialog@@QAEJPAVCDXUTElement@@PBUtagRECT@@M@Z ; CDXUTDialog::DrawSprite
PUBLIC	?CalcTextRect@CDXUTDialog@@QAEJPB_WPAVCDXUTElement@@PBUtagRECT@@H@Z ; CDXUTDialog::CalcTextRect
PUBLIC	?DrawTextW@CDXUTDialog@@QAEJPB_WPAVCDXUTElement@@PBUtagRECT@@_N3@Z ; CDXUTDialog::DrawTextW
PUBLIC	?SetBackgroundColors@CDXUTDialog@@QAEXKKKK@Z	; CDXUTDialog::SetBackgroundColors
PUBLIC	?GetNextControl@CDXUTDialog@@SGPAVCDXUTControl@@PAV2@@Z ; CDXUTDialog::GetNextControl
PUBLIC	?GetPrevControl@CDXUTDialog@@SGPAVCDXUTControl@@PAV2@@Z ; CDXUTDialog::GetPrevControl
PUBLIC	?RemoveControl@CDXUTDialog@@QAEXH@Z		; CDXUTDialog::RemoveControl
PUBLIC	?RemoveAllControls@CDXUTDialog@@QAEXXZ		; CDXUTDialog::RemoveAllControls
PUBLIC	?SetCallback@CDXUTDialog@@QAEXP6GXIHPAVCDXUTControl@@PAX@Z1@Z ; CDXUTDialog::SetCallback
PUBLIC	?EnableKeyboardInput@CDXUTDialog@@QAEX_N@Z	; CDXUTDialog::EnableKeyboardInput
PUBLIC	?IsKeyboardInputEnabled@CDXUTDialog@@QBE_NXZ	; CDXUTDialog::IsKeyboardInputEnabled
PUBLIC	?Refresh@CDXUTDialog@@QAEXXZ			; CDXUTDialog::Refresh
PUBLIC	?OnRender@CDXUTDialog@@QAEJM@Z			; CDXUTDialog::OnRender
PUBLIC	?SetFont@CDXUTDialog@@QAEJIPB_WJJ@Z		; CDXUTDialog::SetFont
PUBLIC	?GetFont@CDXUTDialog@@QBEPAUDXUTFontNode@@I@Z	; CDXUTDialog::GetFont
PUBLIC	?SetTexture@CDXUTDialog@@QAEJIPB_W@Z		; CDXUTDialog::SetTexture
PUBLIC	?SetTexture@CDXUTDialog@@QAEJIPB_WPAUHINSTANCE__@@@Z ; CDXUTDialog::SetTexture
PUBLIC	?GetTexture@CDXUTDialog@@QBEPAUDXUTTextureNode@@I@Z ; CDXUTDialog::GetTexture
PUBLIC	?GetManager@CDXUTDialog@@QBEPAVCDXUTDialogResourceManager@@XZ ; CDXUTDialog::GetManager
PUBLIC	?ClearFocus@CDXUTDialog@@SGXXZ			; CDXUTDialog::ClearFocus
PUBLIC	?FocusDefaultControl@CDXUTDialog@@QAEXXZ	; CDXUTDialog::FocusDefaultControl
PUBLIC	?InitDefaultElements@CDXUTDialog@@AAEXXZ	; CDXUTDialog::InitDefaultElements
PUBLIC	?OnMouseMove@CDXUTDialog@@AAEXABUtagPOINT@@@Z	; CDXUTDialog::OnMouseMove
PUBLIC	?OnMouseUp@CDXUTDialog@@AAEXABUtagPOINT@@@Z	; CDXUTDialog::OnMouseUp
PUBLIC	?SetNextDialog@CDXUTDialog@@AAEXPAV1@@Z		; CDXUTDialog::SetNextDialog
PUBLIC	?OnCycleFocus@CDXUTDialog@@AAE_N_N@Z		; CDXUTDialog::OnCycleFocus
PUBLIC	??0?$allocator@H@std@@QAE@XZ			; std::allocator<int>::allocator<int>
PUBLIC	?deallocate@?$allocator@H@std@@QAEXPAHI@Z	; std::allocator<int>::deallocate
PUBLIC	?allocate@?$allocator@H@std@@QAEPAHI@Z		; std::allocator<int>::allocate
PUBLIC	?max_size@?$allocator@H@std@@QBEIXZ		; std::allocator<int>::max_size
PUBLIC	?max_size@?$allocator_traits@V?$allocator@H@std@@@std@@SAIABV?$allocator@H@2@@Z ; std::allocator_traits<std::allocator<int> >::max_size
PUBLIC	??0?$_Wrap_alloc@V?$allocator@H@std@@@std@@QAE@XZ ; std::_Wrap_alloc<std::allocator<int> >::_Wrap_alloc<std::allocator<int> >
PUBLIC	?allocate@?$_Wrap_alloc@V?$allocator@H@std@@@std@@QAEPAHI@Z ; std::_Wrap_alloc<std::allocator<int> >::allocate
PUBLIC	?deallocate@?$_Wrap_alloc@V?$allocator@H@std@@@std@@QAEXPAHI@Z ; std::_Wrap_alloc<std::allocator<int> >::deallocate
PUBLIC	?max_size@?$_Wrap_alloc@V?$allocator@H@std@@@std@@QBEIXZ ; std::_Wrap_alloc<std::allocator<int> >::max_size
PUBLIC	??0?$_Vector_val@U?$_Simple_types@H@std@@@std@@QAE@XZ ; std::_Vector_val<std::_Simple_types<int> >::_Vector_val<std::_Simple_types<int> >
PUBLIC	??1?$_Vector_val@U?$_Simple_types@H@std@@@std@@QAE@XZ ; std::_Vector_val<std::_Simple_types<int> >::~_Vector_val<std::_Simple_types<int> >
PUBLIC	??0?$_Vector_alloc@$0A@U?$_Vec_base_types@HV?$allocator@H@std@@@std@@@std@@QAE@ABV?$allocator@H@1@@Z ; std::_Vector_alloc<0,std::_Vec_base_types<int,std::allocator<int> > >::_Vector_alloc<0,std::_Vec_base_types<int,std::allocator<int> > >
PUBLIC	??1?$_Vector_alloc@$0A@U?$_Vec_base_types@HV?$allocator@H@std@@@std@@@std@@QAE@XZ ; std::_Vector_alloc<0,std::_Vec_base_types<int,std::allocator<int> > >::~_Vector_alloc<0,std::_Vec_base_types<int,std::allocator<int> > >
PUBLIC	?_Alloc_proxy@?$_Vector_alloc@$0A@U?$_Vec_base_types@HV?$allocator@H@std@@@std@@@std@@QAEXXZ ; std::_Vector_alloc<0,std::_Vec_base_types<int,std::allocator<int> > >::_Alloc_proxy
PUBLIC	?_Free_proxy@?$_Vector_alloc@$0A@U?$_Vec_base_types@HV?$allocator@H@std@@@std@@@std@@QAEXXZ ; std::_Vector_alloc<0,std::_Vec_base_types<int,std::allocator<int> > >::_Free_proxy
PUBLIC	?_Getal@?$_Vector_alloc@$0A@U?$_Vec_base_types@HV?$allocator@H@std@@@std@@@std@@QBE?AU?$_Wrap_alloc@V?$allocator@H@std@@@2@XZ ; std::_Vector_alloc<0,std::_Vec_base_types<int,std::allocator<int> > >::_Getal
PUBLIC	??0?$vector@HV?$allocator@H@std@@@std@@QAE@XZ	; std::vector<int,std::allocator<int> >::vector<int,std::allocator<int> >
PUBLIC	?push_back@?$vector@HV?$allocator@H@std@@@std@@QAEX$$QAH@Z ; std::vector<int,std::allocator<int> >::push_back
PUBLIC	??1?$vector@HV?$allocator@H@std@@@std@@QAE@XZ	; std::vector<int,std::allocator<int> >::~vector<int,std::allocator<int> >
PUBLIC	?capacity@?$vector@HV?$allocator@H@std@@@std@@QBEIXZ ; std::vector<int,std::allocator<int> >::capacity
PUBLIC	?_Unused_capacity@?$vector@HV?$allocator@H@std@@@std@@QBEIXZ ; std::vector<int,std::allocator<int> >::_Unused_capacity
PUBLIC	?size@?$vector@HV?$allocator@H@std@@@std@@QBEIXZ ; std::vector<int,std::allocator<int> >::size
PUBLIC	?max_size@?$vector@HV?$allocator@H@std@@@std@@QBEIXZ ; std::vector<int,std::allocator<int> >::max_size
PUBLIC	??A?$vector@HV?$allocator@H@std@@@std@@QBEABHI@Z ; std::vector<int,std::allocator<int> >::operator[]
PUBLIC	??A?$vector@HV?$allocator@H@std@@@std@@QAEAAHI@Z ; std::vector<int,std::allocator<int> >::operator[]
PUBLIC	?clear@?$vector@HV?$allocator@H@std@@@std@@QAEXXZ ; std::vector<int,std::allocator<int> >::clear
PUBLIC	?_Destroy@?$vector@HV?$allocator@H@std@@@std@@IAEXPAH0@Z ; std::vector<int,std::allocator<int> >::_Destroy
PUBLIC	?_Grow_to@?$vector@HV?$allocator@H@std@@@std@@IBEII@Z ; std::vector<int,std::allocator<int> >::_Grow_to
PUBLIC	?_Inside@?$vector@HV?$allocator@H@std@@@std@@IBE_NPBH@Z ; std::vector<int,std::allocator<int> >::_Inside
PUBLIC	?_Reallocate@?$vector@HV?$allocator@H@std@@@std@@IAEXI@Z ; std::vector<int,std::allocator<int> >::_Reallocate
PUBLIC	?_Reserve@?$vector@HV?$allocator@H@std@@@std@@IAEXI@Z ; std::vector<int,std::allocator<int> >::_Reserve
PUBLIC	?_Tidy@?$vector@HV?$allocator@H@std@@@std@@IAEXXZ ; std::vector<int,std::allocator<int> >::_Tidy
PUBLIC	?_Xlen@?$vector@HV?$allocator@H@std@@@std@@IBEXXZ ; std::vector<int,std::allocator<int> >::_Xlen
PUBLIC	?_Orphan_range@?$vector@HV?$allocator@H@std@@@std@@IBEXPAH0@Z ; std::vector<int,std::allocator<int> >::_Orphan_range
PUBLIC	??0?$allocator@PAVCDXUTControl@@@std@@QAE@XZ	; std::allocator<CDXUTControl *>::allocator<CDXUTControl *>
PUBLIC	?deallocate@?$allocator@PAVCDXUTControl@@@std@@QAEXPAPAVCDXUTControl@@I@Z ; std::allocator<CDXUTControl *>::deallocate
PUBLIC	?allocate@?$allocator@PAVCDXUTControl@@@std@@QAEPAPAVCDXUTControl@@I@Z ; std::allocator<CDXUTControl *>::allocate
PUBLIC	?construct@?$allocator@PAVCDXUTControl@@@std@@QAEXPAPAVCDXUTControl@@ABQAV3@@Z ; std::allocator<CDXUTControl *>::construct
PUBLIC	?max_size@?$allocator@PAVCDXUTControl@@@std@@QBEIXZ ; std::allocator<CDXUTControl *>::max_size
PUBLIC	?max_size@?$allocator_traits@V?$allocator@PAVCDXUTControl@@@std@@@std@@SAIABV?$allocator@PAVCDXUTControl@@@2@@Z ; std::allocator_traits<std::allocator<CDXUTControl *> >::max_size
PUBLIC	??0?$_Wrap_alloc@V?$allocator@PAVCDXUTControl@@@std@@@std@@QAE@XZ ; std::_Wrap_alloc<std::allocator<CDXUTControl *> >::_Wrap_alloc<std::allocator<CDXUTControl *> >
PUBLIC	?allocate@?$_Wrap_alloc@V?$allocator@PAVCDXUTControl@@@std@@@std@@QAEPAPAVCDXUTControl@@I@Z ; std::_Wrap_alloc<std::allocator<CDXUTControl *> >::allocate
PUBLIC	?deallocate@?$_Wrap_alloc@V?$allocator@PAVCDXUTControl@@@std@@@std@@QAEXPAPAVCDXUTControl@@I@Z ; std::_Wrap_alloc<std::allocator<CDXUTControl *> >::deallocate
PUBLIC	?max_size@?$_Wrap_alloc@V?$allocator@PAVCDXUTControl@@@std@@@std@@QBEIXZ ; std::_Wrap_alloc<std::allocator<CDXUTControl *> >::max_size
PUBLIC	??0?$_Vector_val@U?$_Simple_types@PAVCDXUTControl@@@std@@@std@@QAE@XZ ; std::_Vector_val<std::_Simple_types<CDXUTControl *> >::_Vector_val<std::_Simple_types<CDXUTControl *> >
PUBLIC	??1?$_Vector_val@U?$_Simple_types@PAVCDXUTControl@@@std@@@std@@QAE@XZ ; std::_Vector_val<std::_Simple_types<CDXUTControl *> >::~_Vector_val<std::_Simple_types<CDXUTControl *> >
PUBLIC	??0?$_Vector_alloc@$0A@U?$_Vec_base_types@PAVCDXUTControl@@V?$allocator@PAVCDXUTControl@@@std@@@std@@@std@@QAE@ABV?$allocator@PAVCDXUTControl@@@1@@Z ; std::_Vector_alloc<0,std::_Vec_base_types<CDXUTControl *,std::allocator<CDXUTControl *> > >::_Vector_alloc<0,std::_Vec_base_types<CDXUTControl *,std::allocator<CDXUTControl *> > >
PUBLIC	??1?$_Vector_alloc@$0A@U?$_Vec_base_types@PAVCDXUTControl@@V?$allocator@PAVCDXUTControl@@@std@@@std@@@std@@QAE@XZ ; std::_Vector_alloc<0,std::_Vec_base_types<CDXUTControl *,std::allocator<CDXUTControl *> > >::~_Vector_alloc<0,std::_Vec_base_types<CDXUTControl *,std::allocator<CDXUTControl *> > >
PUBLIC	?_Alloc_proxy@?$_Vector_alloc@$0A@U?$_Vec_base_types@PAVCDXUTControl@@V?$allocator@PAVCDXUTControl@@@std@@@std@@@std@@QAEXXZ ; std::_Vector_alloc<0,std::_Vec_base_types<CDXUTControl *,std::allocator<CDXUTControl *> > >::_Alloc_proxy
PUBLIC	?_Free_proxy@?$_Vector_alloc@$0A@U?$_Vec_base_types@PAVCDXUTControl@@V?$allocator@PAVCDXUTControl@@@std@@@std@@@std@@QAEXXZ ; std::_Vector_alloc<0,std::_Vec_base_types<CDXUTControl *,std::allocator<CDXUTControl *> > >::_Free_proxy
PUBLIC	?_Getal@?$_Vector_alloc@$0A@U?$_Vec_base_types@PAVCDXUTControl@@V?$allocator@PAVCDXUTControl@@@std@@@std@@@std@@QBE?AU?$_Wrap_alloc@V?$allocator@PAVCDXUTControl@@@std@@@2@XZ ; std::_Vector_alloc<0,std::_Vec_base_types<CDXUTControl *,std::allocator<CDXUTControl *> > >::_Getal
PUBLIC	??0?$vector@PAVCDXUTControl@@V?$allocator@PAVCDXUTControl@@@std@@@std@@QAE@XZ ; std::vector<CDXUTControl *,std::allocator<CDXUTControl *> >::vector<CDXUTControl *,std::allocator<CDXUTControl *> >
PUBLIC	??1?$vector@PAVCDXUTControl@@V?$allocator@PAVCDXUTControl@@@std@@@std@@QAE@XZ ; std::vector<CDXUTControl *,std::allocator<CDXUTControl *> >::~vector<CDXUTControl *,std::allocator<CDXUTControl *> >
PUBLIC	?capacity@?$vector@PAVCDXUTControl@@V?$allocator@PAVCDXUTControl@@@std@@@std@@QBEIXZ ; std::vector<CDXUTControl *,std::allocator<CDXUTControl *> >::capacity
PUBLIC	?_Unused_capacity@?$vector@PAVCDXUTControl@@V?$allocator@PAVCDXUTControl@@@std@@@std@@QBEIXZ ; std::vector<CDXUTControl *,std::allocator<CDXUTControl *> >::_Unused_capacity
PUBLIC	?begin@?$vector@PAVCDXUTControl@@V?$allocator@PAVCDXUTControl@@@std@@@std@@QAE?AV?$_Vector_iterator@V?$_Vector_val@U?$_Simple_types@PAVCDXUTControl@@@std@@@std@@@2@XZ ; std::vector<CDXUTControl *,std::allocator<CDXUTControl *> >::begin
PUBLIC	?begin@?$vector@PAVCDXUTControl@@V?$allocator@PAVCDXUTControl@@@std@@@std@@QBE?AV?$_Vector_const_iterator@V?$_Vector_val@U?$_Simple_types@PAVCDXUTControl@@@std@@@std@@@2@XZ ; std::vector<CDXUTControl *,std::allocator<CDXUTControl *> >::begin
PUBLIC	?end@?$vector@PAVCDXUTControl@@V?$allocator@PAVCDXUTControl@@@std@@@std@@QAE?AV?$_Vector_iterator@V?$_Vector_val@U?$_Simple_types@PAVCDXUTControl@@@std@@@std@@@2@XZ ; std::vector<CDXUTControl *,std::allocator<CDXUTControl *> >::end
PUBLIC	?end@?$vector@PAVCDXUTControl@@V?$allocator@PAVCDXUTControl@@@std@@@std@@QBE?AV?$_Vector_const_iterator@V?$_Vector_val@U?$_Simple_types@PAVCDXUTControl@@@std@@@std@@@2@XZ ; std::vector<CDXUTControl *,std::allocator<CDXUTControl *> >::end
PUBLIC	?_Make_iter@?$vector@PAVCDXUTControl@@V?$allocator@PAVCDXUTControl@@@std@@@std@@QBE?AV?$_Vector_iterator@V?$_Vector_val@U?$_Simple_types@PAVCDXUTControl@@@std@@@std@@@2@V?$_Vector_const_iterator@V?$_Vector_val@U?$_Simple_types@PAVCDXUTControl@@@std@@@std@@@2@@Z ; std::vector<CDXUTControl *,std::allocator<CDXUTControl *> >::_Make_iter
PUBLIC	?cbegin@?$vector@PAVCDXUTControl@@V?$allocator@PAVCDXUTControl@@@std@@@std@@QBE?AV?$_Vector_const_iterator@V?$_Vector_val@U?$_Simple_types@PAVCDXUTControl@@@std@@@std@@@2@XZ ; std::vector<CDXUTControl *,std::allocator<CDXUTControl *> >::cbegin
PUBLIC	?cend@?$vector@PAVCDXUTControl@@V?$allocator@PAVCDXUTControl@@@std@@@std@@QBE?AV?$_Vector_const_iterator@V?$_Vector_val@U?$_Simple_types@PAVCDXUTControl@@@std@@@std@@@2@XZ ; std::vector<CDXUTControl *,std::allocator<CDXUTControl *> >::cend
PUBLIC	?size@?$vector@PAVCDXUTControl@@V?$allocator@PAVCDXUTControl@@@std@@@std@@QBEIXZ ; std::vector<CDXUTControl *,std::allocator<CDXUTControl *> >::size
PUBLIC	?max_size@?$vector@PAVCDXUTControl@@V?$allocator@PAVCDXUTControl@@@std@@@std@@QBEIXZ ; std::vector<CDXUTControl *,std::allocator<CDXUTControl *> >::max_size
PUBLIC	?empty@?$vector@PAVCDXUTControl@@V?$allocator@PAVCDXUTControl@@@std@@@std@@QBE_NXZ ; std::vector<CDXUTControl *,std::allocator<CDXUTControl *> >::empty
PUBLIC	??A?$vector@PAVCDXUTControl@@V?$allocator@PAVCDXUTControl@@@std@@@std@@QAEAAPAVCDXUTControl@@I@Z ; std::vector<CDXUTControl *,std::allocator<CDXUTControl *> >::operator[]
PUBLIC	?push_back@?$vector@PAVCDXUTControl@@V?$allocator@PAVCDXUTControl@@@std@@@std@@QAEXABQAVCDXUTControl@@@Z ; std::vector<CDXUTControl *,std::allocator<CDXUTControl *> >::push_back
PUBLIC	?erase@?$vector@PAVCDXUTControl@@V?$allocator@PAVCDXUTControl@@@std@@@std@@QAE?AV?$_Vector_iterator@V?$_Vector_val@U?$_Simple_types@PAVCDXUTControl@@@std@@@std@@@2@V?$_Vector_const_iterator@V?$_Vector_val@U?$_Simple_types@PAVCDXUTControl@@@std@@@std@@@2@@Z ; std::vector<CDXUTControl *,std::allocator<CDXUTControl *> >::erase
PUBLIC	?clear@?$vector@PAVCDXUTControl@@V?$allocator@PAVCDXUTControl@@@std@@@std@@QAEXXZ ; std::vector<CDXUTControl *,std::allocator<CDXUTControl *> >::clear
PUBLIC	?_Destroy@?$vector@PAVCDXUTControl@@V?$allocator@PAVCDXUTControl@@@std@@@std@@IAEXPAPAVCDXUTControl@@0@Z ; std::vector<CDXUTControl *,std::allocator<CDXUTControl *> >::_Destroy
PUBLIC	?_Grow_to@?$vector@PAVCDXUTControl@@V?$allocator@PAVCDXUTControl@@@std@@@std@@IBEII@Z ; std::vector<CDXUTControl *,std::allocator<CDXUTControl *> >::_Grow_to
PUBLIC	?_Inside@?$vector@PAVCDXUTControl@@V?$allocator@PAVCDXUTControl@@@std@@@std@@IBE_NPBQAVCDXUTControl@@@Z ; std::vector<CDXUTControl *,std::allocator<CDXUTControl *> >::_Inside
PUBLIC	?_Reallocate@?$vector@PAVCDXUTControl@@V?$allocator@PAVCDXUTControl@@@std@@@std@@IAEXI@Z ; std::vector<CDXUTControl *,std::allocator<CDXUTControl *> >::_Reallocate
PUBLIC	?_Reserve@?$vector@PAVCDXUTControl@@V?$allocator@PAVCDXUTControl@@@std@@@std@@IAEXI@Z ; std::vector<CDXUTControl *,std::allocator<CDXUTControl *> >::_Reserve
PUBLIC	?_Tidy@?$vector@PAVCDXUTControl@@V?$allocator@PAVCDXUTControl@@@std@@@std@@IAEXXZ ; std::vector<CDXUTControl *,std::allocator<CDXUTControl *> >::_Tidy
PUBLIC	?_Xlen@?$vector@PAVCDXUTControl@@V?$allocator@PAVCDXUTControl@@@std@@@std@@IBEXXZ ; std::vector<CDXUTControl *,std::allocator<CDXUTControl *> >::_Xlen
PUBLIC	?_Orphan_range@?$vector@PAVCDXUTControl@@V?$allocator@PAVCDXUTControl@@@std@@@std@@IBEXPAPAVCDXUTControl@@0@Z ; std::vector<CDXUTControl *,std::allocator<CDXUTControl *> >::_Orphan_range
PUBLIC	??0?$allocator@PAUDXUTElementHolder@@@std@@QAE@XZ ; std::allocator<DXUTElementHolder *>::allocator<DXUTElementHolder *>
PUBLIC	?deallocate@?$allocator@PAUDXUTElementHolder@@@std@@QAEXPAPAUDXUTElementHolder@@I@Z ; std::allocator<DXUTElementHolder *>::deallocate
PUBLIC	?allocate@?$allocator@PAUDXUTElementHolder@@@std@@QAEPAPAUDXUTElementHolder@@I@Z ; std::allocator<DXUTElementHolder *>::allocate
PUBLIC	?construct@?$allocator@PAUDXUTElementHolder@@@std@@QAEXPAPAUDXUTElementHolder@@ABQAU3@@Z ; std::allocator<DXUTElementHolder *>::construct
PUBLIC	?max_size@?$allocator@PAUDXUTElementHolder@@@std@@QBEIXZ ; std::allocator<DXUTElementHolder *>::max_size
PUBLIC	?max_size@?$allocator_traits@V?$allocator@PAUDXUTElementHolder@@@std@@@std@@SAIABV?$allocator@PAUDXUTElementHolder@@@2@@Z ; std::allocator_traits<std::allocator<DXUTElementHolder *> >::max_size
PUBLIC	??0?$_Wrap_alloc@V?$allocator@PAUDXUTElementHolder@@@std@@@std@@QAE@XZ ; std::_Wrap_alloc<std::allocator<DXUTElementHolder *> >::_Wrap_alloc<std::allocator<DXUTElementHolder *> >
PUBLIC	?allocate@?$_Wrap_alloc@V?$allocator@PAUDXUTElementHolder@@@std@@@std@@QAEPAPAUDXUTElementHolder@@I@Z ; std::_Wrap_alloc<std::allocator<DXUTElementHolder *> >::allocate
PUBLIC	?deallocate@?$_Wrap_alloc@V?$allocator@PAUDXUTElementHolder@@@std@@@std@@QAEXPAPAUDXUTElementHolder@@I@Z ; std::_Wrap_alloc<std::allocator<DXUTElementHolder *> >::deallocate
PUBLIC	?max_size@?$_Wrap_alloc@V?$allocator@PAUDXUTElementHolder@@@std@@@std@@QBEIXZ ; std::_Wrap_alloc<std::allocator<DXUTElementHolder *> >::max_size
PUBLIC	??0?$_Vector_val@U?$_Simple_types@PAUDXUTElementHolder@@@std@@@std@@QAE@XZ ; std::_Vector_val<std::_Simple_types<DXUTElementHolder *> >::_Vector_val<std::_Simple_types<DXUTElementHolder *> >
PUBLIC	??1?$_Vector_val@U?$_Simple_types@PAUDXUTElementHolder@@@std@@@std@@QAE@XZ ; std::_Vector_val<std::_Simple_types<DXUTElementHolder *> >::~_Vector_val<std::_Simple_types<DXUTElementHolder *> >
PUBLIC	??0?$_Vector_alloc@$0A@U?$_Vec_base_types@PAUDXUTElementHolder@@V?$allocator@PAUDXUTElementHolder@@@std@@@std@@@std@@QAE@ABV?$allocator@PAUDXUTElementHolder@@@1@@Z ; std::_Vector_alloc<0,std::_Vec_base_types<DXUTElementHolder *,std::allocator<DXUTElementHolder *> > >::_Vector_alloc<0,std::_Vec_base_types<DXUTElementHolder *,std::allocator<DXUTElementHolder *> > >
PUBLIC	??1?$_Vector_alloc@$0A@U?$_Vec_base_types@PAUDXUTElementHolder@@V?$allocator@PAUDXUTElementHolder@@@std@@@std@@@std@@QAE@XZ ; std::_Vector_alloc<0,std::_Vec_base_types<DXUTElementHolder *,std::allocator<DXUTElementHolder *> > >::~_Vector_alloc<0,std::_Vec_base_types<DXUTElementHolder *,std::allocator<DXUTElementHolder *> > >
PUBLIC	?_Alloc_proxy@?$_Vector_alloc@$0A@U?$_Vec_base_types@PAUDXUTElementHolder@@V?$allocator@PAUDXUTElementHolder@@@std@@@std@@@std@@QAEXXZ ; std::_Vector_alloc<0,std::_Vec_base_types<DXUTElementHolder *,std::allocator<DXUTElementHolder *> > >::_Alloc_proxy
PUBLIC	?_Free_proxy@?$_Vector_alloc@$0A@U?$_Vec_base_types@PAUDXUTElementHolder@@V?$allocator@PAUDXUTElementHolder@@@std@@@std@@@std@@QAEXXZ ; std::_Vector_alloc<0,std::_Vec_base_types<DXUTElementHolder *,std::allocator<DXUTElementHolder *> > >::_Free_proxy
PUBLIC	?_Getal@?$_Vector_alloc@$0A@U?$_Vec_base_types@PAUDXUTElementHolder@@V?$allocator@PAUDXUTElementHolder@@@std@@@std@@@std@@QBE?AU?$_Wrap_alloc@V?$allocator@PAUDXUTElementHolder@@@std@@@2@XZ ; std::_Vector_alloc<0,std::_Vec_base_types<DXUTElementHolder *,std::allocator<DXUTElementHolder *> > >::_Getal
PUBLIC	??0?$vector@PAUDXUTElementHolder@@V?$allocator@PAUDXUTElementHolder@@@std@@@std@@QAE@XZ ; std::vector<DXUTElementHolder *,std::allocator<DXUTElementHolder *> >::vector<DXUTElementHolder *,std::allocator<DXUTElementHolder *> >
PUBLIC	??1?$vector@PAUDXUTElementHolder@@V?$allocator@PAUDXUTElementHolder@@@std@@@std@@QAE@XZ ; std::vector<DXUTElementHolder *,std::allocator<DXUTElementHolder *> >::~vector<DXUTElementHolder *,std::allocator<DXUTElementHolder *> >
PUBLIC	?capacity@?$vector@PAUDXUTElementHolder@@V?$allocator@PAUDXUTElementHolder@@@std@@@std@@QBEIXZ ; std::vector<DXUTElementHolder *,std::allocator<DXUTElementHolder *> >::capacity
PUBLIC	?_Unused_capacity@?$vector@PAUDXUTElementHolder@@V?$allocator@PAUDXUTElementHolder@@@std@@@std@@QBEIXZ ; std::vector<DXUTElementHolder *,std::allocator<DXUTElementHolder *> >::_Unused_capacity
PUBLIC	?begin@?$vector@PAUDXUTElementHolder@@V?$allocator@PAUDXUTElementHolder@@@std@@@std@@QAE?AV?$_Vector_iterator@V?$_Vector_val@U?$_Simple_types@PAUDXUTElementHolder@@@std@@@std@@@2@XZ ; std::vector<DXUTElementHolder *,std::allocator<DXUTElementHolder *> >::begin
PUBLIC	?begin@?$vector@PAUDXUTElementHolder@@V?$allocator@PAUDXUTElementHolder@@@std@@@std@@QBE?AV?$_Vector_const_iterator@V?$_Vector_val@U?$_Simple_types@PAUDXUTElementHolder@@@std@@@std@@@2@XZ ; std::vector<DXUTElementHolder *,std::allocator<DXUTElementHolder *> >::begin
PUBLIC	?end@?$vector@PAUDXUTElementHolder@@V?$allocator@PAUDXUTElementHolder@@@std@@@std@@QAE?AV?$_Vector_iterator@V?$_Vector_val@U?$_Simple_types@PAUDXUTElementHolder@@@std@@@std@@@2@XZ ; std::vector<DXUTElementHolder *,std::allocator<DXUTElementHolder *> >::end
PUBLIC	?end@?$vector@PAUDXUTElementHolder@@V?$allocator@PAUDXUTElementHolder@@@std@@@std@@QBE?AV?$_Vector_const_iterator@V?$_Vector_val@U?$_Simple_types@PAUDXUTElementHolder@@@std@@@std@@@2@XZ ; std::vector<DXUTElementHolder *,std::allocator<DXUTElementHolder *> >::end
PUBLIC	?cbegin@?$vector@PAUDXUTElementHolder@@V?$allocator@PAUDXUTElementHolder@@@std@@@std@@QBE?AV?$_Vector_const_iterator@V?$_Vector_val@U?$_Simple_types@PAUDXUTElementHolder@@@std@@@std@@@2@XZ ; std::vector<DXUTElementHolder *,std::allocator<DXUTElementHolder *> >::cbegin
PUBLIC	?cend@?$vector@PAUDXUTElementHolder@@V?$allocator@PAUDXUTElementHolder@@@std@@@std@@QBE?AV?$_Vector_const_iterator@V?$_Vector_val@U?$_Simple_types@PAUDXUTElementHolder@@@std@@@std@@@2@XZ ; std::vector<DXUTElementHolder *,std::allocator<DXUTElementHolder *> >::cend
PUBLIC	?size@?$vector@PAUDXUTElementHolder@@V?$allocator@PAUDXUTElementHolder@@@std@@@std@@QBEIXZ ; std::vector<DXUTElementHolder *,std::allocator<DXUTElementHolder *> >::size
PUBLIC	?max_size@?$vector@PAUDXUTElementHolder@@V?$allocator@PAUDXUTElementHolder@@@std@@@std@@QBEIXZ ; std::vector<DXUTElementHolder *,std::allocator<DXUTElementHolder *> >::max_size
PUBLIC	?push_back@?$vector@PAUDXUTElementHolder@@V?$allocator@PAUDXUTElementHolder@@@std@@@std@@QAEXABQAUDXUTElementHolder@@@Z ; std::vector<DXUTElementHolder *,std::allocator<DXUTElementHolder *> >::push_back
PUBLIC	?clear@?$vector@PAUDXUTElementHolder@@V?$allocator@PAUDXUTElementHolder@@@std@@@std@@QAEXXZ ; std::vector<DXUTElementHolder *,std::allocator<DXUTElementHolder *> >::clear
PUBLIC	?_Destroy@?$vector@PAUDXUTElementHolder@@V?$allocator@PAUDXUTElementHolder@@@std@@@std@@IAEXPAPAUDXUTElementHolder@@0@Z ; std::vector<DXUTElementHolder *,std::allocator<DXUTElementHolder *> >::_Destroy
PUBLIC	?_Grow_to@?$vector@PAUDXUTElementHolder@@V?$allocator@PAUDXUTElementHolder@@@std@@@std@@IBEII@Z ; std::vector<DXUTElementHolder *,std::allocator<DXUTElementHolder *> >::_Grow_to
PUBLIC	?_Inside@?$vector@PAUDXUTElementHolder@@V?$allocator@PAUDXUTElementHolder@@@std@@@std@@IBE_NPBQAUDXUTElementHolder@@@Z ; std::vector<DXUTElementHolder *,std::allocator<DXUTElementHolder *> >::_Inside
PUBLIC	?_Reallocate@?$vector@PAUDXUTElementHolder@@V?$allocator@PAUDXUTElementHolder@@@std@@@std@@IAEXI@Z ; std::vector<DXUTElementHolder *,std::allocator<DXUTElementHolder *> >::_Reallocate
PUBLIC	?_Reserve@?$vector@PAUDXUTElementHolder@@V?$allocator@PAUDXUTElementHolder@@@std@@@std@@IAEXI@Z ; std::vector<DXUTElementHolder *,std::allocator<DXUTElementHolder *> >::_Reserve
PUBLIC	?_Tidy@?$vector@PAUDXUTElementHolder@@V?$allocator@PAUDXUTElementHolder@@@std@@@std@@IAEXXZ ; std::vector<DXUTElementHolder *,std::allocator<DXUTElementHolder *> >::_Tidy
PUBLIC	?_Xlen@?$vector@PAUDXUTElementHolder@@V?$allocator@PAUDXUTElementHolder@@@std@@@std@@IBEXXZ ; std::vector<DXUTElementHolder *,std::allocator<DXUTElementHolder *> >::_Xlen
PUBLIC	?_Orphan_range@?$vector@PAUDXUTElementHolder@@V?$allocator@PAUDXUTElementHolder@@@std@@@std@@IBEXPAPAUDXUTElementHolder@@0@Z ; std::vector<DXUTElementHolder *,std::allocator<DXUTElementHolder *> >::_Orphan_range
PUBLIC	??0DXUTSpriteVertex@@QAE@XZ			; DXUTSpriteVertex::DXUTSpriteVertex
PUBLIC	??0CDXUTDialogResourceManager@@QAE@XZ		; CDXUTDialogResourceManager::CDXUTDialogResourceManager
PUBLIC	??1CDXUTDialogResourceManager@@QAE@XZ		; CDXUTDialogResourceManager::~CDXUTDialogResourceManager
PUBLIC	?MsgProc@CDXUTDialogResourceManager@@QAE_NPAUHWND__@@IIJ@Z ; CDXUTDialogResourceManager::MsgProc
PUBLIC	?OnD3D11CreateDevice@CDXUTDialogResourceManager@@QAEJPAUID3D11Device@@PAUID3D11DeviceContext@@@Z ; CDXUTDialogResourceManager::OnD3D11CreateDevice
PUBLIC	?OnD3D11ResizedSwapChain@CDXUTDialogResourceManager@@QAEJPAUID3D11Device@@PBUDXGI_SURFACE_DESC@@@Z ; CDXUTDialogResourceManager::OnD3D11ResizedSwapChain
PUBLIC	?OnD3D11ReleasingSwapChain@CDXUTDialogResourceManager@@QAEXXZ ; CDXUTDialogResourceManager::OnD3D11ReleasingSwapChain
PUBLIC	?OnD3D11DestroyDevice@CDXUTDialogResourceManager@@QAEXXZ ; CDXUTDialogResourceManager::OnD3D11DestroyDevice
PUBLIC	?StoreD3D11State@CDXUTDialogResourceManager@@QAEXPAUID3D11DeviceContext@@@Z ; CDXUTDialogResourceManager::StoreD3D11State
PUBLIC	?RestoreD3D11State@CDXUTDialogResourceManager@@QAEXPAUID3D11DeviceContext@@@Z ; CDXUTDialogResourceManager::RestoreD3D11State
PUBLIC	?ApplyRenderUI11@CDXUTDialogResourceManager@@QAEXPAUID3D11DeviceContext@@@Z ; CDXUTDialogResourceManager::ApplyRenderUI11
PUBLIC	?ApplyRenderUIUntex11@CDXUTDialogResourceManager@@QAEXPAUID3D11DeviceContext@@@Z ; CDXUTDialogResourceManager::ApplyRenderUIUntex11
PUBLIC	?BeginSprites11@CDXUTDialogResourceManager@@QAEXXZ ; CDXUTDialogResourceManager::BeginSprites11
PUBLIC	?EndSprites11@CDXUTDialogResourceManager@@QAEXPAUID3D11Device@@PAUID3D11DeviceContext@@@Z ; CDXUTDialogResourceManager::EndSprites11
PUBLIC	?GetD3D11Device@CDXUTDialogResourceManager@@QBEPAUID3D11Device@@XZ ; CDXUTDialogResourceManager::GetD3D11Device
PUBLIC	?GetD3D11DeviceContext@CDXUTDialogResourceManager@@QBEPAUID3D11DeviceContext@@XZ ; CDXUTDialogResourceManager::GetD3D11DeviceContext
PUBLIC	?GetFontNode@CDXUTDialogResourceManager@@QBEPAUDXUTFontNode@@I@Z ; CDXUTDialogResourceManager::GetFontNode
PUBLIC	?GetTextureNode@CDXUTDialogResourceManager@@QBEPAUDXUTTextureNode@@I@Z ; CDXUTDialogResourceManager::GetTextureNode
PUBLIC	?AddFont@CDXUTDialogResourceManager@@QAEHPB_WJJ@Z ; CDXUTDialogResourceManager::AddFont
PUBLIC	?AddTexture@CDXUTDialogResourceManager@@QAEHPB_W@Z ; CDXUTDialogResourceManager::AddTexture
PUBLIC	?AddTexture@CDXUTDialogResourceManager@@QAEHPB_WPAUHINSTANCE__@@@Z ; CDXUTDialogResourceManager::AddTexture
PUBLIC	?RegisterDialog@CDXUTDialogResourceManager@@QAE_NPAVCDXUTDialog@@@Z ; CDXUTDialogResourceManager::RegisterDialog
PUBLIC	?UnregisterDialog@CDXUTDialogResourceManager@@QAEXPAVCDXUTDialog@@@Z ; CDXUTDialogResourceManager::UnregisterDialog
PUBLIC	?EnableKeyboardInputForAllDialogs@CDXUTDialogResourceManager@@QAEXXZ ; CDXUTDialogResourceManager::EnableKeyboardInputForAllDialogs
PUBLIC	??0?$allocator@UDXUTSpriteVertex@@@std@@QAE@XZ	; std::allocator<DXUTSpriteVertex>::allocator<DXUTSpriteVertex>
PUBLIC	?deallocate@?$allocator@UDXUTSpriteVertex@@@std@@QAEXPAUDXUTSpriteVertex@@I@Z ; std::allocator<DXUTSpriteVertex>::deallocate
PUBLIC	?allocate@?$allocator@UDXUTSpriteVertex@@@std@@QAEPAUDXUTSpriteVertex@@I@Z ; std::allocator<DXUTSpriteVertex>::allocate
PUBLIC	?construct@?$allocator@UDXUTSpriteVertex@@@std@@QAEXPAUDXUTSpriteVertex@@ABU3@@Z ; std::allocator<DXUTSpriteVertex>::construct
PUBLIC	?max_size@?$allocator@UDXUTSpriteVertex@@@std@@QBEIXZ ; std::allocator<DXUTSpriteVertex>::max_size
PUBLIC	?max_size@?$allocator_traits@V?$allocator@UDXUTSpriteVertex@@@std@@@std@@SAIABV?$allocator@UDXUTSpriteVertex@@@2@@Z ; std::allocator_traits<std::allocator<DXUTSpriteVertex> >::max_size
PUBLIC	??0?$_Wrap_alloc@V?$allocator@UDXUTSpriteVertex@@@std@@@std@@QAE@XZ ; std::_Wrap_alloc<std::allocator<DXUTSpriteVertex> >::_Wrap_alloc<std::allocator<DXUTSpriteVertex> >
PUBLIC	?allocate@?$_Wrap_alloc@V?$allocator@UDXUTSpriteVertex@@@std@@@std@@QAEPAUDXUTSpriteVertex@@I@Z ; std::_Wrap_alloc<std::allocator<DXUTSpriteVertex> >::allocate
PUBLIC	?deallocate@?$_Wrap_alloc@V?$allocator@UDXUTSpriteVertex@@@std@@@std@@QAEXPAUDXUTSpriteVertex@@I@Z ; std::_Wrap_alloc<std::allocator<DXUTSpriteVertex> >::deallocate
PUBLIC	?max_size@?$_Wrap_alloc@V?$allocator@UDXUTSpriteVertex@@@std@@@std@@QBEIXZ ; std::_Wrap_alloc<std::allocator<DXUTSpriteVertex> >::max_size
PUBLIC	??0?$_Vector_val@U?$_Simple_types@UDXUTSpriteVertex@@@std@@@std@@QAE@XZ ; std::_Vector_val<std::_Simple_types<DXUTSpriteVertex> >::_Vector_val<std::_Simple_types<DXUTSpriteVertex> >
PUBLIC	??1?$_Vector_val@U?$_Simple_types@UDXUTSpriteVertex@@@std@@@std@@QAE@XZ ; std::_Vector_val<std::_Simple_types<DXUTSpriteVertex> >::~_Vector_val<std::_Simple_types<DXUTSpriteVertex> >
PUBLIC	??0?$_Vector_alloc@$0A@U?$_Vec_base_types@UDXUTSpriteVertex@@V?$allocator@UDXUTSpriteVertex@@@std@@@std@@@std@@QAE@ABV?$allocator@UDXUTSpriteVertex@@@1@@Z ; std::_Vector_alloc<0,std::_Vec_base_types<DXUTSpriteVertex,std::allocator<DXUTSpriteVertex> > >::_Vector_alloc<0,std::_Vec_base_types<DXUTSpriteVertex,std::allocator<DXUTSpriteVertex> > >
PUBLIC	??1?$_Vector_alloc@$0A@U?$_Vec_base_types@UDXUTSpriteVertex@@V?$allocator@UDXUTSpriteVertex@@@std@@@std@@@std@@QAE@XZ ; std::_Vector_alloc<0,std::_Vec_base_types<DXUTSpriteVertex,std::allocator<DXUTSpriteVertex> > >::~_Vector_alloc<0,std::_Vec_base_types<DXUTSpriteVertex,std::allocator<DXUTSpriteVertex> > >
PUBLIC	?_Alloc_proxy@?$_Vector_alloc@$0A@U?$_Vec_base_types@UDXUTSpriteVertex@@V?$allocator@UDXUTSpriteVertex@@@std@@@std@@@std@@QAEXXZ ; std::_Vector_alloc<0,std::_Vec_base_types<DXUTSpriteVertex,std::allocator<DXUTSpriteVertex> > >::_Alloc_proxy
PUBLIC	?_Free_proxy@?$_Vector_alloc@$0A@U?$_Vec_base_types@UDXUTSpriteVertex@@V?$allocator@UDXUTSpriteVertex@@@std@@@std@@@std@@QAEXXZ ; std::_Vector_alloc<0,std::_Vec_base_types<DXUTSpriteVertex,std::allocator<DXUTSpriteVertex> > >::_Free_proxy
PUBLIC	?_Getal@?$_Vector_alloc@$0A@U?$_Vec_base_types@UDXUTSpriteVertex@@V?$allocator@UDXUTSpriteVertex@@@std@@@std@@@std@@QBE?AU?$_Wrap_alloc@V?$allocator@UDXUTSpriteVertex@@@std@@@2@XZ ; std::_Vector_alloc<0,std::_Vec_base_types<DXUTSpriteVertex,std::allocator<DXUTSpriteVertex> > >::_Getal
PUBLIC	??0?$vector@UDXUTSpriteVertex@@V?$allocator@UDXUTSpriteVertex@@@std@@@std@@QAE@XZ ; std::vector<DXUTSpriteVertex,std::allocator<DXUTSpriteVertex> >::vector<DXUTSpriteVertex,std::allocator<DXUTSpriteVertex> >
PUBLIC	??1?$vector@UDXUTSpriteVertex@@V?$allocator@UDXUTSpriteVertex@@@std@@@std@@QAE@XZ ; std::vector<DXUTSpriteVertex,std::allocator<DXUTSpriteVertex> >::~vector<DXUTSpriteVertex,std::allocator<DXUTSpriteVertex> >
PUBLIC	?capacity@?$vector@UDXUTSpriteVertex@@V?$allocator@UDXUTSpriteVertex@@@std@@@std@@QBEIXZ ; std::vector<DXUTSpriteVertex,std::allocator<DXUTSpriteVertex> >::capacity
PUBLIC	?_Unused_capacity@?$vector@UDXUTSpriteVertex@@V?$allocator@UDXUTSpriteVertex@@@std@@@std@@QBEIXZ ; std::vector<DXUTSpriteVertex,std::allocator<DXUTSpriteVertex> >::_Unused_capacity
PUBLIC	?size@?$vector@UDXUTSpriteVertex@@V?$allocator@UDXUTSpriteVertex@@@std@@@std@@QBEIXZ ; std::vector<DXUTSpriteVertex,std::allocator<DXUTSpriteVertex> >::size
PUBLIC	?max_size@?$vector@UDXUTSpriteVertex@@V?$allocator@UDXUTSpriteVertex@@@std@@@std@@QBEIXZ ; std::vector<DXUTSpriteVertex,std::allocator<DXUTSpriteVertex> >::max_size
PUBLIC	?empty@?$vector@UDXUTSpriteVertex@@V?$allocator@UDXUTSpriteVertex@@@std@@@std@@QBE_NXZ ; std::vector<DXUTSpriteVertex,std::allocator<DXUTSpriteVertex> >::empty
PUBLIC	??A?$vector@UDXUTSpriteVertex@@V?$allocator@UDXUTSpriteVertex@@@std@@@std@@QAEAAUDXUTSpriteVertex@@I@Z ; std::vector<DXUTSpriteVertex,std::allocator<DXUTSpriteVertex> >::operator[]
PUBLIC	?push_back@?$vector@UDXUTSpriteVertex@@V?$allocator@UDXUTSpriteVertex@@@std@@@std@@QAEXABUDXUTSpriteVertex@@@Z ; std::vector<DXUTSpriteVertex,std::allocator<DXUTSpriteVertex> >::push_back
PUBLIC	?clear@?$vector@UDXUTSpriteVertex@@V?$allocator@UDXUTSpriteVertex@@@std@@@std@@QAEXXZ ; std::vector<DXUTSpriteVertex,std::allocator<DXUTSpriteVertex> >::clear
PUBLIC	?_Destroy@?$vector@UDXUTSpriteVertex@@V?$allocator@UDXUTSpriteVertex@@@std@@@std@@IAEXPAUDXUTSpriteVertex@@0@Z ; std::vector<DXUTSpriteVertex,std::allocator<DXUTSpriteVertex> >::_Destroy
PUBLIC	?_Grow_to@?$vector@UDXUTSpriteVertex@@V?$allocator@UDXUTSpriteVertex@@@std@@@std@@IBEII@Z ; std::vector<DXUTSpriteVertex,std::allocator<DXUTSpriteVertex> >::_Grow_to
PUBLIC	?_Inside@?$vector@UDXUTSpriteVertex@@V?$allocator@UDXUTSpriteVertex@@@std@@@std@@IBE_NPBUDXUTSpriteVertex@@@Z ; std::vector<DXUTSpriteVertex,std::allocator<DXUTSpriteVertex> >::_Inside
PUBLIC	?_Reallocate@?$vector@UDXUTSpriteVertex@@V?$allocator@UDXUTSpriteVertex@@@std@@@std@@IAEXI@Z ; std::vector<DXUTSpriteVertex,std::allocator<DXUTSpriteVertex> >::_Reallocate
PUBLIC	?_Reserve@?$vector@UDXUTSpriteVertex@@V?$allocator@UDXUTSpriteVertex@@@std@@@std@@IAEXI@Z ; std::vector<DXUTSpriteVertex,std::allocator<DXUTSpriteVertex> >::_Reserve
PUBLIC	?_Tidy@?$vector@UDXUTSpriteVertex@@V?$allocator@UDXUTSpriteVertex@@@std@@@std@@IAEXXZ ; std::vector<DXUTSpriteVertex,std::allocator<DXUTSpriteVertex> >::_Tidy
PUBLIC	?_Xlen@?$vector@UDXUTSpriteVertex@@V?$allocator@UDXUTSpriteVertex@@@std@@@std@@IBEXXZ ; std::vector<DXUTSpriteVertex,std::allocator<DXUTSpriteVertex> >::_Xlen
PUBLIC	?_Orphan_range@?$vector@UDXUTSpriteVertex@@V?$allocator@UDXUTSpriteVertex@@@std@@@std@@IBEXPAUDXUTSpriteVertex@@0@Z ; std::vector<DXUTSpriteVertex,std::allocator<DXUTSpriteVertex> >::_Orphan_range
PUBLIC	??0?$allocator@PAVCDXUTDialog@@@std@@QAE@XZ	; std::allocator<CDXUTDialog *>::allocator<CDXUTDialog *>
PUBLIC	?deallocate@?$allocator@PAVCDXUTDialog@@@std@@QAEXPAPAVCDXUTDialog@@I@Z ; std::allocator<CDXUTDialog *>::deallocate
PUBLIC	?allocate@?$allocator@PAVCDXUTDialog@@@std@@QAEPAPAVCDXUTDialog@@I@Z ; std::allocator<CDXUTDialog *>::allocate
PUBLIC	?construct@?$allocator@PAVCDXUTDialog@@@std@@QAEXPAPAVCDXUTDialog@@ABQAV3@@Z ; std::allocator<CDXUTDialog *>::construct
PUBLIC	?max_size@?$allocator@PAVCDXUTDialog@@@std@@QBEIXZ ; std::allocator<CDXUTDialog *>::max_size
PUBLIC	?max_size@?$allocator_traits@V?$allocator@PAVCDXUTDialog@@@std@@@std@@SAIABV?$allocator@PAVCDXUTDialog@@@2@@Z ; std::allocator_traits<std::allocator<CDXUTDialog *> >::max_size
PUBLIC	??0?$_Wrap_alloc@V?$allocator@PAVCDXUTDialog@@@std@@@std@@QAE@XZ ; std::_Wrap_alloc<std::allocator<CDXUTDialog *> >::_Wrap_alloc<std::allocator<CDXUTDialog *> >
PUBLIC	?allocate@?$_Wrap_alloc@V?$allocator@PAVCDXUTDialog@@@std@@@std@@QAEPAPAVCDXUTDialog@@I@Z ; std::_Wrap_alloc<std::allocator<CDXUTDialog *> >::allocate
PUBLIC	?deallocate@?$_Wrap_alloc@V?$allocator@PAVCDXUTDialog@@@std@@@std@@QAEXPAPAVCDXUTDialog@@I@Z ; std::_Wrap_alloc<std::allocator<CDXUTDialog *> >::deallocate
PUBLIC	?max_size@?$_Wrap_alloc@V?$allocator@PAVCDXUTDialog@@@std@@@std@@QBEIXZ ; std::_Wrap_alloc<std::allocator<CDXUTDialog *> >::max_size
PUBLIC	??0?$_Vector_val@U?$_Simple_types@PAVCDXUTDialog@@@std@@@std@@QAE@XZ ; std::_Vector_val<std::_Simple_types<CDXUTDialog *> >::_Vector_val<std::_Simple_types<CDXUTDialog *> >
PUBLIC	??1?$_Vector_val@U?$_Simple_types@PAVCDXUTDialog@@@std@@@std@@QAE@XZ ; std::_Vector_val<std::_Simple_types<CDXUTDialog *> >::~_Vector_val<std::_Simple_types<CDXUTDialog *> >
PUBLIC	??0?$_Vector_alloc@$0A@U?$_Vec_base_types@PAVCDXUTDialog@@V?$allocator@PAVCDXUTDialog@@@std@@@std@@@std@@QAE@ABV?$allocator@PAVCDXUTDialog@@@1@@Z ; std::_Vector_alloc<0,std::_Vec_base_types<CDXUTDialog *,std::allocator<CDXUTDialog *> > >::_Vector_alloc<0,std::_Vec_base_types<CDXUTDialog *,std::allocator<CDXUTDialog *> > >
PUBLIC	??1?$_Vector_alloc@$0A@U?$_Vec_base_types@PAVCDXUTDialog@@V?$allocator@PAVCDXUTDialog@@@std@@@std@@@std@@QAE@XZ ; std::_Vector_alloc<0,std::_Vec_base_types<CDXUTDialog *,std::allocator<CDXUTDialog *> > >::~_Vector_alloc<0,std::_Vec_base_types<CDXUTDialog *,std::allocator<CDXUTDialog *> > >
PUBLIC	?_Alloc_proxy@?$_Vector_alloc@$0A@U?$_Vec_base_types@PAVCDXUTDialog@@V?$allocator@PAVCDXUTDialog@@@std@@@std@@@std@@QAEXXZ ; std::_Vector_alloc<0,std::_Vec_base_types<CDXUTDialog *,std::allocator<CDXUTDialog *> > >::_Alloc_proxy
PUBLIC	?_Free_proxy@?$_Vector_alloc@$0A@U?$_Vec_base_types@PAVCDXUTDialog@@V?$allocator@PAVCDXUTDialog@@@std@@@std@@@std@@QAEXXZ ; std::_Vector_alloc<0,std::_Vec_base_types<CDXUTDialog *,std::allocator<CDXUTDialog *> > >::_Free_proxy
PUBLIC	?_Getal@?$_Vector_alloc@$0A@U?$_Vec_base_types@PAVCDXUTDialog@@V?$allocator@PAVCDXUTDialog@@@std@@@std@@@std@@QBE?AU?$_Wrap_alloc@V?$allocator@PAVCDXUTDialog@@@std@@@2@XZ ; std::_Vector_alloc<0,std::_Vec_base_types<CDXUTDialog *,std::allocator<CDXUTDialog *> > >::_Getal
PUBLIC	??0?$vector@PAVCDXUTDialog@@V?$allocator@PAVCDXUTDialog@@@std@@@std@@QAE@XZ ; std::vector<CDXUTDialog *,std::allocator<CDXUTDialog *> >::vector<CDXUTDialog *,std::allocator<CDXUTDialog *> >
PUBLIC	??1?$vector@PAVCDXUTDialog@@V?$allocator@PAVCDXUTDialog@@@std@@@std@@QAE@XZ ; std::vector<CDXUTDialog *,std::allocator<CDXUTDialog *> >::~vector<CDXUTDialog *,std::allocator<CDXUTDialog *> >
PUBLIC	?capacity@?$vector@PAVCDXUTDialog@@V?$allocator@PAVCDXUTDialog@@@std@@@std@@QBEIXZ ; std::vector<CDXUTDialog *,std::allocator<CDXUTDialog *> >::capacity
PUBLIC	?_Unused_capacity@?$vector@PAVCDXUTDialog@@V?$allocator@PAVCDXUTDialog@@@std@@@std@@QBEIXZ ; std::vector<CDXUTDialog *,std::allocator<CDXUTDialog *> >::_Unused_capacity
PUBLIC	?begin@?$vector@PAVCDXUTDialog@@V?$allocator@PAVCDXUTDialog@@@std@@@std@@QAE?AV?$_Vector_iterator@V?$_Vector_val@U?$_Simple_types@PAVCDXUTDialog@@@std@@@std@@@2@XZ ; std::vector<CDXUTDialog *,std::allocator<CDXUTDialog *> >::begin
PUBLIC	?begin@?$vector@PAVCDXUTDialog@@V?$allocator@PAVCDXUTDialog@@@std@@@std@@QBE?AV?$_Vector_const_iterator@V?$_Vector_val@U?$_Simple_types@PAVCDXUTDialog@@@std@@@std@@@2@XZ ; std::vector<CDXUTDialog *,std::allocator<CDXUTDialog *> >::begin
PUBLIC	?end@?$vector@PAVCDXUTDialog@@V?$allocator@PAVCDXUTDialog@@@std@@@std@@QAE?AV?$_Vector_iterator@V?$_Vector_val@U?$_Simple_types@PAVCDXUTDialog@@@std@@@std@@@2@XZ ; std::vector<CDXUTDialog *,std::allocator<CDXUTDialog *> >::end
PUBLIC	?end@?$vector@PAVCDXUTDialog@@V?$allocator@PAVCDXUTDialog@@@std@@@std@@QBE?AV?$_Vector_const_iterator@V?$_Vector_val@U?$_Simple_types@PAVCDXUTDialog@@@std@@@std@@@2@XZ ; std::vector<CDXUTDialog *,std::allocator<CDXUTDialog *> >::end
PUBLIC	?_Make_iter@?$vector@PAVCDXUTDialog@@V?$allocator@PAVCDXUTDialog@@@std@@@std@@QBE?AV?$_Vector_iterator@V?$_Vector_val@U?$_Simple_types@PAVCDXUTDialog@@@std@@@std@@@2@V?$_Vector_const_iterator@V?$_Vector_val@U?$_Simple_types@PAVCDXUTDialog@@@std@@@std@@@2@@Z ; std::vector<CDXUTDialog *,std::allocator<CDXUTDialog *> >::_Make_iter
PUBLIC	?rbegin@?$vector@PAVCDXUTDialog@@V?$allocator@PAVCDXUTDialog@@@std@@@std@@QBE?AV?$reverse_iterator@V?$_Vector_const_iterator@V?$_Vector_val@U?$_Simple_types@PAVCDXUTDialog@@@std@@@std@@@std@@@2@XZ ; std::vector<CDXUTDialog *,std::allocator<CDXUTDialog *> >::rbegin
PUBLIC	?rend@?$vector@PAVCDXUTDialog@@V?$allocator@PAVCDXUTDialog@@@std@@@std@@QBE?AV?$reverse_iterator@V?$_Vector_const_iterator@V?$_Vector_val@U?$_Simple_types@PAVCDXUTDialog@@@std@@@std@@@std@@@2@XZ ; std::vector<CDXUTDialog *,std::allocator<CDXUTDialog *> >::rend
PUBLIC	?cbegin@?$vector@PAVCDXUTDialog@@V?$allocator@PAVCDXUTDialog@@@std@@@std@@QBE?AV?$_Vector_const_iterator@V?$_Vector_val@U?$_Simple_types@PAVCDXUTDialog@@@std@@@std@@@2@XZ ; std::vector<CDXUTDialog *,std::allocator<CDXUTDialog *> >::cbegin
PUBLIC	?cend@?$vector@PAVCDXUTDialog@@V?$allocator@PAVCDXUTDialog@@@std@@@std@@QBE?AV?$_Vector_const_iterator@V?$_Vector_val@U?$_Simple_types@PAVCDXUTDialog@@@std@@@std@@@2@XZ ; std::vector<CDXUTDialog *,std::allocator<CDXUTDialog *> >::cend
PUBLIC	?crbegin@?$vector@PAVCDXUTDialog@@V?$allocator@PAVCDXUTDialog@@@std@@@std@@QBE?AV?$reverse_iterator@V?$_Vector_const_iterator@V?$_Vector_val@U?$_Simple_types@PAVCDXUTDialog@@@std@@@std@@@std@@@2@XZ ; std::vector<CDXUTDialog *,std::allocator<CDXUTDialog *> >::crbegin
PUBLIC	?crend@?$vector@PAVCDXUTDialog@@V?$allocator@PAVCDXUTDialog@@@std@@@std@@QBE?AV?$reverse_iterator@V?$_Vector_const_iterator@V?$_Vector_val@U?$_Simple_types@PAVCDXUTDialog@@@std@@@std@@@std@@@2@XZ ; std::vector<CDXUTDialog *,std::allocator<CDXUTDialog *> >::crend
PUBLIC	?size@?$vector@PAVCDXUTDialog@@V?$allocator@PAVCDXUTDialog@@@std@@@std@@QBEIXZ ; std::vector<CDXUTDialog *,std::allocator<CDXUTDialog *> >::size
PUBLIC	?max_size@?$vector@PAVCDXUTDialog@@V?$allocator@PAVCDXUTDialog@@@std@@@std@@QBEIXZ ; std::vector<CDXUTDialog *,std::allocator<CDXUTDialog *> >::max_size
PUBLIC	?empty@?$vector@PAVCDXUTDialog@@V?$allocator@PAVCDXUTDialog@@@std@@@std@@QBE_NXZ ; std::vector<CDXUTDialog *,std::allocator<CDXUTDialog *> >::empty
PUBLIC	??A?$vector@PAVCDXUTDialog@@V?$allocator@PAVCDXUTDialog@@@std@@@std@@QAEAAPAVCDXUTDialog@@I@Z ; std::vector<CDXUTDialog *,std::allocator<CDXUTDialog *> >::operator[]
PUBLIC	?push_back@?$vector@PAVCDXUTDialog@@V?$allocator@PAVCDXUTDialog@@@std@@@std@@QAEXABQAVCDXUTDialog@@@Z ; std::vector<CDXUTDialog *,std::allocator<CDXUTDialog *> >::push_back
PUBLIC	?erase@?$vector@PAVCDXUTDialog@@V?$allocator@PAVCDXUTDialog@@@std@@@std@@QAE?AV?$_Vector_iterator@V?$_Vector_val@U?$_Simple_types@PAVCDXUTDialog@@@std@@@std@@@2@V?$_Vector_const_iterator@V?$_Vector_val@U?$_Simple_types@PAVCDXUTDialog@@@std@@@std@@@2@@Z ; std::vector<CDXUTDialog *,std::allocator<CDXUTDialog *> >::erase
PUBLIC	?_Destroy@?$vector@PAVCDXUTDialog@@V?$allocator@PAVCDXUTDialog@@@std@@@std@@IAEXPAPAVCDXUTDialog@@0@Z ; std::vector<CDXUTDialog *,std::allocator<CDXUTDialog *> >::_Destroy
PUBLIC	?_Grow_to@?$vector@PAVCDXUTDialog@@V?$allocator@PAVCDXUTDialog@@@std@@@std@@IBEII@Z ; std::vector<CDXUTDialog *,std::allocator<CDXUTDialog *> >::_Grow_to
PUBLIC	?_Inside@?$vector@PAVCDXUTDialog@@V?$allocator@PAVCDXUTDialog@@@std@@@std@@IBE_NPBQAVCDXUTDialog@@@Z ; std::vector<CDXUTDialog *,std::allocator<CDXUTDialog *> >::_Inside
PUBLIC	?_Reallocate@?$vector@PAVCDXUTDialog@@V?$allocator@PAVCDXUTDialog@@@std@@@std@@IAEXI@Z ; std::vector<CDXUTDialog *,std::allocator<CDXUTDialog *> >::_Reallocate
PUBLIC	?_Reserve@?$vector@PAVCDXUTDialog@@V?$allocator@PAVCDXUTDialog@@@std@@@std@@IAEXI@Z ; std::vector<CDXUTDialog *,std::allocator<CDXUTDialog *> >::_Reserve
PUBLIC	?_Tidy@?$vector@PAVCDXUTDialog@@V?$allocator@PAVCDXUTDialog@@@std@@@std@@IAEXXZ ; std::vector<CDXUTDialog *,std::allocator<CDXUTDialog *> >::_Tidy
PUBLIC	?_Xlen@?$vector@PAVCDXUTDialog@@V?$allocator@PAVCDXUTDialog@@@std@@@std@@IBEXXZ ; std::vector<CDXUTDialog *,std::allocator<CDXUTDialog *> >::_Xlen
PUBLIC	?_Orphan_range@?$vector@PAVCDXUTDialog@@V?$allocator@PAVCDXUTDialog@@@std@@@std@@IBEXPAPAVCDXUTDialog@@0@Z ; std::vector<CDXUTDialog *,std::allocator<CDXUTDialog *> >::_Orphan_range
PUBLIC	?CreateTexture11@CDXUTDialogResourceManager@@IAEJI@Z ; CDXUTDialogResourceManager::CreateTexture11
PUBLIC	??0?$allocator@PAUDXUTTextureNode@@@std@@QAE@XZ	; std::allocator<DXUTTextureNode *>::allocator<DXUTTextureNode *>
PUBLIC	?deallocate@?$allocator@PAUDXUTTextureNode@@@std@@QAEXPAPAUDXUTTextureNode@@I@Z ; std::allocator<DXUTTextureNode *>::deallocate
PUBLIC	?allocate@?$allocator@PAUDXUTTextureNode@@@std@@QAEPAPAUDXUTTextureNode@@I@Z ; std::allocator<DXUTTextureNode *>::allocate
PUBLIC	?construct@?$allocator@PAUDXUTTextureNode@@@std@@QAEXPAPAUDXUTTextureNode@@ABQAU3@@Z ; std::allocator<DXUTTextureNode *>::construct
PUBLIC	?max_size@?$allocator@PAUDXUTTextureNode@@@std@@QBEIXZ ; std::allocator<DXUTTextureNode *>::max_size
PUBLIC	?max_size@?$allocator_traits@V?$allocator@PAUDXUTTextureNode@@@std@@@std@@SAIABV?$allocator@PAUDXUTTextureNode@@@2@@Z ; std::allocator_traits<std::allocator<DXUTTextureNode *> >::max_size
PUBLIC	??0?$_Wrap_alloc@V?$allocator@PAUDXUTTextureNode@@@std@@@std@@QAE@XZ ; std::_Wrap_alloc<std::allocator<DXUTTextureNode *> >::_Wrap_alloc<std::allocator<DXUTTextureNode *> >
PUBLIC	?allocate@?$_Wrap_alloc@V?$allocator@PAUDXUTTextureNode@@@std@@@std@@QAEPAPAUDXUTTextureNode@@I@Z ; std::_Wrap_alloc<std::allocator<DXUTTextureNode *> >::allocate
PUBLIC	?deallocate@?$_Wrap_alloc@V?$allocator@PAUDXUTTextureNode@@@std@@@std@@QAEXPAPAUDXUTTextureNode@@I@Z ; std::_Wrap_alloc<std::allocator<DXUTTextureNode *> >::deallocate
PUBLIC	?max_size@?$_Wrap_alloc@V?$allocator@PAUDXUTTextureNode@@@std@@@std@@QBEIXZ ; std::_Wrap_alloc<std::allocator<DXUTTextureNode *> >::max_size
PUBLIC	??0?$_Vector_val@U?$_Simple_types@PAUDXUTTextureNode@@@std@@@std@@QAE@XZ ; std::_Vector_val<std::_Simple_types<DXUTTextureNode *> >::_Vector_val<std::_Simple_types<DXUTTextureNode *> >
PUBLIC	??1?$_Vector_val@U?$_Simple_types@PAUDXUTTextureNode@@@std@@@std@@QAE@XZ ; std::_Vector_val<std::_Simple_types<DXUTTextureNode *> >::~_Vector_val<std::_Simple_types<DXUTTextureNode *> >
PUBLIC	??0?$_Vector_alloc@$0A@U?$_Vec_base_types@PAUDXUTTextureNode@@V?$allocator@PAUDXUTTextureNode@@@std@@@std@@@std@@QAE@ABV?$allocator@PAUDXUTTextureNode@@@1@@Z ; std::_Vector_alloc<0,std::_Vec_base_types<DXUTTextureNode *,std::allocator<DXUTTextureNode *> > >::_Vector_alloc<0,std::_Vec_base_types<DXUTTextureNode *,std::allocator<DXUTTextureNode *> > >
PUBLIC	??1?$_Vector_alloc@$0A@U?$_Vec_base_types@PAUDXUTTextureNode@@V?$allocator@PAUDXUTTextureNode@@@std@@@std@@@std@@QAE@XZ ; std::_Vector_alloc<0,std::_Vec_base_types<DXUTTextureNode *,std::allocator<DXUTTextureNode *> > >::~_Vector_alloc<0,std::_Vec_base_types<DXUTTextureNode *,std::allocator<DXUTTextureNode *> > >
PUBLIC	?_Alloc_proxy@?$_Vector_alloc@$0A@U?$_Vec_base_types@PAUDXUTTextureNode@@V?$allocator@PAUDXUTTextureNode@@@std@@@std@@@std@@QAEXXZ ; std::_Vector_alloc<0,std::_Vec_base_types<DXUTTextureNode *,std::allocator<DXUTTextureNode *> > >::_Alloc_proxy
PUBLIC	?_Free_proxy@?$_Vector_alloc@$0A@U?$_Vec_base_types@PAUDXUTTextureNode@@V?$allocator@PAUDXUTTextureNode@@@std@@@std@@@std@@QAEXXZ ; std::_Vector_alloc<0,std::_Vec_base_types<DXUTTextureNode *,std::allocator<DXUTTextureNode *> > >::_Free_proxy
PUBLIC	?_Getal@?$_Vector_alloc@$0A@U?$_Vec_base_types@PAUDXUTTextureNode@@V?$allocator@PAUDXUTTextureNode@@@std@@@std@@@std@@QBE?AU?$_Wrap_alloc@V?$allocator@PAUDXUTTextureNode@@@std@@@2@XZ ; std::_Vector_alloc<0,std::_Vec_base_types<DXUTTextureNode *,std::allocator<DXUTTextureNode *> > >::_Getal
PUBLIC	??0?$vector@PAUDXUTTextureNode@@V?$allocator@PAUDXUTTextureNode@@@std@@@std@@QAE@XZ ; std::vector<DXUTTextureNode *,std::allocator<DXUTTextureNode *> >::vector<DXUTTextureNode *,std::allocator<DXUTTextureNode *> >
PUBLIC	??1?$vector@PAUDXUTTextureNode@@V?$allocator@PAUDXUTTextureNode@@@std@@@std@@QAE@XZ ; std::vector<DXUTTextureNode *,std::allocator<DXUTTextureNode *> >::~vector<DXUTTextureNode *,std::allocator<DXUTTextureNode *> >
PUBLIC	?capacity@?$vector@PAUDXUTTextureNode@@V?$allocator@PAUDXUTTextureNode@@@std@@@std@@QBEIXZ ; std::vector<DXUTTextureNode *,std::allocator<DXUTTextureNode *> >::capacity
PUBLIC	?_Unused_capacity@?$vector@PAUDXUTTextureNode@@V?$allocator@PAUDXUTTextureNode@@@std@@@std@@QBEIXZ ; std::vector<DXUTTextureNode *,std::allocator<DXUTTextureNode *> >::_Unused_capacity
PUBLIC	?begin@?$vector@PAUDXUTTextureNode@@V?$allocator@PAUDXUTTextureNode@@@std@@@std@@QAE?AV?$_Vector_iterator@V?$_Vector_val@U?$_Simple_types@PAUDXUTTextureNode@@@std@@@std@@@2@XZ ; std::vector<DXUTTextureNode *,std::allocator<DXUTTextureNode *> >::begin
PUBLIC	?end@?$vector@PAUDXUTTextureNode@@V?$allocator@PAUDXUTTextureNode@@@std@@@std@@QAE?AV?$_Vector_iterator@V?$_Vector_val@U?$_Simple_types@PAUDXUTTextureNode@@@std@@@std@@@2@XZ ; std::vector<DXUTTextureNode *,std::allocator<DXUTTextureNode *> >::end
PUBLIC	?size@?$vector@PAUDXUTTextureNode@@V?$allocator@PAUDXUTTextureNode@@@std@@@std@@QBEIXZ ; std::vector<DXUTTextureNode *,std::allocator<DXUTTextureNode *> >::size
PUBLIC	?max_size@?$vector@PAUDXUTTextureNode@@V?$allocator@PAUDXUTTextureNode@@@std@@@std@@QBEIXZ ; std::vector<DXUTTextureNode *,std::allocator<DXUTTextureNode *> >::max_size
PUBLIC	??A?$vector@PAUDXUTTextureNode@@V?$allocator@PAUDXUTTextureNode@@@std@@@std@@QBEABQAUDXUTTextureNode@@I@Z ; std::vector<DXUTTextureNode *,std::allocator<DXUTTextureNode *> >::operator[]
PUBLIC	??A?$vector@PAUDXUTTextureNode@@V?$allocator@PAUDXUTTextureNode@@@std@@@std@@QAEAAPAUDXUTTextureNode@@I@Z ; std::vector<DXUTTextureNode *,std::allocator<DXUTTextureNode *> >::operator[]
PUBLIC	?push_back@?$vector@PAUDXUTTextureNode@@V?$allocator@PAUDXUTTextureNode@@@std@@@std@@QAEXABQAUDXUTTextureNode@@@Z ; std::vector<DXUTTextureNode *,std::allocator<DXUTTextureNode *> >::push_back
PUBLIC	?clear@?$vector@PAUDXUTTextureNode@@V?$allocator@PAUDXUTTextureNode@@@std@@@std@@QAEXXZ ; std::vector<DXUTTextureNode *,std::allocator<DXUTTextureNode *> >::clear
PUBLIC	?_Destroy@?$vector@PAUDXUTTextureNode@@V?$allocator@PAUDXUTTextureNode@@@std@@@std@@IAEXPAPAUDXUTTextureNode@@0@Z ; std::vector<DXUTTextureNode *,std::allocator<DXUTTextureNode *> >::_Destroy
PUBLIC	?_Grow_to@?$vector@PAUDXUTTextureNode@@V?$allocator@PAUDXUTTextureNode@@@std@@@std@@IBEII@Z ; std::vector<DXUTTextureNode *,std::allocator<DXUTTextureNode *> >::_Grow_to
PUBLIC	?_Inside@?$vector@PAUDXUTTextureNode@@V?$allocator@PAUDXUTTextureNode@@@std@@@std@@IBE_NPBQAUDXUTTextureNode@@@Z ; std::vector<DXUTTextureNode *,std::allocator<DXUTTextureNode *> >::_Inside
PUBLIC	?_Reallocate@?$vector@PAUDXUTTextureNode@@V?$allocator@PAUDXUTTextureNode@@@std@@@std@@IAEXI@Z ; std::vector<DXUTTextureNode *,std::allocator<DXUTTextureNode *> >::_Reallocate
PUBLIC	?_Reserve@?$vector@PAUDXUTTextureNode@@V?$allocator@PAUDXUTTextureNode@@@std@@@std@@IAEXI@Z ; std::vector<DXUTTextureNode *,std::allocator<DXUTTextureNode *> >::_Reserve
PUBLIC	?_Tidy@?$vector@PAUDXUTTextureNode@@V?$allocator@PAUDXUTTextureNode@@@std@@@std@@IAEXXZ ; std::vector<DXUTTextureNode *,std::allocator<DXUTTextureNode *> >::_Tidy
PUBLIC	?_Xlen@?$vector@PAUDXUTTextureNode@@V?$allocator@PAUDXUTTextureNode@@@std@@@std@@IBEXXZ ; std::vector<DXUTTextureNode *,std::allocator<DXUTTextureNode *> >::_Xlen
PUBLIC	?_Orphan_range@?$vector@PAUDXUTTextureNode@@V?$allocator@PAUDXUTTextureNode@@@std@@@std@@IBEXPAPAUDXUTTextureNode@@0@Z ; std::vector<DXUTTextureNode *,std::allocator<DXUTTextureNode *> >::_Orphan_range
PUBLIC	??0?$allocator@PAUDXUTFontNode@@@std@@QAE@XZ	; std::allocator<DXUTFontNode *>::allocator<DXUTFontNode *>
PUBLIC	?deallocate@?$allocator@PAUDXUTFontNode@@@std@@QAEXPAPAUDXUTFontNode@@I@Z ; std::allocator<DXUTFontNode *>::deallocate
PUBLIC	?allocate@?$allocator@PAUDXUTFontNode@@@std@@QAEPAPAUDXUTFontNode@@I@Z ; std::allocator<DXUTFontNode *>::allocate
PUBLIC	?construct@?$allocator@PAUDXUTFontNode@@@std@@QAEXPAPAUDXUTFontNode@@ABQAU3@@Z ; std::allocator<DXUTFontNode *>::construct
PUBLIC	?max_size@?$allocator@PAUDXUTFontNode@@@std@@QBEIXZ ; std::allocator<DXUTFontNode *>::max_size
PUBLIC	?max_size@?$allocator_traits@V?$allocator@PAUDXUTFontNode@@@std@@@std@@SAIABV?$allocator@PAUDXUTFontNode@@@2@@Z ; std::allocator_traits<std::allocator<DXUTFontNode *> >::max_size
PUBLIC	??0?$_Wrap_alloc@V?$allocator@PAUDXUTFontNode@@@std@@@std@@QAE@XZ ; std::_Wrap_alloc<std::allocator<DXUTFontNode *> >::_Wrap_alloc<std::allocator<DXUTFontNode *> >
PUBLIC	?allocate@?$_Wrap_alloc@V?$allocator@PAUDXUTFontNode@@@std@@@std@@QAEPAPAUDXUTFontNode@@I@Z ; std::_Wrap_alloc<std::allocator<DXUTFontNode *> >::allocate
PUBLIC	?deallocate@?$_Wrap_alloc@V?$allocator@PAUDXUTFontNode@@@std@@@std@@QAEXPAPAUDXUTFontNode@@I@Z ; std::_Wrap_alloc<std::allocator<DXUTFontNode *> >::deallocate
PUBLIC	?max_size@?$_Wrap_alloc@V?$allocator@PAUDXUTFontNode@@@std@@@std@@QBEIXZ ; std::_Wrap_alloc<std::allocator<DXUTFontNode *> >::max_size
PUBLIC	??0?$_Vector_val@U?$_Simple_types@PAUDXUTFontNode@@@std@@@std@@QAE@XZ ; std::_Vector_val<std::_Simple_types<DXUTFontNode *> >::_Vector_val<std::_Simple_types<DXUTFontNode *> >
PUBLIC	??1?$_Vector_val@U?$_Simple_types@PAUDXUTFontNode@@@std@@@std@@QAE@XZ ; std::_Vector_val<std::_Simple_types<DXUTFontNode *> >::~_Vector_val<std::_Simple_types<DXUTFontNode *> >
PUBLIC	??0?$_Vector_alloc@$0A@U?$_Vec_base_types@PAUDXUTFontNode@@V?$allocator@PAUDXUTFontNode@@@std@@@std@@@std@@QAE@ABV?$allocator@PAUDXUTFontNode@@@1@@Z ; std::_Vector_alloc<0,std::_Vec_base_types<DXUTFontNode *,std::allocator<DXUTFontNode *> > >::_Vector_alloc<0,std::_Vec_base_types<DXUTFontNode *,std::allocator<DXUTFontNode *> > >
PUBLIC	??1?$_Vector_alloc@$0A@U?$_Vec_base_types@PAUDXUTFontNode@@V?$allocator@PAUDXUTFontNode@@@std@@@std@@@std@@QAE@XZ ; std::_Vector_alloc<0,std::_Vec_base_types<DXUTFontNode *,std::allocator<DXUTFontNode *> > >::~_Vector_alloc<0,std::_Vec_base_types<DXUTFontNode *,std::allocator<DXUTFontNode *> > >
PUBLIC	?_Alloc_proxy@?$_Vector_alloc@$0A@U?$_Vec_base_types@PAUDXUTFontNode@@V?$allocator@PAUDXUTFontNode@@@std@@@std@@@std@@QAEXXZ ; std::_Vector_alloc<0,std::_Vec_base_types<DXUTFontNode *,std::allocator<DXUTFontNode *> > >::_Alloc_proxy
PUBLIC	?_Free_proxy@?$_Vector_alloc@$0A@U?$_Vec_base_types@PAUDXUTFontNode@@V?$allocator@PAUDXUTFontNode@@@std@@@std@@@std@@QAEXXZ ; std::_Vector_alloc<0,std::_Vec_base_types<DXUTFontNode *,std::allocator<DXUTFontNode *> > >::_Free_proxy
PUBLIC	?_Getal@?$_Vector_alloc@$0A@U?$_Vec_base_types@PAUDXUTFontNode@@V?$allocator@PAUDXUTFontNode@@@std@@@std@@@std@@QBE?AU?$_Wrap_alloc@V?$allocator@PAUDXUTFontNode@@@std@@@2@XZ ; std::_Vector_alloc<0,std::_Vec_base_types<DXUTFontNode *,std::allocator<DXUTFontNode *> > >::_Getal
PUBLIC	??0?$vector@PAUDXUTFontNode@@V?$allocator@PAUDXUTFontNode@@@std@@@std@@QAE@XZ ; std::vector<DXUTFontNode *,std::allocator<DXUTFontNode *> >::vector<DXUTFontNode *,std::allocator<DXUTFontNode *> >
PUBLIC	??1?$vector@PAUDXUTFontNode@@V?$allocator@PAUDXUTFontNode@@@std@@@std@@QAE@XZ ; std::vector<DXUTFontNode *,std::allocator<DXUTFontNode *> >::~vector<DXUTFontNode *,std::allocator<DXUTFontNode *> >
PUBLIC	?capacity@?$vector@PAUDXUTFontNode@@V?$allocator@PAUDXUTFontNode@@@std@@@std@@QBEIXZ ; std::vector<DXUTFontNode *,std::allocator<DXUTFontNode *> >::capacity
PUBLIC	?_Unused_capacity@?$vector@PAUDXUTFontNode@@V?$allocator@PAUDXUTFontNode@@@std@@@std@@QBEIXZ ; std::vector<DXUTFontNode *,std::allocator<DXUTFontNode *> >::_Unused_capacity
PUBLIC	?begin@?$vector@PAUDXUTFontNode@@V?$allocator@PAUDXUTFontNode@@@std@@@std@@QAE?AV?$_Vector_iterator@V?$_Vector_val@U?$_Simple_types@PAUDXUTFontNode@@@std@@@std@@@2@XZ ; std::vector<DXUTFontNode *,std::allocator<DXUTFontNode *> >::begin
PUBLIC	?end@?$vector@PAUDXUTFontNode@@V?$allocator@PAUDXUTFontNode@@@std@@@std@@QAE?AV?$_Vector_iterator@V?$_Vector_val@U?$_Simple_types@PAUDXUTFontNode@@@std@@@std@@@2@XZ ; std::vector<DXUTFontNode *,std::allocator<DXUTFontNode *> >::end
PUBLIC	?size@?$vector@PAUDXUTFontNode@@V?$allocator@PAUDXUTFontNode@@@std@@@std@@QBEIXZ ; std::vector<DXUTFontNode *,std::allocator<DXUTFontNode *> >::size
PUBLIC	?max_size@?$vector@PAUDXUTFontNode@@V?$allocator@PAUDXUTFontNode@@@std@@@std@@QBEIXZ ; std::vector<DXUTFontNode *,std::allocator<DXUTFontNode *> >::max_size
PUBLIC	??A?$vector@PAUDXUTFontNode@@V?$allocator@PAUDXUTFontNode@@@std@@@std@@QBEABQAUDXUTFontNode@@I@Z ; std::vector<DXUTFontNode *,std::allocator<DXUTFontNode *> >::operator[]
PUBLIC	??A?$vector@PAUDXUTFontNode@@V?$allocator@PAUDXUTFontNode@@@std@@@std@@QAEAAPAUDXUTFontNode@@I@Z ; std::vector<DXUTFontNode *,std::allocator<DXUTFontNode *> >::operator[]
PUBLIC	?push_back@?$vector@PAUDXUTFontNode@@V?$allocator@PAUDXUTFontNode@@@std@@@std@@QAEXABQAUDXUTFontNode@@@Z ; std::vector<DXUTFontNode *,std::allocator<DXUTFontNode *> >::push_back
PUBLIC	?clear@?$vector@PAUDXUTFontNode@@V?$allocator@PAUDXUTFontNode@@@std@@@std@@QAEXXZ ; std::vector<DXUTFontNode *,std::allocator<DXUTFontNode *> >::clear
PUBLIC	?_Destroy@?$vector@PAUDXUTFontNode@@V?$allocator@PAUDXUTFontNode@@@std@@@std@@IAEXPAPAUDXUTFontNode@@0@Z ; std::vector<DXUTFontNode *,std::allocator<DXUTFontNode *> >::_Destroy
PUBLIC	?_Grow_to@?$vector@PAUDXUTFontNode@@V?$allocator@PAUDXUTFontNode@@@std@@@std@@IBEII@Z ; std::vector<DXUTFontNode *,std::allocator<DXUTFontNode *> >::_Grow_to
PUBLIC	?_Inside@?$vector@PAUDXUTFontNode@@V?$allocator@PAUDXUTFontNode@@@std@@@std@@IBE_NPBQAUDXUTFontNode@@@Z ; std::vector<DXUTFontNode *,std::allocator<DXUTFontNode *> >::_Inside
PUBLIC	?_Reallocate@?$vector@PAUDXUTFontNode@@V?$allocator@PAUDXUTFontNode@@@std@@@std@@IAEXI@Z ; std::vector<DXUTFontNode *,std::allocator<DXUTFontNode *> >::_Reallocate
PUBLIC	?_Reserve@?$vector@PAUDXUTFontNode@@V?$allocator@PAUDXUTFontNode@@@std@@@std@@IAEXI@Z ; std::vector<DXUTFontNode *,std::allocator<DXUTFontNode *> >::_Reserve
PUBLIC	?_Tidy@?$vector@PAUDXUTFontNode@@V?$allocator@PAUDXUTFontNode@@@std@@@std@@IAEXXZ ; std::vector<DXUTFontNode *,std::allocator<DXUTFontNode *> >::_Tidy
PUBLIC	?_Xlen@?$vector@PAUDXUTFontNode@@V?$allocator@PAUDXUTFontNode@@@std@@@std@@IBEXXZ ; std::vector<DXUTFontNode *,std::allocator<DXUTFontNode *> >::_Xlen
PUBLIC	?_Orphan_range@?$vector@PAUDXUTFontNode@@V?$allocator@PAUDXUTFontNode@@@std@@@std@@IBEXPAPAUDXUTFontNode@@0@Z ; std::vector<DXUTFontNode *,std::allocator<DXUTFontNode *> >::_Orphan_range
PUBLIC	??0CDXUTControl@@QAE@PAVCDXUTDialog@@@Z		; CDXUTControl::CDXUTControl
PUBLIC	??1CDXUTControl@@UAE@XZ				; CDXUTControl::~CDXUTControl
PUBLIC	?OnInit@CDXUTControl@@UAEJXZ			; CDXUTControl::OnInit
PUBLIC	?Refresh@CDXUTControl@@UAEXXZ			; CDXUTControl::Refresh
PUBLIC	?Render@CDXUTControl@@UAEXM@Z			; CDXUTControl::Render
PUBLIC	?MsgProc@CDXUTControl@@UAE_NIIJ@Z		; CDXUTControl::MsgProc
PUBLIC	?HandleKeyboard@CDXUTControl@@UAE_NIIJ@Z	; CDXUTControl::HandleKeyboard
PUBLIC	?HandleMouse@CDXUTControl@@UAE_NIABUtagPOINT@@IJ@Z ; CDXUTControl::HandleMouse
PUBLIC	?CanHaveFocus@CDXUTControl@@UAE_NXZ		; CDXUTControl::CanHaveFocus
PUBLIC	?OnFocusIn@CDXUTControl@@UAEXXZ			; CDXUTControl::OnFocusIn
PUBLIC	?OnFocusOut@CDXUTControl@@UAEXXZ		; CDXUTControl::OnFocusOut
PUBLIC	?OnMouseEnter@CDXUTControl@@UAEXXZ		; CDXUTControl::OnMouseEnter
PUBLIC	?OnMouseLeave@CDXUTControl@@UAEXXZ		; CDXUTControl::OnMouseLeave
PUBLIC	?OnHotkey@CDXUTControl@@UAEXXZ			; CDXUTControl::OnHotkey
PUBLIC	?ContainsPoint@CDXUTControl@@UAE_NABUtagPOINT@@@Z ; CDXUTControl::ContainsPoint
PUBLIC	?SetEnabled@CDXUTControl@@UAEX_N@Z		; CDXUTControl::SetEnabled
PUBLIC	?GetEnabled@CDXUTControl@@UBE_NXZ		; CDXUTControl::GetEnabled
PUBLIC	?SetVisible@CDXUTControl@@UAEX_N@Z		; CDXUTControl::SetVisible
PUBLIC	?GetVisible@CDXUTControl@@UBE_NXZ		; CDXUTControl::GetVisible
PUBLIC	?GetType@CDXUTControl@@QBEIXZ			; CDXUTControl::GetType
PUBLIC	?GetID@CDXUTControl@@QBEHXZ			; CDXUTControl::GetID
PUBLIC	?SetID@CDXUTControl@@QAEXH@Z			; CDXUTControl::SetID
PUBLIC	?SetLocation@CDXUTControl@@QAEXHH@Z		; CDXUTControl::SetLocation
PUBLIC	?SetSize@CDXUTControl@@QAEXHH@Z			; CDXUTControl::SetSize
PUBLIC	?SetHotkey@CDXUTControl@@QAEXI@Z		; CDXUTControl::SetHotkey
PUBLIC	?GetHotkey@CDXUTControl@@QBEIXZ			; CDXUTControl::GetHotkey
PUBLIC	?SetTextColor@CDXUTControl@@UAEXK@Z		; CDXUTControl::SetTextColor
PUBLIC	?GetElement@CDXUTControl@@QBEPAVCDXUTElement@@I@Z ; CDXUTControl::GetElement
PUBLIC	?SetElement@CDXUTControl@@QAEJIPAVCDXUTElement@@@Z ; CDXUTControl::SetElement
PUBLIC	??0?$allocator@PAVCDXUTElement@@@std@@QAE@XZ	; std::allocator<CDXUTElement *>::allocator<CDXUTElement *>
PUBLIC	?deallocate@?$allocator@PAVCDXUTElement@@@std@@QAEXPAPAVCDXUTElement@@I@Z ; std::allocator<CDXUTElement *>::deallocate
PUBLIC	?allocate@?$allocator@PAVCDXUTElement@@@std@@QAEPAPAVCDXUTElement@@I@Z ; std::allocator<CDXUTElement *>::allocate
PUBLIC	?construct@?$allocator@PAVCDXUTElement@@@std@@QAEXPAPAVCDXUTElement@@ABQAV3@@Z ; std::allocator<CDXUTElement *>::construct
PUBLIC	?max_size@?$allocator@PAVCDXUTElement@@@std@@QBEIXZ ; std::allocator<CDXUTElement *>::max_size
PUBLIC	?max_size@?$allocator_traits@V?$allocator@PAVCDXUTElement@@@std@@@std@@SAIABV?$allocator@PAVCDXUTElement@@@2@@Z ; std::allocator_traits<std::allocator<CDXUTElement *> >::max_size
PUBLIC	??0?$_Wrap_alloc@V?$allocator@PAVCDXUTElement@@@std@@@std@@QAE@XZ ; std::_Wrap_alloc<std::allocator<CDXUTElement *> >::_Wrap_alloc<std::allocator<CDXUTElement *> >
PUBLIC	?allocate@?$_Wrap_alloc@V?$allocator@PAVCDXUTElement@@@std@@@std@@QAEPAPAVCDXUTElement@@I@Z ; std::_Wrap_alloc<std::allocator<CDXUTElement *> >::allocate
PUBLIC	?deallocate@?$_Wrap_alloc@V?$allocator@PAVCDXUTElement@@@std@@@std@@QAEXPAPAVCDXUTElement@@I@Z ; std::_Wrap_alloc<std::allocator<CDXUTElement *> >::deallocate
PUBLIC	?max_size@?$_Wrap_alloc@V?$allocator@PAVCDXUTElement@@@std@@@std@@QBEIXZ ; std::_Wrap_alloc<std::allocator<CDXUTElement *> >::max_size
PUBLIC	??0?$_Vector_val@U?$_Simple_types@PAVCDXUTElement@@@std@@@std@@QAE@XZ ; std::_Vector_val<std::_Simple_types<CDXUTElement *> >::_Vector_val<std::_Simple_types<CDXUTElement *> >
PUBLIC	??1?$_Vector_val@U?$_Simple_types@PAVCDXUTElement@@@std@@@std@@QAE@XZ ; std::_Vector_val<std::_Simple_types<CDXUTElement *> >::~_Vector_val<std::_Simple_types<CDXUTElement *> >
PUBLIC	??0?$_Vector_alloc@$0A@U?$_Vec_base_types@PAVCDXUTElement@@V?$allocator@PAVCDXUTElement@@@std@@@std@@@std@@QAE@ABV?$allocator@PAVCDXUTElement@@@1@@Z ; std::_Vector_alloc<0,std::_Vec_base_types<CDXUTElement *,std::allocator<CDXUTElement *> > >::_Vector_alloc<0,std::_Vec_base_types<CDXUTElement *,std::allocator<CDXUTElement *> > >
PUBLIC	??1?$_Vector_alloc@$0A@U?$_Vec_base_types@PAVCDXUTElement@@V?$allocator@PAVCDXUTElement@@@std@@@std@@@std@@QAE@XZ ; std::_Vector_alloc<0,std::_Vec_base_types<CDXUTElement *,std::allocator<CDXUTElement *> > >::~_Vector_alloc<0,std::_Vec_base_types<CDXUTElement *,std::allocator<CDXUTElement *> > >
PUBLIC	?_Alloc_proxy@?$_Vector_alloc@$0A@U?$_Vec_base_types@PAVCDXUTElement@@V?$allocator@PAVCDXUTElement@@@std@@@std@@@std@@QAEXXZ ; std::_Vector_alloc<0,std::_Vec_base_types<CDXUTElement *,std::allocator<CDXUTElement *> > >::_Alloc_proxy
PUBLIC	?_Free_proxy@?$_Vector_alloc@$0A@U?$_Vec_base_types@PAVCDXUTElement@@V?$allocator@PAVCDXUTElement@@@std@@@std@@@std@@QAEXXZ ; std::_Vector_alloc<0,std::_Vec_base_types<CDXUTElement *,std::allocator<CDXUTElement *> > >::_Free_proxy
PUBLIC	?_Getal@?$_Vector_alloc@$0A@U?$_Vec_base_types@PAVCDXUTElement@@V?$allocator@PAVCDXUTElement@@@std@@@std@@@std@@QBE?AU?$_Wrap_alloc@V?$allocator@PAVCDXUTElement@@@std@@@2@XZ ; std::_Vector_alloc<0,std::_Vec_base_types<CDXUTElement *,std::allocator<CDXUTElement *> > >::_Getal
PUBLIC	??0?$vector@PAVCDXUTElement@@V?$allocator@PAVCDXUTElement@@@std@@@std@@QAE@XZ ; std::vector<CDXUTElement *,std::allocator<CDXUTElement *> >::vector<CDXUTElement *,std::allocator<CDXUTElement *> >
PUBLIC	??1?$vector@PAVCDXUTElement@@V?$allocator@PAVCDXUTElement@@@std@@@std@@QAE@XZ ; std::vector<CDXUTElement *,std::allocator<CDXUTElement *> >::~vector<CDXUTElement *,std::allocator<CDXUTElement *> >
PUBLIC	?capacity@?$vector@PAVCDXUTElement@@V?$allocator@PAVCDXUTElement@@@std@@@std@@QBEIXZ ; std::vector<CDXUTElement *,std::allocator<CDXUTElement *> >::capacity
PUBLIC	?_Unused_capacity@?$vector@PAVCDXUTElement@@V?$allocator@PAVCDXUTElement@@@std@@@std@@QBEIXZ ; std::vector<CDXUTElement *,std::allocator<CDXUTElement *> >::_Unused_capacity
PUBLIC	?begin@?$vector@PAVCDXUTElement@@V?$allocator@PAVCDXUTElement@@@std@@@std@@QAE?AV?$_Vector_iterator@V?$_Vector_val@U?$_Simple_types@PAVCDXUTElement@@@std@@@std@@@2@XZ ; std::vector<CDXUTElement *,std::allocator<CDXUTElement *> >::begin
PUBLIC	?end@?$vector@PAVCDXUTElement@@V?$allocator@PAVCDXUTElement@@@std@@@std@@QAE?AV?$_Vector_iterator@V?$_Vector_val@U?$_Simple_types@PAVCDXUTElement@@@std@@@std@@@2@XZ ; std::vector<CDXUTElement *,std::allocator<CDXUTElement *> >::end
PUBLIC	?size@?$vector@PAVCDXUTElement@@V?$allocator@PAVCDXUTElement@@@std@@@std@@QBEIXZ ; std::vector<CDXUTElement *,std::allocator<CDXUTElement *> >::size
PUBLIC	?max_size@?$vector@PAVCDXUTElement@@V?$allocator@PAVCDXUTElement@@@std@@@std@@QBEIXZ ; std::vector<CDXUTElement *,std::allocator<CDXUTElement *> >::max_size
PUBLIC	??A?$vector@PAVCDXUTElement@@V?$allocator@PAVCDXUTElement@@@std@@@std@@QBEABQAVCDXUTElement@@I@Z ; std::vector<CDXUTElement *,std::allocator<CDXUTElement *> >::operator[]
PUBLIC	??A?$vector@PAVCDXUTElement@@V?$allocator@PAVCDXUTElement@@@std@@@std@@QAEAAPAVCDXUTElement@@I@Z ; std::vector<CDXUTElement *,std::allocator<CDXUTElement *> >::operator[]
PUBLIC	?push_back@?$vector@PAVCDXUTElement@@V?$allocator@PAVCDXUTElement@@@std@@@std@@QAEXABQAVCDXUTElement@@@Z ; std::vector<CDXUTElement *,std::allocator<CDXUTElement *> >::push_back
PUBLIC	?clear@?$vector@PAVCDXUTElement@@V?$allocator@PAVCDXUTElement@@@std@@@std@@QAEXXZ ; std::vector<CDXUTElement *,std::allocator<CDXUTElement *> >::clear
PUBLIC	?_Destroy@?$vector@PAVCDXUTElement@@V?$allocator@PAVCDXUTElement@@@std@@@std@@IAEXPAPAVCDXUTElement@@0@Z ; std::vector<CDXUTElement *,std::allocator<CDXUTElement *> >::_Destroy
PUBLIC	?_Grow_to@?$vector@PAVCDXUTElement@@V?$allocator@PAVCDXUTElement@@@std@@@std@@IBEII@Z ; std::vector<CDXUTElement *,std::allocator<CDXUTElement *> >::_Grow_to
PUBLIC	?_Inside@?$vector@PAVCDXUTElement@@V?$allocator@PAVCDXUTElement@@@std@@@std@@IBE_NPBQAVCDXUTElement@@@Z ; std::vector<CDXUTElement *,std::allocator<CDXUTElement *> >::_Inside
PUBLIC	?_Reallocate@?$vector@PAVCDXUTElement@@V?$allocator@PAVCDXUTElement@@@std@@@std@@IAEXI@Z ; std::vector<CDXUTElement *,std::allocator<CDXUTElement *> >::_Reallocate
PUBLIC	?_Reserve@?$vector@PAVCDXUTElement@@V?$allocator@PAVCDXUTElement@@@std@@@std@@IAEXI@Z ; std::vector<CDXUTElement *,std::allocator<CDXUTElement *> >::_Reserve
PUBLIC	?_Tidy@?$vector@PAVCDXUTElement@@V?$allocator@PAVCDXUTElement@@@std@@@std@@IAEXXZ ; std::vector<CDXUTElement *,std::allocator<CDXUTElement *> >::_Tidy
PUBLIC	?_Xlen@?$vector@PAVCDXUTElement@@V?$allocator@PAVCDXUTElement@@@std@@@std@@IBEXXZ ; std::vector<CDXUTElement *,std::allocator<CDXUTElement *> >::_Xlen
PUBLIC	?_Orphan_range@?$vector@PAVCDXUTElement@@V?$allocator@PAVCDXUTElement@@@std@@@std@@IBEXPAPAVCDXUTElement@@0@Z ; std::vector<CDXUTElement *,std::allocator<CDXUTElement *> >::_Orphan_range
PUBLIC	?UpdateRects@CDXUTControl@@MAEXXZ		; CDXUTControl::UpdateRects
PUBLIC	??_GCDXUTControl@@UAEPAXI@Z			; CDXUTControl::`scalar deleting destructor'
PUBLIC	??0DXUTElementHolder@@QAE@XZ			; DXUTElementHolder::DXUTElementHolder
PUBLIC	??0CDXUTStatic@@QAE@PAVCDXUTDialog@@@Z		; CDXUTStatic::CDXUTStatic
PUBLIC	?Render@CDXUTStatic@@UAEXM@Z			; CDXUTStatic::Render
PUBLIC	?ContainsPoint@CDXUTStatic@@UAE_NABUtagPOINT@@@Z ; CDXUTStatic::ContainsPoint
PUBLIC	?GetTextCopy@CDXUTStatic@@QBEJPA_WI@Z		; CDXUTStatic::GetTextCopy
PUBLIC	?SetText@CDXUTStatic@@QAEJPB_W@Z		; CDXUTStatic::SetText
PUBLIC	??1CDXUTStatic@@UAE@XZ				; CDXUTStatic::~CDXUTStatic
PUBLIC	??_GCDXUTStatic@@UAEPAXI@Z			; CDXUTStatic::`scalar deleting destructor'
PUBLIC	??0CDXUTButton@@QAE@PAVCDXUTDialog@@@Z		; CDXUTButton::CDXUTButton
PUBLIC	?HandleKeyboard@CDXUTButton@@UAE_NIIJ@Z		; CDXUTButton::HandleKeyboard
PUBLIC	?HandleMouse@CDXUTButton@@UAE_NIABUtagPOINT@@IJ@Z ; CDXUTButton::HandleMouse
PUBLIC	?OnHotkey@CDXUTButton@@UAEXXZ			; CDXUTButton::OnHotkey
PUBLIC	?ContainsPoint@CDXUTButton@@UAE_NABUtagPOINT@@@Z ; CDXUTButton::ContainsPoint
PUBLIC	?CanHaveFocus@CDXUTButton@@UAE_NXZ		; CDXUTButton::CanHaveFocus
PUBLIC	?Render@CDXUTButton@@UAEXM@Z			; CDXUTButton::Render
PUBLIC	??1CDXUTButton@@UAE@XZ				; CDXUTButton::~CDXUTButton
PUBLIC	??_GCDXUTButton@@UAEPAXI@Z			; CDXUTButton::`scalar deleting destructor'
PUBLIC	??0CDXUTCheckBox@@QAE@PAVCDXUTDialog@@@Z	; CDXUTCheckBox::CDXUTCheckBox
PUBLIC	?HandleKeyboard@CDXUTCheckBox@@UAE_NIIJ@Z	; CDXUTCheckBox::HandleKeyboard
PUBLIC	?HandleMouse@CDXUTCheckBox@@UAE_NIABUtagPOINT@@IJ@Z ; CDXUTCheckBox::HandleMouse
PUBLIC	?OnHotkey@CDXUTCheckBox@@UAEXXZ			; CDXUTCheckBox::OnHotkey
PUBLIC	?ContainsPoint@CDXUTCheckBox@@UAE_NABUtagPOINT@@@Z ; CDXUTCheckBox::ContainsPoint
PUBLIC	?UpdateRects@CDXUTCheckBox@@UAEXXZ		; CDXUTCheckBox::UpdateRects
PUBLIC	?Render@CDXUTCheckBox@@UAEXM@Z			; CDXUTCheckBox::Render
PUBLIC	?SetChecked@CDXUTCheckBox@@QAEX_N@Z		; CDXUTCheckBox::SetChecked
PUBLIC	?SetCheckedInternal@CDXUTCheckBox@@MAEX_N0@Z	; CDXUTCheckBox::SetCheckedInternal
PUBLIC	??1CDXUTCheckBox@@UAE@XZ			; CDXUTCheckBox::~CDXUTCheckBox
PUBLIC	??_GCDXUTCheckBox@@UAEPAXI@Z			; CDXUTCheckBox::`scalar deleting destructor'
PUBLIC	??0CDXUTRadioButton@@QAE@PAVCDXUTDialog@@@Z	; CDXUTRadioButton::CDXUTRadioButton
PUBLIC	?HandleKeyboard@CDXUTRadioButton@@UAE_NIIJ@Z	; CDXUTRadioButton::HandleKeyboard
PUBLIC	?HandleMouse@CDXUTRadioButton@@UAE_NIABUtagPOINT@@IJ@Z ; CDXUTRadioButton::HandleMouse
PUBLIC	?OnHotkey@CDXUTRadioButton@@UAEXXZ		; CDXUTRadioButton::OnHotkey
PUBLIC	?SetChecked@CDXUTRadioButton@@QAEX_N0@Z		; CDXUTRadioButton::SetChecked
PUBLIC	?SetButtonGroup@CDXUTRadioButton@@QAEXI@Z	; CDXUTRadioButton::SetButtonGroup
PUBLIC	?GetButtonGroup@CDXUTRadioButton@@QBEIXZ	; CDXUTRadioButton::GetButtonGroup
PUBLIC	?SetCheckedInternal@CDXUTRadioButton@@MAEX_N00@Z ; CDXUTRadioButton::SetCheckedInternal
PUBLIC	??1CDXUTRadioButton@@UAE@XZ			; CDXUTRadioButton::~CDXUTRadioButton
PUBLIC	??_GCDXUTRadioButton@@UAEPAXI@Z			; CDXUTRadioButton::`scalar deleting destructor'
PUBLIC	??0CDXUTScrollBar@@QAE@PAVCDXUTDialog@@@Z	; CDXUTScrollBar::CDXUTScrollBar
PUBLIC	??1CDXUTScrollBar@@UAE@XZ			; CDXUTScrollBar::~CDXUTScrollBar
PUBLIC	?HandleKeyboard@CDXUTScrollBar@@UAE_NIIJ@Z	; CDXUTScrollBar::HandleKeyboard
PUBLIC	?HandleMouse@CDXUTScrollBar@@UAE_NIABUtagPOINT@@IJ@Z ; CDXUTScrollBar::HandleMouse
PUBLIC	?MsgProc@CDXUTScrollBar@@UAE_NIIJ@Z		; CDXUTScrollBar::MsgProc
PUBLIC	?Render@CDXUTScrollBar@@UAEXM@Z			; CDXUTScrollBar::Render
PUBLIC	?UpdateRects@CDXUTScrollBar@@UAEXXZ		; CDXUTScrollBar::UpdateRects
PUBLIC	?SetTrackRange@CDXUTScrollBar@@QAEXHH@Z		; CDXUTScrollBar::SetTrackRange
PUBLIC	?GetTrackPos@CDXUTScrollBar@@QBEHXZ		; CDXUTScrollBar::GetTrackPos
PUBLIC	?GetPageSize@CDXUTScrollBar@@QBEHXZ		; CDXUTScrollBar::GetPageSize
PUBLIC	?SetPageSize@CDXUTScrollBar@@QAEXH@Z		; CDXUTScrollBar::SetPageSize
PUBLIC	?Scroll@CDXUTScrollBar@@QAEXH@Z			; CDXUTScrollBar::Scroll
PUBLIC	?ShowItem@CDXUTScrollBar@@QAEXH@Z		; CDXUTScrollBar::ShowItem
PUBLIC	?UpdateThumbRect@CDXUTScrollBar@@IAEXXZ		; CDXUTScrollBar::UpdateThumbRect
PUBLIC	?Cap@CDXUTScrollBar@@IAEXXZ			; CDXUTScrollBar::Cap
PUBLIC	??_GCDXUTScrollBar@@UAEPAXI@Z			; CDXUTScrollBar::`scalar deleting destructor'
PUBLIC	??0CDXUTListBox@@QAE@PAVCDXUTDialog@@@Z		; CDXUTListBox::CDXUTListBox
PUBLIC	??1CDXUTListBox@@UAE@XZ				; CDXUTListBox::~CDXUTListBox
PUBLIC	?OnInit@CDXUTListBox@@UAEJXZ			; CDXUTListBox::OnInit
PUBLIC	?CanHaveFocus@CDXUTListBox@@UAE_NXZ		; CDXUTListBox::CanHaveFocus
PUBLIC	?HandleKeyboard@CDXUTListBox@@UAE_NIIJ@Z	; CDXUTListBox::HandleKeyboard
PUBLIC	?HandleMouse@CDXUTListBox@@UAE_NIABUtagPOINT@@IJ@Z ; CDXUTListBox::HandleMouse
PUBLIC	?MsgProc@CDXUTListBox@@UAE_NIIJ@Z		; CDXUTListBox::MsgProc
PUBLIC	?Render@CDXUTListBox@@UAEXM@Z			; CDXUTListBox::Render
PUBLIC	?UpdateRects@CDXUTListBox@@UAEXXZ		; CDXUTListBox::UpdateRects
PUBLIC	?SetStyle@CDXUTListBox@@QAEXK@Z			; CDXUTListBox::SetStyle
PUBLIC	?AddItem@CDXUTListBox@@QAEJPB_WPAX@Z		; CDXUTListBox::AddItem
PUBLIC	?InsertItem@CDXUTListBox@@QAEJHPB_WPAX@Z	; CDXUTListBox::InsertItem
PUBLIC	?RemoveItem@CDXUTListBox@@QAEXH@Z		; CDXUTListBox::RemoveItem
PUBLIC	?RemoveAllItems@CDXUTListBox@@QAEXXZ		; CDXUTListBox::RemoveAllItems
PUBLIC	?GetItem@CDXUTListBox@@QBEPAUDXUTListBoxItem@@H@Z ; CDXUTListBox::GetItem
PUBLIC	?GetSelectedIndex@CDXUTListBox@@QBEHH@Z		; CDXUTListBox::GetSelectedIndex
PUBLIC	?SelectItem@CDXUTListBox@@QAEXH@Z		; CDXUTListBox::SelectItem
PUBLIC	??0?$allocator@PAUDXUTListBoxItem@@@std@@QAE@XZ	; std::allocator<DXUTListBoxItem *>::allocator<DXUTListBoxItem *>
PUBLIC	?deallocate@?$allocator@PAUDXUTListBoxItem@@@std@@QAEXPAPAUDXUTListBoxItem@@I@Z ; std::allocator<DXUTListBoxItem *>::deallocate
PUBLIC	?allocate@?$allocator@PAUDXUTListBoxItem@@@std@@QAEPAPAUDXUTListBoxItem@@I@Z ; std::allocator<DXUTListBoxItem *>::allocate
PUBLIC	?construct@?$allocator@PAUDXUTListBoxItem@@@std@@QAEXPAPAUDXUTListBoxItem@@ABQAU3@@Z ; std::allocator<DXUTListBoxItem *>::construct
PUBLIC	?max_size@?$allocator@PAUDXUTListBoxItem@@@std@@QBEIXZ ; std::allocator<DXUTListBoxItem *>::max_size
PUBLIC	?max_size@?$allocator_traits@V?$allocator@PAUDXUTListBoxItem@@@std@@@std@@SAIABV?$allocator@PAUDXUTListBoxItem@@@2@@Z ; std::allocator_traits<std::allocator<DXUTListBoxItem *> >::max_size
PUBLIC	??0?$_Wrap_alloc@V?$allocator@PAUDXUTListBoxItem@@@std@@@std@@QAE@XZ ; std::_Wrap_alloc<std::allocator<DXUTListBoxItem *> >::_Wrap_alloc<std::allocator<DXUTListBoxItem *> >
PUBLIC	?allocate@?$_Wrap_alloc@V?$allocator@PAUDXUTListBoxItem@@@std@@@std@@QAEPAPAUDXUTListBoxItem@@I@Z ; std::_Wrap_alloc<std::allocator<DXUTListBoxItem *> >::allocate
PUBLIC	?deallocate@?$_Wrap_alloc@V?$allocator@PAUDXUTListBoxItem@@@std@@@std@@QAEXPAPAUDXUTListBoxItem@@I@Z ; std::_Wrap_alloc<std::allocator<DXUTListBoxItem *> >::deallocate
PUBLIC	?max_size@?$_Wrap_alloc@V?$allocator@PAUDXUTListBoxItem@@@std@@@std@@QBEIXZ ; std::_Wrap_alloc<std::allocator<DXUTListBoxItem *> >::max_size
PUBLIC	??0?$_Vector_val@U?$_Simple_types@PAUDXUTListBoxItem@@@std@@@std@@QAE@XZ ; std::_Vector_val<std::_Simple_types<DXUTListBoxItem *> >::_Vector_val<std::_Simple_types<DXUTListBoxItem *> >
PUBLIC	??1?$_Vector_val@U?$_Simple_types@PAUDXUTListBoxItem@@@std@@@std@@QAE@XZ ; std::_Vector_val<std::_Simple_types<DXUTListBoxItem *> >::~_Vector_val<std::_Simple_types<DXUTListBoxItem *> >
PUBLIC	??0?$_Vector_alloc@$0A@U?$_Vec_base_types@PAUDXUTListBoxItem@@V?$allocator@PAUDXUTListBoxItem@@@std@@@std@@@std@@QAE@ABV?$allocator@PAUDXUTListBoxItem@@@1@@Z ; std::_Vector_alloc<0,std::_Vec_base_types<DXUTListBoxItem *,std::allocator<DXUTListBoxItem *> > >::_Vector_alloc<0,std::_Vec_base_types<DXUTListBoxItem *,std::allocator<DXUTListBoxItem *> > >
PUBLIC	??1?$_Vector_alloc@$0A@U?$_Vec_base_types@PAUDXUTListBoxItem@@V?$allocator@PAUDXUTListBoxItem@@@std@@@std@@@std@@QAE@XZ ; std::_Vector_alloc<0,std::_Vec_base_types<DXUTListBoxItem *,std::allocator<DXUTListBoxItem *> > >::~_Vector_alloc<0,std::_Vec_base_types<DXUTListBoxItem *,std::allocator<DXUTListBoxItem *> > >
PUBLIC	?_Alloc_proxy@?$_Vector_alloc@$0A@U?$_Vec_base_types@PAUDXUTListBoxItem@@V?$allocator@PAUDXUTListBoxItem@@@std@@@std@@@std@@QAEXXZ ; std::_Vector_alloc<0,std::_Vec_base_types<DXUTListBoxItem *,std::allocator<DXUTListBoxItem *> > >::_Alloc_proxy
PUBLIC	?_Free_proxy@?$_Vector_alloc@$0A@U?$_Vec_base_types@PAUDXUTListBoxItem@@V?$allocator@PAUDXUTListBoxItem@@@std@@@std@@@std@@QAEXXZ ; std::_Vector_alloc<0,std::_Vec_base_types<DXUTListBoxItem *,std::allocator<DXUTListBoxItem *> > >::_Free_proxy
PUBLIC	?_Getal@?$_Vector_alloc@$0A@U?$_Vec_base_types@PAUDXUTListBoxItem@@V?$allocator@PAUDXUTListBoxItem@@@std@@@std@@@std@@QBE?AU?$_Wrap_alloc@V?$allocator@PAUDXUTListBoxItem@@@std@@@2@XZ ; std::_Vector_alloc<0,std::_Vec_base_types<DXUTListBoxItem *,std::allocator<DXUTListBoxItem *> > >::_Getal
PUBLIC	??0?$vector@PAUDXUTListBoxItem@@V?$allocator@PAUDXUTListBoxItem@@@std@@@std@@QAE@XZ ; std::vector<DXUTListBoxItem *,std::allocator<DXUTListBoxItem *> >::vector<DXUTListBoxItem *,std::allocator<DXUTListBoxItem *> >
PUBLIC	??1?$vector@PAUDXUTListBoxItem@@V?$allocator@PAUDXUTListBoxItem@@@std@@@std@@QAE@XZ ; std::vector<DXUTListBoxItem *,std::allocator<DXUTListBoxItem *> >::~vector<DXUTListBoxItem *,std::allocator<DXUTListBoxItem *> >
PUBLIC	?capacity@?$vector@PAUDXUTListBoxItem@@V?$allocator@PAUDXUTListBoxItem@@@std@@@std@@QBEIXZ ; std::vector<DXUTListBoxItem *,std::allocator<DXUTListBoxItem *> >::capacity
PUBLIC	?_Unused_capacity@?$vector@PAUDXUTListBoxItem@@V?$allocator@PAUDXUTListBoxItem@@@std@@@std@@QBEIXZ ; std::vector<DXUTListBoxItem *,std::allocator<DXUTListBoxItem *> >::_Unused_capacity
PUBLIC	?begin@?$vector@PAUDXUTListBoxItem@@V?$allocator@PAUDXUTListBoxItem@@@std@@@std@@QAE?AV?$_Vector_iterator@V?$_Vector_val@U?$_Simple_types@PAUDXUTListBoxItem@@@std@@@std@@@2@XZ ; std::vector<DXUTListBoxItem *,std::allocator<DXUTListBoxItem *> >::begin
PUBLIC	?end@?$vector@PAUDXUTListBoxItem@@V?$allocator@PAUDXUTListBoxItem@@@std@@@std@@QAE?AV?$_Vector_iterator@V?$_Vector_val@U?$_Simple_types@PAUDXUTListBoxItem@@@std@@@std@@@2@XZ ; std::vector<DXUTListBoxItem *,std::allocator<DXUTListBoxItem *> >::end
PUBLIC	?_Make_iter@?$vector@PAUDXUTListBoxItem@@V?$allocator@PAUDXUTListBoxItem@@@std@@@std@@QBE?AV?$_Vector_iterator@V?$_Vector_val@U?$_Simple_types@PAUDXUTListBoxItem@@@std@@@std@@@2@V?$_Vector_const_iterator@V?$_Vector_val@U?$_Simple_types@PAUDXUTListBoxItem@@@std@@@std@@@2@@Z ; std::vector<DXUTListBoxItem *,std::allocator<DXUTListBoxItem *> >::_Make_iter
PUBLIC	?size@?$vector@PAUDXUTListBoxItem@@V?$allocator@PAUDXUTListBoxItem@@@std@@@std@@QBEIXZ ; std::vector<DXUTListBoxItem *,std::allocator<DXUTListBoxItem *> >::size
PUBLIC	?max_size@?$vector@PAUDXUTListBoxItem@@V?$allocator@PAUDXUTListBoxItem@@@std@@@std@@QBEIXZ ; std::vector<DXUTListBoxItem *,std::allocator<DXUTListBoxItem *> >::max_size
PUBLIC	?empty@?$vector@PAUDXUTListBoxItem@@V?$allocator@PAUDXUTListBoxItem@@@std@@@std@@QBE_NXZ ; std::vector<DXUTListBoxItem *,std::allocator<DXUTListBoxItem *> >::empty
PUBLIC	??A?$vector@PAUDXUTListBoxItem@@V?$allocator@PAUDXUTListBoxItem@@@std@@@std@@QBEABQAUDXUTListBoxItem@@I@Z ; std::vector<DXUTListBoxItem *,std::allocator<DXUTListBoxItem *> >::operator[]
PUBLIC	??A?$vector@PAUDXUTListBoxItem@@V?$allocator@PAUDXUTListBoxItem@@@std@@@std@@QAEAAPAUDXUTListBoxItem@@I@Z ; std::vector<DXUTListBoxItem *,std::allocator<DXUTListBoxItem *> >::operator[]
PUBLIC	?push_back@?$vector@PAUDXUTListBoxItem@@V?$allocator@PAUDXUTListBoxItem@@@std@@@std@@QAEXABQAUDXUTListBoxItem@@@Z ; std::vector<DXUTListBoxItem *,std::allocator<DXUTListBoxItem *> >::push_back
PUBLIC	?erase@?$vector@PAUDXUTListBoxItem@@V?$allocator@PAUDXUTListBoxItem@@@std@@@std@@QAE?AV?$_Vector_iterator@V?$_Vector_val@U?$_Simple_types@PAUDXUTListBoxItem@@@std@@@std@@@2@V?$_Vector_const_iterator@V?$_Vector_val@U?$_Simple_types@PAUDXUTListBoxItem@@@std@@@std@@@2@@Z ; std::vector<DXUTListBoxItem *,std::allocator<DXUTListBoxItem *> >::erase
PUBLIC	?clear@?$vector@PAUDXUTListBoxItem@@V?$allocator@PAUDXUTListBoxItem@@@std@@@std@@QAEXXZ ; std::vector<DXUTListBoxItem *,std::allocator<DXUTListBoxItem *> >::clear
PUBLIC	?_Destroy@?$vector@PAUDXUTListBoxItem@@V?$allocator@PAUDXUTListBoxItem@@@std@@@std@@IAEXPAPAUDXUTListBoxItem@@0@Z ; std::vector<DXUTListBoxItem *,std::allocator<DXUTListBoxItem *> >::_Destroy
PUBLIC	?_Grow_to@?$vector@PAUDXUTListBoxItem@@V?$allocator@PAUDXUTListBoxItem@@@std@@@std@@IBEII@Z ; std::vector<DXUTListBoxItem *,std::allocator<DXUTListBoxItem *> >::_Grow_to
PUBLIC	?_Inside@?$vector@PAUDXUTListBoxItem@@V?$allocator@PAUDXUTListBoxItem@@@std@@@std@@IBE_NPBQAUDXUTListBoxItem@@@Z ; std::vector<DXUTListBoxItem *,std::allocator<DXUTListBoxItem *> >::_Inside
PUBLIC	?_Reallocate@?$vector@PAUDXUTListBoxItem@@V?$allocator@PAUDXUTListBoxItem@@@std@@@std@@IAEXI@Z ; std::vector<DXUTListBoxItem *,std::allocator<DXUTListBoxItem *> >::_Reallocate
PUBLIC	?_Reserve@?$vector@PAUDXUTListBoxItem@@V?$allocator@PAUDXUTListBoxItem@@@std@@@std@@IAEXI@Z ; std::vector<DXUTListBoxItem *,std::allocator<DXUTListBoxItem *> >::_Reserve
PUBLIC	?_Tidy@?$vector@PAUDXUTListBoxItem@@V?$allocator@PAUDXUTListBoxItem@@@std@@@std@@IAEXXZ ; std::vector<DXUTListBoxItem *,std::allocator<DXUTListBoxItem *> >::_Tidy
PUBLIC	?_Xlen@?$vector@PAUDXUTListBoxItem@@V?$allocator@PAUDXUTListBoxItem@@@std@@@std@@IBEXXZ ; std::vector<DXUTListBoxItem *,std::allocator<DXUTListBoxItem *> >::_Xlen
PUBLIC	?_Orphan_range@?$vector@PAUDXUTListBoxItem@@V?$allocator@PAUDXUTListBoxItem@@@std@@@std@@IBEXPAPAUDXUTListBoxItem@@0@Z ; std::vector<DXUTListBoxItem *,std::allocator<DXUTListBoxItem *> >::_Orphan_range
PUBLIC	??_GCDXUTListBox@@UAEPAXI@Z			; CDXUTListBox::`scalar deleting destructor'
PUBLIC	??0CDXUTComboBox@@QAE@PAVCDXUTDialog@@@Z	; CDXUTComboBox::CDXUTComboBox
PUBLIC	??1CDXUTComboBox@@UAE@XZ			; CDXUTComboBox::~CDXUTComboBox
PUBLIC	?SetTextColor@CDXUTComboBox@@UAEXK@Z		; CDXUTComboBox::SetTextColor
PUBLIC	?OnInit@CDXUTComboBox@@UAEJXZ			; CDXUTComboBox::OnInit
PUBLIC	?HandleKeyboard@CDXUTComboBox@@UAE_NIIJ@Z	; CDXUTComboBox::HandleKeyboard
PUBLIC	?HandleMouse@CDXUTComboBox@@UAE_NIABUtagPOINT@@IJ@Z ; CDXUTComboBox::HandleMouse
PUBLIC	?OnHotkey@CDXUTComboBox@@UAEXXZ			; CDXUTComboBox::OnHotkey
PUBLIC	?CanHaveFocus@CDXUTComboBox@@UAE_NXZ		; CDXUTComboBox::CanHaveFocus
PUBLIC	?OnFocusOut@CDXUTComboBox@@UAEXXZ		; CDXUTComboBox::OnFocusOut
PUBLIC	?Render@CDXUTComboBox@@UAEXM@Z			; CDXUTComboBox::Render
PUBLIC	?UpdateRects@CDXUTComboBox@@UAEXXZ		; CDXUTComboBox::UpdateRects
PUBLIC	?AddItem@CDXUTComboBox@@QAEJPB_WPAX@Z		; CDXUTComboBox::AddItem
PUBLIC	?RemoveAllItems@CDXUTComboBox@@QAEXXZ		; CDXUTComboBox::RemoveAllItems
PUBLIC	?RemoveItem@CDXUTComboBox@@QAEXI@Z		; CDXUTComboBox::RemoveItem
PUBLIC	?ContainsItem@CDXUTComboBox@@QAE_NPB_WI@Z	; CDXUTComboBox::ContainsItem
PUBLIC	?FindItem@CDXUTComboBox@@QBEHPB_WI@Z		; CDXUTComboBox::FindItem
PUBLIC	?GetItemData@CDXUTComboBox@@QBEPAXPB_W@Z	; CDXUTComboBox::GetItemData
PUBLIC	?GetItemData@CDXUTComboBox@@QBEPAXH@Z		; CDXUTComboBox::GetItemData
PUBLIC	?GetSelectedData@CDXUTComboBox@@QBEPAXXZ	; CDXUTComboBox::GetSelectedData
PUBLIC	?GetSelectedItem@CDXUTComboBox@@QBEPAUDXUTComboBoxItem@@XZ ; CDXUTComboBox::GetSelectedItem
PUBLIC	?GetNumItems@CDXUTComboBox@@QAEIXZ		; CDXUTComboBox::GetNumItems
PUBLIC	?SetSelectedByIndex@CDXUTComboBox@@QAEJI@Z	; CDXUTComboBox::SetSelectedByIndex
PUBLIC	?SetSelectedByText@CDXUTComboBox@@QAEJPB_W@Z	; CDXUTComboBox::SetSelectedByText
PUBLIC	?SetSelectedByData@CDXUTComboBox@@QAEJPAX@Z	; CDXUTComboBox::SetSelectedByData
PUBLIC	??0?$allocator@PAUDXUTComboBoxItem@@@std@@QAE@XZ ; std::allocator<DXUTComboBoxItem *>::allocator<DXUTComboBoxItem *>
PUBLIC	?deallocate@?$allocator@PAUDXUTComboBoxItem@@@std@@QAEXPAPAUDXUTComboBoxItem@@I@Z ; std::allocator<DXUTComboBoxItem *>::deallocate
PUBLIC	?allocate@?$allocator@PAUDXUTComboBoxItem@@@std@@QAEPAPAUDXUTComboBoxItem@@I@Z ; std::allocator<DXUTComboBoxItem *>::allocate
PUBLIC	?construct@?$allocator@PAUDXUTComboBoxItem@@@std@@QAEXPAPAUDXUTComboBoxItem@@ABQAU3@@Z ; std::allocator<DXUTComboBoxItem *>::construct
PUBLIC	?max_size@?$allocator@PAUDXUTComboBoxItem@@@std@@QBEIXZ ; std::allocator<DXUTComboBoxItem *>::max_size
PUBLIC	?max_size@?$allocator_traits@V?$allocator@PAUDXUTComboBoxItem@@@std@@@std@@SAIABV?$allocator@PAUDXUTComboBoxItem@@@2@@Z ; std::allocator_traits<std::allocator<DXUTComboBoxItem *> >::max_size
PUBLIC	??0?$_Wrap_alloc@V?$allocator@PAUDXUTComboBoxItem@@@std@@@std@@QAE@XZ ; std::_Wrap_alloc<std::allocator<DXUTComboBoxItem *> >::_Wrap_alloc<std::allocator<DXUTComboBoxItem *> >
PUBLIC	?allocate@?$_Wrap_alloc@V?$allocator@PAUDXUTComboBoxItem@@@std@@@std@@QAEPAPAUDXUTComboBoxItem@@I@Z ; std::_Wrap_alloc<std::allocator<DXUTComboBoxItem *> >::allocate
PUBLIC	?deallocate@?$_Wrap_alloc@V?$allocator@PAUDXUTComboBoxItem@@@std@@@std@@QAEXPAPAUDXUTComboBoxItem@@I@Z ; std::_Wrap_alloc<std::allocator<DXUTComboBoxItem *> >::deallocate
PUBLIC	?max_size@?$_Wrap_alloc@V?$allocator@PAUDXUTComboBoxItem@@@std@@@std@@QBEIXZ ; std::_Wrap_alloc<std::allocator<DXUTComboBoxItem *> >::max_size
PUBLIC	??0?$_Vector_val@U?$_Simple_types@PAUDXUTComboBoxItem@@@std@@@std@@QAE@XZ ; std::_Vector_val<std::_Simple_types<DXUTComboBoxItem *> >::_Vector_val<std::_Simple_types<DXUTComboBoxItem *> >
PUBLIC	??1?$_Vector_val@U?$_Simple_types@PAUDXUTComboBoxItem@@@std@@@std@@QAE@XZ ; std::_Vector_val<std::_Simple_types<DXUTComboBoxItem *> >::~_Vector_val<std::_Simple_types<DXUTComboBoxItem *> >
PUBLIC	??0?$_Vector_alloc@$0A@U?$_Vec_base_types@PAUDXUTComboBoxItem@@V?$allocator@PAUDXUTComboBoxItem@@@std@@@std@@@std@@QAE@ABV?$allocator@PAUDXUTComboBoxItem@@@1@@Z ; std::_Vector_alloc<0,std::_Vec_base_types<DXUTComboBoxItem *,std::allocator<DXUTComboBoxItem *> > >::_Vector_alloc<0,std::_Vec_base_types<DXUTComboBoxItem *,std::allocator<DXUTComboBoxItem *> > >
PUBLIC	??1?$_Vector_alloc@$0A@U?$_Vec_base_types@PAUDXUTComboBoxItem@@V?$allocator@PAUDXUTComboBoxItem@@@std@@@std@@@std@@QAE@XZ ; std::_Vector_alloc<0,std::_Vec_base_types<DXUTComboBoxItem *,std::allocator<DXUTComboBoxItem *> > >::~_Vector_alloc<0,std::_Vec_base_types<DXUTComboBoxItem *,std::allocator<DXUTComboBoxItem *> > >
PUBLIC	?_Alloc_proxy@?$_Vector_alloc@$0A@U?$_Vec_base_types@PAUDXUTComboBoxItem@@V?$allocator@PAUDXUTComboBoxItem@@@std@@@std@@@std@@QAEXXZ ; std::_Vector_alloc<0,std::_Vec_base_types<DXUTComboBoxItem *,std::allocator<DXUTComboBoxItem *> > >::_Alloc_proxy
PUBLIC	?_Free_proxy@?$_Vector_alloc@$0A@U?$_Vec_base_types@PAUDXUTComboBoxItem@@V?$allocator@PAUDXUTComboBoxItem@@@std@@@std@@@std@@QAEXXZ ; std::_Vector_alloc<0,std::_Vec_base_types<DXUTComboBoxItem *,std::allocator<DXUTComboBoxItem *> > >::_Free_proxy
PUBLIC	?_Getal@?$_Vector_alloc@$0A@U?$_Vec_base_types@PAUDXUTComboBoxItem@@V?$allocator@PAUDXUTComboBoxItem@@@std@@@std@@@std@@QBE?AU?$_Wrap_alloc@V?$allocator@PAUDXUTComboBoxItem@@@std@@@2@XZ ; std::_Vector_alloc<0,std::_Vec_base_types<DXUTComboBoxItem *,std::allocator<DXUTComboBoxItem *> > >::_Getal
PUBLIC	??0?$vector@PAUDXUTComboBoxItem@@V?$allocator@PAUDXUTComboBoxItem@@@std@@@std@@QAE@XZ ; std::vector<DXUTComboBoxItem *,std::allocator<DXUTComboBoxItem *> >::vector<DXUTComboBoxItem *,std::allocator<DXUTComboBoxItem *> >
PUBLIC	??1?$vector@PAUDXUTComboBoxItem@@V?$allocator@PAUDXUTComboBoxItem@@@std@@@std@@QAE@XZ ; std::vector<DXUTComboBoxItem *,std::allocator<DXUTComboBoxItem *> >::~vector<DXUTComboBoxItem *,std::allocator<DXUTComboBoxItem *> >
PUBLIC	?capacity@?$vector@PAUDXUTComboBoxItem@@V?$allocator@PAUDXUTComboBoxItem@@@std@@@std@@QBEIXZ ; std::vector<DXUTComboBoxItem *,std::allocator<DXUTComboBoxItem *> >::capacity
PUBLIC	?_Unused_capacity@?$vector@PAUDXUTComboBoxItem@@V?$allocator@PAUDXUTComboBoxItem@@@std@@@std@@QBEIXZ ; std::vector<DXUTComboBoxItem *,std::allocator<DXUTComboBoxItem *> >::_Unused_capacity
PUBLIC	?begin@?$vector@PAUDXUTComboBoxItem@@V?$allocator@PAUDXUTComboBoxItem@@@std@@@std@@QAE?AV?$_Vector_iterator@V?$_Vector_val@U?$_Simple_types@PAUDXUTComboBoxItem@@@std@@@std@@@2@XZ ; std::vector<DXUTComboBoxItem *,std::allocator<DXUTComboBoxItem *> >::begin
PUBLIC	?end@?$vector@PAUDXUTComboBoxItem@@V?$allocator@PAUDXUTComboBoxItem@@@std@@@std@@QAE?AV?$_Vector_iterator@V?$_Vector_val@U?$_Simple_types@PAUDXUTComboBoxItem@@@std@@@std@@@2@XZ ; std::vector<DXUTComboBoxItem *,std::allocator<DXUTComboBoxItem *> >::end
PUBLIC	?_Make_iter@?$vector@PAUDXUTComboBoxItem@@V?$allocator@PAUDXUTComboBoxItem@@@std@@@std@@QBE?AV?$_Vector_iterator@V?$_Vector_val@U?$_Simple_types@PAUDXUTComboBoxItem@@@std@@@std@@@2@V?$_Vector_const_iterator@V?$_Vector_val@U?$_Simple_types@PAUDXUTComboBoxItem@@@std@@@std@@@2@@Z ; std::vector<DXUTComboBoxItem *,std::allocator<DXUTComboBoxItem *> >::_Make_iter
PUBLIC	?size@?$vector@PAUDXUTComboBoxItem@@V?$allocator@PAUDXUTComboBoxItem@@@std@@@std@@QBEIXZ ; std::vector<DXUTComboBoxItem *,std::allocator<DXUTComboBoxItem *> >::size
PUBLIC	?max_size@?$vector@PAUDXUTComboBoxItem@@V?$allocator@PAUDXUTComboBoxItem@@@std@@@std@@QBEIXZ ; std::vector<DXUTComboBoxItem *,std::allocator<DXUTComboBoxItem *> >::max_size
PUBLIC	??A?$vector@PAUDXUTComboBoxItem@@V?$allocator@PAUDXUTComboBoxItem@@@std@@@std@@QBEABQAUDXUTComboBoxItem@@I@Z ; std::vector<DXUTComboBoxItem *,std::allocator<DXUTComboBoxItem *> >::operator[]
PUBLIC	??A?$vector@PAUDXUTComboBoxItem@@V?$allocator@PAUDXUTComboBoxItem@@@std@@@std@@QAEAAPAUDXUTComboBoxItem@@I@Z ; std::vector<DXUTComboBoxItem *,std::allocator<DXUTComboBoxItem *> >::operator[]
PUBLIC	?push_back@?$vector@PAUDXUTComboBoxItem@@V?$allocator@PAUDXUTComboBoxItem@@@std@@@std@@QAEXABQAUDXUTComboBoxItem@@@Z ; std::vector<DXUTComboBoxItem *,std::allocator<DXUTComboBoxItem *> >::push_back
PUBLIC	?erase@?$vector@PAUDXUTComboBoxItem@@V?$allocator@PAUDXUTComboBoxItem@@@std@@@std@@QAE?AV?$_Vector_iterator@V?$_Vector_val@U?$_Simple_types@PAUDXUTComboBoxItem@@@std@@@std@@@2@V?$_Vector_const_iterator@V?$_Vector_val@U?$_Simple_types@PAUDXUTComboBoxItem@@@std@@@std@@@2@@Z ; std::vector<DXUTComboBoxItem *,std::allocator<DXUTComboBoxItem *> >::erase
PUBLIC	?clear@?$vector@PAUDXUTComboBoxItem@@V?$allocator@PAUDXUTComboBoxItem@@@std@@@std@@QAEXXZ ; std::vector<DXUTComboBoxItem *,std::allocator<DXUTComboBoxItem *> >::clear
PUBLIC	?_Destroy@?$vector@PAUDXUTComboBoxItem@@V?$allocator@PAUDXUTComboBoxItem@@@std@@@std@@IAEXPAPAUDXUTComboBoxItem@@0@Z ; std::vector<DXUTComboBoxItem *,std::allocator<DXUTComboBoxItem *> >::_Destroy
PUBLIC	?_Grow_to@?$vector@PAUDXUTComboBoxItem@@V?$allocator@PAUDXUTComboBoxItem@@@std@@@std@@IBEII@Z ; std::vector<DXUTComboBoxItem *,std::allocator<DXUTComboBoxItem *> >::_Grow_to
PUBLIC	?_Inside@?$vector@PAUDXUTComboBoxItem@@V?$allocator@PAUDXUTComboBoxItem@@@std@@@std@@IBE_NPBQAUDXUTComboBoxItem@@@Z ; std::vector<DXUTComboBoxItem *,std::allocator<DXUTComboBoxItem *> >::_Inside
PUBLIC	?_Reallocate@?$vector@PAUDXUTComboBoxItem@@V?$allocator@PAUDXUTComboBoxItem@@@std@@@std@@IAEXI@Z ; std::vector<DXUTComboBoxItem *,std::allocator<DXUTComboBoxItem *> >::_Reallocate
PUBLIC	?_Reserve@?$vector@PAUDXUTComboBoxItem@@V?$allocator@PAUDXUTComboBoxItem@@@std@@@std@@IAEXI@Z ; std::vector<DXUTComboBoxItem *,std::allocator<DXUTComboBoxItem *> >::_Reserve
PUBLIC	?_Tidy@?$vector@PAUDXUTComboBoxItem@@V?$allocator@PAUDXUTComboBoxItem@@@std@@@std@@IAEXXZ ; std::vector<DXUTComboBoxItem *,std::allocator<DXUTComboBoxItem *> >::_Tidy
PUBLIC	?_Xlen@?$vector@PAUDXUTComboBoxItem@@V?$allocator@PAUDXUTComboBoxItem@@@std@@@std@@IBEXXZ ; std::vector<DXUTComboBoxItem *,std::allocator<DXUTComboBoxItem *> >::_Xlen
PUBLIC	?_Orphan_range@?$vector@PAUDXUTComboBoxItem@@V?$allocator@PAUDXUTComboBoxItem@@@std@@@std@@IBEXPAPAUDXUTComboBoxItem@@0@Z ; std::vector<DXUTComboBoxItem *,std::allocator<DXUTComboBoxItem *> >::_Orphan_range
PUBLIC	??_GCDXUTComboBox@@UAEPAXI@Z			; CDXUTComboBox::`scalar deleting destructor'
PUBLIC	??0CDXUTSlider@@QAE@PAVCDXUTDialog@@@Z		; CDXUTSlider::CDXUTSlider
PUBLIC	?ContainsPoint@CDXUTSlider@@UAE_NABUtagPOINT@@@Z ; CDXUTSlider::ContainsPoint
PUBLIC	?CanHaveFocus@CDXUTSlider@@UAE_NXZ		; CDXUTSlider::CanHaveFocus
PUBLIC	?HandleKeyboard@CDXUTSlider@@UAE_NIIJ@Z		; CDXUTSlider::HandleKeyboard
PUBLIC	?HandleMouse@CDXUTSlider@@UAE_NIABUtagPOINT@@IJ@Z ; CDXUTSlider::HandleMouse
PUBLIC	?UpdateRects@CDXUTSlider@@UAEXXZ		; CDXUTSlider::UpdateRects
PUBLIC	?Render@CDXUTSlider@@UAEXM@Z			; CDXUTSlider::Render
PUBLIC	?SetValue@CDXUTSlider@@QAEXH@Z			; CDXUTSlider::SetValue
PUBLIC	?SetRange@CDXUTSlider@@QAEXHH@Z			; CDXUTSlider::SetRange
PUBLIC	?SetValueInternal@CDXUTSlider@@IAEXH_N@Z	; CDXUTSlider::SetValueInternal
PUBLIC	?ValueFromPos@CDXUTSlider@@IAEHH@Z		; CDXUTSlider::ValueFromPos
PUBLIC	??1CDXUTSlider@@UAE@XZ				; CDXUTSlider::~CDXUTSlider
PUBLIC	??_GCDXUTSlider@@UAEPAXI@Z			; CDXUTSlider::`scalar deleting destructor'
PUBLIC	??0CUniBuffer@@QAE@H@Z				; CUniBuffer::CUniBuffer
PUBLIC	??1CUniBuffer@@QAE@XZ				; CUniBuffer::~CUniBuffer
PUBLIC	?GetBufferSize@CUniBuffer@@QBEIXZ		; CUniBuffer::GetBufferSize
PUBLIC	?SetBufferSize@CUniBuffer@@QAE_NH@Z		; CUniBuffer::SetBufferSize
PUBLIC	?GetTextSize@CUniBuffer@@QBEHXZ			; CUniBuffer::GetTextSize
PUBLIC	?GetBuffer@CUniBuffer@@QBEPB_WXZ		; CUniBuffer::GetBuffer
PUBLIC	??ACUniBuffer@@QAEAA_WH@Z			; CUniBuffer::operator[]
PUBLIC	?SetFontNode@CUniBuffer@@QAEXPAUDXUTFontNode@@@Z ; CUniBuffer::SetFontNode
PUBLIC	?Clear@CUniBuffer@@QAEXXZ			; CUniBuffer::Clear
PUBLIC	?InsertChar@CUniBuffer@@QAE_NH_W@Z		; CUniBuffer::InsertChar
PUBLIC	?RemoveChar@CUniBuffer@@QAE_NH@Z		; CUniBuffer::RemoveChar
PUBLIC	?InsertString@CUniBuffer@@QAE_NHPB_WH@Z		; CUniBuffer::InsertString
PUBLIC	?SetText@CUniBuffer@@QAE_NPB_W@Z		; CUniBuffer::SetText
PUBLIC	?CPtoX@CUniBuffer@@QAE_NH_NPAH@Z		; CUniBuffer::CPtoX
PUBLIC	?XtoCP@CUniBuffer@@QAE_NHPAH0@Z			; CUniBuffer::XtoCP
PUBLIC	?GetPriorItemPos@CUniBuffer@@QAEXHPAH@Z		; CUniBuffer::GetPriorItemPos
PUBLIC	?GetNextItemPos@CUniBuffer@@QAEXHPAH@Z		; CUniBuffer::GetNextItemPos
PUBLIC	?Analyse@CUniBuffer@@AAEJXZ			; CUniBuffer::Analyse
PUBLIC	??0CDXUTEditBox@@QAE@PAVCDXUTDialog@@@Z		; CDXUTEditBox::CDXUTEditBox
PUBLIC	??1CDXUTEditBox@@UAE@XZ				; CDXUTEditBox::~CDXUTEditBox
PUBLIC	?HandleKeyboard@CDXUTEditBox@@UAE_NIIJ@Z	; CDXUTEditBox::HandleKeyboard
PUBLIC	?HandleMouse@CDXUTEditBox@@UAE_NIABUtagPOINT@@IJ@Z ; CDXUTEditBox::HandleMouse
PUBLIC	?MsgProc@CDXUTEditBox@@UAE_NIIJ@Z		; CDXUTEditBox::MsgProc
PUBLIC	?UpdateRects@CDXUTEditBox@@UAEXXZ		; CDXUTEditBox::UpdateRects
PUBLIC	?CanHaveFocus@CDXUTEditBox@@UAE_NXZ		; CDXUTEditBox::CanHaveFocus
PUBLIC	?Render@CDXUTEditBox@@UAEXM@Z			; CDXUTEditBox::Render
PUBLIC	?OnFocusIn@CDXUTEditBox@@UAEXXZ			; CDXUTEditBox::OnFocusIn
PUBLIC	?SetText@CDXUTEditBox@@QAEXPB_W_N@Z		; CDXUTEditBox::SetText
PUBLIC	?GetTextCopy@CDXUTEditBox@@QBEJPA_WI@Z		; CDXUTEditBox::GetTextCopy
PUBLIC	?ClearText@CDXUTEditBox@@QAEXXZ			; CDXUTEditBox::ClearText
PUBLIC	?SetTextColor@CDXUTEditBox@@UAEXK@Z		; CDXUTEditBox::SetTextColor
PUBLIC	?ParseFloatArray@CDXUTEditBox@@QAEXPAMH@Z	; CDXUTEditBox::ParseFloatArray
PUBLIC	?SetTextFloatArray@CDXUTEditBox@@QAEXPBMH@Z	; CDXUTEditBox::SetTextFloatArray
PUBLIC	?PlaceCaret@CDXUTEditBox@@IAEXH@Z		; CDXUTEditBox::PlaceCaret
PUBLIC	?DeleteSelectionText@CDXUTEditBox@@IAEXXZ	; CDXUTEditBox::DeleteSelectionText
PUBLIC	?ResetCaretBlink@CDXUTEditBox@@IAEXXZ		; CDXUTEditBox::ResetCaretBlink
PUBLIC	?CopyToClipboard@CDXUTEditBox@@IAEXXZ		; CDXUTEditBox::CopyToClipboard
PUBLIC	?PasteFromClipboard@CDXUTEditBox@@IAEXXZ	; CDXUTEditBox::PasteFromClipboard
PUBLIC	??_GCDXUTEditBox@@UAEPAXI@Z			; CDXUTEditBox::`scalar deleting destructor'
PUBLIC	?BeginText11@@YAXXZ				; BeginText11
PUBLIC	?DrawText11DXUT@@YAXPAUID3D11Device@@PAUID3D11DeviceContext@@PB_WABUtagRECT@@UXMFLOAT4@DirectX@@MM_N@Z ; DrawText11DXUT
PUBLIC	?EndText11@@YAXPAUID3D11Device@@PAUID3D11DeviceContext@@@Z ; EndText11
PUBLIC	?D3DCOLOR_TO_D3DCOLORVALUE@@YA?AUXMFLOAT4@DirectX@@K@Z ; D3DCOLOR_TO_D3DCOLORVALUE
PUBLIC	?RectWidth@@YAHAAUtagRECT@@@Z			; RectWidth
PUBLIC	?RectHeight@@YAHAAUtagRECT@@@Z			; RectHeight
PUBLIC	?InitFont11@@YAJPAUID3D11Device@@PAUID3D11InputLayout@@@Z ; InitFont11
PUBLIC	?EndFont11@@YAXXZ				; EndFont11
PUBLIC	??0?$_Iterator012@Urandom_access_iterator_tag@std@@PAUDXUTElementHolder@@HPBQAU3@ABQAU3@U_Iterator_base12@2@@std@@QAE@XZ ; std::_Iterator012<std::random_access_iterator_tag,DXUTElementHolder *,int,DXUTElementHolder * const *,DXUTElementHolder * const &,std::_Iterator_base12>::_Iterator012<std::random_access_iterator_tag,DXUTElementHolder *,int,DXUTElementHolder * const *,DXUTElementHolder * const &,std::_Iterator_base12>
PUBLIC	??1?$_Iterator012@Urandom_access_iterator_tag@std@@PAUDXUTElementHolder@@HPBQAU3@ABQAU3@U_Iterator_base12@2@@std@@QAE@XZ ; std::_Iterator012<std::random_access_iterator_tag,DXUTElementHolder *,int,DXUTElementHolder * const *,DXUTElementHolder * const &,std::_Iterator_base12>::~_Iterator012<std::random_access_iterator_tag,DXUTElementHolder *,int,DXUTElementHolder * const *,DXUTElementHolder * const &,std::_Iterator_base12>
PUBLIC	??0?$_Vector_const_iterator@V?$_Vector_val@U?$_Simple_types@PAUDXUTElementHolder@@@std@@@std@@@std@@QAE@PAPAUDXUTElementHolder@@PBU_Container_base12@1@@Z ; std::_Vector_const_iterator<std::_Vector_val<std::_Simple_types<DXUTElementHolder *> > >::_Vector_const_iterator<std::_Vector_val<std::_Simple_types<DXUTElementHolder *> > >
PUBLIC	??D?$_Vector_const_iterator@V?$_Vector_val@U?$_Simple_types@PAUDXUTElementHolder@@@std@@@std@@@std@@QBEABQAUDXUTElementHolder@@XZ ; std::_Vector_const_iterator<std::_Vector_val<std::_Simple_types<DXUTElementHolder *> > >::operator*
PUBLIC	??E?$_Vector_const_iterator@V?$_Vector_val@U?$_Simple_types@PAUDXUTElementHolder@@@std@@@std@@@std@@QAEAAV01@XZ ; std::_Vector_const_iterator<std::_Vector_val<std::_Simple_types<DXUTElementHolder *> > >::operator++
PUBLIC	??8?$_Vector_const_iterator@V?$_Vector_val@U?$_Simple_types@PAUDXUTElementHolder@@@std@@@std@@@std@@QBE_NABV01@@Z ; std::_Vector_const_iterator<std::_Vector_val<std::_Simple_types<DXUTElementHolder *> > >::operator==
PUBLIC	??9?$_Vector_const_iterator@V?$_Vector_val@U?$_Simple_types@PAUDXUTElementHolder@@@std@@@std@@@std@@QBE_NABV01@@Z ; std::_Vector_const_iterator<std::_Vector_val<std::_Simple_types<DXUTElementHolder *> > >::operator!=
PUBLIC	?_Compat@?$_Vector_const_iterator@V?$_Vector_val@U?$_Simple_types@PAUDXUTElementHolder@@@std@@@std@@@std@@QBEXABV12@@Z ; std::_Vector_const_iterator<std::_Vector_val<std::_Simple_types<DXUTElementHolder *> > >::_Compat
PUBLIC	??1?$_Vector_const_iterator@V?$_Vector_val@U?$_Simple_types@PAUDXUTElementHolder@@@std@@@std@@@std@@QAE@XZ ; std::_Vector_const_iterator<std::_Vector_val<std::_Simple_types<DXUTElementHolder *> > >::~_Vector_const_iterator<std::_Vector_val<std::_Simple_types<DXUTElementHolder *> > >
PUBLIC	??0?$_Vector_iterator@V?$_Vector_val@U?$_Simple_types@PAUDXUTElementHolder@@@std@@@std@@@std@@QAE@PAPAUDXUTElementHolder@@PBU_Container_base12@1@@Z ; std::_Vector_iterator<std::_Vector_val<std::_Simple_types<DXUTElementHolder *> > >::_Vector_iterator<std::_Vector_val<std::_Simple_types<DXUTElementHolder *> > >
PUBLIC	??D?$_Vector_iterator@V?$_Vector_val@U?$_Simple_types@PAUDXUTElementHolder@@@std@@@std@@@std@@QBEAAPAUDXUTElementHolder@@XZ ; std::_Vector_iterator<std::_Vector_val<std::_Simple_types<DXUTElementHolder *> > >::operator*
PUBLIC	??E?$_Vector_iterator@V?$_Vector_val@U?$_Simple_types@PAUDXUTElementHolder@@@std@@@std@@@std@@QAEAAV01@XZ ; std::_Vector_iterator<std::_Vector_val<std::_Simple_types<DXUTElementHolder *> > >::operator++
PUBLIC	??1?$_Vector_iterator@V?$_Vector_val@U?$_Simple_types@PAUDXUTElementHolder@@@std@@@std@@@std@@QAE@XZ ; std::_Vector_iterator<std::_Vector_val<std::_Simple_types<DXUTElementHolder *> > >::~_Vector_iterator<std::_Vector_val<std::_Simple_types<DXUTElementHolder *> > >
PUBLIC	??0?$_Iterator012@Urandom_access_iterator_tag@std@@PAVCDXUTControl@@HPBQAV3@ABQAV3@U_Iterator_base12@2@@std@@QAE@XZ ; std::_Iterator012<std::random_access_iterator_tag,CDXUTControl *,int,CDXUTControl * const *,CDXUTControl * const &,std::_Iterator_base12>::_Iterator012<std::random_access_iterator_tag,CDXUTControl *,int,CDXUTControl * const *,CDXUTControl * const &,std::_Iterator_base12>
PUBLIC	??1?$_Iterator012@Urandom_access_iterator_tag@std@@PAVCDXUTControl@@HPBQAV3@ABQAV3@U_Iterator_base12@2@@std@@QAE@XZ ; std::_Iterator012<std::random_access_iterator_tag,CDXUTControl *,int,CDXUTControl * const *,CDXUTControl * const &,std::_Iterator_base12>::~_Iterator012<std::random_access_iterator_tag,CDXUTControl *,int,CDXUTControl * const *,CDXUTControl * const &,std::_Iterator_base12>
PUBLIC	??0?$_Iterator012@Urandom_access_iterator_tag@std@@PAVCDXUTControl@@HPBQAV3@ABQAV3@U_Iterator_base12@2@@std@@QAE@ABU01@@Z ; std::_Iterator012<std::random_access_iterator_tag,CDXUTControl *,int,CDXUTControl * const *,CDXUTControl * const &,std::_Iterator_base12>::_Iterator012<std::random_access_iterator_tag,CDXUTControl *,int,CDXUTControl * const *,CDXUTControl * const &,std::_Iterator_base12>
PUBLIC	??0?$_Vector_const_iterator@V?$_Vector_val@U?$_Simple_types@PAVCDXUTControl@@@std@@@std@@@std@@QAE@PAPAVCDXUTControl@@PBU_Container_base12@1@@Z ; std::_Vector_const_iterator<std::_Vector_val<std::_Simple_types<CDXUTControl *> > >::_Vector_const_iterator<std::_Vector_val<std::_Simple_types<CDXUTControl *> > >
PUBLIC	??D?$_Vector_const_iterator@V?$_Vector_val@U?$_Simple_types@PAVCDXUTControl@@@std@@@std@@@std@@QBEABQAVCDXUTControl@@XZ ; std::_Vector_const_iterator<std::_Vector_val<std::_Simple_types<CDXUTControl *> > >::operator*
PUBLIC	??E?$_Vector_const_iterator@V?$_Vector_val@U?$_Simple_types@PAVCDXUTControl@@@std@@@std@@@std@@QAEAAV01@XZ ; std::_Vector_const_iterator<std::_Vector_val<std::_Simple_types<CDXUTControl *> > >::operator++
PUBLIC	??8?$_Vector_const_iterator@V?$_Vector_val@U?$_Simple_types@PAVCDXUTControl@@@std@@@std@@@std@@QBE_NABV01@@Z ; std::_Vector_const_iterator<std::_Vector_val<std::_Simple_types<CDXUTControl *> > >::operator==
PUBLIC	??9?$_Vector_const_iterator@V?$_Vector_val@U?$_Simple_types@PAVCDXUTControl@@@std@@@std@@@std@@QBE_NABV01@@Z ; std::_Vector_const_iterator<std::_Vector_val<std::_Simple_types<CDXUTControl *> > >::operator!=
PUBLIC	?_Compat@?$_Vector_const_iterator@V?$_Vector_val@U?$_Simple_types@PAVCDXUTControl@@@std@@@std@@@std@@QBEXABV12@@Z ; std::_Vector_const_iterator<std::_Vector_val<std::_Simple_types<CDXUTControl *> > >::_Compat
PUBLIC	??1?$_Vector_const_iterator@V?$_Vector_val@U?$_Simple_types@PAVCDXUTControl@@@std@@@std@@@std@@QAE@XZ ; std::_Vector_const_iterator<std::_Vector_val<std::_Simple_types<CDXUTControl *> > >::~_Vector_const_iterator<std::_Vector_val<std::_Simple_types<CDXUTControl *> > >
PUBLIC	??0?$_Vector_const_iterator@V?$_Vector_val@U?$_Simple_types@PAVCDXUTControl@@@std@@@std@@@std@@QAE@ABV01@@Z ; std::_Vector_const_iterator<std::_Vector_val<std::_Simple_types<CDXUTControl *> > >::_Vector_const_iterator<std::_Vector_val<std::_Simple_types<CDXUTControl *> > >
PUBLIC	??0?$_Vector_iterator@V?$_Vector_val@U?$_Simple_types@PAVCDXUTControl@@@std@@@std@@@std@@QAE@PAPAVCDXUTControl@@PBU_Container_base12@1@@Z ; std::_Vector_iterator<std::_Vector_val<std::_Simple_types<CDXUTControl *> > >::_Vector_iterator<std::_Vector_val<std::_Simple_types<CDXUTControl *> > >
PUBLIC	??D?$_Vector_iterator@V?$_Vector_val@U?$_Simple_types@PAVCDXUTControl@@@std@@@std@@@std@@QBEAAPAVCDXUTControl@@XZ ; std::_Vector_iterator<std::_Vector_val<std::_Simple_types<CDXUTControl *> > >::operator*
PUBLIC	??E?$_Vector_iterator@V?$_Vector_val@U?$_Simple_types@PAVCDXUTControl@@@std@@@std@@@std@@QAEAAV01@XZ ; std::_Vector_iterator<std::_Vector_val<std::_Simple_types<CDXUTControl *> > >::operator++
PUBLIC	??1?$_Vector_iterator@V?$_Vector_val@U?$_Simple_types@PAVCDXUTControl@@@std@@@std@@@std@@QAE@XZ ; std::_Vector_iterator<std::_Vector_val<std::_Simple_types<CDXUTControl *> > >::~_Vector_iterator<std::_Vector_val<std::_Simple_types<CDXUTControl *> > >
PUBLIC	??0?$_Iterator012@Urandom_access_iterator_tag@std@@PAVCDXUTDialog@@HPBQAV3@ABQAV3@U_Iterator_base12@2@@std@@QAE@XZ ; std::_Iterator012<std::random_access_iterator_tag,CDXUTDialog *,int,CDXUTDialog * const *,CDXUTDialog * const &,std::_Iterator_base12>::_Iterator012<std::random_access_iterator_tag,CDXUTDialog *,int,CDXUTDialog * const *,CDXUTDialog * const &,std::_Iterator_base12>
PUBLIC	??1?$_Iterator012@Urandom_access_iterator_tag@std@@PAVCDXUTDialog@@HPBQAV3@ABQAV3@U_Iterator_base12@2@@std@@QAE@XZ ; std::_Iterator012<std::random_access_iterator_tag,CDXUTDialog *,int,CDXUTDialog * const *,CDXUTDialog * const &,std::_Iterator_base12>::~_Iterator012<std::random_access_iterator_tag,CDXUTDialog *,int,CDXUTDialog * const *,CDXUTDialog * const &,std::_Iterator_base12>
PUBLIC	??0?$_Iterator012@Urandom_access_iterator_tag@std@@PAVCDXUTDialog@@HPBQAV3@ABQAV3@U_Iterator_base12@2@@std@@QAE@ABU01@@Z ; std::_Iterator012<std::random_access_iterator_tag,CDXUTDialog *,int,CDXUTDialog * const *,CDXUTDialog * const &,std::_Iterator_base12>::_Iterator012<std::random_access_iterator_tag,CDXUTDialog *,int,CDXUTDialog * const *,CDXUTDialog * const &,std::_Iterator_base12>
PUBLIC	??4?$_Iterator012@Urandom_access_iterator_tag@std@@PAVCDXUTDialog@@HPBQAV3@ABQAV3@U_Iterator_base12@2@@std@@QAEAAU01@ABU01@@Z ; std::_Iterator012<std::random_access_iterator_tag,CDXUTDialog *,int,CDXUTDialog * const *,CDXUTDialog * const &,std::_Iterator_base12>::operator=
PUBLIC	??0?$_Vector_const_iterator@V?$_Vector_val@U?$_Simple_types@PAVCDXUTDialog@@@std@@@std@@@std@@QAE@PAPAVCDXUTDialog@@PBU_Container_base12@1@@Z ; std::_Vector_const_iterator<std::_Vector_val<std::_Simple_types<CDXUTDialog *> > >::_Vector_const_iterator<std::_Vector_val<std::_Simple_types<CDXUTDialog *> > >
PUBLIC	?_Rechecked@?$_Vector_const_iterator@V?$_Vector_val@U?$_Simple_types@PAVCDXUTDialog@@@std@@@std@@@std@@QAEAAV12@PBQAVCDXUTDialog@@@Z ; std::_Vector_const_iterator<std::_Vector_val<std::_Simple_types<CDXUTDialog *> > >::_Rechecked
PUBLIC	?_Unchecked@?$_Vector_const_iterator@V?$_Vector_val@U?$_Simple_types@PAVCDXUTDialog@@@std@@@std@@@std@@QBEPBQAVCDXUTDialog@@XZ ; std::_Vector_const_iterator<std::_Vector_val<std::_Simple_types<CDXUTDialog *> > >::_Unchecked
PUBLIC	??D?$_Vector_const_iterator@V?$_Vector_val@U?$_Simple_types@PAVCDXUTDialog@@@std@@@std@@@std@@QBEABQAVCDXUTDialog@@XZ ; std::_Vector_const_iterator<std::_Vector_val<std::_Simple_types<CDXUTDialog *> > >::operator*
PUBLIC	??E?$_Vector_const_iterator@V?$_Vector_val@U?$_Simple_types@PAVCDXUTDialog@@@std@@@std@@@std@@QAEAAV01@XZ ; std::_Vector_const_iterator<std::_Vector_val<std::_Simple_types<CDXUTDialog *> > >::operator++
PUBLIC	??F?$_Vector_const_iterator@V?$_Vector_val@U?$_Simple_types@PAVCDXUTDialog@@@std@@@std@@@std@@QAEAAV01@XZ ; std::_Vector_const_iterator<std::_Vector_val<std::_Simple_types<CDXUTDialog *> > >::operator--
PUBLIC	??Y?$_Vector_const_iterator@V?$_Vector_val@U?$_Simple_types@PAVCDXUTDialog@@@std@@@std@@@std@@QAEAAV01@H@Z ; std::_Vector_const_iterator<std::_Vector_val<std::_Simple_types<CDXUTDialog *> > >::operator+=
PUBLIC	??G?$_Vector_const_iterator@V?$_Vector_val@U?$_Simple_types@PAVCDXUTDialog@@@std@@@std@@@std@@QBEHABV01@@Z ; std::_Vector_const_iterator<std::_Vector_val<std::_Simple_types<CDXUTDialog *> > >::operator-
PUBLIC	??8?$_Vector_const_iterator@V?$_Vector_val@U?$_Simple_types@PAVCDXUTDialog@@@std@@@std@@@std@@QBE_NABV01@@Z ; std::_Vector_const_iterator<std::_Vector_val<std::_Simple_types<CDXUTDialog *> > >::operator==
PUBLIC	??9?$_Vector_const_iterator@V?$_Vector_val@U?$_Simple_types@PAVCDXUTDialog@@@std@@@std@@@std@@QBE_NABV01@@Z ; std::_Vector_const_iterator<std::_Vector_val<std::_Simple_types<CDXUTDialog *> > >::operator!=
PUBLIC	??M?$_Vector_const_iterator@V?$_Vector_val@U?$_Simple_types@PAVCDXUTDialog@@@std@@@std@@@std@@QBE_NABV01@@Z ; std::_Vector_const_iterator<std::_Vector_val<std::_Simple_types<CDXUTDialog *> > >::operator<
PUBLIC	?_Compat@?$_Vector_const_iterator@V?$_Vector_val@U?$_Simple_types@PAVCDXUTDialog@@@std@@@std@@@std@@QBEXABV12@@Z ; std::_Vector_const_iterator<std::_Vector_val<std::_Simple_types<CDXUTDialog *> > >::_Compat
PUBLIC	??1?$_Vector_const_iterator@V?$_Vector_val@U?$_Simple_types@PAVCDXUTDialog@@@std@@@std@@@std@@QAE@XZ ; std::_Vector_const_iterator<std::_Vector_val<std::_Simple_types<CDXUTDialog *> > >::~_Vector_const_iterator<std::_Vector_val<std::_Simple_types<CDXUTDialog *> > >
PUBLIC	??0?$_Vector_const_iterator@V?$_Vector_val@U?$_Simple_types@PAVCDXUTDialog@@@std@@@std@@@std@@QAE@ABV01@@Z ; std::_Vector_const_iterator<std::_Vector_val<std::_Simple_types<CDXUTDialog *> > >::_Vector_const_iterator<std::_Vector_val<std::_Simple_types<CDXUTDialog *> > >
PUBLIC	??4?$_Vector_const_iterator@V?$_Vector_val@U?$_Simple_types@PAVCDXUTDialog@@@std@@@std@@@std@@QAEAAV01@ABV01@@Z ; std::_Vector_const_iterator<std::_Vector_val<std::_Simple_types<CDXUTDialog *> > >::operator=
PUBLIC	??0?$_Revranit@V?$_Vector_const_iterator@V?$_Vector_val@U?$_Simple_types@PAVCDXUTDialog@@@std@@@std@@@std@@U?$iterator@Urandom_access_iterator_tag@std@@PAVCDXUTDialog@@HPBQAV3@ABQAV3@@2@@std@@QAE@V?$_Vector_const_iterator@V?$_Vector_val@U?$_Simple_types@PAVCDXUTDialog@@@std@@@std@@@1@@Z ; std::_Revranit<std::_Vector_const_iterator<std::_Vector_val<std::_Simple_types<CDXUTDialog *> > >,std::iterator<std::random_access_iterator_tag,CDXUTDialog *,int,CDXUTDialog * const *,CDXUTDialog * const &> >::_Revranit<std::_Vector_const_iterator<std::_Vector_val<std::_Simple_types<CDXUTDialog *> > >,std::iterator<std::random_access_iterator_tag,CDXUTDialog *,int,CDXUTDialog * const *,CDXUTDialog * const &> >
PUBLIC	?base@?$_Revranit@V?$_Vector_const_iterator@V?$_Vector_val@U?$_Simple_types@PAVCDXUTDialog@@@std@@@std@@@std@@U?$iterator@Urandom_access_iterator_tag@std@@PAVCDXUTDialog@@HPBQAV3@ABQAV3@@2@@std@@QBE?AV?$_Vector_const_iterator@V?$_Vector_val@U?$_Simple_types@PAVCDXUTDialog@@@std@@@std@@@2@XZ ; std::_Revranit<std::_Vector_const_iterator<std::_Vector_val<std::_Simple_types<CDXUTDialog *> > >,std::iterator<std::random_access_iterator_tag,CDXUTDialog *,int,CDXUTDialog * const *,CDXUTDialog * const &> >::base
PUBLIC	??D?$_Revranit@V?$_Vector_const_iterator@V?$_Vector_val@U?$_Simple_types@PAVCDXUTDialog@@@std@@@std@@@std@@U?$iterator@Urandom_access_iterator_tag@std@@PAVCDXUTDialog@@HPBQAV3@ABQAV3@@2@@std@@QBEABQAVCDXUTDialog@@XZ ; std::_Revranit<std::_Vector_const_iterator<std::_Vector_val<std::_Simple_types<CDXUTDialog *> > >,std::iterator<std::random_access_iterator_tag,CDXUTDialog *,int,CDXUTDialog * const *,CDXUTDialog * const &> >::operator*
PUBLIC	??E?$_Revranit@V?$_Vector_const_iterator@V?$_Vector_val@U?$_Simple_types@PAVCDXUTDialog@@@std@@@std@@@std@@U?$iterator@Urandom_access_iterator_tag@std@@PAVCDXUTDialog@@HPBQAV3@ABQAV3@@2@@std@@QAEAAV01@XZ ; std::_Revranit<std::_Vector_const_iterator<std::_Vector_val<std::_Simple_types<CDXUTDialog *> > >,std::iterator<std::random_access_iterator_tag,CDXUTDialog *,int,CDXUTDialog * const *,CDXUTDialog * const &> >::operator++
PUBLIC	??1?$_Revranit@V?$_Vector_const_iterator@V?$_Vector_val@U?$_Simple_types@PAVCDXUTDialog@@@std@@@std@@@std@@U?$iterator@Urandom_access_iterator_tag@std@@PAVCDXUTDialog@@HPBQAV3@ABQAV3@@2@@std@@QAE@XZ ; std::_Revranit<std::_Vector_const_iterator<std::_Vector_val<std::_Simple_types<CDXUTDialog *> > >,std::iterator<std::random_access_iterator_tag,CDXUTDialog *,int,CDXUTDialog * const *,CDXUTDialog * const &> >::~_Revranit<std::_Vector_const_iterator<std::_Vector_val<std::_Simple_types<CDXUTDialog *> > >,std::iterator<std::random_access_iterator_tag,CDXUTDialog *,int,CDXUTDialog * const *,CDXUTDialog * const &> >
PUBLIC	??0?$_Revranit@V?$_Vector_const_iterator@V?$_Vector_val@U?$_Simple_types@PAVCDXUTDialog@@@std@@@std@@@std@@U?$iterator@Urandom_access_iterator_tag@std@@PAVCDXUTDialog@@HPBQAV3@ABQAV3@@2@@std@@QAE@ABV01@@Z ; std::_Revranit<std::_Vector_const_iterator<std::_Vector_val<std::_Simple_types<CDXUTDialog *> > >,std::iterator<std::random_access_iterator_tag,CDXUTDialog *,int,CDXUTDialog * const *,CDXUTDialog * const &> >::_Revranit<std::_Vector_const_iterator<std::_Vector_val<std::_Simple_types<CDXUTDialog *> > >,std::iterator<std::random_access_iterator_tag,CDXUTDialog *,int,CDXUTDialog * const *,CDXUTDialog * const &> >
PUBLIC	??0?$reverse_iterator@V?$_Vector_const_iterator@V?$_Vector_val@U?$_Simple_types@PAVCDXUTDialog@@@std@@@std@@@std@@@std@@QAE@V?$_Vector_const_iterator@V?$_Vector_val@U?$_Simple_types@PAVCDXUTDialog@@@std@@@std@@@1@@Z ; std::reverse_iterator<std::_Vector_const_iterator<std::_Vector_val<std::_Simple_types<CDXUTDialog *> > > >::reverse_iterator<std::_Vector_const_iterator<std::_Vector_val<std::_Simple_types<CDXUTDialog *> > > >
PUBLIC	??E?$reverse_iterator@V?$_Vector_const_iterator@V?$_Vector_val@U?$_Simple_types@PAVCDXUTDialog@@@std@@@std@@@std@@@std@@QAEAAV01@XZ ; std::reverse_iterator<std::_Vector_const_iterator<std::_Vector_val<std::_Simple_types<CDXUTDialog *> > > >::operator++
PUBLIC	??1?$reverse_iterator@V?$_Vector_const_iterator@V?$_Vector_val@U?$_Simple_types@PAVCDXUTDialog@@@std@@@std@@@std@@@std@@QAE@XZ ; std::reverse_iterator<std::_Vector_const_iterator<std::_Vector_val<std::_Simple_types<CDXUTDialog *> > > >::~reverse_iterator<std::_Vector_const_iterator<std::_Vector_val<std::_Simple_types<CDXUTDialog *> > > >
PUBLIC	??0?$reverse_iterator@V?$_Vector_const_iterator@V?$_Vector_val@U?$_Simple_types@PAVCDXUTDialog@@@std@@@std@@@std@@@std@@QAE@ABV01@@Z ; std::reverse_iterator<std::_Vector_const_iterator<std::_Vector_val<std::_Simple_types<CDXUTDialog *> > > >::reverse_iterator<std::_Vector_const_iterator<std::_Vector_val<std::_Simple_types<CDXUTDialog *> > > >
PUBLIC	??$?9V?$_Vector_const_iterator@V?$_Vector_val@U?$_Simple_types@PAVCDXUTDialog@@@std@@@std@@@std@@V01@@std@@YA_NABV?$reverse_iterator@V?$_Vector_const_iterator@V?$_Vector_val@U?$_Simple_types@PAVCDXUTDialog@@@std@@@std@@@std@@@0@0@Z ; std::operator!=<std::_Vector_const_iterator<std::_Vector_val<std::_Simple_types<CDXUTDialog *> > >,std::_Vector_const_iterator<std::_Vector_val<std::_Simple_types<CDXUTDialog *> > > >
PUBLIC	??$find@V?$_Vector_const_iterator@V?$_Vector_val@U?$_Simple_types@PAVCDXUTDialog@@@std@@@std@@@std@@PAVCDXUTDialog@@@std@@YA?AV?$_Vector_const_iterator@V?$_Vector_val@U?$_Simple_types@PAVCDXUTDialog@@@std@@@std@@@0@V10@0ABQAVCDXUTDialog@@@Z ; std::find<std::_Vector_const_iterator<std::_Vector_val<std::_Simple_types<CDXUTDialog *> > >,CDXUTDialog *>
PUBLIC	??0?$_Vector_iterator@V?$_Vector_val@U?$_Simple_types@PAVCDXUTDialog@@@std@@@std@@@std@@QAE@PAPAVCDXUTDialog@@PBU_Container_base12@1@@Z ; std::_Vector_iterator<std::_Vector_val<std::_Simple_types<CDXUTDialog *> > >::_Vector_iterator<std::_Vector_val<std::_Simple_types<CDXUTDialog *> > >
PUBLIC	??D?$_Vector_iterator@V?$_Vector_val@U?$_Simple_types@PAVCDXUTDialog@@@std@@@std@@@std@@QBEAAPAVCDXUTDialog@@XZ ; std::_Vector_iterator<std::_Vector_val<std::_Simple_types<CDXUTDialog *> > >::operator*
PUBLIC	??E?$_Vector_iterator@V?$_Vector_val@U?$_Simple_types@PAVCDXUTDialog@@@std@@@std@@@std@@QAEAAV01@XZ ; std::_Vector_iterator<std::_Vector_val<std::_Simple_types<CDXUTDialog *> > >::operator++
PUBLIC	??Y?$_Vector_iterator@V?$_Vector_val@U?$_Simple_types@PAVCDXUTDialog@@@std@@@std@@@std@@QAEAAV01@H@Z ; std::_Vector_iterator<std::_Vector_val<std::_Simple_types<CDXUTDialog *> > >::operator+=
PUBLIC	??H?$_Vector_iterator@V?$_Vector_val@U?$_Simple_types@PAVCDXUTDialog@@@std@@@std@@@std@@QBE?AV01@H@Z ; std::_Vector_iterator<std::_Vector_val<std::_Simple_types<CDXUTDialog *> > >::operator+
PUBLIC	??1?$_Vector_iterator@V?$_Vector_val@U?$_Simple_types@PAVCDXUTDialog@@@std@@@std@@@std@@QAE@XZ ; std::_Vector_iterator<std::_Vector_val<std::_Simple_types<CDXUTDialog *> > >::~_Vector_iterator<std::_Vector_val<std::_Simple_types<CDXUTDialog *> > >
PUBLIC	??0?$_Vector_iterator@V?$_Vector_val@U?$_Simple_types@PAVCDXUTDialog@@@std@@@std@@@std@@QAE@ABV01@@Z ; std::_Vector_iterator<std::_Vector_val<std::_Simple_types<CDXUTDialog *> > >::_Vector_iterator<std::_Vector_val<std::_Simple_types<CDXUTDialog *> > >
PUBLIC	??0?$_Iterator012@Urandom_access_iterator_tag@std@@PAUDXUTFontNode@@HPBQAU3@ABQAU3@U_Iterator_base12@2@@std@@QAE@XZ ; std::_Iterator012<std::random_access_iterator_tag,DXUTFontNode *,int,DXUTFontNode * const *,DXUTFontNode * const &,std::_Iterator_base12>::_Iterator012<std::random_access_iterator_tag,DXUTFontNode *,int,DXUTFontNode * const *,DXUTFontNode * const &,std::_Iterator_base12>
PUBLIC	??1?$_Iterator012@Urandom_access_iterator_tag@std@@PAUDXUTFontNode@@HPBQAU3@ABQAU3@U_Iterator_base12@2@@std@@QAE@XZ ; std::_Iterator012<std::random_access_iterator_tag,DXUTFontNode *,int,DXUTFontNode * const *,DXUTFontNode * const &,std::_Iterator_base12>::~_Iterator012<std::random_access_iterator_tag,DXUTFontNode *,int,DXUTFontNode * const *,DXUTFontNode * const &,std::_Iterator_base12>
PUBLIC	??0?$_Vector_const_iterator@V?$_Vector_val@U?$_Simple_types@PAUDXUTFontNode@@@std@@@std@@@std@@QAE@PAPAUDXUTFontNode@@PBU_Container_base12@1@@Z ; std::_Vector_const_iterator<std::_Vector_val<std::_Simple_types<DXUTFontNode *> > >::_Vector_const_iterator<std::_Vector_val<std::_Simple_types<DXUTFontNode *> > >
PUBLIC	??D?$_Vector_const_iterator@V?$_Vector_val@U?$_Simple_types@PAUDXUTFontNode@@@std@@@std@@@std@@QBEABQAUDXUTFontNode@@XZ ; std::_Vector_const_iterator<std::_Vector_val<std::_Simple_types<DXUTFontNode *> > >::operator*
PUBLIC	??E?$_Vector_const_iterator@V?$_Vector_val@U?$_Simple_types@PAUDXUTFontNode@@@std@@@std@@@std@@QAEAAV01@XZ ; std::_Vector_const_iterator<std::_Vector_val<std::_Simple_types<DXUTFontNode *> > >::operator++
PUBLIC	??8?$_Vector_const_iterator@V?$_Vector_val@U?$_Simple_types@PAUDXUTFontNode@@@std@@@std@@@std@@QBE_NABV01@@Z ; std::_Vector_const_iterator<std::_Vector_val<std::_Simple_types<DXUTFontNode *> > >::operator==
PUBLIC	??9?$_Vector_const_iterator@V?$_Vector_val@U?$_Simple_types@PAUDXUTFontNode@@@std@@@std@@@std@@QBE_NABV01@@Z ; std::_Vector_const_iterator<std::_Vector_val<std::_Simple_types<DXUTFontNode *> > >::operator!=
PUBLIC	?_Compat@?$_Vector_const_iterator@V?$_Vector_val@U?$_Simple_types@PAUDXUTFontNode@@@std@@@std@@@std@@QBEXABV12@@Z ; std::_Vector_const_iterator<std::_Vector_val<std::_Simple_types<DXUTFontNode *> > >::_Compat
PUBLIC	??1?$_Vector_const_iterator@V?$_Vector_val@U?$_Simple_types@PAUDXUTFontNode@@@std@@@std@@@std@@QAE@XZ ; std::_Vector_const_iterator<std::_Vector_val<std::_Simple_types<DXUTFontNode *> > >::~_Vector_const_iterator<std::_Vector_val<std::_Simple_types<DXUTFontNode *> > >
PUBLIC	??0?$_Vector_iterator@V?$_Vector_val@U?$_Simple_types@PAUDXUTFontNode@@@std@@@std@@@std@@QAE@PAPAUDXUTFontNode@@PBU_Container_base12@1@@Z ; std::_Vector_iterator<std::_Vector_val<std::_Simple_types<DXUTFontNode *> > >::_Vector_iterator<std::_Vector_val<std::_Simple_types<DXUTFontNode *> > >
PUBLIC	??D?$_Vector_iterator@V?$_Vector_val@U?$_Simple_types@PAUDXUTFontNode@@@std@@@std@@@std@@QBEAAPAUDXUTFontNode@@XZ ; std::_Vector_iterator<std::_Vector_val<std::_Simple_types<DXUTFontNode *> > >::operator*
PUBLIC	??E?$_Vector_iterator@V?$_Vector_val@U?$_Simple_types@PAUDXUTFontNode@@@std@@@std@@@std@@QAEAAV01@XZ ; std::_Vector_iterator<std::_Vector_val<std::_Simple_types<DXUTFontNode *> > >::operator++
PUBLIC	??1?$_Vector_iterator@V?$_Vector_val@U?$_Simple_types@PAUDXUTFontNode@@@std@@@std@@@std@@QAE@XZ ; std::_Vector_iterator<std::_Vector_val<std::_Simple_types<DXUTFontNode *> > >::~_Vector_iterator<std::_Vector_val<std::_Simple_types<DXUTFontNode *> > >
PUBLIC	??0?$_Iterator012@Urandom_access_iterator_tag@std@@PAUDXUTTextureNode@@HPBQAU3@ABQAU3@U_Iterator_base12@2@@std@@QAE@XZ ; std::_Iterator012<std::random_access_iterator_tag,DXUTTextureNode *,int,DXUTTextureNode * const *,DXUTTextureNode * const &,std::_Iterator_base12>::_Iterator012<std::random_access_iterator_tag,DXUTTextureNode *,int,DXUTTextureNode * const *,DXUTTextureNode * const &,std::_Iterator_base12>
PUBLIC	??1?$_Iterator012@Urandom_access_iterator_tag@std@@PAUDXUTTextureNode@@HPBQAU3@ABQAU3@U_Iterator_base12@2@@std@@QAE@XZ ; std::_Iterator012<std::random_access_iterator_tag,DXUTTextureNode *,int,DXUTTextureNode * const *,DXUTTextureNode * const &,std::_Iterator_base12>::~_Iterator012<std::random_access_iterator_tag,DXUTTextureNode *,int,DXUTTextureNode * const *,DXUTTextureNode * const &,std::_Iterator_base12>
PUBLIC	??0?$_Vector_const_iterator@V?$_Vector_val@U?$_Simple_types@PAUDXUTTextureNode@@@std@@@std@@@std@@QAE@PAPAUDXUTTextureNode@@PBU_Container_base12@1@@Z ; std::_Vector_const_iterator<std::_Vector_val<std::_Simple_types<DXUTTextureNode *> > >::_Vector_const_iterator<std::_Vector_val<std::_Simple_types<DXUTTextureNode *> > >
PUBLIC	??D?$_Vector_const_iterator@V?$_Vector_val@U?$_Simple_types@PAUDXUTTextureNode@@@std@@@std@@@std@@QBEABQAUDXUTTextureNode@@XZ ; std::_Vector_const_iterator<std::_Vector_val<std::_Simple_types<DXUTTextureNode *> > >::operator*
PUBLIC	??E?$_Vector_const_iterator@V?$_Vector_val@U?$_Simple_types@PAUDXUTTextureNode@@@std@@@std@@@std@@QAEAAV01@XZ ; std::_Vector_const_iterator<std::_Vector_val<std::_Simple_types<DXUTTextureNode *> > >::operator++
PUBLIC	??8?$_Vector_const_iterator@V?$_Vector_val@U?$_Simple_types@PAUDXUTTextureNode@@@std@@@std@@@std@@QBE_NABV01@@Z ; std::_Vector_const_iterator<std::_Vector_val<std::_Simple_types<DXUTTextureNode *> > >::operator==
PUBLIC	??9?$_Vector_const_iterator@V?$_Vector_val@U?$_Simple_types@PAUDXUTTextureNode@@@std@@@std@@@std@@QBE_NABV01@@Z ; std::_Vector_const_iterator<std::_Vector_val<std::_Simple_types<DXUTTextureNode *> > >::operator!=
PUBLIC	?_Compat@?$_Vector_const_iterator@V?$_Vector_val@U?$_Simple_types@PAUDXUTTextureNode@@@std@@@std@@@std@@QBEXABV12@@Z ; std::_Vector_const_iterator<std::_Vector_val<std::_Simple_types<DXUTTextureNode *> > >::_Compat
PUBLIC	??1?$_Vector_const_iterator@V?$_Vector_val@U?$_Simple_types@PAUDXUTTextureNode@@@std@@@std@@@std@@QAE@XZ ; std::_Vector_const_iterator<std::_Vector_val<std::_Simple_types<DXUTTextureNode *> > >::~_Vector_const_iterator<std::_Vector_val<std::_Simple_types<DXUTTextureNode *> > >
PUBLIC	??0?$_Vector_iterator@V?$_Vector_val@U?$_Simple_types@PAUDXUTTextureNode@@@std@@@std@@@std@@QAE@PAPAUDXUTTextureNode@@PBU_Container_base12@1@@Z ; std::_Vector_iterator<std::_Vector_val<std::_Simple_types<DXUTTextureNode *> > >::_Vector_iterator<std::_Vector_val<std::_Simple_types<DXUTTextureNode *> > >
PUBLIC	??D?$_Vector_iterator@V?$_Vector_val@U?$_Simple_types@PAUDXUTTextureNode@@@std@@@std@@@std@@QBEAAPAUDXUTTextureNode@@XZ ; std::_Vector_iterator<std::_Vector_val<std::_Simple_types<DXUTTextureNode *> > >::operator*
PUBLIC	??E?$_Vector_iterator@V?$_Vector_val@U?$_Simple_types@PAUDXUTTextureNode@@@std@@@std@@@std@@QAEAAV01@XZ ; std::_Vector_iterator<std::_Vector_val<std::_Simple_types<DXUTTextureNode *> > >::operator++
PUBLIC	??1?$_Vector_iterator@V?$_Vector_val@U?$_Simple_types@PAUDXUTTextureNode@@@std@@@std@@@std@@QAE@XZ ; std::_Vector_iterator<std::_Vector_val<std::_Simple_types<DXUTTextureNode *> > >::~_Vector_iterator<std::_Vector_val<std::_Simple_types<DXUTTextureNode *> > >
PUBLIC	??0?$_Iterator012@Urandom_access_iterator_tag@std@@PAVCDXUTElement@@HPBQAV3@ABQAV3@U_Iterator_base12@2@@std@@QAE@XZ ; std::_Iterator012<std::random_access_iterator_tag,CDXUTElement *,int,CDXUTElement * const *,CDXUTElement * const &,std::_Iterator_base12>::_Iterator012<std::random_access_iterator_tag,CDXUTElement *,int,CDXUTElement * const *,CDXUTElement * const &,std::_Iterator_base12>
PUBLIC	??1?$_Iterator012@Urandom_access_iterator_tag@std@@PAVCDXUTElement@@HPBQAV3@ABQAV3@U_Iterator_base12@2@@std@@QAE@XZ ; std::_Iterator012<std::random_access_iterator_tag,CDXUTElement *,int,CDXUTElement * const *,CDXUTElement * const &,std::_Iterator_base12>::~_Iterator012<std::random_access_iterator_tag,CDXUTElement *,int,CDXUTElement * const *,CDXUTElement * const &,std::_Iterator_base12>
PUBLIC	??0?$_Vector_const_iterator@V?$_Vector_val@U?$_Simple_types@PAVCDXUTElement@@@std@@@std@@@std@@QAE@PAPAVCDXUTElement@@PBU_Container_base12@1@@Z ; std::_Vector_const_iterator<std::_Vector_val<std::_Simple_types<CDXUTElement *> > >::_Vector_const_iterator<std::_Vector_val<std::_Simple_types<CDXUTElement *> > >
PUBLIC	??D?$_Vector_const_iterator@V?$_Vector_val@U?$_Simple_types@PAVCDXUTElement@@@std@@@std@@@std@@QBEABQAVCDXUTElement@@XZ ; std::_Vector_const_iterator<std::_Vector_val<std::_Simple_types<CDXUTElement *> > >::operator*
PUBLIC	??E?$_Vector_const_iterator@V?$_Vector_val@U?$_Simple_types@PAVCDXUTElement@@@std@@@std@@@std@@QAEAAV01@XZ ; std::_Vector_const_iterator<std::_Vector_val<std::_Simple_types<CDXUTElement *> > >::operator++
PUBLIC	??8?$_Vector_const_iterator@V?$_Vector_val@U?$_Simple_types@PAVCDXUTElement@@@std@@@std@@@std@@QBE_NABV01@@Z ; std::_Vector_const_iterator<std::_Vector_val<std::_Simple_types<CDXUTElement *> > >::operator==
PUBLIC	??9?$_Vector_const_iterator@V?$_Vector_val@U?$_Simple_types@PAVCDXUTElement@@@std@@@std@@@std@@QBE_NABV01@@Z ; std::_Vector_const_iterator<std::_Vector_val<std::_Simple_types<CDXUTElement *> > >::operator!=
PUBLIC	?_Compat@?$_Vector_const_iterator@V?$_Vector_val@U?$_Simple_types@PAVCDXUTElement@@@std@@@std@@@std@@QBEXABV12@@Z ; std::_Vector_const_iterator<std::_Vector_val<std::_Simple_types<CDXUTElement *> > >::_Compat
PUBLIC	??1?$_Vector_const_iterator@V?$_Vector_val@U?$_Simple_types@PAVCDXUTElement@@@std@@@std@@@std@@QAE@XZ ; std::_Vector_const_iterator<std::_Vector_val<std::_Simple_types<CDXUTElement *> > >::~_Vector_const_iterator<std::_Vector_val<std::_Simple_types<CDXUTElement *> > >
PUBLIC	??0?$_Vector_iterator@V?$_Vector_val@U?$_Simple_types@PAVCDXUTElement@@@std@@@std@@@std@@QAE@PAPAVCDXUTElement@@PBU_Container_base12@1@@Z ; std::_Vector_iterator<std::_Vector_val<std::_Simple_types<CDXUTElement *> > >::_Vector_iterator<std::_Vector_val<std::_Simple_types<CDXUTElement *> > >
PUBLIC	??D?$_Vector_iterator@V?$_Vector_val@U?$_Simple_types@PAVCDXUTElement@@@std@@@std@@@std@@QBEAAPAVCDXUTElement@@XZ ; std::_Vector_iterator<std::_Vector_val<std::_Simple_types<CDXUTElement *> > >::operator*
PUBLIC	??E?$_Vector_iterator@V?$_Vector_val@U?$_Simple_types@PAVCDXUTElement@@@std@@@std@@@std@@QAEAAV01@XZ ; std::_Vector_iterator<std::_Vector_val<std::_Simple_types<CDXUTElement *> > >::operator++
PUBLIC	??1?$_Vector_iterator@V?$_Vector_val@U?$_Simple_types@PAVCDXUTElement@@@std@@@std@@@std@@QAE@XZ ; std::_Vector_iterator<std::_Vector_val<std::_Simple_types<CDXUTElement *> > >::~_Vector_iterator<std::_Vector_val<std::_Simple_types<CDXUTElement *> > >
PUBLIC	??0?$_Iterator012@Urandom_access_iterator_tag@std@@PAUDXUTComboBoxItem@@HPBQAU3@ABQAU3@U_Iterator_base12@2@@std@@QAE@XZ ; std::_Iterator012<std::random_access_iterator_tag,DXUTComboBoxItem *,int,DXUTComboBoxItem * const *,DXUTComboBoxItem * const &,std::_Iterator_base12>::_Iterator012<std::random_access_iterator_tag,DXUTComboBoxItem *,int,DXUTComboBoxItem * const *,DXUTComboBoxItem * const &,std::_Iterator_base12>
PUBLIC	??1?$_Iterator012@Urandom_access_iterator_tag@std@@PAUDXUTComboBoxItem@@HPBQAU3@ABQAU3@U_Iterator_base12@2@@std@@QAE@XZ ; std::_Iterator012<std::random_access_iterator_tag,DXUTComboBoxItem *,int,DXUTComboBoxItem * const *,DXUTComboBoxItem * const &,std::_Iterator_base12>::~_Iterator012<std::random_access_iterator_tag,DXUTComboBoxItem *,int,DXUTComboBoxItem * const *,DXUTComboBoxItem * const &,std::_Iterator_base12>
PUBLIC	??0?$_Iterator012@Urandom_access_iterator_tag@std@@PAUDXUTComboBoxItem@@HPBQAU3@ABQAU3@U_Iterator_base12@2@@std@@QAE@ABU01@@Z ; std::_Iterator012<std::random_access_iterator_tag,DXUTComboBoxItem *,int,DXUTComboBoxItem * const *,DXUTComboBoxItem * const &,std::_Iterator_base12>::_Iterator012<std::random_access_iterator_tag,DXUTComboBoxItem *,int,DXUTComboBoxItem * const *,DXUTComboBoxItem * const &,std::_Iterator_base12>
PUBLIC	??0?$_Vector_const_iterator@V?$_Vector_val@U?$_Simple_types@PAUDXUTComboBoxItem@@@std@@@std@@@std@@QAE@PAPAUDXUTComboBoxItem@@PBU_Container_base12@1@@Z ; std::_Vector_const_iterator<std::_Vector_val<std::_Simple_types<DXUTComboBoxItem *> > >::_Vector_const_iterator<std::_Vector_val<std::_Simple_types<DXUTComboBoxItem *> > >
PUBLIC	??D?$_Vector_const_iterator@V?$_Vector_val@U?$_Simple_types@PAUDXUTComboBoxItem@@@std@@@std@@@std@@QBEABQAUDXUTComboBoxItem@@XZ ; std::_Vector_const_iterator<std::_Vector_val<std::_Simple_types<DXUTComboBoxItem *> > >::operator*
PUBLIC	??E?$_Vector_const_iterator@V?$_Vector_val@U?$_Simple_types@PAUDXUTComboBoxItem@@@std@@@std@@@std@@QAEAAV01@XZ ; std::_Vector_const_iterator<std::_Vector_val<std::_Simple_types<DXUTComboBoxItem *> > >::operator++
PUBLIC	??Y?$_Vector_const_iterator@V?$_Vector_val@U?$_Simple_types@PAUDXUTComboBoxItem@@@std@@@std@@@std@@QAEAAV01@H@Z ; std::_Vector_const_iterator<std::_Vector_val<std::_Simple_types<DXUTComboBoxItem *> > >::operator+=
PUBLIC	??8?$_Vector_const_iterator@V?$_Vector_val@U?$_Simple_types@PAUDXUTComboBoxItem@@@std@@@std@@@std@@QBE_NABV01@@Z ; std::_Vector_const_iterator<std::_Vector_val<std::_Simple_types<DXUTComboBoxItem *> > >::operator==
PUBLIC	??9?$_Vector_const_iterator@V?$_Vector_val@U?$_Simple_types@PAUDXUTComboBoxItem@@@std@@@std@@@std@@QBE_NABV01@@Z ; std::_Vector_const_iterator<std::_Vector_val<std::_Simple_types<DXUTComboBoxItem *> > >::operator!=
PUBLIC	?_Compat@?$_Vector_const_iterator@V?$_Vector_val@U?$_Simple_types@PAUDXUTComboBoxItem@@@std@@@std@@@std@@QBEXABV12@@Z ; std::_Vector_const_iterator<std::_Vector_val<std::_Simple_types<DXUTComboBoxItem *> > >::_Compat
PUBLIC	??1?$_Vector_const_iterator@V?$_Vector_val@U?$_Simple_types@PAUDXUTComboBoxItem@@@std@@@std@@@std@@QAE@XZ ; std::_Vector_const_iterator<std::_Vector_val<std::_Simple_types<DXUTComboBoxItem *> > >::~_Vector_const_iterator<std::_Vector_val<std::_Simple_types<DXUTComboBoxItem *> > >
PUBLIC	??0?$_Vector_const_iterator@V?$_Vector_val@U?$_Simple_types@PAUDXUTComboBoxItem@@@std@@@std@@@std@@QAE@ABV01@@Z ; std::_Vector_const_iterator<std::_Vector_val<std::_Simple_types<DXUTComboBoxItem *> > >::_Vector_const_iterator<std::_Vector_val<std::_Simple_types<DXUTComboBoxItem *> > >
PUBLIC	??0?$_Vector_iterator@V?$_Vector_val@U?$_Simple_types@PAUDXUTComboBoxItem@@@std@@@std@@@std@@QAE@PAPAUDXUTComboBoxItem@@PBU_Container_base12@1@@Z ; std::_Vector_iterator<std::_Vector_val<std::_Simple_types<DXUTComboBoxItem *> > >::_Vector_iterator<std::_Vector_val<std::_Simple_types<DXUTComboBoxItem *> > >
PUBLIC	??D?$_Vector_iterator@V?$_Vector_val@U?$_Simple_types@PAUDXUTComboBoxItem@@@std@@@std@@@std@@QBEAAPAUDXUTComboBoxItem@@XZ ; std::_Vector_iterator<std::_Vector_val<std::_Simple_types<DXUTComboBoxItem *> > >::operator*
PUBLIC	??E?$_Vector_iterator@V?$_Vector_val@U?$_Simple_types@PAUDXUTComboBoxItem@@@std@@@std@@@std@@QAEAAV01@XZ ; std::_Vector_iterator<std::_Vector_val<std::_Simple_types<DXUTComboBoxItem *> > >::operator++
PUBLIC	??Y?$_Vector_iterator@V?$_Vector_val@U?$_Simple_types@PAUDXUTComboBoxItem@@@std@@@std@@@std@@QAEAAV01@H@Z ; std::_Vector_iterator<std::_Vector_val<std::_Simple_types<DXUTComboBoxItem *> > >::operator+=
PUBLIC	??H?$_Vector_iterator@V?$_Vector_val@U?$_Simple_types@PAUDXUTComboBoxItem@@@std@@@std@@@std@@QBE?AV01@H@Z ; std::_Vector_iterator<std::_Vector_val<std::_Simple_types<DXUTComboBoxItem *> > >::operator+
PUBLIC	??1?$_Vector_iterator@V?$_Vector_val@U?$_Simple_types@PAUDXUTComboBoxItem@@@std@@@std@@@std@@QAE@XZ ; std::_Vector_iterator<std::_Vector_val<std::_Simple_types<DXUTComboBoxItem *> > >::~_Vector_iterator<std::_Vector_val<std::_Simple_types<DXUTComboBoxItem *> > >
PUBLIC	??0?$_Vector_iterator@V?$_Vector_val@U?$_Simple_types@PAUDXUTComboBoxItem@@@std@@@std@@@std@@QAE@ABV01@@Z ; std::_Vector_iterator<std::_Vector_val<std::_Simple_types<DXUTComboBoxItem *> > >::_Vector_iterator<std::_Vector_val<std::_Simple_types<DXUTComboBoxItem *> > >
PUBLIC	??$max@H@std@@YAABHABH0@Z			; std::max<int>
PUBLIC	??$min@H@std@@YAABHABH0@Z			; std::min<int>
PUBLIC	??0?$_Iterator012@Urandom_access_iterator_tag@std@@PAUDXUTListBoxItem@@HPBQAU3@ABQAU3@U_Iterator_base12@2@@std@@QAE@XZ ; std::_Iterator012<std::random_access_iterator_tag,DXUTListBoxItem *,int,DXUTListBoxItem * const *,DXUTListBoxItem * const &,std::_Iterator_base12>::_Iterator012<std::random_access_iterator_tag,DXUTListBoxItem *,int,DXUTListBoxItem * const *,DXUTListBoxItem * const &,std::_Iterator_base12>
PUBLIC	??1?$_Iterator012@Urandom_access_iterator_tag@std@@PAUDXUTListBoxItem@@HPBQAU3@ABQAU3@U_Iterator_base12@2@@std@@QAE@XZ ; std::_Iterator012<std::random_access_iterator_tag,DXUTListBoxItem *,int,DXUTListBoxItem * const *,DXUTListBoxItem * const &,std::_Iterator_base12>::~_Iterator012<std::random_access_iterator_tag,DXUTListBoxItem *,int,DXUTListBoxItem * const *,DXUTListBoxItem * const &,std::_Iterator_base12>
PUBLIC	??0?$_Iterator012@Urandom_access_iterator_tag@std@@PAUDXUTListBoxItem@@HPBQAU3@ABQAU3@U_Iterator_base12@2@@std@@QAE@ABU01@@Z ; std::_Iterator012<std::random_access_iterator_tag,DXUTListBoxItem *,int,DXUTListBoxItem * const *,DXUTListBoxItem * const &,std::_Iterator_base12>::_Iterator012<std::random_access_iterator_tag,DXUTListBoxItem *,int,DXUTListBoxItem * const *,DXUTListBoxItem * const &,std::_Iterator_base12>
PUBLIC	??0?$_Vector_const_iterator@V?$_Vector_val@U?$_Simple_types@PAUDXUTListBoxItem@@@std@@@std@@@std@@QAE@PAPAUDXUTListBoxItem@@PBU_Container_base12@1@@Z ; std::_Vector_const_iterator<std::_Vector_val<std::_Simple_types<DXUTListBoxItem *> > >::_Vector_const_iterator<std::_Vector_val<std::_Simple_types<DXUTListBoxItem *> > >
PUBLIC	??D?$_Vector_const_iterator@V?$_Vector_val@U?$_Simple_types@PAUDXUTListBoxItem@@@std@@@std@@@std@@QBEABQAUDXUTListBoxItem@@XZ ; std::_Vector_const_iterator<std::_Vector_val<std::_Simple_types<DXUTListBoxItem *> > >::operator*
PUBLIC	??E?$_Vector_const_iterator@V?$_Vector_val@U?$_Simple_types@PAUDXUTListBoxItem@@@std@@@std@@@std@@QAEAAV01@XZ ; std::_Vector_const_iterator<std::_Vector_val<std::_Simple_types<DXUTListBoxItem *> > >::operator++
PUBLIC	??Y?$_Vector_const_iterator@V?$_Vector_val@U?$_Simple_types@PAUDXUTListBoxItem@@@std@@@std@@@std@@QAEAAV01@H@Z ; std::_Vector_const_iterator<std::_Vector_val<std::_Simple_types<DXUTListBoxItem *> > >::operator+=
PUBLIC	??8?$_Vector_const_iterator@V?$_Vector_val@U?$_Simple_types@PAUDXUTListBoxItem@@@std@@@std@@@std@@QBE_NABV01@@Z ; std::_Vector_const_iterator<std::_Vector_val<std::_Simple_types<DXUTListBoxItem *> > >::operator==
PUBLIC	??9?$_Vector_const_iterator@V?$_Vector_val@U?$_Simple_types@PAUDXUTListBoxItem@@@std@@@std@@@std@@QBE_NABV01@@Z ; std::_Vector_const_iterator<std::_Vector_val<std::_Simple_types<DXUTListBoxItem *> > >::operator!=
PUBLIC	?_Compat@?$_Vector_const_iterator@V?$_Vector_val@U?$_Simple_types@PAUDXUTListBoxItem@@@std@@@std@@@std@@QBEXABV12@@Z ; std::_Vector_const_iterator<std::_Vector_val<std::_Simple_types<DXUTListBoxItem *> > >::_Compat
PUBLIC	??1?$_Vector_const_iterator@V?$_Vector_val@U?$_Simple_types@PAUDXUTListBoxItem@@@std@@@std@@@std@@QAE@XZ ; std::_Vector_const_iterator<std::_Vector_val<std::_Simple_types<DXUTListBoxItem *> > >::~_Vector_const_iterator<std::_Vector_val<std::_Simple_types<DXUTListBoxItem *> > >
PUBLIC	??0?$_Vector_const_iterator@V?$_Vector_val@U?$_Simple_types@PAUDXUTListBoxItem@@@std@@@std@@@std@@QAE@ABV01@@Z ; std::_Vector_const_iterator<std::_Vector_val<std::_Simple_types<DXUTListBoxItem *> > >::_Vector_const_iterator<std::_Vector_val<std::_Simple_types<DXUTListBoxItem *> > >
PUBLIC	??0?$_Vector_iterator@V?$_Vector_val@U?$_Simple_types@PAUDXUTListBoxItem@@@std@@@std@@@std@@QAE@PAPAUDXUTListBoxItem@@PBU_Container_base12@1@@Z ; std::_Vector_iterator<std::_Vector_val<std::_Simple_types<DXUTListBoxItem *> > >::_Vector_iterator<std::_Vector_val<std::_Simple_types<DXUTListBoxItem *> > >
PUBLIC	??D?$_Vector_iterator@V?$_Vector_val@U?$_Simple_types@PAUDXUTListBoxItem@@@std@@@std@@@std@@QBEAAPAUDXUTListBoxItem@@XZ ; std::_Vector_iterator<std::_Vector_val<std::_Simple_types<DXUTListBoxItem *> > >::operator*
PUBLIC	??E?$_Vector_iterator@V?$_Vector_val@U?$_Simple_types@PAUDXUTListBoxItem@@@std@@@std@@@std@@QAEAAV01@XZ ; std::_Vector_iterator<std::_Vector_val<std::_Simple_types<DXUTListBoxItem *> > >::operator++
PUBLIC	??Y?$_Vector_iterator@V?$_Vector_val@U?$_Simple_types@PAUDXUTListBoxItem@@@std@@@std@@@std@@QAEAAV01@H@Z ; std::_Vector_iterator<std::_Vector_val<std::_Simple_types<DXUTListBoxItem *> > >::operator+=
PUBLIC	??H?$_Vector_iterator@V?$_Vector_val@U?$_Simple_types@PAUDXUTListBoxItem@@@std@@@std@@@std@@QBE?AV01@H@Z ; std::_Vector_iterator<std::_Vector_val<std::_Simple_types<DXUTListBoxItem *> > >::operator+
PUBLIC	??1?$_Vector_iterator@V?$_Vector_val@U?$_Simple_types@PAUDXUTListBoxItem@@@std@@@std@@@std@@QAE@XZ ; std::_Vector_iterator<std::_Vector_val<std::_Simple_types<DXUTListBoxItem *> > >::~_Vector_iterator<std::_Vector_val<std::_Simple_types<DXUTListBoxItem *> > >
PUBLIC	??0?$_Vector_iterator@V?$_Vector_val@U?$_Simple_types@PAUDXUTListBoxItem@@@std@@@std@@@std@@QAE@ABV01@@Z ; std::_Vector_iterator<std::_Vector_val<std::_Simple_types<DXUTListBoxItem *> > >::_Vector_iterator<std::_Vector_val<std::_Simple_types<DXUTListBoxItem *> > >
PUBLIC	??$addressof@H@std@@YAPAHAAH@Z			; std::addressof<int>
PUBLIC	??$forward@H@std@@YA$$QAHAAH@Z			; std::forward<int>
PUBLIC	??$construct@HH@?$_Wrap_alloc@V?$allocator@H@std@@@std@@QAEXPAH$$QAH@Z ; std::_Wrap_alloc<std::allocator<int> >::construct<int,int>
PUBLIC	??$addressof@QAVCDXUTControl@@@std@@YAPBQAVCDXUTControl@@ABQAV1@@Z ; std::addressof<CDXUTControl * const>
PUBLIC	??$construct@PAVCDXUTControl@@AAPAV1@@?$_Wrap_alloc@V?$allocator@PAVCDXUTControl@@@std@@@std@@QAEXPAPAVCDXUTControl@@AAPAV2@@Z ; std::_Wrap_alloc<std::allocator<CDXUTControl *> >::construct<CDXUTControl *,CDXUTControl * &>
PUBLIC	??$construct@PAVCDXUTControl@@ABQAV1@@?$_Wrap_alloc@V?$allocator@PAVCDXUTControl@@@std@@@std@@QAEXPAPAVCDXUTControl@@ABQAV2@@Z ; std::_Wrap_alloc<std::allocator<CDXUTControl *> >::construct<CDXUTControl *,CDXUTControl * const &>
PUBLIC	??$_Move@PAPAVCDXUTControl@@PAPAV1@@std@@YAPAPAVCDXUTControl@@PAPAV1@00@Z ; std::_Move<CDXUTControl * *,CDXUTControl * *>
PUBLIC	??$addressof@QAUDXUTElementHolder@@@std@@YAPBQAUDXUTElementHolder@@ABQAU1@@Z ; std::addressof<DXUTElementHolder * const>
PUBLIC	??$construct@PAUDXUTElementHolder@@AAPAU1@@?$_Wrap_alloc@V?$allocator@PAUDXUTElementHolder@@@std@@@std@@QAEXPAPAUDXUTElementHolder@@AAPAU2@@Z ; std::_Wrap_alloc<std::allocator<DXUTElementHolder *> >::construct<DXUTElementHolder *,DXUTElementHolder * &>
PUBLIC	??$construct@PAUDXUTElementHolder@@ABQAU1@@?$_Wrap_alloc@V?$allocator@PAUDXUTElementHolder@@@std@@@std@@QAEXPAPAUDXUTElementHolder@@ABQAU2@@Z ; std::_Wrap_alloc<std::allocator<DXUTElementHolder *> >::construct<DXUTElementHolder *,DXUTElementHolder * const &>
PUBLIC	??$addressof@$$CBUDXUTSpriteVertex@@@std@@YAPBUDXUTSpriteVertex@@ABU1@@Z ; std::addressof<DXUTSpriteVertex const >
PUBLIC	??$construct@UDXUTSpriteVertex@@AAU1@@?$_Wrap_alloc@V?$allocator@UDXUTSpriteVertex@@@std@@@std@@QAEXPAUDXUTSpriteVertex@@AAU2@@Z ; std::_Wrap_alloc<std::allocator<DXUTSpriteVertex> >::construct<DXUTSpriteVertex,DXUTSpriteVertex &>
PUBLIC	??$construct@UDXUTSpriteVertex@@ABU1@@?$_Wrap_alloc@V?$allocator@UDXUTSpriteVertex@@@std@@@std@@QAEXPAUDXUTSpriteVertex@@ABU2@@Z ; std::_Wrap_alloc<std::allocator<DXUTSpriteVertex> >::construct<DXUTSpriteVertex,DXUTSpriteVertex const &>
PUBLIC	??$addressof@QAVCDXUTDialog@@@std@@YAPBQAVCDXUTDialog@@ABQAV1@@Z ; std::addressof<CDXUTDialog * const>
PUBLIC	??$construct@PAVCDXUTDialog@@AAPAV1@@?$_Wrap_alloc@V?$allocator@PAVCDXUTDialog@@@std@@@std@@QAEXPAPAVCDXUTDialog@@AAPAV2@@Z ; std::_Wrap_alloc<std::allocator<CDXUTDialog *> >::construct<CDXUTDialog *,CDXUTDialog * &>
PUBLIC	??$construct@PAVCDXUTDialog@@ABQAV1@@?$_Wrap_alloc@V?$allocator@PAVCDXUTDialog@@@std@@@std@@QAEXPAPAVCDXUTDialog@@ABQAV2@@Z ; std::_Wrap_alloc<std::allocator<CDXUTDialog *> >::construct<CDXUTDialog *,CDXUTDialog * const &>
PUBLIC	??$_Move@PAPAVCDXUTDialog@@PAPAV1@@std@@YAPAPAVCDXUTDialog@@PAPAV1@00@Z ; std::_Move<CDXUTDialog * *,CDXUTDialog * *>
PUBLIC	??$addressof@QAUDXUTTextureNode@@@std@@YAPBQAUDXUTTextureNode@@ABQAU1@@Z ; std::addressof<DXUTTextureNode * const>
PUBLIC	??$construct@PAUDXUTTextureNode@@AAPAU1@@?$_Wrap_alloc@V?$allocator@PAUDXUTTextureNode@@@std@@@std@@QAEXPAPAUDXUTTextureNode@@AAPAU2@@Z ; std::_Wrap_alloc<std::allocator<DXUTTextureNode *> >::construct<DXUTTextureNode *,DXUTTextureNode * &>
PUBLIC	??$construct@PAUDXUTTextureNode@@ABQAU1@@?$_Wrap_alloc@V?$allocator@PAUDXUTTextureNode@@@std@@@std@@QAEXPAPAUDXUTTextureNode@@ABQAU2@@Z ; std::_Wrap_alloc<std::allocator<DXUTTextureNode *> >::construct<DXUTTextureNode *,DXUTTextureNode * const &>
PUBLIC	??$addressof@QAUDXUTFontNode@@@std@@YAPBQAUDXUTFontNode@@ABQAU1@@Z ; std::addressof<DXUTFontNode * const>
PUBLIC	??$construct@PAUDXUTFontNode@@AAPAU1@@?$_Wrap_alloc@V?$allocator@PAUDXUTFontNode@@@std@@@std@@QAEXPAPAUDXUTFontNode@@AAPAU2@@Z ; std::_Wrap_alloc<std::allocator<DXUTFontNode *> >::construct<DXUTFontNode *,DXUTFontNode * &>
PUBLIC	??$construct@PAUDXUTFontNode@@ABQAU1@@?$_Wrap_alloc@V?$allocator@PAUDXUTFontNode@@@std@@@std@@QAEXPAPAUDXUTFontNode@@ABQAU2@@Z ; std::_Wrap_alloc<std::allocator<DXUTFontNode *> >::construct<DXUTFontNode *,DXUTFontNode * const &>
PUBLIC	??$addressof@QAVCDXUTElement@@@std@@YAPBQAVCDXUTElement@@ABQAV1@@Z ; std::addressof<CDXUTElement * const>
PUBLIC	??$construct@PAVCDXUTElement@@AAPAV1@@?$_Wrap_alloc@V?$allocator@PAVCDXUTElement@@@std@@@std@@QAEXPAPAVCDXUTElement@@AAPAV2@@Z ; std::_Wrap_alloc<std::allocator<CDXUTElement *> >::construct<CDXUTElement *,CDXUTElement * &>
PUBLIC	??$construct@PAVCDXUTElement@@ABQAV1@@?$_Wrap_alloc@V?$allocator@PAVCDXUTElement@@@std@@@std@@QAEXPAPAVCDXUTElement@@ABQAV2@@Z ; std::_Wrap_alloc<std::allocator<CDXUTElement *> >::construct<CDXUTElement *,CDXUTElement * const &>
PUBLIC	??$addressof@QAUDXUTListBoxItem@@@std@@YAPBQAUDXUTListBoxItem@@ABQAU1@@Z ; std::addressof<DXUTListBoxItem * const>
PUBLIC	??$construct@PAUDXUTListBoxItem@@AAPAU1@@?$_Wrap_alloc@V?$allocator@PAUDXUTListBoxItem@@@std@@@std@@QAEXPAPAUDXUTListBoxItem@@AAPAU2@@Z ; std::_Wrap_alloc<std::allocator<DXUTListBoxItem *> >::construct<DXUTListBoxItem *,DXUTListBoxItem * &>
PUBLIC	??$construct@PAUDXUTListBoxItem@@ABQAU1@@?$_Wrap_alloc@V?$allocator@PAUDXUTListBoxItem@@@std@@@std@@QAEXPAPAUDXUTListBoxItem@@ABQAU2@@Z ; std::_Wrap_alloc<std::allocator<DXUTListBoxItem *> >::construct<DXUTListBoxItem *,DXUTListBoxItem * const &>
PUBLIC	??$_Move@PAPAUDXUTListBoxItem@@PAPAU1@@std@@YAPAPAUDXUTListBoxItem@@PAPAU1@00@Z ; std::_Move<DXUTListBoxItem * *,DXUTListBoxItem * *>
PUBLIC	??$addressof@QAUDXUTComboBoxItem@@@std@@YAPBQAUDXUTComboBoxItem@@ABQAU1@@Z ; std::addressof<DXUTComboBoxItem * const>
PUBLIC	??$construct@PAUDXUTComboBoxItem@@AAPAU1@@?$_Wrap_alloc@V?$allocator@PAUDXUTComboBoxItem@@@std@@@std@@QAEXPAPAUDXUTComboBoxItem@@AAPAU2@@Z ; std::_Wrap_alloc<std::allocator<DXUTComboBoxItem *> >::construct<DXUTComboBoxItem *,DXUTComboBoxItem * &>
PUBLIC	??$construct@PAUDXUTComboBoxItem@@ABQAU1@@?$_Wrap_alloc@V?$allocator@PAUDXUTComboBoxItem@@@std@@@std@@QAEXPAPAUDXUTComboBoxItem@@ABQAU2@@Z ; std::_Wrap_alloc<std::allocator<DXUTComboBoxItem *> >::construct<DXUTComboBoxItem *,DXUTComboBoxItem * const &>
PUBLIC	??$_Move@PAPAUDXUTComboBoxItem@@PAPAU1@@std@@YAPAPAUDXUTComboBoxItem@@PAPAU1@00@Z ; std::_Move<DXUTComboBoxItem * *,DXUTComboBoxItem * *>
PUBLIC	??$_Destroy_range@U?$_Wrap_alloc@V?$allocator@H@std@@@std@@@std@@YAXPAH0AAU?$_Wrap_alloc@V?$allocator@H@std@@@0@@Z ; std::_Destroy_range<std::_Wrap_alloc<std::allocator<int> > >
PUBLIC	??$_Destroy_range@U?$_Wrap_alloc@V?$allocator@PAVCDXUTControl@@@std@@@std@@@std@@YAXPAPAVCDXUTControl@@0AAU?$_Wrap_alloc@V?$allocator@PAVCDXUTControl@@@std@@@0@@Z ; std::_Destroy_range<std::_Wrap_alloc<std::allocator<CDXUTControl *> > >
PUBLIC	??$_Destroy_range@U?$_Wrap_alloc@V?$allocator@PAUDXUTElementHolder@@@std@@@std@@@std@@YAXPAPAUDXUTElementHolder@@0AAU?$_Wrap_alloc@V?$allocator@PAUDXUTElementHolder@@@std@@@0@@Z ; std::_Destroy_range<std::_Wrap_alloc<std::allocator<DXUTElementHolder *> > >
PUBLIC	??$_Destroy_range@U?$_Wrap_alloc@V?$allocator@UDXUTSpriteVertex@@@std@@@std@@@std@@YAXPAUDXUTSpriteVertex@@0AAU?$_Wrap_alloc@V?$allocator@UDXUTSpriteVertex@@@std@@@0@@Z ; std::_Destroy_range<std::_Wrap_alloc<std::allocator<DXUTSpriteVertex> > >
PUBLIC	??$_Destroy_range@U?$_Wrap_alloc@V?$allocator@PAVCDXUTDialog@@@std@@@std@@@std@@YAXPAPAVCDXUTDialog@@0AAU?$_Wrap_alloc@V?$allocator@PAVCDXUTDialog@@@std@@@0@@Z ; std::_Destroy_range<std::_Wrap_alloc<std::allocator<CDXUTDialog *> > >
PUBLIC	??$_Destroy_range@U?$_Wrap_alloc@V?$allocator@PAUDXUTTextureNode@@@std@@@std@@@std@@YAXPAPAUDXUTTextureNode@@0AAU?$_Wrap_alloc@V?$allocator@PAUDXUTTextureNode@@@std@@@0@@Z ; std::_Destroy_range<std::_Wrap_alloc<std::allocator<DXUTTextureNode *> > >
PUBLIC	??$_Destroy_range@U?$_Wrap_alloc@V?$allocator@PAUDXUTFontNode@@@std@@@std@@@std@@YAXPAPAUDXUTFontNode@@0AAU?$_Wrap_alloc@V?$allocator@PAUDXUTFontNode@@@std@@@0@@Z ; std::_Destroy_range<std::_Wrap_alloc<std::allocator<DXUTFontNode *> > >
PUBLIC	??$_Destroy_range@U?$_Wrap_alloc@V?$allocator@PAVCDXUTElement@@@std@@@std@@@std@@YAXPAPAVCDXUTElement@@0AAU?$_Wrap_alloc@V?$allocator@PAVCDXUTElement@@@std@@@0@@Z ; std::_Destroy_range<std::_Wrap_alloc<std::allocator<CDXUTElement *> > >
PUBLIC	??$_Destroy_range@U?$_Wrap_alloc@V?$allocator@PAUDXUTListBoxItem@@@std@@@std@@@std@@YAXPAPAUDXUTListBoxItem@@0AAU?$_Wrap_alloc@V?$allocator@PAUDXUTListBoxItem@@@std@@@0@@Z ; std::_Destroy_range<std::_Wrap_alloc<std::allocator<DXUTListBoxItem *> > >
PUBLIC	??$_Destroy_range@U?$_Wrap_alloc@V?$allocator@PAUDXUTComboBoxItem@@@std@@@std@@@std@@YAXPAPAUDXUTComboBoxItem@@0AAU?$_Wrap_alloc@V?$allocator@PAUDXUTComboBoxItem@@@std@@@0@@Z ; std::_Destroy_range<std::_Wrap_alloc<std::allocator<DXUTComboBoxItem *> > >
PUBLIC	??$_Umove@PAH@?$vector@HV?$allocator@H@std@@@std@@IAEPAHPAH00@Z ; std::vector<int,std::allocator<int> >::_Umove<int *>
PUBLIC	??$_Umove@PAPAVCDXUTControl@@@?$vector@PAVCDXUTControl@@V?$allocator@PAVCDXUTControl@@@std@@@std@@IAEPAPAVCDXUTControl@@PAPAV2@00@Z ; std::vector<CDXUTControl *,std::allocator<CDXUTControl *> >::_Umove<CDXUTControl * *>
PUBLIC	??$_Umove@PAPAUDXUTElementHolder@@@?$vector@PAUDXUTElementHolder@@V?$allocator@PAUDXUTElementHolder@@@std@@@std@@IAEPAPAUDXUTElementHolder@@PAPAU2@00@Z ; std::vector<DXUTElementHolder *,std::allocator<DXUTElementHolder *> >::_Umove<DXUTElementHolder * *>
PUBLIC	??$_Umove@PAUDXUTSpriteVertex@@@?$vector@UDXUTSpriteVertex@@V?$allocator@UDXUTSpriteVertex@@@std@@@std@@IAEPAUDXUTSpriteVertex@@PAU2@00@Z ; std::vector<DXUTSpriteVertex,std::allocator<DXUTSpriteVertex> >::_Umove<DXUTSpriteVertex *>
PUBLIC	??$_Umove@PAPAVCDXUTDialog@@@?$vector@PAVCDXUTDialog@@V?$allocator@PAVCDXUTDialog@@@std@@@std@@IAEPAPAVCDXUTDialog@@PAPAV2@00@Z ; std::vector<CDXUTDialog *,std::allocator<CDXUTDialog *> >::_Umove<CDXUTDialog * *>
PUBLIC	??$_Umove@PAPAUDXUTTextureNode@@@?$vector@PAUDXUTTextureNode@@V?$allocator@PAUDXUTTextureNode@@@std@@@std@@IAEPAPAUDXUTTextureNode@@PAPAU2@00@Z ; std::vector<DXUTTextureNode *,std::allocator<DXUTTextureNode *> >::_Umove<DXUTTextureNode * *>
PUBLIC	??$_Umove@PAPAUDXUTFontNode@@@?$vector@PAUDXUTFontNode@@V?$allocator@PAUDXUTFontNode@@@std@@@std@@IAEPAPAUDXUTFontNode@@PAPAU2@00@Z ; std::vector<DXUTFontNode *,std::allocator<DXUTFontNode *> >::_Umove<DXUTFontNode * *>
PUBLIC	??$_Umove@PAPAVCDXUTElement@@@?$vector@PAVCDXUTElement@@V?$allocator@PAVCDXUTElement@@@std@@@std@@IAEPAPAVCDXUTElement@@PAPAV2@00@Z ; std::vector<CDXUTElement *,std::allocator<CDXUTElement *> >::_Umove<CDXUTElement * *>
PUBLIC	??$_Umove@PAPAUDXUTListBoxItem@@@?$vector@PAUDXUTListBoxItem@@V?$allocator@PAUDXUTListBoxItem@@@std@@@std@@IAEPAPAUDXUTListBoxItem@@PAPAU2@00@Z ; std::vector<DXUTListBoxItem *,std::allocator<DXUTListBoxItem *> >::_Umove<DXUTListBoxItem * *>
PUBLIC	??$_Umove@PAPAUDXUTComboBoxItem@@@?$vector@PAUDXUTComboBoxItem@@V?$allocator@PAUDXUTComboBoxItem@@@std@@@std@@IAEPAPAUDXUTComboBoxItem@@PAPAU2@00@Z ; std::vector<DXUTComboBoxItem *,std::allocator<DXUTComboBoxItem *> >::_Umove<DXUTComboBoxItem * *>
PUBLIC	??$_Allocate@H@std@@YAPAHIPAH@Z			; std::_Allocate<int>
PUBLIC	??$_Allocate@PAVCDXUTControl@@@std@@YAPAPAVCDXUTControl@@IPAPAV1@@Z ; std::_Allocate<CDXUTControl *>
PUBLIC	??$_Allocate@PAUDXUTElementHolder@@@std@@YAPAPAUDXUTElementHolder@@IPAPAU1@@Z ; std::_Allocate<DXUTElementHolder *>
PUBLIC	??$_Allocate@UDXUTSpriteVertex@@@std@@YAPAUDXUTSpriteVertex@@IPAU1@@Z ; std::_Allocate<DXUTSpriteVertex>
PUBLIC	??$_Allocate@PAVCDXUTDialog@@@std@@YAPAPAVCDXUTDialog@@IPAPAV1@@Z ; std::_Allocate<CDXUTDialog *>
PUBLIC	??$_Allocate@PAUDXUTTextureNode@@@std@@YAPAPAUDXUTTextureNode@@IPAPAU1@@Z ; std::_Allocate<DXUTTextureNode *>
PUBLIC	??$_Allocate@PAUDXUTFontNode@@@std@@YAPAPAUDXUTFontNode@@IPAPAU1@@Z ; std::_Allocate<DXUTFontNode *>
PUBLIC	??$_Allocate@PAVCDXUTElement@@@std@@YAPAPAVCDXUTElement@@IPAPAV1@@Z ; std::_Allocate<CDXUTElement *>
PUBLIC	??$_Allocate@PAUDXUTListBoxItem@@@std@@YAPAPAUDXUTListBoxItem@@IPAPAU1@@Z ; std::_Allocate<DXUTListBoxItem *>
PUBLIC	??$_Allocate@PAUDXUTComboBoxItem@@@std@@YAPAPAUDXUTComboBoxItem@@IPAPAU1@@Z ; std::_Allocate<DXUTComboBoxItem *>
PUBLIC	??$?8V?$_Vector_const_iterator@V?$_Vector_val@U?$_Simple_types@PAVCDXUTDialog@@@std@@@std@@@std@@V01@@std@@YA_NABV?$reverse_iterator@V?$_Vector_const_iterator@V?$_Vector_val@U?$_Simple_types@PAVCDXUTDialog@@@std@@@std@@@std@@@0@0@Z ; std::operator==<std::_Vector_const_iterator<std::_Vector_val<std::_Simple_types<CDXUTDialog *> > >,std::_Vector_const_iterator<std::_Vector_val<std::_Simple_types<CDXUTDialog *> > > >
PUBLIC	??$_Debug_range@V?$_Vector_const_iterator@V?$_Vector_val@U?$_Simple_types@PAVCDXUTDialog@@@std@@@std@@@std@@@std@@YAXV?$_Vector_const_iterator@V?$_Vector_val@U?$_Simple_types@PAVCDXUTDialog@@@std@@@std@@@0@0PB_WI@Z ; std::_Debug_range<std::_Vector_const_iterator<std::_Vector_val<std::_Simple_types<CDXUTDialog *> > > >
PUBLIC	??$_Unchecked@V?$_Vector_val@U?$_Simple_types@PAVCDXUTDialog@@@std@@@std@@@std@@YAPBQAVCDXUTDialog@@V?$_Vector_const_iterator@V?$_Vector_val@U?$_Simple_types@PAVCDXUTDialog@@@std@@@std@@@0@@Z ; std::_Unchecked<std::_Vector_val<std::_Simple_types<CDXUTDialog *> > >
PUBLIC	??$_Find@PBQAVCDXUTDialog@@PAV1@@std@@YAPBQAVCDXUTDialog@@PBQAV1@0ABQAV1@@Z ; std::_Find<CDXUTDialog * const *,CDXUTDialog *>
PUBLIC	??$_Rechecked@V?$_Vector_val@U?$_Simple_types@PAVCDXUTDialog@@@std@@@std@@@std@@YAAAV?$_Vector_const_iterator@V?$_Vector_val@U?$_Simple_types@PAVCDXUTDialog@@@std@@@std@@@0@AAV10@PBQAVCDXUTDialog@@@Z ; std::_Rechecked<std::_Vector_val<std::_Simple_types<CDXUTDialog *> > >
PUBLIC	??$_Debug_lt@ABHABH@std@@YA_NABH0PB_WI@Z	; std::_Debug_lt<int const &,int const &>
PUBLIC	??$construct@HH@?$allocator_traits@V?$allocator@H@std@@@std@@SAXAAV?$allocator@H@1@PAH$$QAH@Z ; std::allocator_traits<std::allocator<int> >::construct<int,int>
PUBLIC	??$forward@AAPAVCDXUTControl@@@std@@YAAAPAVCDXUTControl@@AAPAV1@@Z ; std::forward<CDXUTControl * &>
PUBLIC	??$construct@PAVCDXUTControl@@AAPAV1@@?$allocator_traits@V?$allocator@PAVCDXUTControl@@@std@@@std@@SAXAAV?$allocator@PAVCDXUTControl@@@1@PAPAVCDXUTControl@@AAPAV3@@Z ; std::allocator_traits<std::allocator<CDXUTControl *> >::construct<CDXUTControl *,CDXUTControl * &>
PUBLIC	??$forward@ABQAVCDXUTControl@@@std@@YAABQAVCDXUTControl@@ABQAV1@@Z ; std::forward<CDXUTControl * const &>
PUBLIC	??$construct@PAVCDXUTControl@@ABQAV1@@?$allocator_traits@V?$allocator@PAVCDXUTControl@@@std@@@std@@SAXAAV?$allocator@PAVCDXUTControl@@@1@PAPAVCDXUTControl@@ABQAV3@@Z ; std::allocator_traits<std::allocator<CDXUTControl *> >::construct<CDXUTControl *,CDXUTControl * const &>
PUBLIC	??$_Ptr_cat@PAVCDXUTControl@@PAV1@@std@@YA?AU_Scalar_ptr_iterator_tag@0@PAPAVCDXUTControl@@0@Z ; std::_Ptr_cat<CDXUTControl *,CDXUTControl *>
PUBLIC	??$_Move@PAPAVCDXUTControl@@PAPAV1@@std@@YAPAPAVCDXUTControl@@PAPAV1@00U_Scalar_ptr_iterator_tag@0@@Z ; std::_Move<CDXUTControl * *,CDXUTControl * *>
PUBLIC	??$forward@AAPAUDXUTElementHolder@@@std@@YAAAPAUDXUTElementHolder@@AAPAU1@@Z ; std::forward<DXUTElementHolder * &>
PUBLIC	??$construct@PAUDXUTElementHolder@@AAPAU1@@?$allocator_traits@V?$allocator@PAUDXUTElementHolder@@@std@@@std@@SAXAAV?$allocator@PAUDXUTElementHolder@@@1@PAPAUDXUTElementHolder@@AAPAU3@@Z ; std::allocator_traits<std::allocator<DXUTElementHolder *> >::construct<DXUTElementHolder *,DXUTElementHolder * &>
PUBLIC	??$forward@ABQAUDXUTElementHolder@@@std@@YAABQAUDXUTElementHolder@@ABQAU1@@Z ; std::forward<DXUTElementHolder * const &>
PUBLIC	??$construct@PAUDXUTElementHolder@@ABQAU1@@?$allocator_traits@V?$allocator@PAUDXUTElementHolder@@@std@@@std@@SAXAAV?$allocator@PAUDXUTElementHolder@@@1@PAPAUDXUTElementHolder@@ABQAU3@@Z ; std::allocator_traits<std::allocator<DXUTElementHolder *> >::construct<DXUTElementHolder *,DXUTElementHolder * const &>
PUBLIC	??$forward@AAUDXUTSpriteVertex@@@std@@YAAAUDXUTSpriteVertex@@AAU1@@Z ; std::forward<DXUTSpriteVertex &>
PUBLIC	??$construct@UDXUTSpriteVertex@@AAU1@@?$allocator_traits@V?$allocator@UDXUTSpriteVertex@@@std@@@std@@SAXAAV?$allocator@UDXUTSpriteVertex@@@1@PAUDXUTSpriteVertex@@AAU3@@Z ; std::allocator_traits<std::allocator<DXUTSpriteVertex> >::construct<DXUTSpriteVertex,DXUTSpriteVertex &>
PUBLIC	??$forward@ABUDXUTSpriteVertex@@@std@@YAABUDXUTSpriteVertex@@ABU1@@Z ; std::forward<DXUTSpriteVertex const &>
PUBLIC	??$construct@UDXUTSpriteVertex@@ABU1@@?$allocator_traits@V?$allocator@UDXUTSpriteVertex@@@std@@@std@@SAXAAV?$allocator@UDXUTSpriteVertex@@@1@PAUDXUTSpriteVertex@@ABU3@@Z ; std::allocator_traits<std::allocator<DXUTSpriteVertex> >::construct<DXUTSpriteVertex,DXUTSpriteVertex const &>
PUBLIC	??$forward@AAPAVCDXUTDialog@@@std@@YAAAPAVCDXUTDialog@@AAPAV1@@Z ; std::forward<CDXUTDialog * &>
PUBLIC	??$construct@PAVCDXUTDialog@@AAPAV1@@?$allocator_traits@V?$allocator@PAVCDXUTDialog@@@std@@@std@@SAXAAV?$allocator@PAVCDXUTDialog@@@1@PAPAVCDXUTDialog@@AAPAV3@@Z ; std::allocator_traits<std::allocator<CDXUTDialog *> >::construct<CDXUTDialog *,CDXUTDialog * &>
PUBLIC	??$forward@ABQAVCDXUTDialog@@@std@@YAABQAVCDXUTDialog@@ABQAV1@@Z ; std::forward<CDXUTDialog * const &>
PUBLIC	??$construct@PAVCDXUTDialog@@ABQAV1@@?$allocator_traits@V?$allocator@PAVCDXUTDialog@@@std@@@std@@SAXAAV?$allocator@PAVCDXUTDialog@@@1@PAPAVCDXUTDialog@@ABQAV3@@Z ; std::allocator_traits<std::allocator<CDXUTDialog *> >::construct<CDXUTDialog *,CDXUTDialog * const &>
PUBLIC	??$_Ptr_cat@PAVCDXUTDialog@@PAV1@@std@@YA?AU_Scalar_ptr_iterator_tag@0@PAPAVCDXUTDialog@@0@Z ; std::_Ptr_cat<CDXUTDialog *,CDXUTDialog *>
PUBLIC	??$_Move@PAPAVCDXUTDialog@@PAPAV1@@std@@YAPAPAVCDXUTDialog@@PAPAV1@00U_Scalar_ptr_iterator_tag@0@@Z ; std::_Move<CDXUTDialog * *,CDXUTDialog * *>
PUBLIC	??$forward@AAPAUDXUTTextureNode@@@std@@YAAAPAUDXUTTextureNode@@AAPAU1@@Z ; std::forward<DXUTTextureNode * &>
PUBLIC	??$construct@PAUDXUTTextureNode@@AAPAU1@@?$allocator_traits@V?$allocator@PAUDXUTTextureNode@@@std@@@std@@SAXAAV?$allocator@PAUDXUTTextureNode@@@1@PAPAUDXUTTextureNode@@AAPAU3@@Z ; std::allocator_traits<std::allocator<DXUTTextureNode *> >::construct<DXUTTextureNode *,DXUTTextureNode * &>
PUBLIC	??$forward@ABQAUDXUTTextureNode@@@std@@YAABQAUDXUTTextureNode@@ABQAU1@@Z ; std::forward<DXUTTextureNode * const &>
PUBLIC	??$construct@PAUDXUTTextureNode@@ABQAU1@@?$allocator_traits@V?$allocator@PAUDXUTTextureNode@@@std@@@std@@SAXAAV?$allocator@PAUDXUTTextureNode@@@1@PAPAUDXUTTextureNode@@ABQAU3@@Z ; std::allocator_traits<std::allocator<DXUTTextureNode *> >::construct<DXUTTextureNode *,DXUTTextureNode * const &>
PUBLIC	??$forward@AAPAUDXUTFontNode@@@std@@YAAAPAUDXUTFontNode@@AAPAU1@@Z ; std::forward<DXUTFontNode * &>
PUBLIC	??$construct@PAUDXUTFontNode@@AAPAU1@@?$allocator_traits@V?$allocator@PAUDXUTFontNode@@@std@@@std@@SAXAAV?$allocator@PAUDXUTFontNode@@@1@PAPAUDXUTFontNode@@AAPAU3@@Z ; std::allocator_traits<std::allocator<DXUTFontNode *> >::construct<DXUTFontNode *,DXUTFontNode * &>
PUBLIC	??$forward@ABQAUDXUTFontNode@@@std@@YAABQAUDXUTFontNode@@ABQAU1@@Z ; std::forward<DXUTFontNode * const &>
PUBLIC	??$construct@PAUDXUTFontNode@@ABQAU1@@?$allocator_traits@V?$allocator@PAUDXUTFontNode@@@std@@@std@@SAXAAV?$allocator@PAUDXUTFontNode@@@1@PAPAUDXUTFontNode@@ABQAU3@@Z ; std::allocator_traits<std::allocator<DXUTFontNode *> >::construct<DXUTFontNode *,DXUTFontNode * const &>
PUBLIC	??$forward@AAPAVCDXUTElement@@@std@@YAAAPAVCDXUTElement@@AAPAV1@@Z ; std::forward<CDXUTElement * &>
PUBLIC	??$construct@PAVCDXUTElement@@AAPAV1@@?$allocator_traits@V?$allocator@PAVCDXUTElement@@@std@@@std@@SAXAAV?$allocator@PAVCDXUTElement@@@1@PAPAVCDXUTElement@@AAPAV3@@Z ; std::allocator_traits<std::allocator<CDXUTElement *> >::construct<CDXUTElement *,CDXUTElement * &>
PUBLIC	??$forward@ABQAVCDXUTElement@@@std@@YAABQAVCDXUTElement@@ABQAV1@@Z ; std::forward<CDXUTElement * const &>
PUBLIC	??$construct@PAVCDXUTElement@@ABQAV1@@?$allocator_traits@V?$allocator@PAVCDXUTElement@@@std@@@std@@SAXAAV?$allocator@PAVCDXUTElement@@@1@PAPAVCDXUTElement@@ABQAV3@@Z ; std::allocator_traits<std::allocator<CDXUTElement *> >::construct<CDXUTElement *,CDXUTElement * const &>
PUBLIC	??$forward@AAPAUDXUTListBoxItem@@@std@@YAAAPAUDXUTListBoxItem@@AAPAU1@@Z ; std::forward<DXUTListBoxItem * &>
PUBLIC	??$construct@PAUDXUTListBoxItem@@AAPAU1@@?$allocator_traits@V?$allocator@PAUDXUTListBoxItem@@@std@@@std@@SAXAAV?$allocator@PAUDXUTListBoxItem@@@1@PAPAUDXUTListBoxItem@@AAPAU3@@Z ; std::allocator_traits<std::allocator<DXUTListBoxItem *> >::construct<DXUTListBoxItem *,DXUTListBoxItem * &>
PUBLIC	??$forward@ABQAUDXUTListBoxItem@@@std@@YAABQAUDXUTListBoxItem@@ABQAU1@@Z ; std::forward<DXUTListBoxItem * const &>
PUBLIC	??$construct@PAUDXUTListBoxItem@@ABQAU1@@?$allocator_traits@V?$allocator@PAUDXUTListBoxItem@@@std@@@std@@SAXAAV?$allocator@PAUDXUTListBoxItem@@@1@PAPAUDXUTListBoxItem@@ABQAU3@@Z ; std::allocator_traits<std::allocator<DXUTListBoxItem *> >::construct<DXUTListBoxItem *,DXUTListBoxItem * const &>
PUBLIC	??$_Ptr_cat@PAUDXUTListBoxItem@@PAU1@@std@@YA?AU_Scalar_ptr_iterator_tag@0@PAPAUDXUTListBoxItem@@0@Z ; std::_Ptr_cat<DXUTListBoxItem *,DXUTListBoxItem *>
PUBLIC	??$_Move@PAPAUDXUTListBoxItem@@PAPAU1@@std@@YAPAPAUDXUTListBoxItem@@PAPAU1@00U_Scalar_ptr_iterator_tag@0@@Z ; std::_Move<DXUTListBoxItem * *,DXUTListBoxItem * *>
PUBLIC	??$forward@AAPAUDXUTComboBoxItem@@@std@@YAAAPAUDXUTComboBoxItem@@AAPAU1@@Z ; std::forward<DXUTComboBoxItem * &>
PUBLIC	??$construct@PAUDXUTComboBoxItem@@AAPAU1@@?$allocator_traits@V?$allocator@PAUDXUTComboBoxItem@@@std@@@std@@SAXAAV?$allocator@PAUDXUTComboBoxItem@@@1@PAPAUDXUTComboBoxItem@@AAPAU3@@Z ; std::allocator_traits<std::allocator<DXUTComboBoxItem *> >::construct<DXUTComboBoxItem *,DXUTComboBoxItem * &>
PUBLIC	??$forward@ABQAUDXUTComboBoxItem@@@std@@YAABQAUDXUTComboBoxItem@@ABQAU1@@Z ; std::forward<DXUTComboBoxItem * const &>
PUBLIC	??$construct@PAUDXUTComboBoxItem@@ABQAU1@@?$allocator_traits@V?$allocator@PAUDXUTComboBoxItem@@@std@@@std@@SAXAAV?$allocator@PAUDXUTComboBoxItem@@@1@PAPAUDXUTComboBoxItem@@ABQAU3@@Z ; std::allocator_traits<std::allocator<DXUTComboBoxItem *> >::construct<DXUTComboBoxItem *,DXUTComboBoxItem * const &>
PUBLIC	??$_Ptr_cat@PAUDXUTComboBoxItem@@PAU1@@std@@YA?AU_Scalar_ptr_iterator_tag@0@PAPAUDXUTComboBoxItem@@0@Z ; std::_Ptr_cat<DXUTComboBoxItem *,DXUTComboBoxItem *>
PUBLIC	??$_Move@PAPAUDXUTComboBoxItem@@PAPAU1@@std@@YAPAPAUDXUTComboBoxItem@@PAPAU1@00U_Scalar_ptr_iterator_tag@0@@Z ; std::_Move<DXUTComboBoxItem * *,DXUTComboBoxItem * *>
PUBLIC	??$_Ptr_cat@HH@std@@YA?AU_Scalar_ptr_iterator_tag@0@PAH0@Z ; std::_Ptr_cat<int,int>
PUBLIC	??$_Destroy_range@U?$_Wrap_alloc@V?$allocator@H@std@@@std@@@std@@YAXPAH0AAU?$_Wrap_alloc@V?$allocator@H@std@@@0@U_Scalar_ptr_iterator_tag@0@@Z ; std::_Destroy_range<std::_Wrap_alloc<std::allocator<int> > >
PUBLIC	??$_Destroy_range@U?$_Wrap_alloc@V?$allocator@PAVCDXUTControl@@@std@@@std@@@std@@YAXPAPAVCDXUTControl@@0AAU?$_Wrap_alloc@V?$allocator@PAVCDXUTControl@@@std@@@0@U_Scalar_ptr_iterator_tag@0@@Z ; std::_Destroy_range<std::_Wrap_alloc<std::allocator<CDXUTControl *> > >
PUBLIC	??$_Ptr_cat@PAUDXUTElementHolder@@PAU1@@std@@YA?AU_Scalar_ptr_iterator_tag@0@PAPAUDXUTElementHolder@@0@Z ; std::_Ptr_cat<DXUTElementHolder *,DXUTElementHolder *>
PUBLIC	??$_Destroy_range@U?$_Wrap_alloc@V?$allocator@PAUDXUTElementHolder@@@std@@@std@@@std@@YAXPAPAUDXUTElementHolder@@0AAU?$_Wrap_alloc@V?$allocator@PAUDXUTElementHolder@@@std@@@0@U_Scalar_ptr_iterator_tag@0@@Z ; std::_Destroy_range<std::_Wrap_alloc<std::allocator<DXUTElementHolder *> > >
PUBLIC	??$_Ptr_cat@UDXUTSpriteVertex@@U1@@std@@YA?AU_Nonscalar_ptr_iterator_tag@0@PAUDXUTSpriteVertex@@0@Z ; std::_Ptr_cat<DXUTSpriteVertex,DXUTSpriteVertex>
PUBLIC	??$_Destroy_range@U?$_Wrap_alloc@V?$allocator@UDXUTSpriteVertex@@@std@@@std@@@std@@YAXPAUDXUTSpriteVertex@@0AAU?$_Wrap_alloc@V?$allocator@UDXUTSpriteVertex@@@std@@@0@U_Nonscalar_ptr_iterator_tag@0@@Z ; std::_Destroy_range<std::_Wrap_alloc<std::allocator<DXUTSpriteVertex> > >
PUBLIC	??$_Destroy_range@U?$_Wrap_alloc@V?$allocator@PAVCDXUTDialog@@@std@@@std@@@std@@YAXPAPAVCDXUTDialog@@0AAU?$_Wrap_alloc@V?$allocator@PAVCDXUTDialog@@@std@@@0@U_Scalar_ptr_iterator_tag@0@@Z ; std::_Destroy_range<std::_Wrap_alloc<std::allocator<CDXUTDialog *> > >
PUBLIC	??$_Ptr_cat@PAUDXUTTextureNode@@PAU1@@std@@YA?AU_Scalar_ptr_iterator_tag@0@PAPAUDXUTTextureNode@@0@Z ; std::_Ptr_cat<DXUTTextureNode *,DXUTTextureNode *>
PUBLIC	??$_Destroy_range@U?$_Wrap_alloc@V?$allocator@PAUDXUTTextureNode@@@std@@@std@@@std@@YAXPAPAUDXUTTextureNode@@0AAU?$_Wrap_alloc@V?$allocator@PAUDXUTTextureNode@@@std@@@0@U_Scalar_ptr_iterator_tag@0@@Z ; std::_Destroy_range<std::_Wrap_alloc<std::allocator<DXUTTextureNode *> > >
PUBLIC	??$_Ptr_cat@PAUDXUTFontNode@@PAU1@@std@@YA?AU_Scalar_ptr_iterator_tag@0@PAPAUDXUTFontNode@@0@Z ; std::_Ptr_cat<DXUTFontNode *,DXUTFontNode *>
PUBLIC	??$_Destroy_range@U?$_Wrap_alloc@V?$allocator@PAUDXUTFontNode@@@std@@@std@@@std@@YAXPAPAUDXUTFontNode@@0AAU?$_Wrap_alloc@V?$allocator@PAUDXUTFontNode@@@std@@@0@U_Scalar_ptr_iterator_tag@0@@Z ; std::_Destroy_range<std::_Wrap_alloc<std::allocator<DXUTFontNode *> > >
PUBLIC	??$_Ptr_cat@PAVCDXUTElement@@PAV1@@std@@YA?AU_Scalar_ptr_iterator_tag@0@PAPAVCDXUTElement@@0@Z ; std::_Ptr_cat<CDXUTElement *,CDXUTElement *>
PUBLIC	??$_Destroy_range@U?$_Wrap_alloc@V?$allocator@PAVCDXUTElement@@@std@@@std@@@std@@YAXPAPAVCDXUTElement@@0AAU?$_Wrap_alloc@V?$allocator@PAVCDXUTElement@@@std@@@0@U_Scalar_ptr_iterator_tag@0@@Z ; std::_Destroy_range<std::_Wrap_alloc<std::allocator<CDXUTElement *> > >
PUBLIC	??$_Destroy_range@U?$_Wrap_alloc@V?$allocator@PAUDXUTListBoxItem@@@std@@@std@@@std@@YAXPAPAUDXUTListBoxItem@@0AAU?$_Wrap_alloc@V?$allocator@PAUDXUTListBoxItem@@@std@@@0@U_Scalar_ptr_iterator_tag@0@@Z ; std::_Destroy_range<std::_Wrap_alloc<std::allocator<DXUTListBoxItem *> > >
PUBLIC	??$_Destroy_range@U?$_Wrap_alloc@V?$allocator@PAUDXUTComboBoxItem@@@std@@@std@@@std@@YAXPAPAUDXUTComboBoxItem@@0AAU?$_Wrap_alloc@V?$allocator@PAUDXUTComboBoxItem@@@std@@@0@U_Scalar_ptr_iterator_tag@0@@Z ; std::_Destroy_range<std::_Wrap_alloc<std::allocator<DXUTComboBoxItem *> > >
PUBLIC	??$_Uninitialized_move@PAHPAHU?$_Wrap_alloc@V?$allocator@H@std@@@std@@@std@@YAPAHPAH00AAU?$_Wrap_alloc@V?$allocator@H@std@@@0@@Z ; std::_Uninitialized_move<int *,int *,std::_Wrap_alloc<std::allocator<int> > >
PUBLIC	??$_Uninitialized_move@PAPAVCDXUTControl@@PAPAV1@U?$_Wrap_alloc@V?$allocator@PAVCDXUTControl@@@std@@@std@@@std@@YAPAPAVCDXUTControl@@PAPAV1@00AAU?$_Wrap_alloc@V?$allocator@PAVCDXUTControl@@@std@@@0@@Z ; std::_Uninitialized_move<CDXUTControl * *,CDXUTControl * *,std::_Wrap_alloc<std::allocator<CDXUTControl *> > >
PUBLIC	??$_Uninitialized_move@PAPAUDXUTElementHolder@@PAPAU1@U?$_Wrap_alloc@V?$allocator@PAUDXUTElementHolder@@@std@@@std@@@std@@YAPAPAUDXUTElementHolder@@PAPAU1@00AAU?$_Wrap_alloc@V?$allocator@PAUDXUTElementHolder@@@std@@@0@@Z ; std::_Uninitialized_move<DXUTElementHolder * *,DXUTElementHolder * *,std::_Wrap_alloc<std::allocator<DXUTElementHolder *> > >
PUBLIC	??$_Uninitialized_move@PAUDXUTSpriteVertex@@PAU1@U?$_Wrap_alloc@V?$allocator@UDXUTSpriteVertex@@@std@@@std@@@std@@YAPAUDXUTSpriteVertex@@PAU1@00AAU?$_Wrap_alloc@V?$allocator@UDXUTSpriteVertex@@@std@@@0@@Z ; std::_Uninitialized_move<DXUTSpriteVertex *,DXUTSpriteVertex *,std::_Wrap_alloc<std::allocator<DXUTSpriteVertex> > >
PUBLIC	??$_Uninitialized_move@PAPAVCDXUTDialog@@PAPAV1@U?$_Wrap_alloc@V?$allocator@PAVCDXUTDialog@@@std@@@std@@@std@@YAPAPAVCDXUTDialog@@PAPAV1@00AAU?$_Wrap_alloc@V?$allocator@PAVCDXUTDialog@@@std@@@0@@Z ; std::_Uninitialized_move<CDXUTDialog * *,CDXUTDialog * *,std::_Wrap_alloc<std::allocator<CDXUTDialog *> > >
PUBLIC	??$_Uninitialized_move@PAPAUDXUTTextureNode@@PAPAU1@U?$_Wrap_alloc@V?$allocator@PAUDXUTTextureNode@@@std@@@std@@@std@@YAPAPAUDXUTTextureNode@@PAPAU1@00AAU?$_Wrap_alloc@V?$allocator@PAUDXUTTextureNode@@@std@@@0@@Z ; std::_Uninitialized_move<DXUTTextureNode * *,DXUTTextureNode * *,std::_Wrap_alloc<std::allocator<DXUTTextureNode *> > >
PUBLIC	??$_Uninitialized_move@PAPAUDXUTFontNode@@PAPAU1@U?$_Wrap_alloc@V?$allocator@PAUDXUTFontNode@@@std@@@std@@@std@@YAPAPAUDXUTFontNode@@PAPAU1@00AAU?$_Wrap_alloc@V?$allocator@PAUDXUTFontNode@@@std@@@0@@Z ; std::_Uninitialized_move<DXUTFontNode * *,DXUTFontNode * *,std::_Wrap_alloc<std::allocator<DXUTFontNode *> > >
PUBLIC	??$_Uninitialized_move@PAPAVCDXUTElement@@PAPAV1@U?$_Wrap_alloc@V?$allocator@PAVCDXUTElement@@@std@@@std@@@std@@YAPAPAVCDXUTElement@@PAPAV1@00AAU?$_Wrap_alloc@V?$allocator@PAVCDXUTElement@@@std@@@0@@Z ; std::_Uninitialized_move<CDXUTElement * *,CDXUTElement * *,std::_Wrap_alloc<std::allocator<CDXUTElement *> > >
PUBLIC	??$_Uninitialized_move@PAPAUDXUTListBoxItem@@PAPAU1@U?$_Wrap_alloc@V?$allocator@PAUDXUTListBoxItem@@@std@@@std@@@std@@YAPAPAUDXUTListBoxItem@@PAPAU1@00AAU?$_Wrap_alloc@V?$allocator@PAUDXUTListBoxItem@@@std@@@0@@Z ; std::_Uninitialized_move<DXUTListBoxItem * *,DXUTListBoxItem * *,std::_Wrap_alloc<std::allocator<DXUTListBoxItem *> > >
PUBLIC	??$_Uninitialized_move@PAPAUDXUTComboBoxItem@@PAPAU1@U?$_Wrap_alloc@V?$allocator@PAUDXUTComboBoxItem@@@std@@@std@@@std@@YAPAPAUDXUTComboBoxItem@@PAPAU1@00AAU?$_Wrap_alloc@V?$allocator@PAUDXUTComboBoxItem@@@std@@@0@@Z ; std::_Uninitialized_move<DXUTComboBoxItem * *,DXUTComboBoxItem * *,std::_Wrap_alloc<std::allocator<DXUTComboBoxItem *> > >
PUBLIC	??$_Equal@V?$_Vector_const_iterator@V?$_Vector_val@U?$_Simple_types@PAVCDXUTDialog@@@std@@@std@@@std@@U?$iterator@Urandom_access_iterator_tag@std@@PAVCDXUTDialog@@HPBQAV3@ABQAV3@@2@@?$_Revranit@V?$_Vector_const_iterator@V?$_Vector_val@U?$_Simple_types@PAVCDXUTDialog@@@std@@@std@@@std@@U?$iterator@Urandom_access_iterator_tag@std@@PAVCDXUTDialog@@HPBQAV3@ABQAV3@@2@@std@@QBE_NABV01@@Z ; std::_Revranit<std::_Vector_const_iterator<std::_Vector_val<std::_Simple_types<CDXUTDialog *> > >,std::iterator<std::random_access_iterator_tag,CDXUTDialog *,int,CDXUTDialog * const *,CDXUTDialog * const &> >::_Equal<std::_Vector_const_iterator<std::_Vector_val<std::_Simple_types<CDXUTDialog *> > >,std::iterator<std::random_access_iterator_tag,CDXUTDialog *,int,CDXUTDialog * const *,CDXUTDialog * const &> >
PUBLIC	??$_Iter_cat@V?$_Vector_const_iterator@V?$_Vector_val@U?$_Simple_types@PAVCDXUTDialog@@@std@@@std@@@std@@@std@@YA?AUrandom_access_iterator_tag@0@ABV?$_Vector_const_iterator@V?$_Vector_val@U?$_Simple_types@PAVCDXUTDialog@@@std@@@std@@@0@@Z ; std::_Iter_cat<std::_Vector_const_iterator<std::_Vector_val<std::_Simple_types<CDXUTDialog *> > > >
PUBLIC	??$_Debug_range2@V?$_Vector_const_iterator@V?$_Vector_val@U?$_Simple_types@PAVCDXUTDialog@@@std@@@std@@@std@@@std@@YAXV?$_Vector_const_iterator@V?$_Vector_val@U?$_Simple_types@PAVCDXUTDialog@@@std@@@std@@@0@0PB_WIUrandom_access_iterator_tag@0@@Z ; std::_Debug_range2<std::_Vector_const_iterator<std::_Vector_val<std::_Simple_types<CDXUTDialog *> > > >
PUBLIC	??$_Find@PBQAVCDXUTDialog@@PAV1@@std@@YAPBQAVCDXUTDialog@@PBQAV1@0ABQAV1@U?$integral_constant@_N$0A@@0@@Z ; std::_Find<CDXUTDialog * const *,CDXUTDialog *>
PUBLIC	??$forward@ABH@std@@YAABHABH@Z			; std::forward<int const &>
PUBLIC	??$_Debug_lt_pred@U?$less@X@std@@ABHABH@std@@YA_NU?$less@X@0@ABH1PB_WI@Z ; std::_Debug_lt_pred<std::less<void>,int const &,int const &>
PUBLIC	??$construct@HH@?$allocator@H@std@@QAEXPAH$$QAH@Z ; std::allocator<int>::construct<int,int>
PUBLIC	??$construct@PAVCDXUTControl@@AAPAV1@@?$allocator@PAVCDXUTControl@@@std@@QAEXPAPAVCDXUTControl@@AAPAV2@@Z ; std::allocator<CDXUTControl *>::construct<CDXUTControl *,CDXUTControl * &>
PUBLIC	??$construct@PAUDXUTElementHolder@@AAPAU1@@?$allocator@PAUDXUTElementHolder@@@std@@QAEXPAPAUDXUTElementHolder@@AAPAU2@@Z ; std::allocator<DXUTElementHolder *>::construct<DXUTElementHolder *,DXUTElementHolder * &>
PUBLIC	??$construct@UDXUTSpriteVertex@@AAU1@@?$allocator@UDXUTSpriteVertex@@@std@@QAEXPAUDXUTSpriteVertex@@AAU2@@Z ; std::allocator<DXUTSpriteVertex>::construct<DXUTSpriteVertex,DXUTSpriteVertex &>
PUBLIC	??$construct@PAVCDXUTDialog@@AAPAV1@@?$allocator@PAVCDXUTDialog@@@std@@QAEXPAPAVCDXUTDialog@@AAPAV2@@Z ; std::allocator<CDXUTDialog *>::construct<CDXUTDialog *,CDXUTDialog * &>
PUBLIC	??$construct@PAUDXUTTextureNode@@AAPAU1@@?$allocator@PAUDXUTTextureNode@@@std@@QAEXPAPAUDXUTTextureNode@@AAPAU2@@Z ; std::allocator<DXUTTextureNode *>::construct<DXUTTextureNode *,DXUTTextureNode * &>
PUBLIC	??$construct@PAUDXUTFontNode@@AAPAU1@@?$allocator@PAUDXUTFontNode@@@std@@QAEXPAPAUDXUTFontNode@@AAPAU2@@Z ; std::allocator<DXUTFontNode *>::construct<DXUTFontNode *,DXUTFontNode * &>
PUBLIC	??$construct@PAVCDXUTElement@@AAPAV1@@?$allocator@PAVCDXUTElement@@@std@@QAEXPAPAVCDXUTElement@@AAPAV2@@Z ; std::allocator<CDXUTElement *>::construct<CDXUTElement *,CDXUTElement * &>
PUBLIC	??$construct@PAUDXUTListBoxItem@@AAPAU1@@?$allocator@PAUDXUTListBoxItem@@@std@@QAEXPAPAUDXUTListBoxItem@@AAPAU2@@Z ; std::allocator<DXUTListBoxItem *>::construct<DXUTListBoxItem *,DXUTListBoxItem * &>
PUBLIC	??$construct@PAUDXUTComboBoxItem@@AAPAU1@@?$allocator@PAUDXUTComboBoxItem@@@std@@QAEXPAPAUDXUTComboBoxItem@@AAPAU2@@Z ; std::allocator<DXUTComboBoxItem *>::construct<DXUTComboBoxItem *,DXUTComboBoxItem * &>
PUBLIC	??$destroy@UDXUTSpriteVertex@@@?$_Wrap_alloc@V?$allocator@UDXUTSpriteVertex@@@std@@@std@@QAEXPAUDXUTSpriteVertex@@@Z ; std::_Wrap_alloc<std::allocator<DXUTSpriteVertex> >::destroy<DXUTSpriteVertex>
PUBLIC	??$_Unchecked@PAH@std@@YAPAHPAH@Z		; std::_Unchecked<int *>
PUBLIC	??$_Uninit_move@PAHPAHU?$_Wrap_alloc@V?$allocator@H@std@@@std@@@std@@YAPAHPAH00AAU?$_Wrap_alloc@V?$allocator@H@std@@@0@@Z ; std::_Uninit_move<int *,int *,std::_Wrap_alloc<std::allocator<int> > >
PUBLIC	??$_Rechecked@PAHPAH@std@@YAAAPAHAAPAHPAH@Z	; std::_Rechecked<int *,int *>
PUBLIC	??$_Unchecked@PAPAVCDXUTControl@@@std@@YAPAPAVCDXUTControl@@PAPAV1@@Z ; std::_Unchecked<CDXUTControl * *>
PUBLIC	??$_Uninit_move@PAPAVCDXUTControl@@PAPAV1@U?$_Wrap_alloc@V?$allocator@PAVCDXUTControl@@@std@@@std@@@std@@YAPAPAVCDXUTControl@@PAPAV1@00AAU?$_Wrap_alloc@V?$allocator@PAVCDXUTControl@@@std@@@0@@Z ; std::_Uninit_move<CDXUTControl * *,CDXUTControl * *,std::_Wrap_alloc<std::allocator<CDXUTControl *> > >
PUBLIC	??$_Rechecked@PAPAVCDXUTControl@@PAPAV1@@std@@YAAAPAPAVCDXUTControl@@AAPAPAV1@PAPAV1@@Z ; std::_Rechecked<CDXUTControl * *,CDXUTControl * *>
PUBLIC	??$_Unchecked@PAPAUDXUTElementHolder@@@std@@YAPAPAUDXUTElementHolder@@PAPAU1@@Z ; std::_Unchecked<DXUTElementHolder * *>
PUBLIC	??$_Uninit_move@PAPAUDXUTElementHolder@@PAPAU1@U?$_Wrap_alloc@V?$allocator@PAUDXUTElementHolder@@@std@@@std@@@std@@YAPAPAUDXUTElementHolder@@PAPAU1@00AAU?$_Wrap_alloc@V?$allocator@PAUDXUTElementHolder@@@std@@@0@@Z ; std::_Uninit_move<DXUTElementHolder * *,DXUTElementHolder * *,std::_Wrap_alloc<std::allocator<DXUTElementHolder *> > >
PUBLIC	??$_Rechecked@PAPAUDXUTElementHolder@@PAPAU1@@std@@YAAAPAPAUDXUTElementHolder@@AAPAPAU1@PAPAU1@@Z ; std::_Rechecked<DXUTElementHolder * *,DXUTElementHolder * *>
PUBLIC	??$_Unchecked@PAUDXUTSpriteVertex@@@std@@YAPAUDXUTSpriteVertex@@PAU1@@Z ; std::_Unchecked<DXUTSpriteVertex *>
PUBLIC	??$_Uninit_move@PAUDXUTSpriteVertex@@PAU1@U?$_Wrap_alloc@V?$allocator@UDXUTSpriteVertex@@@std@@@std@@@std@@YAPAUDXUTSpriteVertex@@PAU1@00AAU?$_Wrap_alloc@V?$allocator@UDXUTSpriteVertex@@@std@@@0@@Z ; std::_Uninit_move<DXUTSpriteVertex *,DXUTSpriteVertex *,std::_Wrap_alloc<std::allocator<DXUTSpriteVertex> > >
PUBLIC	??$_Rechecked@PAUDXUTSpriteVertex@@PAU1@@std@@YAAAPAUDXUTSpriteVertex@@AAPAU1@PAU1@@Z ; std::_Rechecked<DXUTSpriteVertex *,DXUTSpriteVertex *>
PUBLIC	??$_Unchecked@PAPAVCDXUTDialog@@@std@@YAPAPAVCDXUTDialog@@PAPAV1@@Z ; std::_Unchecked<CDXUTDialog * *>
PUBLIC	??$_Uninit_move@PAPAVCDXUTDialog@@PAPAV1@U?$_Wrap_alloc@V?$allocator@PAVCDXUTDialog@@@std@@@std@@@std@@YAPAPAVCDXUTDialog@@PAPAV1@00AAU?$_Wrap_alloc@V?$allocator@PAVCDXUTDialog@@@std@@@0@@Z ; std::_Uninit_move<CDXUTDialog * *,CDXUTDialog * *,std::_Wrap_alloc<std::allocator<CDXUTDialog *> > >
PUBLIC	??$_Rechecked@PAPAVCDXUTDialog@@PAPAV1@@std@@YAAAPAPAVCDXUTDialog@@AAPAPAV1@PAPAV1@@Z ; std::_Rechecked<CDXUTDialog * *,CDXUTDialog * *>
PUBLIC	??$_Unchecked@PAPAUDXUTTextureNode@@@std@@YAPAPAUDXUTTextureNode@@PAPAU1@@Z ; std::_Unchecked<DXUTTextureNode * *>
PUBLIC	??$_Uninit_move@PAPAUDXUTTextureNode@@PAPAU1@U?$_Wrap_alloc@V?$allocator@PAUDXUTTextureNode@@@std@@@std@@@std@@YAPAPAUDXUTTextureNode@@PAPAU1@00AAU?$_Wrap_alloc@V?$allocator@PAUDXUTTextureNode@@@std@@@0@@Z ; std::_Uninit_move<DXUTTextureNode * *,DXUTTextureNode * *,std::_Wrap_alloc<std::allocator<DXUTTextureNode *> > >
PUBLIC	??$_Rechecked@PAPAUDXUTTextureNode@@PAPAU1@@std@@YAAAPAPAUDXUTTextureNode@@AAPAPAU1@PAPAU1@@Z ; std::_Rechecked<DXUTTextureNode * *,DXUTTextureNode * *>
PUBLIC	??$_Unchecked@PAPAUDXUTFontNode@@@std@@YAPAPAUDXUTFontNode@@PAPAU1@@Z ; std::_Unchecked<DXUTFontNode * *>
PUBLIC	??$_Uninit_move@PAPAUDXUTFontNode@@PAPAU1@U?$_Wrap_alloc@V?$allocator@PAUDXUTFontNode@@@std@@@std@@@std@@YAPAPAUDXUTFontNode@@PAPAU1@00AAU?$_Wrap_alloc@V?$allocator@PAUDXUTFontNode@@@std@@@0@@Z ; std::_Uninit_move<DXUTFontNode * *,DXUTFontNode * *,std::_Wrap_alloc<std::allocator<DXUTFontNode *> > >
PUBLIC	??$_Rechecked@PAPAUDXUTFontNode@@PAPAU1@@std@@YAAAPAPAUDXUTFontNode@@AAPAPAU1@PAPAU1@@Z ; std::_Rechecked<DXUTFontNode * *,DXUTFontNode * *>
PUBLIC	??$_Unchecked@PAPAVCDXUTElement@@@std@@YAPAPAVCDXUTElement@@PAPAV1@@Z ; std::_Unchecked<CDXUTElement * *>
PUBLIC	??$_Uninit_move@PAPAVCDXUTElement@@PAPAV1@U?$_Wrap_alloc@V?$allocator@PAVCDXUTElement@@@std@@@std@@@std@@YAPAPAVCDXUTElement@@PAPAV1@00AAU?$_Wrap_alloc@V?$allocator@PAVCDXUTElement@@@std@@@0@@Z ; std::_Uninit_move<CDXUTElement * *,CDXUTElement * *,std::_Wrap_alloc<std::allocator<CDXUTElement *> > >
PUBLIC	??$_Rechecked@PAPAVCDXUTElement@@PAPAV1@@std@@YAAAPAPAVCDXUTElement@@AAPAPAV1@PAPAV1@@Z ; std::_Rechecked<CDXUTElement * *,CDXUTElement * *>
PUBLIC	??$_Unchecked@PAPAUDXUTListBoxItem@@@std@@YAPAPAUDXUTListBoxItem@@PAPAU1@@Z ; std::_Unchecked<DXUTListBoxItem * *>
PUBLIC	??$_Uninit_move@PAPAUDXUTListBoxItem@@PAPAU1@U?$_Wrap_alloc@V?$allocator@PAUDXUTListBoxItem@@@std@@@std@@@std@@YAPAPAUDXUTListBoxItem@@PAPAU1@00AAU?$_Wrap_alloc@V?$allocator@PAUDXUTListBoxItem@@@std@@@0@@Z ; std::_Uninit_move<DXUTListBoxItem * *,DXUTListBoxItem * *,std::_Wrap_alloc<std::allocator<DXUTListBoxItem *> > >
PUBLIC	??$_Rechecked@PAPAUDXUTListBoxItem@@PAPAU1@@std@@YAAAPAPAUDXUTListBoxItem@@AAPAPAU1@PAPAU1@@Z ; std::_Rechecked<DXUTListBoxItem * *,DXUTListBoxItem * *>
PUBLIC	??$_Unchecked@PAPAUDXUTComboBoxItem@@@std@@YAPAPAUDXUTComboBoxItem@@PAPAU1@@Z ; std::_Unchecked<DXUTComboBoxItem * *>
PUBLIC	??$_Uninit_move@PAPAUDXUTComboBoxItem@@PAPAU1@U?$_Wrap_alloc@V?$allocator@PAUDXUTComboBoxItem@@@std@@@std@@@std@@YAPAPAUDXUTComboBoxItem@@PAPAU1@00AAU?$_Wrap_alloc@V?$allocator@PAUDXUTComboBoxItem@@@std@@@0@@Z ; std::_Uninit_move<DXUTComboBoxItem * *,DXUTComboBoxItem * *,std::_Wrap_alloc<std::allocator<DXUTComboBoxItem *> > >
PUBLIC	??$_Rechecked@PAPAUDXUTComboBoxItem@@PAPAU1@@std@@YAAAPAPAUDXUTComboBoxItem@@AAPAPAU1@PAPAU1@@Z ; std::_Rechecked<DXUTComboBoxItem * *,DXUTComboBoxItem * *>
PUBLIC	??$_Debug_pointer@V?$_Vector_const_iterator@V?$_Vector_val@U?$_Simple_types@PAVCDXUTDialog@@@std@@@std@@@std@@@std@@YAXAAV?$_Vector_const_iterator@V?$_Vector_val@U?$_Simple_types@PAVCDXUTDialog@@@std@@@std@@@0@PB_WI@Z ; std::_Debug_pointer<std::_Vector_const_iterator<std::_Vector_val<std::_Simple_types<CDXUTDialog *> > > >
PUBLIC	??$?RABHABH@?$less@X@std@@QBE_NABH0@Z		; std::less<void>::operator()<int const &,int const &>
PUBLIC	??$destroy@UDXUTSpriteVertex@@@?$allocator_traits@V?$allocator@UDXUTSpriteVertex@@@std@@@std@@SAXAAV?$allocator@UDXUTSpriteVertex@@@1@PAUDXUTSpriteVertex@@@Z ; std::allocator_traits<std::allocator<DXUTSpriteVertex> >::destroy<DXUTSpriteVertex>
PUBLIC	??$_Val_type@PAH@std@@YAPAHPAH@Z		; std::_Val_type<int *>
PUBLIC	??$_Uninit_move@HHH@std@@YAPAHPAH00AAU?$_Wrap_alloc@V?$allocator@H@std@@@0@0U_Scalar_ptr_iterator_tag@0@@Z ; std::_Uninit_move<int,int,int>
PUBLIC	??$_Val_type@PAPAVCDXUTControl@@@std@@YAPAPAVCDXUTControl@@PAPAV1@@Z ; std::_Val_type<CDXUTControl * *>
PUBLIC	??$_Uninit_move@PAVCDXUTControl@@PAV1@PAV1@@std@@YAPAPAVCDXUTControl@@PAPAV1@00AAU?$_Wrap_alloc@V?$allocator@PAVCDXUTControl@@@std@@@0@0U_Scalar_ptr_iterator_tag@0@@Z ; std::_Uninit_move<CDXUTControl *,CDXUTControl *,CDXUTControl *>
PUBLIC	??$_Val_type@PAPAUDXUTElementHolder@@@std@@YAPAPAUDXUTElementHolder@@PAPAU1@@Z ; std::_Val_type<DXUTElementHolder * *>
PUBLIC	??$_Uninit_move@PAUDXUTElementHolder@@PAU1@PAU1@@std@@YAPAPAUDXUTElementHolder@@PAPAU1@00AAU?$_Wrap_alloc@V?$allocator@PAUDXUTElementHolder@@@std@@@0@0U_Scalar_ptr_iterator_tag@0@@Z ; std::_Uninit_move<DXUTElementHolder *,DXUTElementHolder *,DXUTElementHolder *>
PUBLIC	??$_Val_type@PAUDXUTSpriteVertex@@@std@@YAPAUDXUTSpriteVertex@@PAU1@@Z ; std::_Val_type<DXUTSpriteVertex *>
PUBLIC	??$_Uninit_move@PAUDXUTSpriteVertex@@PAU1@V?$allocator@UDXUTSpriteVertex@@@std@@U1@@std@@YAPAUDXUTSpriteVertex@@PAU1@00AAU?$_Wrap_alloc@V?$allocator@UDXUTSpriteVertex@@@std@@@0@0U_Nonscalar_ptr_iterator_tag@0@@Z ; std::_Uninit_move<DXUTSpriteVertex *,DXUTSpriteVertex *,std::allocator<DXUTSpriteVertex>,DXUTSpriteVertex>
PUBLIC	??$_Val_type@PAPAVCDXUTDialog@@@std@@YAPAPAVCDXUTDialog@@PAPAV1@@Z ; std::_Val_type<CDXUTDialog * *>
PUBLIC	??$_Uninit_move@PAVCDXUTDialog@@PAV1@PAV1@@std@@YAPAPAVCDXUTDialog@@PAPAV1@00AAU?$_Wrap_alloc@V?$allocator@PAVCDXUTDialog@@@std@@@0@0U_Scalar_ptr_iterator_tag@0@@Z ; std::_Uninit_move<CDXUTDialog *,CDXUTDialog *,CDXUTDialog *>
PUBLIC	??$_Val_type@PAPAUDXUTTextureNode@@@std@@YAPAPAUDXUTTextureNode@@PAPAU1@@Z ; std::_Val_type<DXUTTextureNode * *>
PUBLIC	??$_Uninit_move@PAUDXUTTextureNode@@PAU1@PAU1@@std@@YAPAPAUDXUTTextureNode@@PAPAU1@00AAU?$_Wrap_alloc@V?$allocator@PAUDXUTTextureNode@@@std@@@0@0U_Scalar_ptr_iterator_tag@0@@Z ; std::_Uninit_move<DXUTTextureNode *,DXUTTextureNode *,DXUTTextureNode *>
PUBLIC	??$_Val_type@PAPAUDXUTFontNode@@@std@@YAPAPAUDXUTFontNode@@PAPAU1@@Z ; std::_Val_type<DXUTFontNode * *>
PUBLIC	??$_Uninit_move@PAUDXUTFontNode@@PAU1@PAU1@@std@@YAPAPAUDXUTFontNode@@PAPAU1@00AAU?$_Wrap_alloc@V?$allocator@PAUDXUTFontNode@@@std@@@0@0U_Scalar_ptr_iterator_tag@0@@Z ; std::_Uninit_move<DXUTFontNode *,DXUTFontNode *,DXUTFontNode *>
PUBLIC	??$_Val_type@PAPAVCDXUTElement@@@std@@YAPAPAVCDXUTElement@@PAPAV1@@Z ; std::_Val_type<CDXUTElement * *>
PUBLIC	??$_Uninit_move@PAVCDXUTElement@@PAV1@PAV1@@std@@YAPAPAVCDXUTElement@@PAPAV1@00AAU?$_Wrap_alloc@V?$allocator@PAVCDXUTElement@@@std@@@0@0U_Scalar_ptr_iterator_tag@0@@Z ; std::_Uninit_move<CDXUTElement *,CDXUTElement *,CDXUTElement *>
PUBLIC	??$_Val_type@PAPAUDXUTListBoxItem@@@std@@YAPAPAUDXUTListBoxItem@@PAPAU1@@Z ; std::_Val_type<DXUTListBoxItem * *>
PUBLIC	??$_Uninit_move@PAUDXUTListBoxItem@@PAU1@PAU1@@std@@YAPAPAUDXUTListBoxItem@@PAPAU1@00AAU?$_Wrap_alloc@V?$allocator@PAUDXUTListBoxItem@@@std@@@0@0U_Scalar_ptr_iterator_tag@0@@Z ; std::_Uninit_move<DXUTListBoxItem *,DXUTListBoxItem *,DXUTListBoxItem *>
PUBLIC	??$_Val_type@PAPAUDXUTComboBoxItem@@@std@@YAPAPAUDXUTComboBoxItem@@PAPAU1@@Z ; std::_Val_type<DXUTComboBoxItem * *>
PUBLIC	??$_Uninit_move@PAUDXUTComboBoxItem@@PAU1@PAU1@@std@@YAPAPAUDXUTComboBoxItem@@PAPAU1@00AAU?$_Wrap_alloc@V?$allocator@PAUDXUTComboBoxItem@@@std@@@0@0U_Scalar_ptr_iterator_tag@0@@Z ; std::_Uninit_move<DXUTComboBoxItem *,DXUTComboBoxItem *,DXUTComboBoxItem *>
PUBLIC	??$destroy@UDXUTSpriteVertex@@@?$allocator@UDXUTSpriteVertex@@@std@@QAEXPAUDXUTSpriteVertex@@@Z ; std::allocator<DXUTSpriteVertex>::destroy<DXUTSpriteVertex>
PUBLIC	??$_Debug_range@PAH@std@@YAXPAH0PB_WI@Z		; std::_Debug_range<int *>
PUBLIC	??$_Debug_pointer@H@std@@YAXPAHPB_WI@Z		; std::_Debug_pointer<int>
PUBLIC	??$_Debug_range@PAPAVCDXUTControl@@@std@@YAXPAPAVCDXUTControl@@0PB_WI@Z ; std::_Debug_range<CDXUTControl * *>
PUBLIC	??$_Debug_pointer@PAVCDXUTControl@@@std@@YAXPAPAVCDXUTControl@@PB_WI@Z ; std::_Debug_pointer<CDXUTControl *>
PUBLIC	??$_Debug_range@PAPAUDXUTElementHolder@@@std@@YAXPAPAUDXUTElementHolder@@0PB_WI@Z ; std::_Debug_range<DXUTElementHolder * *>
PUBLIC	??$_Debug_pointer@PAUDXUTElementHolder@@@std@@YAXPAPAUDXUTElementHolder@@PB_WI@Z ; std::_Debug_pointer<DXUTElementHolder *>
PUBLIC	??$_Debug_range@PAUDXUTSpriteVertex@@@std@@YAXPAUDXUTSpriteVertex@@0PB_WI@Z ; std::_Debug_range<DXUTSpriteVertex *>
PUBLIC	??$_Debug_pointer@UDXUTSpriteVertex@@@std@@YAXPAUDXUTSpriteVertex@@PB_WI@Z ; std::_Debug_pointer<DXUTSpriteVertex>
PUBLIC	??$construct@UDXUTSpriteVertex@@U1@@?$_Wrap_alloc@V?$allocator@UDXUTSpriteVertex@@@std@@@std@@QAEXPAUDXUTSpriteVertex@@$$QAU2@@Z ; std::_Wrap_alloc<std::allocator<DXUTSpriteVertex> >::construct<DXUTSpriteVertex,DXUTSpriteVertex>
PUBLIC	??$_Debug_range@PAPAVCDXUTDialog@@@std@@YAXPAPAVCDXUTDialog@@0PB_WI@Z ; std::_Debug_range<CDXUTDialog * *>
PUBLIC	??$_Debug_pointer@PAVCDXUTDialog@@@std@@YAXPAPAVCDXUTDialog@@PB_WI@Z ; std::_Debug_pointer<CDXUTDialog *>
PUBLIC	??$_Debug_range@PAPAUDXUTTextureNode@@@std@@YAXPAPAUDXUTTextureNode@@0PB_WI@Z ; std::_Debug_range<DXUTTextureNode * *>
PUBLIC	??$_Debug_pointer@PAUDXUTTextureNode@@@std@@YAXPAPAUDXUTTextureNode@@PB_WI@Z ; std::_Debug_pointer<DXUTTextureNode *>
PUBLIC	??$_Debug_range@PAPAUDXUTFontNode@@@std@@YAXPAPAUDXUTFontNode@@0PB_WI@Z ; std::_Debug_range<DXUTFontNode * *>
PUBLIC	??$_Debug_pointer@PAUDXUTFontNode@@@std@@YAXPAPAUDXUTFontNode@@PB_WI@Z ; std::_Debug_pointer<DXUTFontNode *>
PUBLIC	??$_Debug_range@PAPAVCDXUTElement@@@std@@YAXPAPAVCDXUTElement@@0PB_WI@Z ; std::_Debug_range<CDXUTElement * *>
PUBLIC	??$_Debug_pointer@PAVCDXUTElement@@@std@@YAXPAPAVCDXUTElement@@PB_WI@Z ; std::_Debug_pointer<CDXUTElement *>
PUBLIC	??$_Debug_range@PAPAUDXUTListBoxItem@@@std@@YAXPAPAUDXUTListBoxItem@@0PB_WI@Z ; std::_Debug_range<DXUTListBoxItem * *>
PUBLIC	??$_Debug_pointer@PAUDXUTListBoxItem@@@std@@YAXPAPAUDXUTListBoxItem@@PB_WI@Z ; std::_Debug_pointer<DXUTListBoxItem *>
PUBLIC	??$_Debug_range@PAPAUDXUTComboBoxItem@@@std@@YAXPAPAUDXUTComboBoxItem@@0PB_WI@Z ; std::_Debug_range<DXUTComboBoxItem * *>
PUBLIC	??$_Debug_pointer@PAUDXUTComboBoxItem@@@std@@YAXPAPAUDXUTComboBoxItem@@PB_WI@Z ; std::_Debug_pointer<DXUTComboBoxItem *>
PUBLIC	??$_Iter_cat@PAH@std@@YA?AUrandom_access_iterator_tag@0@ABQAH@Z ; std::_Iter_cat<int *>
PUBLIC	??$_Debug_range2@PAH@std@@YAXPAH0PB_WIUrandom_access_iterator_tag@0@@Z ; std::_Debug_range2<int *>
PUBLIC	??$_Iter_cat@PAPAVCDXUTControl@@@std@@YA?AUrandom_access_iterator_tag@0@ABQAPAVCDXUTControl@@@Z ; std::_Iter_cat<CDXUTControl * *>
PUBLIC	??$_Debug_range2@PAPAVCDXUTControl@@@std@@YAXPAPAVCDXUTControl@@0PB_WIUrandom_access_iterator_tag@0@@Z ; std::_Debug_range2<CDXUTControl * *>
PUBLIC	??$_Iter_cat@PAPAUDXUTElementHolder@@@std@@YA?AUrandom_access_iterator_tag@0@ABQAPAUDXUTElementHolder@@@Z ; std::_Iter_cat<DXUTElementHolder * *>
PUBLIC	??$_Debug_range2@PAPAUDXUTElementHolder@@@std@@YAXPAPAUDXUTElementHolder@@0PB_WIUrandom_access_iterator_tag@0@@Z ; std::_Debug_range2<DXUTElementHolder * *>
PUBLIC	??$_Iter_cat@PAUDXUTSpriteVertex@@@std@@YA?AUrandom_access_iterator_tag@0@ABQAUDXUTSpriteVertex@@@Z ; std::_Iter_cat<DXUTSpriteVertex *>
PUBLIC	??$_Debug_range2@PAUDXUTSpriteVertex@@@std@@YAXPAUDXUTSpriteVertex@@0PB_WIUrandom_access_iterator_tag@0@@Z ; std::_Debug_range2<DXUTSpriteVertex *>
PUBLIC	??$forward@UDXUTSpriteVertex@@@std@@YA$$QAUDXUTSpriteVertex@@AAU1@@Z ; std::forward<DXUTSpriteVertex>
PUBLIC	??$construct@UDXUTSpriteVertex@@U1@@?$allocator_traits@V?$allocator@UDXUTSpriteVertex@@@std@@@std@@SAXAAV?$allocator@UDXUTSpriteVertex@@@1@PAUDXUTSpriteVertex@@$$QAU3@@Z ; std::allocator_traits<std::allocator<DXUTSpriteVertex> >::construct<DXUTSpriteVertex,DXUTSpriteVertex>
PUBLIC	??$_Iter_cat@PAPAVCDXUTDialog@@@std@@YA?AUrandom_access_iterator_tag@0@ABQAPAVCDXUTDialog@@@Z ; std::_Iter_cat<CDXUTDialog * *>
PUBLIC	??$_Debug_range2@PAPAVCDXUTDialog@@@std@@YAXPAPAVCDXUTDialog@@0PB_WIUrandom_access_iterator_tag@0@@Z ; std::_Debug_range2<CDXUTDialog * *>
PUBLIC	??$_Iter_cat@PAPAUDXUTTextureNode@@@std@@YA?AUrandom_access_iterator_tag@0@ABQAPAUDXUTTextureNode@@@Z ; std::_Iter_cat<DXUTTextureNode * *>
PUBLIC	??$_Debug_range2@PAPAUDXUTTextureNode@@@std@@YAXPAPAUDXUTTextureNode@@0PB_WIUrandom_access_iterator_tag@0@@Z ; std::_Debug_range2<DXUTTextureNode * *>
PUBLIC	??$_Iter_cat@PAPAUDXUTFontNode@@@std@@YA?AUrandom_access_iterator_tag@0@ABQAPAUDXUTFontNode@@@Z ; std::_Iter_cat<DXUTFontNode * *>
PUBLIC	??$_Debug_range2@PAPAUDXUTFontNode@@@std@@YAXPAPAUDXUTFontNode@@0PB_WIUrandom_access_iterator_tag@0@@Z ; std::_Debug_range2<DXUTFontNode * *>
PUBLIC	??$_Iter_cat@PAPAVCDXUTElement@@@std@@YA?AUrandom_access_iterator_tag@0@ABQAPAVCDXUTElement@@@Z ; std::_Iter_cat<CDXUTElement * *>
PUBLIC	??$_Debug_range2@PAPAVCDXUTElement@@@std@@YAXPAPAVCDXUTElement@@0PB_WIUrandom_access_iterator_tag@0@@Z ; std::_Debug_range2<CDXUTElement * *>
PUBLIC	??$_Iter_cat@PAPAUDXUTListBoxItem@@@std@@YA?AUrandom_access_iterator_tag@0@ABQAPAUDXUTListBoxItem@@@Z ; std::_Iter_cat<DXUTListBoxItem * *>
PUBLIC	??$_Debug_range2@PAPAUDXUTListBoxItem@@@std@@YAXPAPAUDXUTListBoxItem@@0PB_WIUrandom_access_iterator_tag@0@@Z ; std::_Debug_range2<DXUTListBoxItem * *>
PUBLIC	??$_Iter_cat@PAPAUDXUTComboBoxItem@@@std@@YA?AUrandom_access_iterator_tag@0@ABQAPAUDXUTComboBoxItem@@@Z ; std::_Iter_cat<DXUTComboBoxItem * *>
PUBLIC	??$_Debug_range2@PAPAUDXUTComboBoxItem@@@std@@YAXPAPAUDXUTComboBoxItem@@0PB_WIUrandom_access_iterator_tag@0@@Z ; std::_Debug_range2<DXUTComboBoxItem * *>
PUBLIC	??$construct@UDXUTSpriteVertex@@U1@@?$allocator@UDXUTSpriteVertex@@@std@@QAEXPAUDXUTSpriteVertex@@$$QAU2@@Z ; std::allocator<DXUTSpriteVertex>::construct<DXUTSpriteVertex,DXUTSpriteVertex>
PUBLIC	??_C@_15GANGMFKL@?$AA?$CF?$AAs?$AA?$AA@		; `string'
PUBLIC	??_C@_1JE@EKCDEKPD@?$AAc?$AA?3?$AA?2?$AAp?$AAr?$AAo?$AAg?$AAr?$AAa?$AAm?$AA?5?$AAf?$AAi?$AAl?$AAe?$AAs?$AA?5?$AA?$CI?$AAx?$AA8?$AA6?$AA?$CJ?$AA?2?$AAw?$AAi?$AAn?$AAd?$AAo?$AAw?$AAs?$AA?5?$AAk@ ; `string'
PUBLIC	??_C@_1BA@LBADLIHI@?$AAp?$AAS?$AAo?$AAu?$AAr?$AAc?$AAe?$AA?$AA@ ; `string'
PUBLIC	??_C@_1BK@FHLBGAOP@?$AAp?$AAD?$AAe?$AAs?$AAt?$AAi?$AAn?$AAa?$AAt?$AAi?$AAo?$AAn?$AA?$AA@ ; `string'
PUBLIC	??_C@_1JA@EADLBAJ@?$AAC?$AA?3?$AA?2?$AAP?$AAr?$AAo?$AAg?$AAr?$AAa?$AAm?$AA?5?$AAF?$AAi?$AAl?$AAe?$AAs?$AA?5?$AA?$CI?$AAx?$AA8?$AA6?$AA?$CJ?$AA?2?$AAM?$AAi?$AAc?$AAr?$AAo?$AAs?$AAo?$AAf?$AAt@ ; `string'
PUBLIC	??_C@_1DC@POOIKBAO@?$AAI?$AAT?$AAE?$AAR?$AAA?$AAT?$AAO?$AAR?$AA?5?$AAL?$AAI?$AAS?$AAT?$AA?5?$AAC?$AAO?$AAR?$AAR?$AAU?$AAP?$AAT?$AAE?$AAD?$AA?$CB?$AA?$AA@ ; `string'
PUBLIC	??_7CDXUTControl@@6B@				; CDXUTControl::`vftable'
PUBLIC	??_7CDXUTStatic@@6B@				; CDXUTStatic::`vftable'
PUBLIC	??_7CDXUTButton@@6B@				; CDXUTButton::`vftable'
PUBLIC	??_7CDXUTCheckBox@@6B@				; CDXUTCheckBox::`vftable'
PUBLIC	??_7CDXUTRadioButton@@6B@			; CDXUTRadioButton::`vftable'
PUBLIC	??_7CDXUTScrollBar@@6B@				; CDXUTScrollBar::`vftable'
PUBLIC	??_7CDXUTListBox@@6B@				; CDXUTListBox::`vftable'
PUBLIC	??_7CDXUTComboBox@@6B@				; CDXUTComboBox::`vftable'
PUBLIC	??_7CDXUTSlider@@6B@				; CDXUTSlider::`vftable'
PUBLIC	??_7CDXUTEditBox@@6B@				; CDXUTEditBox::`vftable'
PUBLIC	?g_FontVertices@@3V?$vector@UDXUTSpriteVertex@@V?$allocator@UDXUTSpriteVertex@@@std@@@std@@A ; g_FontVertices
PUBLIC	??_C@_1IM@EINEHPHE@?$AAC?$AA?3?$AA?2?$AAP?$AAr?$AAo?$AAg?$AAr?$AAa?$AAm?$AA?5?$AAF?$AAi?$AAl?$AAe?$AAs?$AA?5?$AA?$CI?$AAx?$AA8?$AA6?$AA?$CJ?$AA?2?$AAM?$AAi?$AAc?$AAr?$AAo?$AAs?$AAo?$AAf?$AAt@ ; `string'
PUBLIC	??_C@_1DM@LHGCHCBA@?$AAv?$AAe?$AAc?$AAt?$AAo?$AAr?$AA?5?$AAs?$AAu?$AAb?$AAs?$AAc?$AAr?$AAi?$AAp?$AAt?$AA?5?$AAo?$AAu?$AAt?$AA?5?$AAo?$AAf?$AA?5?$AAr?$AAa?$AAn?$AAg?$AAe?$AA?$AA@ ; `string'
PUBLIC	??_C@_0CE@OFMIGAMM@Standard?5C?$CL?$CL?5Libraries?5Out?5of?5Ra@ ; `string'
PUBLIC	??_C@_1FG@IBPIFFN@?$AA?$CC?$AAS?$AAt?$AAa?$AAn?$AAd?$AAa?$AAr?$AAd?$AA?5?$AAC?$AA?$CL?$AA?$CL?$AA?5?$AAL?$AAi?$AAb?$AAr?$AAa?$AAr?$AAi?$AAe?$AAs?$AA?5?$AAO?$AAu?$AAt?$AA?5?$AAo?$AAf?$AA?5?$AAR@ ; `string'
PUBLIC	??_C@_1HC@HBCEAHKD@?$AAs?$AAt?$AAd?$AA?3?$AA?3?$AAv?$AAe?$AAc?$AAt?$AAo?$AAr?$AA?$DM?$AAi?$AAn?$AAt?$AA?0?$AAc?$AAl?$AAa?$AAs?$AAs?$AA?5?$AAs?$AAt?$AAd?$AA?3?$AA?3?$AAa?$AAl?$AAl?$AAo?$AAc@ ; `string'
PUBLIC	??_C@_1BO@MEPPHOO@?$AA?$CC?$AAo?$AAu?$AAt?$AA?5?$AAo?$AAf?$AA?5?$AAr?$AAa?$AAn?$AAg?$AAe?$AA?$CC?$AA?$AA@ ; `string'
PUBLIC	??_C@_1LG@LOFDFDLG@?$AAs?$AAt?$AAd?$AA?3?$AA?3?$AAv?$AAe?$AAc?$AAt?$AAo?$AAr?$AA?$DM?$AAc?$AAl?$AAa?$AAs?$AAs?$AA?5?$AAC?$AAD?$AAX?$AAU?$AAT?$AAC?$AAo?$AAn?$AAt?$AAr?$AAo?$AAl?$AA?5?$AA?$CK@ ; `string'
PUBLIC	??_C@_1EI@HGIDLLCM@?$AAv?$AAe?$AAc?$AAt?$AAo?$AAr?$AA?5?$AAe?$AAr?$AAa?$AAs?$AAe?$AA?5?$AAi?$AAt?$AAe?$AAr?$AAa?$AAt?$AAo?$AAr?$AA?5?$AAo?$AAu?$AAt?$AAs?$AAi?$AAd?$AAe?$AA?5?$AAr?$AAa@ ; `string'
PUBLIC	??_C@_1MC@PPMNDGOK@?$AAs?$AAt?$AAd?$AA?3?$AA?3?$AAv?$AAe?$AAc?$AAt?$AAo?$AAr?$AA?$DM?$AAs?$AAt?$AAr?$AAu?$AAc?$AAt?$AA?5?$AAD?$AAX?$AAU?$AAT?$AAS?$AAp?$AAr?$AAi?$AAt?$AAe?$AAV?$AAe?$AAr@ ; `string'
PUBLIC	??_C@_1LC@FGIBGBJG@?$AAs?$AAt?$AAd?$AA?3?$AA?3?$AAv?$AAe?$AAc?$AAt?$AAo?$AAr?$AA?$DM?$AAc?$AAl?$AAa?$AAs?$AAs?$AA?5?$AAC?$AAD?$AAX?$AAU?$AAT?$AAD?$AAi?$AAa?$AAl?$AAo?$AAg?$AA?5?$AA?$CK?$AA?0@ ; `string'
PUBLIC	??_C@_1MG@LCIEHLLM@?$AAs?$AAt?$AAd?$AA?3?$AA?3?$AAv?$AAe?$AAc?$AAt?$AAo?$AAr?$AA?$DM?$AAs?$AAt?$AAr?$AAu?$AAc?$AAt?$AA?5?$AAD?$AAX?$AAU?$AAT?$AAT?$AAe?$AAx?$AAt?$AAu?$AAr?$AAe?$AAN?$AAo@ ; `string'
PUBLIC	??_C@_1LK@BMEBJNCM@?$AAs?$AAt?$AAd?$AA?3?$AA?3?$AAv?$AAe?$AAc?$AAt?$AAo?$AAr?$AA?$DM?$AAs?$AAt?$AAr?$AAu?$AAc?$AAt?$AA?5?$AAD?$AAX?$AAU?$AAT?$AAF?$AAo?$AAn?$AAt?$AAN?$AAo?$AAd?$AAe?$AA?5@ ; `string'
PUBLIC	??_C@_1LG@FALFGADF@?$AAs?$AAt?$AAd?$AA?3?$AA?3?$AAv?$AAe?$AAc?$AAt?$AAo?$AAr?$AA?$DM?$AAc?$AAl?$AAa?$AAs?$AAs?$AA?5?$AAC?$AAD?$AAX?$AAU?$AAT?$AAE?$AAl?$AAe?$AAm?$AAe?$AAn?$AAt?$AA?5?$AA?$CK@ ; `string'
PUBLIC	??_C@_1MG@CFBLHEIG@?$AAs?$AAt?$AAd?$AA?3?$AA?3?$AAv?$AAe?$AAc?$AAt?$AAo?$AAr?$AA?$DM?$AAs?$AAt?$AAr?$AAu?$AAc?$AAt?$AA?5?$AAD?$AAX?$AAU?$AAT?$AAL?$AAi?$AAs?$AAt?$AAB?$AAo?$AAx?$AAI?$AAt@ ; `string'
PUBLIC	??_C@_1MK@BPGBLFNH@?$AAs?$AAt?$AAd?$AA?3?$AA?3?$AAv?$AAe?$AAc?$AAt?$AAo?$AAr?$AA?$DM?$AAs?$AAt?$AAr?$AAu?$AAc?$AAt?$AA?5?$AAD?$AAX?$AAU?$AAT?$AAC?$AAo?$AAm?$AAb?$AAo?$AAB?$AAo?$AAx?$AAI@ ; `string'
PUBLIC	??_C@_1EG@FOHJJHAC@?$AAv?$AAe?$AAc?$AAt?$AAo?$AAr?$AA?5?$AAi?$AAt?$AAe?$AAr?$AAa?$AAt?$AAo?$AAr?$AA?5?$AAn?$AAo?$AAt?$AA?5?$AAd?$AAe?$AAr?$AAe?$AAf?$AAe?$AAr?$AAe?$AAn?$AAc?$AAa?$AAb@ ; `string'
PUBLIC	??_C@_1PC@LCHCOHCA@?$AAs?$AAt?$AAd?$AA?3?$AA?3?$AA_?$AAV?$AAe?$AAc?$AAt?$AAo?$AAr?$AA_?$AAc?$AAo?$AAn?$AAs?$AAt?$AA_?$AAi?$AAt?$AAe?$AAr?$AAa?$AAt?$AAo?$AAr?$AA?$DM?$AAc?$AAl?$AAa?$AAs@ ; `string'
PUBLIC	??_C@_1EE@EJDKCLKB@?$AAv?$AAe?$AAc?$AAt?$AAo?$AAr?$AA?5?$AAi?$AAt?$AAe?$AAr?$AAa?$AAt?$AAo?$AAr?$AA?5?$AAn?$AAo?$AAt?$AA?5?$AAi?$AAn?$AAc?$AAr?$AAe?$AAm?$AAe?$AAn?$AAt?$AAa?$AAb?$AAl@ ; `string'
PUBLIC	??_C@_1PE@BHIFBKJB@?$AAs?$AAt?$AAd?$AA?3?$AA?3?$AA_?$AAV?$AAe?$AAc?$AAt?$AAo?$AAr?$AA_?$AAc?$AAo?$AAn?$AAs?$AAt?$AA_?$AAi?$AAt?$AAe?$AAr?$AAa?$AAt?$AAo?$AAr?$AA?$DM?$AAc?$AAl?$AAa?$AAs@ ; `string'
PUBLIC	??_C@_1OG@LHDFBDGG@?$AAs?$AAt?$AAd?$AA?3?$AA?3?$AA_?$AAV?$AAe?$AAc?$AAt?$AAo?$AAr?$AA_?$AAc?$AAo?$AAn?$AAs?$AAt?$AA_?$AAi?$AAt?$AAe?$AAr?$AAa?$AAt?$AAo?$AAr?$AA?$DM?$AAc?$AAl?$AAa?$AAs@ ; `string'
PUBLIC	??_C@_1OI@LHGMBFA@?$AAs?$AAt?$AAd?$AA?3?$AA?3?$AA_?$AAV?$AAe?$AAc?$AAt?$AAo?$AAr?$AA_?$AAc?$AAo?$AAn?$AAs?$AAt?$AA_?$AAi?$AAt?$AAe?$AAr?$AAa?$AAt?$AAo?$AAr?$AA?$DM?$AAc?$AAl?$AAa?$AAs@ ; `string'
PUBLIC	??_C@_1OE@DNPOOEP@?$AAs?$AAt?$AAd?$AA?3?$AA?3?$AA_?$AAV?$AAe?$AAc?$AAt?$AAo?$AAr?$AA_?$AAc?$AAo?$AAn?$AAs?$AAt?$AA_?$AAi?$AAt?$AAe?$AAr?$AAa?$AAt?$AAo?$AAr?$AA?$DM?$AAc?$AAl?$AAa?$AAs@ ; `string'
PUBLIC	??_C@_1OG@IMDMGEPA@?$AAs?$AAt?$AAd?$AA?3?$AA?3?$AA_?$AAV?$AAe?$AAc?$AAt?$AAo?$AAr?$AA_?$AAc?$AAo?$AAn?$AAs?$AAt?$AA_?$AAi?$AAt?$AAe?$AAr?$AAa?$AAt?$AAo?$AAr?$AA?$DM?$AAc?$AAl?$AAa?$AAs@ ; `string'
PUBLIC	??_C@_1EE@OEIJAKGE@?$AAv?$AAe?$AAc?$AAt?$AAo?$AAr?$AA?5?$AAi?$AAt?$AAe?$AAr?$AAa?$AAt?$AAo?$AAr?$AA?5?$AAn?$AAo?$AAt?$AA?5?$AAd?$AAe?$AAc?$AAr?$AAe?$AAm?$AAe?$AAn?$AAt?$AAa?$AAb?$AAl@ ; `string'
PUBLIC	??_C@_1OG@HPAONIDB@?$AAs?$AAt?$AAd?$AA?3?$AA?3?$AA_?$AAV?$AAe?$AAc?$AAt?$AAo?$AAr?$AA_?$AAc?$AAo?$AAn?$AAs?$AAt?$AA_?$AAi?$AAt?$AAe?$AAr?$AAa?$AAt?$AAo?$AAr?$AA?$DM?$AAc?$AAl?$AAa?$AAs@ ; `string'
PUBLIC	??_C@_1DM@HINDPMBP@?$AAv?$AAe?$AAc?$AAt?$AAo?$AAr?$AA?5?$AAi?$AAt?$AAe?$AAr?$AAa?$AAt?$AAo?$AAr?$AAs?$AA?5?$AAi?$AAn?$AAc?$AAo?$AAm?$AAp?$AAa?$AAt?$AAi?$AAb?$AAl?$AAe?$AA?$AA@ ; `string'
PUBLIC	??_C@_0CI@FNPHFCCM@Standard?5C?$CL?$CL?5Libraries?5Invalid?5A@ ; `string'
PUBLIC	??_C@_1FO@GJIHNDLM@?$AA?$CC?$AAS?$AAt?$AAa?$AAn?$AAd?$AAa?$AAr?$AAd?$AA?5?$AAC?$AA?$CL?$AA?$CL?$AA?5?$AAL?$AAi?$AAb?$AAr?$AAa?$AAr?$AAi?$AAe?$AAs?$AA?5?$AAI?$AAn?$AAv?$AAa?$AAl?$AAi?$AAd?$AA?5@ ; `string'
PUBLIC	??_C@_1NO@GEPBEGLJ@?$AAs?$AAt?$AAd?$AA?3?$AA?3?$AA_?$AAV?$AAe?$AAc?$AAt?$AAo?$AAr?$AA_?$AAc?$AAo?$AAn?$AAs?$AAt?$AA_?$AAi?$AAt?$AAe?$AAr?$AAa?$AAt?$AAo?$AAr?$AA?$DM?$AAc?$AAl?$AAa?$AAs@ ; `string'
PUBLIC	??_C@_1CG@JNLFBNGN@?$AA?$CC?$AAi?$AAn?$AAv?$AAa?$AAl?$AAi?$AAd?$AA?5?$AAa?$AAr?$AAg?$AAu?$AAm?$AAe?$AAn?$AAt?$AA?$CC?$AA?$AA@ ; `string'
PUBLIC	??_C@_1OI@FBJKENND@?$AAs?$AAt?$AAd?$AA?3?$AA?3?$AA_?$AAV?$AAe?$AAc?$AAt?$AAo?$AAr?$AA_?$AAc?$AAo?$AAn?$AAs?$AAt?$AA_?$AAi?$AAt?$AAe?$AAr?$AAa?$AAt?$AAo?$AAr?$AA?$DM?$AAc?$AAl?$AAa?$AAs@ ; `string'
PUBLIC	??_C@_1OK@BOBHABPB@?$AAs?$AAt?$AAd?$AA?3?$AA?3?$AA_?$AAV?$AAe?$AAc?$AAt?$AAo?$AAr?$AA_?$AAc?$AAo?$AAn?$AAs?$AAt?$AA_?$AAi?$AAt?$AAe?$AAr?$AAa?$AAt?$AAo?$AAr?$AA?$DM?$AAc?$AAl?$AAa?$AAs@ ; `string'
PUBLIC	??_C@_1OO@JBDIDCFE@?$AAs?$AAt?$AAd?$AA?3?$AA?3?$AA_?$AAV?$AAe?$AAc?$AAt?$AAo?$AAr?$AA_?$AAc?$AAo?$AAn?$AAs?$AAt?$AA_?$AAi?$AAt?$AAe?$AAr?$AAa?$AAt?$AAo?$AAr?$AA?$DM?$AAc?$AAl?$AAa?$AAs@ ; `string'
PUBLIC	??_C@_1PA@KKGPKDHC@?$AAs?$AAt?$AAd?$AA?3?$AA?3?$AA_?$AAV?$AAe?$AAc?$AAt?$AAo?$AAr?$AA_?$AAc?$AAo?$AAn?$AAs?$AAt?$AA_?$AAi?$AAt?$AAe?$AAr?$AAa?$AAt?$AAo?$AAr?$AA?$DM?$AAc?$AAl?$AAa?$AAs@ ; `string'
PUBLIC	??_C@_1OG@MGFHFIJB@?$AAs?$AAt?$AAd?$AA?3?$AA?3?$AA_?$AAV?$AAe?$AAc?$AAt?$AAo?$AAr?$AA_?$AAc?$AAo?$AAn?$AAs?$AAt?$AA_?$AAi?$AAt?$AAe?$AAr?$AAa?$AAt?$AAo?$AAr?$AA?$DM?$AAc?$AAl?$AAa?$AAs@ ; `string'
PUBLIC	??_C@_1OI@LBIFFPFA@?$AAs?$AAt?$AAd?$AA?3?$AA?3?$AA_?$AAV?$AAe?$AAc?$AAt?$AAo?$AAr?$AA_?$AAc?$AAo?$AAn?$AAs?$AAt?$AA_?$AAi?$AAt?$AAe?$AAr?$AAa?$AAt?$AAo?$AAr?$AA?$DM?$AAc?$AAl?$AAa?$AAs@ ; `string'
PUBLIC	??_C@_1PA@PDJMOHH@?$AAs?$AAt?$AAd?$AA?3?$AA?3?$AA_?$AAV?$AAe?$AAc?$AAt?$AAo?$AAr?$AA_?$AAc?$AAo?$AAn?$AAs?$AAt?$AA_?$AAi?$AAt?$AAe?$AAr?$AAa?$AAt?$AAo?$AAr?$AA?$DM?$AAc?$AAl?$AAa?$AAs@ ; `string'
PUBLIC	??_C@_1PC@KAMNPECF@?$AAs?$AAt?$AAd?$AA?3?$AA?3?$AA_?$AAV?$AAe?$AAc?$AAt?$AAo?$AAr?$AA_?$AAc?$AAo?$AAn?$AAs?$AAt?$AA_?$AAi?$AAt?$AAe?$AAr?$AAa?$AAt?$AAo?$AAr?$AA?$DM?$AAc?$AAl?$AAa?$AAs@ ; `string'
PUBLIC	??_C@_1OO@ILLLNOL@?$AAs?$AAt?$AAd?$AA?3?$AA?3?$AA_?$AAV?$AAe?$AAc?$AAt?$AAo?$AAr?$AA_?$AAc?$AAo?$AAn?$AAs?$AAt?$AA_?$AAi?$AAt?$AAe?$AAr?$AAa?$AAt?$AAo?$AAr?$AA?$DM?$AAc?$AAl?$AAa?$AAs@ ; `string'
PUBLIC	??_C@_1PA@LEDFBGDH@?$AAs?$AAt?$AAd?$AA?3?$AA?3?$AA_?$AAV?$AAe?$AAc?$AAt?$AAo?$AAr?$AA_?$AAc?$AAo?$AAn?$AAs?$AAt?$AA_?$AAi?$AAt?$AAe?$AAr?$AAa?$AAt?$AAo?$AAr?$AA?$DM?$AAc?$AAl?$AAa?$AAs@ ; `string'
PUBLIC	??_C@_0BD@OLBABOEK@vector?$DMT?$DO?5too?5long?$AA@ ; `string'
PUBLIC	??_C@_1OM@BBFNGLMP@?$AAs?$AAt?$AAd?$AA?3?$AA?3?$AA_?$AAV?$AAe?$AAc?$AAt?$AAo?$AAr?$AA_?$AAc?$AAo?$AAn?$AAs?$AAt?$AA_?$AAi?$AAt?$AAe?$AAr?$AAa?$AAt?$AAo?$AAr?$AA?$DM?$AAc?$AAl?$AAa?$AAs@ ; `string'
PUBLIC	??_C@_1OA@KPONDLEA@?$AAs?$AAt?$AAd?$AA?3?$AA?3?$AA_?$AAV?$AAe?$AAc?$AAt?$AAo?$AAr?$AA_?$AAc?$AAo?$AAn?$AAs?$AAt?$AA_?$AAi?$AAt?$AAe?$AAr?$AAa?$AAt?$AAo?$AAr?$AA?$DM?$AAc?$AAl?$AAa?$AAs@ ; `string'
PUBLIC	??_C@_1EM@FKAOCOMF@?$AAv?$AAe?$AAc?$AAt?$AAo?$AAr?$AA?5?$AAi?$AAt?$AAe?$AAr?$AAa?$AAt?$AAo?$AAr?$AA?5?$AA?$CL?$AA?5?$AAo?$AAf?$AAf?$AAs?$AAe?$AAt?$AA?5?$AAo?$AAu?$AAt?$AA?5?$AAo?$AAf?$AA?5@ ; `string'
PUBLIC	??_C@_1OG@PJEOGMLD@?$AAs?$AAt?$AAd?$AA?3?$AA?3?$AA_?$AAV?$AAe?$AAc?$AAt?$AAo?$AAr?$AA_?$AAc?$AAo?$AAn?$AAs?$AAt?$AA_?$AAi?$AAt?$AAe?$AAr?$AAa?$AAt?$AAo?$AAr?$AA?$DM?$AAc?$AAl?$AAa?$AAs@ ; `string'
PUBLIC	??_C@_1OC@GPGLLJFM@?$AAs?$AAt?$AAd?$AA?3?$AA?3?$AA_?$AAV?$AAe?$AAc?$AAt?$AAo?$AAr?$AA_?$AAc?$AAo?$AAn?$AAs?$AAt?$AA_?$AAi?$AAt?$AAe?$AAr?$AAa?$AAt?$AAo?$AAr?$AA?$DM?$AAc?$AAl?$AAa?$AAs@ ; `string'
PUBLIC	??_C@_1OI@FMJIDCDB@?$AAs?$AAt?$AAd?$AA?3?$AA?3?$AA_?$AAV?$AAe?$AAc?$AAt?$AAo?$AAr?$AA_?$AAc?$AAo?$AAn?$AAs?$AAt?$AA_?$AAi?$AAt?$AAe?$AAr?$AAa?$AAt?$AAo?$AAr?$AA?$DM?$AAc?$AAl?$AAa?$AAs@ ; `string'
PUBLIC	??_C@_1OA@PPHMHHME@?$AAs?$AAt?$AAd?$AA?3?$AA?3?$AA_?$AAV?$AAe?$AAc?$AAt?$AAo?$AAr?$AA_?$AAc?$AAo?$AAn?$AAs?$AAt?$AA_?$AAi?$AAt?$AAe?$AAr?$AAa?$AAt?$AAo?$AAr?$AA?$DM?$AAc?$AAl?$AAa?$AAs@ ; `string'
PUBLIC	??_C@_1PC@NFLPPMGG@?$AAs?$AAt?$AAd?$AA?3?$AA?3?$AA_?$AAV?$AAe?$AAc?$AAt?$AAo?$AAr?$AA_?$AAc?$AAo?$AAn?$AAs?$AAt?$AA_?$AAi?$AAt?$AAe?$AAr?$AAa?$AAt?$AAo?$AAr?$AA?$DM?$AAc?$AAl?$AAa?$AAs@ ; `string'
PUBLIC	??_C@_1OK@DANGDFEG@?$AAs?$AAt?$AAd?$AA?3?$AA?3?$AA_?$AAV?$AAe?$AAc?$AAt?$AAo?$AAr?$AA_?$AAc?$AAo?$AAn?$AAs?$AAt?$AA_?$AAi?$AAt?$AAe?$AAr?$AAa?$AAt?$AAo?$AAr?$AA?$DM?$AAc?$AAl?$AAa?$AAs@ ; `string'
PUBLIC	??_C@_1PA@MBEHBOHE@?$AAs?$AAt?$AAd?$AA?3?$AA?3?$AA_?$AAV?$AAe?$AAc?$AAt?$AAo?$AAr?$AA_?$AAc?$AAo?$AAn?$AAs?$AAt?$AA_?$AAi?$AAt?$AAe?$AAr?$AAa?$AAt?$AAo?$AAr?$AA?$DM?$AAc?$AAl?$AAa?$AAs@ ; `string'
PUBLIC	??_C@_1OI@DAOAKOFK@?$AAs?$AAt?$AAd?$AA?3?$AA?3?$AA_?$AAV?$AAe?$AAc?$AAt?$AAo?$AAr?$AA_?$AAc?$AAo?$AAn?$AAs?$AAt?$AA_?$AAi?$AAt?$AAe?$AAr?$AAa?$AAt?$AAo?$AAr?$AA?$DM?$AAc?$AAl?$AAa?$AAs@ ; `string'
PUBLIC	??_C@_1JC@HALMDPKM@?$AAC?$AA?3?$AA?2?$AAP?$AAr?$AAo?$AAg?$AAr?$AAa?$AAm?$AA?5?$AAF?$AAi?$AAl?$AAe?$AAs?$AA?5?$AA?$CI?$AAx?$AA8?$AA6?$AA?$CJ?$AA?2?$AAM?$AAi?$AAc?$AAr?$AAo?$AAs?$AAo?$AAf?$AAt@ ; `string'
PUBLIC	??_C@_1CO@DGLIKNHI@?$AAi?$AAn?$AAv?$AAa?$AAl?$AAi?$AAd?$AA?5?$AAi?$AAt?$AAe?$AAr?$AAa?$AAt?$AAo?$AAr?$AA?5?$AAr?$AAa?$AAn?$AAg?$AAe?$AA?$AA@ ; `string'
PUBLIC	??_C@_1CE@IGJMOCCK@?$AAi?$AAn?$AAv?$AAa?$AAl?$AAi?$AAd?$AA?5?$AAo?$AAp?$AAe?$AAr?$AAa?$AAt?$AAo?$AAr?$AA?$DM?$AA?$AA@ ; `string'
PUBLIC	??_C@_1IO@LKIDJAMC@?$AAC?$AA?3?$AA?2?$AAP?$AAr?$AAo?$AAg?$AAr?$AAa?$AAm?$AA?5?$AAF?$AAi?$AAl?$AAe?$AAs?$AA?5?$AA?$CI?$AAx?$AA8?$AA6?$AA?$CJ?$AA?2?$AAM?$AAi?$AAc?$AAr?$AAo?$AAs?$AAo?$AAf?$AAt@ ; `string'
PUBLIC	??_C@_1CK@EOPGIILJ@?$AAi?$AAn?$AAv?$AAa?$AAl?$AAi?$AAd?$AA?5?$AAn?$AAu?$AAl?$AAl?$AA?5?$AAp?$AAo?$AAi?$AAn?$AAt?$AAe?$AAr?$AA?$AA@ ; `string'
PUBLIC	??_R4CDXUTControl@@6B@				; CDXUTControl::`RTTI Complete Object Locator'
PUBLIC	??_R0?AVCDXUTControl@@@8			; CDXUTControl `RTTI Type Descriptor'
PUBLIC	??_R3CDXUTControl@@8				; CDXUTControl::`RTTI Class Hierarchy Descriptor'
PUBLIC	??_R2CDXUTControl@@8				; CDXUTControl::`RTTI Base Class Array'
PUBLIC	??_R1A@?0A@EA@CDXUTControl@@8			; CDXUTControl::`RTTI Base Class Descriptor at (0,-1,0,64)'
PUBLIC	??_R4CDXUTButton@@6B@				; CDXUTButton::`RTTI Complete Object Locator'
PUBLIC	??_R0?AVCDXUTButton@@@8				; CDXUTButton `RTTI Type Descriptor'
PUBLIC	??_R3CDXUTButton@@8				; CDXUTButton::`RTTI Class Hierarchy Descriptor'
PUBLIC	??_R2CDXUTButton@@8				; CDXUTButton::`RTTI Base Class Array'
PUBLIC	??_R1A@?0A@EA@CDXUTButton@@8			; CDXUTButton::`RTTI Base Class Descriptor at (0,-1,0,64)'
PUBLIC	??_R1A@?0A@EA@CDXUTStatic@@8			; CDXUTStatic::`RTTI Base Class Descriptor at (0,-1,0,64)'
PUBLIC	??_R0?AVCDXUTStatic@@@8				; CDXUTStatic `RTTI Type Descriptor'
PUBLIC	??_R3CDXUTStatic@@8				; CDXUTStatic::`RTTI Class Hierarchy Descriptor'
PUBLIC	??_R2CDXUTStatic@@8				; CDXUTStatic::`RTTI Base Class Array'
PUBLIC	??_R4CDXUTStatic@@6B@				; CDXUTStatic::`RTTI Complete Object Locator'
PUBLIC	??_R4CDXUTCheckBox@@6B@				; CDXUTCheckBox::`RTTI Complete Object Locator'
PUBLIC	??_R0?AVCDXUTCheckBox@@@8			; CDXUTCheckBox `RTTI Type Descriptor'
PUBLIC	??_R3CDXUTCheckBox@@8				; CDXUTCheckBox::`RTTI Class Hierarchy Descriptor'
PUBLIC	??_R2CDXUTCheckBox@@8				; CDXUTCheckBox::`RTTI Base Class Array'
PUBLIC	??_R1A@?0A@EA@CDXUTCheckBox@@8			; CDXUTCheckBox::`RTTI Base Class Descriptor at (0,-1,0,64)'
PUBLIC	??_R4CDXUTRadioButton@@6B@			; CDXUTRadioButton::`RTTI Complete Object Locator'
PUBLIC	??_R0?AVCDXUTRadioButton@@@8			; CDXUTRadioButton `RTTI Type Descriptor'
PUBLIC	??_R3CDXUTRadioButton@@8			; CDXUTRadioButton::`RTTI Class Hierarchy Descriptor'
PUBLIC	??_R2CDXUTRadioButton@@8			; CDXUTRadioButton::`RTTI Base Class Array'
PUBLIC	??_R1A@?0A@EA@CDXUTRadioButton@@8		; CDXUTRadioButton::`RTTI Base Class Descriptor at (0,-1,0,64)'
PUBLIC	??_R4CDXUTComboBox@@6B@				; CDXUTComboBox::`RTTI Complete Object Locator'
PUBLIC	??_R0?AVCDXUTComboBox@@@8			; CDXUTComboBox `RTTI Type Descriptor'
PUBLIC	??_R3CDXUTComboBox@@8				; CDXUTComboBox::`RTTI Class Hierarchy Descriptor'
PUBLIC	??_R2CDXUTComboBox@@8				; CDXUTComboBox::`RTTI Base Class Array'
PUBLIC	??_R1A@?0A@EA@CDXUTComboBox@@8			; CDXUTComboBox::`RTTI Base Class Descriptor at (0,-1,0,64)'
PUBLIC	??_R4CDXUTSlider@@6B@				; CDXUTSlider::`RTTI Complete Object Locator'
PUBLIC	??_R0?AVCDXUTSlider@@@8				; CDXUTSlider `RTTI Type Descriptor'
PUBLIC	??_R3CDXUTSlider@@8				; CDXUTSlider::`RTTI Class Hierarchy Descriptor'
PUBLIC	??_R2CDXUTSlider@@8				; CDXUTSlider::`RTTI Base Class Array'
PUBLIC	??_R1A@?0A@EA@CDXUTSlider@@8			; CDXUTSlider::`RTTI Base Class Descriptor at (0,-1,0,64)'
PUBLIC	??_R4CDXUTEditBox@@6B@				; CDXUTEditBox::`RTTI Complete Object Locator'
PUBLIC	??_R0?AVCDXUTEditBox@@@8			; CDXUTEditBox `RTTI Type Descriptor'
PUBLIC	??_R3CDXUTEditBox@@8				; CDXUTEditBox::`RTTI Class Hierarchy Descriptor'
PUBLIC	??_R2CDXUTEditBox@@8				; CDXUTEditBox::`RTTI Base Class Array'
PUBLIC	??_R1A@?0A@EA@CDXUTEditBox@@8			; CDXUTEditBox::`RTTI Base Class Descriptor at (0,-1,0,64)'
PUBLIC	??_R4CDXUTListBox@@6B@				; CDXUTListBox::`RTTI Complete Object Locator'
PUBLIC	??_R0?AVCDXUTListBox@@@8			; CDXUTListBox `RTTI Type Descriptor'
PUBLIC	??_R3CDXUTListBox@@8				; CDXUTListBox::`RTTI Class Hierarchy Descriptor'
PUBLIC	??_R2CDXUTListBox@@8				; CDXUTListBox::`RTTI Base Class Array'
PUBLIC	??_R1A@?0A@EA@CDXUTListBox@@8			; CDXUTListBox::`RTTI Base Class Descriptor at (0,-1,0,64)'
PUBLIC	??_R4CDXUTScrollBar@@6B@			; CDXUTScrollBar::`RTTI Complete Object Locator'
PUBLIC	??_R0?AVCDXUTScrollBar@@@8			; CDXUTScrollBar `RTTI Type Descriptor'
PUBLIC	??_R3CDXUTScrollBar@@8				; CDXUTScrollBar::`RTTI Class Hierarchy Descriptor'
PUBLIC	??_R2CDXUTScrollBar@@8				; CDXUTScrollBar::`RTTI Base Class Array'
PUBLIC	??_R1A@?0A@EA@CDXUTScrollBar@@8			; CDXUTScrollBar::`RTTI Base Class Descriptor at (0,-1,0,64)'
PUBLIC	__real@00000000
PUBLIC	__real@0000000000000000
PUBLIC	__real@3a83126f
PUBLIC	__real@3c2c7691
PUBLIC	__real@3dcccccd
PUBLIC	__real@3f000000
PUBLIC	__real@3f19999a
PUBLIC	__real@3f333333
PUBLIC	__real@3f4ccccd
PUBLIC	__real@3f666666
PUBLIC	__real@3f7d70a4
PUBLIC	__real@3f800000
PUBLIC	__real@3fa00000
PUBLIC	__real@3fa999999999999a
PUBLIC	__real@3fd51eb851eb851f
PUBLIC	__real@40000000
PUBLIC	__real@41200000
PUBLIC	__real@41700000
PUBLIC	__real@41f00000
PUBLIC	__real@42280000
PUBLIC	__real@437f0000
PUBLIC	__real@7f7fffff
PUBLIC	__xmm@41f00000000000000000000000000000
EXTRN	??2@YAPAXI@Z:PROC				; operator new
EXTRN	??3@YAXPAX@Z:PROC				; operator delete
EXTRN	_atexit:PROC
EXTRN	___report_rangecheckfailure:PROC
EXTRN	__imp___invalid_parameter:PROC
EXTRN	__imp__memmove:PROC
EXTRN	__imp__wcscat_s:PROC
EXTRN	__imp__wcscpy_s:PROC
EXTRN	__imp__wcsnlen:PROC
EXTRN	__imp___wcsnicmp:PROC
EXTRN	__imp__GlobalAlloc@8:PROC
EXTRN	__imp__GlobalLock@4:PROC
EXTRN	__imp__GlobalUnlock@4:PROC
EXTRN	__imp__GlobalFree@4:PROC
EXTRN	__imp__OpenClipboard@4:PROC
EXTRN	__imp__CloseClipboard@0:PROC
EXTRN	__imp__SetClipboardData@8:PROC
EXTRN	__imp__GetClipboardData@4:PROC
EXTRN	__imp__EmptyClipboard@0:PROC
EXTRN	__imp__GetKeyState@4:PROC
EXTRN	__imp__SetCapture@4:PROC
EXTRN	__imp__ReleaseCapture@0:PROC
EXTRN	__imp__GetCaretBlinkTime@0:PROC
EXTRN	__imp__SetRect@20:PROC
EXTRN	__imp__SetRectEmpty@4:PROC
EXTRN	__imp__InflateRect@12:PROC
EXTRN	__imp__IntersectRect@12:PROC
EXTRN	__imp__OffsetRect@12:PROC
EXTRN	__imp__PtInRect@12:PROC
EXTRN	__imp__SystemParametersInfoW@16:PROC
EXTRN	__imp__wcstod:PROC
EXTRN	__imp___wassert:PROC
EXTRN	??2@YAPAXIABUnothrow_t@std@@@Z:PROC		; operator new
EXTRN	??_U@YAPAXIABUnothrow_t@std@@@Z:PROC		; operator new[]
EXTRN	??3@YAXPAXABUnothrow_t@std@@@Z:PROC		; operator delete
EXTRN	__imp__swprintf_s:PROC
EXTRN	__imp___CrtDbgReportW:PROC
EXTRN	??_V@YAXPAX@Z:PROC				; operator delete[]
EXTRN	_D3DCompile@44:PROC
EXTRN	__imp_??0_Lockit@std@@QAE@H@Z:PROC
EXTRN	__imp_??1_Lockit@std@@QAE@XZ:PROC
EXTRN	_DXTraceW@20:PROC
EXTRN	__imp_?_Debug_message@std@@YAXPB_W0I@Z:PROC
EXTRN	__imp_??0_Container_base12@std@@QAE@XZ:PROC
EXTRN	__imp_??1_Container_base12@std@@QAE@XZ:PROC
EXTRN	__imp_?_Getpfirst@_Container_base12@std@@QBEPAPAU_Iterator_base12@2@XZ:PROC
EXTRN	__imp_?_Orphan_all@_Container_base12@std@@QAEXXZ:PROC
EXTRN	__imp_?_Xbad_alloc@std@@YAXXZ:PROC
EXTRN	__imp_?_Xlength_error@std@@YAXPBD@Z:PROC
EXTRN	?DXUTGetD3D11Device@@YGPAUID3D11Device@@XZ:PROC	; DXUTGetD3D11Device
EXTRN	?DXUTGetD3D11DeviceContext@@YGPAUID3D11DeviceContext@@XZ:PROC ; DXUTGetD3D11DeviceContext
EXTRN	?DXUTGetHWND@@YGPAUHWND__@@XZ:PROC		; DXUTGetHWND
EXTRN	?DXUTGetTime@@YGNXZ:PROC			; DXUTGetTime
EXTRN	?DXUTGetAutomation@@YG_NXZ:PROC			; DXUTGetAutomation
EXTRN	?GetAbsoluteTime@CDXUTTimer@@QBENXZ:PROC	; CDXUTTimer::GetAbsoluteTime
EXTRN	?DXUTGetGlobalTimer@@YGPAVCDXUTTimer@@XZ:PROC	; DXUTGetGlobalTimer
EXTRN	?DXUTTrace@@YGJPBDKJPB_W_N@Z:PROC		; DXUTTrace
EXTRN	_ScriptStringAnalyse@52:PROC
EXTRN	_ScriptStringFree@4:PROC
EXTRN	_ScriptString_pcOutChars@4:PROC
EXTRN	_ScriptString_pLogAttr@4:PROC
EXTRN	_ScriptStringCPtoX@16:PROC
EXTRN	_ScriptStringXtoCP@16:PROC
EXTRN	_ScriptApplyDigitSubstitution@12:PROC
EXTRN	??_ECDXUTControl@@UAEPAXI@Z:PROC		; CDXUTControl::`vector deleting destructor'
EXTRN	??_ECDXUTStatic@@UAEPAXI@Z:PROC			; CDXUTStatic::`vector deleting destructor'
EXTRN	??_ECDXUTButton@@UAEPAXI@Z:PROC			; CDXUTButton::`vector deleting destructor'
EXTRN	??_ECDXUTCheckBox@@UAEPAXI@Z:PROC		; CDXUTCheckBox::`vector deleting destructor'
EXTRN	??_ECDXUTRadioButton@@UAEPAXI@Z:PROC		; CDXUTRadioButton::`vector deleting destructor'
EXTRN	??_ECDXUTScrollBar@@UAEPAXI@Z:PROC		; CDXUTScrollBar::`vector deleting destructor'
EXTRN	??_ECDXUTListBox@@UAEPAXI@Z:PROC		; CDXUTListBox::`vector deleting destructor'
EXTRN	??_ECDXUTComboBox@@UAEPAXI@Z:PROC		; CDXUTComboBox::`vector deleting destructor'
EXTRN	??_ECDXUTSlider@@UAEPAXI@Z:PROC			; CDXUTSlider::`vector deleting destructor'
EXTRN	??_ECDXUTEditBox@@UAEPAXI@Z:PROC		; CDXUTEditBox::`vector deleting destructor'
EXTRN	?DXUTCreateGUITextureFromInternalArray@@YGJPAUID3D11Device@@PAPAUID3D11Texture2D@@@Z:PROC ; DXUTCreateGUITextureFromInternalArray
EXTRN	?DXUTFindDXSDKMediaFileCch@@YGJPA_WHPB_W@Z:PROC	; DXUTFindDXSDKMediaFileCch
EXTRN	?CreateDDSTextureFromFile@DirectX@@YAJPAUID3D11Device@@PB_WPAPAUID3D11Resource@@PAPAUID3D11ShaderResourceView@@IPAW4DDS_ALPHA_MODE@1@@Z:PROC ; DirectX::CreateDDSTextureFromFile
EXTRN	@_RTC_CheckStackVars@8:PROC
EXTRN	@__security_check_cookie@4:PROC
EXTRN	__CxxThrowException@8:PROC
EXTRN	__RTC_CheckEsp:PROC
EXTRN	__RTC_InitBase:PROC
EXTRN	__RTC_Shutdown:PROC
EXTRN	___CxxFrameHandler3:PROC
EXTRN	___libm_sse2_powf:PROC
EXTRN	_memcpy:PROC
EXTRN	_memset:PROC
EXTRN	?nothrow@std@@3Unothrow_t@1@B:BYTE		; std::nothrow
EXTRN	??_7type_info@@6B@:QWORD			; type_info::`vftable'
EXTRN	___security_cookie:DWORD
EXTRN	__fltused:DWORD
_BSS	SEGMENT
?g_FontVertices@@3V?$vector@UDXUTSpriteVertex@@V?$allocator@UDXUTSpriteVertex@@@std@@@std@@A DB 010H DUP (?) ; g_FontVertices
_BSS	ENDS
;	COMDAT ?bSBInit@?5??Render@CDXUTComboBox@@UAEXM@Z@4_NA
_BSS	SEGMENT
?bSBInit@?5??Render@CDXUTComboBox@@UAEXM@Z@4_NA DB 01H DUP (?) ; `CDXUTComboBox::Render'::`6'::bSBInit
_BSS	ENDS
;	COMDAT ?ThumbOffsetY@?1??HandleMouse@CDXUTScrollBar@@UAE_NIABUtagPOINT@@IJ@Z@4HA
_BSS	SEGMENT
