; Listing generated by Microsoft (R) Optimizing Compiler Version 18.00.30501.0 

	TITLE	D:\Engine Class\Assignment 1\New Scratch\DXUT\Optional\ImeUi.cpp
	.686P
	.XMM
	include listing.inc
	.model	flat

INCLUDELIB MSVCRTD
INCLUDELIB OLDNAMES

PUBLIC	__GUID_aa80e801_2021_11d2_93e0_0060b067b86e
PUBLIC	?_GetReadingString@@3P6GIPAUHIMC__@@IPA_WPAH2PAI@ZA ; _GetReadingString
PUBLIC	?_ShowReadingWindow@@3P6GHPAUHIMC__@@H@ZA	; _ShowReadingWindow
PUBLIC	?m_tm@CTsfUiLessMode@@1PAUITfThreadMgrEx@@A	; CTsfUiLessMode::m_tm
PUBLIC	?m_dwUIElementSinkCookie@CTsfUiLessMode@@1KA	; CTsfUiLessMode::m_dwUIElementSinkCookie
PUBLIC	?m_dwAlpnSinkCookie@CTsfUiLessMode@@1KA		; CTsfUiLessMode::m_dwAlpnSinkCookie
PUBLIC	?m_dwOpenModeSinkCookie@CTsfUiLessMode@@1KA	; CTsfUiLessMode::m_dwOpenModeSinkCookie
PUBLIC	?m_dwConvModeSinkCookie@CTsfUiLessMode@@1KA	; CTsfUiLessMode::m_dwConvModeSinkCookie
PUBLIC	?m_TsfSink@CTsfUiLessMode@@1PAVCUIElementSink@1@A ; CTsfUiLessMode::m_TsfSink
PUBLIC	?m_nCandidateRefCount@CTsfUiLessMode@@1HA	; CTsfUiLessMode::m_nCandidateRefCount
PUBLIC	?ImeUiCallback_DrawRect@@3P6GXHHHHK@ZA		; ImeUiCallback_DrawRect
PUBLIC	?ImeUiCallback_Malloc@@3P6APAXI@ZA		; ImeUiCallback_Malloc
PUBLIC	?ImeUiCallback_Free@@3P6AXPAX@ZA		; ImeUiCallback_Free
PUBLIC	?ImeUiCallback_DrawFans@@3P6GXPBUIMEUI_VERTEX@@I@ZA ; ImeUiCallback_DrawFans
PUBLIC	?ImeUiCallback_OnChar@@3P6GX_W@ZA		; ImeUiCallback_OnChar
PUBLIC	__GUID_87955690_e627_11d2_8ddb_00105a2799b5
PUBLIC	_GUID_TS_SERVICE_DATAOBJECT
PUBLIC	_GUID_TS_SERVICE_ACCESSIBLE
PUBLIC	_GUID_TS_SERVICE_ACTIVEX
PUBLIC	__GUID_3e90ade3_7594_4cb0_bb58_69628f5f458c
PUBLIC	__GUID_4ea48a35_60ae_446f_8fd6_e6a8d82459f7
PUBLIC	__GUID_ea1ea136_19df_11d7_a6d2_00065b84435c
PUBLIC	__GUID_71c6e74e_0f28_11d8_a82a_00065b84435c
PUBLIC	__GUID_743abd5f_f26d_48df_8cc5_238492419b64
PUBLIC	__GUID_ea1ea139_19df_11d7_a6d2_00065b84435c
PUBLIC	__GUID_ea1ea138_19df_11d7_a6d2_00065b84435c
PUBLIC	_TF_PROFILE_NEWPHONETIC
PUBLIC	_TF_PROFILE_PHONETIC
PUBLIC	_TF_PROFILE_NEWCHANGJIE
PUBLIC	_TF_PROFILE_CHANGJIE
PUBLIC	_TF_PROFILE_NEWQUICK
PUBLIC	_TF_PROFILE_QUICK
PUBLIC	_TF_PROFILE_CANTONESE
PUBLIC	_TF_PROFILE_PINYIN
PUBLIC	_TF_PROFILE_SIMPLEFAST
PUBLIC	_TF_PROFILE_WUBI
PUBLIC	_TF_PROFILE_DAYI
PUBLIC	_TF_PROFILE_ARRAY
PUBLIC	_TF_PROFILE_YI
PUBLIC	_TF_PROFILE_TIGRINYA
PUBLIC	__GUID_ea1ea135_19df_11d7_a6d2_00065b84435c
PUBLIC	__GUID_1f02b6c5_7842_4ee6_8a0b_9a24183a95ca
PUBLIC	__GUID_71c6e74c_0f28_11d8_a82a_00065b84435c
PUBLIC	?gSkinCompStr@@3U_SkinCompStr@@A		; gSkinCompStr
_BSS	SEGMENT
?_GetReadingString@@3P6GIPAUHIMC__@@IPA_WPAH2PAI@ZA DD 01H DUP (?) ; _GetReadingString
?_ShowReadingWindow@@3P6GHPAUHIMC__@@H@ZA DD 01H DUP (?) ; _ShowReadingWindow
_g_bImeEnabled DB 01H DUP (?)
	ALIGN	4

_g_IMECursorBytes DD 01H DUP (?)
_g_IMECursorChars DD 01H DUP (?)
_g_bDisableImeCompletely DD 01H DUP (?)
_g_bReadingWindow DB 01H DUP (?)
	ALIGN	4

_g_bHorizontalReading DB 01H DUP (?)
	ALIGN	4

_g_uCaretBlinkTime DD 01H DUP (?)
_g_uCaretBlinkLast DD 01H DUP (?)
_g_bCaretDraw DB 01H DUP (?)
	ALIGN	4

_bIsSendingKeyMessage DB 01H DUP (?)
	ALIGN	4

_g_bInitialized DB 01H DUP (?)
	ALIGN	4

_g_bCandList DB	01H DUP (?)
	ALIGN	4

_g_bUILessMode DB 01H DUP (?)
	ALIGN	4

_g_hImmDll DD	01H DUP (?)
_g_dwState DD	01H DUP (?)
_swirl	DD	01H DUP (?)
_g_hklCurrent DD 01H DUP (?)
_g_uCodePage DD	01H DUP (?)
?m_tm@CTsfUiLessMode@@1PAUITfThreadMgrEx@@A DD 01H DUP (?) ; CTsfUiLessMode::m_tm
?m_TsfSink@CTsfUiLessMode@@1PAVCUIElementSink@1@A DD 01H DUP (?) ; CTsfUiLessMode::m_TsfSink
?m_nCandidateRefCount@CTsfUiLessMode@@1HA DD 01H DUP (?) ; CTsfUiLessMode::m_nCandidateRefCount
?ImeUiCallback_DrawRect@@3P6GXHHHHK@ZA DD 01H DUP (?)	; ImeUiCallback_DrawRect
?ImeUiCallback_Malloc@@3P6APAXI@ZA DD 01H DUP (?)	; ImeUiCallback_Malloc
?ImeUiCallback_Free@@3P6AXPAX@ZA DD 01H DUP (?)		; ImeUiCallback_Free
?ImeUiCallback_DrawFans@@3P6GXPBUIMEUI_VERTEX@@I@ZA DD 01H DUP (?) ; ImeUiCallback_DrawFans
?ImeUiCallback_OnChar@@3P6GX_W@ZA DD 01H DUP (?)	; ImeUiCallback_OnChar
?gSkinCompStr@@3U_SkinCompStr@@A DB 014H DUP (?)	; gSkinCompStr
_BSS	ENDS
;	COMDAT __GUID_71c6e74c_0f28_11d8_a82a_00065b84435c
CONST	SEGMENT
__GUID_71c6e74c_0f28_11d8_a82a_00065b84435c DD 071c6e74cH
	DW	0f28H
	DW	011d8H
	DB	0a8H
	DB	02aH
	DB	00H
	DB	06H
	DB	05bH
	DB	084H
	DB	043H
	DB	05cH
CONST	ENDS
;	COMDAT __GUID_1f02b6c5_7842_4ee6_8a0b_9a24183a95ca
CONST	SEGMENT
__GUID_1f02b6c5_7842_4ee6_8a0b_9a24183a95ca DD 01f02b6c5H
	DW	07842H
	DW	04ee6H
	DB	08aH
	DB	0bH
	DB	09aH
	DB	024H
	DB	018H
	DB	03aH
	DB	095H
	DB	0caH
CONST	ENDS
;	COMDAT __GUID_ea1ea135_19df_11d7_a6d2_00065b84435c
CONST	SEGMENT
__GUID_ea1ea135_19df_11d7_a6d2_00065b84435c DD 0ea1ea135H
	DW	019dfH
	DW	011d7H
	DB	0a6H
	DB	0d2H
	DB	00H
	DB	06H
	DB	05bH
	DB	084H
	DB	043H
	DB	05cH
CONST	ENDS
;	COMDAT _TF_PROFILE_TIGRINYA
CONST	SEGMENT
_TF_PROFILE_TIGRINYA DD 03cab88b7H
	DW	0cc3eH
	DW	046a6H
	DB	097H
	DB	065H
	DB	0b7H
	DB	072H
	DB	0adH
	DB	077H
	DB	061H
	DB	0ffH
CONST	ENDS
;	COMDAT _TF_PROFILE_YI
CONST	SEGMENT
_TF_PROFILE_YI DD 0409c8376H
	DW	07bH
	DW	04357H
	DB	0aeH
	DB	08eH
	DB	026H
	DB	031H
	DB	06eH
	DB	0e3H
	DB	0fbH
	DB	0dH
CONST	ENDS
;	COMDAT _TF_PROFILE_ARRAY
CONST	SEGMENT
_TF_PROFILE_ARRAY DD 0d38eff65H
	DW	0aa46H
	DW	04fd5H
	DB	091H
	DB	0a7H
	DB	067H
	DB	084H
	DB	05fH
	DB	0b0H
	DB	02fH
	DB	05bH
CONST	ENDS
;	COMDAT _TF_PROFILE_DAYI
CONST	SEGMENT
_TF_PROFILE_DAYI DD 037b2c25H
	DW	0480cH
	DW	04d7fH
	DB	0b0H
	DB	027H
	DB	0d6H
	DB	0caH
	DB	06bH
	DB	069H
	DB	078H
	DB	08aH
CONST	ENDS
;	COMDAT _TF_PROFILE_WUBI
CONST	SEGMENT
_TF_PROFILE_WUBI DD 082590c13H
	DW	0f4ddH
	DW	044f4H
	DB	0baH
	DB	01dH
	DB	086H
	DB	067H
	DB	024H
	DB	06fH
	DB	0dfH
	DB	08eH
CONST	ENDS
;	COMDAT _TF_PROFILE_SIMPLEFAST
CONST	SEGMENT
_TF_PROFILE_SIMPLEFAST DD 0fa550b04H
	DW	05ad7H
	DW	0411fH
	DB	0a5H
	DB	0acH
	DB	0caH
	DB	03H
	DB	08eH
	DB	0c5H
	DB	015H
	DB	0d7H
CONST	ENDS
;	COMDAT _TF_PROFILE_PINYIN
CONST	SEGMENT
_TF_PROFILE_PINYIN DD 0f3ba9077H
	DW	06c7eH
	DW	011d4H
	DB	097H
	DB	0faH
	DB	00H
	DB	080H
	DB	0c8H
	DB	082H
	DB	068H
	DB	07eH
CONST	ENDS
;	COMDAT _TF_PROFILE_CANTONESE
CONST	SEGMENT
_TF_PROFILE_CANTONESE DD 0aec109cH
	DW	07e96H
	DW	011d4H
	DB	0b2H
	DB	0efH
	DB	00H
	DB	080H
	DB	0c8H
	DB	082H
	DB	068H
	DB	07eH
CONST	ENDS
;	COMDAT _TF_PROFILE_QUICK
CONST	SEGMENT
_TF_PROFILE_QUICK DD 06024b45fH
	DW	05c54H
	DW	011d4H
	DB	0b9H
	DB	021H
	DB	00H
	DB	080H
	DB	0c8H
	DB	082H
	DB	068H
	DB	07eH
CONST	ENDS
;	COMDAT _TF_PROFILE_NEWQUICK
CONST	SEGMENT
_TF_PROFILE_NEWQUICK DD 0b883ba0H
	DW	0c1c7H
	DW	011d4H
	DB	087H
	DB	0f9H
	DB	00H
	DB	080H
	DB	0c8H
	DB	082H
	DB	068H
	DB	07eH
CONST	ENDS
;	COMDAT _TF_PROFILE_CHANGJIE
CONST	SEGMENT
_TF_PROFILE_CHANGJIE DD 04bdf9f03H
	DW	0c7d3H
	DW	011d4H
	DB	0b2H
	DB	0abH
	DB	00H
	DB	080H
	DB	0c8H
	DB	082H
	DB	068H
	DB	07eH
CONST	ENDS
;	COMDAT _TF_PROFILE_NEWCHANGJIE
CONST	SEGMENT
_TF_PROFILE_NEWCHANGJIE DD 0f3ba907aH
	DW	06c7eH
	DW	011d4H
	DB	097H
	DB	0faH
	DB	00H
	DB	080H
	DB	0c8H
	DB	082H
	DB	068H
	DB	07eH
CONST	ENDS
;	COMDAT _TF_PROFILE_PHONETIC
CONST	SEGMENT
_TF_PROFILE_PHONETIC DD 0761309deH
	DW	0317aH
	DW	011d4H
	DB	09bH
	DB	05dH
	DB	00H
	DB	080H
	DB	0c8H
	DB	082H
	DB	068H
	DB	07eH
CONST	ENDS
;	COMDAT _TF_PROFILE_NEWPHONETIC
CONST	SEGMENT
_TF_PROFILE_NEWPHONETIC DD 0b2f9c502H
	DW	01742H
	DW	011d4H
	DB	097H
	DB	090H
	DB	00H
	DB	080H
	DB	0c8H
	DB	082H
	DB	068H
	DB	07eH
CONST	ENDS
;	COMDAT __GUID_ea1ea138_19df_11d7_a6d2_00065b84435c
CONST	SEGMENT
__GUID_ea1ea138_19df_11d7_a6d2_00065b84435c DD 0ea1ea138H
	DW	019dfH
	DW	011d7H
	DB	0a6H
	DB	0d2H
	DB	00H
	DB	06H
	DB	05bH
	DB	084H
	DB	043H
	DB	05cH
CONST	ENDS
;	COMDAT __GUID_ea1ea139_19df_11d7_a6d2_00065b84435c
CONST	SEGMENT
__GUID_ea1ea139_19df_11d7_a6d2_00065b84435c DD 0ea1ea139H
	DW	019dfH
	DW	011d7H
	DB	0a6H
	DB	0d2H
	DB	00H
	DB	06H
	DB	05bH
	DB	084H
	DB	043H
	DB	05cH
CONST	ENDS
;	COMDAT __GUID_743abd5f_f26d_48df_8cc5_238492419b64
CONST	SEGMENT
__GUID_743abd5f_f26d_48df_8cc5_238492419b64 DD 0743abd5fH
	DW	0f26dH
	DW	048dfH
	DB	08cH
	DB	0c5H
	DB	023H
	DB	084H
	DB	092H
	DB	041H
	DB	09bH
	DB	064H
CONST	ENDS
;	COMDAT __GUID_71c6e74e_0f28_11d8_a82a_00065b84435c
CONST	SEGMENT
__GUID_71c6e74e_0f28_11d8_a82a_00065b84435c DD 071c6e74eH
	DW	0f28H
	DW	011d8H
	DB	0a8H
	DB	02aH
	DB	00H
	DB	06H
	DB	05bH
	DB	084H
	DB	043H
	DB	05cH
CONST	ENDS
;	COMDAT __GUID_ea1ea136_19df_11d7_a6d2_00065b84435c
CONST	SEGMENT
__GUID_ea1ea136_19df_11d7_a6d2_00065b84435c DD 0ea1ea136H
	DW	019dfH
	DW	011d7H
	DB	0a6H
	DB	0d2H
	DB	00H
	DB	06H
	DB	05bH
	DB	084H
	DB	043H
	DB	05cH
CONST	ENDS
;	COMDAT __GUID_4ea48a35_60ae_446f_8fd6_e6a8d82459f7
CONST	SEGMENT
__GUID_4ea48a35_60ae_446f_8fd6_e6a8d82459f7 DD 04ea48a35H
	DW	060aeH
	DW	0446fH
	DB	08fH
	DB	0d6H
	DB	0e6H
	DB	0a8H
	DB	0d8H
	DB	024H
	DB	059H
	DB	0f7H
CONST	ENDS
;	COMDAT __GUID_3e90ade3_7594_4cb0_bb58_69628f5f458c
CONST	SEGMENT
__GUID_3e90ade3_7594_4cb0_bb58_69628f5f458c DD 03e90ade3H
	DW	07594H
	DW	04cb0H
	DB	0bbH
	DB	058H
	DB	069H
	DB	062H
	DB	08fH
	DB	05fH
	DB	045H
	DB	08cH
CONST	ENDS
;	COMDAT _GUID_TS_SERVICE_ACTIVEX
CONST	SEGMENT
_GUID_TS_SERVICE_ACTIVEX DD 0ea937a50H
	DW	0c9a6H
	DW	04b7dH
	DB	089H
	DB	04aH
	DB	049H
	DB	0d9H
	DB	09bH
	DB	078H
	DB	048H
	DB	034H
CONST	ENDS
;	COMDAT _GUID_TS_SERVICE_ACCESSIBLE
CONST	SEGMENT
_GUID_TS_SERVICE_ACCESSIBLE DD 0f9786200H
	DW	0a5bfH
	DW	04a0fH
	DB	08cH
	DB	024H
	DB	0fbH
	DB	016H
	DB	0f5H
	DB	0d1H
	DB	0aaH
	DB	0bbH
CONST	ENDS
;	COMDAT _GUID_TS_SERVICE_DATAOBJECT
CONST	SEGMENT
_GUID_TS_SERVICE_DATAOBJECT DD 06086fbb5H
	DW	0e225H
	DW	046ceH
	DB	0a7H
	DB	070H
	DB	0c1H
	DB	0bbH
	DB	0d3H
	DB	0e0H
	DB	05dH
	DB	07bH
CONST	ENDS
;	COMDAT __GUID_87955690_e627_11d2_8ddb_00105a2799b5
CONST	SEGMENT
__GUID_87955690_e627_11d2_8ddb_00105a2799b5 DD 087955690H
	DW	0e627H
	DW	011d2H
	DB	08dH
	DB	0dbH
	DB	00H
	DB	010H
	DB	05aH
	DB	027H
	DB	099H
	DB	0b5H
CONST	ENDS
_DATA	SEGMENT
_g_bVerticalCand DB 01H
_g_bInsertMode DB 01H
	ORG $+2
_g_dwImeUiFlags DD 01H
_g_aszIndicator DD FLAT:$SG152772
	DD	FLAT:$SG152773
	DD	FLAT:$SG152774
	DD	FLAT:$SG152775
	DD	FLAT:$SG152776
?m_dwUIElementSinkCookie@CTsfUiLessMode@@1KA DD 0ffffffffH ; CTsfUiLessMode::m_dwUIElementSinkCookie
?m_dwAlpnSinkCookie@CTsfUiLessMode@@1KA DD 0ffffffffH	; CTsfUiLessMode::m_dwAlpnSinkCookie
?m_dwOpenModeSinkCookie@CTsfUiLessMode@@1KA DD 0ffffffffH ; CTsfUiLessMode::m_dwOpenModeSinkCookie
?m_dwConvModeSinkCookie@CTsfUiLessMode@@1KA DD 0ffffffffH ; CTsfUiLessMode::m_dwConvModeSinkCookie
	ORG $+4
_aHotKeys DB	00H
	DB	00H
	DB	00H
	ORG $+1
	DD	05dH
	DB	01H
	DB	00H
	DB	00H
	ORG $+1
	DD	038H
	DB	01H
	DB	00H
	DB	00H
	ORG $+1
	DD	059H
	DB	01H
	DB	00H
	DB	00H
	ORG $+1
	DD	02eH
	DB	01H
	DB	00H
	DB	00H
	ORG $+1
	DD	076H
	DB	01H
	DB	00H
	DB	00H
	ORG $+1
	DD	078H
	DB	01H
	DB	00H
	DB	00H
	ORG $+1
	DD	079H
	DB	01H
	DB	00H
	DB	00H
	ORG $+1
	DD	07aH
	DB	01H
	DB	00H
	DB	00H
	ORG $+1
	DD	07bH
	DB	00H
	DB	00H
	DB	00H
	ORG $+1
	DD	071H
	DB	00H
	DB	00H
	DB	00H
	ORG $+1
	DD	072H
	DB	00H
	DB	00H
	DB	00H
	ORG $+1
	DD	073H
	DB	00H
	DB	00H
	DB	00H
	ORG $+1
	DD	074H
	DB	00H
	DB	00H
	DB	00H
	ORG $+1
	DD	079H
	DB	00H
	DB	01H
	DB	00H
	ORG $+1
	DD	075H
	DB	00H
	DB	01H
	DB	00H
	ORG $+1
	DD	076H
	DB	00H
	DB	01H
	DB	00H
	ORG $+1
	DD	077H
	DB	01H
	DB	01H
	DB	00H
	ORG $+1
	DD	079H
	DB	01H
	DB	01H
	DB	00H
	ORG $+1
	DD	07aH
	DB	01H
	DB	00H
	DB	00H
	ORG $+1
	DD	01cH
	DB	01H
	DB	00H
	DB	00H
	ORG $+1
	DD	020H
	DB	01H
	DB	00H
	DB	01H
	ORG $+1
	DD	0bcH
	DB	01H
	DB	00H
	DB	00H
	ORG $+1
	DD	09H
_signature DB	'%%%IMEUILIB:070111%%%', 00H
	ORG $+2
_gSkinIME DD	00H
	DD	0404040H
	DD	0ff000000H
	DB	018H
	DB	0a0H
	DB	00H
	ORG $+1
	DD	00H
	DD	0ffffffffH
	DD	0ff000000H
	DD	00H
	DD	0ffff00H
	DD	0ffH
	DD	0ff00H
	DD	0ff0000H
	DD	0ff0000H
	DB	080H
	ORG $+3
	DD	00H
	DB	02H
	DB	01H
	ORG $+2
_DATA	ENDS
;	COMDAT __GUID_aa80e801_2021_11d2_93e0_0060b067b86e
CONST	SEGMENT
__GUID_aa80e801_2021_11d2_93e0_0060b067b86e DD 0aa80e801H
	DW	02021H
	DW	011d2H
	DB	093H
	DB	0e0H
	DB	00H
	DB	060H
	DB	0b0H
	DB	067H
	DB	0b8H
	DB	06eH
CONST	ENDS
CONST	SEGMENT
$SG153642 DB	'i', 00H, 'm', 00H, 'm', 00H, '3', 00H, '2', 00H, '.', 00H
	DB	'd', 00H, 'l', 00H, 'l', 00H, 00H, 00H
$SG153646 DB	'ImmLockIMC', 00H
	ORG $+1
$SG153649 DB	'ImmUnlockIMC', 00H
	ORG $+3
$SG153652 DB	'ImmLockIMCC', 00H
$SG153655 DB	'ImmUnlockIMCC', 00H
	ORG $+2
$SG153660 DB	'ImmDisableTextFrameService', 00H
	ORG $+1
$SG153753 DB	'TINTLGNT.IME', 00H
	ORG $+3
$SG153754 DB	'CINTLGNT.IME', 00H
	ORG $+3
$SG153755 DB	'MSTCIPHA.IME', 00H
	ORG $+3
$SG153756 DB	'PINTLGNT.IME', 00H
	ORG $+3
$SG153757 DB	'MSSCIPYA.IME', 00H
	ORG $+3
$SG153764 DB	'\', 00H
	ORG $+2
$SG152772 DB	'A', 00H, 00H, 00H
$SG152773 DB	080H, '{', 00H, 00H
$SG152774 DB	'A~', 00H, 00H
$SG152775 DB	00H, 0acH, 00H, 00H
$SG152776 DB	'B0', 00H, 00H
$SG154017 DB	'I', 00H, 'm', 00H, 'e', 00H, 'U', 00H, 'i', 00H, '.', 00H
	DB	'c', 00H, 'p', 00H, 'p', 00H, 00H, 00H
$SG154018 DB	'l', 00H, 'R', 00H, 'e', 00H, 't', 00H, ' ', 00H, '>', 00H
	DB	'=', 00H, ' ', 00H, '2', 00H, 00H, 00H
$SG154027 DB	00H, 00H
	ORG $+2
$SG154028 DB	00H, 00H
	ORG $+2
$SG153077 DB	' ', 00H, 00H, 00H
$SG154105 DB	'software\microsoft\windows\currentversion\', 00H
	ORG $+1
$SG154109 DB	'MSTCIPH', 00H
$SG154110 DB	'TINTLGNT', 00H
	ORG $+3
$SG154121 DB	'keyboard mapping', 00H
	ORG $+3
$SG153156 DB	'I', 00H, 'm', 00H, 'e', 00H, 'U', 00H, 'i', 00H, '.', 00H
	DB	'c', 00H, 'p', 00H, 'p', 00H, 00H, 00H
$SG153157 DB	'g', 00H, '_', 00H, 'C', 00H, 'a', 00H, 'r', 00H, 'e', 00H
	DB	't', 00H, 'I', 00H, 'n', 00H, 'f', 00H, 'o', 00H, '.', 00H, 'p'
	DB	00H, 'F', 00H, 'o', 00H, 'n', 00H, 't', 00H, ' ', 00H, '!', 00H
	DB	'=', 00H, ' ', 00H, 'n', 00H, 'u', 00H, 'l', 00H, 'l', 00H, 'p'
	DB	00H, 't', 00H, 'r', 00H, 00H, 00H
	ORG $+2
$SG154210 DB	'GetReadingString', 00H
	ORG $+3
$SG154214 DB	'ShowReadingWindow', 00H
	ORG $+2
$SG153194 DB	'%', 00H, 'd', 00H, 00H, 00H
CONST	ENDS
PUBLIC	_IsEqualGUID
PUBLIC	??0IUnknown@@QAE@XZ				; IUnknown::IUnknown
PUBLIC	_cosf
PUBLIC	_sinf
PUBLIC	?cos@@YAMM@Z					; cos
PUBLIC	?sin@@YAMM@Z					; sin
PUBLIC	?ImeUi_Initialize@@YA_NPAUHWND__@@_N@Z		; ImeUi_Initialize
PUBLIC	?ImeUi_Uninitialize@@YAXXZ			; ImeUi_Uninitialize
PUBLIC	?ImeUi_SetAppearance@@YAXPBUIMEUI_APPEARANCE@@@Z ; ImeUi_SetAppearance
PUBLIC	?ImeUi_GetAppearance@@YAXPAUIMEUI_APPEARANCE@@@Z ; ImeUi_GetAppearance
PUBLIC	?ImeUi_IgnoreHotKey@@YA_NPBUtagMSG@@@Z		; ImeUi_IgnoreHotKey
PUBLIC	?ImeUi_ProcessMessage@@YAJPAUHWND__@@IIAAJPA_N@Z ; ImeUi_ProcessMessage
PUBLIC	?ImeUi_SetScreenDimension@@YAXII@Z		; ImeUi_SetScreenDimension
PUBLIC	?ImeUi_RenderUI@@YAX_N0@Z			; ImeUi_RenderUI
PUBLIC	?ImeUi_SetCaretPosition@@YAXII@Z		; ImeUi_SetCaretPosition
PUBLIC	?ImeUi_SetCompStringAppearance@@YAXPAVCImeUiFont_Base@@KPBUtagRECT@@@Z ; ImeUi_SetCompStringAppearance
PUBLIC	?ImeUi_GetCaretStatus@@YA_NXZ			; ImeUi_GetCaretStatus
PUBLIC	?ImeUi_SetInsertMode@@YAX_N@Z			; ImeUi_SetInsertMode
PUBLIC	?ImeUi_SetState@@YAXK@Z				; ImeUi_SetState
PUBLIC	?ImeUi_GetState@@YAKXZ				; ImeUi_GetState
PUBLIC	?ImeUi_EnableIme@@YAX_N@Z			; ImeUi_EnableIme
PUBLIC	?ImeUi_IsEnabled@@YA_NXZ			; ImeUi_IsEnabled
PUBLIC	?ImeUi_FinalizeString@@YAX_N@Z			; ImeUi_FinalizeString
PUBLIC	?ImeUi_ToggleLanguageBar@@YAXH@Z		; ImeUi_ToggleLanguageBar
PUBLIC	?ImeUi_IsSendingKeyMessage@@YA_NXZ		; ImeUi_IsSendingKeyMessage
PUBLIC	?ImeUi_SetWindow@@YAXPAUHWND__@@@Z		; ImeUi_SetWindow
PUBLIC	?ImeUi_GetInputCodePage@@YAIXZ			; ImeUi_GetInputCodePage
PUBLIC	?ImeUi_GetFlags@@YAKXZ				; ImeUi_GetFlags
PUBLIC	?ImeUi_SetFlags@@YAXK_N@Z			; ImeUi_SetFlags
PUBLIC	?ImeUi_GetPrimaryLanguage@@YAGXZ		; ImeUi_GetPrimaryLanguage
PUBLIC	?ImeUi_GetImeId@@YAKI@Z				; ImeUi_GetImeId
PUBLIC	?ImeUi_GetLanguage@@YAGXZ			; ImeUi_GetLanguage
PUBLIC	?ImeUi_GetIndicatior@@YAPA_WXZ			; ImeUi_GetIndicatior
PUBLIC	?ImeUi_IsShowReadingWindow@@YA_NXZ		; ImeUi_IsShowReadingWindow
PUBLIC	?ImeUi_IsShowCandListWindow@@YA_NXZ		; ImeUi_IsShowCandListWindow
PUBLIC	?ImeUi_IsVerticalCand@@YA_NXZ			; ImeUi_IsVerticalCand
PUBLIC	?ImeUi_IsHorizontalReading@@YA_NXZ		; ImeUi_IsHorizontalReading
PUBLIC	?ImeUi_GetCandidate@@YAPA_WI@Z			; ImeUi_GetCandidate
PUBLIC	?ImeUi_GetCompositionString@@YAPA_WXZ		; ImeUi_GetCompositionString
PUBLIC	?ImeUi_GetCandidateSelection@@YAKXZ		; ImeUi_GetCandidateSelection
PUBLIC	?ImeUi_GetCandidateCount@@YAKXZ			; ImeUi_GetCandidateCount
PUBLIC	?ImeUi_GetCompStringAttr@@YAPAEXZ		; ImeUi_GetCompStringAttr
PUBLIC	?ImeUi_GetImeCursorChars@@YAKXZ			; ImeUi_GetImeCursorChars
PUBLIC	??0ITfCompartmentEventSink@@QAE@XZ		; ITfCompartmentEventSink::ITfCompartmentEventSink
PUBLIC	??0ITfInputProcessorProfileActivationSink@@QAE@XZ ; ITfInputProcessorProfileActivationSink::ITfInputProcessorProfileActivationSink
PUBLIC	??0ITfUIElementSink@@QAE@XZ			; ITfUIElementSink::ITfUIElementSink
PUBLIC	??0CDisableCicero@@QAE@XZ			; CDisableCicero::CDisableCicero
PUBLIC	??1CDisableCicero@@QAE@XZ			; CDisableCicero::~CDisableCicero
PUBLIC	?Initialize@CDisableCicero@@QAEXXZ		; CDisableCicero::Initialize
PUBLIC	?Uninitialize@CDisableCicero@@QAEXXZ		; CDisableCicero::Uninitialize
PUBLIC	?DisableCiceroOnThisWnd@CDisableCicero@@QAEXPAUHWND__@@@Z ; CDisableCicero::DisableCiceroOnThisWnd
PUBLIC	?ImeUi_SetSupportLevel@@YAXK@Z			; ImeUi_SetSupportLevel
PUBLIC	?SendKeyMsg@@YAJPAUHWND__@@II@Z			; SendKeyMsg
PUBLIC	??0CUIElementSink@CTsfUiLessMode@@QAE@XZ	; CTsfUiLessMode::CUIElementSink::CUIElementSink
PUBLIC	??1CUIElementSink@CTsfUiLessMode@@QAE@XZ	; CTsfUiLessMode::CUIElementSink::~CUIElementSink
PUBLIC	?QueryInterface@CUIElementSink@CTsfUiLessMode@@UAGJABU_GUID@@PAPAX@Z ; CTsfUiLessMode::CUIElementSink::QueryInterface
PUBLIC	?AddRef@CUIElementSink@CTsfUiLessMode@@UAGKXZ	; CTsfUiLessMode::CUIElementSink::AddRef
PUBLIC	?Release@CUIElementSink@CTsfUiLessMode@@UAGKXZ	; CTsfUiLessMode::CUIElementSink::Release
PUBLIC	?BeginUIElement@CUIElementSink@CTsfUiLessMode@@UAGJKPAH@Z ; CTsfUiLessMode::CUIElementSink::BeginUIElement
PUBLIC	?UpdateUIElement@CUIElementSink@CTsfUiLessMode@@UAGJK@Z ; CTsfUiLessMode::CUIElementSink::UpdateUIElement
PUBLIC	?EndUIElement@CUIElementSink@CTsfUiLessMode@@UAGJK@Z ; CTsfUiLessMode::CUIElementSink::EndUIElement
PUBLIC	?OnActivated@CUIElementSink@CTsfUiLessMode@@UAGJKGABU_GUID@@00PAUHKL__@@K@Z ; CTsfUiLessMode::CUIElementSink::OnActivated
PUBLIC	?OnChange@CUIElementSink@CTsfUiLessMode@@UAGJABU_GUID@@@Z ; CTsfUiLessMode::CUIElementSink::OnChange
PUBLIC	??_GCUIElementSink@CTsfUiLessMode@@QAEPAXI@Z	; CTsfUiLessMode::CUIElementSink::`scalar deleting destructor'
PUBLIC	?MakeReadingInformationString@CTsfUiLessMode@@KAXPAUITfReadingInformationUIElement@@@Z ; CTsfUiLessMode::MakeReadingInformationString
PUBLIC	?MakeCandidateStrings@CTsfUiLessMode@@KAXPAUITfCandidateListUIElement@@@Z ; CTsfUiLessMode::MakeCandidateStrings
PUBLIC	?GetUIElement@CTsfUiLessMode@@KAPAUITfUIElement@@K@Z ; CTsfUiLessMode::GetUIElement
PUBLIC	?GetCompartments@CTsfUiLessMode@@KAHPAPAUITfCompartmentMgr@@PAPAUITfCompartment@@1@Z ; CTsfUiLessMode::GetCompartments
PUBLIC	?SetupCompartmentSinks@CTsfUiLessMode@@KAHHPAUITfCompartment@@0@Z ; CTsfUiLessMode::SetupCompartmentSinks
PUBLIC	?SetupSinks@CTsfUiLessMode@@SAHXZ		; CTsfUiLessMode::SetupSinks
PUBLIC	?ReleaseSinks@CTsfUiLessMode@@SAXXZ		; CTsfUiLessMode::ReleaseSinks
PUBLIC	?CurrentInputLocaleIsIme@CTsfUiLessMode@@SAHXZ	; CTsfUiLessMode::CurrentInputLocaleIsIme
PUBLIC	?UpdateImeState@CTsfUiLessMode@@SAXH@Z		; CTsfUiLessMode::UpdateImeState
PUBLIC	?EnableUiUpdates@CTsfUiLessMode@@SAX_N@Z	; CTsfUiLessMode::EnableUiUpdates
PUBLIC	??$min@I@std@@YAABIABI0@Z			; std::min<unsigned int>
PUBLIC	??$min@K@std@@YAABKABK0@Z			; std::min<unsigned long>
PUBLIC	??$_Debug_lt@ABIABI@std@@YA_NABI0PB_WI@Z	; std::_Debug_lt<unsigned int const &,unsigned int const &>
PUBLIC	??$_Debug_lt@ABKABK@std@@YA_NABK0PB_WI@Z	; std::_Debug_lt<unsigned long const &,unsigned long const &>
PUBLIC	??$forward@ABI@std@@YAABIABI@Z			; std::forward<unsigned int const &>
PUBLIC	??$_Debug_lt_pred@U?$less@X@std@@ABIABI@std@@YA_NU?$less@X@0@ABI1PB_WI@Z ; std::_Debug_lt_pred<std::less<void>,unsigned int const &,unsigned int const &>
PUBLIC	??$forward@ABK@std@@YAABKABK@Z			; std::forward<unsigned long const &>
PUBLIC	??$_Debug_lt_pred@U?$less@X@std@@ABKABK@std@@YA_NU?$less@X@0@ABK1PB_WI@Z ; std::_Debug_lt_pred<std::less<void>,unsigned long const &,unsigned long const &>
PUBLIC	??$?RABIABI@?$less@X@std@@QBE_NABI0@Z		; std::less<void>::operator()<unsigned int const &,unsigned int const &>
PUBLIC	??$?RABKABK@?$less@X@std@@QBE_NABK0@Z		; std::less<void>::operator()<unsigned long const &,unsigned long const &>
PUBLIC	?QueryInterface@CUIElementSink@CTsfUiLessMode@@W3AGJABU_GUID@@PAPAX@Z ; [thunk]:CTsfUiLessMode::CUIElementSink::QueryInterface`adjustor{4}'
PUBLIC	?AddRef@CUIElementSink@CTsfUiLessMode@@W3AGKXZ	; [thunk]:CTsfUiLessMode::CUIElementSink::AddRef`adjustor{4}'
PUBLIC	?Release@CUIElementSink@CTsfUiLessMode@@W3AGKXZ	; [thunk]:CTsfUiLessMode::CUIElementSink::Release`adjustor{4}'
PUBLIC	?QueryInterface@CUIElementSink@CTsfUiLessMode@@W7AGJABU_GUID@@PAPAX@Z ; [thunk]:CTsfUiLessMode::CUIElementSink::QueryInterface`adjustor{8}'
PUBLIC	?AddRef@CUIElementSink@CTsfUiLessMode@@W7AGKXZ	; [thunk]:CTsfUiLessMode::CUIElementSink::AddRef`adjustor{8}'
PUBLIC	?Release@CUIElementSink@CTsfUiLessMode@@W7AGKXZ	; [thunk]:CTsfUiLessMode::CUIElementSink::Release`adjustor{8}'
PUBLIC	??_7CUIElementSink@CTsfUiLessMode@@6BITfUIElementSink@@@ ; CTsfUiLessMode::CUIElementSink::`vftable'
PUBLIC	??_7CUIElementSink@CTsfUiLessMode@@6BITfInputProcessorProfileActivationSink@@@ ; CTsfUiLessMode::CUIElementSink::`vftable'
PUBLIC	??_7CUIElementSink@CTsfUiLessMode@@6BITfCompartmentEventSink@@@ ; CTsfUiLessMode::CUIElementSink::`vftable'
PUBLIC	??_C@_1JC@HALMDPKM@?$AAC?$AA?3?$AA?2?$AAP?$AAr?$AAo?$AAg?$AAr?$AAa?$AAm?$AA?5?$AAF?$AAi?$AAl?$AAe?$AAs?$AA?5?$AA?$CI?$AAx?$AA8?$AA6?$AA?$CJ?$AA?2?$AAM?$AAi?$AAc?$AAr?$AAo?$AAs?$AAo?$AAf?$AAt@ ; `string'
PUBLIC	??_C@_1CE@IGJMOCCK@?$AAi?$AAn?$AAv?$AAa?$AAl?$AAi?$AAd?$AA?5?$AAo?$AAp?$AAe?$AAr?$AAa?$AAt?$AAo?$AAr?$AA?$DM?$AA?$AA@ ; `string'
PUBLIC	??_R0?AUIUnknown@@@8				; IUnknown `RTTI Type Descriptor'
PUBLIC	??_R3IUnknown@@8				; IUnknown::`RTTI Class Hierarchy Descriptor'
PUBLIC	??_R2IUnknown@@8				; IUnknown::`RTTI Base Class Array'
PUBLIC	??_R1A@?0A@EA@IUnknown@@8			; IUnknown::`RTTI Base Class Descriptor at (0,-1,0,64)'
PUBLIC	??_R0?AUITfCompartmentEventSink@@@8		; ITfCompartmentEventSink `RTTI Type Descriptor'
PUBLIC	??_R3ITfCompartmentEventSink@@8			; ITfCompartmentEventSink::`RTTI Class Hierarchy Descriptor'
PUBLIC	??_R2ITfCompartmentEventSink@@8			; ITfCompartmentEventSink::`RTTI Base Class Array'
PUBLIC	??_R1A@?0A@EA@ITfCompartmentEventSink@@8	; ITfCompartmentEventSink::`RTTI Base Class Descriptor at (0,-1,0,64)'
PUBLIC	??_R0?AUITfInputProcessorProfileActivationSink@@@8 ; ITfInputProcessorProfileActivationSink `RTTI Type Descriptor'
PUBLIC	??_R3ITfInputProcessorProfileActivationSink@@8	; ITfInputProcessorProfileActivationSink::`RTTI Class Hierarchy Descriptor'
PUBLIC	??_R2ITfInputProcessorProfileActivationSink@@8	; ITfInputProcessorProfileActivationSink::`RTTI Base Class Array'
PUBLIC	??_R1A@?0A@EA@ITfInputProcessorProfileActivationSink@@8 ; ITfInputProcessorProfileActivationSink::`RTTI Base Class Descriptor at (0,-1,0,64)'
PUBLIC	??_R0?AUITfUIElementSink@@@8			; ITfUIElementSink `RTTI Type Descriptor'
PUBLIC	??_R3ITfUIElementSink@@8			; ITfUIElementSink::`RTTI Class Hierarchy Descriptor'
PUBLIC	??_R2ITfUIElementSink@@8			; ITfUIElementSink::`RTTI Base Class Array'
PUBLIC	??_R1A@?0A@EA@ITfUIElementSink@@8		; ITfUIElementSink::`RTTI Base Class Descriptor at (0,-1,0,64)'
PUBLIC	??_R4CUIElementSink@CTsfUiLessMode@@6BITfUIElementSink@@@ ; CTsfUiLessMode::CUIElementSink::`RTTI Complete Object Locator'
PUBLIC	??_R0?AVCUIElementSink@CTsfUiLessMode@@@8	; CTsfUiLessMode::CUIElementSink `RTTI Type Descriptor'
PUBLIC	??_R3CUIElementSink@CTsfUiLessMode@@8		; CTsfUiLessMode::CUIElementSink::`RTTI Class Hierarchy Descriptor'
PUBLIC	??_R2CUIElementSink@CTsfUiLessMode@@8		; CTsfUiLessMode::CUIElementSink::`RTTI Base Class Array'
PUBLIC	??_R1A@?0A@EA@CUIElementSink@CTsfUiLessMode@@8	; CTsfUiLessMode::CUIElementSink::`RTTI Base Class Descriptor at (0,-1,0,64)'
PUBLIC	??_R1A@?0A@EC@IUnknown@@8			; IUnknown::`RTTI Base Class Descriptor at (0,-1,0,66)'
PUBLIC	??_R13?0A@EA@ITfInputProcessorProfileActivationSink@@8 ; ITfInputProcessorProfileActivationSink::`RTTI Base Class Descriptor at (4,-1,0,64)'
PUBLIC	??_R13?0A@EC@IUnknown@@8			; IUnknown::`RTTI Base Class Descriptor at (4,-1,0,66)'
PUBLIC	??_R17?0A@EA@ITfCompartmentEventSink@@8		; ITfCompartmentEventSink::`RTTI Base Class Descriptor at (8,-1,0,64)'
PUBLIC	??_R17?0A@EC@IUnknown@@8			; IUnknown::`RTTI Base Class Descriptor at (8,-1,0,66)'
PUBLIC	??_R4CUIElementSink@CTsfUiLessMode@@6BITfInputProcessorProfileActivationSink@@@ ; CTsfUiLessMode::CUIElementSink::`RTTI Complete Object Locator'
PUBLIC	??_R4CUIElementSink@CTsfUiLessMode@@6BITfCompartmentEventSink@@@ ; CTsfUiLessMode::CUIElementSink::`RTTI Complete Object Locator'
PUBLIC	__real@3f200000
PUBLIC	__real@3f4ccccd
PUBLIC	__real@3f800000
PUBLIC	__real@40000000
PUBLIC	__real@406f400000000000
PUBLIC	__real@40800000
PUBLIC	__real@40c90fda
PUBLIC	__real@41600000
PUBLIC	__real@42900000
PUBLIC	__real@42c00000
PUBLIC	__xmm@41f00000000000000000000000000000
PUBLIC	__xmm@80000000800000008000000080000000
EXTRN	??3@YAXPAX@Z:PROC				; operator delete
EXTRN	_atexit:PROC
EXTRN	___report_rangecheckfailure:PROC
EXTRN	__imp__strcpy_s:PROC
EXTRN	__imp__strcat_s:PROC
EXTRN	__imp__wcscat_s:PROC
EXTRN	__imp__wcscpy_s:PROC
EXTRN	__imp__GetTickCount@0:PROC
EXTRN	__imp__FreeLibrary@4:PROC
EXTRN	__imp__GetProcAddress@8:PROC
EXTRN	__imp__LoadLibraryExA@12:PROC
EXTRN	__imp__LoadLibraryExW@12:PROC
EXTRN	__imp__GetKeyboardLayout@4:PROC
EXTRN	__imp__GetMessageA@16:PROC
EXTRN	__imp__TranslateMessage@4:PROC
EXTRN	__imp__DispatchMessageA@4:PROC
EXTRN	__imp__PeekMessageA@20:PROC
EXTRN	__imp__SendMessageA@16:PROC
EXTRN	__imp__SendMessageW@16:PROC
EXTRN	__imp__PostMessageA@16:PROC
EXTRN	__imp__PostQuitMessage@4:PROC
EXTRN	__imp__CharNextW@4:PROC
EXTRN	__imp__GetFocus@0:PROC
EXTRN	__imp__GetKeyState@4:PROC
EXTRN	__imp__GetAsyncKeyState@4:PROC
EXTRN	__imp__GetCaretBlinkTime@0:PROC
EXTRN	__imp__MultiByteToWideChar@24:PROC
EXTRN	__imp__CompareStringA@24:PROC
EXTRN	__imp__GetLocaleInfoA@16:PROC
EXTRN	__imp__IsDBCSLeadByteEx@8:PROC
EXTRN	_GetFileVersionInfoSizeA@8:PROC
EXTRN	_GetFileVersionInfoA@16:PROC
EXTRN	_VerQueryValueA@16:PROC
EXTRN	__imp__RegCloseKey@4:PROC
EXTRN	__imp__RegOpenKeyExA@20:PROC
EXTRN	__imp__RegQueryValueExA@24:PROC
EXTRN	__imp__CoUninitialize@0:PROC
EXTRN	__imp__CoInitializeEx@8:PROC
EXTRN	__imp__CoCreateInstance@20:PROC
EXTRN	__imp__CoInitialize@4:PROC
EXTRN	__imp__SysFreeString@4:PROC
EXTRN	__imp__VariantClear@4:PROC
EXTRN	_ImmGetDefaultIMEWnd@4:PROC
EXTRN	_ImmGetIMEFileNameA@12:PROC
EXTRN	_ImmIsIME@4:PROC
EXTRN	_ImmSimulateHotKey@8:PROC
EXTRN	_ImmGetContext@4:PROC
EXTRN	_ImmReleaseContext@8:PROC
EXTRN	_ImmAssociateContext@8:PROC
EXTRN	_ImmGetCompositionStringW@16:PROC
EXTRN	_ImmSetCompositionStringW@24:PROC
EXTRN	_ImmGetCandidateListW@16:PROC
EXTRN	_ImmGetConversionStatus@12:PROC
EXTRN	_ImmSetConversionStatus@12:PROC
EXTRN	_ImmGetOpenStatus@4:PROC
EXTRN	_ImmSetOpenStatus@8:PROC
EXTRN	_ImmNotifyIME@16:PROC
EXTRN	_ImmGetVirtualKey@4:PROC
EXTRN	__imp___wassert:PROC
EXTRN	??2@YAPAXIABUnothrow_t@std@@@Z:PROC		; operator new
EXTRN	??3@YAXPAXABUnothrow_t@std@@@Z:PROC		; operator delete
EXTRN	__imp__swprintf_s:PROC
EXTRN	__imp_?_Debug_message@std@@YAXPB_W0I@Z:PROC
EXTRN	@_RTC_CheckStackVars@8:PROC
EXTRN	@__security_check_cookie@4:PROC
EXTRN	__RTC_CheckEsp:PROC
EXTRN	__RTC_InitBase:PROC
EXTRN	__RTC_Shutdown:PROC
EXTRN	___CxxFrameHandler3:PROC
EXTRN	___libm_sse2_cosf:PROC
EXTRN	___libm_sse2_sinf:PROC
EXTRN	__ftoui3:PROC
EXTRN	_memcmp:PROC
EXTRN	_memcpy:PROC
EXTRN	_memset:PROC
EXTRN	_IID_IUnknown:BYTE
EXTRN	?nothrow@std@@3Unothrow_t@1@B:BYTE		; std::nothrow
EXTRN	??_7type_info@@6B@:QWORD			; type_info::`vftable'
EXTRN	_CLSID_TF_ThreadMgr:BYTE
EXTRN	_CLSID_TF_InputProcessorProfiles:BYTE
EXTRN	_CLSID_TF_LangBarMgr:BYTE
EXTRN	_GUID_COMPARTMENT_KEYBOARD_OPENCLOSE:BYTE
EXTRN	_GUID_TFCAT_TIP_KEYBOARD:BYTE
EXTRN	_IID_ITfCompartmentEventSink:BYTE
EXTRN	_IID_ITfCompartmentMgr:BYTE
EXTRN	_IID_ITfSource:BYTE
EXTRN	___security_cookie:DWORD
EXTRN	__fltused:DWORD
_BSS	SEGMENT
	ALIGN	8

_g_disableCicero DQ 01H DUP (?)
_LeadByteTable DB 0100H DUP (?)
__ImmGetCompositionString DD 01H DUP (?)
__ImmGetCandidateList DD 01H DUP (?)
__ImmLockIMC DD	01H DUP (?)
__ImmUnlockIMC DD 01H DUP (?)
__ImmLockIMCC DD 01H DUP (?)
__ImmUnlockIMCC DD 01H DUP (?)
__SendCompString DD 01H DUP (?)
__SendMessage DD 01H DUP (?)
__GetCandidateList DD 01H DUP (?)
_g_hwndMain DD	01H DUP (?)
_g_hwndCurr DD	01H DUP (?)
_g_himcOrg DD	01H DUP (?)
_g_szCompositionString DW 0100H DUP (?)
_g_szCompAttrString DB 0100H DUP (?)
_g_szCandidate DW 0a00H DUP (?)
_g_dwSelection DD 01H DUP (?)
_g_dwCount DD	01H DUP (?)
_g_uCandPageSize DD 01H DUP (?)
_g_dwIMELevel DD 01H DUP (?)
_g_dwIMELevelSaved DD 01H DUP (?)
_g_szMultiLineCompString DW 0100H DUP (?)
_g_bChineseIME DB 01H DUP (?)
	ALIGN	4

_g_szReadingString DW 020H DUP (?)
_g_iReadingError DD 01H DUP (?)
_g_screenWidth DD 01H DUP (?)
_g_screenHeight DD 01H DUP (?)
_g_dwPrevFloat DD 01H DUP (?)
_g_osi	DB	094H DUP (?)
_g_dwCandX DD	01H DUP (?)
_g_dwCandY DD	01H DUP (?)
_g_dwCaretX DD	01H DUP (?)
_g_dwCaretY DD	01H DUP (?)
_g_hCompChar DD	01H DUP (?)
_g_iCandListIndexBase DD 01H DUP (?)
_g_CaretInfo DB	024H DUP (?)
_lastSwirl DQ	01H DUP (?)
_g_pszIndicatior DD 01H DUP (?)
_BSS	ENDS
;	COMDAT ?uDigitWidth@?N@??DrawCandidateList@@YAXXZ@4KA
_BSS	SEGMENT
?uDigitWidth@?N@??DrawCandidateList@@YAXXZ@4KA DD 01H DUP (?) ; `DrawCandidateList'::`13'::uDigitWidth
_BSS	ENDS
;	COMDAT ?uDigitWidthList@?N@??DrawCandidateList@@YAXXZ@4PAKA
_BSS	SEGMENT
?uDigitWidthList@?N@??DrawCandidateList@@YAXXZ@4PAKA DD 0aH DUP (?) ; `DrawCandidateList'::`13'::uDigitWidthList
_BSS	ENDS
;	COMDAT ?pPrevFont@?N@??DrawCandidateList@@YAXXZ@4PAVCImeUiFont_Base@@A
_BSS	SEGMENT
?pPrevFont@?N@??DrawCandidateList@@YAXXZ@4PAVCImeUiFont_Base@@A DD 01H DUP (?) ; `DrawCandidateList'::`13'::pPrevFont
_BSS	ENDS
;	COMDAT ?bNoReentrance@?CL@??ImeUi_ProcessMessage@@YAJPAUHWND__@@IIAAJPA_N@Z@4_NA
_BSS	SEGMENT
?bNoReentrance@?CL@??ImeUi_ProcessMessage@@YAJPAUHWND__@@IIAAJPA_N@Z@4_NA DB 01H DUP (?) ; `ImeUi_ProcessMessage'::`43'::bNoReentrance
_BSS	ENDS
;	COMDAT ?hklPrev@?1??GetImeId@@YAKI@Z@4PAUHKL__@@A
_BSS	SEGMENT
?hklPrev@?1??GetImeId@@YAKI@Z@4PAUHKL__@@A DD 01H DUP (?) ; `GetImeId'::`2'::hklPrev
_BSS	ENDS
;	COMDAT ?dwRet@?1??GetImeId@@YAKI@Z@4PAKA
_BSS	SEGMENT
?dwRet@?1??GetImeId@@YAKI@Z@4PAKA DD 02H DUP (?)	; `GetImeId'::`2'::dwRet
_BSS	ENDS
;	COMDAT ?bProcessing@?1??ImeUi_FinalizeString@@YAX_N@Z@4_NA
_BSS	SEGMENT
?bProcessing@?1??ImeUi_FinalizeString@@YAX_N@Z@4_NA DB 01H DUP (?) ; `ImeUi_FinalizeString'::`2'::bProcessing
_BSS	ENDS
;	COMDAT ?hklPrev@?1??CheckInputLocale@@YAXXZ@4PAUHKL__@@A
_BSS	SEGMENT
?hklPrev@?1??CheckInputLocale@@YAXXZ@4PAUHKL__@@A DD 01H DUP (?) ; `CheckInputLocale'::`2'::hklPrev
_BSS	ENDS
CRT$XCU	SEGMENT
_g_disableCicero$initializer$ DD FLAT:??__Eg_disableCicero@@YAXXZ
CRT$XCU	ENDS
;	COMDAT __xmm@80000000800000008000000080000000
CONST	SEGMENT
__xmm@80000000800000008000000080000000 DB 00H, 00H, 00H, 080H, 00H, 00H, 00H
	DB	080H, 00H, 00H, 00H, 080H, 00H, 00H, 00H, 080H
CONST	ENDS
;	COMDAT __xmm@41f00000000000000000000000000000
CONST	SEGMENT
__xmm@41f00000000000000000000000000000 DB 00H, 00H, 00H, 00H, 00H, 00H, 00H
	DB	00H, 00H, 00H, 00H, 00H, 00H, 00H, 0f0H, 'A'
CONST	ENDS
;	COMDAT __real@42c00000
CONST	SEGMENT
__real@42c00000 DD 042c00000r			; 96
CONST	ENDS
;	COMDAT __real@42900000
CONST	SEGMENT
__real@42900000 DD 042900000r			; 72
CONST	ENDS
;	COMDAT __real@41600000
CONST	SEGMENT
__real@41600000 DD 041600000r			; 14
CONST	ENDS
;	COMDAT __real@40c90fda
CONST	SEGMENT
__real@40c90fda DD 040c90fdar			; 6.28319
CONST	ENDS
;	COMDAT __real@40800000
CONST	SEGMENT
__real@40800000 DD 040800000r			; 4
CONST	ENDS
;	COMDAT __real@406f400000000000
CONST	SEGMENT
__real@406f400000000000 DQ 0406f400000000000r	; 250
CONST	ENDS
;	COMDAT __real@40000000
CONST	SEGMENT
__real@40000000 DD 040000000r			; 2
CONST	ENDS
;	COMDAT __real@3f800000
CONST	SEGMENT
__real@3f800000 DD 03f800000r			; 1
CONST	ENDS
;	COMDAT __real@3f4ccccd
CONST	SEGMENT
__real@3f4ccccd DD 03f4ccccdr			; 0.8
CONST	ENDS
;	COMDAT __real@3f200000
CONST	SEGMENT
__real@3f200000 DD 03f200000r			; 0.625
CONST	ENDS
;	COMDAT rtc$TMZ
rtc$TMZ	SEGMENT
__RTC_Shutdown.rtc$TMZ DD FLAT:__RTC_Shutdown
rtc$TMZ	ENDS
;	COMDAT rtc$IMZ
rtc$IMZ	SEGMENT
__RTC_InitBase.rtc$IMZ DD FLAT:__RTC_InitBase
rtc$IMZ	ENDS
;	COMDAT ??_R4CUIElementSink@CTsfUiLessMode@@6BITfCompartmentEventSink@@@
rdata$r	SEGMENT
??_R4CUIElementSink@CTsfUiLessMode@@6BITfCompartmentEventSink@@@ DD 00H ; CTsfUiLessMode::CUIElementSink::`RTTI Complete Object Locator'
	DD	08H
	DD	00H
	DD	FLAT:??_R0?AVCUIElementSink@CTsfUiLessMode@@@8
	DD	FLAT:??_R3CUIElementSink@CTsfUiLessMode@@8
rdata$r	ENDS
;	COMDAT ??_R4CUIElementSink@CTsfUiLessMode@@6BITfInputProcessorProfileActivationSink@@@
rdata$r	SEGMENT
??_R4CUIElementSink@CTsfUiLessMode@@6BITfInputProcessorProfileActivationSink@@@ DD 00H ; CTsfUiLessMode::CUIElementSink::`RTTI Complete Object Locator'
	DD	04H
	DD	00H
	DD	FLAT:??_R0?AVCUIElementSink@CTsfUiLessMode@@@8
	DD	FLAT:??_R3CUIElementSink@CTsfUiLessMode@@8
rdata$r	ENDS
;	COMDAT ??_R17?0A@EC@IUnknown@@8
rdata$r	SEGMENT
??_R17?0A@EC@IUnknown@@8 DD FLAT:??_R0?AUIUnknown@@@8	; IUnknown::`RTTI Base Class Descriptor at (8,-1,0,66)'
	DD	00H
	DD	08H
	DD	0ffffffffH
	DD	00H
	DD	042H
	DD	FLAT:??_R3IUnknown@@8
rdata$r	ENDS
;	COMDAT ??_R17?0A@EA@ITfCompartmentEventSink@@8
rdata$r	SEGMENT
??_R17?0A@EA@ITfCompartmentEventSink@@8 DD FLAT:??_R0?AUITfCompartmentEventSink@@@8 ; ITfCompartmentEventSink::`RTTI Base Class Descriptor at (8,-1,0,64)'
	DD	01H
	DD	08H
	DD	0ffffffffH
	DD	00H
	DD	040H
	DD	FLAT:??_R3ITfCompartmentEventSink@@8
rdata$r	ENDS
;	COMDAT ??_R13?0A@EC@IUnknown@@8
rdata$r	SEGMENT
??_R13?0A@EC@IUnknown@@8 DD FLAT:??_R0?AUIUnknown@@@8	; IUnknown::`RTTI Base Class Descriptor at (4,-1,0,66)'
	DD	00H
	DD	04H
	DD	0ffffffffH
	DD	00H
	DD	042H
	DD	FLAT:??_R3IUnknown@@8
rdata$r	ENDS
;	COMDAT ??_R13?0A@EA@ITfInputProcessorProfileActivationSink@@8
rdata$r	SEGMENT
??_R13?0A@EA@ITfInputProcessorProfileActivationSink@@8 DD FLAT:??_R0?AUITfInputProcessorProfileActivationSink@@@8 ; ITfInputProcessorProfileActivationSink::`RTTI Base Class Descriptor at (4,-1,0,64)'
	DD	01H
	DD	04H
	DD	0ffffffffH
	DD	00H
	DD	040H
	DD	FLAT:??_R3ITfInputProcessorProfileActivationSink@@8
rdata$r	ENDS
;	COMDAT ??_R1A@?0A@EC@IUnknown@@8
rdata$r	SEGMENT
??_R1A@?0A@EC@IUnknown@@8 DD FLAT:??_R0?AUIUnknown@@@8	; IUnknown::`RTTI Base Class Descriptor at (0,-1,0,66)'
	DD	00H
	DD	00H
	DD	0ffffffffH
	DD	00H
	DD	042H
	DD	FLAT:??_R3IUnknown@@8
rdata$r	ENDS
;	COMDAT ??_R1A@?0A@EA@CUIElementSink@CTsfUiLessMode@@8
rdata$r	SEGMENT
??_R1A@?0A@EA@CUIElementSink@CTsfUiLessMode@@8 DD FLAT:??_R0?AVCUIElementSink@CTsfUiLessMode@@@8 ; CTsfUiLessMode::CUIElementSink::`RTTI Base Class Descriptor at (0,-1,0,64)'
	DD	06H
	DD	00H
	DD	0ffffffffH
	DD	00H
	DD	040H
	DD	FLAT:??_R3CUIElementSink@CTsfUiLessMode@@8
rdata$r	ENDS
;	COMDAT ??_R2CUIElementSink@CTsfUiLessMode@@8
rdata$r	SEGMENT
??_R2CUIElementSink@CTsfUiLessMode@@8 DD FLAT:??_R1A@?0A@EA@CUIElementSink@CTsfUiLessMode@@8 ; CTsfUiLessMode::CUIElementSink::`RTTI Base Class Array'
	DD	FLAT:??_R1A@?0A@EA@ITfUIElementSink@@8
	DD	FLAT:??_R1A@?0A@EC@IUnknown@@8
	DD	FLAT:??_R13?0A@EA@ITfInputProcessorProfileActivationSink@@8
	DD	FLAT:??_R13?0A@EC@IUnknown@@8
	DD	FLAT:??_R17?0A@EA@ITfCompartmentEventSink@@8
	DD	FLAT:??_R17?0A@EC@IUnknown@@8
rdata$r	ENDS
;	COMDAT ??_R3CUIElementSink@CTsfUiLessMode@@8
rdata$r	SEGMENT
??_R3CUIElementSink@CTsfUiLessMode@@8 DD 00H		; CTsfUiLessMode::CUIElementSink::`RTTI Class Hierarchy Descriptor'
	DD	05H
	DD	07H
	DD	FLAT:??_R2CUIElementSink@CTsfUiLessMode@@8
rdata$r	ENDS
;	COMDAT ??_R0?AVCUIElementSink@CTsfUiLessMode@@@8
data$r	SEGMENT
??_R0?AVCUIElementSink@CTsfUiLessMode@@@8 DD FLAT:??_7type_info@@6B@ ; CTsfUiLessMode::CUIElementSink `RTTI Type Descriptor'
	DD	00H
	DB	'.?AVCUIElementSink@CTsfUiLessMode@@', 00H
data$r	ENDS
;	COMDAT ??_R4CUIElementSink@CTsfUiLessMode@@6BITfUIElementSink@@@
rdata$r	SEGMENT
??_R4CUIElementSink@CTsfUiLessMode@@6BITfUIElementSink@@@ DD 00H ; CTsfUiLessMode::CUIElementSink::`RTTI Complete Object Locator'
	DD	00H
	DD	00H
	DD	FLAT:??_R0?AVCUIElementSink@CTsfUiLessMode@@@8
	DD	FLAT:??_R3CUIElementSink@CTsfUiLessMode@@8
rdata$r	ENDS
;	COMDAT ??_R1A@?0A@EA@ITfUIElementSink@@8
rdata$r	SEGMENT
??_R1A@?0A@EA@ITfUIElementSink@@8 DD FLAT:??_R0?AUITfUIElementSink@@@8 ; ITfUIElementSink::`RTTI Base Class Descriptor at (0,-1,0,64)'
	DD	01H
	DD	00H
	DD	0ffffffffH
	DD	00H
	DD	040H
	DD	FLAT:??_R3ITfUIElementSink@@8
rdata$r	ENDS
;	COMDAT ??_R2ITfUIElementSink@@8
rdata$r	SEGMENT
??_R2ITfUIElementSink@@8 DD FLAT:??_R1A@?0A@EA@ITfUIElementSink@@8 ; ITfUIElementSink::`RTTI Base Class Array'
	DD	FLAT:??_R1A@?0A@EA@IUnknown@@8
rdata$r	ENDS
;	COMDAT ??_R3ITfUIElementSink@@8
rdata$r	SEGMENT
??_R3ITfUIElementSink@@8 DD 00H				; ITfUIElementSink::`RTTI Class Hierarchy Descriptor'
	DD	00H
	DD	02H
	DD	FLAT:??_R2ITfUIElementSink@@8
rdata$r	ENDS
;	COMDAT ??_R0?AUITfUIElementSink@@@8
data$r	SEGMENT
??_R0?AUITfUIElementSink@@@8 DD FLAT:??_7type_info@@6B@	; ITfUIElementSink `RTTI Type Descriptor'
	DD	00H
	DB	'.?AUITfUIElementSink@@', 00H
data$r	ENDS
;	COMDAT ??_R1A@?0A@EA@ITfInputProcessorProfileActivationSink@@8
rdata$r	SEGMENT
??_R1A@?0A@EA@ITfInputProcessorProfileActivationSink@@8 DD FLAT:??_R0?AUITfInputProcessorProfileActivationSink@@@8 ; ITfInputProcessorProfileActivationSink::`RTTI Base Class Descriptor at (0,-1,0,64)'
	DD	01H
	DD	00H
	DD	0ffffffffH
	DD	00H
	DD	040H
	DD	FLAT:??_R3ITfInputProcessorProfileActivationSink@@8
rdata$r	ENDS
;	COMDAT ??_R2ITfInputProcessorProfileActivationSink@@8
rdata$r	SEGMENT
??_R2ITfInputProcessorProfileActivationSink@@8 DD FLAT:??_R1A@?0A@EA@ITfInputProcessorProfileActivationSink@@8 ; ITfInputProcessorProfileActivationSink::`RTTI Base Class Array'
	DD	FLAT:??_R1A@?0A@EA@IUnknown@@8
rdata$r	ENDS
;	COMDAT ??_R3ITfInputProcessorProfileActivationSink@@8
rdata$r	SEGMENT
??_R3ITfInputProcessorProfileActivationSink@@8 DD 00H	; ITfInputProcessorProfileActivationSink::`RTTI Class Hierarchy Descriptor'
	DD	00H
	DD	02H
	DD	FLAT:??_R2ITfInputProcessorProfileActivationSink@@8
rdata$r	ENDS
;	COMDAT ??_R0?AUITfInputProcessorProfileActivationSink@@@8
data$r	SEGMENT
??_R0?AUITfInputProcessorProfileActivationSink@@@8 DD FLAT:??_7type_info@@6B@ ; ITfInputProcessorProfileActivationSink `RTTI Type Descriptor'
	DD	00H
	DB	'.?AUITfInputProcessorProfileActivationSink@@', 00H
data$r	ENDS
;	COMDAT ??_R1A@?0A@EA@ITfCompartmentEventSink@@8
rdata$r	SEGMENT
??_R1A@?0A@EA@ITfCompartmentEventSink@@8 DD FLAT:??_R0?AUITfCompartmentEventSink@@@8 ; ITfCompartmentEventSink::`RTTI Base Class Descriptor at (0,-1,0,64)'
	DD	01H
	DD	00H
	DD	0ffffffffH
	DD	00H
	DD	040H
	DD	FLAT:??_R3ITfCompartmentEventSink@@8
rdata$r	ENDS
;	COMDAT ??_R2ITfCompartmentEventSink@@8
rdata$r	SEGMENT
??_R2ITfCompartmentEventSink@@8 DD FLAT:??_R1A@?0A@EA@ITfCompartmentEventSink@@8 ; ITfCompartmentEventSink::`RTTI Base Class Array'
	DD	FLAT:??_R1A@?0A@EA@IUnknown@@8
rdata$r	ENDS
;	COMDAT ??_R3ITfCompartmentEventSink@@8
rdata$r	SEGMENT
??_R3ITfCompartmentEventSink@@8 DD 00H			; ITfCompartmentEventSink::`RTTI Class Hierarchy Descriptor'
	DD	00H
	DD	02H
	DD	FLAT:??_R2ITfCompartmentEventSink@@8
rdata$r	ENDS
;	COMDAT ??_R0?AUITfCompartmentEventSink@@@8
data$r	SEGMENT
??_R0?AUITfCompartmentEventSink@@@8 DD FLAT:??_7type_info@@6B@ ; ITfCompartmentEventSink `RTTI Type Descriptor'
	DD	00H
	DB	'.?AUITfCompartmentEventSink@@', 00H
data$r	ENDS
;	COMDAT ??_R1A@?0A@EA@IUnknown@@8
rdata$r	SEGMENT
??_R1A@?0A@EA@IUnknown@@8 DD FLAT:??_R0?AUIUnknown@@@8	; IUnknown::`RTTI Base Class Descriptor at (0,-1,0,64)'
	DD	00H
	DD	00H
	DD	0ffffffffH
	DD	00H
	DD	040H
	DD	FLAT:??_R3IUnknown@@8
rdata$r	ENDS
;	COMDAT ??_R2IUnknown@@8
rdata$r	SEGMENT
??_R2IUnknown@@8 DD FLAT:??_R1A@?0A@EA@IUnknown@@8	; IUnknown::`RTTI Base Class Array'
rdata$r	ENDS
;	COMDAT ??_R3IUnknown@@8
rdata$r	SEGMENT
??_R3IUnknown@@8 DD 00H					; IUnknown::`RTTI Class Hierarchy Descriptor'
	DD	00H
	DD	01H
	DD	FLAT:??_R2IUnknown@@8
rdata$r	ENDS
;	COMDAT ??_R0?AUIUnknown@@@8
data$r	SEGMENT
??_R0?AUIUnknown@@@8 DD FLAT:??_7type_info@@6B@		; IUnknown `RTTI Type Descriptor'
	DD	00H
	DB	'.?AUIUnknown@@', 00H
data$r	ENDS
;	COMDAT ??_C@_1CE@IGJMOCCK@?$AAi?$AAn?$AAv?$AAa?$AAl?$AAi?$AAd?$AA?5?$AAo?$AAp?$AAe?$AAr?$AAa?$AAt?$AAo?$AAr?$AA?$DM?$AA?$AA@
CONST	SEGMENT
??_C@_1CE@IGJMOCCK@?$AAi?$AAn?$AAv?$AAa?$AAl?$AAi?$AAd?$AA?5?$AAo?$AAp?$AAe?$AAr?$AAa?$AAt?$AAo?$AAr?$AA?$DM?$AA?$AA@ DB 'i'
	DB	00H, 'n', 00H, 'v', 00H, 'a', 00H, 'l', 00H, 'i', 00H, 'd', 00H
	DB	' ', 00H, 'o', 00H, 'p', 00H, 'e', 00H, 'r', 00H, 'a', 00H, 't'
	DB	00H, 'o', 00H, 'r', 00H, '<', 00H, 00H, 00H	; `string'
CONST	ENDS
;	COMDAT ??_C@_1JC@HALMDPKM@?$AAC?$AA?3?$AA?2?$AAP?$AAr?$AAo?$AAg?$AAr?$AAa?$AAm?$AA?5?$AAF?$AAi?$AAl?$AAe?$AAs?$AA?5?$AA?$CI?$AAx?$AA8?$AA6?$AA?$CJ?$AA?2?$AAM?$AAi?$AAc?$AAr?$AAo?$AAs?$AAo?$AAf?$AAt@
CONST	SEGMENT
??_C@_1JC@HALMDPKM@?$AAC?$AA?3?$AA?2?$AAP?$AAr?$AAo?$AAg?$AAr?$AAa?$AAm?$AA?5?$AAF?$AAi?$AAl?$AAe?$AAs?$AA?5?$AA?$CI?$AAx?$AA8?$AA6?$AA?$CJ?$AA?2?$AAM?$AAi?$AAc?$AAr?$AAo?$AAs?$AAo?$AAf?$AAt@ DB 'C'
	DB	00H, ':', 00H, '\', 00H, 'P', 00H, 'r', 00H, 'o', 00H, 'g', 00H
	DB	'r', 00H, 'a', 00H, 'm', 00H, ' ', 00H, 'F', 00H, 'i', 00H, 'l'
	DB	00H, 'e', 00H, 's', 00H, ' ', 00H, '(', 00H, 'x', 00H, '8', 00H
	DB	'6', 00H, ')', 00H, '\', 00H, 'M', 00H, 'i', 00H, 'c', 00H, 'r'
	DB	00H, 'o', 00H, 's', 00H, 'o', 00H, 'f', 00H, 't', 00H, ' ', 00H
	DB	'V', 00H, 'i', 00H, 's', 00H, 'u', 00H, 'a', 00H, 'l', 00H, ' '
	DB	00H, 'S', 00H, 't', 00H, 'u', 00H, 'd', 00H, 'i', 00H, 'o', 00H
	DB	' ', 00H, '1', 00H, '2', 00H, '.', 00H, '0', 00H, '\', 00H, 'V'
	DB	00H, 'C', 00H, '\', 00H, 'i', 00H, 'n', 00H, 'c', 00H, 'l', 00H
	DB	'u', 00H, 'd', 00H, 'e', 00H, '\', 00H, 'a', 00H, 'l', 00H, 'g'
	DB	00H, 'o', 00H, 'r', 00H, 'i', 00H, 't', 00H, 'h', 00H, 'm', 00H
	DB	00H, 00H					; `string'
CONST	ENDS
;	COMDAT ?_GUID_COMPARTMENT_KEYBOARD_INPUTMODE_CONVERSION@?1??GetCompartments@CTsfUiLessMode@@KAHPAPAUITfCompartmentMgr@@PAPAUITfCompartment@@1@Z@4U_GUID@@A
_DATA	SEGMENT
?_GUID_COMPARTMENT_KEYBOARD_INPUTMODE_CONVERSION@?1??GetCompartments@CTsfUiLessMode@@KAHPAPAUITfCompartmentMgr@@PAPAUITfCompartment@@1@Z@4U_GUID@@A DD 0ccf05dd8H ; `CTsfUiLessMode::GetCompartments'::`2'::_GUID_COMPARTMENT_KEYBOARD_INPUTMODE_CONVERSION
	DW	04a87H
	DW	011d7H
	DB	0a6H
	DB	0e2H
	DB	00H
	DB	06H
	DB	05bH
	DB	084H
	DB	043H
	DB	05cH
_DATA	ENDS
;	COMDAT ?s_TF_PROFILE_DAYI@?1??OnActivated@CUIElementSink@CTsfUiLessMode@@UAGJKGABU_GUID@@00PAUHKL__@@K@Z@4U4@A
_DATA	SEGMENT
?s_TF_PROFILE_DAYI@?1??OnActivated@CUIElementSink@CTsfUiLessMode@@UAGJKGABU_GUID@@00PAUHKL__@@K@Z@4U4@A DD 037b2c25H ; `CTsfUiLessMode::CUIElementSink::OnActivated'::`2'::s_TF_PROFILE_DAYI
	DW	0480cH
	DW	04d7fH
	DB	0b0H
	DB	027H
	DB	0d6H
	DB	0caH
	DB	06bH
	DB	069H
	DB	078H
	DB	08aH
_DATA	ENDS
;	COMDAT ?iShowStatusWindow@?3??ImeUi_ToggleLanguageBar@@YAXH@Z@4HA
_DATA	SEGMENT
?iShowStatusWindow@?3??ImeUi_ToggleLanguageBar@@YAXH@Z@4HA DD 0ffffffffH ; `ImeUi_ToggleLanguageBar'::`4'::iShowStatusWindow
_DATA	ENDS
;	COMDAT ?prevRestore@?1??ImeUi_ToggleLanguageBar@@YAXH@Z@4HA
_DATA	SEGMENT
?prevRestore@?1??ImeUi_ToggleLanguageBar@@YAXH@Z@4HA DD 01H ; `ImeUi_ToggleLanguageBar'::`2'::prevRestore
_DATA	ENDS
;	COMDAT ?lShift@?1??ImeUi_ProcessMessage@@YAJPAUHWND__@@IIAAJPA_N@Z@4JA
_DATA	SEGMENT
?lShift@?1??ImeUi_ProcessMessage@@YAJPAUHWND__@@IIAAJPA_N@Z@4JA DD 080000000H ; `ImeUi_ProcessMessage'::`2'::lShift
_DATA	ENDS
;	COMDAT ?lCtrl@?1??ImeUi_ProcessMessage@@YAJPAUHWND__@@IIAAJPA_N@Z@4JA
_DATA	SEGMENT
?lCtrl@?1??ImeUi_ProcessMessage@@YAJPAUHWND__@@IIAAJPA_N@Z@4JA DD 080000000H ; `ImeUi_ProcessMessage'::`2'::lCtrl
_DATA	ENDS
;	COMDAT ?lAlt@?1??ImeUi_ProcessMessage@@YAJPAUHWND__@@IIAAJPA_N@Z@4JA
_DATA	SEGMENT
?lAlt@?1??ImeUi_ProcessMessage@@YAJPAUHWND__@@IIAAJPA_N@Z@4JA DD 080000000H ; `ImeUi_ProcessMessage'::`2'::lAlt
_DATA	ENDS
;	COMDAT ??_7CUIElementSink@CTsfUiLessMode@@6BITfCompartmentEventSink@@@
CONST	SEGMENT
??_7CUIElementSink@CTsfUiLessMode@@6BITfCompartmentEventSink@@@ DD FLAT:??_R4CUIElementSink@CTsfUiLessMode@@6BITfCompartmentEventSink@@@ ; CTsfUiLessMode::CUIElementSink::`vftable'
	DD	FLAT:?QueryInterface@CUIElementSink@CTsfUiLessMode@@W7AGJABU_GUID@@PAPAX@Z
	DD	FLAT:?AddRef@CUIElementSink@CTsfUiLessMode@@W7AGKXZ
	DD	FLAT:?Release@CUIElementSink@CTsfUiLessMode@@W7AGKXZ
	DD	FLAT:?OnChange@CUIElementSink@CTsfUiLessMode@@UAGJABU_GUID@@@Z
CONST	ENDS
;	COMDAT ??_7CUIElementSink@CTsfUiLessMode@@6BITfInputProcessorProfileActivationSink@@@
CONST	SEGMENT
??_7CUIElementSink@CTsfUiLessMode@@6BITfInputProcessorProfileActivationSink@@@ DD FLAT:??_R4CUIElementSink@CTsfUiLessMode@@6BITfInputProcessorProfileActivationSink@@@ ; CTsfUiLessMode::CUIElementSink::`vftable'
	DD	FLAT:?QueryInterface@CUIElementSink@CTsfUiLessMode@@W3AGJABU_GUID@@PAPAX@Z
	DD	FLAT:?AddRef@CUIElementSink@CTsfUiLessMode@@W3AGKXZ
	DD	FLAT:?Release@CUIElementSink@CTsfUiLessMode@@W3AGKXZ
	DD	FLAT:?OnActivated@CUIElementSink@CTsfUiLessMode@@UAGJKGABU_GUID@@00PAUHKL__@@K@Z
CONST	ENDS
;	COMDAT ??_7CUIElementSink@CTsfUiLessMode@@6BITfUIElementSink@@@
CONST	SEGMENT
??_7CUIElementSink@CTsfUiLessMode@@6BITfUIElementSink@@@ DD FLAT:??_R4CUIElementSink@CTsfUiLessMode@@6BITfUIElementSink@@@ ; CTsfUiLessMode::CUIElementSink::`vftable'
	DD	FLAT:?QueryInterface@CUIElementSink@CTsfUiLessMode@@UAGJABU_GUID@@PAPAX@Z
	DD	FLAT:?AddRef@CUIElementSink@CTsfUiLessMode@@UAGKXZ
	DD	FLAT:?Release@CUIElementSink@CTsfUiLessMode@@UAGKXZ
	DD	FLAT:?BeginUIElement@CUIElementSink@CTsfUiLessMode@@UAGJKPAH@Z
	DD	FLAT:?UpdateUIElement@CUIElementSink@CTsfUiLessMode@@UAGJK@Z
	DD	FLAT:?EndUIElement@CUIElementSink@CTsfUiLessMode@@UAGJK@Z
CONST	ENDS
xdata$x	SEGMENT
__unwindtable$?SetupSinks@CTsfUiLessMode@@SAHXZ DD 0ffffffffH
	DD	FLAT:__unwindfunclet$?SetupSinks@CTsfUiLessMode@@SAHXZ$0
__ehfuncinfo$?SetupSinks@CTsfUiLessMode@@SAHXZ DD 019930522H
	DD	01H
	DD	FLAT:__unwindtable$?SetupSinks@CTsfUiLessMode@@SAHXZ
	DD	2 DUP(00H)
	DD	2 DUP(00H)
	DD	00H
	DD	01H
xdata$x	ENDS
CRT$XCU	SEGMENT
__SendMessage$initializer$ DD FLAT:??__E_SendMessage@@YAXXZ
CRT$XCU	ENDS
CRT$XCU	SEGMENT
_g_pszIndicatior$initializer$ DD FLAT:??__Eg_pszIndicatior@@YAXXZ
CRT$XCU	ENDS
; Function compile flags: /Odsp /RTCsu
;	COMDAT ?Release@CUIElementSink@CTsfUiLessMode@@W7AGKXZ
_TEXT	SEGMENT
?Release@CUIElementSink@CTsfUiLessMode@@W7AGKXZ PROC	; [thunk]:CTsfUiLessMode::CUIElementSink::Release`adjustor{8}', COMDAT
  00000	83 6c 24 04 08	 sub	 DWORD PTR [esp+4], 8
  00005	e9 00 00 00 00	 jmp	 ?Release@CUIElementSink@CTsfUiLessMode@@UAGKXZ ; CTsfUiLessMode::CUIElementSink::Release
?Release@CUIElementSink@CTsfUiLessMode@@W7AGKXZ ENDP	; [thunk]:CTsfUiLessMode::CUIElementSink::Release`adjustor{8}'
_TEXT	ENDS
; Function compile flags: /Odsp /RTCsu
;	COMDAT ?AddRef@CUIElementSink@CTsfUiLessMode@@W7AGKXZ
_TEXT	SEGMENT
?AddRef@CUIElementSink@CTsfUiLessMode@@W7AGKXZ PROC	; [thunk]:CTsfUiLessMode::CUIElementSink::AddRef`adjustor{8}', COMDAT
  00000	83 6c 24 04 08	 sub	 DWORD PTR [esp+4], 8
  00005	e9 00 00 00 00	 jmp	 ?AddRef@CUIElementSink@CTsfUiLessMode@@UAGKXZ ; CTsfUiLessMode::CUIElementSink::AddRef
?AddRef@CUIElementSink@CTsfUiLessMode@@W7AGKXZ ENDP	; [thunk]:CTsfUiLessMode::CUIElementSink::AddRef`adjustor{8}'
_TEXT	ENDS
; Function compile flags: /Odsp /RTCsu
;	COMDAT ?QueryInterface@CUIElementSink@CTsfUiLessMode@@W7AGJABU_GUID@@PAPAX@Z
_TEXT	SEGMENT
?QueryInterface@CUIElementSink@CTsfUiLessMode@@W7AGJABU_GUID@@PAPAX@Z PROC ; [thunk]:CTsfUiLessMode::CUIElementSink::QueryInterface`adjustor{8}', COMDAT
  00000	83 6c 24 04 08	 sub	 DWORD PTR [esp+4], 8
  00005	e9 00 00 00 00	 jmp	 ?QueryInterface@CUIElementSink@CTsfUiLessMode@@UAGJABU_GUID@@PAPAX@Z ; CTsfUiLessMode::CUIElementSink::QueryInterface
?QueryInterface@CUIElementSink@CTsfUiLessMode@@W7AGJABU_GUID@@PAPAX@Z ENDP ; [thunk]:CTsfUiLessMode::CUIElementSink::QueryInterface`adjustor{8}'
_TEXT	ENDS
; Function compile flags: /Odsp /RTCsu
;	COMDAT ?Release@CUIElementSink@CTsfUiLessMode@@W3AGKXZ
_TEXT	SEGMENT
?Release@CUIElementSink@CTsfUiLessMode@@W3AGKXZ PROC	; [thunk]:CTsfUiLessMode::CUIElementSink::Release`adjustor{4}', COMDAT
  00000	83 6c 24 04 04	 sub	 DWORD PTR [esp+4], 4
  00005	e9 00 00 00 00	 jmp	 ?Release@CUIElementSink@CTsfUiLessMode@@UAGKXZ ; CTsfUiLessMode::CUIElementSink::Release
?Release@CUIElementSink@CTsfUiLessMode@@W3AGKXZ ENDP	; [thunk]:CTsfUiLessMode::CUIElementSink::Release`adjustor{4}'
_TEXT	ENDS
; Function compile flags: /Odsp /RTCsu
;	COMDAT ?AddRef@CUIElementSink@CTsfUiLessMode@@W3AGKXZ
_TEXT	SEGMENT
?AddRef@CUIElementSink@CTsfUiLessMode@@W3AGKXZ PROC	; [thunk]:CTsfUiLessMode::CUIElementSink::AddRef`adjustor{4}', COMDAT
  00000	83 6c 24 04 04	 sub	 DWORD PTR [esp+4], 4
  00005	e9 00 00 00 00	 jmp	 ?AddRef@CUIElementSink@CTsfUiLessMode@@UAGKXZ ; CTsfUiLessMode::CUIElementSink::AddRef
?AddRef@CUIElementSink@CTsfUiLessMode@@W3AGKXZ ENDP	; [thunk]:CTsfUiLessMode::CUIElementSink::AddRef`adjustor{4}'
_TEXT	ENDS
; Function compile flags: /Odsp /RTCsu
;	COMDAT ?QueryInterface@CUIElementSink@CTsfUiLessMode@@W3AGJABU_GUID@@PAPAX@Z
_TEXT	SEGMENT
?QueryInterface@CUIElementSink@CTsfUiLessMode@@W3AGJABU_GUID@@PAPAX@Z PROC ; [thunk]:CTsfUiLessMode::CUIElementSink::QueryInterface`adjustor{4}', COMDAT
  00000	83 6c 24 04 04	 sub	 DWORD PTR [esp+4], 4
  00005	e9 00 00 00 00	 jmp	 ?QueryInterface@CUIElementSink@CTsfUiLessMode@@UAGJABU_GUID@@PAPAX@Z ; CTsfUiLessMode::CUIElementSink::QueryInterface
?QueryInterface@CUIElementSink@CTsfUiLessMode@@W3AGJABU_GUID@@PAPAX@Z ENDP ; [thunk]:CTsfUiLessMode::CUIElementSink::QueryInterface`adjustor{4}'
_TEXT	ENDS
; Function compile flags: /Odtp /RTCsu
;	COMDAT ??$?RABKABK@?$less@X@std@@QBE_NABK0@Z
_TEXT	SEGMENT
tv65 = -8						; size = 4
_this$ = -4						; size = 4
__Left$ = 8						; size = 4
__Right$ = 12						; size = 4
??$?RABKABK@?$less@X@std@@QBE_NABK0@Z PROC		; std::less<void>::operator()<unsigned long const &,unsigned long const &>, COMDAT
; _this$ = ecx
; File c:\program files (x86)\microsoft visual studio 12.0\vc\include\xstddef
; Line 263
  00000	55		 push	 ebp
  00001	8b ec		 mov	 ebp, esp
  00003	83 ec 08	 sub	 esp, 8
  00006	c7 45 f8 cc cc
	cc cc		 mov	 DWORD PTR [ebp-8], -858993460 ; ccccccccH
  0000d	c7 45 fc cc cc
	cc cc		 mov	 DWORD PTR [ebp-4], -858993460 ; ccccccccH
  00014	89 4d fc	 mov	 DWORD PTR _this$[ebp], ecx
; Line 268
  00017	8b 45 08	 mov	 eax, DWORD PTR __Left$[ebp]
  0001a	8b 4d 0c	 mov	 ecx, DWORD PTR __Right$[ebp]
  0001d	8b 10		 mov	 edx, DWORD PTR [eax]
  0001f	3b 11		 cmp	 edx, DWORD PTR [ecx]
  00021	73 09		 jae	 SHORT $LN3@operator
  00023	c7 45 f8 01 00
	00 00		 mov	 DWORD PTR tv65[ebp], 1
  0002a	eb 07		 jmp	 SHORT $LN4@operator
$LN3@operator:
  0002c	c7 45 f8 00 00
	00 00		 mov	 DWORD PTR tv65[ebp], 0
$LN4@operator:
  00033	8a 45 f8	 mov	 al, BYTE PTR tv65[ebp]
; Line 269
  00036	8b e5		 mov	 esp, ebp
  00038	5d		 pop	 ebp
  00039	c2 08 00	 ret	 8
??$?RABKABK@?$less@X@std@@QBE_NABK0@Z ENDP		; std::less<void>::operator()<unsigned long const &,unsigned long const &>
_TEXT	ENDS
; Function compile flags: /Odtp /RTCsu
;	COMDAT ??$?RABIABI@?$less@X@std@@QBE_NABI0@Z
_TEXT	SEGMENT
tv65 = -8						; size = 4
_this$ = -4						; size = 4
__Left$ = 8						; size = 4
__Right$ = 12						; size = 4
??$?RABIABI@?$less@X@std@@QBE_NABI0@Z PROC		; std::less<void>::operator()<unsigned int const &,unsigned int const &>, COMDAT
; _this$ = ecx
; File c:\program files (x86)\microsoft visual studio 12.0\vc\include\xstddef
; Line 263
  00000	55		 push	 ebp
  00001	8b ec		 mov	 ebp, esp
  00003	83 ec 08	 sub	 esp, 8
  00006	c7 45 f8 cc cc
	cc cc		 mov	 DWORD PTR [ebp-8], -858993460 ; ccccccccH
  0000d	c7 45 fc cc cc
	cc cc		 mov	 DWORD PTR [ebp-4], -858993460 ; ccccccccH
  00014	89 4d fc	 mov	 DWORD PTR _this$[ebp], ecx
; Line 268
  00017	8b 45 08	 mov	 eax, DWORD PTR __Left$[ebp]
  0001a	8b 4d 0c	 mov	 ecx, DWORD PTR __Right$[ebp]
  0001d	8b 10		 mov	 edx, DWORD PTR [eax]
  0001f	3b 11		 cmp	 edx, DWORD PTR [ecx]
  00021	73 09		 jae	 SHORT $LN3@operator
  00023	c7 45 f8 01 00
	00 00		 mov	 DWORD PTR tv65[ebp], 1
  0002a	eb 07		 jmp	 SHORT $LN4@operator
$LN3@operator:
  0002c	c7 45 f8 00 00
	00 00		 mov	 DWORD PTR tv65[ebp], 0
$LN4@operator:
  00033	8a 45 f8	 mov	 al, BYTE PTR tv65[ebp]
; Line 269
  00036	8b e5		 mov	 esp, ebp
  00038	5d		 pop	 ebp
  00039	c2 08 00	 ret	 8
??$?RABIABI@?$less@X@std@@QBE_NABI0@Z ENDP		; std::less<void>::operator()<unsigned int const &,unsigned int const &>
_TEXT	ENDS
; Function compile flags: /Odtp /RTCsu
;	COMDAT ??$_Debug_lt_pred@U?$less@X@std@@ABKABK@std@@YA_NU?$less@X@0@ABK1PB_WI@Z
_TEXT	SEGMENT
__Pred$ = 8						; size = 1
__Left$ = 12						; size = 4
__Right$ = 16						; size = 4
__File$ = 20						; size = 4
__Line$ = 24						; size = 4
??$_Debug_lt_pred@U?$less@X@std@@ABKABK@std@@YA_NU?$less@X@0@ABK1PB_WI@Z PROC ; std::_Debug_lt_pred<std::less<void>,unsigned long const &,unsigned long const &>, COMDAT
; File c:\program files (x86)\microsoft visual studio 12.0\vc\include\xutility
; Line 520
  00000	55		 push	 ebp
  00001	8b ec		 mov	 ebp, esp
  00003	56		 push	 esi
; Line 521
  00004	8b 45 10	 mov	 eax, DWORD PTR __Right$[ebp]
  00007	50		 push	 eax
  00008	e8 00 00 00 00	 call	 ??$forward@ABK@std@@YAABKABK@Z ; std::forward<unsigned long const &>
  0000d	83 c4 04	 add	 esp, 4
  00010	50		 push	 eax
  00011	8b 4d 0c	 mov	 ecx, DWORD PTR __Left$[ebp]
  00014	51		 push	 ecx
  00015	e8 00 00 00 00	 call	 ??$forward@ABK@std@@YAABKABK@Z ; std::forward<unsigned long const &>
  0001a	83 c4 04	 add	 esp, 4
  0001d	50		 push	 eax
  0001e	8d 4d 08	 lea	 ecx, DWORD PTR __Pred$[ebp]
  00021	e8 00 00 00 00	 call	 ??$?RABKABK@?$less@X@std@@QBE_NABK0@Z ; std::less<void>::operator()<unsigned long const &,unsigned long const &>
  00026	0f b6 d0	 movzx	 edx, al
  00029	85 d2		 test	 edx, edx
  0002b	75 06		 jne	 SHORT $LN3@Debug_lt_p
; Line 522
  0002d	32 c0		 xor	 al, al
  0002f	eb 4c		 jmp	 SHORT $LN4@Debug_lt_p
  00031	eb 48		 jmp	 SHORT $LN2@Debug_lt_p
$LN3@Debug_lt_p:
; Line 523
  00033	8b 45 0c	 mov	 eax, DWORD PTR __Left$[ebp]
  00036	50		 push	 eax
  00037	e8 00 00 00 00	 call	 ??$forward@ABK@std@@YAABKABK@Z ; std::forward<unsigned long const &>
  0003c	83 c4 04	 add	 esp, 4
  0003f	50		 push	 eax
  00040	8b 4d 10	 mov	 ecx, DWORD PTR __Right$[ebp]
  00043	51		 push	 ecx
  00044	e8 00 00 00 00	 call	 ??$forward@ABK@std@@YAABKABK@Z ; std::forward<unsigned long const &>
  00049	83 c4 04	 add	 esp, 4
  0004c	50		 push	 eax
  0004d	8d 4d 08	 lea	 ecx, DWORD PTR __Pred$[ebp]
  00050	e8 00 00 00 00	 call	 ??$?RABKABK@?$less@X@std@@QBE_NABK0@Z ; std::less<void>::operator()<unsigned long const &,unsigned long const &>
  00055	0f b6 d0	 movzx	 edx, al
  00058	85 d2		 test	 edx, edx
  0005a	74 1f		 je	 SHORT $LN2@Debug_lt_p
; Line 524
  0005c	8b f4		 mov	 esi, esp
  0005e	8b 45 18	 mov	 eax, DWORD PTR __Line$[ebp]
  00061	50		 push	 eax
  00062	8b 4d 14	 mov	 ecx, DWORD PTR __File$[ebp]
  00065	51		 push	 ecx
  00066	68 00 00 00 00	 push	 OFFSET ??_C@_1CE@IGJMOCCK@?$AAi?$AAn?$AAv?$AAa?$AAl?$AAi?$AAd?$AA?5?$AAo?$AAp?$AAe?$AAr?$AAa?$AAt?$AAo?$AAr?$AA?$DM?$AA?$AA@
  0006b	ff 15 00 00 00
	00		 call	 DWORD PTR __imp_?_Debug_message@std@@YAXPB_W0I@Z
  00071	83 c4 0c	 add	 esp, 12			; 0000000cH
  00074	3b f4		 cmp	 esi, esp
  00076	e8 00 00 00 00	 call	 __RTC_CheckEsp
$LN2@Debug_lt_p:
; Line 525
  0007b	b0 01		 mov	 al, 1
$LN4@Debug_lt_p:
; Line 526
  0007d	5e		 pop	 esi
  0007e	3b ec		 cmp	 ebp, esp
  00080	e8 00 00 00 00	 call	 __RTC_CheckEsp
  00085	5d		 pop	 ebp
  00086	c3		 ret	 0
??$_Debug_lt_pred@U?$less@X@std@@ABKABK@std@@YA_NU?$less@X@0@ABK1PB_WI@Z ENDP ; std::_Debug_lt_pred<std::less<void>,unsigned long const &,unsigned long const &>
_TEXT	ENDS
; Function compile flags: /Odtp /RTCsu
;	COMDAT ??$forward@ABK@std@@YAABKABK@Z
_TEXT	SEGMENT
__Arg$ = 8						; size = 4
??$forward@ABK@std@@YAABKABK@Z PROC			; std::forward<unsigned long const &>, COMDAT
; File c:\program files (x86)\microsoft visual studio 12.0\vc\include\type_traits
; Line 1504
  00000	55		 push	 ebp
  00001	8b ec		 mov	 ebp, esp
; Line 1505
  00003	8b 45 08	 mov	 eax, DWORD PTR __Arg$[ebp]
; Line 1506
  00006	5d		 pop	 ebp
  00007	c3		 ret	 0
??$forward@ABK@std@@YAABKABK@Z ENDP			; std::forward<unsigned long const &>
_TEXT	ENDS
; Function compile flags: /Odtp /RTCsu
;	COMDAT ??$_Debug_lt_pred@U?$less@X@std@@ABIABI@std@@YA_NU?$less@X@0@ABI1PB_WI@Z
_TEXT	SEGMENT
__Pred$ = 8						; size = 1
__Left$ = 12						; size = 4
__Right$ = 16						; size = 4
__File$ = 20						; size = 4
__Line$ = 24						; size = 4
??$_Debug_lt_pred@U?$less@X@std@@ABIABI@std@@YA_NU?$less@X@0@ABI1PB_WI@Z PROC ; std::_Debug_lt_pred<std::less<void>,unsigned int const &,unsigned int const &>, COMDAT
; File c:\program files (x86)\microsoft visual studio 12.0\vc\include\xutility
; Line 520
  00000	55		 push	 ebp
  00001	8b ec		 mov	 ebp, esp
  00003	56		 push	 esi
; Line 521
  00004	8b 45 10	 mov	 eax, DWORD PTR __Right$[ebp]
  00007	50		 push	 eax
  00008	e8 00 00 00 00	 call	 ??$forward@ABI@std@@YAABIABI@Z ; std::forward<unsigned int const &>
  0000d	83 c4 04	 add	 esp, 4
  00010	50		 push	 eax
  00011	8b 4d 0c	 mov	 ecx, DWORD PTR __Left$[ebp]
  00014	51		 push	 ecx
  00015	e8 00 00 00 00	 call	 ??$forward@ABI@std@@YAABIABI@Z ; std::forward<unsigned int const &>
  0001a	83 c4 04	 add	 esp, 4
  0001d	50		 push	 eax
  0001e	8d 4d 08	 lea	 ecx, DWORD PTR __Pred$[ebp]
  00021	e8 00 00 00 00	 call	 ??$?RABIABI@?$less@X@std@@QBE_NABI0@Z ; std::less<void>::operator()<unsigned int const &,unsigned int const &>
  00026	0f b6 d0	 movzx	 edx, al
  00029	85 d2		 test	 edx, edx
  0002b	75 06		 jne	 SHORT $LN3@Debug_lt_p
; Line 522
  0002d	32 c0		 xor	 al, al
  0002f	eb 4c		 jmp	 SHORT $LN4@Debug_lt_p
  00031	eb 48		 jmp	 SHORT $LN2@Debug_lt_p
$LN3@Debug_lt_p:
; Line 523
  00033	8b 45 0c	 mov	 eax, DWORD PTR __Left$[ebp]
  00036	50		 push	 eax
  00037	e8 00 00 00 00	 call	 ??$forward@ABI@std@@YAABIABI@Z ; std::forward<unsigned int const &>
  0003c	83 c4 04	 add	 esp, 4
  0003f	50		 push	 eax
  00040	8b 4d 10	 mov	 ecx, DWORD PTR __Right$[ebp]
  00043	51		 push	 ecx
  00044	e8 00 00 00 00	 call	 ??$forward@ABI@std@@YAABIABI@Z ; std::forward<unsigned int const &>
  00049	83 c4 04	 add	 esp, 4
  0004c	50		 push	 eax
  0004d	8d 4d 08	 lea	 ecx, DWORD PTR __Pred$[ebp]
  00050	e8 00 00 00 00	 call	 ??$?RABIABI@?$less@X@std@@QBE_NABI0@Z ; std::less<void>::operator()<unsigned int const &,unsigned int const &>
  00055	0f b6 d0	 movzx	 edx, al
  00058	85 d2		 test	 edx, edx
  0005a	74 1f		 je	 SHORT $LN2@Debug_lt_p
; Line 524
  0005c	8b f4		 mov	 esi, esp
  0005e	8b 45 18	 mov	 eax, DWORD PTR __Line$[ebp]
  00061	50		 push	 eax
  00062	8b 4d 14	 mov	 ecx, DWORD PTR __File$[ebp]
  00065	51		 push	 ecx
  00066	68 00 00 00 00	 push	 OFFSET ??_C@_1CE@IGJMOCCK@?$AAi?$AAn?$AAv?$AAa?$AAl?$AAi?$AAd?$AA?5?$AAo?$AAp?$AAe?$AAr?$AAa?$AAt?$AAo?$AAr?$AA?$DM?$AA?$AA@
  0006b	ff 15 00 00 00
	00		 call	 DWORD PTR __imp_?_Debug_message@std@@YAXPB_W0I@Z
  00071	83 c4 0c	 add	 esp, 12			; 0000000cH
  00074	3b f4		 cmp	 esi, esp
  00076	e8 00 00 00 00	 call	 __RTC_CheckEsp
$LN2@Debug_lt_p:
; Line 525
  0007b	b0 01		 mov	 al, 1
$LN4@Debug_lt_p:
; Line 526
  0007d	5e		 pop	 esi
  0007e	3b ec		 cmp	 ebp, esp
  00080	e8 00 00 00 00	 call	 __RTC_CheckEsp
  00085	5d		 pop	 ebp
  00086	c3		 ret	 0
??$_Debug_lt_pred@U?$less@X@std@@ABIABI@std@@YA_NU?$less@X@0@ABI1PB_WI@Z ENDP ; std::_Debug_lt_pred<std::less<void>,unsigned int const &,unsigned int const &>
_TEXT	ENDS
; Function compile flags: /Odtp /RTCsu
;	COMDAT ??$forward@ABI@std@@YAABIABI@Z
_TEXT	SEGMENT
__Arg$ = 8						; size = 4
??$forward@ABI@std@@YAABIABI@Z PROC			; std::forward<unsigned int const &>, COMDAT
; File c:\program files (x86)\microsoft visual studio 12.0\vc\include\type_traits
; Line 1504
  00000	55		 push	 ebp
  00001	8b ec		 mov	 ebp, esp
; Line 1505
  00003	8b 45 08	 mov	 eax, DWORD PTR __Arg$[ebp]
; Line 1506
  00006	5d		 pop	 ebp
  00007	c3		 ret	 0
??$forward@ABI@std@@YAABIABI@Z ENDP			; std::forward<unsigned int const &>
_TEXT	ENDS
; Function compile flags: /Odtp /RTCsu
;	COMDAT ??$_Debug_lt@ABKABK@std@@YA_NABK0PB_WI@Z
_TEXT	SEGMENT
$T1 = -1						; size = 1
__Left$ = 8						; size = 4
__Right$ = 12						; size = 4
__File$ = 16						; size = 4
__Line$ = 20						; size = 4
??$_Debug_lt@ABKABK@std@@YA_NABK0PB_WI@Z PROC		; std::_Debug_lt<unsigned long const &,unsigned long const &>, COMDAT
; File c:\program files (x86)\microsoft visual studio 12.0\vc\include\xutility
; Line 532
  00000	55		 push	 ebp
  00001	8b ec		 mov	 ebp, esp
  00003	51		 push	 ecx
  00004	c7 45 fc cc cc
	cc cc		 mov	 DWORD PTR [ebp-4], -858993460 ; ccccccccH
; Line 534
  0000b	33 c0		 xor	 eax, eax
  0000d	88 45 ff	 mov	 BYTE PTR $T1[ebp], al
  00010	8b 4d 14	 mov	 ecx, DWORD PTR __Line$[ebp]
  00013	51		 push	 ecx
  00014	8b 55 10	 mov	 edx, DWORD PTR __File$[ebp]
  00017	52		 push	 edx
  00018	8b 45 0c	 mov	 eax, DWORD PTR __Right$[ebp]
  0001b	50		 push	 eax
  0001c	e8 00 00 00 00	 call	 ??$forward@ABK@std@@YAABKABK@Z ; std::forward<unsigned long const &>
  00021	83 c4 04	 add	 esp, 4
  00024	50		 push	 eax
  00025	8b 4d 08	 mov	 ecx, DWORD PTR __Left$[ebp]
  00028	51		 push	 ecx
  00029	e8 00 00 00 00	 call	 ??$forward@ABK@std@@YAABKABK@Z ; std::forward<unsigned long const &>
  0002e	83 c4 04	 add	 esp, 4
  00031	50		 push	 eax
  00032	0f b6 55 ff	 movzx	 edx, BYTE PTR $T1[ebp]
  00036	52		 push	 edx
  00037	e8 00 00 00 00	 call	 ??$_Debug_lt_pred@U?$less@X@std@@ABKABK@std@@YA_NU?$less@X@0@ABK1PB_WI@Z ; std::_Debug_lt_pred<std::less<void>,unsigned long const &,unsigned long const &>
  0003c	83 c4 14	 add	 esp, 20			; 00000014H
; Line 535
  0003f	83 c4 04	 add	 esp, 4
  00042	3b ec		 cmp	 ebp, esp
  00044	e8 00 00 00 00	 call	 __RTC_CheckEsp
  00049	8b e5		 mov	 esp, ebp
  0004b	5d		 pop	 ebp
  0004c	c3		 ret	 0
??$_Debug_lt@ABKABK@std@@YA_NABK0PB_WI@Z ENDP		; std::_Debug_lt<unsigned long const &,unsigned long const &>
_TEXT	ENDS
; Function compile flags: /Odtp /RTCsu
;	COMDAT ??$_Debug_lt@ABIABI@std@@YA_NABI0PB_WI@Z
_TEXT	SEGMENT
$T1 = -1						; size = 1
__Left$ = 8						; size = 4
__Right$ = 12						; size = 4
__File$ = 16						; size = 4
__Line$ = 20						; size = 4
??$_Debug_lt@ABIABI@std@@YA_NABI0PB_WI@Z PROC		; std::_Debug_lt<unsigned int const &,unsigned int const &>, COMDAT
; File c:\program files (x86)\microsoft visual studio 12.0\vc\include\xutility
; Line 532
  00000	55		 push	 ebp
  00001	8b ec		 mov	 ebp, esp
  00003	51		 push	 ecx
  00004	c7 45 fc cc cc
	cc cc		 mov	 DWORD PTR [ebp-4], -858993460 ; ccccccccH
; Line 534
  0000b	33 c0		 xor	 eax, eax
  0000d	88 45 ff	 mov	 BYTE PTR $T1[ebp], al
  00010	8b 4d 14	 mov	 ecx, DWORD PTR __Line$[ebp]
  00013	51		 push	 ecx
  00014	8b 55 10	 mov	 edx, DWORD PTR __File$[ebp]
  00017	52		 push	 edx
  00018	8b 45 0c	 mov	 eax, DWORD PTR __Right$[ebp]
  0001b	50		 push	 eax
  0001c	e8 00 00 00 00	 call	 ??$forward@ABI@std@@YAABIABI@Z ; std::forward<unsigned int const &>
  00021	83 c4 04	 add	 esp, 4
  00024	50		 push	 eax
  00025	8b 4d 08	 mov	 ecx, DWORD PTR __Left$[ebp]
  00028	51		 push	 ecx
  00029	e8 00 00 00 00	 call	 ??$forward@ABI@std@@YAABIABI@Z ; std::forward<unsigned int const &>
  0002e	83 c4 04	 add	 esp, 4
  00031	50		 push	 eax
  00032	0f b6 55 ff	 movzx	 edx, BYTE PTR $T1[ebp]
  00036	52		 push	 edx
  00037	e8 00 00 00 00	 call	 ??$_Debug_lt_pred@U?$less@X@std@@ABIABI@std@@YA_NU?$less@X@0@ABI1PB_WI@Z ; std::_Debug_lt_pred<std::less<void>,unsigned int const &,unsigned int const &>
  0003c	83 c4 14	 add	 esp, 20			; 00000014H
; Line 535
  0003f	83 c4 04	 add	 esp, 4
  00042	3b ec		 cmp	 ebp, esp
  00044	e8 00 00 00 00	 call	 __RTC_CheckEsp
  00049	8b e5		 mov	 esp, ebp
  0004b	5d		 pop	 ebp
  0004c	c3		 ret	 0
??$_Debug_lt@ABIABI@std@@YA_NABI0PB_WI@Z ENDP		; std::_Debug_lt<unsigned int const &,unsigned int const &>
_TEXT	ENDS
; Function compile flags: /Odtp /RTCsu
_TEXT	SEGMENT
tv67 = -8						; size = 4
_dwTranslucency$ = -4					; size = 4
?SetCompStringColor@@YAXXZ PROC				; SetCompStringColor
; File d:\engine class\assignment 1\new scratch\dxut\optional\imeui.cpp
; Line 2234
  00000	55		 push	 ebp
  00001	8b ec		 mov	 ebp, esp
  00003	83 ec 08	 sub	 esp, 8
  00006	c7 45 f8 cc cc
	cc cc		 mov	 DWORD PTR [ebp-8], -858993460 ; ccccccccH
  0000d	c7 45 fc cc cc
	cc cc		 mov	 DWORD PTR [ebp-4], -858993460 ; ccccccccH
; Line 2236
  00014	83 3d 00 00 00
	00 02		 cmp	 DWORD PTR _g_dwIMELevel, 2
  0001b	75 09		 jne	 SHORT $LN3@SetCompStr
  0001d	c7 45 f8 00 00
	00 ff		 mov	 DWORD PTR tv67[ebp], -16777216 ; ff000000H
  00024	eb 0d		 jmp	 SHORT $LN4@SetCompStr
$LN3@SetCompStr:
  00026	0f b6 05 34 00
	00 00		 movzx	 eax, BYTE PTR _gSkinIME+52
  0002d	c1 e0 18	 shl	 eax, 24			; 00000018H
  00030	89 45 f8	 mov	 DWORD PTR tv67[ebp], eax
$LN4@SetCompStr:
  00033	8b 4d f8	 mov	 ecx, DWORD PTR tv67[ebp]
  00036	89 4d fc	 mov	 DWORD PTR _dwTranslucency$[ebp], ecx
; Line 2237
  00039	8b 55 fc	 mov	 edx, DWORD PTR _dwTranslucency$[ebp]
  0003c	0b 15 20 00 00
	00		 or	 edx, DWORD PTR _gSkinIME+32
  00042	89 15 00 00 00
	00		 mov	 DWORD PTR ?gSkinCompStr@@3U_SkinCompStr@@A, edx
; Line 2238
  00048	8b 45 fc	 mov	 eax, DWORD PTR _dwTranslucency$[ebp]
  0004b	0b 05 24 00 00
	00		 or	 eax, DWORD PTR _gSkinIME+36
  00051	a3 04 00 00 00	 mov	 DWORD PTR ?gSkinCompStr@@3U_SkinCompStr@@A+4, eax
; Line 2239
  00056	8b 4d fc	 mov	 ecx, DWORD PTR _dwTranslucency$[ebp]
  00059	0b 0d 28 00 00
	00		 or	 ecx, DWORD PTR _gSkinIME+40
  0005f	89 0d 08 00 00
	00		 mov	 DWORD PTR ?gSkinCompStr@@3U_SkinCompStr@@A+8, ecx
; Line 2240
  00065	8b 55 fc	 mov	 edx, DWORD PTR _dwTranslucency$[ebp]
  00068	0b 15 2c 00 00
	00		 or	 edx, DWORD PTR _gSkinIME+44
  0006e	89 15 0c 00 00
	00		 mov	 DWORD PTR ?gSkinCompStr@@3U_SkinCompStr@@A+12, edx
; Line 2241
  00074	8b 45 fc	 mov	 eax, DWORD PTR _dwTranslucency$[ebp]
  00077	0b 05 30 00 00
	00		 or	 eax, DWORD PTR _gSkinIME+48
  0007d	a3 10 00 00 00	 mov	 DWORD PTR ?gSkinCompStr@@3U_SkinCompStr@@A+16, eax
; Line 2242
  00082	8b e5		 mov	 esp, ebp
  00084	5d		 pop	 ebp
  00085	c3		 ret	 0
?SetCompStringColor@@YAXXZ ENDP				; SetCompStringColor
_TEXT	ENDS
; Function compile flags: /Odtp /RTCsu
;	COMDAT ??$min@K@std@@YAABKABK0@Z
_TEXT	SEGMENT
tv71 = -8						; size = 4
$T1 = -4						; size = 4
__Left$ = 8						; size = 4
__Right$ = 12						; size = 4
??$min@K@std@@YAABKABK0@Z PROC				; std::min<unsigned long>, COMDAT
; File c:\program files (x86)\microsoft visual studio 12.0\vc\include\algorithm
; Line 4120
  00000	55		 push	 ebp
  00001	8b ec		 mov	 ebp, esp
  00003	83 ec 08	 sub	 esp, 8
  00006	c7 45 f8 cc cc
	cc cc		 mov	 DWORD PTR [ebp-8], -858993460 ; ccccccccH
  0000d	c7 45 fc cc cc
	cc cc		 mov	 DWORD PTR [ebp-4], -858993460 ; ccccccccH
; Line 4121
  00014	68 19 10 00 00	 push	 4121			; 00001019H
  00019	68 00 00 00 00	 push	 OFFSET ??_C@_1JC@HALMDPKM@?$AAC?$AA?3?$AA?2?$AAP?$AAr?$AAo?$AAg?$AAr?$AAa?$AAm?$AA?5?$AAF?$AAi?$AAl?$AAe?$AAs?$AA?5?$AA?$CI?$AAx?$AA8?$AA6?$AA?$CJ?$AA?2?$AAM?$AAi?$AAc?$AAr?$AAo?$AAs?$AAo?$AAf?$AAt@
  0001e	8b 45 08	 mov	 eax, DWORD PTR __Left$[ebp]
  00021	50		 push	 eax
  00022	8b 4d 0c	 mov	 ecx, DWORD PTR __Right$[ebp]
  00025	51		 push	 ecx
  00026	e8 00 00 00 00	 call	 ??$_Debug_lt@ABKABK@std@@YA_NABK0PB_WI@Z ; std::_Debug_lt<unsigned long const &,unsigned long const &>
  0002b	83 c4 10	 add	 esp, 16			; 00000010H
  0002e	0f b6 d0	 movzx	 edx, al
  00031	85 d2		 test	 edx, edx
  00033	74 08		 je	 SHORT $LN3@min
  00035	8b 45 0c	 mov	 eax, DWORD PTR __Right$[ebp]
  00038	89 45 f8	 mov	 DWORD PTR tv71[ebp], eax
  0003b	eb 06		 jmp	 SHORT $LN4@min
$LN3@min:
  0003d	8b 4d 08	 mov	 ecx, DWORD PTR __Left$[ebp]
  00040	89 4d f8	 mov	 DWORD PTR tv71[ebp], ecx
$LN4@min:
  00043	8b 55 f8	 mov	 edx, DWORD PTR tv71[ebp]
  00046	89 55 fc	 mov	 DWORD PTR $T1[ebp], edx
  00049	8b 45 fc	 mov	 eax, DWORD PTR $T1[ebp]
; Line 4122
  0004c	83 c4 08	 add	 esp, 8
  0004f	3b ec		 cmp	 ebp, esp
  00051	e8 00 00 00 00	 call	 __RTC_CheckEsp
  00056	8b e5		 mov	 esp, ebp
  00058	5d		 pop	 ebp
  00059	c3		 ret	 0
??$min@K@std@@YAABKABK0@Z ENDP				; std::min<unsigned long>
_TEXT	ENDS
; Function compile flags: /Odtp /RTCsu
;	COMDAT ??$min@I@std@@YAABIABI0@Z
_TEXT	SEGMENT
tv71 = -8						; size = 4
$T1 = -4						; size = 4
__Left$ = 8						; size = 4
__Right$ = 12						; size = 4
??$min@I@std@@YAABIABI0@Z PROC				; std::min<unsigned int>, COMDAT
; File c:\program files (x86)\microsoft visual studio 12.0\vc\include\algorithm
; Line 4120
  00000	55		 push	 ebp
  00001	8b ec		 mov	 ebp, esp
  00003	83 ec 08	 sub	 esp, 8
  00006	c7 45 f8 cc cc
	cc cc		 mov	 DWORD PTR [ebp-8], -858993460 ; ccccccccH
  0000d	c7 45 fc cc cc
	cc cc		 mov	 DWORD PTR [ebp-4], -858993460 ; ccccccccH
; Line 4121
  00014	68 19 10 00 00	 push	 4121			; 00001019H
  00019	68 00 00 00 00	 push	 OFFSET ??_C@_1JC@HALMDPKM@?$AAC?$AA?3?$AA?2?$AAP?$AAr?$AAo?$AAg?$AAr?$AAa?$AAm?$AA?5?$AAF?$AAi?$AAl?$AAe?$AAs?$AA?5?$AA?$CI?$AAx?$AA8?$AA6?$AA?$CJ?$AA?2?$AAM?$AAi?$AAc?$AAr?$AAo?$AAs?$AAo?$AAf?$AAt@
  0001e	8b 45 08	 mov	 eax, DWORD PTR __Left$[ebp]
  00021	50		 push	 eax
  00022	8b 4d 0c	 mov	 ecx, DWORD PTR __Right$[ebp]
  00025	51		 push	 ecx
  00026	e8 00 00 00 00	 call	 ??$_Debug_lt@ABIABI@std@@YA_NABI0PB_WI@Z ; std::_Debug_lt<unsigned int const &,unsigned int const &>
  0002b	83 c4 10	 add	 esp, 16			; 00000010H
  0002e	0f b6 d0	 movzx	 edx, al
  00031	85 d2		 test	 edx, edx
  00033	74 08		 je	 SHORT $LN3@min
  00035	8b 45 0c	 mov	 eax, DWORD PTR __Right$[ebp]
  00038	89 45 f8	 mov	 DWORD PTR tv71[ebp], eax
  0003b	eb 06		 jmp	 SHORT $LN4@min
$LN3@min:
  0003d	8b 4d 08	 mov	 ecx, DWORD PTR __Left$[ebp]
  00040	89 4d f8	 mov	 DWORD PTR tv71[ebp], ecx
$LN4@min:
  00043	8b 55 f8	 mov	 edx, DWORD PTR tv71[ebp]
  00046	89 55 fc	 mov	 DWORD PTR $T1[ebp], edx
  00049	8b 45 fc	 mov	 eax, DWORD PTR $T1[ebp]
; Line 4122
  0004c	83 c4 08	 add	 esp, 8
  0004f	3b ec		 cmp	 ebp, esp
  00051	e8 00 00 00 00	 call	 __RTC_CheckEsp
  00056	8b e5		 mov	 esp, ebp
  00058	5d		 pop	 ebp
  00059	c3		 ret	 0
??$min@I@std@@YAABIABI0@Z ENDP				; std::min<unsigned int>
_TEXT	ENDS
; Function compile flags: /Odtp /RTCsu
_TEXT	SEGMENT
?CloseCandidateList@@YAXXZ PROC				; CloseCandidateList
; File d:\engine class\assignment 1\new scratch\dxut\optional\imeui.cpp
; Line 1214
  00000	55		 push	 ebp
  00001	8b ec		 mov	 ebp, esp
; Line 1215
  00003	c6 05 00 00 00
	00 00		 mov	 BYTE PTR _g_bCandList, 0
; Line 1216
  0000a	0f b6 05 00 00
	00 00		 movzx	 eax, BYTE PTR _g_bReadingWindow
  00011	85 c0		 test	 eax, eax
  00013	75 1e		 jne	 SHORT $LN2@CloseCandi
; Line 1218
  00015	c7 05 00 00 00
	00 00 00 00 00	 mov	 DWORD PTR _g_dwCount, 0
; Line 1219
  0001f	68 00 14 00 00	 push	 5120			; 00001400H
  00024	6a 00		 push	 0
  00026	68 00 00 00 00	 push	 OFFSET _g_szCandidate
  0002b	e8 00 00 00 00	 call	 _memset
  00030	83 c4 0c	 add	 esp, 12			; 0000000cH
$LN2@CloseCandi:
; Line 1221
  00033	3b ec		 cmp	 ebp, esp
  00035	e8 00 00 00 00	 call	 __RTC_CheckEsp
  0003a	5d		 pop	 ebp
  0003b	c3		 ret	 0
?CloseCandidateList@@YAXXZ ENDP				; CloseCandidateList
_TEXT	ENDS
; Function compile flags: /Odtp /RTCsu
_TEXT	SEGMENT
_x$ = 8							; size = 4
_y$ = 12						; size = 4
_height$ = 16						; size = 4
?DrawCaret@@YAXKKK@Z PROC				; DrawCaret
; File d:\engine class\assignment 1\new scratch\dxut\optional\imeui.cpp
; Line 561
  00000	55		 push	 ebp
  00001	8b ec		 mov	 ebp, esp
  00003	56		 push	 esi
; Line 562
  00004	0f b6 05 00 00
	00 00		 movzx	 eax, BYTE PTR _g_bCaretDraw
  0000b	85 c0		 test	 eax, eax
  0000d	74 49		 je	 SHORT $LN2@DrawCaret
  0000f	83 3d 00 00 00
	00 00		 cmp	 DWORD PTR ?ImeUiCallback_DrawRect@@3P6GXHHHHK@ZA, 0 ; ImeUiCallback_DrawRect
  00016	74 40		 je	 SHORT $LN2@DrawCaret
; Line 564
  00018	8b f4		 mov	 esi, esp
  0001a	8b 0d 0c 00 00
	00		 mov	 ecx, DWORD PTR _g_CaretInfo+12
  00020	51		 push	 ecx
  00021	8b 55 0c	 mov	 edx, DWORD PTR _y$[ebp]
  00024	03 55 10	 add	 edx, DWORD PTR _height$[ebp]
  00027	0f b6 05 3d 00
	00 00		 movzx	 eax, BYTE PTR _gSkinIME+61
  0002e	2b d0		 sub	 edx, eax
  00030	52		 push	 edx
  00031	0f b6 0d 3c 00
	00 00		 movzx	 ecx, BYTE PTR _gSkinIME+60
  00038	03 4d 08	 add	 ecx, DWORD PTR _x$[ebp]
  0003b	51		 push	 ecx
  0003c	0f b6 15 3d 00
	00 00		 movzx	 edx, BYTE PTR _gSkinIME+61
  00043	03 55 0c	 add	 edx, DWORD PTR _y$[ebp]
  00046	52		 push	 edx
  00047	8b 45 08	 mov	 eax, DWORD PTR _x$[ebp]
  0004a	50		 push	 eax
  0004b	ff 15 00 00 00
	00		 call	 DWORD PTR ?ImeUiCallback_DrawRect@@3P6GXHHHHK@ZA ; ImeUiCallback_DrawRect
  00051	3b f4		 cmp	 esi, esp
  00053	e8 00 00 00 00	 call	 __RTC_CheckEsp
$LN2@DrawCaret:
; Line 565
  00058	5e		 pop	 esi
  00059	3b ec		 cmp	 ebp, esp
  0005b	e8 00 00 00 00	 call	 __RTC_CheckEsp
  00060	5d		 pop	 ebp
  00061	c3		 ret	 0
?DrawCaret@@YAXKKK@Z ENDP				; DrawCaret
_TEXT	ENDS
; Function compile flags: /Odtp /RTCsu
_TEXT	SEGMENT
?InitCompStringData@@YAXXZ PROC				; InitCompStringData
; File d:\engine class\assignment 1\new scratch\dxut\optional\imeui.cpp
; Line 553
  00000	55		 push	 ebp
  00001	8b ec		 mov	 ebp, esp
; Line 554
  00003	c7 05 00 00 00
	00 00 00 00 00	 mov	 DWORD PTR _g_IMECursorBytes, 0
; Line 555
  0000d	c7 05 00 00 00
	00 00 00 00 00	 mov	 DWORD PTR _g_IMECursorChars, 0
; Line 556
  00017	68 00 02 00 00	 push	 512			; 00000200H
  0001c	6a 00		 push	 0
  0001e	68 00 00 00 00	 push	 OFFSET _g_szCompositionString
  00023	e8 00 00 00 00	 call	 _memset
  00028	83 c4 0c	 add	 esp, 12			; 0000000cH
; Line 557
  0002b	68 00 01 00 00	 push	 256			; 00000100H
  00030	6a 00		 push	 0
  00032	68 00 00 00 00	 push	 OFFSET _g_szCompAttrString
  00037	e8 00 00 00 00	 call	 _memset
  0003c	83 c4 0c	 add	 esp, 12			; 0000000cH
; Line 558
  0003f	3b ec		 cmp	 ebp, esp
  00041	e8 00 00 00 00	 call	 __RTC_CheckEsp
  00046	5d		 pop	 ebp
  00047	c3		 ret	 0
?InitCompStringData@@YAXXZ ENDP				; InitCompStringData
_TEXT	ENDS
; Function compile flags: /Odtp /RTCsu
_TEXT	SEGMENT
tv67 = -24						; size = 4
tv129 = -18						; size = 2
tv94 = -16						; size = 4
tv91 = -12						; size = 4
_i$ = -8						; size = 4
_cc$ = -4						; size = 4
_hwnd$ = 8						; size = 4
_bUseBackSpace$ = 12					; size = 1
_iNewStrLen$ = 16					; size = 4
?CancelCompString@@YAXPAUHWND__@@_NH@Z PROC		; CancelCompString
; File d:\engine class\assignment 1\new scratch\dxut\optional\imeui.cpp
; Line 518
  00000	55		 push	 ebp
  00001	8b ec		 mov	 ebp, esp
  00003	83 ec 18	 sub	 esp, 24			; 00000018H
  00006	b8 cc cc cc cc	 mov	 eax, -858993460		; ccccccccH
  0000b	89 45 e8	 mov	 DWORD PTR [ebp-24], eax
  0000e	89 45 ec	 mov	 DWORD PTR [ebp-20], eax
  00011	89 45 f0	 mov	 DWORD PTR [ebp-16], eax
  00014	89 45 f4	 mov	 DWORD PTR [ebp-12], eax
  00017	89 45 f8	 mov	 DWORD PTR [ebp-8], eax
  0001a	89 45 fc	 mov	 DWORD PTR [ebp-4], eax
; Line 519
  0001d	83 3d 00 00 00
	00 03		 cmp	 DWORD PTR _g_dwIMELevel, 3
  00024	74 05		 je	 SHORT $LN8@CancelComp
; Line 520
  00026	e9 da 00 00 00	 jmp	 $LN9@CancelComp
$LN8@CancelComp:
; Line 521
  0002b	c7 45 f4 00 00
	00 00		 mov	 DWORD PTR tv91[ebp], OFFSET _g_szCompositionString
  00032	8b 45 f4	 mov	 eax, DWORD PTR tv91[ebp]
  00035	83 c0 02	 add	 eax, 2
  00038	89 45 f0	 mov	 DWORD PTR tv94[ebp], eax
$LL11@CancelComp:
  0003b	8b 4d f4	 mov	 ecx, DWORD PTR tv91[ebp]
  0003e	66 8b 11	 mov	 dx, WORD PTR [ecx]
  00041	66 89 55 ee	 mov	 WORD PTR tv129[ebp], dx
  00045	83 45 f4 02	 add	 DWORD PTR tv91[ebp], 2
  00049	66 83 7d ee 00	 cmp	 WORD PTR tv129[ebp], 0
  0004e	75 eb		 jne	 SHORT $LL11@CancelComp
  00050	8b 45 f4	 mov	 eax, DWORD PTR tv91[ebp]
  00053	2b 45 f0	 sub	 eax, DWORD PTR tv94[ebp]
  00056	d1 f8		 sar	 eax, 1
  00058	89 45 e8	 mov	 DWORD PTR tv67[ebp], eax
  0005b	8b 4d e8	 mov	 ecx, DWORD PTR tv67[ebp]
  0005e	89 4d fc	 mov	 DWORD PTR _cc$[ebp], ecx
; Line 524
  00061	8b 55 fc	 mov	 edx, DWORD PTR _cc$[ebp]
  00064	2b 15 00 00 00
	00		 sub	 edx, DWORD PTR _g_IMECursorChars
  0006a	52		 push	 edx
  0006b	6a 27		 push	 39			; 00000027H
  0006d	e8 00 00 00 00	 call	 ?SendControlKeys@@YAXII@Z ; SendControlKeys
  00072	83 c4 08	 add	 esp, 8
; Line 526
  00075	0f b6 45 0c	 movzx	 eax, BYTE PTR _bUseBackSpace$[ebp]
  00079	85 c0		 test	 eax, eax
  0007b	75 0b		 jne	 SHORT $LN6@CancelComp
  0007d	0f b6 0d 00 00
	00 00		 movzx	 ecx, BYTE PTR _g_bInsertMode
  00084	85 c9		 test	 ecx, ecx
  00086	74 07		 je	 SHORT $LN7@CancelComp
$LN6@CancelComp:
; Line 527
  00088	c7 45 10 00 00
	00 00		 mov	 DWORD PTR _iNewStrLen$[ebp], 0
$LN7@CancelComp:
; Line 536
  0008f	8b 55 10	 mov	 edx, DWORD PTR _iNewStrLen$[ebp]
  00092	3b 55 fc	 cmp	 edx, DWORD PTR _cc$[ebp]
  00095	7d 5a		 jge	 SHORT $LN5@CancelComp
; Line 538
  00097	c7 45 f8 00 00
	00 00		 mov	 DWORD PTR _i$[ebp], 0
  0009e	eb 09		 jmp	 SHORT $LN4@CancelComp
$LN3@CancelComp:
  000a0	8b 45 f8	 mov	 eax, DWORD PTR _i$[ebp]
  000a3	83 c0 01	 add	 eax, 1
  000a6	89 45 f8	 mov	 DWORD PTR _i$[ebp], eax
$LN4@CancelComp:
  000a9	8b 4d fc	 mov	 ecx, DWORD PTR _cc$[ebp]
  000ac	2b 4d 10	 sub	 ecx, DWORD PTR _iNewStrLen$[ebp]
  000af	39 4d f8	 cmp	 DWORD PTR _i$[ebp], ecx
  000b2	7d 28		 jge	 SHORT $LN2@CancelComp
; Line 540
  000b4	6a 08		 push	 8
  000b6	68 00 01 00 00	 push	 256			; 00000100H
  000bb	8b 55 08	 mov	 edx, DWORD PTR _hwnd$[ebp]
  000be	52		 push	 edx
  000bf	e8 00 00 00 00	 call	 ?SendKeyMsg@@YAJPAUHWND__@@II@Z ; SendKeyMsg
  000c4	83 c4 0c	 add	 esp, 12			; 0000000cH
; Line 541
  000c7	6a 08		 push	 8
  000c9	68 02 01 00 00	 push	 258			; 00000102H
  000ce	8b 45 08	 mov	 eax, DWORD PTR _hwnd$[ebp]
  000d1	50		 push	 eax
  000d2	e8 00 00 00 00	 call	 ?SendKeyMsg@@YAJPAUHWND__@@II@Z ; SendKeyMsg
  000d7	83 c4 0c	 add	 esp, 12			; 0000000cH
; Line 542
  000da	eb c4		 jmp	 SHORT $LN3@CancelComp
$LN2@CancelComp:
; Line 543
  000dc	6a 08		 push	 8
  000de	68 01 01 00 00	 push	 257			; 00000101H
  000e3	8b 4d 08	 mov	 ecx, DWORD PTR _hwnd$[ebp]
  000e6	51		 push	 ecx
  000e7	e8 00 00 00 00	 call	 ?SendKeyMsg@@YAJPAUHWND__@@II@Z ; SendKeyMsg
  000ec	83 c4 0c	 add	 esp, 12			; 0000000cH
; Line 545
  000ef	eb 06		 jmp	 SHORT $LN1@CancelComp
$LN5@CancelComp:
; Line 546
  000f1	8b 55 fc	 mov	 edx, DWORD PTR _cc$[ebp]
  000f4	89 55 10	 mov	 DWORD PTR _iNewStrLen$[ebp], edx
$LN1@CancelComp:
; Line 548
  000f7	8b 45 10	 mov	 eax, DWORD PTR _iNewStrLen$[ebp]
  000fa	50		 push	 eax
  000fb	6a 25		 push	 37			; 00000025H
  000fd	e8 00 00 00 00	 call	 ?SendControlKeys@@YAXII@Z ; SendControlKeys
  00102	83 c4 08	 add	 esp, 8
$LN9@CancelComp:
; Line 549
  00105	83 c4 18	 add	 esp, 24			; 00000018H
  00108	3b ec		 cmp	 ebp, esp
  0010a	e8 00 00 00 00	 call	 __RTC_CheckEsp
  0010f	8b e5		 mov	 esp, ebp
  00111	5d		 pop	 ebp
  00112	c3		 ret	 0
?CancelCompString@@YAXPAUHWND__@@_NH@Z ENDP		; CancelCompString
_TEXT	ENDS
; Function compile flags: /Odtp /RTCsu
_TEXT	SEGMENT
_i$1 = -4						; size = 4
_vk$ = 8						; size = 4
_num$ = 12						; size = 4
?SendControlKeys@@YAXII@Z PROC				; SendControlKeys
; File d:\engine class\assignment 1\new scratch\dxut\optional\imeui.cpp
; Line 506
  00000	55		 push	 ebp
  00001	8b ec		 mov	 ebp, esp
  00003	51		 push	 ecx
  00004	c7 45 fc cc cc
	cc cc		 mov	 DWORD PTR [ebp-4], -858993460 ; ccccccccH
; Line 507
  0000b	83 7d 0c 00	 cmp	 DWORD PTR _num$[ebp], 0
  0000f	75 02		 jne	 SHORT $LN4@SendContro
; Line 508
  00011	eb 4b		 jmp	 SHORT $LN5@SendContro
$LN4@SendContro:
; Line 509
  00013	c7 45 fc 00 00
	00 00		 mov	 DWORD PTR _i$1[ebp], 0
  0001a	eb 09		 jmp	 SHORT $LN3@SendContro
$LN2@SendContro:
  0001c	8b 45 fc	 mov	 eax, DWORD PTR _i$1[ebp]
  0001f	83 c0 01	 add	 eax, 1
  00022	89 45 fc	 mov	 DWORD PTR _i$1[ebp], eax
$LN3@SendContro:
  00025	8b 4d fc	 mov	 ecx, DWORD PTR _i$1[ebp]
  00028	3b 4d 0c	 cmp	 ecx, DWORD PTR _num$[ebp]
  0002b	73 19		 jae	 SHORT $LN1@SendContro
; Line 511
  0002d	8b 55 08	 mov	 edx, DWORD PTR _vk$[ebp]
  00030	52		 push	 edx
  00031	68 00 01 00 00	 push	 256			; 00000100H
  00036	a1 00 00 00 00	 mov	 eax, DWORD PTR _g_hwndCurr
  0003b	50		 push	 eax
  0003c	e8 00 00 00 00	 call	 ?SendKeyMsg@@YAJPAUHWND__@@II@Z ; SendKeyMsg
  00041	83 c4 0c	 add	 esp, 12			; 0000000cH
; Line 512
  00044	eb d6		 jmp	 SHORT $LN2@SendContro
$LN1@SendContro:
; Line 513
  00046	8b 4d 08	 mov	 ecx, DWORD PTR _vk$[ebp]
  00049	51		 push	 ecx
  0004a	68 01 01 00 00	 push	 257			; 00000101H
  0004f	8b 15 00 00 00
	00		 mov	 edx, DWORD PTR _g_hwndCurr
  00055	52		 push	 edx
  00056	e8 00 00 00 00	 call	 ?SendKeyMsg@@YAJPAUHWND__@@II@Z ; SendKeyMsg
  0005b	83 c4 0c	 add	 esp, 12			; 0000000cH
$LN5@SendContro:
; Line 514
  0005e	83 c4 04	 add	 esp, 4
  00061	3b ec		 cmp	 ebp, esp
  00063	e8 00 00 00 00	 call	 __RTC_CheckEsp
  00068	8b e5		 mov	 esp, ebp
  0006a	5d		 pop	 ebp
  0006b	c3		 ret	 0
?SendControlKeys@@YAXII@Z ENDP				; SendControlKeys
_TEXT	ENDS
; Function compile flags: /Odtp /RTCsu
_TEXT	SEGMENT
_dwBufLen$ = -4						; size = 4
_himc$ = 8						; size = 4
_dwIndex$ = 12						; size = 4
_ppCandList$ = 16					; size = 4
?GetCandidateList@@YAKPAUHIMC__@@KPAPAUtagCANDIDATELIST@@@Z PROC ; GetCandidateList
; File d:\engine class\assignment 1\new scratch\dxut\optional\imeui.cpp
; Line 495
  00000	55		 push	 ebp
  00001	8b ec		 mov	 ebp, esp
  00003	51		 push	 ecx
  00004	56		 push	 esi
  00005	c7 45 fc cc cc
	cc cc		 mov	 DWORD PTR [ebp-4], -858993460 ; ccccccccH
; Line 496
  0000c	8b f4		 mov	 esi, esp
  0000e	6a 00		 push	 0
  00010	6a 00		 push	 0
  00012	8b 45 0c	 mov	 eax, DWORD PTR _dwIndex$[ebp]
  00015	50		 push	 eax
  00016	8b 4d 08	 mov	 ecx, DWORD PTR _himc$[ebp]
  00019	51		 push	 ecx
  0001a	ff 15 00 00 00
	00		 call	 DWORD PTR __ImmGetCandidateList
  00020	3b f4		 cmp	 esi, esp
  00022	e8 00 00 00 00	 call	 __RTC_CheckEsp
  00027	89 45 fc	 mov	 DWORD PTR _dwBufLen$[ebp], eax
; Line 497
  0002a	83 7d fc 00	 cmp	 DWORD PTR _dwBufLen$[ebp], 0
  0002e	74 3f		 je	 SHORT $LN1@GetCandida
; Line 499
  00030	8b f4		 mov	 esi, esp
  00032	8b 55 fc	 mov	 edx, DWORD PTR _dwBufLen$[ebp]
  00035	52		 push	 edx
  00036	ff 15 00 00 00
	00		 call	 DWORD PTR ?ImeUiCallback_Malloc@@3P6APAXI@ZA ; ImeUiCallback_Malloc
  0003c	83 c4 04	 add	 esp, 4
  0003f	3b f4		 cmp	 esi, esp
  00041	e8 00 00 00 00	 call	 __RTC_CheckEsp
  00046	8b 4d 10	 mov	 ecx, DWORD PTR _ppCandList$[ebp]
  00049	89 01		 mov	 DWORD PTR [ecx], eax
; Line 500
  0004b	8b f4		 mov	 esi, esp
  0004d	8b 55 fc	 mov	 edx, DWORD PTR _dwBufLen$[ebp]
  00050	52		 push	 edx
  00051	8b 45 10	 mov	 eax, DWORD PTR _ppCandList$[ebp]
  00054	8b 08		 mov	 ecx, DWORD PTR [eax]
  00056	51		 push	 ecx
  00057	8b 55 0c	 mov	 edx, DWORD PTR _dwIndex$[ebp]
  0005a	52		 push	 edx
  0005b	8b 45 08	 mov	 eax, DWORD PTR _himc$[ebp]
  0005e	50		 push	 eax
  0005f	ff 15 00 00 00
	00		 call	 DWORD PTR __ImmGetCandidateList
  00065	3b f4		 cmp	 esi, esp
  00067	e8 00 00 00 00	 call	 __RTC_CheckEsp
  0006c	89 45 fc	 mov	 DWORD PTR _dwBufLen$[ebp], eax
$LN1@GetCandida:
; Line 502
  0006f	8b 45 fc	 mov	 eax, DWORD PTR _dwBufLen$[ebp]
; Line 503
  00072	5e		 pop	 esi
  00073	83 c4 04	 add	 esp, 4
  00076	3b ec		 cmp	 ebp, esp
  00078	e8 00 00 00 00	 call	 __RTC_CheckEsp
  0007d	8b e5		 mov	 esp, ebp
  0007f	5d		 pop	 ebp
  00080	c3		 ret	 0
?GetCandidateList@@YAKPAUHIMC__@@KPAPAUtagCANDIDATELIST@@@Z ENDP ; GetCandidateList
_TEXT	ENDS
; Function compile flags: /Odtp /RTCsu
_TEXT	SEGMENT
tv66 = -28						; size = 4
tv88 = -22						; size = 2
tv85 = -20						; size = 4
tv82 = -16						; size = 4
_pwz$1 = -12						; size = 4
_iLen$ = -8						; size = 4
_i$ = -4						; size = 4
?SendCompString@@YAXXZ PROC				; SendCompString
; File d:\engine class\assignment 1\new scratch\dxut\optional\imeui.cpp
; Line 474
  00000	55		 push	 ebp
  00001	8b ec		 mov	 ebp, esp
  00003	83 ec 1c	 sub	 esp, 28			; 0000001cH
  00006	56		 push	 esi
  00007	b8 cc cc cc cc	 mov	 eax, -858993460		; ccccccccH
  0000c	89 45 e4	 mov	 DWORD PTR [ebp-28], eax
  0000f	89 45 e8	 mov	 DWORD PTR [ebp-24], eax
  00012	89 45 ec	 mov	 DWORD PTR [ebp-20], eax
  00015	89 45 f0	 mov	 DWORD PTR [ebp-16], eax
  00018	89 45 f4	 mov	 DWORD PTR [ebp-12], eax
  0001b	89 45 f8	 mov	 DWORD PTR [ebp-8], eax
  0001e	89 45 fc	 mov	 DWORD PTR [ebp-4], eax
; Line 475
  00021	c7 45 f0 00 00
	00 00		 mov	 DWORD PTR tv82[ebp], OFFSET _g_szCompositionString
  00028	8b 45 f0	 mov	 eax, DWORD PTR tv82[ebp]
  0002b	83 c0 02	 add	 eax, 2
  0002e	89 45 ec	 mov	 DWORD PTR tv85[ebp], eax
$LL10@SendCompSt:
  00031	8b 4d f0	 mov	 ecx, DWORD PTR tv82[ebp]
  00034	66 8b 11	 mov	 dx, WORD PTR [ecx]
  00037	66 89 55 ea	 mov	 WORD PTR tv88[ebp], dx
  0003b	83 45 f0 02	 add	 DWORD PTR tv82[ebp], 2
  0003f	66 83 7d ea 00	 cmp	 WORD PTR tv88[ebp], 0
  00044	75 eb		 jne	 SHORT $LL10@SendCompSt
  00046	8b 45 f0	 mov	 eax, DWORD PTR tv82[ebp]
  00049	2b 45 ec	 sub	 eax, DWORD PTR tv85[ebp]
  0004c	d1 f8		 sar	 eax, 1
  0004e	89 45 e4	 mov	 DWORD PTR tv66[ebp], eax
  00051	8b 4d e4	 mov	 ecx, DWORD PTR tv66[ebp]
  00054	89 4d f8	 mov	 DWORD PTR _iLen$[ebp], ecx
; Line 476
  00057	83 3d 00 00 00
	00 00		 cmp	 DWORD PTR ?ImeUiCallback_OnChar@@3P6GX_W@ZA, 0 ; ImeUiCallback_OnChar
  0005e	74 3f		 je	 SHORT $LN7@SendCompSt
; Line 479
  00060	c7 45 f4 00 00
	00 00		 mov	 DWORD PTR _pwz$1[ebp], OFFSET _g_szCompositionString
; Line 480
  00067	c7 45 fc 00 00
	00 00		 mov	 DWORD PTR _i$[ebp], 0
  0006e	eb 09		 jmp	 SHORT $LN6@SendCompSt
$LN5@SendCompSt:
  00070	8b 55 fc	 mov	 edx, DWORD PTR _i$[ebp]
  00073	83 c2 01	 add	 edx, 1
  00076	89 55 fc	 mov	 DWORD PTR _i$[ebp], edx
$LN6@SendCompSt:
  00079	8b 45 fc	 mov	 eax, DWORD PTR _i$[ebp]
  0007c	3b 45 f8	 cmp	 eax, DWORD PTR _iLen$[ebp]
  0007f	7d 1c		 jge	 SHORT $LN4@SendCompSt
; Line 482
  00081	8b f4		 mov	 esi, esp
  00083	8b 4d fc	 mov	 ecx, DWORD PTR _i$[ebp]
  00086	8b 55 f4	 mov	 edx, DWORD PTR _pwz$1[ebp]
  00089	0f b7 04 4a	 movzx	 eax, WORD PTR [edx+ecx*2]
  0008d	50		 push	 eax
  0008e	ff 15 00 00 00
	00		 call	 DWORD PTR ?ImeUiCallback_OnChar@@3P6GX_W@ZA ; ImeUiCallback_OnChar
  00094	3b f4		 cmp	 esi, esp
  00096	e8 00 00 00 00	 call	 __RTC_CheckEsp
; Line 483
  0009b	eb d3		 jmp	 SHORT $LN5@SendCompSt
$LN4@SendCompSt:
; Line 484
  0009d	eb 3c		 jmp	 SHORT $LN8@SendCompSt
$LN7@SendCompSt:
; Line 486
  0009f	c7 45 fc 00 00
	00 00		 mov	 DWORD PTR _i$[ebp], 0
  000a6	eb 09		 jmp	 SHORT $LN3@SendCompSt
$LN2@SendCompSt:
  000a8	8b 4d fc	 mov	 ecx, DWORD PTR _i$[ebp]
  000ab	83 c1 01	 add	 ecx, 1
  000ae	89 4d fc	 mov	 DWORD PTR _i$[ebp], ecx
$LN3@SendCompSt:
  000b1	8b 55 fc	 mov	 edx, DWORD PTR _i$[ebp]
  000b4	3b 55 f8	 cmp	 edx, DWORD PTR _iLen$[ebp]
  000b7	7d 22		 jge	 SHORT $LN8@SendCompSt
; Line 490
  000b9	8b 45 fc	 mov	 eax, DWORD PTR _i$[ebp]
  000bc	0f b7 0c 45 00
	00 00 00	 movzx	 ecx, WORD PTR _g_szCompositionString[eax*2]
  000c4	51		 push	 ecx
  000c5	68 02 01 00 00	 push	 258			; 00000102H
  000ca	8b 15 00 00 00
	00		 mov	 edx, DWORD PTR _g_hwndCurr
  000d0	52		 push	 edx
  000d1	e8 00 00 00 00	 call	 ?SendKeyMsg@@YAJPAUHWND__@@II@Z ; SendKeyMsg
  000d6	83 c4 0c	 add	 esp, 12			; 0000000cH
; Line 491
  000d9	eb cd		 jmp	 SHORT $LN2@SendCompSt
$LN8@SendCompSt:
; Line 492
  000db	5e		 pop	 esi
  000dc	83 c4 1c	 add	 esp, 28			; 0000001cH
  000df	3b ec		 cmp	 ebp, esp
  000e1	e8 00 00 00 00	 call	 __RTC_CheckEsp
  000e6	8b e5		 mov	 esp, ebp
  000e8	5d		 pop	 ebp
  000e9	c3		 ret	 0
?SendCompString@@YAXXZ ENDP				; SendCompString
_TEXT	ENDS
; Function compile flags: /Odtp /RTCsu
_TEXT	SEGMENT
_psz$ = -4						; size = 4
_index$ = 8						; size = 4
_pszCandidate$ = 12					; size = 4
?ComposeCandidateLine@@YAXHPB_W@Z PROC			; ComposeCandidateLine
; File d:\engine class\assignment 1\new scratch\dxut\optional\imeui.cpp
; Line 459
  00000	55		 push	 ebp
  00001	8b ec		 mov	 ebp, esp
  00003	51		 push	 ecx
  00004	c7 45 fc cc cc
	cc cc		 mov	 DWORD PTR [ebp-4], -858993460 ; ccccccccH
; Line 460
  0000b	8b 45 08	 mov	 eax, DWORD PTR _index$[ebp]
  0000e	c1 e0 09	 shl	 eax, 9
  00011	05 00 00 00 00	 add	 eax, OFFSET _g_szCandidate
  00016	89 45 fc	 mov	 DWORD PTR _psz$[ebp], eax
; Line 461
  00019	8b 45 08	 mov	 eax, DWORD PTR _index$[ebp]
  0001c	03 05 00 00 00
	00		 add	 eax, DWORD PTR _g_iCandListIndexBase
  00022	99		 cdq
  00023	b9 0a 00 00 00	 mov	 ecx, 10			; 0000000aH
  00028	f7 f9		 idiv	 ecx
  0002a	83 c2 30	 add	 edx, 48			; 00000030H
  0002d	8b 45 fc	 mov	 eax, DWORD PTR _psz$[ebp]
  00030	66 89 10	 mov	 WORD PTR [eax], dx
  00033	8b 4d fc	 mov	 ecx, DWORD PTR _psz$[ebp]
  00036	83 c1 02	 add	 ecx, 2
  00039	89 4d fc	 mov	 DWORD PTR _psz$[ebp], ecx
; Line 462
  0003c	0f b6 15 00 00
	00 00		 movzx	 edx, BYTE PTR _g_bVerticalCand
  00043	85 d2		 test	 edx, edx
  00045	74 14		 je	 SHORT $LN2@ComposeCan
; Line 464
  00047	b8 20 00 00 00	 mov	 eax, 32			; 00000020H
  0004c	8b 4d fc	 mov	 ecx, DWORD PTR _psz$[ebp]
  0004f	66 89 01	 mov	 WORD PTR [ecx], ax
  00052	8b 55 fc	 mov	 edx, DWORD PTR _psz$[ebp]
  00055	83 c2 02	 add	 edx, 2
  00058	89 55 fc	 mov	 DWORD PTR _psz$[ebp], edx
$LN2@ComposeCan:
; Line 466
  0005b	8b 45 0c	 mov	 eax, DWORD PTR _pszCandidate$[ebp]
  0005e	0f b7 08	 movzx	 ecx, WORD PTR [eax]
  00061	85 c9		 test	 ecx, ecx
  00063	74 3a		 je	 SHORT $LN1@ComposeCan
  00065	8b 55 08	 mov	 edx, DWORD PTR _index$[ebp]
  00068	c1 e2 09	 shl	 edx, 9
  0006b	81 c2 00 00 00
	00		 add	 edx, OFFSET _g_szCandidate
  00071	8b 45 fc	 mov	 eax, DWORD PTR _psz$[ebp]
  00074	2b c2		 sub	 eax, edx
  00076	d1 f8		 sar	 eax, 1
  00078	3d 00 01 00 00	 cmp	 eax, 256		; 00000100H
  0007d	73 20		 jae	 SHORT $LN1@ComposeCan
; Line 468
  0007f	8b 4d fc	 mov	 ecx, DWORD PTR _psz$[ebp]
  00082	8b 55 0c	 mov	 edx, DWORD PTR _pszCandidate$[ebp]
  00085	66 8b 02	 mov	 ax, WORD PTR [edx]
  00088	66 89 01	 mov	 WORD PTR [ecx], ax
  0008b	8b 4d fc	 mov	 ecx, DWORD PTR _psz$[ebp]
  0008e	83 c1 02	 add	 ecx, 2
  00091	89 4d fc	 mov	 DWORD PTR _psz$[ebp], ecx
  00094	8b 55 0c	 mov	 edx, DWORD PTR _pszCandidate$[ebp]
  00097	83 c2 02	 add	 edx, 2
  0009a	89 55 0c	 mov	 DWORD PTR _pszCandidate$[ebp], edx
; Line 469
  0009d	eb bc		 jmp	 SHORT $LN2@ComposeCan
$LN1@ComposeCan:
; Line 470
  0009f	33 c0		 xor	 eax, eax
  000a1	8b 4d fc	 mov	 ecx, DWORD PTR _psz$[ebp]
  000a4	66 89 01	 mov	 WORD PTR [ecx], ax
; Line 471
  000a7	8b e5		 mov	 esp, ebp
  000a9	5d		 pop	 ebp
  000aa	c3		 ret	 0
?ComposeCandidateLine@@YAXHPB_W@Z ENDP			; ComposeCandidateLine
_TEXT	ENDS
; Function compile flags: /Odtp /RTCsu
_TEXT	SEGMENT
_ul$1 = -8						; size = 4
_ulRet$ = -4						; size = 4
_psz$ = 8						; size = 4
___formal$ = 12						; size = 4
___formal$ = 16						; size = 4
?_strtoul@@YAKPBDPAPA_WH@Z PROC				; _strtoul
; File d:\engine class\assignment 1\new scratch\dxut\optional\imeui.cpp
; Line 421
  00000	55		 push	 ebp
  00001	8b ec		 mov	 ebp, esp
  00003	83 ec 08	 sub	 esp, 8
  00006	c7 45 f8 cc cc
	cc cc		 mov	 DWORD PTR [ebp-8], -858993460 ; ccccccccH
  0000d	c7 45 fc cc cc
	cc cc		 mov	 DWORD PTR [ebp-4], -858993460 ; ccccccccH
; Line 422
  00014	83 7d 08 00	 cmp	 DWORD PTR _psz$[ebp], 0
  00018	75 07		 jne	 SHORT $LN14@strtoul
; Line 423
  0001a	33 c0		 xor	 eax, eax
  0001c	e9 32 01 00 00	 jmp	 $LN15@strtoul
$LN14@strtoul:
; Line 425
  00021	c7 45 fc 00 00
	00 00		 mov	 DWORD PTR _ulRet$[ebp], 0
; Line 426
  00028	b8 01 00 00 00	 mov	 eax, 1
  0002d	6b c8 00	 imul	 ecx, eax, 0
  00030	8b 55 08	 mov	 edx, DWORD PTR _psz$[ebp]
  00033	0f be 04 0a	 movsx	 eax, BYTE PTR [edx+ecx]
  00037	83 f8 30	 cmp	 eax, 48			; 00000030H
  0003a	0f 85 d4 00 00
	00		 jne	 $LN2@strtoul
  00040	b9 01 00 00 00	 mov	 ecx, 1
  00045	c1 e1 00	 shl	 ecx, 0
  00048	8b 55 08	 mov	 edx, DWORD PTR _psz$[ebp]
  0004b	0f be 04 0a	 movsx	 eax, BYTE PTR [edx+ecx]
  0004f	83 f8 78	 cmp	 eax, 120		; 00000078H
  00052	74 18		 je	 SHORT $LN12@strtoul
  00054	b9 01 00 00 00	 mov	 ecx, 1
  00059	c1 e1 00	 shl	 ecx, 0
  0005c	8b 55 08	 mov	 edx, DWORD PTR _psz$[ebp]
  0005f	0f be 04 0a	 movsx	 eax, BYTE PTR [edx+ecx]
  00063	83 f8 58	 cmp	 eax, 88			; 00000058H
  00066	0f 85 a8 00 00
	00		 jne	 $LN2@strtoul
$LN12@strtoul:
; Line 428
  0006c	8b 4d 08	 mov	 ecx, DWORD PTR _psz$[ebp]
  0006f	83 c1 02	 add	 ecx, 2
  00072	89 4d 08	 mov	 DWORD PTR _psz$[ebp], ecx
; Line 429
  00075	c7 45 f8 00 00
	00 00		 mov	 DWORD PTR _ul$1[ebp], 0
$LN11@strtoul:
; Line 430
  0007c	8b 55 08	 mov	 edx, DWORD PTR _psz$[ebp]
  0007f	0f be 02	 movsx	 eax, BYTE PTR [edx]
  00082	85 c0		 test	 eax, eax
  00084	0f 84 88 00 00
	00		 je	 $LN10@strtoul
; Line 432
  0008a	8b 4d 08	 mov	 ecx, DWORD PTR _psz$[ebp]
  0008d	0f be 11	 movsx	 edx, BYTE PTR [ecx]
  00090	83 fa 30	 cmp	 edx, 48			; 00000030H
  00093	7c 19		 jl	 SHORT $LN9@strtoul
  00095	8b 45 08	 mov	 eax, DWORD PTR _psz$[ebp]
  00098	0f be 08	 movsx	 ecx, BYTE PTR [eax]
  0009b	83 f9 39	 cmp	 ecx, 57			; 00000039H
  0009e	7f 0e		 jg	 SHORT $LN9@strtoul
; Line 433
  000a0	8b 55 08	 mov	 edx, DWORD PTR _psz$[ebp]
  000a3	0f be 02	 movsx	 eax, BYTE PTR [edx]
  000a6	83 e8 30	 sub	 eax, 48			; 00000030H
  000a9	89 45 f8	 mov	 DWORD PTR _ul$1[ebp], eax
  000ac	eb 4a		 jmp	 SHORT $LN8@strtoul
$LN9@strtoul:
; Line 434
  000ae	8b 4d 08	 mov	 ecx, DWORD PTR _psz$[ebp]
  000b1	0f be 11	 movsx	 edx, BYTE PTR [ecx]
  000b4	83 fa 41	 cmp	 edx, 65			; 00000041H
  000b7	7c 19		 jl	 SHORT $LN7@strtoul
  000b9	8b 45 08	 mov	 eax, DWORD PTR _psz$[ebp]
  000bc	0f be 08	 movsx	 ecx, BYTE PTR [eax]
  000bf	83 f9 46	 cmp	 ecx, 70			; 00000046H
  000c2	7f 0e		 jg	 SHORT $LN7@strtoul
; Line 435
  000c4	8b 55 08	 mov	 edx, DWORD PTR _psz$[ebp]
  000c7	0f be 02	 movsx	 eax, BYTE PTR [edx]
  000ca	83 e8 37	 sub	 eax, 55			; 00000037H
  000cd	89 45 f8	 mov	 DWORD PTR _ul$1[ebp], eax
  000d0	eb 26		 jmp	 SHORT $LN8@strtoul
$LN7@strtoul:
; Line 436
  000d2	8b 4d 08	 mov	 ecx, DWORD PTR _psz$[ebp]
  000d5	0f be 11	 movsx	 edx, BYTE PTR [ecx]
  000d8	83 fa 61	 cmp	 edx, 97			; 00000061H
  000db	7c 19		 jl	 SHORT $LN5@strtoul
  000dd	8b 45 08	 mov	 eax, DWORD PTR _psz$[ebp]
  000e0	0f be 08	 movsx	 ecx, BYTE PTR [eax]
  000e3	83 f9 66	 cmp	 ecx, 102		; 00000066H
  000e6	7f 0e		 jg	 SHORT $LN5@strtoul
; Line 437
  000e8	8b 55 08	 mov	 edx, DWORD PTR _psz$[ebp]
  000eb	0f be 02	 movsx	 eax, BYTE PTR [edx]
  000ee	83 e8 57	 sub	 eax, 87			; 00000057H
  000f1	89 45 f8	 mov	 DWORD PTR _ul$1[ebp], eax
; Line 438
  000f4	eb 02		 jmp	 SHORT $LN8@strtoul
$LN5@strtoul:
; Line 439
  000f6	eb 1a		 jmp	 SHORT $LN10@strtoul
$LN8@strtoul:
; Line 440
  000f8	8b 4d fc	 mov	 ecx, DWORD PTR _ulRet$[ebp]
  000fb	c1 e1 04	 shl	 ecx, 4
  000fe	03 4d f8	 add	 ecx, DWORD PTR _ul$1[ebp]
  00101	89 4d fc	 mov	 DWORD PTR _ulRet$[ebp], ecx
; Line 441
  00104	8b 55 08	 mov	 edx, DWORD PTR _psz$[ebp]
  00107	83 c2 01	 add	 edx, 1
  0010a	89 55 08	 mov	 DWORD PTR _psz$[ebp], edx
; Line 442
  0010d	e9 6a ff ff ff	 jmp	 $LN11@strtoul
$LN10@strtoul:
; Line 444
  00112	eb 3c		 jmp	 SHORT $LN3@strtoul
$LN2@strtoul:
; Line 446
  00114	8b 45 08	 mov	 eax, DWORD PTR _psz$[ebp]
  00117	0f be 08	 movsx	 ecx, BYTE PTR [eax]
  0011a	85 c9		 test	 ecx, ecx
  0011c	74 32		 je	 SHORT $LN3@strtoul
  0011e	8b 55 08	 mov	 edx, DWORD PTR _psz$[ebp]
  00121	0f be 02	 movsx	 eax, BYTE PTR [edx]
  00124	83 f8 30	 cmp	 eax, 48			; 00000030H
  00127	7c 27		 jl	 SHORT $LN3@strtoul
  00129	8b 4d 08	 mov	 ecx, DWORD PTR _psz$[ebp]
  0012c	0f be 11	 movsx	 edx, BYTE PTR [ecx]
  0012f	83 fa 39	 cmp	 edx, 57			; 00000039H
  00132	7f 1c		 jg	 SHORT $LN3@strtoul
; Line 448
  00134	6b 45 fc 0a	 imul	 eax, DWORD PTR _ulRet$[ebp], 10
  00138	8b 4d 08	 mov	 ecx, DWORD PTR _psz$[ebp]
  0013b	0f be 11	 movsx	 edx, BYTE PTR [ecx]
  0013e	8d 44 10 d0	 lea	 eax, DWORD PTR [eax+edx-48]
  00142	89 45 fc	 mov	 DWORD PTR _ulRet$[ebp], eax
; Line 449
  00145	8b 4d 08	 mov	 ecx, DWORD PTR _psz$[ebp]
  00148	83 c1 01	 add	 ecx, 1
  0014b	89 4d 08	 mov	 DWORD PTR _psz$[ebp], ecx
; Line 450
  0014e	eb c4		 jmp	 SHORT $LN2@strtoul
$LN3@strtoul:
; Line 452
  00150	8b 45 fc	 mov	 eax, DWORD PTR _ulRet$[ebp]
$LN15@strtoul:
; Line 453
  00153	8b e5		 mov	 esp, ebp
  00155	5d		 pop	 ebp
  00156	c3		 ret	 0
?_strtoul@@YAKPBDPAPA_WH@Z ENDP				; _strtoul
_TEXT	ENDS
; Function compile flags: /Odtp /RTCsu
_TEXT	SEGMENT
_hr$ = -16						; size = 4
_srcTm$ = -8						; size = 4
_bEnable$ = 8						; size = 1
?EnableUiUpdates@CTsfUiLessMode@@SAX_N@Z PROC		; CTsfUiLessMode::EnableUiUpdates
; File d:\engine class\assignment 1\new scratch\dxut\optional\imeui.cpp
; Line 3053
  00000	55		 push	 ebp
  00001	8b ec		 mov	 ebp, esp
  00003	83 ec 10	 sub	 esp, 16			; 00000010H
  00006	56		 push	 esi
  00007	b8 cc cc cc cc	 mov	 eax, -858993460		; ccccccccH
  0000c	89 45 f0	 mov	 DWORD PTR [ebp-16], eax
  0000f	89 45 f4	 mov	 DWORD PTR [ebp-12], eax
  00012	89 45 f8	 mov	 DWORD PTR [ebp-8], eax
  00015	89 45 fc	 mov	 DWORD PTR [ebp-4], eax
; Line 3056
  00018	83 3d 00 00 00
	00 00		 cmp	 DWORD PTR ?m_tm@CTsfUiLessMode@@1PAUITfThreadMgrEx@@A, 0 ; CTsfUiLessMode::m_tm
  0001f	74 22		 je	 SHORT $LN5@EnableUiUp
  00021	0f b6 45 08	 movzx	 eax, BYTE PTR _bEnable$[ebp]
  00025	85 c0		 test	 eax, eax
  00027	74 09		 je	 SHORT $LN4@EnableUiUp
  00029	83 3d 00 00 00
	00 ff		 cmp	 DWORD PTR ?m_dwUIElementSinkCookie@CTsfUiLessMode@@1KA, -1 ; CTsfUiLessMode::m_dwUIElementSinkCookie
  00030	75 11		 jne	 SHORT $LN5@EnableUiUp
$LN4@EnableUiUp:
  00032	0f b6 4d 08	 movzx	 ecx, BYTE PTR _bEnable$[ebp]
  00036	85 c9		 test	 ecx, ecx
  00038	75 0e		 jne	 SHORT $LN6@EnableUiUp
  0003a	83 3d 00 00 00
	00 ff		 cmp	 DWORD PTR ?m_dwUIElementSinkCookie@CTsfUiLessMode@@1KA, -1 ; CTsfUiLessMode::m_dwUIElementSinkCookie
  00041	75 05		 jne	 SHORT $LN6@EnableUiUp
$LN5@EnableUiUp:
; Line 3058
  00043	e9 b2 00 00 00	 jmp	 $LN7@EnableUiUp
$LN6@EnableUiUp:
; Line 3060
  00048	c7 45 f8 00 00
	00 00		 mov	 DWORD PTR _srcTm$[ebp], 0
; Line 3061
  0004f	c7 45 f0 05 40
	00 80		 mov	 DWORD PTR _hr$[ebp], -2147467259 ; 80004005H
; Line 3062
  00056	8b f4		 mov	 esi, esp
  00058	8d 55 f8	 lea	 edx, DWORD PTR _srcTm$[ebp]
  0005b	52		 push	 edx
  0005c	68 00 00 00 00	 push	 OFFSET __GUID_4ea48a35_60ae_446f_8fd6_e6a8d82459f7
  00061	a1 00 00 00 00	 mov	 eax, DWORD PTR ?m_tm@CTsfUiLessMode@@1PAUITfThreadMgrEx@@A ; CTsfUiLessMode::m_tm
  00066	8b 08		 mov	 ecx, DWORD PTR [eax]
  00068	8b 15 00 00 00
	00		 mov	 edx, DWORD PTR ?m_tm@CTsfUiLessMode@@1PAUITfThreadMgrEx@@A ; CTsfUiLessMode::m_tm
  0006e	52		 push	 edx
  0006f	8b 01		 mov	 eax, DWORD PTR [ecx]
  00071	ff d0		 call	 eax
  00073	3b f4		 cmp	 esi, esp
  00075	e8 00 00 00 00	 call	 __RTC_CheckEsp
  0007a	89 45 f0	 mov	 DWORD PTR _hr$[ebp], eax
  0007d	83 7d f0 00	 cmp	 DWORD PTR _hr$[ebp], 0
  00081	7c 77		 jl	 SHORT $LN7@EnableUiUp
; Line 3064
  00083	0f b6 4d 08	 movzx	 ecx, BYTE PTR _bEnable$[ebp]
  00087	85 c9		 test	 ecx, ecx
  00089	74 2d		 je	 SHORT $LN2@EnableUiUp
; Line 3067
  0008b	8b f4		 mov	 esi, esp
  0008d	68 00 00 00 00	 push	 OFFSET ?m_dwUIElementSinkCookie@CTsfUiLessMode@@1KA ; CTsfUiLessMode::m_dwUIElementSinkCookie
  00092	8b 15 00 00 00
	00		 mov	 edx, DWORD PTR ?m_TsfSink@CTsfUiLessMode@@1PAVCUIElementSink@1@A ; CTsfUiLessMode::m_TsfSink
  00098	52		 push	 edx
  00099	68 00 00 00 00	 push	 OFFSET __GUID_ea1ea136_19df_11d7_a6d2_00065b84435c
  0009e	8b 45 f8	 mov	 eax, DWORD PTR _srcTm$[ebp]
  000a1	8b 08		 mov	 ecx, DWORD PTR [eax]
  000a3	8b 55 f8	 mov	 edx, DWORD PTR _srcTm$[ebp]
  000a6	52		 push	 edx
  000a7	8b 41 0c	 mov	 eax, DWORD PTR [ecx+12]
  000aa	ff d0		 call	 eax
  000ac	3b f4		 cmp	 esi, esp
  000ae	e8 00 00 00 00	 call	 __RTC_CheckEsp
  000b3	89 45 f0	 mov	 DWORD PTR _hr$[ebp], eax
; Line 3069
  000b6	eb 2b		 jmp	 SHORT $LN1@EnableUiUp
$LN2@EnableUiUp:
; Line 3071
  000b8	8b f4		 mov	 esi, esp
  000ba	8b 0d 00 00 00
	00		 mov	 ecx, DWORD PTR ?m_dwUIElementSinkCookie@CTsfUiLessMode@@1KA ; CTsfUiLessMode::m_dwUIElementSinkCookie
  000c0	51		 push	 ecx
  000c1	8b 55 f8	 mov	 edx, DWORD PTR _srcTm$[ebp]
  000c4	8b 02		 mov	 eax, DWORD PTR [edx]
  000c6	8b 4d f8	 mov	 ecx, DWORD PTR _srcTm$[ebp]
  000c9	51		 push	 ecx
  000ca	8b 50 10	 mov	 edx, DWORD PTR [eax+16]
  000cd	ff d2		 call	 edx
  000cf	3b f4		 cmp	 esi, esp
  000d1	e8 00 00 00 00	 call	 __RTC_CheckEsp
  000d6	89 45 f0	 mov	 DWORD PTR _hr$[ebp], eax
; Line 3072
  000d9	c7 05 00 00 00
	00 ff ff ff ff	 mov	 DWORD PTR ?m_dwUIElementSinkCookie@CTsfUiLessMode@@1KA, -1 ; CTsfUiLessMode::m_dwUIElementSinkCookie
$LN1@EnableUiUp:
; Line 3074
  000e3	8b 45 f8	 mov	 eax, DWORD PTR _srcTm$[ebp]
  000e6	8b 08		 mov	 ecx, DWORD PTR [eax]
  000e8	8b f4		 mov	 esi, esp
  000ea	8b 55 f8	 mov	 edx, DWORD PTR _srcTm$[ebp]
  000ed	52		 push	 edx
  000ee	8b 41 08	 mov	 eax, DWORD PTR [ecx+8]
  000f1	ff d0		 call	 eax
  000f3	3b f4		 cmp	 esi, esp
  000f5	e8 00 00 00 00	 call	 __RTC_CheckEsp
$LN7@EnableUiUp:
; Line 3076
  000fa	52		 push	 edx
  000fb	8b cd		 mov	 ecx, ebp
  000fd	50		 push	 eax
  000fe	8d 15 00 00 00
	00		 lea	 edx, DWORD PTR $LN11@EnableUiUp
  00104	e8 00 00 00 00	 call	 @_RTC_CheckStackVars@8
  00109	58		 pop	 eax
  0010a	5a		 pop	 edx
  0010b	5e		 pop	 esi
  0010c	83 c4 10	 add	 esp, 16			; 00000010H
  0010f	3b ec		 cmp	 ebp, esp
  00111	e8 00 00 00 00	 call	 __RTC_CheckEsp
  00116	8b e5		 mov	 esp, ebp
  00118	5d		 pop	 ebp
  00119	c3		 ret	 0
  0011a	8b ff		 npad	 2
$LN11@EnableUiUp:
  0011c	01 00 00 00	 DD	 1
  00120	00 00 00 00	 DD	 $LN10@EnableUiUp
$LN10@EnableUiUp:
  00124	f8 ff ff ff	 DD	 -8			; fffffff8H
  00128	04 00 00 00	 DD	 4
  0012c	00 00 00 00	 DD	 $LN9@EnableUiUp
$LN9@EnableUiUp:
  00130	73		 DB	 115			; 00000073H
  00131	72		 DB	 114			; 00000072H
  00132	63		 DB	 99			; 00000063H
  00133	54		 DB	 84			; 00000054H
  00134	6d		 DB	 109			; 0000006dH
  00135	00		 DB	 0
?EnableUiUpdates@CTsfUiLessMode@@SAX_N@Z ENDP		; CTsfUiLessMode::EnableUiUpdates
_TEXT	ENDS
; Function compile flags: /Odtp /RTCsu
_TEXT	SEGMENT
tv89 = -92						; size = 4
tv87 = -88						; size = 4
_valConvMode$1 = -80					; size = 16
_valOpenMode$2 = -56					; size = 16
_pTfConvMode$ = -32					; size = 4
_pTfOpenMode$ = -20					; size = 4
_pcm$ = -8						; size = 4
_bResetCompartmentEventSink$ = 8			; size = 4
?UpdateImeState@CTsfUiLessMode@@SAXH@Z PROC		; CTsfUiLessMode::UpdateImeState
; File d:\engine class\assignment 1\new scratch\dxut\optional\imeui.cpp
; Line 2826
  00000	55		 push	 ebp
  00001	8b ec		 mov	 ebp, esp
  00003	83 ec 5c	 sub	 esp, 92			; 0000005cH
  00006	56		 push	 esi
  00007	57		 push	 edi
  00008	8d 7d a4	 lea	 edi, DWORD PTR [ebp-92]
  0000b	b9 17 00 00 00	 mov	 ecx, 23			; 00000017H
  00010	b8 cc cc cc cc	 mov	 eax, -858993460		; ccccccccH
  00015	f3 ab		 rep stosd
; Line 2828
  00017	c7 45 ec 00 00
	00 00		 mov	 DWORD PTR _pTfOpenMode$[ebp], 0
; Line 2829
  0001e	c7 45 e0 00 00
	00 00		 mov	 DWORD PTR _pTfConvMode$[ebp], 0
; Line 2830
  00025	8d 45 e0	 lea	 eax, DWORD PTR _pTfConvMode$[ebp]
  00028	50		 push	 eax
  00029	8d 4d ec	 lea	 ecx, DWORD PTR _pTfOpenMode$[ebp]
  0002c	51		 push	 ecx
  0002d	8d 55 f8	 lea	 edx, DWORD PTR _pcm$[ebp]
  00030	52		 push	 edx
  00031	e8 00 00 00 00	 call	 ?GetCompartments@CTsfUiLessMode@@KAHPAPAUITfCompartmentMgr@@PAPAUITfCompartment@@1@Z ; CTsfUiLessMode::GetCompartments
  00036	83 c4 0c	 add	 esp, 12			; 0000000cH
  00039	85 c0		 test	 eax, eax
  0003b	0f 84 1e 01 00
	00		 je	 $LN8@UpdateImeS
; Line 2833
  00041	8b f4		 mov	 esi, esp
  00043	8d 45 c8	 lea	 eax, DWORD PTR _valOpenMode$2[ebp]
  00046	50		 push	 eax
  00047	8b 4d ec	 mov	 ecx, DWORD PTR _pTfOpenMode$[ebp]
  0004a	8b 11		 mov	 edx, DWORD PTR [ecx]
  0004c	8b 45 ec	 mov	 eax, DWORD PTR _pTfOpenMode$[ebp]
  0004f	50		 push	 eax
  00050	8b 4a 10	 mov	 ecx, DWORD PTR [edx+16]
  00053	ff d1		 call	 ecx
  00055	3b f4		 cmp	 esi, esp
  00057	e8 00 00 00 00	 call	 __RTC_CheckEsp
  0005c	85 c0		 test	 eax, eax
  0005e	0f 8c 9e 00 00
	00		 jl	 $LN6@UpdateImeS
; Line 2836
  00064	8b f4		 mov	 esi, esp
  00066	8d 55 b0	 lea	 edx, DWORD PTR _valConvMode$1[ebp]
  00069	52		 push	 edx
  0006a	8b 45 e0	 mov	 eax, DWORD PTR _pTfConvMode$[ebp]
  0006d	8b 08		 mov	 ecx, DWORD PTR [eax]
  0006f	8b 55 e0	 mov	 edx, DWORD PTR _pTfConvMode$[ebp]
  00072	52		 push	 edx
  00073	8b 41 10	 mov	 eax, DWORD PTR [ecx+16]
  00076	ff d0		 call	 eax
  00078	3b f4		 cmp	 esi, esp
  0007a	e8 00 00 00 00	 call	 __RTC_CheckEsp
  0007f	85 c0		 test	 eax, eax
  00081	7c 6c		 jl	 SHORT $LN5@UpdateImeS
; Line 2838
  00083	0f b7 4d c8	 movzx	 ecx, WORD PTR _valOpenMode$2[ebp]
  00087	83 f9 03	 cmp	 ecx, 3
  0008a	75 50		 jne	 SHORT $LN4@UpdateImeS
; Line 2840
  0008c	0f b6 15 00 00
	00 00		 movzx	 edx, BYTE PTR _g_bChineseIME
  00093	85 d2		 test	 edx, edx
  00095	74 26		 je	 SHORT $LN3@UpdateImeS
; Line 2842
  00097	83 7d d0 00	 cmp	 DWORD PTR _valOpenMode$2[ebp+8], 0
  0009b	74 0f		 je	 SHORT $LN10@UpdateImeS
  0009d	83 7d b8 00	 cmp	 DWORD PTR _valConvMode$1[ebp+8], 0
  000a1	74 09		 je	 SHORT $LN10@UpdateImeS
  000a3	c7 45 a8 01 00
	00 00		 mov	 DWORD PTR tv87[ebp], 1
  000aa	eb 07		 jmp	 SHORT $LN11@UpdateImeS
$LN10@UpdateImeS:
  000ac	c7 45 a8 02 00
	00 00		 mov	 DWORD PTR tv87[ebp], 2
$LN11@UpdateImeS:
  000b3	8b 45 a8	 mov	 eax, DWORD PTR tv87[ebp]
  000b6	a3 00 00 00 00	 mov	 DWORD PTR _g_dwState, eax
; Line 2844
  000bb	eb 1f		 jmp	 SHORT $LN4@UpdateImeS
$LN3@UpdateImeS:
; Line 2846
  000bd	83 7d d0 00	 cmp	 DWORD PTR _valOpenMode$2[ebp+8], 0
  000c1	74 09		 je	 SHORT $LN12@UpdateImeS
  000c3	c7 45 a4 01 00
	00 00		 mov	 DWORD PTR tv89[ebp], 1
  000ca	eb 07		 jmp	 SHORT $LN13@UpdateImeS
$LN12@UpdateImeS:
  000cc	c7 45 a4 00 00
	00 00		 mov	 DWORD PTR tv89[ebp], 0
$LN13@UpdateImeS:
  000d3	8b 4d a4	 mov	 ecx, DWORD PTR tv89[ebp]
  000d6	89 0d 00 00 00
	00		 mov	 DWORD PTR _g_dwState, ecx
$LN4@UpdateImeS:
; Line 2849
  000dc	8b f4		 mov	 esi, esp
  000de	8d 55 b0	 lea	 edx, DWORD PTR _valConvMode$1[ebp]
  000e1	52		 push	 edx
  000e2	ff 15 00 00 00
	00		 call	 DWORD PTR __imp__VariantClear@4
  000e8	3b f4		 cmp	 esi, esp
  000ea	e8 00 00 00 00	 call	 __RTC_CheckEsp
$LN5@UpdateImeS:
; Line 2851
  000ef	8b f4		 mov	 esi, esp
  000f1	8d 45 c8	 lea	 eax, DWORD PTR _valOpenMode$2[ebp]
  000f4	50		 push	 eax
  000f5	ff 15 00 00 00
	00		 call	 DWORD PTR __imp__VariantClear@4
  000fb	3b f4		 cmp	 esi, esp
  000fd	e8 00 00 00 00	 call	 __RTC_CheckEsp
$LN6@UpdateImeS:
; Line 2854
  00102	83 7d 08 00	 cmp	 DWORD PTR _bResetCompartmentEventSink$[ebp], 0
  00106	74 12		 je	 SHORT $LN1@UpdateImeS
; Line 2856
  00108	8b 4d e0	 mov	 ecx, DWORD PTR _pTfConvMode$[ebp]
  0010b	51		 push	 ecx
  0010c	8b 55 ec	 mov	 edx, DWORD PTR _pTfOpenMode$[ebp]
  0010f	52		 push	 edx
  00110	6a 00		 push	 0
  00112	e8 00 00 00 00	 call	 ?SetupCompartmentSinks@CTsfUiLessMode@@KAHHPAUITfCompartment@@0@Z ; CTsfUiLessMode::SetupCompartmentSinks
  00117	83 c4 0c	 add	 esp, 12			; 0000000cH
$LN1@UpdateImeS:
; Line 2858
  0011a	8b 45 ec	 mov	 eax, DWORD PTR _pTfOpenMode$[ebp]
  0011d	8b 08		 mov	 ecx, DWORD PTR [eax]
  0011f	8b f4		 mov	 esi, esp
  00121	8b 55 ec	 mov	 edx, DWORD PTR _pTfOpenMode$[ebp]
  00124	52		 push	 edx
  00125	8b 41 08	 mov	 eax, DWORD PTR [ecx+8]
  00128	ff d0		 call	 eax
  0012a	3b f4		 cmp	 esi, esp
  0012c	e8 00 00 00 00	 call	 __RTC_CheckEsp
; Line 2859
  00131	8b 4d e0	 mov	 ecx, DWORD PTR _pTfConvMode$[ebp]
  00134	8b 11		 mov	 edx, DWORD PTR [ecx]
  00136	8b f4		 mov	 esi, esp
  00138	8b 45 e0	 mov	 eax, DWORD PTR _pTfConvMode$[ebp]
  0013b	50		 push	 eax
  0013c	8b 4a 08	 mov	 ecx, DWORD PTR [edx+8]
  0013f	ff d1		 call	 ecx
  00141	3b f4		 cmp	 esi, esp
  00143	e8 00 00 00 00	 call	 __RTC_CheckEsp
; Line 2860
  00148	8b 55 f8	 mov	 edx, DWORD PTR _pcm$[ebp]
  0014b	8b 02		 mov	 eax, DWORD PTR [edx]
  0014d	8b f4		 mov	 esi, esp
  0014f	8b 4d f8	 mov	 ecx, DWORD PTR _pcm$[ebp]
  00152	51		 push	 ecx
  00153	8b 50 08	 mov	 edx, DWORD PTR [eax+8]
  00156	ff d2		 call	 edx
  00158	3b f4		 cmp	 esi, esp
  0015a	e8 00 00 00 00	 call	 __RTC_CheckEsp
$LN8@UpdateImeS:
; Line 2862
  0015f	52		 push	 edx
  00160	8b cd		 mov	 ecx, ebp
  00162	50		 push	 eax
  00163	8d 15 00 00 00
	00		 lea	 edx, DWORD PTR $LN20@UpdateImeS
  00169	e8 00 00 00 00	 call	 @_RTC_CheckStackVars@8
  0016e	58		 pop	 eax
  0016f	5a		 pop	 edx
  00170	5f		 pop	 edi
  00171	5e		 pop	 esi
  00172	83 c4 5c	 add	 esp, 92			; 0000005cH
  00175	3b ec		 cmp	 ebp, esp
  00177	e8 00 00 00 00	 call	 __RTC_CheckEsp
  0017c	8b e5		 mov	 esp, ebp
  0017e	5d		 pop	 ebp
  0017f	c3		 ret	 0
$LN20@UpdateImeS:
  00180	05 00 00 00	 DD	 5
  00184	00 00 00 00	 DD	 $LN19@UpdateImeS
$LN19@UpdateImeS:
  00188	f8 ff ff ff	 DD	 -8			; fffffff8H
  0018c	04 00 00 00	 DD	 4
  00190	00 00 00 00	 DD	 $LN14@UpdateImeS
  00194	ec ff ff ff	 DD	 -20			; ffffffecH
  00198	04 00 00 00	 DD	 4
  0019c	00 00 00 00	 DD	 $LN15@UpdateImeS
  001a0	e0 ff ff ff	 DD	 -32			; ffffffe0H
  001a4	04 00 00 00	 DD	 4
  001a8	00 00 00 00	 DD	 $LN16@UpdateImeS
  001ac	c8 ff ff ff	 DD	 -56			; ffffffc8H
  001b0	10 00 00 00	 DD	 16			; 00000010H
  001b4	00 00 00 00	 DD	 $LN17@UpdateImeS
  001b8	b0 ff ff ff	 DD	 -80			; ffffffb0H
  001bc	10 00 00 00	 DD	 16			; 00000010H
  001c0	00 00 00 00	 DD	 $LN18@UpdateImeS
$LN18@UpdateImeS:
  001c4	76		 DB	 118			; 00000076H
  001c5	61		 DB	 97			; 00000061H
  001c6	6c		 DB	 108			; 0000006cH
  001c7	43		 DB	 67			; 00000043H
  001c8	6f		 DB	 111			; 0000006fH
  001c9	6e		 DB	 110			; 0000006eH
  001ca	76		 DB	 118			; 00000076H
  001cb	4d		 DB	 77			; 0000004dH
  001cc	6f		 DB	 111			; 0000006fH
  001cd	64		 DB	 100			; 00000064H
  001ce	65		 DB	 101			; 00000065H
  001cf	00		 DB	 0
$LN17@UpdateImeS:
  001d0	76		 DB	 118			; 00000076H
  001d1	61		 DB	 97			; 00000061H
  001d2	6c		 DB	 108			; 0000006cH
  001d3	4f		 DB	 79			; 0000004fH
  001d4	70		 DB	 112			; 00000070H
  001d5	65		 DB	 101			; 00000065H
  001d6	6e		 DB	 110			; 0000006eH
  001d7	4d		 DB	 77			; 0000004dH
  001d8	6f		 DB	 111			; 0000006fH
  001d9	64		 DB	 100			; 00000064H
  001da	65		 DB	 101			; 00000065H
  001db	00		 DB	 0
$LN16@UpdateImeS:
  001dc	70		 DB	 112			; 00000070H
  001dd	54		 DB	 84			; 00000054H
  001de	66		 DB	 102			; 00000066H
  001df	43		 DB	 67			; 00000043H
  001e0	6f		 DB	 111			; 0000006fH
  001e1	6e		 DB	 110			; 0000006eH
  001e2	76		 DB	 118			; 00000076H
  001e3	4d		 DB	 77			; 0000004dH
  001e4	6f		 DB	 111			; 0000006fH
  001e5	64		 DB	 100			; 00000064H
  001e6	65		 DB	 101			; 00000065H
  001e7	00		 DB	 0
$LN15@UpdateImeS:
  001e8	70		 DB	 112			; 00000070H
  001e9	54		 DB	 84			; 00000054H
  001ea	66		 DB	 102			; 00000066H
  001eb	4f		 DB	 79			; 0000004fH
  001ec	70		 DB	 112			; 00000070H
  001ed	65		 DB	 101			; 00000065H
  001ee	6e		 DB	 110			; 0000006eH
  001ef	4d		 DB	 77			; 0000004dH
  001f0	6f		 DB	 111			; 0000006fH
  001f1	64		 DB	 100			; 00000064H
  001f2	65		 DB	 101			; 00000065H
  001f3	00		 DB	 0
$LN14@UpdateImeS:
  001f4	70		 DB	 112			; 00000070H
  001f5	63		 DB	 99			; 00000063H
  001f6	6d		 DB	 109			; 0000006dH
  001f7	00		 DB	 0
?UpdateImeState@CTsfUiLessMode@@SAXH@Z ENDP		; CTsfUiLessMode::UpdateImeState
_TEXT	ENDS
; Function compile flags: /Odtp /RTCsu
_TEXT	SEGMENT
tv91 = -120						; size = 4
_tip$1 = -112						; size = 72
_pProfileMgr$2 = -32					; size = 4
_pProfiles$ = -20					; size = 4
_hr$ = -12						; size = 4
_ret$ = -8						; size = 4
__$ArrayPad$ = -4					; size = 4
?CurrentInputLocaleIsIme@CTsfUiLessMode@@SAHXZ PROC	; CTsfUiLessMode::CurrentInputLocaleIsIme
; File d:\engine class\assignment 1\new scratch\dxut\optional\imeui.cpp
; Line 3023
  00000	55		 push	 ebp
  00001	8b ec		 mov	 ebp, esp
  00003	83 ec 78	 sub	 esp, 120		; 00000078H
  00006	56		 push	 esi
  00007	57		 push	 edi
  00008	8d 7d 88	 lea	 edi, DWORD PTR [ebp-120]
  0000b	b9 1e 00 00 00	 mov	 ecx, 30			; 0000001eH
  00010	b8 cc cc cc cc	 mov	 eax, -858993460		; ccccccccH
  00015	f3 ab		 rep stosd
  00017	a1 00 00 00 00	 mov	 eax, DWORD PTR ___security_cookie
  0001c	33 c5		 xor	 eax, ebp
  0001e	89 45 fc	 mov	 DWORD PTR __$ArrayPad$[ebp], eax
; Line 3024
  00021	c7 45 f8 00 00
	00 00		 mov	 DWORD PTR _ret$[ebp], 0
; Line 3029
  00028	8b f4		 mov	 esi, esp
  0002a	8d 45 ec	 lea	 eax, DWORD PTR _pProfiles$[ebp]
  0002d	50		 push	 eax
  0002e	68 00 00 00 00	 push	 OFFSET __GUID_1f02b6c5_7842_4ee6_8a0b_9a24183a95ca
  00033	6a 01		 push	 1
  00035	6a 00		 push	 0
  00037	68 00 00 00 00	 push	 OFFSET _CLSID_TF_InputProcessorProfiles
  0003c	ff 15 00 00 00
	00		 call	 DWORD PTR __imp__CoCreateInstance@20
  00042	3b f4		 cmp	 esi, esp
  00044	e8 00 00 00 00	 call	 __RTC_CheckEsp
  00049	89 45 f4	 mov	 DWORD PTR _hr$[ebp], eax
; Line 3030
  0004c	83 7d f4 00	 cmp	 DWORD PTR _hr$[ebp], 0
  00050	0f 8c 9d 00 00
	00		 jl	 $LN3@CurrentInp
; Line 3033
  00056	8b f4		 mov	 esi, esp
  00058	8d 4d e0	 lea	 ecx, DWORD PTR _pProfileMgr$2[ebp]
  0005b	51		 push	 ecx
  0005c	68 00 00 00 00	 push	 OFFSET __GUID_71c6e74c_0f28_11d8_a82a_00065b84435c
  00061	8b 55 ec	 mov	 edx, DWORD PTR _pProfiles$[ebp]
  00064	8b 02		 mov	 eax, DWORD PTR [edx]
  00066	8b 4d ec	 mov	 ecx, DWORD PTR _pProfiles$[ebp]
  00069	51		 push	 ecx
  0006a	8b 10		 mov	 edx, DWORD PTR [eax]
  0006c	ff d2		 call	 edx
  0006e	3b f4		 cmp	 esi, esp
  00070	e8 00 00 00 00	 call	 __RTC_CheckEsp
  00075	89 45 f4	 mov	 DWORD PTR _hr$[ebp], eax
; Line 3034
  00078	83 7d f4 00	 cmp	 DWORD PTR _hr$[ebp], 0
  0007c	7c 5e		 jl	 SHORT $LN2@CurrentInp
; Line 3037
  0007e	8b f4		 mov	 esi, esp
  00080	8d 45 90	 lea	 eax, DWORD PTR _tip$1[ebp]
  00083	50		 push	 eax
  00084	68 00 00 00 00	 push	 OFFSET _GUID_TFCAT_TIP_KEYBOARD
  00089	8b 4d e0	 mov	 ecx, DWORD PTR _pProfileMgr$2[ebp]
  0008c	8b 11		 mov	 edx, DWORD PTR [ecx]
  0008e	8b 45 e0	 mov	 eax, DWORD PTR _pProfileMgr$2[ebp]
  00091	50		 push	 eax
  00092	8b 4a 28	 mov	 ecx, DWORD PTR [edx+40]
  00095	ff d1		 call	 ecx
  00097	3b f4		 cmp	 esi, esp
  00099	e8 00 00 00 00	 call	 __RTC_CheckEsp
  0009e	89 45 f4	 mov	 DWORD PTR _hr$[ebp], eax
; Line 3038
  000a1	83 7d f4 00	 cmp	 DWORD PTR _hr$[ebp], 0
  000a5	7c 1e		 jl	 SHORT $LN1@CurrentInp
; Line 3040
  000a7	8b 55 90	 mov	 edx, DWORD PTR _tip$1[ebp]
  000aa	83 e2 01	 and	 edx, 1
  000ad	74 09		 je	 SHORT $LN6@CurrentInp
  000af	c7 45 88 01 00
	00 00		 mov	 DWORD PTR tv91[ebp], 1
  000b6	eb 07		 jmp	 SHORT $LN7@CurrentInp
$LN6@CurrentInp:
  000b8	c7 45 88 00 00
	00 00		 mov	 DWORD PTR tv91[ebp], 0
$LN7@CurrentInp:
  000bf	8b 45 88	 mov	 eax, DWORD PTR tv91[ebp]
  000c2	89 45 f8	 mov	 DWORD PTR _ret$[ebp], eax
$LN1@CurrentInp:
; Line 3042
  000c5	8b 4d e0	 mov	 ecx, DWORD PTR _pProfileMgr$2[ebp]
  000c8	8b 11		 mov	 edx, DWORD PTR [ecx]
  000ca	8b f4		 mov	 esi, esp
  000cc	8b 45 e0	 mov	 eax, DWORD PTR _pProfileMgr$2[ebp]
  000cf	50		 push	 eax
  000d0	8b 4a 08	 mov	 ecx, DWORD PTR [edx+8]
  000d3	ff d1		 call	 ecx
  000d5	3b f4		 cmp	 esi, esp
  000d7	e8 00 00 00 00	 call	 __RTC_CheckEsp
$LN2@CurrentInp:
; Line 3044
  000dc	8b 55 ec	 mov	 edx, DWORD PTR _pProfiles$[ebp]
  000df	8b 02		 mov	 eax, DWORD PTR [edx]
  000e1	8b f4		 mov	 esi, esp
  000e3	8b 4d ec	 mov	 ecx, DWORD PTR _pProfiles$[ebp]
  000e6	51		 push	 ecx
  000e7	8b 50 08	 mov	 edx, DWORD PTR [eax+8]
  000ea	ff d2		 call	 edx
  000ec	3b f4		 cmp	 esi, esp
  000ee	e8 00 00 00 00	 call	 __RTC_CheckEsp
$LN3@CurrentInp:
; Line 3046
  000f3	8b 45 f8	 mov	 eax, DWORD PTR _ret$[ebp]
; Line 3047
  000f6	52		 push	 edx
  000f7	8b cd		 mov	 ecx, ebp
  000f9	50		 push	 eax
  000fa	8d 15 00 00 00
	00		 lea	 edx, DWORD PTR $LN12@CurrentInp
  00100	e8 00 00 00 00	 call	 @_RTC_CheckStackVars@8
  00105	58		 pop	 eax
  00106	5a		 pop	 edx
  00107	5f		 pop	 edi
  00108	5e		 pop	 esi
  00109	8b 4d fc	 mov	 ecx, DWORD PTR __$ArrayPad$[ebp]
  0010c	33 cd		 xor	 ecx, ebp
  0010e	e8 00 00 00 00	 call	 @__security_check_cookie@4
  00113	83 c4 78	 add	 esp, 120		; 00000078H
  00116	3b ec		 cmp	 ebp, esp
  00118	e8 00 00 00 00	 call	 __RTC_CheckEsp
  0011d	8b e5		 mov	 esp, ebp
  0011f	5d		 pop	 ebp
  00120	c3		 ret	 0
  00121	8d 49 00	 npad	 3
$LN12@CurrentInp:
  00124	03 00 00 00	 DD	 3
  00128	00 00 00 00	 DD	 $LN11@CurrentInp
$LN11@CurrentInp:
  0012c	ec ff ff ff	 DD	 -20			; ffffffecH
  00130	04 00 00 00	 DD	 4
  00134	00 00 00 00	 DD	 $LN8@CurrentInp
  00138	e0 ff ff ff	 DD	 -32			; ffffffe0H
  0013c	04 00 00 00	 DD	 4
  00140	00 00 00 00	 DD	 $LN9@CurrentInp
  00144	90 ff ff ff	 DD	 -112			; ffffff90H
  00148	48 00 00 00	 DD	 72			; 00000048H
  0014c	00 00 00 00	 DD	 $LN10@CurrentInp
$LN10@CurrentInp:
  00150	74		 DB	 116			; 00000074H
  00151	69		 DB	 105			; 00000069H
  00152	70		 DB	 112			; 00000070H
  00153	00		 DB	 0
$LN9@CurrentInp:
  00154	70		 DB	 112			; 00000070H
  00155	50		 DB	 80			; 00000050H
  00156	72		 DB	 114			; 00000072H
  00157	6f		 DB	 111			; 0000006fH
  00158	66		 DB	 102			; 00000066H
  00159	69		 DB	 105			; 00000069H
  0015a	6c		 DB	 108			; 0000006cH
  0015b	65		 DB	 101			; 00000065H
  0015c	4d		 DB	 77			; 0000004dH
  0015d	67		 DB	 103			; 00000067H
  0015e	72		 DB	 114			; 00000072H
  0015f	00		 DB	 0
$LN8@CurrentInp:
  00160	70		 DB	 112			; 00000070H
  00161	50		 DB	 80			; 00000050H
  00162	72		 DB	 114			; 00000072H
  00163	6f		 DB	 111			; 0000006fH
  00164	66		 DB	 102			; 00000066H
  00165	69		 DB	 105			; 00000069H
  00166	6c		 DB	 108			; 0000006cH
  00167	65		 DB	 101			; 00000065H
  00168	73		 DB	 115			; 00000073H
  00169	00		 DB	 0
?CurrentInputLocaleIsIme@CTsfUiLessMode@@SAHXZ ENDP	; CTsfUiLessMode::CurrentInputLocaleIsIme
_TEXT	ENDS
; Function compile flags: /Odtp /RTCsu
_TEXT	SEGMENT
_source$ = -12						; size = 4
_hr$ = -4						; size = 4
?ReleaseSinks@CTsfUiLessMode@@SAXXZ PROC		; CTsfUiLessMode::ReleaseSinks
; File d:\engine class\assignment 1\new scratch\dxut\optional\imeui.cpp
; Line 2666
  00000	55		 push	 ebp
  00001	8b ec		 mov	 ebp, esp
  00003	83 ec 10	 sub	 esp, 16			; 00000010H
  00006	56		 push	 esi
  00007	b8 cc cc cc cc	 mov	 eax, -858993460		; ccccccccH
  0000c	89 45 f0	 mov	 DWORD PTR [ebp-16], eax
  0000f	89 45 f4	 mov	 DWORD PTR [ebp-12], eax
  00012	89 45 f8	 mov	 DWORD PTR [ebp-8], eax
  00015	89 45 fc	 mov	 DWORD PTR [ebp-4], eax
; Line 2671
  00018	83 3d 00 00 00
	00 00		 cmp	 DWORD PTR ?m_tm@CTsfUiLessMode@@1PAUITfThreadMgrEx@@A, 0 ; CTsfUiLessMode::m_tm
  0001f	0f 84 0e 01 00
	00		 je	 $LN4@ReleaseSin
  00025	8b f4		 mov	 esi, esp
  00027	8d 45 f4	 lea	 eax, DWORD PTR _source$[ebp]
  0002a	50		 push	 eax
  0002b	68 00 00 00 00	 push	 OFFSET __GUID_4ea48a35_60ae_446f_8fd6_e6a8d82459f7
  00030	8b 0d 00 00 00
	00		 mov	 ecx, DWORD PTR ?m_tm@CTsfUiLessMode@@1PAUITfThreadMgrEx@@A ; CTsfUiLessMode::m_tm
  00036	8b 11		 mov	 edx, DWORD PTR [ecx]
  00038	a1 00 00 00 00	 mov	 eax, DWORD PTR ?m_tm@CTsfUiLessMode@@1PAUITfThreadMgrEx@@A ; CTsfUiLessMode::m_tm
  0003d	50		 push	 eax
  0003e	8b 0a		 mov	 ecx, DWORD PTR [edx]
  00040	ff d1		 call	 ecx
  00042	3b f4		 cmp	 esi, esp
  00044	e8 00 00 00 00	 call	 __RTC_CheckEsp
  00049	85 c0		 test	 eax, eax
  0004b	0f 8c e2 00 00
	00		 jl	 $LN4@ReleaseSin
; Line 2673
  00051	8b f4		 mov	 esi, esp
  00053	8b 15 00 00 00
	00		 mov	 edx, DWORD PTR ?m_dwUIElementSinkCookie@CTsfUiLessMode@@1KA ; CTsfUiLessMode::m_dwUIElementSinkCookie
  00059	52		 push	 edx
  0005a	8b 45 f4	 mov	 eax, DWORD PTR _source$[ebp]
  0005d	8b 08		 mov	 ecx, DWORD PTR [eax]
  0005f	8b 55 f4	 mov	 edx, DWORD PTR _source$[ebp]
  00062	52		 push	 edx
  00063	8b 41 10	 mov	 eax, DWORD PTR [ecx+16]
  00066	ff d0		 call	 eax
  00068	3b f4		 cmp	 esi, esp
  0006a	e8 00 00 00 00	 call	 __RTC_CheckEsp
  0006f	89 45 fc	 mov	 DWORD PTR _hr$[ebp], eax
; Line 2674
  00072	8b f4		 mov	 esi, esp
  00074	8b 0d 00 00 00
	00		 mov	 ecx, DWORD PTR ?m_dwAlpnSinkCookie@CTsfUiLessMode@@1KA ; CTsfUiLessMode::m_dwAlpnSinkCookie
  0007a	51		 push	 ecx
  0007b	8b 55 f4	 mov	 edx, DWORD PTR _source$[ebp]
  0007e	8b 02		 mov	 eax, DWORD PTR [edx]
  00080	8b 4d f4	 mov	 ecx, DWORD PTR _source$[ebp]
  00083	51		 push	 ecx
  00084	8b 50 10	 mov	 edx, DWORD PTR [eax+16]
  00087	ff d2		 call	 edx
  00089	3b f4		 cmp	 esi, esp
  0008b	e8 00 00 00 00	 call	 __RTC_CheckEsp
  00090	89 45 fc	 mov	 DWORD PTR _hr$[ebp], eax
; Line 2675
  00093	8b 45 f4	 mov	 eax, DWORD PTR _source$[ebp]
  00096	8b 08		 mov	 ecx, DWORD PTR [eax]
  00098	8b f4		 mov	 esi, esp
  0009a	8b 55 f4	 mov	 edx, DWORD PTR _source$[ebp]
  0009d	52		 push	 edx
  0009e	8b 41 08	 mov	 eax, DWORD PTR [ecx+8]
  000a1	ff d0		 call	 eax
  000a3	3b f4		 cmp	 esi, esp
  000a5	e8 00 00 00 00	 call	 __RTC_CheckEsp
; Line 2676
  000aa	6a 00		 push	 0
  000ac	6a 00		 push	 0
  000ae	6a 01		 push	 1
  000b0	e8 00 00 00 00	 call	 ?SetupCompartmentSinks@CTsfUiLessMode@@KAHHPAUITfCompartment@@0@Z ; CTsfUiLessMode::SetupCompartmentSinks
  000b5	83 c4 0c	 add	 esp, 12			; 0000000cH
; Line 2677
  000b8	8b 0d 00 00 00
	00		 mov	 ecx, DWORD PTR ?m_tm@CTsfUiLessMode@@1PAUITfThreadMgrEx@@A ; CTsfUiLessMode::m_tm
  000be	8b 11		 mov	 edx, DWORD PTR [ecx]
  000c0	8b f4		 mov	 esi, esp
  000c2	a1 00 00 00 00	 mov	 eax, DWORD PTR ?m_tm@CTsfUiLessMode@@1PAUITfThreadMgrEx@@A ; CTsfUiLessMode::m_tm
  000c7	50		 push	 eax
  000c8	8b 4a 10	 mov	 ecx, DWORD PTR [edx+16]
  000cb	ff d1		 call	 ecx
  000cd	3b f4		 cmp	 esi, esp
  000cf	e8 00 00 00 00	 call	 __RTC_CheckEsp
; Line 2678
  000d4	83 3d 00 00 00
	00 00		 cmp	 DWORD PTR ?m_tm@CTsfUiLessMode@@1PAUITfThreadMgrEx@@A, 0 ; CTsfUiLessMode::m_tm
  000db	74 27		 je	 SHORT $LN2@ReleaseSin
  000dd	8b 15 00 00 00
	00		 mov	 edx, DWORD PTR ?m_tm@CTsfUiLessMode@@1PAUITfThreadMgrEx@@A ; CTsfUiLessMode::m_tm
  000e3	8b 02		 mov	 eax, DWORD PTR [edx]
  000e5	8b f4		 mov	 esi, esp
  000e7	8b 0d 00 00 00
	00		 mov	 ecx, DWORD PTR ?m_tm@CTsfUiLessMode@@1PAUITfThreadMgrEx@@A ; CTsfUiLessMode::m_tm
  000ed	51		 push	 ecx
  000ee	8b 50 08	 mov	 edx, DWORD PTR [eax+8]
  000f1	ff d2		 call	 edx
  000f3	3b f4		 cmp	 esi, esp
  000f5	e8 00 00 00 00	 call	 __RTC_CheckEsp
  000fa	c7 05 00 00 00
	00 00 00 00 00	 mov	 DWORD PTR ?m_tm@CTsfUiLessMode@@1PAUITfThreadMgrEx@@A, 0 ; CTsfUiLessMode::m_tm
$LN2@ReleaseSin:
; Line 2679
  00104	83 3d 00 00 00
	00 00		 cmp	 DWORD PTR ?m_TsfSink@CTsfUiLessMode@@1PAVCUIElementSink@1@A, 0 ; CTsfUiLessMode::m_TsfSink
  0010b	74 26		 je	 SHORT $LN4@ReleaseSin
  0010d	a1 00 00 00 00	 mov	 eax, DWORD PTR ?m_TsfSink@CTsfUiLessMode@@1PAVCUIElementSink@1@A ; CTsfUiLessMode::m_TsfSink
  00112	8b 08		 mov	 ecx, DWORD PTR [eax]
  00114	8b f4		 mov	 esi, esp
  00116	8b 15 00 00 00
	00		 mov	 edx, DWORD PTR ?m_TsfSink@CTsfUiLessMode@@1PAVCUIElementSink@1@A ; CTsfUiLessMode::m_TsfSink
  0011c	52		 push	 edx
  0011d	8b 41 08	 mov	 eax, DWORD PTR [ecx+8]
  00120	ff d0		 call	 eax
  00122	3b f4		 cmp	 esi, esp
  00124	e8 00 00 00 00	 call	 __RTC_CheckEsp
  00129	c7 05 00 00 00
	00 00 00 00 00	 mov	 DWORD PTR ?m_TsfSink@CTsfUiLessMode@@1PAVCUIElementSink@1@A, 0 ; CTsfUiLessMode::m_TsfSink
$LN4@ReleaseSin:
; Line 2681
  00133	52		 push	 edx
  00134	8b cd		 mov	 ecx, ebp
  00136	50		 push	 eax
  00137	8d 15 00 00 00
	00		 lea	 edx, DWORD PTR $LN8@ReleaseSin
  0013d	e8 00 00 00 00	 call	 @_RTC_CheckStackVars@8
  00142	58		 pop	 eax
  00143	5a		 pop	 edx
  00144	5e		 pop	 esi
  00145	83 c4 10	 add	 esp, 16			; 00000010H
  00148	3b ec		 cmp	 ebp, esp
  0014a	e8 00 00 00 00	 call	 __RTC_CheckEsp
  0014f	8b e5		 mov	 esp, ebp
  00151	5d		 pop	 ebp
  00152	c3		 ret	 0
  00153	90		 npad	 1
$LN8@ReleaseSin:
  00154	01 00 00 00	 DD	 1
  00158	00 00 00 00	 DD	 $LN7@ReleaseSin
$LN7@ReleaseSin:
  0015c	f4 ff ff ff	 DD	 -12			; fffffff4H
  00160	04 00 00 00	 DD	 4
  00164	00 00 00 00	 DD	 $LN6@ReleaseSin
$LN6@ReleaseSin:
  00168	73		 DB	 115			; 00000073H
  00169	6f		 DB	 111			; 0000006fH
  0016a	75		 DB	 117			; 00000075H
  0016b	72		 DB	 114			; 00000072H
  0016c	63		 DB	 99			; 00000063H
  0016d	65		 DB	 101			; 00000065H
  0016e	00		 DB	 0
?ReleaseSinks@CTsfUiLessMode@@SAXXZ ENDP		; CTsfUiLessMode::ReleaseSinks
_TEXT	ENDS
; Function compile flags: /Odtp /RTCsu
_TEXT	SEGMENT
tv159 = -60						; size = 4
tv87 = -56						; size = 4
$T2 = -52						; size = 4
$T3 = -48						; size = 4
_srcTm$4 = -40						; size = 4
_bRc$ = -32						; size = 4
_cid$ = -24						; size = 4
_hr$ = -16						; size = 4
__$EHRec$ = -12						; size = 12
?SetupSinks@CTsfUiLessMode@@SAHXZ PROC			; CTsfUiLessMode::SetupSinks
; File d:\engine class\assignment 1\new scratch\dxut\optional\imeui.cpp
; Line 2615
  00000	55		 push	 ebp
  00001	8b ec		 mov	 ebp, esp
  00003	6a ff		 push	 -1
  00005	68 00 00 00 00	 push	 __ehhandler$?SetupSinks@CTsfUiLessMode@@SAHXZ
  0000a	64 a1 00 00 00
	00		 mov	 eax, DWORD PTR fs:0
  00010	50		 push	 eax
  00011	83 ec 30	 sub	 esp, 48			; 00000030H
  00014	56		 push	 esi
  00015	57		 push	 edi
  00016	8d 7d c4	 lea	 edi, DWORD PTR [ebp-60]
  00019	b9 0c 00 00 00	 mov	 ecx, 12			; 0000000cH
  0001e	b8 cc cc cc cc	 mov	 eax, -858993460		; ccccccccH
  00023	f3 ab		 rep stosd
  00025	a1 00 00 00 00	 mov	 eax, DWORD PTR ___security_cookie
  0002a	33 c5		 xor	 eax, ebp
  0002c	50		 push	 eax
  0002d	8d 45 f4	 lea	 eax, DWORD PTR __$EHRec$[ebp]
  00030	64 a3 00 00 00
	00		 mov	 DWORD PTR fs:0, eax
; Line 2622
  00036	8b f4		 mov	 esi, esp
  00038	68 00 00 00 00	 push	 OFFSET ?m_tm@CTsfUiLessMode@@1PAUITfThreadMgrEx@@A ; CTsfUiLessMode::m_tm
  0003d	68 00 00 00 00	 push	 OFFSET __GUID_3e90ade3_7594_4cb0_bb58_69628f5f458c
  00042	6a 01		 push	 1
  00044	6a 00		 push	 0
  00046	68 00 00 00 00	 push	 OFFSET _CLSID_TF_ThreadMgr
  0004b	ff 15 00 00 00
	00		 call	 DWORD PTR __imp__CoCreateInstance@20
  00051	3b f4		 cmp	 esi, esp
  00053	e8 00 00 00 00	 call	 __RTC_CheckEsp
  00058	89 45 f0	 mov	 DWORD PTR _hr$[ebp], eax
; Line 2624
  0005b	83 7d f0 00	 cmp	 DWORD PTR _hr$[ebp], 0
  0005f	74 07		 je	 SHORT $LN7@SetupSinks
; Line 2626
  00061	33 c0		 xor	 eax, eax
  00063	e9 6a 01 00 00	 jmp	 $LN8@SetupSinks
$LN7@SetupSinks:
; Line 2631
  00068	8b f4		 mov	 esi, esp
  0006a	6a 04		 push	 4
  0006c	8d 45 e8	 lea	 eax, DWORD PTR _cid$[ebp]
  0006f	50		 push	 eax
  00070	8b 0d 00 00 00
	00		 mov	 ecx, DWORD PTR ?m_tm@CTsfUiLessMode@@1PAUITfThreadMgrEx@@A ; CTsfUiLessMode::m_tm
  00076	8b 11		 mov	 edx, DWORD PTR [ecx]
  00078	a1 00 00 00 00	 mov	 eax, DWORD PTR ?m_tm@CTsfUiLessMode@@1PAUITfThreadMgrEx@@A ; CTsfUiLessMode::m_tm
  0007d	50		 push	 eax
  0007e	8b 4a 38	 mov	 ecx, DWORD PTR [edx+56]
  00081	ff d1		 call	 ecx
  00083	3b f4		 cmp	 esi, esp
  00085	e8 00 00 00 00	 call	 __RTC_CheckEsp
  0008a	85 c0		 test	 eax, eax
  0008c	7d 07		 jge	 SHORT $LN6@SetupSinks
; Line 2633
  0008e	33 c0		 xor	 eax, eax
  00090	e9 3d 01 00 00	 jmp	 $LN8@SetupSinks
$LN6@SetupSinks:
; Line 2637
  00095	c7 45 e0 00 00
	00 00		 mov	 DWORD PTR _bRc$[ebp], 0
; Line 2638
  0009c	68 00 00 00 00	 push	 OFFSET ?nothrow@std@@3Unothrow_t@1@B ; std::nothrow
  000a1	6a 10		 push	 16			; 00000010H
  000a3	e8 00 00 00 00	 call	 ??2@YAPAXIABUnothrow_t@std@@@Z ; operator new
  000a8	83 c4 08	 add	 esp, 8
  000ab	89 45 cc	 mov	 DWORD PTR $T2[ebp], eax
  000ae	c7 45 fc 00 00
	00 00		 mov	 DWORD PTR __$EHRec$[ebp+8], 0
  000b5	83 7d cc 00	 cmp	 DWORD PTR $T2[ebp], 0
  000b9	74 0d		 je	 SHORT $LN10@SetupSinks
  000bb	8b 4d cc	 mov	 ecx, DWORD PTR $T2[ebp]
  000be	e8 00 00 00 00	 call	 ??0CUIElementSink@CTsfUiLessMode@@QAE@XZ ; CTsfUiLessMode::CUIElementSink::CUIElementSink
  000c3	89 45 c8	 mov	 DWORD PTR tv87[ebp], eax
  000c6	eb 07		 jmp	 SHORT $LN11@SetupSinks
$LN10@SetupSinks:
  000c8	c7 45 c8 00 00
	00 00		 mov	 DWORD PTR tv87[ebp], 0
$LN11@SetupSinks:
  000cf	8b 55 c8	 mov	 edx, DWORD PTR tv87[ebp]
  000d2	89 55 d0	 mov	 DWORD PTR $T3[ebp], edx
  000d5	c7 45 fc ff ff
	ff ff		 mov	 DWORD PTR __$EHRec$[ebp+8], -1
  000dc	8b 45 d0	 mov	 eax, DWORD PTR $T3[ebp]
  000df	a3 00 00 00 00	 mov	 DWORD PTR ?m_TsfSink@CTsfUiLessMode@@1PAVCUIElementSink@1@A, eax ; CTsfUiLessMode::m_TsfSink
; Line 2639
  000e4	83 3d 00 00 00
	00 00		 cmp	 DWORD PTR ?m_TsfSink@CTsfUiLessMode@@1PAVCUIElementSink@1@A, 0 ; CTsfUiLessMode::m_TsfSink
  000eb	0f 84 de 00 00
	00		 je	 $LN5@SetupSinks
; Line 2642
  000f1	8b f4		 mov	 esi, esp
  000f3	8d 4d d8	 lea	 ecx, DWORD PTR _srcTm$4[ebp]
  000f6	51		 push	 ecx
  000f7	68 00 00 00 00	 push	 OFFSET __GUID_4ea48a35_60ae_446f_8fd6_e6a8d82459f7
  000fc	8b 15 00 00 00
	00		 mov	 edx, DWORD PTR ?m_tm@CTsfUiLessMode@@1PAUITfThreadMgrEx@@A ; CTsfUiLessMode::m_tm
  00102	8b 02		 mov	 eax, DWORD PTR [edx]
  00104	8b 0d 00 00 00
	00		 mov	 ecx, DWORD PTR ?m_tm@CTsfUiLessMode@@1PAUITfThreadMgrEx@@A ; CTsfUiLessMode::m_tm
  0010a	51		 push	 ecx
  0010b	8b 10		 mov	 edx, DWORD PTR [eax]
  0010d	ff d2		 call	 edx
  0010f	3b f4		 cmp	 esi, esp
  00111	e8 00 00 00 00	 call	 __RTC_CheckEsp
  00116	89 45 f0	 mov	 DWORD PTR _hr$[ebp], eax
  00119	83 7d f0 00	 cmp	 DWORD PTR _hr$[ebp], 0
  0011d	0f 8c ac 00 00
	00		 jl	 $LN5@SetupSinks
; Line 2646
  00123	8b f4		 mov	 esi, esp
  00125	68 00 00 00 00	 push	 OFFSET ?m_dwUIElementSinkCookie@CTsfUiLessMode@@1KA ; CTsfUiLessMode::m_dwUIElementSinkCookie
  0012a	a1 00 00 00 00	 mov	 eax, DWORD PTR ?m_TsfSink@CTsfUiLessMode@@1PAVCUIElementSink@1@A ; CTsfUiLessMode::m_TsfSink
  0012f	50		 push	 eax
  00130	68 00 00 00 00	 push	 OFFSET __GUID_ea1ea136_19df_11d7_a6d2_00065b84435c
  00135	8b 4d d8	 mov	 ecx, DWORD PTR _srcTm$4[ebp]
  00138	8b 11		 mov	 edx, DWORD PTR [ecx]
  0013a	8b 45 d8	 mov	 eax, DWORD PTR _srcTm$4[ebp]
  0013d	50		 push	 eax
  0013e	8b 4a 0c	 mov	 ecx, DWORD PTR [edx+12]
  00141	ff d1		 call	 ecx
  00143	3b f4		 cmp	 esi, esp
  00145	e8 00 00 00 00	 call	 __RTC_CheckEsp
  0014a	89 45 f0	 mov	 DWORD PTR _hr$[ebp], eax
  0014d	83 7d f0 00	 cmp	 DWORD PTR _hr$[ebp], 0
  00151	7c 65		 jl	 SHORT $LN3@SetupSinks
; Line 2651
  00153	83 3d 00 00 00
	00 00		 cmp	 DWORD PTR ?m_TsfSink@CTsfUiLessMode@@1PAVCUIElementSink@1@A, 0 ; CTsfUiLessMode::m_TsfSink
  0015a	74 0e		 je	 SHORT $LN12@SetupSinks
  0015c	8b 15 00 00 00
	00		 mov	 edx, DWORD PTR ?m_TsfSink@CTsfUiLessMode@@1PAVCUIElementSink@1@A ; CTsfUiLessMode::m_TsfSink
  00162	83 c2 04	 add	 edx, 4
  00165	89 55 c4	 mov	 DWORD PTR tv159[ebp], edx
  00168	eb 07		 jmp	 SHORT $LN13@SetupSinks
$LN12@SetupSinks:
  0016a	c7 45 c4 00 00
	00 00		 mov	 DWORD PTR tv159[ebp], 0
$LN13@SetupSinks:
  00171	8b f4		 mov	 esi, esp
  00173	68 00 00 00 00	 push	 OFFSET ?m_dwAlpnSinkCookie@CTsfUiLessMode@@1KA ; CTsfUiLessMode::m_dwAlpnSinkCookie
  00178	8b 45 c4	 mov	 eax, DWORD PTR tv159[ebp]
  0017b	50		 push	 eax
  0017c	68 00 00 00 00	 push	 OFFSET __GUID_71c6e74e_0f28_11d8_a82a_00065b84435c
  00181	8b 4d d8	 mov	 ecx, DWORD PTR _srcTm$4[ebp]
  00184	8b 11		 mov	 edx, DWORD PTR [ecx]
  00186	8b 45 d8	 mov	 eax, DWORD PTR _srcTm$4[ebp]
  00189	50		 push	 eax
  0018a	8b 4a 0c	 mov	 ecx, DWORD PTR [edx+12]
  0018d	ff d1		 call	 ecx
  0018f	3b f4		 cmp	 esi, esp
  00191	e8 00 00 00 00	 call	 __RTC_CheckEsp
  00196	89 45 f0	 mov	 DWORD PTR _hr$[ebp], eax
  00199	83 7d f0 00	 cmp	 DWORD PTR _hr$[ebp], 0
  0019d	7c 19		 jl	 SHORT $LN3@SetupSinks
; Line 2653
  0019f	6a 00		 push	 0
  001a1	6a 00		 push	 0
  001a3	6a 00		 push	 0
  001a5	e8 00 00 00 00	 call	 ?SetupCompartmentSinks@CTsfUiLessMode@@KAHHPAUITfCompartment@@0@Z ; CTsfUiLessMode::SetupCompartmentSinks
  001aa	83 c4 0c	 add	 esp, 12			; 0000000cH
  001ad	85 c0		 test	 eax, eax
  001af	74 07		 je	 SHORT $LN3@SetupSinks
; Line 2655
  001b1	c7 45 e0 01 00
	00 00		 mov	 DWORD PTR _bRc$[ebp], 1
$LN3@SetupSinks:
; Line 2659
  001b8	8b 55 d8	 mov	 edx, DWORD PTR _srcTm$4[ebp]
  001bb	8b 02		 mov	 eax, DWORD PTR [edx]
  001bd	8b f4		 mov	 esi, esp
  001bf	8b 4d d8	 mov	 ecx, DWORD PTR _srcTm$4[ebp]
  001c2	51		 push	 ecx
  001c3	8b 50 08	 mov	 edx, DWORD PTR [eax+8]
  001c6	ff d2		 call	 edx
  001c8	3b f4		 cmp	 esi, esp
  001ca	e8 00 00 00 00	 call	 __RTC_CheckEsp
$LN5@SetupSinks:
; Line 2662
  001cf	8b 45 e0	 mov	 eax, DWORD PTR _bRc$[ebp]
$LN8@SetupSinks:
; Line 2663
  001d2	52		 push	 edx
  001d3	8b cd		 mov	 ecx, ebp
  001d5	50		 push	 eax
  001d6	8d 15 00 00 00
	00		 lea	 edx, DWORD PTR $LN19@SetupSinks
  001dc	e8 00 00 00 00	 call	 @_RTC_CheckStackVars@8
  001e1	58		 pop	 eax
  001e2	5a		 pop	 edx
  001e3	8b 4d f4	 mov	 ecx, DWORD PTR __$EHRec$[ebp]
  001e6	64 89 0d 00 00
	00 00		 mov	 DWORD PTR fs:0, ecx
  001ed	59		 pop	 ecx
  001ee	5f		 pop	 edi
  001ef	5e		 pop	 esi
  001f0	83 c4 3c	 add	 esp, 60			; 0000003cH
  001f3	3b ec		 cmp	 ebp, esp
  001f5	e8 00 00 00 00	 call	 __RTC_CheckEsp
  001fa	8b e5		 mov	 esp, ebp
  001fc	5d		 pop	 ebp
  001fd	c3		 ret	 0
  001fe	8b ff		 npad	 2
$LN19@SetupSinks:
  00200	02 00 00 00	 DD	 2
  00204	00 00 00 00	 DD	 $LN18@SetupSinks
$LN18@SetupSinks:
  00208	e8 ff ff ff	 DD	 -24			; ffffffe8H
  0020c	04 00 00 00	 DD	 4
  00210	00 00 00 00	 DD	 $LN15@SetupSinks
  00214	d8 ff ff ff	 DD	 -40			; ffffffd8H
  00218	04 00 00 00	 DD	 4
  0021c	00 00 00 00	 DD	 $LN16@SetupSinks
$LN16@SetupSinks:
  00220	73		 DB	 115			; 00000073H
  00221	72		 DB	 114			; 00000072H
  00222	63		 DB	 99			; 00000063H
  00223	54		 DB	 84			; 00000054H
  00224	6d		 DB	 109			; 0000006dH
  00225	00		 DB	 0
$LN15@SetupSinks:
  00226	63		 DB	 99			; 00000063H
  00227	69		 DB	 105			; 00000069H
  00228	64		 DB	 100			; 00000064H
  00229	00		 DB	 0
_TEXT	ENDS
text$x	SEGMENT
__unwindfunclet$?SetupSinks@CTsfUiLessMode@@SAHXZ$0:
  00000	68 00 00 00 00	 push	 OFFSET ?nothrow@std@@3Unothrow_t@1@B ; std::nothrow
  00005	8b 45 cc	 mov	 eax, DWORD PTR $T2[ebp]
  00008	50		 push	 eax
  00009	e8 00 00 00 00	 call	 ??3@YAXPAXABUnothrow_t@std@@@Z ; operator delete
  0000e	83 c4 08	 add	 esp, 8
  00011	c3		 ret	 0
__ehhandler$?SetupSinks@CTsfUiLessMode@@SAHXZ:
  00012	8b 54 24 08	 mov	 edx, DWORD PTR [esp+8]
  00016	8d 42 0c	 lea	 eax, DWORD PTR [edx+12]
  00019	8b 4a c4	 mov	 ecx, DWORD PTR [edx-60]
  0001c	33 c8		 xor	 ecx, eax
  0001e	e8 00 00 00 00	 call	 @__security_check_cookie@4
  00023	b8 00 00 00 00	 mov	 eax, OFFSET __ehfuncinfo$?SetupSinks@CTsfUiLessMode@@SAHXZ
  00028	e9 00 00 00 00	 jmp	 ___CxxFrameHandler3
text$x	ENDS
?SetupSinks@CTsfUiLessMode@@SAHXZ ENDP			; CTsfUiLessMode::SetupSinks
; Function compile flags: /Odtp /RTCsu
_TEXT	SEGMENT
tv167 = -56						; size = 4
tv132 = -52						; size = 4
_srcConvMode$1 = -44					; size = 4
_srcOpenMode$ = -32					; size = 4
_hr$ = -24						; size = 4
_bRc$ = -20						; size = 4
_pcm$ = -12						; size = 4
_bLocalCompartments$ = -1				; size = 1
_bRemoveOnly$ = 8					; size = 4
_pTfOpenMode$ = 12					; size = 4
_pTfConvMode$ = 16					; size = 4
?SetupCompartmentSinks@CTsfUiLessMode@@KAHHPAUITfCompartment@@0@Z PROC ; CTsfUiLessMode::SetupCompartmentSinks
; File d:\engine class\assignment 1\new scratch\dxut\optional\imeui.cpp
; Line 3118
  00000	55		 push	 ebp
  00001	8b ec		 mov	 ebp, esp
  00003	83 ec 38	 sub	 esp, 56			; 00000038H
  00006	56		 push	 esi
  00007	57		 push	 edi
  00008	8d 7d c8	 lea	 edi, DWORD PTR [ebp-56]
  0000b	b9 0e 00 00 00	 mov	 ecx, 14			; 0000000eH
  00010	b8 cc cc cc cc	 mov	 eax, -858993460		; ccccccccH
  00015	f3 ab		 rep stosd
; Line 3119
  00017	c6 45 ff 00	 mov	 BYTE PTR _bLocalCompartments$[ebp], 0
; Line 3120
  0001b	c7 45 f4 00 00
	00 00		 mov	 DWORD PTR _pcm$[ebp], 0
; Line 3121
  00022	c7 45 ec 00 00
	00 00		 mov	 DWORD PTR _bRc$[ebp], 0
; Line 3122
  00029	c7 45 e8 05 40
	00 80		 mov	 DWORD PTR _hr$[ebp], -2147467259 ; 80004005H
; Line 3124
  00030	83 7d 0c 00	 cmp	 DWORD PTR _pTfOpenMode$[ebp], 0
  00034	75 1e		 jne	 SHORT $LN12@SetupCompa
  00036	83 7d 10 00	 cmp	 DWORD PTR _pTfConvMode$[ebp], 0
  0003a	75 18		 jne	 SHORT $LN12@SetupCompa
; Line 3126
  0003c	c6 45 ff 01	 mov	 BYTE PTR _bLocalCompartments$[ebp], 1
; Line 3127
  00040	8d 45 10	 lea	 eax, DWORD PTR _pTfConvMode$[ebp]
  00043	50		 push	 eax
  00044	8d 4d 0c	 lea	 ecx, DWORD PTR _pTfOpenMode$[ebp]
  00047	51		 push	 ecx
  00048	8d 55 f4	 lea	 edx, DWORD PTR _pcm$[ebp]
  0004b	52		 push	 edx
  0004c	e8 00 00 00 00	 call	 ?GetCompartments@CTsfUiLessMode@@KAHPAPAUITfCompartmentMgr@@PAPAUITfCompartment@@1@Z ; CTsfUiLessMode::GetCompartments
  00051	83 c4 0c	 add	 esp, 12			; 0000000cH
$LN12@SetupCompa:
; Line 3129
  00054	83 7d 0c 00	 cmp	 DWORD PTR _pTfOpenMode$[ebp], 0
  00058	74 06		 je	 SHORT $LN10@SetupCompa
  0005a	83 7d 10 00	 cmp	 DWORD PTR _pTfConvMode$[ebp], 0
  0005e	75 07		 jne	 SHORT $LN11@SetupCompa
$LN10@SetupCompa:
; Line 3132
  00060	33 c0		 xor	 eax, eax
  00062	e9 f4 01 00 00	 jmp	 $LN13@SetupCompa
$LN11@SetupCompa:
; Line 3134
  00067	c7 45 e0 00 00
	00 00		 mov	 DWORD PTR _srcOpenMode$[ebp], 0
; Line 3135
  0006e	8b f4		 mov	 esi, esp
  00070	8d 45 e0	 lea	 eax, DWORD PTR _srcOpenMode$[ebp]
  00073	50		 push	 eax
  00074	68 00 00 00 00	 push	 OFFSET _IID_ITfSource
  00079	8b 4d 0c	 mov	 ecx, DWORD PTR _pTfOpenMode$[ebp]
  0007c	8b 11		 mov	 edx, DWORD PTR [ecx]
  0007e	8b 45 0c	 mov	 eax, DWORD PTR _pTfOpenMode$[ebp]
  00081	50		 push	 eax
  00082	8b 0a		 mov	 ecx, DWORD PTR [edx]
  00084	ff d1		 call	 ecx
  00086	3b f4		 cmp	 esi, esp
  00088	e8 00 00 00 00	 call	 __RTC_CheckEsp
  0008d	89 45 e8	 mov	 DWORD PTR _hr$[ebp], eax
  00090	83 7d e8 00	 cmp	 DWORD PTR _hr$[ebp], 0
  00094	0f 8c 71 01 00
	00		 jl	 $LN9@SetupCompa
; Line 3138
  0009a	83 3d 00 00 00
	00 ff		 cmp	 DWORD PTR ?m_dwOpenModeSinkCookie@CTsfUiLessMode@@1KA, -1 ; CTsfUiLessMode::m_dwOpenModeSinkCookie
  000a1	74 28		 je	 SHORT $LN8@SetupCompa
; Line 3140
  000a3	8b f4		 mov	 esi, esp
  000a5	8b 15 00 00 00
	00		 mov	 edx, DWORD PTR ?m_dwOpenModeSinkCookie@CTsfUiLessMode@@1KA ; CTsfUiLessMode::m_dwOpenModeSinkCookie
  000ab	52		 push	 edx
  000ac	8b 45 e0	 mov	 eax, DWORD PTR _srcOpenMode$[ebp]
  000af	8b 08		 mov	 ecx, DWORD PTR [eax]
  000b1	8b 55 e0	 mov	 edx, DWORD PTR _srcOpenMode$[ebp]
  000b4	52		 push	 edx
  000b5	8b 41 10	 mov	 eax, DWORD PTR [ecx+16]
  000b8	ff d0		 call	 eax
  000ba	3b f4		 cmp	 esi, esp
  000bc	e8 00 00 00 00	 call	 __RTC_CheckEsp
; Line 3141
  000c1	c7 05 00 00 00
	00 ff ff ff ff	 mov	 DWORD PTR ?m_dwOpenModeSinkCookie@CTsfUiLessMode@@1KA, -1 ; CTsfUiLessMode::m_dwOpenModeSinkCookie
$LN8@SetupCompa:
; Line 3146
  000cb	83 7d 08 00	 cmp	 DWORD PTR _bRemoveOnly$[ebp], 0
  000cf	75 50		 jne	 SHORT $LN6@SetupCompa
  000d1	83 3d 00 00 00
	00 00		 cmp	 DWORD PTR ?m_TsfSink@CTsfUiLessMode@@1PAVCUIElementSink@1@A, 0 ; CTsfUiLessMode::m_TsfSink
  000d8	74 0e		 je	 SHORT $LN15@SetupCompa
  000da	8b 0d 00 00 00
	00		 mov	 ecx, DWORD PTR ?m_TsfSink@CTsfUiLessMode@@1PAVCUIElementSink@1@A ; CTsfUiLessMode::m_TsfSink
  000e0	83 c1 08	 add	 ecx, 8
  000e3	89 4d cc	 mov	 DWORD PTR tv132[ebp], ecx
  000e6	eb 07		 jmp	 SHORT $LN16@SetupCompa
$LN15@SetupCompa:
  000e8	c7 45 cc 00 00
	00 00		 mov	 DWORD PTR tv132[ebp], 0
$LN16@SetupCompa:
  000ef	8b f4		 mov	 esi, esp
  000f1	68 00 00 00 00	 push	 OFFSET ?m_dwOpenModeSinkCookie@CTsfUiLessMode@@1KA ; CTsfUiLessMode::m_dwOpenModeSinkCookie
  000f6	8b 55 cc	 mov	 edx, DWORD PTR tv132[ebp]
  000f9	52		 push	 edx
  000fa	68 00 00 00 00	 push	 OFFSET _IID_ITfCompartmentEventSink
  000ff	8b 45 e0	 mov	 eax, DWORD PTR _srcOpenMode$[ebp]
  00102	8b 08		 mov	 ecx, DWORD PTR [eax]
  00104	8b 55 e0	 mov	 edx, DWORD PTR _srcOpenMode$[ebp]
  00107	52		 push	 edx
  00108	8b 41 0c	 mov	 eax, DWORD PTR [ecx+12]
  0010b	ff d0		 call	 eax
  0010d	3b f4		 cmp	 esi, esp
  0010f	e8 00 00 00 00	 call	 __RTC_CheckEsp
  00114	89 45 e8	 mov	 DWORD PTR _hr$[ebp], eax
  00117	83 7d e8 00	 cmp	 DWORD PTR _hr$[ebp], 0
  0011b	0f 8c d3 00 00
	00		 jl	 $LN7@SetupCompa
$LN6@SetupCompa:
; Line 3148
  00121	c7 45 d4 00 00
	00 00		 mov	 DWORD PTR _srcConvMode$1[ebp], 0
; Line 3149
  00128	8b f4		 mov	 esi, esp
  0012a	8d 4d d4	 lea	 ecx, DWORD PTR _srcConvMode$1[ebp]
  0012d	51		 push	 ecx
  0012e	68 00 00 00 00	 push	 OFFSET _IID_ITfSource
  00133	8b 55 10	 mov	 edx, DWORD PTR _pTfConvMode$[ebp]
  00136	8b 02		 mov	 eax, DWORD PTR [edx]
  00138	8b 4d 10	 mov	 ecx, DWORD PTR _pTfConvMode$[ebp]
  0013b	51		 push	 ecx
  0013c	8b 10		 mov	 edx, DWORD PTR [eax]
  0013e	ff d2		 call	 edx
  00140	3b f4		 cmp	 esi, esp
  00142	e8 00 00 00 00	 call	 __RTC_CheckEsp
  00147	89 45 e8	 mov	 DWORD PTR _hr$[ebp], eax
  0014a	83 7d e8 00	 cmp	 DWORD PTR _hr$[ebp], 0
  0014e	0f 8c a0 00 00
	00		 jl	 $LN7@SetupCompa
; Line 3152
  00154	83 3d 00 00 00
	00 ff		 cmp	 DWORD PTR ?m_dwConvModeSinkCookie@CTsfUiLessMode@@1KA, -1 ; CTsfUiLessMode::m_dwConvModeSinkCookie
  0015b	74 27		 je	 SHORT $LN4@SetupCompa
; Line 3154
  0015d	8b f4		 mov	 esi, esp
  0015f	a1 00 00 00 00	 mov	 eax, DWORD PTR ?m_dwConvModeSinkCookie@CTsfUiLessMode@@1KA ; CTsfUiLessMode::m_dwConvModeSinkCookie
  00164	50		 push	 eax
  00165	8b 4d d4	 mov	 ecx, DWORD PTR _srcConvMode$1[ebp]
  00168	8b 11		 mov	 edx, DWORD PTR [ecx]
  0016a	8b 45 d4	 mov	 eax, DWORD PTR _srcConvMode$1[ebp]
  0016d	50		 push	 eax
  0016e	8b 4a 10	 mov	 ecx, DWORD PTR [edx+16]
  00171	ff d1		 call	 ecx
  00173	3b f4		 cmp	 esi, esp
  00175	e8 00 00 00 00	 call	 __RTC_CheckEsp
; Line 3155
  0017a	c7 05 00 00 00
	00 ff ff ff ff	 mov	 DWORD PTR ?m_dwConvModeSinkCookie@CTsfUiLessMode@@1KA, -1 ; CTsfUiLessMode::m_dwConvModeSinkCookie
$LN4@SetupCompa:
; Line 3160
  00184	83 7d 08 00	 cmp	 DWORD PTR _bRemoveOnly$[ebp], 0
  00188	75 4c		 jne	 SHORT $LN2@SetupCompa
  0018a	83 3d 00 00 00
	00 00		 cmp	 DWORD PTR ?m_TsfSink@CTsfUiLessMode@@1PAVCUIElementSink@1@A, 0 ; CTsfUiLessMode::m_TsfSink
  00191	74 0e		 je	 SHORT $LN17@SetupCompa
  00193	8b 15 00 00 00
	00		 mov	 edx, DWORD PTR ?m_TsfSink@CTsfUiLessMode@@1PAVCUIElementSink@1@A ; CTsfUiLessMode::m_TsfSink
  00199	83 c2 08	 add	 edx, 8
  0019c	89 55 c8	 mov	 DWORD PTR tv167[ebp], edx
  0019f	eb 07		 jmp	 SHORT $LN18@SetupCompa
$LN17@SetupCompa:
  001a1	c7 45 c8 00 00
	00 00		 mov	 DWORD PTR tv167[ebp], 0
$LN18@SetupCompa:
  001a8	8b f4		 mov	 esi, esp
  001aa	68 00 00 00 00	 push	 OFFSET ?m_dwConvModeSinkCookie@CTsfUiLessMode@@1KA ; CTsfUiLessMode::m_dwConvModeSinkCookie
  001af	8b 45 c8	 mov	 eax, DWORD PTR tv167[ebp]
  001b2	50		 push	 eax
  001b3	68 00 00 00 00	 push	 OFFSET _IID_ITfCompartmentEventSink
  001b8	8b 4d d4	 mov	 ecx, DWORD PTR _srcConvMode$1[ebp]
  001bb	8b 11		 mov	 edx, DWORD PTR [ecx]
  001bd	8b 45 d4	 mov	 eax, DWORD PTR _srcConvMode$1[ebp]
  001c0	50		 push	 eax
  001c1	8b 4a 0c	 mov	 ecx, DWORD PTR [edx+12]
  001c4	ff d1		 call	 ecx
  001c6	3b f4		 cmp	 esi, esp
  001c8	e8 00 00 00 00	 call	 __RTC_CheckEsp
  001cd	89 45 e8	 mov	 DWORD PTR _hr$[ebp], eax
  001d0	83 7d e8 00	 cmp	 DWORD PTR _hr$[ebp], 0
  001d4	7c 07		 jl	 SHORT $LN3@SetupCompa
$LN2@SetupCompa:
; Line 3162
  001d6	c7 45 ec 01 00
	00 00		 mov	 DWORD PTR _bRc$[ebp], 1
$LN3@SetupCompa:
; Line 3164
  001dd	8b 55 d4	 mov	 edx, DWORD PTR _srcConvMode$1[ebp]
  001e0	8b 02		 mov	 eax, DWORD PTR [edx]
  001e2	8b f4		 mov	 esi, esp
  001e4	8b 4d d4	 mov	 ecx, DWORD PTR _srcConvMode$1[ebp]
  001e7	51		 push	 ecx
  001e8	8b 50 08	 mov	 edx, DWORD PTR [eax+8]
  001eb	ff d2		 call	 edx
  001ed	3b f4		 cmp	 esi, esp
  001ef	e8 00 00 00 00	 call	 __RTC_CheckEsp
$LN7@SetupCompa:
; Line 3167
  001f4	8b 45 e0	 mov	 eax, DWORD PTR _srcOpenMode$[ebp]
  001f7	8b 08		 mov	 ecx, DWORD PTR [eax]
  001f9	8b f4		 mov	 esi, esp
  001fb	8b 55 e0	 mov	 edx, DWORD PTR _srcOpenMode$[ebp]
  001fe	52		 push	 edx
  001ff	8b 41 08	 mov	 eax, DWORD PTR [ecx+8]
  00202	ff d0		 call	 eax
  00204	3b f4		 cmp	 esi, esp
  00206	e8 00 00 00 00	 call	 __RTC_CheckEsp
$LN9@SetupCompa:
; Line 3169
  0020b	0f b6 4d ff	 movzx	 ecx, BYTE PTR _bLocalCompartments$[ebp]
  0020f	85 c9		 test	 ecx, ecx
  00211	74 45		 je	 SHORT $LN1@SetupCompa
; Line 3171
  00213	8b 55 0c	 mov	 edx, DWORD PTR _pTfOpenMode$[ebp]
  00216	8b 02		 mov	 eax, DWORD PTR [edx]
  00218	8b f4		 mov	 esi, esp
  0021a	8b 4d 0c	 mov	 ecx, DWORD PTR _pTfOpenMode$[ebp]
  0021d	51		 push	 ecx
  0021e	8b 50 08	 mov	 edx, DWORD PTR [eax+8]
  00221	ff d2		 call	 edx
  00223	3b f4		 cmp	 esi, esp
  00225	e8 00 00 00 00	 call	 __RTC_CheckEsp
; Line 3172
  0022a	8b 45 10	 mov	 eax, DWORD PTR _pTfConvMode$[ebp]
  0022d	8b 08		 mov	 ecx, DWORD PTR [eax]
  0022f	8b f4		 mov	 esi, esp
  00231	8b 55 10	 mov	 edx, DWORD PTR _pTfConvMode$[ebp]
  00234	52		 push	 edx
  00235	8b 41 08	 mov	 eax, DWORD PTR [ecx+8]
  00238	ff d0		 call	 eax
  0023a	3b f4		 cmp	 esi, esp
  0023c	e8 00 00 00 00	 call	 __RTC_CheckEsp
; Line 3173
  00241	8b 4d f4	 mov	 ecx, DWORD PTR _pcm$[ebp]
  00244	8b 11		 mov	 edx, DWORD PTR [ecx]
  00246	8b f4		 mov	 esi, esp
  00248	8b 45 f4	 mov	 eax, DWORD PTR _pcm$[ebp]
  0024b	50		 push	 eax
  0024c	8b 4a 08	 mov	 ecx, DWORD PTR [edx+8]
  0024f	ff d1		 call	 ecx
  00251	3b f4		 cmp	 esi, esp
  00253	e8 00 00 00 00	 call	 __RTC_CheckEsp
$LN1@SetupCompa:
; Line 3175
  00258	8b 45 ec	 mov	 eax, DWORD PTR _bRc$[ebp]
$LN13@SetupCompa:
; Line 3176
  0025b	52		 push	 edx
  0025c	8b cd		 mov	 ecx, ebp
  0025e	50		 push	 eax
  0025f	8d 15 00 00 00
	00		 lea	 edx, DWORD PTR $LN23@SetupCompa
  00265	e8 00 00 00 00	 call	 @_RTC_CheckStackVars@8
  0026a	58		 pop	 eax
  0026b	5a		 pop	 edx
  0026c	5f		 pop	 edi
  0026d	5e		 pop	 esi
  0026e	83 c4 38	 add	 esp, 56			; 00000038H
  00271	3b ec		 cmp	 ebp, esp
  00273	e8 00 00 00 00	 call	 __RTC_CheckEsp
  00278	8b e5		 mov	 esp, ebp
  0027a	5d		 pop	 ebp
  0027b	c3		 ret	 0
$LN23@SetupCompa:
  0027c	03 00 00 00	 DD	 3
  00280	00 00 00 00	 DD	 $LN22@SetupCompa
$LN22@SetupCompa:
  00284	f4 ff ff ff	 DD	 -12			; fffffff4H
  00288	04 00 00 00	 DD	 4
  0028c	00 00 00 00	 DD	 $LN19@SetupCompa
  00290	e0 ff ff ff	 DD	 -32			; ffffffe0H
  00294	04 00 00 00	 DD	 4
  00298	00 00 00 00	 DD	 $LN20@SetupCompa
  0029c	d4 ff ff ff	 DD	 -44			; ffffffd4H
  002a0	04 00 00 00	 DD	 4
  002a4	00 00 00 00	 DD	 $LN21@SetupCompa
$LN21@SetupCompa:
  002a8	73		 DB	 115			; 00000073H
  002a9	72		 DB	 114			; 00000072H
  002aa	63		 DB	 99			; 00000063H
  002ab	43		 DB	 67			; 00000043H
  002ac	6f		 DB	 111			; 0000006fH
  002ad	6e		 DB	 110			; 0000006eH
  002ae	76		 DB	 118			; 00000076H
  002af	4d		 DB	 77			; 0000004dH
  002b0	6f		 DB	 111			; 0000006fH
  002b1	64		 DB	 100			; 00000064H
  002b2	65		 DB	 101			; 00000065H
  002b3	00		 DB	 0
$LN20@SetupCompa:
  002b4	73		 DB	 115			; 00000073H
  002b5	72		 DB	 114			; 00000072H
  002b6	63		 DB	 99			; 00000063H
  002b7	4f		 DB	 79			; 0000004fH
  002b8	70		 DB	 112			; 00000070H
  002b9	65		 DB	 101			; 00000065H
  002ba	6e		 DB	 110			; 0000006eH
  002bb	4d		 DB	 77			; 0000004dH
  002bc	6f		 DB	 111			; 0000006fH
  002bd	64		 DB	 100			; 00000064H
  002be	65		 DB	 101			; 00000065H
  002bf	00		 DB	 0
$LN19@SetupCompa:
  002c0	70		 DB	 112			; 00000070H
  002c1	63		 DB	 99			; 00000063H
  002c2	6d		 DB	 109			; 0000006dH
  002c3	00		 DB	 0
?SetupCompartmentSinks@CTsfUiLessMode@@KAHHPAUITfCompartment@@0@Z ENDP ; CTsfUiLessMode::SetupCompartmentSinks
_TEXT	ENDS
; Function compile flags: /Odtp /RTCsu
_TEXT	SEGMENT
_hr$ = -40						; size = 4
_pTfConvMode$ = -32					; size = 4
_pTfOpenMode$ = -20					; size = 4
_pcm$ = -8						; size = 4
_ppcm$ = 8						; size = 4
_ppTfOpenMode$ = 12					; size = 4
_ppTfConvMode$ = 16					; size = 4
?GetCompartments@CTsfUiLessMode@@KAHPAPAUITfCompartmentMgr@@PAPAUITfCompartment@@1@Z PROC ; CTsfUiLessMode::GetCompartments
; File d:\engine class\assignment 1\new scratch\dxut\optional\imeui.cpp
; Line 3082
  00000	55		 push	 ebp
  00001	8b ec		 mov	 ebp, esp
  00003	83 ec 28	 sub	 esp, 40			; 00000028H
  00006	56		 push	 esi
  00007	57		 push	 edi
  00008	8d 7d d8	 lea	 edi, DWORD PTR [ebp-40]
  0000b	b9 0a 00 00 00	 mov	 ecx, 10			; 0000000aH
  00010	b8 cc cc cc cc	 mov	 eax, -858993460		; ccccccccH
  00015	f3 ab		 rep stosd
; Line 3083
  00017	c7 45 f8 00 00
	00 00		 mov	 DWORD PTR _pcm$[ebp], 0
; Line 3084
  0001e	c7 45 ec 00 00
	00 00		 mov	 DWORD PTR _pTfOpenMode$[ebp], 0
; Line 3085
  00025	c7 45 e0 00 00
	00 00		 mov	 DWORD PTR _pTfConvMode$[ebp], 0
; Line 3093
  0002c	8b f4		 mov	 esi, esp
  0002e	8d 45 f8	 lea	 eax, DWORD PTR _pcm$[ebp]
  00031	50		 push	 eax
  00032	68 00 00 00 00	 push	 OFFSET _IID_ITfCompartmentMgr
  00037	8b 0d 00 00 00
	00		 mov	 ecx, DWORD PTR ?m_tm@CTsfUiLessMode@@1PAUITfThreadMgrEx@@A ; CTsfUiLessMode::m_tm
  0003d	8b 11		 mov	 edx, DWORD PTR [ecx]
  0003f	a1 00 00 00 00	 mov	 eax, DWORD PTR ?m_tm@CTsfUiLessMode@@1PAUITfThreadMgrEx@@A ; CTsfUiLessMode::m_tm
  00044	50		 push	 eax
  00045	8b 0a		 mov	 ecx, DWORD PTR [edx]
  00047	ff d1		 call	 ecx
  00049	3b f4		 cmp	 esi, esp
  0004b	e8 00 00 00 00	 call	 __RTC_CheckEsp
  00050	89 45 d8	 mov	 DWORD PTR _hr$[ebp], eax
  00053	83 7d d8 00	 cmp	 DWORD PTR _hr$[ebp], 0
  00057	0f 8c 9f 00 00
	00		 jl	 $LN3@GetCompart
; Line 3095
  0005d	8b f4		 mov	 esi, esp
  0005f	8d 55 ec	 lea	 edx, DWORD PTR _pTfOpenMode$[ebp]
  00062	52		 push	 edx
  00063	68 00 00 00 00	 push	 OFFSET _GUID_COMPARTMENT_KEYBOARD_OPENCLOSE
  00068	8b 45 f8	 mov	 eax, DWORD PTR _pcm$[ebp]
  0006b	8b 08		 mov	 ecx, DWORD PTR [eax]
  0006d	8b 55 f8	 mov	 edx, DWORD PTR _pcm$[ebp]
  00070	52		 push	 edx
  00071	8b 41 0c	 mov	 eax, DWORD PTR [ecx+12]
  00074	ff d0		 call	 eax
  00076	3b f4		 cmp	 esi, esp
  00078	e8 00 00 00 00	 call	 __RTC_CheckEsp
  0007d	89 45 d8	 mov	 DWORD PTR _hr$[ebp], eax
  00080	83 7d d8 00	 cmp	 DWORD PTR _hr$[ebp], 0
  00084	7c 5f		 jl	 SHORT $LN2@GetCompart
; Line 3098
  00086	8b f4		 mov	 esi, esp
  00088	8d 4d e0	 lea	 ecx, DWORD PTR _pTfConvMode$[ebp]
  0008b	51		 push	 ecx
  0008c	68 00 00 00 00	 push	 OFFSET ?_GUID_COMPARTMENT_KEYBOARD_INPUTMODE_CONVERSION@?1??GetCompartments@CTsfUiLessMode@@KAHPAPAUITfCompartmentMgr@@PAPAUITfCompartment@@1@Z@4U_GUID@@A
  00091	8b 55 f8	 mov	 edx, DWORD PTR _pcm$[ebp]
  00094	8b 02		 mov	 eax, DWORD PTR [edx]
  00096	8b 4d f8	 mov	 ecx, DWORD PTR _pcm$[ebp]
  00099	51		 push	 ecx
  0009a	8b 50 0c	 mov	 edx, DWORD PTR [eax+12]
  0009d	ff d2		 call	 edx
  0009f	3b f4		 cmp	 esi, esp
  000a1	e8 00 00 00 00	 call	 __RTC_CheckEsp
  000a6	89 45 d8	 mov	 DWORD PTR _hr$[ebp], eax
  000a9	83 7d d8 00	 cmp	 DWORD PTR _hr$[ebp], 0
  000ad	7c 1f		 jl	 SHORT $LN1@GetCompart
; Line 3100
  000af	8b 45 08	 mov	 eax, DWORD PTR _ppcm$[ebp]
  000b2	8b 4d f8	 mov	 ecx, DWORD PTR _pcm$[ebp]
  000b5	89 08		 mov	 DWORD PTR [eax], ecx
; Line 3101
  000b7	8b 55 0c	 mov	 edx, DWORD PTR _ppTfOpenMode$[ebp]
  000ba	8b 45 ec	 mov	 eax, DWORD PTR _pTfOpenMode$[ebp]
  000bd	89 02		 mov	 DWORD PTR [edx], eax
; Line 3102
  000bf	8b 4d 10	 mov	 ecx, DWORD PTR _ppTfConvMode$[ebp]
  000c2	8b 55 e0	 mov	 edx, DWORD PTR _pTfConvMode$[ebp]
  000c5	89 11		 mov	 DWORD PTR [ecx], edx
; Line 3103
  000c7	b8 01 00 00 00	 mov	 eax, 1
  000cc	eb 30		 jmp	 SHORT $LN4@GetCompart
$LN1@GetCompart:
; Line 3105
  000ce	8b 45 ec	 mov	 eax, DWORD PTR _pTfOpenMode$[ebp]
  000d1	8b 08		 mov	 ecx, DWORD PTR [eax]
  000d3	8b f4		 mov	 esi, esp
  000d5	8b 55 ec	 mov	 edx, DWORD PTR _pTfOpenMode$[ebp]
  000d8	52		 push	 edx
  000d9	8b 41 08	 mov	 eax, DWORD PTR [ecx+8]
  000dc	ff d0		 call	 eax
  000de	3b f4		 cmp	 esi, esp
  000e0	e8 00 00 00 00	 call	 __RTC_CheckEsp
$LN2@GetCompart:
; Line 3107
  000e5	8b 4d f8	 mov	 ecx, DWORD PTR _pcm$[ebp]
  000e8	8b 11		 mov	 edx, DWORD PTR [ecx]
  000ea	8b f4		 mov	 esi, esp
  000ec	8b 45 f8	 mov	 eax, DWORD PTR _pcm$[ebp]
  000ef	50		 push	 eax
  000f0	8b 4a 08	 mov	 ecx, DWORD PTR [edx+8]
  000f3	ff d1		 call	 ecx
  000f5	3b f4		 cmp	 esi, esp
  000f7	e8 00 00 00 00	 call	 __RTC_CheckEsp
$LN3@GetCompart:
; Line 3109
  000fc	33 c0		 xor	 eax, eax
$LN4@GetCompart:
; Line 3110
  000fe	52		 push	 edx
  000ff	8b cd		 mov	 ecx, ebp
  00101	50		 push	 eax
  00102	8d 15 00 00 00
	00		 lea	 edx, DWORD PTR $LN10@GetCompart
  00108	e8 00 00 00 00	 call	 @_RTC_CheckStackVars@8
  0010d	58		 pop	 eax
  0010e	5a		 pop	 edx
  0010f	5f		 pop	 edi
  00110	5e		 pop	 esi
  00111	83 c4 28	 add	 esp, 40			; 00000028H
  00114	3b ec		 cmp	 ebp, esp
  00116	e8 00 00 00 00	 call	 __RTC_CheckEsp
  0011b	8b e5		 mov	 esp, ebp
  0011d	5d		 pop	 ebp
  0011e	c3		 ret	 0
  0011f	90		 npad	 1
$LN10@GetCompart:
  00120	03 00 00 00	 DD	 3
  00124	00 00 00 00	 DD	 $LN9@GetCompart
$LN9@GetCompart:
  00128	f8 ff ff ff	 DD	 -8			; fffffff8H
  0012c	04 00 00 00	 DD	 4
  00130	00 00 00 00	 DD	 $LN6@GetCompart
  00134	ec ff ff ff	 DD	 -20			; ffffffecH
  00138	04 00 00 00	 DD	 4
  0013c	00 00 00 00	 DD	 $LN7@GetCompart
  00140	e0 ff ff ff	 DD	 -32			; ffffffe0H
  00144	04 00 00 00	 DD	 4
  00148	00 00 00 00	 DD	 $LN8@GetCompart
$LN8@GetCompart:
  0014c	70		 DB	 112			; 00000070H
  0014d	54		 DB	 84			; 00000054H
  0014e	66		 DB	 102			; 00000066H
  0014f	43		 DB	 67			; 00000043H
  00150	6f		 DB	 111			; 0000006fH
  00151	6e		 DB	 110			; 0000006eH
  00152	76		 DB	 118			; 00000076H
  00153	4d		 DB	 77			; 0000004dH
  00154	6f		 DB	 111			; 0000006fH
  00155	64		 DB	 100			; 00000064H
  00156	65		 DB	 101			; 00000065H
  00157	00		 DB	 0
$LN7@GetCompart:
  00158	70		 DB	 112			; 00000070H
  00159	54		 DB	 84			; 00000054H
  0015a	66		 DB	 102			; 00000066H
  0015b	4f		 DB	 79			; 0000004fH
  0015c	70		 DB	 112			; 00000070H
  0015d	65		 DB	 101			; 00000065H
  0015e	6e		 DB	 110			; 0000006eH
  0015f	4d		 DB	 77			; 0000004dH
  00160	6f		 DB	 111			; 0000006fH
  00161	64		 DB	 100			; 00000064H
  00162	65		 DB	 101			; 00000065H
  00163	00		 DB	 0
$LN6@GetCompart:
  00164	70		 DB	 112			; 00000070H
  00165	63		 DB	 99			; 00000063H
  00166	6d		 DB	 109			; 0000006dH
  00167	00		 DB	 0
?GetCompartments@CTsfUiLessMode@@KAHPAPAUITfCompartmentMgr@@PAPAUITfCompartment@@1@Z ENDP ; CTsfUiLessMode::GetCompartments
_TEXT	ENDS
; Function compile flags: /Odtp /RTCsu
_TEXT	SEGMENT
_pElement$ = -20					; size = 4
_puiem$ = -8						; size = 4
_dwUIElementId$ = 8					; size = 4
?GetUIElement@CTsfUiLessMode@@KAPAUITfUIElement@@K@Z PROC ; CTsfUiLessMode::GetUIElement
; File d:\engine class\assignment 1\new scratch\dxut\optional\imeui.cpp
; Line 3009
  00000	55		 push	 ebp
  00001	8b ec		 mov	 ebp, esp
  00003	83 ec 18	 sub	 esp, 24			; 00000018H
  00006	56		 push	 esi
  00007	b8 cc cc cc cc	 mov	 eax, -858993460		; ccccccccH
  0000c	89 45 e8	 mov	 DWORD PTR [ebp-24], eax
  0000f	89 45 ec	 mov	 DWORD PTR [ebp-20], eax
  00012	89 45 f0	 mov	 DWORD PTR [ebp-16], eax
  00015	89 45 f4	 mov	 DWORD PTR [ebp-12], eax
  00018	89 45 f8	 mov	 DWORD PTR [ebp-8], eax
  0001b	89 45 fc	 mov	 DWORD PTR [ebp-4], eax
; Line 3011
  0001e	c7 45 ec 00 00
	00 00		 mov	 DWORD PTR _pElement$[ebp], 0
; Line 3013
  00025	8b f4		 mov	 esi, esp
  00027	8d 45 f8	 lea	 eax, DWORD PTR _puiem$[ebp]
  0002a	50		 push	 eax
  0002b	68 00 00 00 00	 push	 OFFSET __GUID_ea1ea135_19df_11d7_a6d2_00065b84435c
  00030	8b 0d 00 00 00
	00		 mov	 ecx, DWORD PTR ?m_tm@CTsfUiLessMode@@1PAUITfThreadMgrEx@@A ; CTsfUiLessMode::m_tm
  00036	8b 11		 mov	 edx, DWORD PTR [ecx]
  00038	a1 00 00 00 00	 mov	 eax, DWORD PTR ?m_tm@CTsfUiLessMode@@1PAUITfThreadMgrEx@@A ; CTsfUiLessMode::m_tm
  0003d	50		 push	 eax
  0003e	8b 0a		 mov	 ecx, DWORD PTR [edx]
  00040	ff d1		 call	 ecx
  00042	3b f4		 cmp	 esi, esp
  00044	e8 00 00 00 00	 call	 __RTC_CheckEsp
  00049	85 c0		 test	 eax, eax
  0004b	7c 36		 jl	 SHORT $LN1@GetUIEleme
; Line 3015
  0004d	8b f4		 mov	 esi, esp
  0004f	8d 55 ec	 lea	 edx, DWORD PTR _pElement$[ebp]
  00052	52		 push	 edx
  00053	8b 45 08	 mov	 eax, DWORD PTR _dwUIElementId$[ebp]
  00056	50		 push	 eax
  00057	8b 4d f8	 mov	 ecx, DWORD PTR _puiem$[ebp]
  0005a	8b 11		 mov	 edx, DWORD PTR [ecx]
  0005c	8b 45 f8	 mov	 eax, DWORD PTR _puiem$[ebp]
  0005f	50		 push	 eax
  00060	8b 4a 18	 mov	 ecx, DWORD PTR [edx+24]
  00063	ff d1		 call	 ecx
  00065	3b f4		 cmp	 esi, esp
  00067	e8 00 00 00 00	 call	 __RTC_CheckEsp
; Line 3016
  0006c	8b 55 f8	 mov	 edx, DWORD PTR _puiem$[ebp]
  0006f	8b 02		 mov	 eax, DWORD PTR [edx]
  00071	8b f4		 mov	 esi, esp
  00073	8b 4d f8	 mov	 ecx, DWORD PTR _puiem$[ebp]
  00076	51		 push	 ecx
  00077	8b 50 08	 mov	 edx, DWORD PTR [eax+8]
  0007a	ff d2		 call	 edx
  0007c	3b f4		 cmp	 esi, esp
  0007e	e8 00 00 00 00	 call	 __RTC_CheckEsp
$LN1@GetUIEleme:
; Line 3019
  00083	8b 45 ec	 mov	 eax, DWORD PTR _pElement$[ebp]
; Line 3020
  00086	52		 push	 edx
  00087	8b cd		 mov	 ecx, ebp
  00089	50		 push	 eax
  0008a	8d 15 00 00 00
	00		 lea	 edx, DWORD PTR $LN7@GetUIEleme
  00090	e8 00 00 00 00	 call	 @_RTC_CheckStackVars@8
  00095	58		 pop	 eax
  00096	5a		 pop	 edx
  00097	5e		 pop	 esi
  00098	83 c4 18	 add	 esp, 24			; 00000018H
  0009b	3b ec		 cmp	 ebp, esp
  0009d	e8 00 00 00 00	 call	 __RTC_CheckEsp
  000a2	8b e5		 mov	 esp, ebp
  000a4	5d		 pop	 ebp
  000a5	c3		 ret	 0
  000a6	8b ff		 npad	 2
$LN7@GetUIEleme:
  000a8	02 00 00 00	 DD	 2
  000ac	00 00 00 00	 DD	 $LN6@GetUIEleme
$LN6@GetUIEleme:
  000b0	f8 ff ff ff	 DD	 -8			; fffffff8H
  000b4	04 00 00 00	 DD	 4
  000b8	00 00 00 00	 DD	 $LN4@GetUIEleme
  000bc	ec ff ff ff	 DD	 -20			; ffffffecH
  000c0	04 00 00 00	 DD	 4
  000c4	00 00 00 00	 DD	 $LN5@GetUIEleme
$LN5@GetUIEleme:
  000c8	70		 DB	 112			; 00000070H
  000c9	45		 DB	 69			; 00000045H
  000ca	6c		 DB	 108			; 0000006cH
  000cb	65		 DB	 101			; 00000065H
  000cc	6d		 DB	 109			; 0000006dH
  000cd	65		 DB	 101			; 00000065H
  000ce	6e		 DB	 110			; 0000006eH
  000cf	74		 DB	 116			; 00000074H
  000d0	00		 DB	 0
$LN4@GetUIEleme:
  000d1	70		 DB	 112			; 00000070H
  000d2	75		 DB	 117			; 00000075H
  000d3	69		 DB	 105			; 00000069H
  000d4	65		 DB	 101			; 00000065H
  000d5	6d		 DB	 109			; 0000006dH
  000d6	00		 DB	 0
?GetUIElement@CTsfUiLessMode@@KAPAUITfUIElement@@K@Z ENDP ; CTsfUiLessMode::GetUIElement
_TEXT	ENDS
; Function compile flags: /Odtp /RTCsu
_TEXT	SEGMENT
tv137 = -92						; size = 4
$T1 = -88						; size = 4
$T2 = -84						; size = 4
_j$3 = -80						; size = 4
_i$4 = -76						; size = 4
_bstr$ = -68						; size = 4
_dwPageSize$ = -60					; size = 4
_dwPageStart$ = -56					; size = 4
_uPageCnt$ = -48					; size = 4
_IndexList$ = -40					; size = 4
_uCurrentPage$ = -32					; size = 4
_uCount$ = -20						; size = 4
_uIndex$ = -8						; size = 4
_pcandidate$ = 8					; size = 4
?MakeCandidateStrings@CTsfUiLessMode@@KAXPAUITfCandidateListUIElement@@@Z PROC ; CTsfUiLessMode::MakeCandidateStrings
; File d:\engine class\assignment 1\new scratch\dxut\optional\imeui.cpp
; Line 2949
  00000	55		 push	 ebp
  00001	8b ec		 mov	 ebp, esp
  00003	83 ec 5c	 sub	 esp, 92			; 0000005cH
  00006	56		 push	 esi
  00007	57		 push	 edi
  00008	8d 7d a4	 lea	 edi, DWORD PTR [ebp-92]
  0000b	b9 17 00 00 00	 mov	 ecx, 23			; 00000017H
  00010	b8 cc cc cc cc	 mov	 eax, -858993460		; ccccccccH
  00015	f3 ab		 rep stosd
; Line 2950
  00017	c7 45 f8 00 00
	00 00		 mov	 DWORD PTR _uIndex$[ebp], 0
; Line 2951
  0001e	c7 45 ec 00 00
	00 00		 mov	 DWORD PTR _uCount$[ebp], 0
; Line 2952
  00025	c7 45 e0 00 00
	00 00		 mov	 DWORD PTR _uCurrentPage$[ebp], 0
; Line 2953
  0002c	c7 45 d8 00 00
	00 00		 mov	 DWORD PTR _IndexList$[ebp], 0
; Line 2954
  00033	c7 45 d0 00 00
	00 00		 mov	 DWORD PTR _uPageCnt$[ebp], 0
; Line 2955
  0003a	c7 45 c8 00 00
	00 00		 mov	 DWORD PTR _dwPageStart$[ebp], 0
; Line 2956
  00041	c7 45 c4 00 00
	00 00		 mov	 DWORD PTR _dwPageSize$[ebp], 0
; Line 2959
  00048	8b f4		 mov	 esi, esp
  0004a	8d 45 f8	 lea	 eax, DWORD PTR _uIndex$[ebp]
  0004d	50		 push	 eax
  0004e	8b 4d 08	 mov	 ecx, DWORD PTR _pcandidate$[ebp]
  00051	8b 11		 mov	 edx, DWORD PTR [ecx]
  00053	8b 45 08	 mov	 eax, DWORD PTR _pcandidate$[ebp]
  00056	50		 push	 eax
  00057	8b 4a 28	 mov	 ecx, DWORD PTR [edx+40]
  0005a	ff d1		 call	 ecx
  0005c	3b f4		 cmp	 esi, esp
  0005e	e8 00 00 00 00	 call	 __RTC_CheckEsp
; Line 2960
  00063	8b f4		 mov	 esi, esp
  00065	8d 55 ec	 lea	 edx, DWORD PTR _uCount$[ebp]
  00068	52		 push	 edx
  00069	8b 45 08	 mov	 eax, DWORD PTR _pcandidate$[ebp]
  0006c	8b 08		 mov	 ecx, DWORD PTR [eax]
  0006e	8b 55 08	 mov	 edx, DWORD PTR _pcandidate$[ebp]
  00071	52		 push	 edx
  00072	8b 41 24	 mov	 eax, DWORD PTR [ecx+36]
  00075	ff d0		 call	 eax
  00077	3b f4		 cmp	 esi, esp
  00079	e8 00 00 00 00	 call	 __RTC_CheckEsp
; Line 2961
  0007e	8b f4		 mov	 esi, esp
  00080	8d 4d e0	 lea	 ecx, DWORD PTR _uCurrentPage$[ebp]
  00083	51		 push	 ecx
  00084	8b 55 08	 mov	 edx, DWORD PTR _pcandidate$[ebp]
  00087	8b 02		 mov	 eax, DWORD PTR [edx]
  00089	8b 4d 08	 mov	 ecx, DWORD PTR _pcandidate$[ebp]
  0008c	51		 push	 ecx
  0008d	8b 50 38	 mov	 edx, DWORD PTR [eax+56]
  00090	ff d2		 call	 edx
  00092	3b f4		 cmp	 esi, esp
  00094	e8 00 00 00 00	 call	 __RTC_CheckEsp
; Line 2962
  00099	8b 45 f8	 mov	 eax, DWORD PTR _uIndex$[ebp]
  0009c	a3 00 00 00 00	 mov	 DWORD PTR _g_dwSelection, eax
; Line 2963
  000a1	8b 4d ec	 mov	 ecx, DWORD PTR _uCount$[ebp]
  000a4	89 0d 00 00 00
	00		 mov	 DWORD PTR _g_dwCount, ecx
; Line 2964
  000aa	c6 05 00 00 00
	00 01		 mov	 BYTE PTR _g_bCandList, 1
; Line 2965
  000b1	c6 05 00 00 00
	00 00		 mov	 BYTE PTR _g_bReadingWindow, 0
; Line 2967
  000b8	8b f4		 mov	 esi, esp
  000ba	8d 55 d0	 lea	 edx, DWORD PTR _uPageCnt$[ebp]
  000bd	52		 push	 edx
  000be	6a 00		 push	 0
  000c0	6a 00		 push	 0
  000c2	8b 45 08	 mov	 eax, DWORD PTR _pcandidate$[ebp]
  000c5	8b 08		 mov	 ecx, DWORD PTR [eax]
  000c7	8b 55 08	 mov	 edx, DWORD PTR _pcandidate$[ebp]
  000ca	52		 push	 edx
  000cb	8b 41 30	 mov	 eax, DWORD PTR [ecx+48]
  000ce	ff d0		 call	 eax
  000d0	3b f4		 cmp	 esi, esp
  000d2	e8 00 00 00 00	 call	 __RTC_CheckEsp
; Line 2968
  000d7	83 7d d0 00	 cmp	 DWORD PTR _uPageCnt$[ebp], 0
  000db	0f 86 8c 00 00
	00		 jbe	 $LN9@MakeCandid
; Line 2970
  000e1	8b 4d d0	 mov	 ecx, DWORD PTR _uPageCnt$[ebp]
  000e4	c1 e1 02	 shl	 ecx, 2
  000e7	8b f4		 mov	 esi, esp
  000e9	51		 push	 ecx
  000ea	ff 15 00 00 00
	00		 call	 DWORD PTR ?ImeUiCallback_Malloc@@3P6APAXI@ZA ; ImeUiCallback_Malloc
  000f0	83 c4 04	 add	 esp, 4
  000f3	3b f4		 cmp	 esi, esp
  000f5	e8 00 00 00 00	 call	 __RTC_CheckEsp
  000fa	89 45 d8	 mov	 DWORD PTR _IndexList$[ebp], eax
; Line 2971
  000fd	83 7d d8 00	 cmp	 DWORD PTR _IndexList$[ebp], 0
  00101	74 6a		 je	 SHORT $LN9@MakeCandid
; Line 2973
  00103	8b f4		 mov	 esi, esp
  00105	8d 55 d0	 lea	 edx, DWORD PTR _uPageCnt$[ebp]
  00108	52		 push	 edx
  00109	8b 45 d0	 mov	 eax, DWORD PTR _uPageCnt$[ebp]
  0010c	50		 push	 eax
  0010d	8b 4d d8	 mov	 ecx, DWORD PTR _IndexList$[ebp]
  00110	51		 push	 ecx
  00111	8b 55 08	 mov	 edx, DWORD PTR _pcandidate$[ebp]
  00114	8b 02		 mov	 eax, DWORD PTR [edx]
  00116	8b 4d 08	 mov	 ecx, DWORD PTR _pcandidate$[ebp]
  00119	51		 push	 ecx
  0011a	8b 50 30	 mov	 edx, DWORD PTR [eax+48]
  0011d	ff d2		 call	 edx
  0011f	3b f4		 cmp	 esi, esp
  00121	e8 00 00 00 00	 call	 __RTC_CheckEsp
; Line 2974
  00126	8b 45 e0	 mov	 eax, DWORD PTR _uCurrentPage$[ebp]
  00129	8b 4d d8	 mov	 ecx, DWORD PTR _IndexList$[ebp]
  0012c	8b 14 81	 mov	 edx, DWORD PTR [ecx+eax*4]
  0012f	89 55 c8	 mov	 DWORD PTR _dwPageStart$[ebp], edx
; Line 2977
  00132	8b 45 d0	 mov	 eax, DWORD PTR _uPageCnt$[ebp]
  00135	83 e8 01	 sub	 eax, 1
  00138	39 45 e0	 cmp	 DWORD PTR _uCurrentPage$[ebp], eax
  0013b	73 21		 jae	 SHORT $LN12@MakeCandid
  0013d	8b 4d e0	 mov	 ecx, DWORD PTR _uCurrentPage$[ebp]
  00140	8b 55 d8	 mov	 edx, DWORD PTR _IndexList$[ebp]
  00143	8d 44 8a 04	 lea	 eax, DWORD PTR [edx+ecx*4+4]
  00147	50		 push	 eax
  00148	8d 4d ec	 lea	 ecx, DWORD PTR _uCount$[ebp]
  0014b	51		 push	 ecx
  0014c	e8 00 00 00 00	 call	 ??$min@I@std@@YAABIABI0@Z ; std::min<unsigned int>
  00151	83 c4 08	 add	 esp, 8
  00154	8b 10		 mov	 edx, DWORD PTR [eax]
  00156	2b 55 c8	 sub	 edx, DWORD PTR _dwPageStart$[ebp]
  00159	89 55 a4	 mov	 DWORD PTR tv137[ebp], edx
  0015c	eb 09		 jmp	 SHORT $LN13@MakeCandid
$LN12@MakeCandid:
  0015e	8b 45 ec	 mov	 eax, DWORD PTR _uCount$[ebp]
  00161	2b 45 c8	 sub	 eax, DWORD PTR _dwPageStart$[ebp]
  00164	89 45 a4	 mov	 DWORD PTR tv137[ebp], eax
$LN13@MakeCandid:
  00167	8b 4d a4	 mov	 ecx, DWORD PTR tv137[ebp]
  0016a	89 4d c4	 mov	 DWORD PTR _dwPageSize$[ebp], ecx
$LN9@MakeCandid:
; Line 2981
  0016d	c7 45 ac 0a 00
	00 00		 mov	 DWORD PTR $T2[ebp], 10	; 0000000aH
  00174	8b 55 c4	 mov	 edx, DWORD PTR _dwPageSize$[ebp]
  00177	89 55 a8	 mov	 DWORD PTR $T1[ebp], edx
  0017a	8d 45 ac	 lea	 eax, DWORD PTR $T2[ebp]
  0017d	50		 push	 eax
  0017e	8d 4d a8	 lea	 ecx, DWORD PTR $T1[ebp]
  00181	51		 push	 ecx
  00182	e8 00 00 00 00	 call	 ??$min@I@std@@YAABIABI0@Z ; std::min<unsigned int>
  00187	83 c4 08	 add	 esp, 8
  0018a	8b 10		 mov	 edx, DWORD PTR [eax]
  0018c	89 15 00 00 00
	00		 mov	 DWORD PTR _g_uCandPageSize, edx
; Line 2982
  00192	a1 00 00 00 00	 mov	 eax, DWORD PTR _g_dwSelection
  00197	2b 45 c8	 sub	 eax, DWORD PTR _dwPageStart$[ebp]
  0019a	a3 00 00 00 00	 mov	 DWORD PTR _g_dwSelection, eax
; Line 2984
  0019f	68 00 14 00 00	 push	 5120			; 00001400H
  001a4	6a 00		 push	 0
  001a6	68 00 00 00 00	 push	 OFFSET _g_szCandidate
  001ab	e8 00 00 00 00	 call	 _memset
  001b0	83 c4 0c	 add	 esp, 12			; 0000000cH
; Line 2985
  001b3	8b 4d c8	 mov	 ecx, DWORD PTR _dwPageStart$[ebp]
  001b6	89 4d b4	 mov	 DWORD PTR _i$4[ebp], ecx
  001b9	c7 45 b0 00 00
	00 00		 mov	 DWORD PTR _j$3[ebp], 0
  001c0	eb 12		 jmp	 SHORT $LN7@MakeCandid
$LN6@MakeCandid:
  001c2	8b 55 b4	 mov	 edx, DWORD PTR _i$4[ebp]
  001c5	83 c2 01	 add	 edx, 1
  001c8	89 55 b4	 mov	 DWORD PTR _i$4[ebp], edx
  001cb	8b 45 b0	 mov	 eax, DWORD PTR _j$3[ebp]
  001ce	83 c0 01	 add	 eax, 1
  001d1	89 45 b0	 mov	 DWORD PTR _j$3[ebp], eax
$LN7@MakeCandid:
  001d4	8b 4d b4	 mov	 ecx, DWORD PTR _i$4[ebp]
  001d7	3b 0d 00 00 00
	00		 cmp	 ecx, DWORD PTR _g_dwCount
  001dd	73 59		 jae	 SHORT $LN5@MakeCandid
  001df	8b 55 b0	 mov	 edx, DWORD PTR _j$3[ebp]
  001e2	3b 15 00 00 00
	00		 cmp	 edx, DWORD PTR _g_uCandPageSize
  001e8	73 4e		 jae	 SHORT $LN5@MakeCandid
; Line 2987
  001ea	8b f4		 mov	 esi, esp
  001ec	8d 45 bc	 lea	 eax, DWORD PTR _bstr$[ebp]
  001ef	50		 push	 eax
  001f0	8b 4d b4	 mov	 ecx, DWORD PTR _i$4[ebp]
  001f3	51		 push	 ecx
  001f4	8b 55 08	 mov	 edx, DWORD PTR _pcandidate$[ebp]
  001f7	8b 02		 mov	 eax, DWORD PTR [edx]
  001f9	8b 4d 08	 mov	 ecx, DWORD PTR _pcandidate$[ebp]
  001fc	51		 push	 ecx
  001fd	8b 50 2c	 mov	 edx, DWORD PTR [eax+44]
  00200	ff d2		 call	 edx
  00202	3b f4		 cmp	 esi, esp
  00204	e8 00 00 00 00	 call	 __RTC_CheckEsp
  00209	85 c0		 test	 eax, eax
  0020b	7c 29		 jl	 SHORT $LN4@MakeCandid
; Line 2989
  0020d	83 7d bc 00	 cmp	 DWORD PTR _bstr$[ebp], 0
  00211	74 23		 je	 SHORT $LN4@MakeCandid
; Line 2991
  00213	8b 45 bc	 mov	 eax, DWORD PTR _bstr$[ebp]
  00216	50		 push	 eax
  00217	8b 4d b0	 mov	 ecx, DWORD PTR _j$3[ebp]
  0021a	51		 push	 ecx
  0021b	e8 00 00 00 00	 call	 ?ComposeCandidateLine@@YAXHPB_W@Z ; ComposeCandidateLine
  00220	83 c4 08	 add	 esp, 8
; Line 2992
  00223	8b f4		 mov	 esi, esp
  00225	8b 55 bc	 mov	 edx, DWORD PTR _bstr$[ebp]
  00228	52		 push	 edx
  00229	ff 15 00 00 00
	00		 call	 DWORD PTR __imp__SysFreeString@4
  0022f	3b f4		 cmp	 esi, esp
  00231	e8 00 00 00 00	 call	 __RTC_CheckEsp
$LN4@MakeCandid:
; Line 2995
  00236	eb 8a		 jmp	 SHORT $LN6@MakeCandid
$LN5@MakeCandid:
; Line 2997
  00238	a1 00 00 00 00	 mov	 eax, DWORD PTR _g_hklCurrent
  0023d	25 ff ff 00 00	 and	 eax, 65535		; 0000ffffH
  00242	0f b7 c8	 movzx	 ecx, ax
  00245	81 e1 ff 03 00
	00		 and	 ecx, 1023		; 000003ffH
  0024b	0f b7 d1	 movzx	 edx, cx
  0024e	83 fa 12	 cmp	 edx, 18			; 00000012H
  00251	75 0a		 jne	 SHORT $LN2@MakeCandid
; Line 2999
  00253	c7 05 00 00 00
	00 ff ff ff ff	 mov	 DWORD PTR _g_dwSelection, -1
$LN2@MakeCandid:
; Line 3002
  0025d	83 7d d8 00	 cmp	 DWORD PTR _IndexList$[ebp], 0
  00261	74 16		 je	 SHORT $LN10@MakeCandid
; Line 3004
  00263	8b f4		 mov	 esi, esp
  00265	8b 45 d8	 mov	 eax, DWORD PTR _IndexList$[ebp]
  00268	50		 push	 eax
  00269	ff 15 00 00 00
	00		 call	 DWORD PTR ?ImeUiCallback_Free@@3P6AXPAX@ZA ; ImeUiCallback_Free
  0026f	83 c4 04	 add	 esp, 4
  00272	3b f4		 cmp	 esi, esp
  00274	e8 00 00 00 00	 call	 __RTC_CheckEsp
$LN10@MakeCandid:
; Line 3006
  00279	52		 push	 edx
  0027a	8b cd		 mov	 ecx, ebp
  0027c	50		 push	 eax
  0027d	8d 15 00 00 00
	00		 lea	 edx, DWORD PTR $LN20@MakeCandid
  00283	e8 00 00 00 00	 call	 @_RTC_CheckStackVars@8
  00288	58		 pop	 eax
  00289	5a		 pop	 edx
  0028a	5f		 pop	 edi
  0028b	5e		 pop	 esi
  0028c	83 c4 5c	 add	 esp, 92			; 0000005cH
  0028f	3b ec		 cmp	 ebp, esp
  00291	e8 00 00 00 00	 call	 __RTC_CheckEsp
  00296	8b e5		 mov	 esp, ebp
  00298	5d		 pop	 ebp
  00299	c3		 ret	 0
  0029a	8b ff		 npad	 2
$LN20@MakeCandid:
  0029c	05 00 00 00	 DD	 5
  002a0	00 00 00 00	 DD	 $LN19@MakeCandid
$LN19@MakeCandid:
  002a4	f8 ff ff ff	 DD	 -8			; fffffff8H
  002a8	04 00 00 00	 DD	 4
  002ac	00 00 00 00	 DD	 $LN14@MakeCandid
  002b0	ec ff ff ff	 DD	 -20			; ffffffecH
  002b4	04 00 00 00	 DD	 4
  002b8	00 00 00 00	 DD	 $LN15@MakeCandid
  002bc	e0 ff ff ff	 DD	 -32			; ffffffe0H
  002c0	04 00 00 00	 DD	 4
  002c4	00 00 00 00	 DD	 $LN16@MakeCandid
  002c8	d0 ff ff ff	 DD	 -48			; ffffffd0H
  002cc	04 00 00 00	 DD	 4
  002d0	00 00 00 00	 DD	 $LN17@MakeCandid
  002d4	bc ff ff ff	 DD	 -68			; ffffffbcH
  002d8	04 00 00 00	 DD	 4
  002dc	00 00 00 00	 DD	 $LN18@MakeCandid
$LN18@MakeCandid:
  002e0	62		 DB	 98			; 00000062H
  002e1	73		 DB	 115			; 00000073H
  002e2	74		 DB	 116			; 00000074H
  002e3	72		 DB	 114			; 00000072H
  002e4	00		 DB	 0
$LN17@MakeCandid:
  002e5	75		 DB	 117			; 00000075H
  002e6	50		 DB	 80			; 00000050H
  002e7	61		 DB	 97			; 00000061H
  002e8	67		 DB	 103			; 00000067H
  002e9	65		 DB	 101			; 00000065H
  002ea	43		 DB	 67			; 00000043H
  002eb	6e		 DB	 110			; 0000006eH
  002ec	74		 DB	 116			; 00000074H
  002ed	00		 DB	 0
$LN16@MakeCandid:
  002ee	75		 DB	 117			; 00000075H
  002ef	43		 DB	 67			; 00000043H
  002f0	75		 DB	 117			; 00000075H
  002f1	72		 DB	 114			; 00000072H
  002f2	72		 DB	 114			; 00000072H
  002f3	65		 DB	 101			; 00000065H
  002f4	6e		 DB	 110			; 0000006eH
  002f5	74		 DB	 116			; 00000074H
  002f6	50		 DB	 80			; 00000050H
  002f7	61		 DB	 97			; 00000061H
  002f8	67		 DB	 103			; 00000067H
  002f9	65		 DB	 101			; 00000065H
  002fa	00		 DB	 0
$LN15@MakeCandid:
  002fb	75		 DB	 117			; 00000075H
  002fc	43		 DB	 67			; 00000043H
  002fd	6f		 DB	 111			; 0000006fH
  002fe	75		 DB	 117			; 00000075H
  002ff	6e		 DB	 110			; 0000006eH
  00300	74		 DB	 116			; 00000074H
  00301	00		 DB	 0
$LN14@MakeCandid:
  00302	75		 DB	 117			; 00000075H
  00303	49		 DB	 73			; 00000049H
  00304	6e		 DB	 110			; 0000006eH
  00305	64		 DB	 100			; 00000064H
  00306	65		 DB	 101			; 00000065H
  00307	78		 DB	 120			; 00000078H
  00308	00		 DB	 0
?MakeCandidateStrings@CTsfUiLessMode@@KAXPAUITfCandidateListUIElement@@@Z ENDP ; CTsfUiLessMode::MakeCandidateStrings
_TEXT	ENDS
; Function compile flags: /Odtp /RTCsu
_TEXT	SEGMENT
tv85 = -88						; size = 4
tv81 = -84						; size = 4
_size$1 = -80						; size = 4
_pszNextSrc$2 = -76					; size = 4
_pszDest$3 = -72					; size = 4
_i$4 = -68						; size = 4
_pszSource$5 = -64					; size = 4
_bstr$ = -56						; size = 4
_dwFlags$ = -44						; size = 4
_fVertical$ = -32					; size = 4
_uErrorIndex$ = -20					; size = 4
_cchMax$ = -8						; size = 4
_preading$ = 8						; size = 4
?MakeReadingInformationString@CTsfUiLessMode@@KAXPAUITfReadingInformationUIElement@@@Z PROC ; CTsfUiLessMode::MakeReadingInformationString
; File d:\engine class\assignment 1\new scratch\dxut\optional\imeui.cpp
; Line 2897
  00000	55		 push	 ebp
  00001	8b ec		 mov	 ebp, esp
  00003	83 ec 58	 sub	 esp, 88			; 00000058H
  00006	56		 push	 esi
  00007	57		 push	 edi
  00008	8d 7d a8	 lea	 edi, DWORD PTR [ebp-88]
  0000b	b9 16 00 00 00	 mov	 ecx, 22			; 00000016H
  00010	b8 cc cc cc cc	 mov	 eax, -858993460		; ccccccccH
  00015	f3 ab		 rep stosd
; Line 2899
  00017	c7 45 ec 00 00
	00 00		 mov	 DWORD PTR _uErrorIndex$[ebp], 0
; Line 2903
  0001e	8b f4		 mov	 esi, esp
  00020	8d 45 d4	 lea	 eax, DWORD PTR _dwFlags$[ebp]
  00023	50		 push	 eax
  00024	8b 4d 08	 mov	 ecx, DWORD PTR _preading$[ebp]
  00027	8b 11		 mov	 edx, DWORD PTR [ecx]
  00029	8b 45 08	 mov	 eax, DWORD PTR _preading$[ebp]
  0002c	50		 push	 eax
  0002d	8b 4a 1c	 mov	 ecx, DWORD PTR [edx+28]
  00030	ff d1		 call	 ecx
  00032	3b f4		 cmp	 esi, esp
  00034	e8 00 00 00 00	 call	 __RTC_CheckEsp
; Line 2904
  00039	8b f4		 mov	 esi, esp
  0003b	8d 55 f8	 lea	 edx, DWORD PTR _cchMax$[ebp]
  0003e	52		 push	 edx
  0003f	8b 45 08	 mov	 eax, DWORD PTR _preading$[ebp]
  00042	8b 08		 mov	 ecx, DWORD PTR [eax]
  00044	8b 55 08	 mov	 edx, DWORD PTR _preading$[ebp]
  00047	52		 push	 edx
  00048	8b 41 28	 mov	 eax, DWORD PTR [ecx+40]
  0004b	ff d0		 call	 eax
  0004d	3b f4		 cmp	 esi, esp
  0004f	e8 00 00 00 00	 call	 __RTC_CheckEsp
; Line 2905
  00054	8b f4		 mov	 esi, esp
  00056	8d 4d ec	 lea	 ecx, DWORD PTR _uErrorIndex$[ebp]
  00059	51		 push	 ecx
  0005a	8b 55 08	 mov	 edx, DWORD PTR _preading$[ebp]
  0005d	8b 02		 mov	 eax, DWORD PTR [edx]
  0005f	8b 4d 08	 mov	 ecx, DWORD PTR _preading$[ebp]
  00062	51		 push	 ecx
  00063	8b 50 2c	 mov	 edx, DWORD PTR [eax+44]
  00066	ff d2		 call	 edx
  00068	3b f4		 cmp	 esi, esp
  0006a	e8 00 00 00 00	 call	 __RTC_CheckEsp
; Line 2906
  0006f	8b f4		 mov	 esi, esp
  00071	8d 45 e0	 lea	 eax, DWORD PTR _fVertical$[ebp]
  00074	50		 push	 eax
  00075	8b 4d 08	 mov	 ecx, DWORD PTR _preading$[ebp]
  00078	8b 11		 mov	 edx, DWORD PTR [ecx]
  0007a	8b 45 08	 mov	 eax, DWORD PTR _preading$[ebp]
  0007d	50		 push	 eax
  0007e	8b 4a 30	 mov	 ecx, DWORD PTR [edx+48]
  00081	ff d1		 call	 ecx
  00083	3b f4		 cmp	 esi, esp
  00085	e8 00 00 00 00	 call	 __RTC_CheckEsp
; Line 2907
  0008a	8b 55 ec	 mov	 edx, DWORD PTR _uErrorIndex$[ebp]
  0008d	89 15 00 00 00
	00		 mov	 DWORD PTR _g_iReadingError, edx
; Line 2908
  00093	83 7d e0 00	 cmp	 DWORD PTR _fVertical$[ebp], 0
  00097	75 09		 jne	 SHORT $LN11@MakeReadin
  00099	c7 45 ac 01 00
	00 00		 mov	 DWORD PTR tv81[ebp], 1
  000a0	eb 07		 jmp	 SHORT $LN12@MakeReadin
$LN11@MakeReadin:
  000a2	c7 45 ac 00 00
	00 00		 mov	 DWORD PTR tv81[ebp], 0
$LN12@MakeReadin:
  000a9	8a 45 ac	 mov	 al, BYTE PTR tv81[ebp]
  000ac	a2 00 00 00 00	 mov	 BYTE PTR _g_bHorizontalReading, al
; Line 2909
  000b1	c6 05 00 00 00
	00 01		 mov	 BYTE PTR _g_bReadingWindow, 1
; Line 2910
  000b8	c7 05 00 00 00
	00 0a 00 00 00	 mov	 DWORD PTR _g_uCandPageSize, 10 ; 0000000aH
; Line 2911
  000c2	83 3d 00 00 00
	00 00		 cmp	 DWORD PTR _g_iReadingError, 0
  000c9	74 0e		 je	 SHORT $LN13@MakeReadin
  000cb	8b 0d 00 00 00
	00		 mov	 ecx, DWORD PTR _g_iReadingError
  000d1	83 e9 01	 sub	 ecx, 1
  000d4	89 4d a8	 mov	 DWORD PTR tv85[ebp], ecx
  000d7	eb 07		 jmp	 SHORT $LN14@MakeReadin
$LN13@MakeReadin:
  000d9	c7 45 a8 ff ff
	ff ff		 mov	 DWORD PTR tv85[ebp], -1
$LN14@MakeReadin:
  000e0	8b 55 a8	 mov	 edx, DWORD PTR tv85[ebp]
  000e3	89 15 00 00 00
	00		 mov	 DWORD PTR _g_dwSelection, edx
; Line 2912
  000e9	a1 00 00 00 00	 mov	 eax, DWORD PTR _g_iReadingError
  000ee	83 e8 01	 sub	 eax, 1
  000f1	a3 00 00 00 00	 mov	 DWORD PTR _g_iReadingError, eax
; Line 2915
  000f6	8b f4		 mov	 esi, esp
  000f8	8d 4d c8	 lea	 ecx, DWORD PTR _bstr$[ebp]
  000fb	51		 push	 ecx
  000fc	8b 55 08	 mov	 edx, DWORD PTR _preading$[ebp]
  000ff	8b 02		 mov	 eax, DWORD PTR [edx]
  00101	8b 4d 08	 mov	 ecx, DWORD PTR _preading$[ebp]
  00104	51		 push	 ecx
  00105	8b 50 24	 mov	 edx, DWORD PTR [eax+36]
  00108	ff d2		 call	 edx
  0010a	3b f4		 cmp	 esi, esp
  0010c	e8 00 00 00 00	 call	 __RTC_CheckEsp
  00111	85 c0		 test	 eax, eax
  00113	0f 8c f5 00 00
	00		 jl	 $LN9@MakeReadin
; Line 2917
  00119	83 7d c8 00	 cmp	 DWORD PTR _bstr$[ebp], 0
  0011d	0f 84 eb 00 00
	00		 je	 $LN9@MakeReadin
; Line 2919
  00123	8b f4		 mov	 esi, esp
  00125	8b 45 c8	 mov	 eax, DWORD PTR _bstr$[ebp]
  00128	50		 push	 eax
  00129	6a 20		 push	 32			; 00000020H
  0012b	68 00 00 00 00	 push	 OFFSET _g_szReadingString
  00130	ff 15 00 00 00
	00		 call	 DWORD PTR __imp__wcscpy_s
  00136	83 c4 0c	 add	 esp, 12			; 0000000cH
  00139	3b f4		 cmp	 esi, esp
  0013b	e8 00 00 00 00	 call	 __RTC_CheckEsp
; Line 2920
  00140	8b 4d f8	 mov	 ecx, DWORD PTR _cchMax$[ebp]
  00143	89 0d 00 00 00
	00		 mov	 DWORD PTR _g_dwCount, ecx
; Line 2921
  00149	c7 45 c0 00 00
	00 00		 mov	 DWORD PTR _pszSource$5[ebp], OFFSET _g_szReadingString
; Line 2922
  00150	83 7d e0 00	 cmp	 DWORD PTR _fVertical$[ebp], 0
  00154	0f 84 84 00 00
	00		 je	 $LN6@MakeReadin
; Line 2925
  0015a	c7 45 bc 00 00
	00 00		 mov	 DWORD PTR _i$4[ebp], 0
  00161	eb 09		 jmp	 SHORT $LN5@MakeReadin
$LN4@MakeReadin:
  00163	8b 55 bc	 mov	 edx, DWORD PTR _i$4[ebp]
  00166	83 c2 01	 add	 edx, 1
  00169	89 55 bc	 mov	 DWORD PTR _i$4[ebp], edx
$LN5@MakeReadin:
  0016c	8b 45 bc	 mov	 eax, DWORD PTR _i$4[ebp]
  0016f	3b 45 f8	 cmp	 eax, DWORD PTR _cchMax$[ebp]
  00172	73 68		 jae	 SHORT $LN3@MakeReadin
; Line 2927
  00174	8b 4d bc	 mov	 ecx, DWORD PTR _i$4[ebp]
  00177	c1 e1 09	 shl	 ecx, 9
  0017a	81 c1 00 00 00
	00		 add	 ecx, OFFSET _g_szCandidate
  00180	89 4d b8	 mov	 DWORD PTR _pszDest$3[ebp], ecx
; Line 2928
  00183	8b 55 c0	 mov	 edx, DWORD PTR _pszSource$5[ebp]
  00186	0f b7 02	 movzx	 eax, WORD PTR [edx]
  00189	85 c0		 test	 eax, eax
  0018b	74 45		 je	 SHORT $LN2@MakeReadin
; Line 2930
  0018d	8b f4		 mov	 esi, esp
  0018f	8b 4d c0	 mov	 ecx, DWORD PTR _pszSource$5[ebp]
  00192	51		 push	 ecx
  00193	ff 15 00 00 00
	00		 call	 DWORD PTR __imp__CharNextW@4
  00199	3b f4		 cmp	 esi, esp
  0019b	e8 00 00 00 00	 call	 __RTC_CheckEsp
  001a0	89 45 b4	 mov	 DWORD PTR _pszNextSrc$2[ebp], eax
; Line 2931
  001a3	8b 55 b4	 mov	 edx, DWORD PTR _pszNextSrc$2[ebp]
  001a6	2b 55 c0	 sub	 edx, DWORD PTR _pszSource$5[ebp]
  001a9	89 55 b0	 mov	 DWORD PTR _size$1[ebp], edx
; Line 2932
  001ac	8b 45 b0	 mov	 eax, DWORD PTR _size$1[ebp]
  001af	50		 push	 eax
  001b0	8b 4d c0	 mov	 ecx, DWORD PTR _pszSource$5[ebp]
  001b3	51		 push	 ecx
  001b4	8b 55 b8	 mov	 edx, DWORD PTR _pszDest$3[ebp]
  001b7	52		 push	 edx
  001b8	e8 00 00 00 00	 call	 _memcpy
  001bd	83 c4 0c	 add	 esp, 12			; 0000000cH
; Line 2933
  001c0	8b 45 b4	 mov	 eax, DWORD PTR _pszNextSrc$2[ebp]
  001c3	89 45 c0	 mov	 DWORD PTR _pszSource$5[ebp], eax
; Line 2934
  001c6	8b 4d b0	 mov	 ecx, DWORD PTR _size$1[ebp]
  001c9	8b 55 b8	 mov	 edx, DWORD PTR _pszDest$3[ebp]
  001cc	8d 04 4a	 lea	 eax, DWORD PTR [edx+ecx*2]
  001cf	89 45 b8	 mov	 DWORD PTR _pszDest$3[ebp], eax
$LN2@MakeReadin:
; Line 2936
  001d2	33 c9		 xor	 ecx, ecx
  001d4	8b 55 b8	 mov	 edx, DWORD PTR _pszDest$3[ebp]
  001d7	66 89 0a	 mov	 WORD PTR [edx], cx
; Line 2937
  001da	eb 87		 jmp	 SHORT $LN4@MakeReadin
$LN3@MakeReadin:
; Line 2939
  001dc	eb 1d		 jmp	 SHORT $LN1@MakeReadin
$LN6@MakeReadin:
; Line 2941
  001de	b8 00 02 00 00	 mov	 eax, 512		; 00000200H
  001e3	6b c8 00	 imul	 ecx, eax, 0
  001e6	ba 02 00 00 00	 mov	 edx, 2
  001eb	6b c2 00	 imul	 eax, edx, 0
  001ee	ba 20 00 00 00	 mov	 edx, 32			; 00000020H
  001f3	66 89 94 01 00
	00 00 00	 mov	 WORD PTR _g_szCandidate[ecx+eax], dx
$LN1@MakeReadin:
; Line 2943
  001fb	8b f4		 mov	 esi, esp
  001fd	8b 45 c8	 mov	 eax, DWORD PTR _bstr$[ebp]
  00200	50		 push	 eax
  00201	ff 15 00 00 00
	00		 call	 DWORD PTR __imp__SysFreeString@4
  00207	3b f4		 cmp	 esi, esp
  00209	e8 00 00 00 00	 call	 __RTC_CheckEsp
$LN9@MakeReadin:
; Line 2946
  0020e	52		 push	 edx
  0020f	8b cd		 mov	 ecx, ebp
  00211	50		 push	 eax
  00212	8d 15 00 00 00
	00		 lea	 edx, DWORD PTR $LN21@MakeReadin
  00218	e8 00 00 00 00	 call	 @_RTC_CheckStackVars@8
  0021d	58		 pop	 eax
  0021e	5a		 pop	 edx
  0021f	5f		 pop	 edi
  00220	5e		 pop	 esi
  00221	83 c4 58	 add	 esp, 88			; 00000058H
  00224	3b ec		 cmp	 ebp, esp
  00226	e8 00 00 00 00	 call	 __RTC_CheckEsp
  0022b	8b e5		 mov	 esp, ebp
  0022d	5d		 pop	 ebp
  0022e	c3		 ret	 0
  0022f	90		 npad	 1
$LN21@MakeReadin:
  00230	05 00 00 00	 DD	 5
  00234	00 00 00 00	 DD	 $LN20@MakeReadin
$LN20@MakeReadin:
  00238	f8 ff ff ff	 DD	 -8			; fffffff8H
  0023c	04 00 00 00	 DD	 4
  00240	00 00 00 00	 DD	 $LN15@MakeReadin
  00244	ec ff ff ff	 DD	 -20			; ffffffecH
  00248	04 00 00 00	 DD	 4
  0024c	00 00 00 00	 DD	 $LN16@MakeReadin
  00250	e0 ff ff ff	 DD	 -32			; ffffffe0H
  00254	04 00 00 00	 DD	 4
  00258	00 00 00 00	 DD	 $LN17@MakeReadin
  0025c	d4 ff ff ff	 DD	 -44			; ffffffd4H
  00260	04 00 00 00	 DD	 4
  00264	00 00 00 00	 DD	 $LN18@MakeReadin
  00268	c8 ff ff ff	 DD	 -56			; ffffffc8H
  0026c	04 00 00 00	 DD	 4
  00270	00 00 00 00	 DD	 $LN19@MakeReadin
$LN19@MakeReadin:
  00274	62		 DB	 98			; 00000062H
  00275	73		 DB	 115			; 00000073H
  00276	74		 DB	 116			; 00000074H
  00277	72		 DB	 114			; 00000072H
  00278	00		 DB	 0
$LN18@MakeReadin:
  00279	64		 DB	 100			; 00000064H
  0027a	77		 DB	 119			; 00000077H
  0027b	46		 DB	 70			; 00000046H
  0027c	6c		 DB	 108			; 0000006cH
  0027d	61		 DB	 97			; 00000061H
  0027e	67		 DB	 103			; 00000067H
  0027f	73		 DB	 115			; 00000073H
  00280	00		 DB	 0
$LN17@MakeReadin:
  00281	66		 DB	 102			; 00000066H
  00282	56		 DB	 86			; 00000056H
  00283	65		 DB	 101			; 00000065H
  00284	72		 DB	 114			; 00000072H
  00285	74		 DB	 116			; 00000074H
  00286	69		 DB	 105			; 00000069H
  00287	63		 DB	 99			; 00000063H
  00288	61		 DB	 97			; 00000061H
  00289	6c		 DB	 108			; 0000006cH
  0028a	00		 DB	 0
$LN16@MakeReadin:
  0028b	75		 DB	 117			; 00000075H
  0028c	45		 DB	 69			; 00000045H
  0028d	72		 DB	 114			; 00000072H
  0028e	72		 DB	 114			; 00000072H
  0028f	6f		 DB	 111			; 0000006fH
  00290	72		 DB	 114			; 00000072H
  00291	49		 DB	 73			; 00000049H
  00292	6e		 DB	 110			; 0000006eH
  00293	64		 DB	 100			; 00000064H
  00294	65		 DB	 101			; 00000065H
  00295	78		 DB	 120			; 00000078H
  00296	00		 DB	 0
$LN15@MakeReadin:
  00297	63		 DB	 99			; 00000063H
  00298	63		 DB	 99			; 00000063H
  00299	68		 DB	 104			; 00000068H
  0029a	4d		 DB	 77			; 0000004dH
  0029b	61		 DB	 97			; 00000061H
  0029c	78		 DB	 120			; 00000078H
  0029d	00		 DB	 0
?MakeReadingInformationString@CTsfUiLessMode@@KAXPAUITfReadingInformationUIElement@@@Z ENDP ; CTsfUiLessMode::MakeReadingInformationString
_TEXT	ENDS
; Function compile flags: /Odtp /RTCsu
;	COMDAT ??_GCUIElementSink@CTsfUiLessMode@@QAEPAXI@Z
_TEXT	SEGMENT
_this$ = -4						; size = 4
___flags$ = 8						; size = 4
??_GCUIElementSink@CTsfUiLessMode@@QAEPAXI@Z PROC	; CTsfUiLessMode::CUIElementSink::`scalar deleting destructor', COMDAT
; _this$ = ecx
  00000	55		 push	 ebp
  00001	8b ec		 mov	 ebp, esp
  00003	51		 push	 ecx
  00004	c7 45 fc cc cc
	cc cc		 mov	 DWORD PTR [ebp-4], -858993460 ; ccccccccH
  0000b	89 4d fc	 mov	 DWORD PTR _this$[ebp], ecx
  0000e	8b 4d fc	 mov	 ecx, DWORD PTR _this$[ebp]
  00011	e8 00 00 00 00	 call	 ??1CUIElementSink@CTsfUiLessMode@@QAE@XZ ; CTsfUiLessMode::CUIElementSink::~CUIElementSink
  00016	8b 45 08	 mov	 eax, DWORD PTR ___flags$[ebp]
  00019	83 e0 01	 and	 eax, 1
  0001c	74 0c		 je	 SHORT $LN1@scalar
  0001e	8b 4d fc	 mov	 ecx, DWORD PTR _this$[ebp]
  00021	51		 push	 ecx
  00022	e8 00 00 00 00	 call	 ??3@YAXPAX@Z		; operator delete
  00027	83 c4 04	 add	 esp, 4
$LN1@scalar:
  0002a	8b 45 fc	 mov	 eax, DWORD PTR _this$[ebp]
  0002d	83 c4 04	 add	 esp, 4
  00030	3b ec		 cmp	 ebp, esp
  00032	e8 00 00 00 00	 call	 __RTC_CheckEsp
  00037	8b e5		 mov	 esp, ebp
  00039	5d		 pop	 ebp
  0003a	c2 04 00	 ret	 4
??_GCUIElementSink@CTsfUiLessMode@@QAEPAXI@Z ENDP	; CTsfUiLessMode::CUIElementSink::`scalar deleting destructor'
_TEXT	ENDS
; Function compile flags: /Odtp /RTCsu
_TEXT	SEGMENT
_this$ = 8						; size = 4
_rguid$ = 12						; size = 4
?OnChange@CUIElementSink@CTsfUiLessMode@@UAGJABU_GUID@@@Z PROC ; CTsfUiLessMode::CUIElementSink::OnChange
; File d:\engine class\assignment 1\new scratch\dxut\optional\imeui.cpp
; Line 2890
  00000	55		 push	 ebp
  00001	8b ec		 mov	 ebp, esp
; Line 2892
  00003	6a 00		 push	 0
  00005	e8 00 00 00 00	 call	 ?UpdateImeState@CTsfUiLessMode@@SAXH@Z ; CTsfUiLessMode::UpdateImeState
  0000a	83 c4 04	 add	 esp, 4
; Line 2893
  0000d	33 c0		 xor	 eax, eax
; Line 2894
  0000f	3b ec		 cmp	 ebp, esp
  00011	e8 00 00 00 00	 call	 __RTC_CheckEsp
  00016	5d		 pop	 ebp
  00017	c2 08 00	 ret	 8
?OnChange@CUIElementSink@CTsfUiLessMode@@UAGJABU_GUID@@@Z ENDP ; CTsfUiLessMode::CUIElementSink::OnChange
_TEXT	ENDS
; Function compile flags: /Odtp /RTCsu
_TEXT	SEGMENT
tv79 = -8						; size = 4
tv68 = -4						; size = 4
_this$ = 8						; size = 4
_dwProfileType$ = 12					; size = 4
_langid$ = 16						; size = 2
_clsid$ = 20						; size = 4
_catid$ = 24						; size = 4
_guidProfile$ = 28					; size = 4
_hkl$ = 32						; size = 4
_dwFlags$ = 36						; size = 4
?OnActivated@CUIElementSink@CTsfUiLessMode@@UAGJKGABU_GUID@@00PAUHKL__@@K@Z PROC ; CTsfUiLessMode::CUIElementSink::OnActivated
; File d:\engine class\assignment 1\new scratch\dxut\optional\imeui.cpp
; Line 2866
  00000	55		 push	 ebp
  00001	8b ec		 mov	 ebp, esp
  00003	83 ec 08	 sub	 esp, 8
  00006	c7 45 f8 cc cc
	cc cc		 mov	 DWORD PTR [ebp-8], -858993460 ; ccccccccH
  0000d	c7 45 fc cc cc
	cc cc		 mov	 DWORD PTR [ebp-4], -858993460 ; ccccccccH
; Line 2874
  00014	8b 45 1c	 mov	 eax, DWORD PTR _guidProfile$[ebp]
  00017	50		 push	 eax
  00018	68 00 00 00 00	 push	 OFFSET ?s_TF_PROFILE_DAYI@?1??OnActivated@CUIElementSink@CTsfUiLessMode@@UAGJKGABU_GUID@@00PAUHKL__@@K@Z@4U4@A
  0001d	e8 00 00 00 00	 call	 _IsEqualGUID
  00022	83 c4 08	 add	 esp, 8
  00025	85 c0		 test	 eax, eax
  00027	74 09		 je	 SHORT $LN6@OnActivate
  00029	c7 45 fc 00 00
	00 00		 mov	 DWORD PTR tv68[ebp], 0
  00030	eb 07		 jmp	 SHORT $LN7@OnActivate
$LN6@OnActivate:
  00032	c7 45 fc 01 00
	00 00		 mov	 DWORD PTR tv68[ebp], 1
$LN7@OnActivate:
  00039	8b 4d fc	 mov	 ecx, DWORD PTR tv68[ebp]
  0003c	89 0d 00 00 00
	00		 mov	 DWORD PTR _g_iCandListIndexBase, ecx
; Line 2875
  00042	68 00 00 00 00	 push	 OFFSET _GUID_TFCAT_TIP_KEYBOARD
  00047	8b 55 18	 mov	 edx, DWORD PTR _catid$[ebp]
  0004a	52		 push	 edx
  0004b	e8 00 00 00 00	 call	 _IsEqualGUID
  00050	83 c4 08	 add	 esp, 8
  00053	85 c0		 test	 eax, eax
  00055	74 57		 je	 SHORT $LN3@OnActivate
  00057	8b 45 24	 mov	 eax, DWORD PTR _dwFlags$[ebp]
  0005a	83 e0 01	 and	 eax, 1
  0005d	74 4f		 je	 SHORT $LN3@OnActivate
; Line 2877
  0005f	8b 4d 0c	 mov	 ecx, DWORD PTR _dwProfileType$[ebp]
  00062	83 e1 01	 and	 ecx, 1
  00065	74 15		 je	 SHORT $LN8@OnActivate
  00067	0f b7 55 10	 movzx	 edx, WORD PTR _langid$[ebp]
  0006b	81 fa 04 04 00
	00		 cmp	 edx, 1028		; 00000404H
  00071	75 09		 jne	 SHORT $LN8@OnActivate
  00073	c7 45 f8 01 00
	00 00		 mov	 DWORD PTR tv79[ebp], 1
  0007a	eb 07		 jmp	 SHORT $LN9@OnActivate
$LN8@OnActivate:
  0007c	c7 45 f8 00 00
	00 00		 mov	 DWORD PTR tv79[ebp], 0
$LN9@OnActivate:
  00083	8a 45 f8	 mov	 al, BYTE PTR tv79[ebp]
  00086	a2 00 00 00 00	 mov	 BYTE PTR _g_bChineseIME, al
; Line 2878
  0008b	8b 4d 0c	 mov	 ecx, DWORD PTR _dwProfileType$[ebp]
  0008e	83 e1 01	 and	 ecx, 1
  00091	74 0c		 je	 SHORT $LN2@OnActivate
; Line 2880
  00093	6a 01		 push	 1
  00095	e8 00 00 00 00	 call	 ?UpdateImeState@CTsfUiLessMode@@SAXH@Z ; CTsfUiLessMode::UpdateImeState
  0009a	83 c4 04	 add	 esp, 4
; Line 2882
  0009d	eb 0a		 jmp	 SHORT $LN1@OnActivate
$LN2@OnActivate:
; Line 2883
  0009f	c7 05 00 00 00
	00 00 00 00 00	 mov	 DWORD PTR _g_dwState, 0
$LN1@OnActivate:
; Line 2884
  000a9	e8 00 00 00 00	 call	 ?OnInputLangChange@@YAXXZ ; OnInputLangChange
$LN3@OnActivate:
; Line 2886
  000ae	33 c0		 xor	 eax, eax
; Line 2887
  000b0	83 c4 08	 add	 esp, 8
  000b3	3b ec		 cmp	 ebp, esp
  000b5	e8 00 00 00 00	 call	 __RTC_CheckEsp
  000ba	8b e5		 mov	 esp, ebp
  000bc	5d		 pop	 ebp
  000bd	c2 20 00	 ret	 32			; 00000020H
?OnActivated@CUIElementSink@CTsfUiLessMode@@UAGJKGABU_GUID@@00PAUHKL__@@K@Z ENDP ; CTsfUiLessMode::CUIElementSink::OnActivated
_TEXT	ENDS
; Function compile flags: /Odtp /RTCsu
_TEXT	SEGMENT
_pcandidate$ = -24					; size = 4
_preading$ = -12					; size = 4
_pElement$ = -4						; size = 4
_this$ = 8						; size = 4
_dwUIElementId$ = 12					; size = 4
?EndUIElement@CUIElementSink@CTsfUiLessMode@@UAGJK@Z PROC ; CTsfUiLessMode::CUIElementSink::EndUIElement
; File d:\engine class\assignment 1\new scratch\dxut\optional\imeui.cpp
; Line 2798
  00000	55		 push	 ebp
  00001	8b ec		 mov	 ebp, esp
  00003	83 ec 1c	 sub	 esp, 28			; 0000001cH
  00006	56		 push	 esi
  00007	b8 cc cc cc cc	 mov	 eax, -858993460		; ccccccccH
  0000c	89 45 e4	 mov	 DWORD PTR [ebp-28], eax
  0000f	89 45 e8	 mov	 DWORD PTR [ebp-24], eax
  00012	89 45 ec	 mov	 DWORD PTR [ebp-20], eax
  00015	89 45 f0	 mov	 DWORD PTR [ebp-16], eax
  00018	89 45 f4	 mov	 DWORD PTR [ebp-12], eax
  0001b	89 45 f8	 mov	 DWORD PTR [ebp-8], eax
  0001e	89 45 fc	 mov	 DWORD PTR [ebp-4], eax
; Line 2799
  00021	8b 45 0c	 mov	 eax, DWORD PTR _dwUIElementId$[ebp]
  00024	50		 push	 eax
  00025	e8 00 00 00 00	 call	 ?GetUIElement@CTsfUiLessMode@@KAPAUITfUIElement@@K@Z ; CTsfUiLessMode::GetUIElement
  0002a	83 c4 04	 add	 esp, 4
  0002d	89 45 fc	 mov	 DWORD PTR _pElement$[ebp], eax
; Line 2800
  00030	83 7d fc 00	 cmp	 DWORD PTR _pElement$[ebp], 0
  00034	75 0a		 jne	 SHORT $LN4@EndUIEleme
; Line 2801
  00036	b8 57 00 07 80	 mov	 eax, -2147024809	; 80070057H
  0003b	e9 c6 00 00 00	 jmp	 $LN5@EndUIEleme
$LN4@EndUIEleme:
; Line 2803
  00040	c7 45 f4 00 00
	00 00		 mov	 DWORD PTR _preading$[ebp], 0
; Line 2805
  00047	0f b6 0d 00 00
	00 00		 movzx	 ecx, BYTE PTR _g_bCandList
  0004e	85 c9		 test	 ecx, ecx
  00050	75 44		 jne	 SHORT $LN3@EndUIEleme
  00052	8b f4		 mov	 esi, esp
  00054	8d 55 f4	 lea	 edx, DWORD PTR _preading$[ebp]
  00057	52		 push	 edx
  00058	68 00 00 00 00	 push	 OFFSET __GUID_ea1ea139_19df_11d7_a6d2_00065b84435c
  0005d	8b 45 fc	 mov	 eax, DWORD PTR _pElement$[ebp]
  00060	8b 08		 mov	 ecx, DWORD PTR [eax]
  00062	8b 55 fc	 mov	 edx, DWORD PTR _pElement$[ebp]
  00065	52		 push	 edx
  00066	8b 01		 mov	 eax, DWORD PTR [ecx]
  00068	ff d0		 call	 eax
  0006a	3b f4		 cmp	 esi, esp
  0006c	e8 00 00 00 00	 call	 __RTC_CheckEsp
  00071	85 c0		 test	 eax, eax
  00073	7c 21		 jl	 SHORT $LN3@EndUIEleme
; Line 2807
  00075	c7 05 00 00 00
	00 00 00 00 00	 mov	 DWORD PTR _g_dwCount, 0
; Line 2808
  0007f	8b 4d f4	 mov	 ecx, DWORD PTR _preading$[ebp]
  00082	8b 11		 mov	 edx, DWORD PTR [ecx]
  00084	8b f4		 mov	 esi, esp
  00086	8b 45 f4	 mov	 eax, DWORD PTR _preading$[ebp]
  00089	50		 push	 eax
  0008a	8b 4a 08	 mov	 ecx, DWORD PTR [edx+8]
  0008d	ff d1		 call	 ecx
  0008f	3b f4		 cmp	 esi, esp
  00091	e8 00 00 00 00	 call	 __RTC_CheckEsp
$LN3@EndUIEleme:
; Line 2811
  00096	c7 45 e8 00 00
	00 00		 mov	 DWORD PTR _pcandidate$[ebp], 0
; Line 2813
  0009d	8b f4		 mov	 esi, esp
  0009f	8d 55 e8	 lea	 edx, DWORD PTR _pcandidate$[ebp]
  000a2	52		 push	 edx
  000a3	68 00 00 00 00	 push	 OFFSET __GUID_ea1ea138_19df_11d7_a6d2_00065b84435c
  000a8	8b 45 fc	 mov	 eax, DWORD PTR _pElement$[ebp]
  000ab	8b 08		 mov	 ecx, DWORD PTR [eax]
  000ad	8b 55 fc	 mov	 edx, DWORD PTR _pElement$[ebp]
  000b0	52		 push	 edx
  000b1	8b 01		 mov	 eax, DWORD PTR [ecx]
  000b3	ff d0		 call	 eax
  000b5	3b f4		 cmp	 esi, esp
  000b7	e8 00 00 00 00	 call	 __RTC_CheckEsp
  000bc	85 c0		 test	 eax, eax
  000be	7c 2d		 jl	 SHORT $LN2@EndUIEleme
; Line 2815
  000c0	8b 0d 00 00 00
	00		 mov	 ecx, DWORD PTR ?m_nCandidateRefCount@CTsfUiLessMode@@1HA ; CTsfUiLessMode::m_nCandidateRefCount
  000c6	83 e9 01	 sub	 ecx, 1
  000c9	89 0d 00 00 00
	00		 mov	 DWORD PTR ?m_nCandidateRefCount@CTsfUiLessMode@@1HA, ecx ; CTsfUiLessMode::m_nCandidateRefCount
; Line 2816
  000cf	75 05		 jne	 SHORT $LN1@EndUIEleme
; Line 2817
  000d1	e8 00 00 00 00	 call	 ?CloseCandidateList@@YAXXZ ; CloseCandidateList
$LN1@EndUIEleme:
; Line 2818
  000d6	8b 55 e8	 mov	 edx, DWORD PTR _pcandidate$[ebp]
  000d9	8b 02		 mov	 eax, DWORD PTR [edx]
  000db	8b f4		 mov	 esi, esp
  000dd	8b 4d e8	 mov	 ecx, DWORD PTR _pcandidate$[ebp]
  000e0	51		 push	 ecx
  000e1	8b 50 08	 mov	 edx, DWORD PTR [eax+8]
  000e4	ff d2		 call	 edx
  000e6	3b f4		 cmp	 esi, esp
  000e8	e8 00 00 00 00	 call	 __RTC_CheckEsp
$LN2@EndUIEleme:
; Line 2821
  000ed	8b 45 fc	 mov	 eax, DWORD PTR _pElement$[ebp]
  000f0	8b 08		 mov	 ecx, DWORD PTR [eax]
  000f2	8b f4		 mov	 esi, esp
  000f4	8b 55 fc	 mov	 edx, DWORD PTR _pElement$[ebp]
  000f7	52		 push	 edx
  000f8	8b 41 08	 mov	 eax, DWORD PTR [ecx+8]
  000fb	ff d0		 call	 eax
  000fd	3b f4		 cmp	 esi, esp
  000ff	e8 00 00 00 00	 call	 __RTC_CheckEsp
; Line 2822
  00104	33 c0		 xor	 eax, eax
$LN5@EndUIEleme:
; Line 2823
  00106	52		 push	 edx
  00107	8b cd		 mov	 ecx, ebp
  00109	50		 push	 eax
  0010a	8d 15 00 00 00
	00		 lea	 edx, DWORD PTR $LN10@EndUIEleme
  00110	e8 00 00 00 00	 call	 @_RTC_CheckStackVars@8
  00115	58		 pop	 eax
  00116	5a		 pop	 edx
  00117	5e		 pop	 esi
  00118	83 c4 1c	 add	 esp, 28			; 0000001cH
  0011b	3b ec		 cmp	 ebp, esp
  0011d	e8 00 00 00 00	 call	 __RTC_CheckEsp
  00122	8b e5		 mov	 esp, ebp
  00124	5d		 pop	 ebp
  00125	c2 08 00	 ret	 8
$LN10@EndUIEleme:
  00128	02 00 00 00	 DD	 2
  0012c	00 00 00 00	 DD	 $LN9@EndUIEleme
$LN9@EndUIEleme:
  00130	f4 ff ff ff	 DD	 -12			; fffffff4H
  00134	04 00 00 00	 DD	 4
  00138	00 00 00 00	 DD	 $LN7@EndUIEleme
  0013c	e8 ff ff ff	 DD	 -24			; ffffffe8H
  00140	04 00 00 00	 DD	 4
  00144	00 00 00 00	 DD	 $LN8@EndUIEleme
$LN8@EndUIEleme:
  00148	70		 DB	 112			; 00000070H
  00149	63		 DB	 99			; 00000063H
  0014a	61		 DB	 97			; 00000061H
  0014b	6e		 DB	 110			; 0000006eH
  0014c	64		 DB	 100			; 00000064H
  0014d	69		 DB	 105			; 00000069H
  0014e	64		 DB	 100			; 00000064H
  0014f	61		 DB	 97			; 00000061H
  00150	74		 DB	 116			; 00000074H
  00151	65		 DB	 101			; 00000065H
  00152	00		 DB	 0
$LN7@EndUIEleme:
  00153	70		 DB	 112			; 00000070H
  00154	72		 DB	 114			; 00000072H
  00155	65		 DB	 101			; 00000065H
  00156	61		 DB	 97			; 00000061H
  00157	64		 DB	 100			; 00000064H
  00158	69		 DB	 105			; 00000069H
  00159	6e		 DB	 110			; 0000006eH
  0015a	67		 DB	 103			; 00000067H
  0015b	00		 DB	 0
?EndUIElement@CUIElementSink@CTsfUiLessMode@@UAGJK@Z ENDP ; CTsfUiLessMode::CUIElementSink::EndUIElement
_TEXT	ENDS
; Function compile flags: /Odtp /RTCsu
_TEXT	SEGMENT
_pcandidate$ = -24					; size = 4
_preading$ = -12					; size = 4
_pElement$ = -4						; size = 4
_this$ = 8						; size = 4
_dwUIElementId$ = 12					; size = 4
?UpdateUIElement@CUIElementSink@CTsfUiLessMode@@UAGJK@Z PROC ; CTsfUiLessMode::CUIElementSink::UpdateUIElement
; File d:\engine class\assignment 1\new scratch\dxut\optional\imeui.cpp
; Line 2773
  00000	55		 push	 ebp
  00001	8b ec		 mov	 ebp, esp
  00003	83 ec 1c	 sub	 esp, 28			; 0000001cH
  00006	56		 push	 esi
  00007	b8 cc cc cc cc	 mov	 eax, -858993460		; ccccccccH
  0000c	89 45 e4	 mov	 DWORD PTR [ebp-28], eax
  0000f	89 45 e8	 mov	 DWORD PTR [ebp-24], eax
  00012	89 45 ec	 mov	 DWORD PTR [ebp-20], eax
  00015	89 45 f0	 mov	 DWORD PTR [ebp-16], eax
  00018	89 45 f4	 mov	 DWORD PTR [ebp-12], eax
  0001b	89 45 f8	 mov	 DWORD PTR [ebp-8], eax
  0001e	89 45 fc	 mov	 DWORD PTR [ebp-4], eax
; Line 2774
  00021	8b 45 0c	 mov	 eax, DWORD PTR _dwUIElementId$[ebp]
  00024	50		 push	 eax
  00025	e8 00 00 00 00	 call	 ?GetUIElement@CTsfUiLessMode@@KAPAUITfUIElement@@K@Z ; CTsfUiLessMode::GetUIElement
  0002a	83 c4 04	 add	 esp, 4
  0002d	89 45 fc	 mov	 DWORD PTR _pElement$[ebp], eax
; Line 2775
  00030	83 7d fc 00	 cmp	 DWORD PTR _pElement$[ebp], 0
  00034	75 0a		 jne	 SHORT $LN4@UpdateUIEl
; Line 2776
  00036	b8 57 00 07 80	 mov	 eax, -2147024809	; 80070057H
  0003b	e9 c0 00 00 00	 jmp	 $LN5@UpdateUIEl
$LN4@UpdateUIEl:
; Line 2778
  00040	c7 45 f4 00 00
	00 00		 mov	 DWORD PTR _preading$[ebp], 0
; Line 2779
  00047	c7 45 e8 00 00
	00 00		 mov	 DWORD PTR _pcandidate$[ebp], 0
; Line 2781
  0004e	0f b6 0d 00 00
	00 00		 movzx	 ecx, BYTE PTR _g_bCandList
  00055	85 c9		 test	 ecx, ecx
  00057	75 48		 jne	 SHORT $LN3@UpdateUIEl
  00059	8b f4		 mov	 esi, esp
  0005b	8d 55 f4	 lea	 edx, DWORD PTR _preading$[ebp]
  0005e	52		 push	 edx
  0005f	68 00 00 00 00	 push	 OFFSET __GUID_ea1ea139_19df_11d7_a6d2_00065b84435c
  00064	8b 45 fc	 mov	 eax, DWORD PTR _pElement$[ebp]
  00067	8b 08		 mov	 ecx, DWORD PTR [eax]
  00069	8b 55 fc	 mov	 edx, DWORD PTR _pElement$[ebp]
  0006c	52		 push	 edx
  0006d	8b 01		 mov	 eax, DWORD PTR [ecx]
  0006f	ff d0		 call	 eax
  00071	3b f4		 cmp	 esi, esp
  00073	e8 00 00 00 00	 call	 __RTC_CheckEsp
  00078	85 c0		 test	 eax, eax
  0007a	7c 25		 jl	 SHORT $LN3@UpdateUIEl
; Line 2783
  0007c	8b 4d f4	 mov	 ecx, DWORD PTR _preading$[ebp]
  0007f	51		 push	 ecx
  00080	e8 00 00 00 00	 call	 ?MakeReadingInformationString@CTsfUiLessMode@@KAXPAUITfReadingInformationUIElement@@@Z ; CTsfUiLessMode::MakeReadingInformationString
  00085	83 c4 04	 add	 esp, 4
; Line 2784
  00088	8b 55 f4	 mov	 edx, DWORD PTR _preading$[ebp]
  0008b	8b 02		 mov	 eax, DWORD PTR [edx]
  0008d	8b f4		 mov	 esi, esp
  0008f	8b 4d f4	 mov	 ecx, DWORD PTR _preading$[ebp]
  00092	51		 push	 ecx
  00093	8b 50 08	 mov	 edx, DWORD PTR [eax+8]
  00096	ff d2		 call	 edx
  00098	3b f4		 cmp	 esi, esp
  0009a	e8 00 00 00 00	 call	 __RTC_CheckEsp
; Line 2786
  0009f	eb 46		 jmp	 SHORT $LN2@UpdateUIEl
$LN3@UpdateUIEl:
; Line 2787
  000a1	8b f4		 mov	 esi, esp
  000a3	8d 45 e8	 lea	 eax, DWORD PTR _pcandidate$[ebp]
  000a6	50		 push	 eax
  000a7	68 00 00 00 00	 push	 OFFSET __GUID_ea1ea138_19df_11d7_a6d2_00065b84435c
  000ac	8b 4d fc	 mov	 ecx, DWORD PTR _pElement$[ebp]
  000af	8b 11		 mov	 edx, DWORD PTR [ecx]
  000b1	8b 45 fc	 mov	 eax, DWORD PTR _pElement$[ebp]
  000b4	50		 push	 eax
  000b5	8b 0a		 mov	 ecx, DWORD PTR [edx]
  000b7	ff d1		 call	 ecx
  000b9	3b f4		 cmp	 esi, esp
  000bb	e8 00 00 00 00	 call	 __RTC_CheckEsp
  000c0	85 c0		 test	 eax, eax
  000c2	7c 23		 jl	 SHORT $LN2@UpdateUIEl
; Line 2789
  000c4	8b 55 e8	 mov	 edx, DWORD PTR _pcandidate$[ebp]
  000c7	52		 push	 edx
  000c8	e8 00 00 00 00	 call	 ?MakeCandidateStrings@CTsfUiLessMode@@KAXPAUITfCandidateListUIElement@@@Z ; CTsfUiLessMode::MakeCandidateStrings
  000cd	83 c4 04	 add	 esp, 4
; Line 2790
  000d0	8b 45 e8	 mov	 eax, DWORD PTR _pcandidate$[ebp]
  000d3	8b 08		 mov	 ecx, DWORD PTR [eax]
  000d5	8b f4		 mov	 esi, esp
  000d7	8b 55 e8	 mov	 edx, DWORD PTR _pcandidate$[ebp]
  000da	52		 push	 edx
  000db	8b 41 08	 mov	 eax, DWORD PTR [ecx+8]
  000de	ff d0		 call	 eax
  000e0	3b f4		 cmp	 esi, esp
  000e2	e8 00 00 00 00	 call	 __RTC_CheckEsp
$LN2@UpdateUIEl:
; Line 2793
  000e7	8b 4d fc	 mov	 ecx, DWORD PTR _pElement$[ebp]
  000ea	8b 11		 mov	 edx, DWORD PTR [ecx]
  000ec	8b f4		 mov	 esi, esp
  000ee	8b 45 fc	 mov	 eax, DWORD PTR _pElement$[ebp]
  000f1	50		 push	 eax
  000f2	8b 4a 08	 mov	 ecx, DWORD PTR [edx+8]
  000f5	ff d1		 call	 ecx
  000f7	3b f4		 cmp	 esi, esp
  000f9	e8 00 00 00 00	 call	 __RTC_CheckEsp
; Line 2794
  000fe	33 c0		 xor	 eax, eax
$LN5@UpdateUIEl:
; Line 2795
  00100	52		 push	 edx
  00101	8b cd		 mov	 ecx, ebp
  00103	50		 push	 eax
  00104	8d 15 00 00 00
	00		 lea	 edx, DWORD PTR $LN10@UpdateUIEl
  0010a	e8 00 00 00 00	 call	 @_RTC_CheckStackVars@8
  0010f	58		 pop	 eax
  00110	5a		 pop	 edx
  00111	5e		 pop	 esi
  00112	83 c4 1c	 add	 esp, 28			; 0000001cH
  00115	3b ec		 cmp	 ebp, esp
  00117	e8 00 00 00 00	 call	 __RTC_CheckEsp
  0011c	8b e5		 mov	 esp, ebp
  0011e	5d		 pop	 ebp
  0011f	c2 08 00	 ret	 8
  00122	8b ff		 npad	 2
$LN10@UpdateUIEl:
  00124	02 00 00 00	 DD	 2
  00128	00 00 00 00	 DD	 $LN9@UpdateUIEl
$LN9@UpdateUIEl:
  0012c	f4 ff ff ff	 DD	 -12			; fffffff4H
  00130	04 00 00 00	 DD	 4
  00134	00 00 00 00	 DD	 $LN7@UpdateUIEl
  00138	e8 ff ff ff	 DD	 -24			; ffffffe8H
  0013c	04 00 00 00	 DD	 4
  00140	00 00 00 00	 DD	 $LN8@UpdateUIEl
$LN8@UpdateUIEl:
  00144	70		 DB	 112			; 00000070H
  00145	63		 DB	 99			; 00000063H
  00146	61		 DB	 97			; 00000061H
  00147	6e		 DB	 110			; 0000006eH
  00148	64		 DB	 100			; 00000064H
  00149	69		 DB	 105			; 00000069H
  0014a	64		 DB	 100			; 00000064H
  0014b	61		 DB	 97			; 00000061H
  0014c	74		 DB	 116			; 00000074H
  0014d	65		 DB	 101			; 00000065H
  0014e	00		 DB	 0
$LN7@UpdateUIEl:
  0014f	70		 DB	 112			; 00000070H
  00150	72		 DB	 114			; 00000072H
  00151	65		 DB	 101			; 00000065H
  00152	61		 DB	 97			; 00000061H
  00153	64		 DB	 100			; 00000064H
  00154	69		 DB	 105			; 00000069H
  00155	6e		 DB	 110			; 0000006eH
  00156	67		 DB	 103			; 00000067H
  00157	00		 DB	 0
?UpdateUIElement@CUIElementSink@CTsfUiLessMode@@UAGJK@Z ENDP ; CTsfUiLessMode::CUIElementSink::UpdateUIElement
_TEXT	ENDS
; Function compile flags: /Odtp /RTCsu
_TEXT	SEGMENT
_pcandidate$ = -24					; size = 4
_preading$ = -12					; size = 4
_pElement$ = -4						; size = 4
_this$ = 8						; size = 4
_dwUIElementId$ = 12					; size = 4
_pbShow$ = 16						; size = 4
?BeginUIElement@CUIElementSink@CTsfUiLessMode@@UAGJKPAH@Z PROC ; CTsfUiLessMode::CUIElementSink::BeginUIElement
; File d:\engine class\assignment 1\new scratch\dxut\optional\imeui.cpp
; Line 2746
  00000	55		 push	 ebp
  00001	8b ec		 mov	 ebp, esp
  00003	83 ec 1c	 sub	 esp, 28			; 0000001cH
  00006	56		 push	 esi
  00007	b8 cc cc cc cc	 mov	 eax, -858993460		; ccccccccH
  0000c	89 45 e4	 mov	 DWORD PTR [ebp-28], eax
  0000f	89 45 e8	 mov	 DWORD PTR [ebp-24], eax
  00012	89 45 ec	 mov	 DWORD PTR [ebp-20], eax
  00015	89 45 f0	 mov	 DWORD PTR [ebp-16], eax
  00018	89 45 f4	 mov	 DWORD PTR [ebp-12], eax
  0001b	89 45 f8	 mov	 DWORD PTR [ebp-8], eax
  0001e	89 45 fc	 mov	 DWORD PTR [ebp-4], eax
; Line 2747
  00021	8b 45 0c	 mov	 eax, DWORD PTR _dwUIElementId$[ebp]
  00024	50		 push	 eax
  00025	e8 00 00 00 00	 call	 ?GetUIElement@CTsfUiLessMode@@KAPAUITfUIElement@@K@Z ; CTsfUiLessMode::GetUIElement
  0002a	83 c4 04	 add	 esp, 4
  0002d	89 45 fc	 mov	 DWORD PTR _pElement$[ebp], eax
; Line 2748
  00030	83 7d fc 00	 cmp	 DWORD PTR _pElement$[ebp], 0
  00034	75 0a		 jne	 SHORT $LN4@BeginUIEle
; Line 2749
  00036	b8 57 00 07 80	 mov	 eax, -2147024809	; 80070057H
  0003b	e9 d6 00 00 00	 jmp	 $LN5@BeginUIEle
$LN4@BeginUIEle:
; Line 2751
  00040	c7 45 f4 00 00
	00 00		 mov	 DWORD PTR _preading$[ebp], 0
; Line 2752
  00047	c7 45 e8 00 00
	00 00		 mov	 DWORD PTR _pcandidate$[ebp], 0
; Line 2753
  0004e	8b 4d 10	 mov	 ecx, DWORD PTR _pbShow$[ebp]
  00051	c7 01 00 00 00
	00		 mov	 DWORD PTR [ecx], 0
; Line 2755
  00057	0f b6 15 00 00
	00 00		 movzx	 edx, BYTE PTR _g_bCandList
  0005e	85 d2		 test	 edx, edx
  00060	75 48		 jne	 SHORT $LN3@BeginUIEle
  00062	8b f4		 mov	 esi, esp
  00064	8d 45 f4	 lea	 eax, DWORD PTR _preading$[ebp]
  00067	50		 push	 eax
  00068	68 00 00 00 00	 push	 OFFSET __GUID_ea1ea139_19df_11d7_a6d2_00065b84435c
  0006d	8b 4d fc	 mov	 ecx, DWORD PTR _pElement$[ebp]
  00070	8b 11		 mov	 edx, DWORD PTR [ecx]
  00072	8b 45 fc	 mov	 eax, DWORD PTR _pElement$[ebp]
  00075	50		 push	 eax
  00076	8b 0a		 mov	 ecx, DWORD PTR [edx]
  00078	ff d1		 call	 ecx
  0007a	3b f4		 cmp	 esi, esp
  0007c	e8 00 00 00 00	 call	 __RTC_CheckEsp
  00081	85 c0		 test	 eax, eax
  00083	7c 25		 jl	 SHORT $LN3@BeginUIEle
; Line 2757
  00085	8b 55 f4	 mov	 edx, DWORD PTR _preading$[ebp]
  00088	52		 push	 edx
  00089	e8 00 00 00 00	 call	 ?MakeReadingInformationString@CTsfUiLessMode@@KAXPAUITfReadingInformationUIElement@@@Z ; CTsfUiLessMode::MakeReadingInformationString
  0008e	83 c4 04	 add	 esp, 4
; Line 2758
  00091	8b 45 f4	 mov	 eax, DWORD PTR _preading$[ebp]
  00094	8b 08		 mov	 ecx, DWORD PTR [eax]
  00096	8b f4		 mov	 esi, esp
  00098	8b 55 f4	 mov	 edx, DWORD PTR _preading$[ebp]
  0009b	52		 push	 edx
  0009c	8b 41 08	 mov	 eax, DWORD PTR [ecx+8]
  0009f	ff d0		 call	 eax
  000a1	3b f4		 cmp	 esi, esp
  000a3	e8 00 00 00 00	 call	 __RTC_CheckEsp
; Line 2760
  000a8	eb 53		 jmp	 SHORT $LN2@BeginUIEle
$LN3@BeginUIEle:
; Line 2761
  000aa	8b f4		 mov	 esi, esp
  000ac	8d 4d e8	 lea	 ecx, DWORD PTR _pcandidate$[ebp]
  000af	51		 push	 ecx
  000b0	68 00 00 00 00	 push	 OFFSET __GUID_ea1ea138_19df_11d7_a6d2_00065b84435c
  000b5	8b 55 fc	 mov	 edx, DWORD PTR _pElement$[ebp]
  000b8	8b 02		 mov	 eax, DWORD PTR [edx]
  000ba	8b 4d fc	 mov	 ecx, DWORD PTR _pElement$[ebp]
  000bd	51		 push	 ecx
  000be	8b 10		 mov	 edx, DWORD PTR [eax]
  000c0	ff d2		 call	 edx
  000c2	3b f4		 cmp	 esi, esp
  000c4	e8 00 00 00 00	 call	 __RTC_CheckEsp
  000c9	85 c0		 test	 eax, eax
  000cb	7c 30		 jl	 SHORT $LN2@BeginUIEle
; Line 2763
  000cd	a1 00 00 00 00	 mov	 eax, DWORD PTR ?m_nCandidateRefCount@CTsfUiLessMode@@1HA ; CTsfUiLessMode::m_nCandidateRefCount
  000d2	83 c0 01	 add	 eax, 1
  000d5	a3 00 00 00 00	 mov	 DWORD PTR ?m_nCandidateRefCount@CTsfUiLessMode@@1HA, eax ; CTsfUiLessMode::m_nCandidateRefCount
; Line 2764
  000da	8b 4d e8	 mov	 ecx, DWORD PTR _pcandidate$[ebp]
  000dd	51		 push	 ecx
  000de	e8 00 00 00 00	 call	 ?MakeCandidateStrings@CTsfUiLessMode@@KAXPAUITfCandidateListUIElement@@@Z ; CTsfUiLessMode::MakeCandidateStrings
  000e3	83 c4 04	 add	 esp, 4
; Line 2765
  000e6	8b 55 e8	 mov	 edx, DWORD PTR _pcandidate$[ebp]
  000e9	8b 02		 mov	 eax, DWORD PTR [edx]
  000eb	8b f4		 mov	 esi, esp
  000ed	8b 4d e8	 mov	 ecx, DWORD PTR _pcandidate$[ebp]
  000f0	51		 push	 ecx
  000f1	8b 50 08	 mov	 edx, DWORD PTR [eax+8]
  000f4	ff d2		 call	 edx
  000f6	3b f4		 cmp	 esi, esp
  000f8	e8 00 00 00 00	 call	 __RTC_CheckEsp
$LN2@BeginUIEle:
; Line 2768
  000fd	8b 45 fc	 mov	 eax, DWORD PTR _pElement$[ebp]
  00100	8b 08		 mov	 ecx, DWORD PTR [eax]
  00102	8b f4		 mov	 esi, esp
  00104	8b 55 fc	 mov	 edx, DWORD PTR _pElement$[ebp]
  00107	52		 push	 edx
  00108	8b 41 08	 mov	 eax, DWORD PTR [ecx+8]
  0010b	ff d0		 call	 eax
  0010d	3b f4		 cmp	 esi, esp
  0010f	e8 00 00 00 00	 call	 __RTC_CheckEsp
; Line 2769
  00114	33 c0		 xor	 eax, eax
$LN5@BeginUIEle:
; Line 2770
  00116	52		 push	 edx
  00117	8b cd		 mov	 ecx, ebp
  00119	50		 push	 eax
  0011a	8d 15 00 00 00
	00		 lea	 edx, DWORD PTR $LN10@BeginUIEle
  00120	e8 00 00 00 00	 call	 @_RTC_CheckStackVars@8
  00125	58		 pop	 eax
  00126	5a		 pop	 edx
  00127	5e		 pop	 esi
  00128	83 c4 1c	 add	 esp, 28			; 0000001cH
  0012b	3b ec		 cmp	 ebp, esp
  0012d	e8 00 00 00 00	 call	 __RTC_CheckEsp
  00132	8b e5		 mov	 esp, ebp
  00134	5d		 pop	 ebp
  00135	c2 0c 00	 ret	 12			; 0000000cH
$LN10@BeginUIEle:
  00138	02 00 00 00	 DD	 2
  0013c	00 00 00 00	 DD	 $LN9@BeginUIEle
$LN9@BeginUIEle:
  00140	f4 ff ff ff	 DD	 -12			; fffffff4H
  00144	04 00 00 00	 DD	 4
  00148	00 00 00 00	 DD	 $LN7@BeginUIEle
  0014c	e8 ff ff ff	 DD	 -24			; ffffffe8H
  00150	04 00 00 00	 DD	 4
  00154	00 00 00 00	 DD	 $LN8@BeginUIEle
$LN8@BeginUIEle:
  00158	70		 DB	 112			; 00000070H
  00159	63		 DB	 99			; 00000063H
  0015a	61		 DB	 97			; 00000061H
  0015b	6e		 DB	 110			; 0000006eH
  0015c	64		 DB	 100			; 00000064H
  0015d	69		 DB	 105			; 00000069H
  0015e	64		 DB	 100			; 00000064H
  0015f	61		 DB	 97			; 00000061H
  00160	74		 DB	 116			; 00000074H
  00161	65		 DB	 101			; 00000065H
  00162	00		 DB	 0
$LN7@BeginUIEle:
  00163	70		 DB	 112			; 00000070H
  00164	72		 DB	 114			; 00000072H
  00165	65		 DB	 101			; 00000065H
  00166	61		 DB	 97			; 00000061H
  00167	64		 DB	 100			; 00000064H
  00168	69		 DB	 105			; 00000069H
  00169	6e		 DB	 110			; 0000006eH
  0016a	67		 DB	 103			; 00000067H
  0016b	00		 DB	 0
?BeginUIElement@CUIElementSink@CTsfUiLessMode@@UAGJKPAH@Z ENDP ; CTsfUiLessMode::CUIElementSink::BeginUIElement
_TEXT	ENDS
; Function compile flags: /Odtp /RTCsu
_TEXT	SEGMENT
tv73 = -20						; size = 4
tv66 = -16						; size = 4
$T1 = -12						; size = 4
$T2 = -8						; size = 4
_cr$ = -4						; size = 4
_this$ = 8						; size = 4
?Release@CUIElementSink@CTsfUiLessMode@@UAGKXZ PROC	; CTsfUiLessMode::CUIElementSink::Release
; File d:\engine class\assignment 1\new scratch\dxut\optional\imeui.cpp
; Line 2734
  00000	55		 push	 ebp
  00001	8b ec		 mov	 ebp, esp
  00003	83 ec 14	 sub	 esp, 20			; 00000014H
  00006	b8 cc cc cc cc	 mov	 eax, -858993460		; ccccccccH
  0000b	89 45 ec	 mov	 DWORD PTR [ebp-20], eax
  0000e	89 45 f0	 mov	 DWORD PTR [ebp-16], eax
  00011	89 45 f4	 mov	 DWORD PTR [ebp-12], eax
  00014	89 45 f8	 mov	 DWORD PTR [ebp-8], eax
  00017	89 45 fc	 mov	 DWORD PTR [ebp-4], eax
; Line 2735
  0001a	8b 45 08	 mov	 eax, DWORD PTR _this$[ebp]
  0001d	8b 48 0c	 mov	 ecx, DWORD PTR [eax+12]
  00020	83 e9 01	 sub	 ecx, 1
  00023	89 4d f0	 mov	 DWORD PTR tv66[ebp], ecx
  00026	8b 55 08	 mov	 edx, DWORD PTR _this$[ebp]
  00029	8b 45 f0	 mov	 eax, DWORD PTR tv66[ebp]
  0002c	89 42 0c	 mov	 DWORD PTR [edx+12], eax
  0002f	8b 4d f0	 mov	 ecx, DWORD PTR tv66[ebp]
  00032	89 4d fc	 mov	 DWORD PTR _cr$[ebp], ecx
; Line 2737
  00035	8b 55 08	 mov	 edx, DWORD PTR _this$[ebp]
  00038	83 7a 0c 00	 cmp	 DWORD PTR [edx+12], 0
  0003c	75 28		 jne	 SHORT $LN1@Release
; Line 2739
  0003e	8b 45 08	 mov	 eax, DWORD PTR _this$[ebp]
  00041	89 45 f4	 mov	 DWORD PTR $T1[ebp], eax
  00044	8b 4d f4	 mov	 ecx, DWORD PTR $T1[ebp]
  00047	89 4d f8	 mov	 DWORD PTR $T2[ebp], ecx
  0004a	83 7d f8 00	 cmp	 DWORD PTR $T2[ebp], 0
  0004e	74 0f		 je	 SHORT $LN4@Release
  00050	6a 01		 push	 1
  00052	8b 4d f8	 mov	 ecx, DWORD PTR $T2[ebp]
  00055	e8 00 00 00 00	 call	 ??_GCUIElementSink@CTsfUiLessMode@@QAEPAXI@Z
  0005a	89 45 ec	 mov	 DWORD PTR tv73[ebp], eax
  0005d	eb 07		 jmp	 SHORT $LN1@Release
$LN4@Release:
  0005f	c7 45 ec 00 00
	00 00		 mov	 DWORD PTR tv73[ebp], 0
$LN1@Release:
; Line 2742
  00066	8b 45 fc	 mov	 eax, DWORD PTR _cr$[ebp]
; Line 2743
  00069	83 c4 14	 add	 esp, 20			; 00000014H
  0006c	3b ec		 cmp	 ebp, esp
  0006e	e8 00 00 00 00	 call	 __RTC_CheckEsp
  00073	8b e5		 mov	 esp, ebp
  00075	5d		 pop	 ebp
  00076	c2 04 00	 ret	 4
?Release@CUIElementSink@CTsfUiLessMode@@UAGKXZ ENDP	; CTsfUiLessMode::CUIElementSink::Release
_TEXT	ENDS
; Function compile flags: /Odtp /RTCsu
_TEXT	SEGMENT
tv66 = -4						; size = 4
_this$ = 8						; size = 4
?AddRef@CUIElementSink@CTsfUiLessMode@@UAGKXZ PROC	; CTsfUiLessMode::CUIElementSink::AddRef
; File d:\engine class\assignment 1\new scratch\dxut\optional\imeui.cpp
; Line 2728
  00000	55		 push	 ebp
  00001	8b ec		 mov	 ebp, esp
  00003	51		 push	 ecx
  00004	c7 45 fc cc cc
	cc cc		 mov	 DWORD PTR [ebp-4], -858993460 ; ccccccccH
; Line 2729
  0000b	8b 45 08	 mov	 eax, DWORD PTR _this$[ebp]
  0000e	8b 48 0c	 mov	 ecx, DWORD PTR [eax+12]
  00011	83 c1 01	 add	 ecx, 1
  00014	89 4d fc	 mov	 DWORD PTR tv66[ebp], ecx
  00017	8b 55 08	 mov	 edx, DWORD PTR _this$[ebp]
  0001a	8b 45 fc	 mov	 eax, DWORD PTR tv66[ebp]
  0001d	89 42 0c	 mov	 DWORD PTR [edx+12], eax
  00020	8b 45 fc	 mov	 eax, DWORD PTR tv66[ebp]
; Line 2730
  00023	8b e5		 mov	 esp, ebp
  00025	5d		 pop	 ebp
  00026	c2 04 00	 ret	 4
?AddRef@CUIElementSink@CTsfUiLessMode@@UAGKXZ ENDP	; CTsfUiLessMode::CUIElementSink::AddRef
_TEXT	ENDS
; Function compile flags: /Odtp /RTCsu
_TEXT	SEGMENT
tv135 = -8						; size = 4
tv93 = -4						; size = 4
_this$ = 8						; size = 4
_riid$ = 12						; size = 4
_ppvObj$ = 16						; size = 4
?QueryInterface@CUIElementSink@CTsfUiLessMode@@UAGJABU_GUID@@PAPAX@Z PROC ; CTsfUiLessMode::CUIElementSink::QueryInterface
; File d:\engine class\assignment 1\new scratch\dxut\optional\imeui.cpp
; Line 2694
  00000	55		 push	 ebp
  00001	8b ec		 mov	 ebp, esp
  00003	83 ec 08	 sub	 esp, 8
  00006	56		 push	 esi
  00007	c7 45 f8 cc cc
	cc cc		 mov	 DWORD PTR [ebp-8], -858993460 ; ccccccccH
  0000e	c7 45 fc cc cc
	cc cc		 mov	 DWORD PTR [ebp-4], -858993460 ; ccccccccH
; Line 2695
  00015	83 7d 10 00	 cmp	 DWORD PTR _ppvObj$[ebp], 0
  00019	75 0a		 jne	 SHORT $LN9@QueryInter
; Line 2696
  0001b	b8 57 00 07 80	 mov	 eax, -2147024809	; 80070057H
  00020	e9 de 00 00 00	 jmp	 $LN10@QueryInter
$LN9@QueryInter:
; Line 2698
  00025	8b 45 10	 mov	 eax, DWORD PTR _ppvObj$[ebp]
  00028	c7 00 00 00 00
	00		 mov	 DWORD PTR [eax], 0
; Line 2700
  0002e	68 00 00 00 00	 push	 OFFSET _IID_IUnknown
  00033	8b 4d 0c	 mov	 ecx, DWORD PTR _riid$[ebp]
  00036	51		 push	 ecx
  00037	e8 00 00 00 00	 call	 _IsEqualGUID
  0003c	83 c4 08	 add	 esp, 8
  0003f	85 c0		 test	 eax, eax
  00041	74 0d		 je	 SHORT $LN8@QueryInter
; Line 2702
  00043	8b 55 10	 mov	 edx, DWORD PTR _ppvObj$[ebp]
  00046	8b 45 08	 mov	 eax, DWORD PTR _this$[ebp]
  00049	89 02		 mov	 DWORD PTR [edx], eax
  0004b	e9 8b 00 00 00	 jmp	 $LN7@QueryInter
$LN8@QueryInter:
; Line 2704
  00050	68 00 00 00 00	 push	 OFFSET __GUID_ea1ea136_19df_11d7_a6d2_00065b84435c
  00055	8b 4d 0c	 mov	 ecx, DWORD PTR _riid$[ebp]
  00058	51		 push	 ecx
  00059	e8 00 00 00 00	 call	 _IsEqualGUID
  0005e	83 c4 08	 add	 esp, 8
  00061	85 c0		 test	 eax, eax
  00063	74 0a		 je	 SHORT $LN6@QueryInter
; Line 2706
  00065	8b 55 10	 mov	 edx, DWORD PTR _ppvObj$[ebp]
  00068	8b 45 08	 mov	 eax, DWORD PTR _this$[ebp]
  0006b	89 02		 mov	 DWORD PTR [edx], eax
  0006d	eb 6c		 jmp	 SHORT $LN7@QueryInter
$LN6@QueryInter:
; Line 2708
  0006f	68 00 00 00 00	 push	 OFFSET __GUID_71c6e74e_0f28_11d8_a82a_00065b84435c
  00074	8b 4d 0c	 mov	 ecx, DWORD PTR _riid$[ebp]
  00077	51		 push	 ecx
  00078	e8 00 00 00 00	 call	 _IsEqualGUID
  0007d	83 c4 08	 add	 esp, 8
  00080	85 c0		 test	 eax, eax
  00082	74 22		 je	 SHORT $LN4@QueryInter
; Line 2710
  00084	83 7d 08 00	 cmp	 DWORD PTR _this$[ebp], 0
  00088	74 0b		 je	 SHORT $LN12@QueryInter
  0008a	8b 55 08	 mov	 edx, DWORD PTR _this$[ebp]
  0008d	83 c2 04	 add	 edx, 4
  00090	89 55 fc	 mov	 DWORD PTR tv93[ebp], edx
  00093	eb 07		 jmp	 SHORT $LN13@QueryInter
$LN12@QueryInter:
  00095	c7 45 fc 00 00
	00 00		 mov	 DWORD PTR tv93[ebp], 0
$LN13@QueryInter:
  0009c	8b 45 10	 mov	 eax, DWORD PTR _ppvObj$[ebp]
  0009f	8b 4d fc	 mov	 ecx, DWORD PTR tv93[ebp]
  000a2	89 08		 mov	 DWORD PTR [eax], ecx
  000a4	eb 35		 jmp	 SHORT $LN7@QueryInter
$LN4@QueryInter:
; Line 2712
  000a6	68 00 00 00 00	 push	 OFFSET __GUID_743abd5f_f26d_48df_8cc5_238492419b64
  000ab	8b 55 0c	 mov	 edx, DWORD PTR _riid$[ebp]
  000ae	52		 push	 edx
  000af	e8 00 00 00 00	 call	 _IsEqualGUID
  000b4	83 c4 08	 add	 esp, 8
  000b7	85 c0		 test	 eax, eax
  000b9	74 20		 je	 SHORT $LN7@QueryInter
; Line 2714
  000bb	83 7d 08 00	 cmp	 DWORD PTR _this$[ebp], 0
  000bf	74 0b		 je	 SHORT $LN14@QueryInter
  000c1	8b 45 08	 mov	 eax, DWORD PTR _this$[ebp]
  000c4	83 c0 08	 add	 eax, 8
  000c7	89 45 f8	 mov	 DWORD PTR tv135[ebp], eax
  000ca	eb 07		 jmp	 SHORT $LN15@QueryInter
$LN14@QueryInter:
  000cc	c7 45 f8 00 00
	00 00		 mov	 DWORD PTR tv135[ebp], 0
$LN15@QueryInter:
  000d3	8b 4d 10	 mov	 ecx, DWORD PTR _ppvObj$[ebp]
  000d6	8b 55 f8	 mov	 edx, DWORD PTR tv135[ebp]
  000d9	89 11		 mov	 DWORD PTR [ecx], edx
$LN7@QueryInter:
; Line 2717
  000db	8b 45 10	 mov	 eax, DWORD PTR _ppvObj$[ebp]
  000de	83 38 00	 cmp	 DWORD PTR [eax], 0
  000e1	74 1b		 je	 SHORT $LN1@QueryInter
; Line 2719
  000e3	8b 4d 08	 mov	 ecx, DWORD PTR _this$[ebp]
  000e6	8b 11		 mov	 edx, DWORD PTR [ecx]
  000e8	8b f4		 mov	 esi, esp
  000ea	8b 45 08	 mov	 eax, DWORD PTR _this$[ebp]
  000ed	50		 push	 eax
  000ee	8b 4a 04	 mov	 ecx, DWORD PTR [edx+4]
  000f1	ff d1		 call	 ecx
  000f3	3b f4		 cmp	 esi, esp
  000f5	e8 00 00 00 00	 call	 __RTC_CheckEsp
; Line 2720
  000fa	33 c0		 xor	 eax, eax
  000fc	eb 05		 jmp	 SHORT $LN10@QueryInter
$LN1@QueryInter:
; Line 2723
  000fe	b8 02 40 00 80	 mov	 eax, -2147467262	; 80004002H
$LN10@QueryInter:
; Line 2724
  00103	5e		 pop	 esi
  00104	83 c4 08	 add	 esp, 8
  00107	3b ec		 cmp	 ebp, esp
  00109	e8 00 00 00 00	 call	 __RTC_CheckEsp
  0010e	8b e5		 mov	 esp, ebp
  00110	5d		 pop	 ebp
  00111	c2 0c 00	 ret	 12			; 0000000cH
?QueryInterface@CUIElementSink@CTsfUiLessMode@@UAGJABU_GUID@@PAPAX@Z ENDP ; CTsfUiLessMode::CUIElementSink::QueryInterface
_TEXT	ENDS
; Function compile flags: /Odtp /RTCsu
_TEXT	SEGMENT
_this$ = -4						; size = 4
??1CUIElementSink@CTsfUiLessMode@@QAE@XZ PROC		; CTsfUiLessMode::CUIElementSink::~CUIElementSink
; _this$ = ecx
; File d:\engine class\assignment 1\new scratch\dxut\optional\imeui.cpp
; Line 2690
  00000	55		 push	 ebp
  00001	8b ec		 mov	 ebp, esp
  00003	51		 push	 ecx
  00004	c7 45 fc cc cc
	cc cc		 mov	 DWORD PTR [ebp-4], -858993460 ; ccccccccH
  0000b	89 4d fc	 mov	 DWORD PTR _this$[ebp], ecx
  0000e	8b 45 fc	 mov	 eax, DWORD PTR _this$[ebp]
  00011	c7 00 00 00 00
	00		 mov	 DWORD PTR [eax], OFFSET ??_7CUIElementSink@CTsfUiLessMode@@6BITfUIElementSink@@@
  00017	8b 4d fc	 mov	 ecx, DWORD PTR _this$[ebp]
  0001a	c7 41 04 00 00
	00 00		 mov	 DWORD PTR [ecx+4], OFFSET ??_7CUIElementSink@CTsfUiLessMode@@6BITfInputProcessorProfileActivationSink@@@
  00021	8b 55 fc	 mov	 edx, DWORD PTR _this$[ebp]
  00024	c7 42 08 00 00
	00 00		 mov	 DWORD PTR [edx+8], OFFSET ??_7CUIElementSink@CTsfUiLessMode@@6BITfCompartmentEventSink@@@
; Line 2691
  0002b	8b e5		 mov	 esp, ebp
  0002d	5d		 pop	 ebp
  0002e	c3		 ret	 0
??1CUIElementSink@CTsfUiLessMode@@QAE@XZ ENDP		; CTsfUiLessMode::CUIElementSink::~CUIElementSink
_TEXT	ENDS
; Function compile flags: /Odtp /RTCsu
_TEXT	SEGMENT
_this$ = -4						; size = 4
??0CUIElementSink@CTsfUiLessMode@@QAE@XZ PROC		; CTsfUiLessMode::CUIElementSink::CUIElementSink
; _this$ = ecx
; File d:\engine class\assignment 1\new scratch\dxut\optional\imeui.cpp
; Line 2684
  00000	55		 push	 ebp
  00001	8b ec		 mov	 ebp, esp
  00003	51		 push	 ecx
  00004	c7 45 fc cc cc
	cc cc		 mov	 DWORD PTR [ebp-4], -858993460 ; ccccccccH
  0000b	89 4d fc	 mov	 DWORD PTR _this$[ebp], ecx
  0000e	8b 4d fc	 mov	 ecx, DWORD PTR _this$[ebp]
  00011	e8 00 00 00 00	 call	 ??0ITfUIElementSink@@QAE@XZ
  00016	8b 4d fc	 mov	 ecx, DWORD PTR _this$[ebp]
  00019	83 c1 04	 add	 ecx, 4
  0001c	e8 00 00 00 00	 call	 ??0ITfInputProcessorProfileActivationSink@@QAE@XZ
  00021	8b 4d fc	 mov	 ecx, DWORD PTR _this$[ebp]
  00024	83 c1 08	 add	 ecx, 8
  00027	e8 00 00 00 00	 call	 ??0ITfCompartmentEventSink@@QAE@XZ
  0002c	8b 45 fc	 mov	 eax, DWORD PTR _this$[ebp]
  0002f	c7 00 00 00 00
	00		 mov	 DWORD PTR [eax], OFFSET ??_7CUIElementSink@CTsfUiLessMode@@6BITfUIElementSink@@@
  00035	8b 4d fc	 mov	 ecx, DWORD PTR _this$[ebp]
  00038	c7 41 04 00 00
	00 00		 mov	 DWORD PTR [ecx+4], OFFSET ??_7CUIElementSink@CTsfUiLessMode@@6BITfInputProcessorProfileActivationSink@@@
  0003f	8b 55 fc	 mov	 edx, DWORD PTR _this$[ebp]
  00042	c7 42 08 00 00
	00 00		 mov	 DWORD PTR [edx+8], OFFSET ??_7CUIElementSink@CTsfUiLessMode@@6BITfCompartmentEventSink@@@
; Line 2685
  00049	8b 45 fc	 mov	 eax, DWORD PTR _this$[ebp]
  0004c	c7 40 0c 01 00
	00 00		 mov	 DWORD PTR [eax+12], 1
; Line 2686
  00053	8b 45 fc	 mov	 eax, DWORD PTR _this$[ebp]
  00056	83 c4 04	 add	 esp, 4
  00059	3b ec		 cmp	 ebp, esp
  0005b	e8 00 00 00 00	 call	 __RTC_CheckEsp
  00060	8b e5		 mov	 esp, ebp
  00062	5d		 pop	 ebp
  00063	c3		 ret	 0
??0CUIElementSink@CTsfUiLessMode@@QAE@XZ ENDP		; CTsfUiLessMode::CUIElementSink::CUIElementSink
_TEXT	ENDS
; Function compile flags: /Odtp /RTCsu
;	COMDAT ?SendKeyMsg@@YAJPAUHWND__@@II@Z
_TEXT	SEGMENT
_lRc$ = -4						; size = 4
_hwnd$ = 8						; size = 4
_msg$ = 12						; size = 4
_wp$ = 16						; size = 4
?SendKeyMsg@@YAJPAUHWND__@@II@Z PROC			; SendKeyMsg, COMDAT
; File d:\engine class\assignment 1\new scratch\dxut\optional\imeui.cpp
; Line 328
  00000	55		 push	 ebp
  00001	8b ec		 mov	 ebp, esp
  00003	51		 push	 ecx
  00004	56		 push	 esi
  00005	c7 45 fc cc cc
	cc cc		 mov	 DWORD PTR [ebp-4], -858993460 ; ccccccccH
; Line 329
  0000c	c6 05 00 00 00
	00 01		 mov	 BYTE PTR _bIsSendingKeyMessage, 1
; Line 330
  00013	8b f4		 mov	 esi, esp
  00015	6a 01		 push	 1
  00017	8b 45 10	 mov	 eax, DWORD PTR _wp$[ebp]
  0001a	50		 push	 eax
  0001b	8b 4d 0c	 mov	 ecx, DWORD PTR _msg$[ebp]
  0001e	51		 push	 ecx
  0001f	8b 55 08	 mov	 edx, DWORD PTR _hwnd$[ebp]
  00022	52		 push	 edx
  00023	ff 15 00 00 00
	00		 call	 DWORD PTR __SendMessage
  00029	3b f4		 cmp	 esi, esp
  0002b	e8 00 00 00 00	 call	 __RTC_CheckEsp
  00030	89 45 fc	 mov	 DWORD PTR _lRc$[ebp], eax
; Line 331
  00033	c6 05 00 00 00
	00 00		 mov	 BYTE PTR _bIsSendingKeyMessage, 0
; Line 332
  0003a	8b 45 fc	 mov	 eax, DWORD PTR _lRc$[ebp]
; Line 333
  0003d	5e		 pop	 esi
  0003e	83 c4 04	 add	 esp, 4
  00041	3b ec		 cmp	 ebp, esp
  00043	e8 00 00 00 00	 call	 __RTC_CheckEsp
  00048	8b e5		 mov	 esp, ebp
  0004a	5d		 pop	 ebp
  0004b	c3		 ret	 0
?SendKeyMsg@@YAJPAUHWND__@@II@Z ENDP			; SendKeyMsg
_TEXT	ENDS
; Function compile flags: /Odtp /RTCsu
_TEXT	SEGMENT
_dwImeLevel$ = 8					; size = 4
?ImeUi_SetSupportLevel@@YAXK@Z PROC			; ImeUi_SetSupportLevel
; File d:\engine class\assignment 1\new scratch\dxut\optional\imeui.cpp
; Line 2259
  00000	55		 push	 ebp
  00001	8b ec		 mov	 ebp, esp
; Line 2260
  00003	0f b6 05 00 00
	00 00		 movzx	 eax, BYTE PTR _g_bInitialized
  0000a	85 c0		 test	 eax, eax
  0000c	75 02		 jne	 SHORT $LN1@ImeUi_SetS
; Line 2261
  0000e	eb 15		 jmp	 SHORT $LN2@ImeUi_SetS
$LN1@ImeUi_SetS:
; Line 2262
  00010	8b 4d 08	 mov	 ecx, DWORD PTR _dwImeLevel$[ebp]
  00013	89 0d 00 00 00
	00		 mov	 DWORD PTR _g_dwIMELevelSaved, ecx
; Line 2263
  00019	8b 55 08	 mov	 edx, DWORD PTR _dwImeLevel$[ebp]
  0001c	52		 push	 edx
  0001d	e8 00 00 00 00	 call	 ?SetSupportLevel@@YAXK@Z ; SetSupportLevel
  00022	83 c4 04	 add	 esp, 4
$LN2@ImeUi_SetS:
; Line 2264
  00025	3b ec		 cmp	 ebp, esp
  00027	e8 00 00 00 00	 call	 __RTC_CheckEsp
  0002c	5d		 pop	 ebp
  0002d	c3		 ret	 0
?ImeUi_SetSupportLevel@@YAXK@Z ENDP			; ImeUi_SetSupportLevel
_TEXT	ENDS
; Function compile flags: /Odtp /RTCsu
_TEXT	SEGMENT
_dwImeLevel$ = 8					; size = 4
?SetSupportLevel@@YAXK@Z PROC				; SetSupportLevel
; File d:\engine class\assignment 1\new scratch\dxut\optional\imeui.cpp
; Line 2245
  00000	55		 push	 ebp
  00001	8b ec		 mov	 ebp, esp
; Line 2246
  00003	83 7d 08 02	 cmp	 DWORD PTR _dwImeLevel$[ebp], 2
  00007	72 06		 jb	 SHORT $LN2@SetSupport
  00009	83 7d 08 03	 cmp	 DWORD PTR _dwImeLevel$[ebp], 3
  0000d	76 02		 jbe	 SHORT $LN3@SetSupport
$LN2@SetSupport:
; Line 2247
  0000f	eb 39		 jmp	 SHORT $LN4@SetSupport
$LN3@SetSupport:
; Line 2248
  00011	a1 00 00 00 00	 mov	 eax, DWORD PTR _g_hklCurrent
  00016	25 ff ff 00 00	 and	 eax, 65535		; 0000ffffH
  0001b	0f b7 c8	 movzx	 ecx, ax
  0001e	81 e1 ff 03 00
	00		 and	 ecx, 1023		; 000003ffH
  00024	0f b7 d1	 movzx	 edx, cx
  00027	83 fa 12	 cmp	 edx, 18			; 00000012H
  0002a	75 07		 jne	 SHORT $LN1@SetSupport
; Line 2250
  0002c	c7 45 08 03 00
	00 00		 mov	 DWORD PTR _dwImeLevel$[ebp], 3
$LN1@SetSupport:
; Line 2252
  00033	8b 45 08	 mov	 eax, DWORD PTR _dwImeLevel$[ebp]
  00036	a3 00 00 00 00	 mov	 DWORD PTR _g_dwIMELevel, eax
; Line 2254
  0003b	6a 00		 push	 0
  0003d	e8 00 00 00 00	 call	 ?ImeUi_FinalizeString@@YAX_N@Z ; ImeUi_FinalizeString
  00042	83 c4 04	 add	 esp, 4
; Line 2255
  00045	e8 00 00 00 00	 call	 ?SetCompStringColor@@YAXXZ ; SetCompStringColor
$LN4@SetSupport:
; Line 2256
  0004a	3b ec		 cmp	 ebp, esp
  0004c	e8 00 00 00 00	 call	 __RTC_CheckEsp
  00051	5d		 pop	 ebp
  00052	c3		 ret	 0
?SetSupportLevel@@YAXK@Z ENDP				; SetSupportLevel
_TEXT	ENDS
; Function compile flags: /Odtp /RTCsu
_TEXT	SEGMENT
tv78 = -32						; size = 4
tv73 = -28						; size = 4
_i$1 = -24						; size = 4
_szCodePage$ = -16					; size = 8
__$ArrayPad$ = -4					; size = 4
?CheckInputLocale@@YAXXZ PROC				; CheckInputLocale
; File d:\engine class\assignment 1\new scratch\dxut\optional\imeui.cpp
; Line 2524
  00000	55		 push	 ebp
  00001	8b ec		 mov	 ebp, esp
  00003	83 ec 20	 sub	 esp, 32			; 00000020H
  00006	56		 push	 esi
  00007	b8 cc cc cc cc	 mov	 eax, -858993460		; ccccccccH
  0000c	89 45 e0	 mov	 DWORD PTR [ebp-32], eax
  0000f	89 45 e4	 mov	 DWORD PTR [ebp-28], eax
  00012	89 45 e8	 mov	 DWORD PTR [ebp-24], eax
  00015	89 45 ec	 mov	 DWORD PTR [ebp-20], eax
  00018	89 45 f0	 mov	 DWORD PTR [ebp-16], eax
  0001b	89 45 f4	 mov	 DWORD PTR [ebp-12], eax
  0001e	89 45 f8	 mov	 DWORD PTR [ebp-8], eax
  00021	89 45 fc	 mov	 DWORD PTR [ebp-4], eax
  00024	a1 00 00 00 00	 mov	 eax, DWORD PTR ___security_cookie
  00029	33 c5		 xor	 eax, ebp
  0002b	89 45 fc	 mov	 DWORD PTR __$ArrayPad$[ebp], eax
; Line 2526
  0002e	8b f4		 mov	 esi, esp
  00030	6a 00		 push	 0
  00032	ff 15 00 00 00
	00		 call	 DWORD PTR __imp__GetKeyboardLayout@4
  00038	3b f4		 cmp	 esi, esp
  0003a	e8 00 00 00 00	 call	 __RTC_CheckEsp
  0003f	a3 00 00 00 00	 mov	 DWORD PTR _g_hklCurrent, eax
; Line 2527
  00044	a1 00 00 00 00	 mov	 eax, DWORD PTR ?hklPrev@?1??CheckInputLocale@@YAXXZ@4PAUHKL__@@A
  00049	3b 05 00 00 00
	00		 cmp	 eax, DWORD PTR _g_hklCurrent
  0004f	75 05		 jne	 SHORT $LN15@CheckInput
; Line 2529
  00051	e9 7f 01 00 00	 jmp	 $LN16@CheckInput
$LN15@CheckInput:
; Line 2531
  00056	8b 0d 00 00 00
	00		 mov	 ecx, DWORD PTR _g_hklCurrent
  0005c	89 0d 00 00 00
	00		 mov	 DWORD PTR ?hklPrev@?1??CheckInputLocale@@YAXXZ@4PAUHKL__@@A, ecx
; Line 2532
  00062	8b 15 00 00 00
	00		 mov	 edx, DWORD PTR _g_hklCurrent
  00068	81 e2 ff ff 00
	00		 and	 edx, 65535		; 0000ffffH
  0006e	0f b7 c2	 movzx	 eax, dx
  00071	25 ff 03 00 00	 and	 eax, 1023		; 000003ffH
  00076	0f b7 c8	 movzx	 ecx, ax
  00079	89 4d e4	 mov	 DWORD PTR tv73[ebp], ecx
  0007c	83 7d e4 04	 cmp	 DWORD PTR tv73[ebp], 4
  00080	74 15		 je	 SHORT $LN12@CheckInput
  00082	83 7d e4 11	 cmp	 DWORD PTR tv73[ebp], 17	; 00000011H
  00086	0f 84 9a 00 00
	00		 je	 $LN5@CheckInput
  0008c	83 7d e4 12	 cmp	 DWORD PTR tv73[ebp], 18	; 00000012H
  00090	74 77		 je	 SHORT $LN6@CheckInput
  00092	e9 ab 00 00 00	 jmp	 $LN4@CheckInput
$LN12@CheckInput:
; Line 2536
  00097	c6 05 00 00 00
	00 01		 mov	 BYTE PTR _g_bVerticalCand, 1
; Line 2537
  0009e	8b 15 00 00 00
	00		 mov	 edx, DWORD PTR _g_hklCurrent
  000a4	81 e2 ff ff 00
	00		 and	 edx, 65535		; 0000ffffH
  000aa	0f b7 c2	 movzx	 eax, dx
  000ad	c1 f8 0a	 sar	 eax, 10			; 0000000aH
  000b0	89 45 e0	 mov	 DWORD PTR tv78[ebp], eax
  000b3	83 7d e0 01	 cmp	 DWORD PTR tv78[ebp], 1
  000b7	74 25		 je	 SHORT $LN8@CheckInput
  000b9	83 7d e0 02	 cmp	 DWORD PTR tv78[ebp], 2
  000bd	74 02		 je	 SHORT $LN9@CheckInput
  000bf	eb 32		 jmp	 SHORT $LN7@CheckInput
$LN9@CheckInput:
; Line 2540
  000c1	b9 04 00 00 00	 mov	 ecx, 4
  000c6	c1 e1 00	 shl	 ecx, 0
  000c9	8b 91 00 00 00
	00		 mov	 edx, DWORD PTR _g_aszIndicator[ecx]
  000cf	89 15 00 00 00
	00		 mov	 DWORD PTR _g_pszIndicatior, edx
; Line 2542
  000d5	c6 05 00 00 00
	00 00		 mov	 BYTE PTR _g_bVerticalCand, 0
; Line 2543
  000dc	eb 29		 jmp	 SHORT $LN10@CheckInput
$LN8@CheckInput:
; Line 2545
  000de	b8 04 00 00 00	 mov	 eax, 4
  000e3	d1 e0		 shl	 eax, 1
  000e5	8b 88 00 00 00
	00		 mov	 ecx, DWORD PTR _g_aszIndicator[eax]
  000eb	89 0d 00 00 00
	00		 mov	 DWORD PTR _g_pszIndicatior, ecx
; Line 2546
  000f1	eb 14		 jmp	 SHORT $LN10@CheckInput
$LN7@CheckInput:
; Line 2548
  000f3	ba 04 00 00 00	 mov	 edx, 4
  000f8	6b c2 00	 imul	 eax, edx, 0
  000fb	8b 88 00 00 00
	00		 mov	 ecx, DWORD PTR _g_aszIndicator[eax]
  00101	89 0d 00 00 00
	00		 mov	 DWORD PTR _g_pszIndicatior, ecx
$LN10@CheckInput:
; Line 2551
  00107	eb 4c		 jmp	 SHORT $LN13@CheckInput
$LN6@CheckInput:
; Line 2554
  00109	ba 04 00 00 00	 mov	 edx, 4
  0010e	6b c2 03	 imul	 eax, edx, 3
  00111	8b 88 00 00 00
	00		 mov	 ecx, DWORD PTR _g_aszIndicator[eax]
  00117	89 0d 00 00 00
	00		 mov	 DWORD PTR _g_pszIndicatior, ecx
; Line 2555
  0011d	c6 05 00 00 00
	00 00		 mov	 BYTE PTR _g_bVerticalCand, 0
; Line 2556
  00124	eb 2f		 jmp	 SHORT $LN13@CheckInput
$LN5@CheckInput:
; Line 2559
  00126	ba 04 00 00 00	 mov	 edx, 4
  0012b	c1 e2 02	 shl	 edx, 2
  0012e	8b 82 00 00 00
	00		 mov	 eax, DWORD PTR _g_aszIndicator[edx]
  00134	a3 00 00 00 00	 mov	 DWORD PTR _g_pszIndicatior, eax
; Line 2560
  00139	c6 05 00 00 00
	00 01		 mov	 BYTE PTR _g_bVerticalCand, 1
; Line 2561
  00140	eb 13		 jmp	 SHORT $LN13@CheckInput
$LN4@CheckInput:
; Line 2563
  00142	b9 04 00 00 00	 mov	 ecx, 4
  00147	6b d1 00	 imul	 edx, ecx, 0
  0014a	8b 82 00 00 00
	00		 mov	 eax, DWORD PTR _g_aszIndicator[edx]
  00150	a3 00 00 00 00	 mov	 DWORD PTR _g_pszIndicatior, eax
$LN13@CheckInput:
; Line 2567
  00155	8b f4		 mov	 esi, esp
  00157	6a 08		 push	 8
  00159	8d 4d f0	 lea	 ecx, DWORD PTR _szCodePage$[ebp]
  0015c	51		 push	 ecx
  0015d	68 04 10 00 00	 push	 4100			; 00001004H
  00162	8b 15 00 00 00
	00		 mov	 edx, DWORD PTR _g_hklCurrent
  00168	81 e2 ff ff 00
	00		 and	 edx, 65535		; 0000ffffH
  0016e	0f b7 c2	 movzx	 eax, dx
  00171	50		 push	 eax
  00172	ff 15 00 00 00
	00		 call	 DWORD PTR __imp__GetLocaleInfoA@16
  00178	3b f4		 cmp	 esi, esp
  0017a	e8 00 00 00 00	 call	 __RTC_CheckEsp
; Line 2568
  0017f	6a 00		 push	 0
  00181	6a 00		 push	 0
  00183	8d 4d f0	 lea	 ecx, DWORD PTR _szCodePage$[ebp]
  00186	51		 push	 ecx
  00187	e8 00 00 00 00	 call	 ?_strtoul@@YAKPBDPAPA_WH@Z ; _strtoul
  0018c	83 c4 0c	 add	 esp, 12			; 0000000cH
  0018f	a3 00 00 00 00	 mov	 DWORD PTR _g_uCodePage, eax
; Line 2569
  00194	c7 45 e8 00 00
	00 00		 mov	 DWORD PTR _i$1[ebp], 0
  0019b	eb 09		 jmp	 SHORT $LN3@CheckInput
$LN2@CheckInput:
  0019d	8b 55 e8	 mov	 edx, DWORD PTR _i$1[ebp]
  001a0	83 c2 01	 add	 edx, 1
  001a3	89 55 e8	 mov	 DWORD PTR _i$1[ebp], edx
$LN3@CheckInput:
  001a6	81 7d e8 00 01
	00 00		 cmp	 DWORD PTR _i$1[ebp], 256 ; 00000100H
  001ad	7d 26		 jge	 SHORT $LN16@CheckInput
; Line 2571
  001af	8b f4		 mov	 esi, esp
  001b1	0f b6 45 e8	 movzx	 eax, BYTE PTR _i$1[ebp]
  001b5	50		 push	 eax
  001b6	8b 0d 00 00 00
	00		 mov	 ecx, DWORD PTR _g_uCodePage
  001bc	51		 push	 ecx
  001bd	ff 15 00 00 00
	00		 call	 DWORD PTR __imp__IsDBCSLeadByteEx@8
  001c3	3b f4		 cmp	 esi, esp
  001c5	e8 00 00 00 00	 call	 __RTC_CheckEsp
  001ca	8b 55 e8	 mov	 edx, DWORD PTR _i$1[ebp]
  001cd	88 82 00 00 00
	00		 mov	 BYTE PTR _LeadByteTable[edx], al
; Line 2572
  001d3	eb c8		 jmp	 SHORT $LN2@CheckInput
$LN16@CheckInput:
; Line 2573
  001d5	52		 push	 edx
  001d6	8b cd		 mov	 ecx, ebp
  001d8	50		 push	 eax
  001d9	8d 15 00 00 00
	00		 lea	 edx, DWORD PTR $LN20@CheckInput
  001df	e8 00 00 00 00	 call	 @_RTC_CheckStackVars@8
  001e4	58		 pop	 eax
  001e5	5a		 pop	 edx
  001e6	5e		 pop	 esi
  001e7	8b 4d fc	 mov	 ecx, DWORD PTR __$ArrayPad$[ebp]
  001ea	33 cd		 xor	 ecx, ebp
  001ec	e8 00 00 00 00	 call	 @__security_check_cookie@4
  001f1	83 c4 20	 add	 esp, 32			; 00000020H
  001f4	3b ec		 cmp	 ebp, esp
  001f6	e8 00 00 00 00	 call	 __RTC_CheckEsp
  001fb	8b e5		 mov	 esp, ebp
  001fd	5d		 pop	 ebp
  001fe	c3		 ret	 0
  001ff	90		 npad	 1
$LN20@CheckInput:
  00200	01 00 00 00	 DD	 1
  00204	00 00 00 00	 DD	 $LN19@CheckInput
$LN19@CheckInput:
  00208	f0 ff ff ff	 DD	 -16			; fffffff0H
  0020c	08 00 00 00	 DD	 8
  00210	00 00 00 00	 DD	 $LN18@CheckInput
$LN18@CheckInput:
  00214	73		 DB	 115			; 00000073H
  00215	7a		 DB	 122			; 0000007aH
  00216	43		 DB	 67			; 00000043H
  00217	6f		 DB	 111			; 0000006fH
  00218	64		 DB	 100			; 00000064H
  00219	65		 DB	 101			; 00000065H
  0021a	50		 DB	 80			; 00000050H
  0021b	61		 DB	 97			; 00000061H
  0021c	67		 DB	 103			; 00000067H
  0021d	65		 DB	 101			; 00000065H
  0021e	00		 DB	 0
?CheckInputLocale@@YAXXZ ENDP				; CheckInputLocale
_TEXT	ENDS
; Function compile flags: /Odtp /RTCsu
_TEXT	SEGMENT
_himc$1 = -288						; size = 4
_hIme$ = -284						; size = 4
_kl$ = -280						; size = 4
_szImeFile$ = -272					; size = 261
__$ArrayPad$ = -4					; size = 4
?SetImeApi@@YAXXZ PROC					; SetImeApi
; File d:\engine class\assignment 1\new scratch\dxut\optional\imeui.cpp
; Line 2497
  00000	55		 push	 ebp
  00001	8b ec		 mov	 ebp, esp
  00003	81 ec 20 01 00
	00		 sub	 esp, 288		; 00000120H
  00009	56		 push	 esi
  0000a	57		 push	 edi
  0000b	8d bd e0 fe ff
	ff		 lea	 edi, DWORD PTR [ebp-288]
  00011	b9 48 00 00 00	 mov	 ecx, 72			; 00000048H
  00016	b8 cc cc cc cc	 mov	 eax, -858993460		; ccccccccH
  0001b	f3 ab		 rep stosd
  0001d	a1 00 00 00 00	 mov	 eax, DWORD PTR ___security_cookie
  00022	33 c5		 xor	 eax, ebp
  00024	89 45 fc	 mov	 DWORD PTR __$ArrayPad$[ebp], eax
; Line 2498
  00027	c7 05 00 00 00
	00 00 00 00 00	 mov	 DWORD PTR ?_GetReadingString@@3P6GIPAUHIMC__@@IPA_WPAH2PAI@ZA, 0 ; _GetReadingString
; Line 2499
  00031	c7 05 00 00 00
	00 00 00 00 00	 mov	 DWORD PTR ?_ShowReadingWindow@@3P6GHPAUHIMC__@@H@ZA, 0 ; _ShowReadingWindow
; Line 2500
  0003b	0f b6 05 00 00
	00 00		 movzx	 eax, BYTE PTR _g_bUILessMode
  00042	85 c0		 test	 eax, eax
  00044	74 05		 je	 SHORT $LN5@SetImeApi
; Line 2501
  00046	e9 ed 00 00 00	 jmp	 $LN6@SetImeApi
$LN5@SetImeApi:
; Line 2504
  0004b	8b 0d 00 00 00
	00		 mov	 ecx, DWORD PTR _g_hklCurrent
  00051	89 8d e8 fe ff
	ff		 mov	 DWORD PTR _kl$[ebp], ecx
; Line 2505
  00057	68 04 01 00 00	 push	 260			; 00000104H
  0005c	8d 95 f0 fe ff
	ff		 lea	 edx, DWORD PTR _szImeFile$[ebp]
  00062	52		 push	 edx
  00063	8b 85 e8 fe ff
	ff		 mov	 eax, DWORD PTR _kl$[ebp]
  00069	50		 push	 eax
  0006a	e8 00 00 00 00	 call	 _ImmGetIMEFileNameA@12
  0006f	85 c0		 test	 eax, eax
  00071	77 05		 ja	 SHORT $LN4@SetImeApi
; Line 2506
  00073	e9 c0 00 00 00	 jmp	 $LN6@SetImeApi
$LN4@SetImeApi:
; Line 2507
  00078	8b f4		 mov	 esi, esp
  0007a	68 00 08 00 00	 push	 2048			; 00000800H
  0007f	6a 00		 push	 0
  00081	8d 8d f0 fe ff
	ff		 lea	 ecx, DWORD PTR _szImeFile$[ebp]
  00087	51		 push	 ecx
  00088	ff 15 00 00 00
	00		 call	 DWORD PTR __imp__LoadLibraryExA@12
  0008e	3b f4		 cmp	 esi, esp
  00090	e8 00 00 00 00	 call	 __RTC_CheckEsp
  00095	89 85 e4 fe ff
	ff		 mov	 DWORD PTR _hIme$[ebp], eax
; Line 2508
  0009b	83 bd e4 fe ff
	ff 00		 cmp	 DWORD PTR _hIme$[ebp], 0
  000a2	75 05		 jne	 SHORT $LN3@SetImeApi
; Line 2509
  000a4	e9 8f 00 00 00	 jmp	 $LN6@SetImeApi
$LN3@SetImeApi:
; Line 2510
  000a9	8b f4		 mov	 esi, esp
  000ab	68 00 00 00 00	 push	 OFFSET $SG154210
  000b0	8b 95 e4 fe ff
	ff		 mov	 edx, DWORD PTR _hIme$[ebp]
  000b6	52		 push	 edx
  000b7	ff 15 00 00 00
	00		 call	 DWORD PTR __imp__GetProcAddress@8
  000bd	3b f4		 cmp	 esi, esp
  000bf	e8 00 00 00 00	 call	 __RTC_CheckEsp
  000c4	a3 00 00 00 00	 mov	 DWORD PTR ?_GetReadingString@@3P6GIPAUHIMC__@@IPA_WPAH2PAI@ZA, eax ; _GetReadingString
; Line 2511
  000c9	8b f4		 mov	 esi, esp
  000cb	68 00 00 00 00	 push	 OFFSET $SG154214
  000d0	8b 85 e4 fe ff
	ff		 mov	 eax, DWORD PTR _hIme$[ebp]
  000d6	50		 push	 eax
  000d7	ff 15 00 00 00
	00		 call	 DWORD PTR __imp__GetProcAddress@8
  000dd	3b f4		 cmp	 esi, esp
  000df	e8 00 00 00 00	 call	 __RTC_CheckEsp
  000e4	a3 00 00 00 00	 mov	 DWORD PTR ?_ShowReadingWindow@@3P6GHPAUHIMC__@@H@ZA, eax ; _ShowReadingWindow
; Line 2512
  000e9	83 3d 00 00 00
	00 00		 cmp	 DWORD PTR ?_ShowReadingWindow@@3P6GHPAUHIMC__@@H@ZA, 0 ; _ShowReadingWindow
  000f0	74 46		 je	 SHORT $LN6@SetImeApi
; Line 2514
  000f2	8b 0d 00 00 00
	00		 mov	 ecx, DWORD PTR _g_hwndCurr
  000f8	51		 push	 ecx
  000f9	e8 00 00 00 00	 call	 _ImmGetContext@4
  000fe	89 85 e0 fe ff
	ff		 mov	 DWORD PTR _himc$1[ebp], eax
; Line 2515
  00104	83 bd e0 fe ff
	ff 00		 cmp	 DWORD PTR _himc$1[ebp], 0
  0010b	74 2b		 je	 SHORT $LN6@SetImeApi
; Line 2517
  0010d	8b f4		 mov	 esi, esp
  0010f	6a 00		 push	 0
  00111	8b 95 e0 fe ff
	ff		 mov	 edx, DWORD PTR _himc$1[ebp]
  00117	52		 push	 edx
  00118	ff 15 00 00 00
	00		 call	 DWORD PTR ?_ShowReadingWindow@@3P6GHPAUHIMC__@@H@ZA ; _ShowReadingWindow
  0011e	3b f4		 cmp	 esi, esp
  00120	e8 00 00 00 00	 call	 __RTC_CheckEsp
; Line 2518
  00125	8b 85 e0 fe ff
	ff		 mov	 eax, DWORD PTR _himc$1[ebp]
  0012b	50		 push	 eax
  0012c	8b 0d 00 00 00
	00		 mov	 ecx, DWORD PTR _g_hwndCurr
  00132	51		 push	 ecx
  00133	e8 00 00 00 00	 call	 _ImmReleaseContext@8
$LN6@SetImeApi:
; Line 2521
  00138	52		 push	 edx
  00139	8b cd		 mov	 ecx, ebp
  0013b	50		 push	 eax
  0013c	8d 15 00 00 00
	00		 lea	 edx, DWORD PTR $LN10@SetImeApi
  00142	e8 00 00 00 00	 call	 @_RTC_CheckStackVars@8
  00147	58		 pop	 eax
  00148	5a		 pop	 edx
  00149	5f		 pop	 edi
  0014a	5e		 pop	 esi
  0014b	8b 4d fc	 mov	 ecx, DWORD PTR __$ArrayPad$[ebp]
  0014e	33 cd		 xor	 ecx, ebp
  00150	e8 00 00 00 00	 call	 @__security_check_cookie@4
  00155	81 c4 20 01 00
	00		 add	 esp, 288		; 00000120H
  0015b	3b ec		 cmp	 ebp, esp
  0015d	e8 00 00 00 00	 call	 __RTC_CheckEsp
  00162	8b e5		 mov	 esp, ebp
  00164	5d		 pop	 ebp
  00165	c3		 ret	 0
  00166	8b ff		 npad	 2
$LN10@SetImeApi:
  00168	01 00 00 00	 DD	 1
  0016c	00 00 00 00	 DD	 $LN9@SetImeApi
$LN9@SetImeApi:
  00170	f0 fe ff ff	 DD	 -272			; fffffef0H
  00174	05 01 00 00	 DD	 261			; 00000105H
  00178	00 00 00 00	 DD	 $LN8@SetImeApi
$LN8@SetImeApi:
  0017c	73		 DB	 115			; 00000073H
  0017d	7a		 DB	 122			; 0000007aH
  0017e	49		 DB	 73			; 00000049H
  0017f	6d		 DB	 109			; 0000006dH
  00180	65		 DB	 101			; 00000065H
  00181	46		 DB	 70			; 00000046H
  00182	69		 DB	 105			; 00000069H
  00183	6c		 DB	 108			; 0000006cH
  00184	65		 DB	 101			; 00000065H
  00185	00		 DB	 0
?SetImeApi@@YAXXZ ENDP					; SetImeApi
_TEXT	ENDS
; Function compile flags: /Odtp /RTCsu
_TEXT	SEGMENT
tv84 = -12						; size = 4
_hwndImeDef$ = -8					; size = 4
_uLang$ = -4						; size = 4
?OnInputLangChange@@YAXXZ PROC				; OnInputLangChange
; File d:\engine class\assignment 1\new scratch\dxut\optional\imeui.cpp
; Line 2477
  00000	55		 push	 ebp
  00001	8b ec		 mov	 ebp, esp
  00003	83 ec 0c	 sub	 esp, 12			; 0000000cH
  00006	56		 push	 esi
  00007	c7 45 f4 cc cc
	cc cc		 mov	 DWORD PTR [ebp-12], -858993460 ; ccccccccH
  0000e	c7 45 f8 cc cc
	cc cc		 mov	 DWORD PTR [ebp-8], -858993460 ; ccccccccH
  00015	c7 45 fc cc cc
	cc cc		 mov	 DWORD PTR [ebp-4], -858993460 ; ccccccccH
; Line 2478
  0001c	a1 00 00 00 00	 mov	 eax, DWORD PTR _g_hklCurrent
  00021	25 ff ff 00 00	 and	 eax, 65535		; 0000ffffH
  00026	0f b7 c8	 movzx	 ecx, ax
  00029	81 e1 ff 03 00
	00		 and	 ecx, 1023		; 000003ffH
  0002f	0f b7 d1	 movzx	 edx, cx
  00032	89 55 fc	 mov	 DWORD PTR _uLang$[ebp], edx
; Line 2479
  00035	e8 00 00 00 00	 call	 ?CheckToggleState@@YAXXZ ; CheckToggleState
; Line 2480
  0003a	e8 00 00 00 00	 call	 ?OnInputLangChangeWorker@@YAXXZ ; OnInputLangChangeWorker
; Line 2481
  0003f	a1 00 00 00 00	 mov	 eax, DWORD PTR _g_hklCurrent
  00044	25 ff ff 00 00	 and	 eax, 65535		; 0000ffffH
  00049	0f b7 c8	 movzx	 ecx, ax
  0004c	81 e1 ff 03 00
	00		 and	 ecx, 1023		; 000003ffH
  00052	0f b7 d1	 movzx	 edx, cx
  00055	39 55 fc	 cmp	 DWORD PTR _uLang$[ebp], edx
  00058	74 38		 je	 SHORT $LN2@OnInputLan
; Line 2485
  0005a	a1 00 00 00 00	 mov	 eax, DWORD PTR _g_hklCurrent
  0005f	25 ff ff 00 00	 and	 eax, 65535		; 0000ffffH
  00064	0f b7 c8	 movzx	 ecx, ax
  00067	81 e1 ff 03 00
	00		 and	 ecx, 1023		; 000003ffH
  0006d	0f b7 d1	 movzx	 edx, cx
  00070	83 fa 12	 cmp	 edx, 18			; 00000012H
  00073	75 09		 jne	 SHORT $LN5@OnInputLan
  00075	c7 45 f4 03 00
	00 00		 mov	 DWORD PTR tv84[ebp], 3
  0007c	eb 08		 jmp	 SHORT $LN6@OnInputLan
$LN5@OnInputLan:
  0007e	a1 00 00 00 00	 mov	 eax, DWORD PTR _g_dwIMELevelSaved
  00083	89 45 f4	 mov	 DWORD PTR tv84[ebp], eax
$LN6@OnInputLan:
  00086	8b 4d f4	 mov	 ecx, DWORD PTR tv84[ebp]
  00089	51		 push	 ecx
  0008a	e8 00 00 00 00	 call	 ?SetSupportLevel@@YAXK@Z ; SetSupportLevel
  0008f	83 c4 04	 add	 esp, 4
$LN2@OnInputLan:
; Line 2487
  00092	8b 15 00 00 00
	00		 mov	 edx, DWORD PTR _g_hwndCurr
  00098	52		 push	 edx
  00099	e8 00 00 00 00	 call	 _ImmGetDefaultIMEWnd@4
  0009e	89 45 f8	 mov	 DWORD PTR _hwndImeDef$[ebp], eax
; Line 2488
  000a1	83 7d f8 00	 cmp	 DWORD PTR _hwndImeDef$[ebp], 0
  000a5	74 38		 je	 SHORT $LN3@OnInputLan
; Line 2491
  000a7	8b f4		 mov	 esi, esp
  000a9	6a 00		 push	 0
  000ab	6a 22		 push	 34			; 00000022H
  000ad	68 83 02 00 00	 push	 643			; 00000283H
  000b2	8b 45 f8	 mov	 eax, DWORD PTR _hwndImeDef$[ebp]
  000b5	50		 push	 eax
  000b6	ff 15 00 00 00
	00		 call	 DWORD PTR __imp__SendMessageA@16
  000bc	3b f4		 cmp	 esi, esp
  000be	e8 00 00 00 00	 call	 __RTC_CheckEsp
; Line 2492
  000c3	8b f4		 mov	 esi, esp
  000c5	6a 00		 push	 0
  000c7	6a 21		 push	 33			; 00000021H
  000c9	68 83 02 00 00	 push	 643			; 00000283H
  000ce	8b 4d f8	 mov	 ecx, DWORD PTR _hwndImeDef$[ebp]
  000d1	51		 push	 ecx
  000d2	ff 15 00 00 00
	00		 call	 DWORD PTR __imp__SendMessageA@16
  000d8	3b f4		 cmp	 esi, esp
  000da	e8 00 00 00 00	 call	 __RTC_CheckEsp
$LN3@OnInputLan:
; Line 2494
  000df	5e		 pop	 esi
  000e0	83 c4 0c	 add	 esp, 12			; 0000000cH
  000e3	3b ec		 cmp	 ebp, esp
  000e5	e8 00 00 00 00	 call	 __RTC_CheckEsp
  000ea	8b e5		 mov	 esp, ebp
  000ec	5d		 pop	 ebp
  000ed	c3		 ret	 0
?OnInputLangChange@@YAXXZ ENDP				; OnInputLangChange
_TEXT	ENDS
; Function compile flags: /Odtp /RTCsu
_TEXT	SEGMENT
tv67 = -4						; size = 4
?OnInputLangChangeWorker@@YAXXZ PROC			; OnInputLangChangeWorker
; File d:\engine class\assignment 1\new scratch\dxut\optional\imeui.cpp
; Line 2468
  00000	55		 push	 ebp
  00001	8b ec		 mov	 ebp, esp
  00003	51		 push	 ecx
  00004	c7 45 fc cc cc
	cc cc		 mov	 DWORD PTR [ebp-4], -858993460 ; ccccccccH
; Line 2469
  0000b	0f b6 05 00 00
	00 00		 movzx	 eax, BYTE PTR _g_bUILessMode
  00012	85 c0		 test	 eax, eax
  00014	75 25		 jne	 SHORT $LN1@OnInputLan
; Line 2471
  00016	81 3d 00 00 00
	00 04 04 06 e0	 cmp	 DWORD PTR _g_hklCurrent, -536476668 ; e0060404H
  00020	75 09		 jne	 SHORT $LN4@OnInputLan
  00022	c7 45 fc 00 00
	00 00		 mov	 DWORD PTR tv67[ebp], 0
  00029	eb 07		 jmp	 SHORT $LN5@OnInputLan
$LN4@OnInputLan:
  0002b	c7 45 fc 01 00
	00 00		 mov	 DWORD PTR tv67[ebp], 1
$LN5@OnInputLan:
  00032	8b 4d fc	 mov	 ecx, DWORD PTR tv67[ebp]
  00035	89 0d 00 00 00
	00		 mov	 DWORD PTR _g_iCandListIndexBase, ecx
$LN1@OnInputLan:
; Line 2473
  0003b	e8 00 00 00 00	 call	 ?SetImeApi@@YAXXZ	; SetImeApi
; Line 2474
  00040	83 c4 04	 add	 esp, 4
  00043	3b ec		 cmp	 ebp, esp
  00045	e8 00 00 00 00	 call	 __RTC_CheckEsp
  0004a	8b e5		 mov	 esp, ebp
  0004c	5d		 pop	 ebp
  0004d	c3		 ret	 0
?OnInputLangChangeWorker@@YAXXZ ENDP			; OnInputLangChangeWorker
_TEXT	ENDS
; Function compile flags: /Odtp /RTCsu
_TEXT	SEGMENT
tv79 = -336						; size = 4
tv67 = -332						; size = 4
_dwType$1 = -324					; size = 4
_dwMapping$2 = -312					; size = 4
_dwSize$3 = -300					; size = 4
_lRc$4 = -292						; size = 4
_dwVer$5 = -288						; size = 4
_hkey$6 = -280						; size = 4
_szRegPath$7 = -268					; size = 260
__$ArrayPad$ = -4					; size = 4
_dwId$ = 8						; size = 4
?GetReadingWindowOrientation@@YAXK@Z PROC		; GetReadingWindowOrientation
; File d:\engine class\assignment 1\new scratch\dxut\optional\imeui.cpp
; Line 2371
  00000	55		 push	 ebp
  00001	8b ec		 mov	 ebp, esp
  00003	81 ec 50 01 00
	00		 sub	 esp, 336		; 00000150H
  00009	56		 push	 esi
  0000a	57		 push	 edi
  0000b	8d bd b0 fe ff
	ff		 lea	 edi, DWORD PTR [ebp-336]
  00011	b9 54 00 00 00	 mov	 ecx, 84			; 00000054H
  00016	b8 cc cc cc cc	 mov	 eax, -858993460		; ccccccccH
  0001b	f3 ab		 rep stosd
  0001d	a1 00 00 00 00	 mov	 eax, DWORD PTR ___security_cookie
  00022	33 c5		 xor	 eax, ebp
  00024	89 45 fc	 mov	 DWORD PTR __$ArrayPad$[ebp], eax
; Line 2372
  00027	81 3d 00 00 00
	00 04 08 0e e0	 cmp	 DWORD PTR _g_hklCurrent, -535951356 ; e00e0804H
  00031	74 1e		 je	 SHORT $LN10@GetReading
  00033	81 3d 00 00 00
	00 04 04 09 e0	 cmp	 DWORD PTR _g_hklCurrent, -536280060 ; e0090404H
  0003d	74 12		 je	 SHORT $LN10@GetReading
  0003f	83 7d 08 00	 cmp	 DWORD PTR _dwId$[ebp], 0
  00043	74 0c		 je	 SHORT $LN10@GetReading
  00045	c7 85 b4 fe ff
	ff 00 00 00 00	 mov	 DWORD PTR tv67[ebp], 0
  0004f	eb 0a		 jmp	 SHORT $LN11@GetReading
$LN10@GetReading:
  00051	c7 85 b4 fe ff
	ff 01 00 00 00	 mov	 DWORD PTR tv67[ebp], 1
$LN11@GetReading:
  0005b	8a 85 b4 fe ff
	ff		 mov	 al, BYTE PTR tv67[ebp]
  00061	a2 00 00 00 00	 mov	 BYTE PTR _g_bHorizontalReading, al
; Line 2373
  00066	0f b6 0d 00 00
	00 00		 movzx	 ecx, BYTE PTR _g_bHorizontalReading
  0006d	85 c9		 test	 ecx, ecx
  0006f	0f 85 85 01 00
	00		 jne	 $LN8@GetReading
  00075	8b 55 08	 mov	 edx, DWORD PTR _dwId$[ebp]
  00078	81 e2 ff ff 00
	00		 and	 edx, 65535		; 0000ffffH
  0007e	81 fa 04 04 00
	00		 cmp	 edx, 1028		; 00000404H
  00084	0f 85 70 01 00
	00		 jne	 $LN8@GetReading
; Line 2377
  0008a	8b 45 08	 mov	 eax, DWORD PTR _dwId$[ebp]
  0008d	25 00 00 ff ff	 and	 eax, -65536		; ffff0000H
  00092	89 85 e0 fe ff
	ff		 mov	 DWORD PTR _dwVer$5[ebp], eax
; Line 2378
  00098	8b f4		 mov	 esi, esp
  0009a	68 00 00 00 00	 push	 OFFSET $SG154105
  0009f	68 04 01 00 00	 push	 260			; 00000104H
  000a4	8d 8d f4 fe ff
	ff		 lea	 ecx, DWORD PTR _szRegPath$7[ebp]
  000aa	51		 push	 ecx
  000ab	ff 15 00 00 00
	00		 call	 DWORD PTR __imp__strcpy_s
  000b1	83 c4 0c	 add	 esp, 12			; 0000000cH
  000b4	3b f4		 cmp	 esi, esp
  000b6	e8 00 00 00 00	 call	 __RTC_CheckEsp
; Line 2379
  000bb	81 bd e0 fe ff
	ff 00 00 01 05	 cmp	 DWORD PTR _dwVer$5[ebp], 83951616 ; 05010000H
  000c5	72 0c		 jb	 SHORT $LN12@GetReading
  000c7	c7 85 b0 fe ff
	ff 00 00 00 00	 mov	 DWORD PTR tv79[ebp], OFFSET $SG154109
  000d1	eb 0a		 jmp	 SHORT $LN13@GetReading
$LN12@GetReading:
  000d3	c7 85 b0 fe ff
	ff 00 00 00 00	 mov	 DWORD PTR tv79[ebp], OFFSET $SG154110
$LN13@GetReading:
  000dd	8b f4		 mov	 esi, esp
  000df	8b 95 b0 fe ff
	ff		 mov	 edx, DWORD PTR tv79[ebp]
  000e5	52		 push	 edx
  000e6	68 04 01 00 00	 push	 260			; 00000104H
  000eb	8d 85 f4 fe ff
	ff		 lea	 eax, DWORD PTR _szRegPath$7[ebp]
  000f1	50		 push	 eax
  000f2	ff 15 00 00 00
	00		 call	 DWORD PTR __imp__strcat_s
  000f8	83 c4 0c	 add	 esp, 12			; 0000000cH
  000fb	3b f4		 cmp	 esi, esp
  000fd	e8 00 00 00 00	 call	 __RTC_CheckEsp
; Line 2380
  00102	8b f4		 mov	 esi, esp
  00104	8d 8d e8 fe ff
	ff		 lea	 ecx, DWORD PTR _hkey$6[ebp]
  0010a	51		 push	 ecx
  0010b	68 19 00 02 00	 push	 131097			; 00020019H
  00110	6a 00		 push	 0
  00112	8d 95 f4 fe ff
	ff		 lea	 edx, DWORD PTR _szRegPath$7[ebp]
  00118	52		 push	 edx
  00119	68 01 00 00 80	 push	 -2147483647		; 80000001H
  0011e	ff 15 00 00 00
	00		 call	 DWORD PTR __imp__RegOpenKeyExA@20
  00124	3b f4		 cmp	 esi, esp
  00126	e8 00 00 00 00	 call	 __RTC_CheckEsp
  0012b	89 85 dc fe ff
	ff		 mov	 DWORD PTR _lRc$4[ebp], eax
; Line 2381
  00131	83 bd dc fe ff
	ff 00		 cmp	 DWORD PTR _lRc$4[ebp], 0
  00138	0f 85 bc 00 00
	00		 jne	 $LN8@GetReading
; Line 2383
  0013e	c7 85 d4 fe ff
	ff 04 00 00 00	 mov	 DWORD PTR _dwSize$3[ebp], 4
; Line 2384
  00148	8b f4		 mov	 esi, esp
  0014a	8d 85 d4 fe ff
	ff		 lea	 eax, DWORD PTR _dwSize$3[ebp]
  00150	50		 push	 eax
  00151	8d 8d c8 fe ff
	ff		 lea	 ecx, DWORD PTR _dwMapping$2[ebp]
  00157	51		 push	 ecx
  00158	8d 95 bc fe ff
	ff		 lea	 edx, DWORD PTR _dwType$1[ebp]
  0015e	52		 push	 edx
  0015f	6a 00		 push	 0
  00161	68 00 00 00 00	 push	 OFFSET $SG154121
  00166	8b 85 e8 fe ff
	ff		 mov	 eax, DWORD PTR _hkey$6[ebp]
  0016c	50		 push	 eax
  0016d	ff 15 00 00 00
	00		 call	 DWORD PTR __imp__RegQueryValueExA@24
  00173	3b f4		 cmp	 esi, esp
  00175	e8 00 00 00 00	 call	 __RTC_CheckEsp
  0017a	89 85 dc fe ff
	ff		 mov	 DWORD PTR _lRc$4[ebp], eax
; Line 2385
  00180	83 bd dc fe ff
	ff 00		 cmp	 DWORD PTR _lRc$4[ebp], 0
  00187	75 5b		 jne	 SHORT $LN5@GetReading
; Line 2394
  00189	81 bd e0 fe ff
	ff 00 00 00 05	 cmp	 DWORD PTR _dwVer$5[ebp], 83886080 ; 05000000H
  00193	77 18		 ja	 SHORT $LN2@GetReading
  00195	0f b6 8d c8 fe
	ff ff		 movzx	 ecx, BYTE PTR _dwMapping$2[ebp]
  0019c	83 f9 22	 cmp	 ecx, 34			; 00000022H
  0019f	74 3c		 je	 SHORT $LN3@GetReading
  001a1	0f b6 95 c8 fe
	ff ff		 movzx	 edx, BYTE PTR _dwMapping$2[ebp]
  001a8	83 fa 23	 cmp	 edx, 35			; 00000023H
  001ab	74 30		 je	 SHORT $LN3@GetReading
$LN2@GetReading:
  001ad	81 bd e0 fe ff
	ff 00 00 01 05	 cmp	 DWORD PTR _dwVer$5[ebp], 83951616 ; 05010000H
  001b7	74 0c		 je	 SHORT $LN1@GetReading
  001b9	81 bd e0 fe ff
	ff 00 00 02 05	 cmp	 DWORD PTR _dwVer$5[ebp], 84017152 ; 05020000H
  001c3	75 1f		 jne	 SHORT $LN5@GetReading
$LN1@GetReading:
  001c5	0f b6 85 c8 fe
	ff ff		 movzx	 eax, BYTE PTR _dwMapping$2[ebp]
  001cc	83 f8 22	 cmp	 eax, 34			; 00000022H
  001cf	7c 13		 jl	 SHORT $LN5@GetReading
  001d1	0f b6 8d c8 fe
	ff ff		 movzx	 ecx, BYTE PTR _dwMapping$2[ebp]
  001d8	83 f9 24	 cmp	 ecx, 36			; 00000024H
  001db	7f 07		 jg	 SHORT $LN5@GetReading
$LN3@GetReading:
; Line 2396
  001dd	c6 05 00 00 00
	00 01		 mov	 BYTE PTR _g_bHorizontalReading, 1
$LN5@GetReading:
; Line 2399
  001e4	8b f4		 mov	 esi, esp
  001e6	8b 95 e8 fe ff
	ff		 mov	 edx, DWORD PTR _hkey$6[ebp]
  001ec	52		 push	 edx
  001ed	ff 15 00 00 00
	00		 call	 DWORD PTR __imp__RegCloseKey@4
  001f3	3b f4		 cmp	 esi, esp
  001f5	e8 00 00 00 00	 call	 __RTC_CheckEsp
$LN8@GetReading:
; Line 2402
  001fa	52		 push	 edx
  001fb	8b cd		 mov	 ecx, ebp
  001fd	50		 push	 eax
  001fe	8d 15 00 00 00
	00		 lea	 edx, DWORD PTR $LN20@GetReading
  00204	e8 00 00 00 00	 call	 @_RTC_CheckStackVars@8
  00209	58		 pop	 eax
  0020a	5a		 pop	 edx
  0020b	5f		 pop	 edi
  0020c	5e		 pop	 esi
  0020d	8b 4d fc	 mov	 ecx, DWORD PTR __$ArrayPad$[ebp]
  00210	33 cd		 xor	 ecx, ebp
  00212	e8 00 00 00 00	 call	 @__security_check_cookie@4
  00217	81 c4 50 01 00
	00		 add	 esp, 336		; 00000150H
  0021d	3b ec		 cmp	 ebp, esp
  0021f	e8 00 00 00 00	 call	 __RTC_CheckEsp
  00224	8b e5		 mov	 esp, ebp
  00226	5d		 pop	 ebp
  00227	c3		 ret	 0
$LN20@GetReading:
  00228	05 00 00 00	 DD	 5
  0022c	00 00 00 00	 DD	 $LN19@GetReading
$LN19@GetReading:
  00230	f4 fe ff ff	 DD	 -268			; fffffef4H
  00234	04 01 00 00	 DD	 260			; 00000104H
  00238	00 00 00 00	 DD	 $LN14@GetReading
  0023c	e8 fe ff ff	 DD	 -280			; fffffee8H
  00240	04 00 00 00	 DD	 4
  00244	00 00 00 00	 DD	 $LN15@GetReading
  00248	d4 fe ff ff	 DD	 -300			; fffffed4H
  0024c	04 00 00 00	 DD	 4
  00250	00 00 00 00	 DD	 $LN16@GetReading
  00254	c8 fe ff ff	 DD	 -312			; fffffec8H
  00258	04 00 00 00	 DD	 4
  0025c	00 00 00 00	 DD	 $LN17@GetReading
  00260	bc fe ff ff	 DD	 -324			; fffffebcH
  00264	04 00 00 00	 DD	 4
  00268	00 00 00 00	 DD	 $LN18@GetReading
$LN18@GetReading:
  0026c	64		 DB	 100			; 00000064H
  0026d	77		 DB	 119			; 00000077H
  0026e	54		 DB	 84			; 00000054H
  0026f	79		 DB	 121			; 00000079H
  00270	70		 DB	 112			; 00000070H
  00271	65		 DB	 101			; 00000065H
  00272	00		 DB	 0
$LN17@GetReading:
  00273	64		 DB	 100			; 00000064H
  00274	77		 DB	 119			; 00000077H
  00275	4d		 DB	 77			; 0000004dH
  00276	61		 DB	 97			; 00000061H
  00277	70		 DB	 112			; 00000070H
  00278	70		 DB	 112			; 00000070H
  00279	69		 DB	 105			; 00000069H
  0027a	6e		 DB	 110			; 0000006eH
  0027b	67		 DB	 103			; 00000067H
  0027c	00		 DB	 0
$LN16@GetReading:
  0027d	64		 DB	 100			; 00000064H
  0027e	77		 DB	 119			; 00000077H
  0027f	53		 DB	 83			; 00000053H
  00280	69		 DB	 105			; 00000069H
  00281	7a		 DB	 122			; 0000007aH
  00282	65		 DB	 101			; 00000065H
  00283	00		 DB	 0
$LN15@GetReading:
  00284	68		 DB	 104			; 00000068H
  00285	6b		 DB	 107			; 0000006bH
  00286	65		 DB	 101			; 00000065H
  00287	79		 DB	 121			; 00000079H
  00288	00		 DB	 0
$LN14@GetReading:
  00289	73		 DB	 115			; 00000073H
  0028a	7a		 DB	 122			; 0000007aH
  0028b	52		 DB	 82			; 00000052H
  0028c	65		 DB	 101			; 00000065H
  0028d	67		 DB	 103			; 00000067H
  0028e	50		 DB	 80			; 00000050H
  0028f	61		 DB	 97			; 00000061H
  00290	74		 DB	 116			; 00000074H
  00291	68		 DB	 104			; 00000068H
  00292	00		 DB	 0
?GetReadingWindowOrientation@@YAXK@Z ENDP		; GetReadingWindowOrientation
_TEXT	ENDS
; Function compile flags: /Odtp /RTCsu
_TEXT	SEGMENT
tv301 = -196						; size = 4
tv493 = -190						; size = 2
tv490 = -188						; size = 4
tv487 = -184						; size = 4
tv242 = -180						; size = 4
tv177 = -176						; size = 4
tv77 = -172						; size = 4
tv335 = -166						; size = 2
tv332 = -164						; size = 4
tv329 = -160						; size = 4
tv69 = -156						; size = 4
$T1 = -152						; size = 4
$T2 = -148						; size = 4
$T3 = -144						; size = 4
_y$4 = -140						; size = 4
_x$5 = -136						; size = 4
_bWrite$6 = -129					; size = 1
_cSave$7 = -128						; size = 2
_szChar$8 = -120					; size = 6
_bgColor$9 = -108					; size = 4
_bgXnext$ = -100					; size = 4
_dwCompLineStart$ = -92					; size = 4
_pszCurrentCompLine$ = -88				; size = 4
