; Listing generated by Microsoft (R) Optimizing Compiler Version 18.00.30501.0 

	TITLE	D:\Engine Class\Assignment 1\New Scratch\DXUT\Optional\SDKmisc.cpp
	.686P
	.XMM
	include listing.inc
	.model	flat

INCLUDELIB MSVCRTD
INCLUDELIB OLDNAMES

PUBLIC	_GUID_ContainerFormatBmp
PUBLIC	?value@?$integral_constant@H$0A@@std@@2HB	; std::integral_constant<int,0>::value
PUBLIC	?g_XMIdentityR0@DirectX@@3UXMVECTORF32@1@B	; DirectX::g_XMIdentityR0
PUBLIC	?g_XMIdentityR1@DirectX@@3UXMVECTORF32@1@B	; DirectX::g_XMIdentityR1
PUBLIC	?g_XMIdentityR2@DirectX@@3UXMVECTORF32@1@B	; DirectX::g_XMIdentityR2
PUBLIC	?g_XMIdentityR3@DirectX@@3UXMVECTORF32@1@B	; DirectX::g_XMIdentityR3
PUBLIC	?g_XMMask3@DirectX@@3UXMVECTORI32@1@B		; DirectX::g_XMMask3
PUBLIC	?g_XMZero@DirectX@@3UXMVECTORF32@1@B		; DirectX::g_XMZero
PUBLIC	?g_XMInfinity@DirectX@@3UXMVECTORI32@1@B	; DirectX::g_XMInfinity
PUBLIC	?g_XMQNaN@DirectX@@3UXMVECTORI32@1@B		; DirectX::g_XMQNaN
PUBLIC	?g_XMAbsMask@DirectX@@3UXMVECTORI32@1@B		; DirectX::g_XMAbsMask
PUBLIC	?g_XMSelect1110@DirectX@@3UXMVECTORI32@1@B	; DirectX::g_XMSelect1110
;	COMDAT ?g_XMSelect1110@DirectX@@3UXMVECTORI32@1@B
CONST	SEGMENT
?g_XMSelect1110@DirectX@@3UXMVECTORI32@1@B DD 0ffffffffH ; DirectX::g_XMSelect1110
	DD	0ffffffffH
	DD	0ffffffffH
	DD	00H
CONST	ENDS
;	COMDAT ?g_XMAbsMask@DirectX@@3UXMVECTORI32@1@B
CONST	SEGMENT
?g_XMAbsMask@DirectX@@3UXMVECTORI32@1@B DD 07fffffffH	; DirectX::g_XMAbsMask
	DD	07fffffffH
	DD	07fffffffH
	DD	07fffffffH
CONST	ENDS
;	COMDAT ?g_XMQNaN@DirectX@@3UXMVECTORI32@1@B
CONST	SEGMENT
?g_XMQNaN@DirectX@@3UXMVECTORI32@1@B DD 07fc00000H	; DirectX::g_XMQNaN
	DD	07fc00000H
	DD	07fc00000H
	DD	07fc00000H
CONST	ENDS
;	COMDAT ?g_XMInfinity@DirectX@@3UXMVECTORI32@1@B
CONST	SEGMENT
?g_XMInfinity@DirectX@@3UXMVECTORI32@1@B DD 07f800000H	; DirectX::g_XMInfinity
	DD	07f800000H
	DD	07f800000H
	DD	07f800000H
CONST	ENDS
;	COMDAT ?g_XMZero@DirectX@@3UXMVECTORF32@1@B
CONST	SEGMENT
?g_XMZero@DirectX@@3UXMVECTORF32@1@B DD 000000000r ; 0	; DirectX::g_XMZero
	DD	000000000r			; 0
	DD	000000000r			; 0
	DD	000000000r			; 0
CONST	ENDS
;	COMDAT ?g_XMMask3@DirectX@@3UXMVECTORI32@1@B
CONST	SEGMENT
?g_XMMask3@DirectX@@3UXMVECTORI32@1@B DD 0ffffffffH	; DirectX::g_XMMask3
	DD	0ffffffffH
	DD	0ffffffffH
	DD	00H
CONST	ENDS
;	COMDAT ?g_XMIdentityR3@DirectX@@3UXMVECTORF32@1@B
CONST	SEGMENT
?g_XMIdentityR3@DirectX@@3UXMVECTORF32@1@B DD 000000000r ; 0 ; DirectX::g_XMIdentityR3
	DD	000000000r			; 0
	DD	000000000r			; 0
	DD	03f800000r			; 1
CONST	ENDS
;	COMDAT ?g_XMIdentityR2@DirectX@@3UXMVECTORF32@1@B
CONST	SEGMENT
?g_XMIdentityR2@DirectX@@3UXMVECTORF32@1@B DD 000000000r ; 0 ; DirectX::g_XMIdentityR2
	DD	000000000r			; 0
	DD	03f800000r			; 1
	DD	000000000r			; 0
CONST	ENDS
;	COMDAT ?g_XMIdentityR1@DirectX@@3UXMVECTORF32@1@B
CONST	SEGMENT
?g_XMIdentityR1@DirectX@@3UXMVECTORF32@1@B DD 000000000r ; 0 ; DirectX::g_XMIdentityR1
	DD	03f800000r			; 1
	DD	000000000r			; 0
	DD	000000000r			; 0
CONST	ENDS
;	COMDAT ?g_XMIdentityR0@DirectX@@3UXMVECTORF32@1@B
CONST	SEGMENT
?g_XMIdentityR0@DirectX@@3UXMVECTORF32@1@B DD 03f800000r ; 1 ; DirectX::g_XMIdentityR0
	DD	000000000r			; 0
	DD	000000000r			; 0
	DD	000000000r			; 0
CONST	ENDS
;	COMDAT ?value@?$integral_constant@H$0A@@std@@2HB
CONST	SEGMENT
?value@?$integral_constant@H$0A@@std@@2HB DD 00H	; std::integral_constant<int,0>::value
CONST	ENDS
CONST	SEGMENT
$SG163884 DB	'D', 00H, 'r', 00H, 'a', 00H, 'w', 00H, 'T', 00H, 'e', 00H
	DB	'x', 00H, 't', 00H, 'L', 00H, 'i', 00H, 'n', 00H, 'e', 00H, 00H
	DB	00H
	ORG $+2
$SG163885 DB	'SDKmisc.cpp', 00H
$SG163894 DB	'D', 00H, 'r', 00H, 'a', 00H, 'w', 00H, 'T', 00H, 'e', 00H
	DB	'x', 00H, 't', 00H, 00H, 00H
	ORG $+2
$SG163895 DB	'S', 00H, 'D', 00H, 'K', 00H, 'm', 00H, 'i', 00H, 's', 00H
	DB	'c', 00H, '.', 00H, 'c', 00H, 'p', 00H, 'p', 00H, 00H, 00H
$SG163918 DB	'D', 00H, 'r', 00H, 'a', 00H, 'w', 00H, 'T', 00H, 'e', 00H
	DB	'x', 00H, 't', 00H, 'L', 00H, 'i', 00H, 'n', 00H, 'e', 00H, 00H
	DB	00H
	ORG $+2
$SG163919 DB	'SDKmisc.cpp', 00H
$SG163927 DB	'D', 00H, 'r', 00H, 'a', 00H, 'w', 00H, 'T', 00H, 'e', 00H
	DB	'x', 00H, 't', 00H, 00H, 00H
	ORG $+2
$SG163928 DB	'S', 00H, 'D', 00H, 'K', 00H, 'm', 00H, 'i', 00H, 's', 00H
	DB	'c', 00H, '.', 00H, 'c', 00H, 'p', 00H, 'p', 00H, 00H, 00H
$SG163421 DB	'\', 00H, 'D', 00H, 'X', 00H, 'U', 00H, 'T', 00H, '\', 00H
	DB	'S', 00H, 'k', 00H, 'i', 00H, 'p', 00H, 'R', 00H, 'e', 00H, 'f'
	DB	00H, 'W', 00H, 'a', 00H, 'r', 00H, 'n', 00H, 'i', 00H, 'n', 00H
	DB	'g', 00H, '.', 00H, 'd', 00H, 'a', 00H, 't', 00H, 00H, 00H
	ORG $+2
$SG163462 DB	' ', 00H, 00H, 00H
$SG163463 DB	'M', 00H, 'S', 00H, ' ', 00H, 'S', 00H, 'h', 00H, 'e', 00H
	DB	'l', 00H, 'l', 00H, ' ', 00H, 'D', 00H, 'l', 00H, 'g', 00H, ' '
	DB	00H, '2', 00H, 00H, 00H
	ORG $+2
$SG163471 DB	'\', 00H, 'D', 00H, 'X', 00H, 'U', 00H, 'T', 00H, 00H, 00H
$SG163472 DB	'\', 00H, 'S', 00H, 'k', 00H, 'i', 00H, 'p', 00H, 'R', 00H
	DB	'e', 00H, 'f', 00H, 'W', 00H, 'a', 00H, 'r', 00H, 'n', 00H, 'i'
	DB	00H, 'n', 00H, 'g', 00H, '.', 00H, 'd', 00H, 'a', 00H, 't', 00H
	DB	00H, 00H
$SG163500 DB	'&', 00H, 'Y', 00H, 'e', 00H, 's', 00H, 00H, 00H
	ORG $+2
$SG163499 DB	'T', 00H, 'h', 00H, 'i', 00H, 's', 00H, ' ', 00H, 'p', 00H
	DB	'r', 00H, 'o', 00H, 'g', 00H, 'r', 00H, 'a', 00H, 'm', 00H, ' '
	DB	00H, 'n', 00H, 'e', 00H, 'e', 00H, 'd', 00H, 's', 00H, ' ', 00H
	DB	't', 00H, 'o', 00H, ' ', 00H, 'u', 00H, 's', 00H, 'e', 00H, ' '
	DB	00H, 't', 00H, 'h', 00H, 'e', 00H, ' ', 00H, 'D', 00H, 'i', 00H
	DB	'r', 00H, 'e', 00H, 'c', 00H, 't', 00H, '3', 00H, 'D', 00H, ' '
	DB	00H, '%', 00H, 'I', 00H, 'u', 00H, ' ', 00H, 'r', 00H, 'e', 00H
	DB	'f', 00H, 'e', 00H, 'r', 00H, 'e', 00H, 'n', 00H, 'c', 00H, 'e'
	DB	00H, ' ', 00H, 'd', 00H, 'e', 00H, 'v', 00H, 'i', 00H, 'c', 00H
	DB	'e', 00H, '.', 00H, ' ', 00H, ' ', 00H, 'T', 00H, 'h', 00H, 'i'
	DB	00H, 's', 00H, ' ', 00H, 'd', 00H, 'e', 00H, 'v', 00H, 'i', 00H
	DB	'c', 00H, 'e', 00H, ' ', 00H, 'i', 00H, 'm', 00H, 'p', 00H, 'l'
	DB	00H, 'e', 00H, 'm', 00H, 'e', 00H, 'n', 00H, 't', 00H, 's', 00H
	DB	' ', 00H, 't', 00H, 'h', 00H, 'e', 00H, ' ', 00H, 'e', 00H, 'n'
	DB	00H, 't', 00H, 'i', 00H, 'r', 00H, 'e', 00H, ' ', 00H, 'D', 00H
	DB	'i', 00H, 'r', 00H, 'e', 00H, 'c', 00H, 't', 00H, '3', 00H, 'D'
	DB	00H, ' ', 00H, '%', 00H, 'I', 00H, 'u', 00H, ' ', 00H, 'f', 00H
	DB	'e', 00H, 'a', 00H, 't', 00H, 'u', 00H, 'r', 00H, 'e', 00H, ' '
	DB	00H, 's', 00H, 'e', 00H, 't', 00H, ',', 00H, ' ', 00H, 'b', 00H
	DB	'u', 00H, 't', 00H, ' ', 00H, 'r', 00H, 'u', 00H, 'n', 00H, 's'
	DB	00H, ' ', 00H, 'v', 00H, 'e', 00H, 'r', 00H, 'y', 00H, ' ', 00H
	DB	's', 00H, 'l', 00H, 'o', 00H, 'w', 00H, 'l', 00H, 'y', 00H, '.'
	DB	00H, ' ', 00H, ' ', 00H, 'D', 00H, 'o', 00H, ' ', 00H, 'y', 00H
	DB	'o', 00H, 'u', 00H, ' ', 00H, 'w', 00H, 'i', 00H, 's', 00H, 'h'
	DB	00H, ' ', 00H, 't', 00H, 'o', 00H, ' ', 00H, 'c', 00H, 'o', 00H
	DB	'n', 00H, 't', 00H, 'i', 00H, 'n', 00H, 'u', 00H, 'e', 00H, '?'
	DB	00H, 00H, 00H
$SG163501 DB	'&', 00H, 'N', 00H, 'o', 00H, 00H, 00H
$SG163502 DB	'&', 00H, 'D', 00H, 'o', 00H, 'n', 00H, '''', 00H, 't', 00H
	DB	' ', 00H, 's', 00H, 'h', 00H, 'o', 00H, 'w', 00H, ' ', 00H, 'a'
	DB	00H, 'g', 00H, 'a', 00H, 'i', 00H, 'n', 00H, 00H, 00H
$SG163529 DB	'\', 00H, 00H, 00H
$SG163553 DB	'm', 00H, 'e', 00H, 'd', 00H, 'i', 00H, 'a', 00H, '\', 00H
	DB	'%', 00H, 's', 00H, 00H, 00H
	ORG $+2
$SG163557 DB	'.', 00H, 00H, 00H
$SG163562 DB	'm', 00H, 'e', 00H, 'd', 00H, 'i', 00H, 'a', 00H, '\', 00H
	DB	'%', 00H, 's', 00H, 00H, 00H
	ORG $+2
$SG163563 DB	'.', 00H, 00H, 00H
$SG163580 DB	'.', 00H, '.', 00H, '\', 00H, '%', 00H, 's', 00H, 00H, 00H
$SG163582 DB	'.', 00H, '.', 00H, '\', 00H, '.', 00H, '.', 00H, '\', 00H
	DB	'%', 00H, 's', 00H, 00H, 00H
	ORG $+2
$SG163584 DB	'.', 00H, '.', 00H, '\', 00H, '.', 00H, '.', 00H, '\', 00H
	DB	'%', 00H, 's', 00H, 00H, 00H
	ORG $+2
$SG163586 DB	'%', 00H, 's', 00H, '\', 00H, '%', 00H, 's', 00H, 00H, 00H
$SG163588 DB	'%', 00H, 's', 00H, '\', 00H, '.', 00H, '.', 00H, '\', 00H
	DB	'%', 00H, 's', 00H, 00H, 00H
	ORG $+2
$SG163590 DB	'%', 00H, 's', 00H, '\', 00H, '.', 00H, '.', 00H, '\', 00H
	DB	'.', 00H, '.', 00H, '\', 00H, '%', 00H, 's', 00H, 00H, 00H
$SG163592 DB	'%', 00H, 's', 00H, '\', 00H, '.', 00H, '.', 00H, '\', 00H
	DB	'%', 00H, 's', 00H, '\', 00H, '%', 00H, 's', 00H, 00H, 00H
$SG163594 DB	'%', 00H, 's', 00H, '\', 00H, '.', 00H, '.', 00H, '\', 00H
	DB	'.', 00H, '.', 00H, '\', 00H, '%', 00H, 's', 00H, '\', 00H, '%'
	DB	00H, 's', 00H, 00H, 00H
	ORG $+2
$SG163598 DB	'%', 00H, 's', 00H, '%', 00H, 's', 00H, 00H, 00H
	ORG $+2
$SG163614 DB	'%', 00H, 's', 00H, '\', 00H, '%', 00H, 's', 00H, 00H, 00H
$SG163616 DB	'%', 00H, 's', 00H, '\', 00H, '.', 00H, '.', 00H, 00H, 00H
$SG163633 DB	'SDKmisc.cpp', 00H
$SG163632 DB	'D', 00H, 'X', 00H, 'U', 00H, 'T', 00H, 'F', 00H, 'i', 00H
	DB	'n', 00H, 'd', 00H, 'D', 00H, 'X', 00H, 'S', 00H, 'D', 00H, 'K'
	DB	00H, 'M', 00H, 'e', 00H, 'd', 00H, 'i', 00H, 'a', 00H, 'F', 00H
	DB	'i', 00H, 'l', 00H, 'e', 00H, 'C', 00H, 'c', 00H, 'h', 00H, '('
	DB	00H, ' ', 00H, 's', 00H, 't', 00H, 'r', 00H, ',', 00H, ' ', 00H
	DB	'M', 00H, 'A', 00H, 'X', 00H, '_', 00H, 'P', 00H, 'A', 00H, 'T'
	DB	00H, 'H', 00H, ',', 00H, ' ', 00H, 'p', 00H, 'F', 00H, 'i', 00H
	DB	'l', 00H, 'e', 00H, 'N', 00H, 'a', 00H, 'm', 00H, 'e', 00H, ' '
	DB	00H, ')', 00H, 00H, 00H
$SG163653 DB	'.', 00H, 'd', 00H, 'd', 00H, 's', 00H, 00H, 00H
	ORG $+2
$SG163669 DB	'.', 00H, 'd', 00H, 'd', 00H, 's', 00H, 00H, 00H
	ORG $+2
$SG163821 DB	'.', 00H, 'd', 00H, 'd', 00H, 's', 00H, 00H, 00H
CONST	ENDS
;	COMDAT _GUID_ContainerFormatBmp
CONST	SEGMENT
_GUID_ContainerFormatBmp DD 0af1d87eH
	DW	0fcfeH
	DW	04188H
	DB	0bdH
	DB	0ebH
	DB	0a7H
	DB	090H
	DB	064H
	DB	071H
	DB	0cbH
	DB	0e3H
CONST	ENDS
PUBLIC	?wcsrchr@@YAPA_WPA_W_W@Z			; wcsrchr
PUBLIC	??2@YAPAXIPAX@Z					; operator new
PUBLIC	??3@YAXPAX0@Z					; operator delete
PUBLIC	??BXMVECTORF32@DirectX@@QBE?AT__m128@@XZ	; DirectX::XMVECTORF32::operator __m128
PUBLIC	??BXMVECTORI32@DirectX@@QBE?AT__m128@@XZ	; DirectX::XMVECTORI32::operator __m128
PUBLIC	??0XMMATRIX@DirectX@@QAE@XZ			; DirectX::XMMATRIX::XMMATRIX
PUBLIC	??4XMMATRIX@DirectX@@QAEAAU01@ABU01@@Z		; DirectX::XMMATRIX::operator=
PUBLIC	??0XMFLOAT4@DirectX@@QAE@XZ			; DirectX::XMFLOAT4::XMFLOAT4
PUBLIC	??0XMFLOAT4@DirectX@@QAE@MMMM@Z			; DirectX::XMFLOAT4::XMFLOAT4
PUBLIC	??4XMFLOAT4@DirectX@@QAEAAU01@ABU01@@Z		; DirectX::XMFLOAT4::operator=
PUBLIC	?XMVectorZero@DirectX@@YQ?AT__m128@@XZ		; DirectX::XMVectorZero
PUBLIC	?XMVectorSelect@DirectX@@YQ?AT__m128@@T2@00@Z	; DirectX::XMVectorSelect
PUBLIC	?XMVectorNegate@DirectX@@YQ?AT__m128@@T2@@Z	; DirectX::XMVectorNegate
PUBLIC	?XMVectorSubtract@DirectX@@YQ?AT__m128@@T2@0@Z	; DirectX::XMVectorSubtract
PUBLIC	?XMVector3Equal@DirectX@@YQ_NT__m128@@0@Z	; DirectX::XMVector3Equal
PUBLIC	?XMVector3IsInfinite@DirectX@@YQ_NT__m128@@@Z	; DirectX::XMVector3IsInfinite
PUBLIC	?XMVector3Dot@DirectX@@YQ?AT__m128@@T2@0@Z	; DirectX::XMVector3Dot
PUBLIC	?XMVector3Cross@DirectX@@YQ?AT__m128@@T2@0@Z	; DirectX::XMVector3Cross
PUBLIC	?XMVector3Normalize@DirectX@@YQ?AT__m128@@T2@@Z	; DirectX::XMVector3Normalize
PUBLIC	?XMMatrixTranspose@DirectX@@YQ?AUXMMATRIX@1@U21@@Z ; DirectX::XMMatrixTranspose
PUBLIC	?XMMatrixIdentity@DirectX@@YQ?AUXMMATRIX@1@XZ	; DirectX::XMMatrixIdentity
PUBLIC	?XMMatrixLookAtLH@DirectX@@YQ?AUXMMATRIX@1@T__m128@@00@Z ; DirectX::XMMatrixLookAtLH
PUBLIC	?XMMatrixLookToLH@DirectX@@YQ?AUXMMATRIX@1@T__m128@@00@Z ; DirectX::XMMatrixLookToLH
PUBLIC	??0_Container_proxy@std@@QAE@XZ			; std::_Container_proxy::_Container_proxy
PUBLIC	??0_Iterator_base12@std@@QAE@XZ			; std::_Iterator_base12::_Iterator_base12
PUBLIC	??1_Iterator_base12@std@@QAE@XZ			; std::_Iterator_base12::~_Iterator_base12
PUBLIC	?_Adopt@_Iterator_base12@std@@QAEXPBU_Container_base12@2@@Z ; std::_Iterator_base12::_Adopt
PUBLIC	?_Clrcont@_Iterator_base12@std@@QAEXXZ		; std::_Iterator_base12::_Clrcont
PUBLIC	?_Getcont@_Iterator_base12@std@@QBEPBU_Container_base12@2@XZ ; std::_Iterator_base12::_Getcont
PUBLIC	?_Getpnext@_Iterator_base12@std@@QAEPAPAU12@XZ	; std::_Iterator_base12::_Getpnext
PUBLIC	?_Orphan_me@_Iterator_base12@std@@QAEXXZ	; std::_Iterator_base12::_Orphan_me
PUBLIC	??0?$allocator@U_Container_proxy@std@@@std@@QAE@XZ ; std::allocator<std::_Container_proxy>::allocator<std::_Container_proxy>
PUBLIC	?deallocate@?$allocator@U_Container_proxy@std@@@std@@QAEXPAU_Container_proxy@2@I@Z ; std::allocator<std::_Container_proxy>::deallocate
PUBLIC	?allocate@?$allocator@U_Container_proxy@std@@@std@@QAEPAU_Container_proxy@2@I@Z ; std::allocator<std::_Container_proxy>::allocate
PUBLIC	??0?$_Wrap_alloc@V?$allocator@U_Container_proxy@std@@@std@@@std@@QAE@XZ ; std::_Wrap_alloc<std::allocator<std::_Container_proxy> >::_Wrap_alloc<std::allocator<std::_Container_proxy> >
PUBLIC	?allocate@?$_Wrap_alloc@V?$allocator@U_Container_proxy@std@@@std@@@std@@QAEPAU_Container_proxy@2@I@Z ; std::_Wrap_alloc<std::allocator<std::_Container_proxy> >::allocate
PUBLIC	?deallocate@?$_Wrap_alloc@V?$allocator@U_Container_proxy@std@@@std@@@std@@QAEXPAU_Container_proxy@2@I@Z ; std::_Wrap_alloc<std::allocator<std::_Container_proxy> >::deallocate
PUBLIC	??$construct@U_Container_proxy@std@@U12@@?$_Wrap_alloc@V?$allocator@U_Container_proxy@std@@@std@@@std@@QAEXPAU_Container_proxy@1@$$QAU21@@Z ; std::_Wrap_alloc<std::allocator<std::_Container_proxy> >::construct<std::_Container_proxy,std::_Container_proxy>
PUBLIC	??$destroy@U_Container_proxy@std@@@?$_Wrap_alloc@V?$allocator@U_Container_proxy@std@@@std@@@std@@QAEXPAU_Container_proxy@1@@Z ; std::_Wrap_alloc<std::allocator<std::_Container_proxy> >::destroy<std::_Container_proxy>
PUBLIC	??$_Allocate@U_Container_proxy@std@@@std@@YAPAU_Container_proxy@0@IPAU10@@Z ; std::_Allocate<std::_Container_proxy>
PUBLIC	??$forward@U_Container_proxy@std@@@std@@YA$$QAU_Container_proxy@0@AAU10@@Z ; std::forward<std::_Container_proxy>
PUBLIC	??$construct@U_Container_proxy@std@@U12@@?$allocator_traits@V?$allocator@U_Container_proxy@std@@@std@@@std@@SAXAAV?$allocator@U_Container_proxy@std@@@1@PAU_Container_proxy@1@$$QAU31@@Z ; std::allocator_traits<std::allocator<std::_Container_proxy> >::construct<std::_Container_proxy,std::_Container_proxy>
PUBLIC	??$destroy@U_Container_proxy@std@@@?$allocator_traits@V?$allocator@U_Container_proxy@std@@@std@@@std@@SAXAAV?$allocator@U_Container_proxy@std@@@1@PAU_Container_proxy@1@@Z ; std::allocator_traits<std::allocator<std::_Container_proxy> >::destroy<std::_Container_proxy>
PUBLIC	??$construct@U_Container_proxy@std@@U12@@?$allocator@U_Container_proxy@std@@@std@@QAEXPAU_Container_proxy@1@$$QAU21@@Z ; std::allocator<std::_Container_proxy>::construct<std::_Container_proxy,std::_Container_proxy>
PUBLIC	??$destroy@U_Container_proxy@std@@@?$allocator@U_Container_proxy@std@@@std@@QAEXPAU_Container_proxy@1@@Z ; std::allocator<std::_Container_proxy>::destroy<std::_Container_proxy>
PUBLIC	??0DXUTCache_Texture@@QAE@XZ			; DXUTCache_Texture::DXUTCache_Texture
PUBLIC	??1CDXUTResourceCache@@QAE@XZ			; CDXUTResourceCache::~CDXUTResourceCache
PUBLIC	?CreateTextureFromFile@CDXUTResourceCache@@QAEJPAUID3D11Device@@PAUID3D11DeviceContext@@PB_WPAPAUID3D11ShaderResourceView@@_N@Z ; CDXUTResourceCache::CreateTextureFromFile
PUBLIC	?CreateTextureFromFile@CDXUTResourceCache@@QAEJPAUID3D11Device@@PAUID3D11DeviceContext@@PBDPAPAUID3D11ShaderResourceView@@_N@Z ; CDXUTResourceCache::CreateTextureFromFile
PUBLIC	?OnDestroyDevice@CDXUTResourceCache@@QAEJXZ	; CDXUTResourceCache::OnDestroyDevice
PUBLIC	?DXUTGetGlobalResourceCache@@YGAAVCDXUTResourceCache@@XZ ; DXUTGetGlobalResourceCache
PUBLIC	??0CDXUTResourceCache@@IAE@XZ			; CDXUTResourceCache::CDXUTResourceCache
PUBLIC	??0?$allocator@UDXUTCache_Texture@@@std@@QAE@XZ	; std::allocator<DXUTCache_Texture>::allocator<DXUTCache_Texture>
PUBLIC	?deallocate@?$allocator@UDXUTCache_Texture@@@std@@QAEXPAUDXUTCache_Texture@@I@Z ; std::allocator<DXUTCache_Texture>::deallocate
PUBLIC	?allocate@?$allocator@UDXUTCache_Texture@@@std@@QAEPAUDXUTCache_Texture@@I@Z ; std::allocator<DXUTCache_Texture>::allocate
PUBLIC	?construct@?$allocator@UDXUTCache_Texture@@@std@@QAEXPAUDXUTCache_Texture@@ABU3@@Z ; std::allocator<DXUTCache_Texture>::construct
PUBLIC	?max_size@?$allocator@UDXUTCache_Texture@@@std@@QBEIXZ ; std::allocator<DXUTCache_Texture>::max_size
PUBLIC	?max_size@?$allocator_traits@V?$allocator@UDXUTCache_Texture@@@std@@@std@@SAIABV?$allocator@UDXUTCache_Texture@@@2@@Z ; std::allocator_traits<std::allocator<DXUTCache_Texture> >::max_size
PUBLIC	??0?$_Wrap_alloc@V?$allocator@UDXUTCache_Texture@@@std@@@std@@QAE@XZ ; std::_Wrap_alloc<std::allocator<DXUTCache_Texture> >::_Wrap_alloc<std::allocator<DXUTCache_Texture> >
PUBLIC	?allocate@?$_Wrap_alloc@V?$allocator@UDXUTCache_Texture@@@std@@@std@@QAEPAUDXUTCache_Texture@@I@Z ; std::_Wrap_alloc<std::allocator<DXUTCache_Texture> >::allocate
PUBLIC	?deallocate@?$_Wrap_alloc@V?$allocator@UDXUTCache_Texture@@@std@@@std@@QAEXPAUDXUTCache_Texture@@I@Z ; std::_Wrap_alloc<std::allocator<DXUTCache_Texture> >::deallocate
PUBLIC	?max_size@?$_Wrap_alloc@V?$allocator@UDXUTCache_Texture@@@std@@@std@@QBEIXZ ; std::_Wrap_alloc<std::allocator<DXUTCache_Texture> >::max_size
PUBLIC	??0?$_Vector_val@U?$_Simple_types@UDXUTCache_Texture@@@std@@@std@@QAE@XZ ; std::_Vector_val<std::_Simple_types<DXUTCache_Texture> >::_Vector_val<std::_Simple_types<DXUTCache_Texture> >
PUBLIC	??1?$_Vector_val@U?$_Simple_types@UDXUTCache_Texture@@@std@@@std@@QAE@XZ ; std::_Vector_val<std::_Simple_types<DXUTCache_Texture> >::~_Vector_val<std::_Simple_types<DXUTCache_Texture> >
PUBLIC	??0?$_Vector_alloc@$0A@U?$_Vec_base_types@UDXUTCache_Texture@@V?$allocator@UDXUTCache_Texture@@@std@@@std@@@std@@QAE@ABV?$allocator@UDXUTCache_Texture@@@1@@Z ; std::_Vector_alloc<0,std::_Vec_base_types<DXUTCache_Texture,std::allocator<DXUTCache_Texture> > >::_Vector_alloc<0,std::_Vec_base_types<DXUTCache_Texture,std::allocator<DXUTCache_Texture> > >
PUBLIC	??1?$_Vector_alloc@$0A@U?$_Vec_base_types@UDXUTCache_Texture@@V?$allocator@UDXUTCache_Texture@@@std@@@std@@@std@@QAE@XZ ; std::_Vector_alloc<0,std::_Vec_base_types<DXUTCache_Texture,std::allocator<DXUTCache_Texture> > >::~_Vector_alloc<0,std::_Vec_base_types<DXUTCache_Texture,std::allocator<DXUTCache_Texture> > >
PUBLIC	?_Alloc_proxy@?$_Vector_alloc@$0A@U?$_Vec_base_types@UDXUTCache_Texture@@V?$allocator@UDXUTCache_Texture@@@std@@@std@@@std@@QAEXXZ ; std::_Vector_alloc<0,std::_Vec_base_types<DXUTCache_Texture,std::allocator<DXUTCache_Texture> > >::_Alloc_proxy
PUBLIC	?_Free_proxy@?$_Vector_alloc@$0A@U?$_Vec_base_types@UDXUTCache_Texture@@V?$allocator@UDXUTCache_Texture@@@std@@@std@@@std@@QAEXXZ ; std::_Vector_alloc<0,std::_Vec_base_types<DXUTCache_Texture,std::allocator<DXUTCache_Texture> > >::_Free_proxy
PUBLIC	?_Getal@?$_Vector_alloc@$0A@U?$_Vec_base_types@UDXUTCache_Texture@@V?$allocator@UDXUTCache_Texture@@@std@@@std@@@std@@QBE?AU?$_Wrap_alloc@V?$allocator@UDXUTCache_Texture@@@std@@@2@XZ ; std::_Vector_alloc<0,std::_Vec_base_types<DXUTCache_Texture,std::allocator<DXUTCache_Texture> > >::_Getal
PUBLIC	??0?$vector@UDXUTCache_Texture@@V?$allocator@UDXUTCache_Texture@@@std@@@std@@QAE@XZ ; std::vector<DXUTCache_Texture,std::allocator<DXUTCache_Texture> >::vector<DXUTCache_Texture,std::allocator<DXUTCache_Texture> >
PUBLIC	??1?$vector@UDXUTCache_Texture@@V?$allocator@UDXUTCache_Texture@@@std@@@std@@QAE@XZ ; std::vector<DXUTCache_Texture,std::allocator<DXUTCache_Texture> >::~vector<DXUTCache_Texture,std::allocator<DXUTCache_Texture> >
PUBLIC	?capacity@?$vector@UDXUTCache_Texture@@V?$allocator@UDXUTCache_Texture@@@std@@@std@@QBEIXZ ; std::vector<DXUTCache_Texture,std::allocator<DXUTCache_Texture> >::capacity
PUBLIC	?_Unused_capacity@?$vector@UDXUTCache_Texture@@V?$allocator@UDXUTCache_Texture@@@std@@@std@@QBEIXZ ; std::vector<DXUTCache_Texture,std::allocator<DXUTCache_Texture> >::_Unused_capacity
PUBLIC	?_Has_unused_capacity@?$vector@UDXUTCache_Texture@@V?$allocator@UDXUTCache_Texture@@@std@@@std@@QBEIXZ ; std::vector<DXUTCache_Texture,std::allocator<DXUTCache_Texture> >::_Has_unused_capacity
PUBLIC	?begin@?$vector@UDXUTCache_Texture@@V?$allocator@UDXUTCache_Texture@@@std@@@std@@QBE?AV?$_Vector_const_iterator@V?$_Vector_val@U?$_Simple_types@UDXUTCache_Texture@@@std@@@std@@@2@XZ ; std::vector<DXUTCache_Texture,std::allocator<DXUTCache_Texture> >::begin
PUBLIC	?end@?$vector@UDXUTCache_Texture@@V?$allocator@UDXUTCache_Texture@@@std@@@std@@QBE?AV?$_Vector_const_iterator@V?$_Vector_val@U?$_Simple_types@UDXUTCache_Texture@@@std@@@std@@@2@XZ ; std::vector<DXUTCache_Texture,std::allocator<DXUTCache_Texture> >::end
PUBLIC	?cbegin@?$vector@UDXUTCache_Texture@@V?$allocator@UDXUTCache_Texture@@@std@@@std@@QBE?AV?$_Vector_const_iterator@V?$_Vector_val@U?$_Simple_types@UDXUTCache_Texture@@@std@@@std@@@2@XZ ; std::vector<DXUTCache_Texture,std::allocator<DXUTCache_Texture> >::cbegin
PUBLIC	?cend@?$vector@UDXUTCache_Texture@@V?$allocator@UDXUTCache_Texture@@@std@@@std@@QBE?AV?$_Vector_const_iterator@V?$_Vector_val@U?$_Simple_types@UDXUTCache_Texture@@@std@@@std@@@2@XZ ; std::vector<DXUTCache_Texture,std::allocator<DXUTCache_Texture> >::cend
PUBLIC	?shrink_to_fit@?$vector@UDXUTCache_Texture@@V?$allocator@UDXUTCache_Texture@@@std@@@std@@QAEXXZ ; std::vector<DXUTCache_Texture,std::allocator<DXUTCache_Texture> >::shrink_to_fit
PUBLIC	?size@?$vector@UDXUTCache_Texture@@V?$allocator@UDXUTCache_Texture@@@std@@@std@@QBEIXZ ; std::vector<DXUTCache_Texture,std::allocator<DXUTCache_Texture> >::size
PUBLIC	?max_size@?$vector@UDXUTCache_Texture@@V?$allocator@UDXUTCache_Texture@@@std@@@std@@QBEIXZ ; std::vector<DXUTCache_Texture,std::allocator<DXUTCache_Texture> >::max_size
PUBLIC	?empty@?$vector@UDXUTCache_Texture@@V?$allocator@UDXUTCache_Texture@@@std@@@std@@QBE_NXZ ; std::vector<DXUTCache_Texture,std::allocator<DXUTCache_Texture> >::empty
PUBLIC	??A?$vector@UDXUTCache_Texture@@V?$allocator@UDXUTCache_Texture@@@std@@@std@@QAEAAUDXUTCache_Texture@@I@Z ; std::vector<DXUTCache_Texture,std::allocator<DXUTCache_Texture> >::operator[]
PUBLIC	?push_back@?$vector@UDXUTCache_Texture@@V?$allocator@UDXUTCache_Texture@@@std@@@std@@QAEXABUDXUTCache_Texture@@@Z ; std::vector<DXUTCache_Texture,std::allocator<DXUTCache_Texture> >::push_back
PUBLIC	?clear@?$vector@UDXUTCache_Texture@@V?$allocator@UDXUTCache_Texture@@@std@@@std@@QAEXXZ ; std::vector<DXUTCache_Texture,std::allocator<DXUTCache_Texture> >::clear
PUBLIC	?_Destroy@?$vector@UDXUTCache_Texture@@V?$allocator@UDXUTCache_Texture@@@std@@@std@@IAEXPAUDXUTCache_Texture@@0@Z ; std::vector<DXUTCache_Texture,std::allocator<DXUTCache_Texture> >::_Destroy
PUBLIC	?_Grow_to@?$vector@UDXUTCache_Texture@@V?$allocator@UDXUTCache_Texture@@@std@@@std@@IBEII@Z ; std::vector<DXUTCache_Texture,std::allocator<DXUTCache_Texture> >::_Grow_to
PUBLIC	?_Inside@?$vector@UDXUTCache_Texture@@V?$allocator@UDXUTCache_Texture@@@std@@@std@@IBE_NPBUDXUTCache_Texture@@@Z ; std::vector<DXUTCache_Texture,std::allocator<DXUTCache_Texture> >::_Inside
PUBLIC	?_Reallocate@?$vector@UDXUTCache_Texture@@V?$allocator@UDXUTCache_Texture@@@std@@@std@@IAEXI@Z ; std::vector<DXUTCache_Texture,std::allocator<DXUTCache_Texture> >::_Reallocate
PUBLIC	?_Reserve@?$vector@UDXUTCache_Texture@@V?$allocator@UDXUTCache_Texture@@@std@@@std@@IAEXI@Z ; std::vector<DXUTCache_Texture,std::allocator<DXUTCache_Texture> >::_Reserve
PUBLIC	?_Tidy@?$vector@UDXUTCache_Texture@@V?$allocator@UDXUTCache_Texture@@@std@@@std@@IAEXXZ ; std::vector<DXUTCache_Texture,std::allocator<DXUTCache_Texture> >::_Tidy
PUBLIC	?_Xlen@?$vector@UDXUTCache_Texture@@V?$allocator@UDXUTCache_Texture@@@std@@@std@@IBEXXZ ; std::vector<DXUTCache_Texture,std::allocator<DXUTCache_Texture> >::_Xlen
PUBLIC	?_Orphan_range@?$vector@UDXUTCache_Texture@@V?$allocator@UDXUTCache_Texture@@@std@@@std@@IBEXPAUDXUTCache_Texture@@0@Z ; std::vector<DXUTCache_Texture,std::allocator<DXUTCache_Texture> >::_Orphan_range
PUBLIC	??0CDXUTTextHelper@@QAE@PAUID3D11Device@@PAUID3D11DeviceContext@@PAVCDXUTDialogResourceManager@@H@Z ; CDXUTTextHelper::CDXUTTextHelper
PUBLIC	??1CDXUTTextHelper@@QAE@XZ			; CDXUTTextHelper::~CDXUTTextHelper
PUBLIC	?Init@CDXUTTextHelper@@QAEXH@Z			; CDXUTTextHelper::Init
PUBLIC	?Begin@CDXUTTextHelper@@QAEXXZ			; CDXUTTextHelper::Begin
PUBLIC	?DrawFormattedTextLine@CDXUTTextHelper@@QAAJPB_WZZ ; CDXUTTextHelper::DrawFormattedTextLine
PUBLIC	?DrawTextLine@CDXUTTextHelper@@QAEJPB_W@Z	; CDXUTTextHelper::DrawTextLine
PUBLIC	?DrawFormattedTextLine@CDXUTTextHelper@@QAAJABUtagRECT@@PB_WZZ ; CDXUTTextHelper::DrawFormattedTextLine
PUBLIC	?DrawTextLine@CDXUTTextHelper@@QAEJABUtagRECT@@PB_W@Z ; CDXUTTextHelper::DrawTextLine
PUBLIC	?End@CDXUTTextHelper@@QAEXXZ			; CDXUTTextHelper::End
PUBLIC	?DXUTDisplaySwitchingToREFWarning@@YGXXZ	; DXUTDisplaySwitchingToREFWarning
PUBLIC	?DXUTFindDXSDKMediaFileCch@@YGJPA_WHPB_W@Z	; DXUTFindDXSDKMediaFileCch
PUBLIC	?DXUTSetMediaSearchPath@@YGJPB_W@Z		; DXUTSetMediaSearchPath
PUBLIC	?DXUTGetMediaSearchPath@@YGPB_WXZ		; DXUTGetMediaSearchPath
PUBLIC	?DXUTCompileFromFile@@YGJPB_WPBU_D3D_SHADER_MACRO@@PBD2IIPAPAUID3D10Blob@@@Z ; DXUTCompileFromFile
PUBLIC	?DXUTCreateShaderResourceViewFromFile@@YGJPAUID3D11Device@@PB_WPAPAUID3D11ShaderResourceView@@@Z ; DXUTCreateShaderResourceViewFromFile
PUBLIC	?DXUTCreateTextureFromFile@@YGJPAUID3D11Device@@PB_WPAPAUID3D11Resource@@@Z ; DXUTCreateTextureFromFile
PUBLIC	?DXUTSaveTextureToFile@@YGJPAUID3D11DeviceContext@@PAUID3D11Resource@@_NPB_W@Z ; DXUTSaveTextureToFile
PUBLIC	?DXUTGetCubeMapViewMatrix@@YG?AUXMMATRIX@DirectX@@K@Z ; DXUTGetCubeMapViewMatrix
PUBLIC	??0_Ignore@std@@QAE@XZ				; std::_Ignore::_Ignore
PUBLIC	??0?$_Func_class@XPAUIPropertyBag2@@@std@@QAE@XZ ; std::_Func_class<void,IPropertyBag2 *>::_Func_class<void,IPropertyBag2 *>
PUBLIC	?_Reset@?$_Func_class@XPAUIPropertyBag2@@@std@@IAEXXZ ; std::_Func_class<void,IPropertyBag2 *>::_Reset
PUBLIC	?_Set@?$_Func_class@XPAUIPropertyBag2@@@std@@AAEXPAV?$_Func_base@XPAUIPropertyBag2@@@2@@Z ; std::_Func_class<void,IPropertyBag2 *>::_Set
PUBLIC	??0?$function@$$A6AXPAUIPropertyBag2@@@Z@std@@QAE@$$T@Z ; std::function<void __cdecl(IPropertyBag2 *)>::function<void __cdecl(IPropertyBag2 *)>
PUBLIC	?DXUTFindMediaSearchTypicalDirs@@YA_NPA_WHPB_W11@Z ; DXUTFindMediaSearchTypicalDirs
PUBLIC	?DXUTFindMediaSearchParentDirs@@YA_NPA_WHPB_W1@Z ; DXUTFindMediaSearchParentDirs
PUBLIC	?DisplaySwitchToREFWarningProc@@YGHPAUHWND__@@IIJ@Z ; DisplaySwitchToREFWarningProc
PUBLIC	?DXUTMediaSearchPath@@YAPA_WXZ			; DXUTMediaSearchPath
PUBLIC	??0?$_Iterator012@Urandom_access_iterator_tag@std@@UDXUTCache_Texture@@HPBU3@ABU3@U_Iterator_base12@2@@std@@QAE@XZ ; std::_Iterator012<std::random_access_iterator_tag,DXUTCache_Texture,int,DXUTCache_Texture const *,DXUTCache_Texture const &,std::_Iterator_base12>::_Iterator012<std::random_access_iterator_tag,DXUTCache_Texture,int,DXUTCache_Texture const *,DXUTCache_Texture const &,std::_Iterator_base12>
PUBLIC	??1?$_Iterator012@Urandom_access_iterator_tag@std@@UDXUTCache_Texture@@HPBU3@ABU3@U_Iterator_base12@2@@std@@QAE@XZ ; std::_Iterator012<std::random_access_iterator_tag,DXUTCache_Texture,int,DXUTCache_Texture const *,DXUTCache_Texture const &,std::_Iterator_base12>::~_Iterator012<std::random_access_iterator_tag,DXUTCache_Texture,int,DXUTCache_Texture const *,DXUTCache_Texture const &,std::_Iterator_base12>
PUBLIC	??0?$_Vector_const_iterator@V?$_Vector_val@U?$_Simple_types@UDXUTCache_Texture@@@std@@@std@@@std@@QAE@PAUDXUTCache_Texture@@PBU_Container_base12@1@@Z ; std::_Vector_const_iterator<std::_Vector_val<std::_Simple_types<DXUTCache_Texture> > >::_Vector_const_iterator<std::_Vector_val<std::_Simple_types<DXUTCache_Texture> > >
PUBLIC	??D?$_Vector_const_iterator@V?$_Vector_val@U?$_Simple_types@UDXUTCache_Texture@@@std@@@std@@@std@@QBEABUDXUTCache_Texture@@XZ ; std::_Vector_const_iterator<std::_Vector_val<std::_Simple_types<DXUTCache_Texture> > >::operator*
PUBLIC	??C?$_Vector_const_iterator@V?$_Vector_val@U?$_Simple_types@UDXUTCache_Texture@@@std@@@std@@@std@@QBEPBUDXUTCache_Texture@@XZ ; std::_Vector_const_iterator<std::_Vector_val<std::_Simple_types<DXUTCache_Texture> > >::operator->
PUBLIC	??E?$_Vector_const_iterator@V?$_Vector_val@U?$_Simple_types@UDXUTCache_Texture@@@std@@@std@@@std@@QAEAAV01@XZ ; std::_Vector_const_iterator<std::_Vector_val<std::_Simple_types<DXUTCache_Texture> > >::operator++
PUBLIC	??8?$_Vector_const_iterator@V?$_Vector_val@U?$_Simple_types@UDXUTCache_Texture@@@std@@@std@@@std@@QBE_NABV01@@Z ; std::_Vector_const_iterator<std::_Vector_val<std::_Simple_types<DXUTCache_Texture> > >::operator==
PUBLIC	??9?$_Vector_const_iterator@V?$_Vector_val@U?$_Simple_types@UDXUTCache_Texture@@@std@@@std@@@std@@QBE_NABV01@@Z ; std::_Vector_const_iterator<std::_Vector_val<std::_Simple_types<DXUTCache_Texture> > >::operator!=
PUBLIC	?_Compat@?$_Vector_const_iterator@V?$_Vector_val@U?$_Simple_types@UDXUTCache_Texture@@@std@@@std@@@std@@QBEXABV12@@Z ; std::_Vector_const_iterator<std::_Vector_val<std::_Simple_types<DXUTCache_Texture> > >::_Compat
PUBLIC	??1?$_Vector_const_iterator@V?$_Vector_val@U?$_Simple_types@UDXUTCache_Texture@@@std@@@std@@@std@@QAE@XZ ; std::_Vector_const_iterator<std::_Vector_val<std::_Simple_types<DXUTCache_Texture> > >::~_Vector_const_iterator<std::_Vector_val<std::_Simple_types<DXUTCache_Texture> > >
PUBLIC	??$addressof@$$CBUDXUTCache_Texture@@@std@@YAPBUDXUTCache_Texture@@ABU1@@Z ; std::addressof<DXUTCache_Texture const >
PUBLIC	??$construct@UDXUTCache_Texture@@AAU1@@?$_Wrap_alloc@V?$allocator@UDXUTCache_Texture@@@std@@@std@@QAEXPAUDXUTCache_Texture@@AAU2@@Z ; std::_Wrap_alloc<std::allocator<DXUTCache_Texture> >::construct<DXUTCache_Texture,DXUTCache_Texture &>
PUBLIC	??$construct@UDXUTCache_Texture@@ABU1@@?$_Wrap_alloc@V?$allocator@UDXUTCache_Texture@@@std@@@std@@QAEXPAUDXUTCache_Texture@@ABU2@@Z ; std::_Wrap_alloc<std::allocator<DXUTCache_Texture> >::construct<DXUTCache_Texture,DXUTCache_Texture const &>
PUBLIC	?pointer_to@?$pointer_traits@PBUDXUTCache_Texture@@@std@@SAPBUDXUTCache_Texture@@ABU3@@Z ; std::pointer_traits<DXUTCache_Texture const *>::pointer_to
PUBLIC	??$_Destroy_range@U?$_Wrap_alloc@V?$allocator@UDXUTCache_Texture@@@std@@@std@@@std@@YAXPAUDXUTCache_Texture@@0AAU?$_Wrap_alloc@V?$allocator@UDXUTCache_Texture@@@std@@@0@@Z ; std::_Destroy_range<std::_Wrap_alloc<std::allocator<DXUTCache_Texture> > >
PUBLIC	??$_Umove@PAUDXUTCache_Texture@@@?$vector@UDXUTCache_Texture@@V?$allocator@UDXUTCache_Texture@@@std@@@std@@IAEPAUDXUTCache_Texture@@PAU2@00@Z ; std::vector<DXUTCache_Texture,std::allocator<DXUTCache_Texture> >::_Umove<DXUTCache_Texture *>
PUBLIC	??$_Allocate@UDXUTCache_Texture@@@std@@YAPAUDXUTCache_Texture@@IPAU1@@Z ; std::_Allocate<DXUTCache_Texture>
PUBLIC	??$forward@AAUDXUTCache_Texture@@@std@@YAAAUDXUTCache_Texture@@AAU1@@Z ; std::forward<DXUTCache_Texture &>
PUBLIC	??$construct@UDXUTCache_Texture@@AAU1@@?$allocator_traits@V?$allocator@UDXUTCache_Texture@@@std@@@std@@SAXAAV?$allocator@UDXUTCache_Texture@@@1@PAUDXUTCache_Texture@@AAU3@@Z ; std::allocator_traits<std::allocator<DXUTCache_Texture> >::construct<DXUTCache_Texture,DXUTCache_Texture &>
PUBLIC	??$forward@ABUDXUTCache_Texture@@@std@@YAABUDXUTCache_Texture@@ABU1@@Z ; std::forward<DXUTCache_Texture const &>
PUBLIC	??$construct@UDXUTCache_Texture@@ABU1@@?$allocator_traits@V?$allocator@UDXUTCache_Texture@@@std@@@std@@SAXAAV?$allocator@UDXUTCache_Texture@@@1@PAUDXUTCache_Texture@@ABU3@@Z ; std::allocator_traits<std::allocator<DXUTCache_Texture> >::construct<DXUTCache_Texture,DXUTCache_Texture const &>
PUBLIC	??$_Ptr_cat@UDXUTCache_Texture@@U1@@std@@YA?AU_Nonscalar_ptr_iterator_tag@0@PAUDXUTCache_Texture@@0@Z ; std::_Ptr_cat<DXUTCache_Texture,DXUTCache_Texture>
PUBLIC	??$_Destroy_range@U?$_Wrap_alloc@V?$allocator@UDXUTCache_Texture@@@std@@@std@@@std@@YAXPAUDXUTCache_Texture@@0AAU?$_Wrap_alloc@V?$allocator@UDXUTCache_Texture@@@std@@@0@U_Nonscalar_ptr_iterator_tag@0@@Z ; std::_Destroy_range<std::_Wrap_alloc<std::allocator<DXUTCache_Texture> > >
PUBLIC	??$_Uninitialized_move@PAUDXUTCache_Texture@@PAU1@U?$_Wrap_alloc@V?$allocator@UDXUTCache_Texture@@@std@@@std@@@std@@YAPAUDXUTCache_Texture@@PAU1@00AAU?$_Wrap_alloc@V?$allocator@UDXUTCache_Texture@@@std@@@0@@Z ; std::_Uninitialized_move<DXUTCache_Texture *,DXUTCache_Texture *,std::_Wrap_alloc<std::allocator<DXUTCache_Texture> > >
PUBLIC	??$construct@UDXUTCache_Texture@@AAU1@@?$allocator@UDXUTCache_Texture@@@std@@QAEXPAUDXUTCache_Texture@@AAU2@@Z ; std::allocator<DXUTCache_Texture>::construct<DXUTCache_Texture,DXUTCache_Texture &>
PUBLIC	??$destroy@UDXUTCache_Texture@@@?$_Wrap_alloc@V?$allocator@UDXUTCache_Texture@@@std@@@std@@QAEXPAUDXUTCache_Texture@@@Z ; std::_Wrap_alloc<std::allocator<DXUTCache_Texture> >::destroy<DXUTCache_Texture>
PUBLIC	??$_Unchecked@PAUDXUTCache_Texture@@@std@@YAPAUDXUTCache_Texture@@PAU1@@Z ; std::_Unchecked<DXUTCache_Texture *>
PUBLIC	??$_Uninit_move@PAUDXUTCache_Texture@@PAU1@U?$_Wrap_alloc@V?$allocator@UDXUTCache_Texture@@@std@@@std@@@std@@YAPAUDXUTCache_Texture@@PAU1@00AAU?$_Wrap_alloc@V?$allocator@UDXUTCache_Texture@@@std@@@0@@Z ; std::_Uninit_move<DXUTCache_Texture *,DXUTCache_Texture *,std::_Wrap_alloc<std::allocator<DXUTCache_Texture> > >
PUBLIC	??$_Rechecked@PAUDXUTCache_Texture@@PAU1@@std@@YAAAPAUDXUTCache_Texture@@AAPAU1@PAU1@@Z ; std::_Rechecked<DXUTCache_Texture *,DXUTCache_Texture *>
PUBLIC	??$destroy@UDXUTCache_Texture@@@?$allocator_traits@V?$allocator@UDXUTCache_Texture@@@std@@@std@@SAXAAV?$allocator@UDXUTCache_Texture@@@1@PAUDXUTCache_Texture@@@Z ; std::allocator_traits<std::allocator<DXUTCache_Texture> >::destroy<DXUTCache_Texture>
PUBLIC	??$_Val_type@PAUDXUTCache_Texture@@@std@@YAPAUDXUTCache_Texture@@PAU1@@Z ; std::_Val_type<DXUTCache_Texture *>
PUBLIC	??$_Uninit_move@PAUDXUTCache_Texture@@PAU1@V?$allocator@UDXUTCache_Texture@@@std@@U1@@std@@YAPAUDXUTCache_Texture@@PAU1@00AAU?$_Wrap_alloc@V?$allocator@UDXUTCache_Texture@@@std@@@0@0U_Nonscalar_ptr_iterator_tag@0@@Z ; std::_Uninit_move<DXUTCache_Texture *,DXUTCache_Texture *,std::allocator<DXUTCache_Texture>,DXUTCache_Texture>
PUBLIC	??$destroy@UDXUTCache_Texture@@@?$allocator@UDXUTCache_Texture@@@std@@QAEXPAUDXUTCache_Texture@@@Z ; std::allocator<DXUTCache_Texture>::destroy<DXUTCache_Texture>
PUBLIC	??$_Debug_range@PAUDXUTCache_Texture@@@std@@YAXPAUDXUTCache_Texture@@0PB_WI@Z ; std::_Debug_range<DXUTCache_Texture *>
PUBLIC	??$_Debug_pointer@UDXUTCache_Texture@@@std@@YAXPAUDXUTCache_Texture@@PB_WI@Z ; std::_Debug_pointer<DXUTCache_Texture>
PUBLIC	??$construct@UDXUTCache_Texture@@U1@@?$_Wrap_alloc@V?$allocator@UDXUTCache_Texture@@@std@@@std@@QAEXPAUDXUTCache_Texture@@$$QAU2@@Z ; std::_Wrap_alloc<std::allocator<DXUTCache_Texture> >::construct<DXUTCache_Texture,DXUTCache_Texture>
PUBLIC	??$_Iter_cat@PAUDXUTCache_Texture@@@std@@YA?AUrandom_access_iterator_tag@0@ABQAUDXUTCache_Texture@@@Z ; std::_Iter_cat<DXUTCache_Texture *>
PUBLIC	??$_Debug_range2@PAUDXUTCache_Texture@@@std@@YAXPAUDXUTCache_Texture@@0PB_WIUrandom_access_iterator_tag@0@@Z ; std::_Debug_range2<DXUTCache_Texture *>
PUBLIC	??$forward@UDXUTCache_Texture@@@std@@YA$$QAUDXUTCache_Texture@@AAU1@@Z ; std::forward<DXUTCache_Texture>
PUBLIC	??$construct@UDXUTCache_Texture@@U1@@?$allocator_traits@V?$allocator@UDXUTCache_Texture@@@std@@@std@@SAXAAV?$allocator@UDXUTCache_Texture@@@1@PAUDXUTCache_Texture@@$$QAU3@@Z ; std::allocator_traits<std::allocator<DXUTCache_Texture> >::construct<DXUTCache_Texture,DXUTCache_Texture>
PUBLIC	??$construct@UDXUTCache_Texture@@U1@@?$allocator@UDXUTCache_Texture@@@std@@QAEXPAUDXUTCache_Texture@@$$QAU2@@Z ; std::allocator<DXUTCache_Texture>::construct<DXUTCache_Texture,DXUTCache_Texture>
PUBLIC	??_C@_15GANGMFKL@?$AA?$CF?$AAs?$AA?$AA@		; `string'
PUBLIC	??_C@_1JC@FPIPICAN@?$AAc?$AA?3?$AA?2?$AAp?$AAr?$AAo?$AAg?$AAr?$AAa?$AAm?$AA?5?$AAf?$AAi?$AAl?$AAe?$AAs?$AA?5?$AA?$CI?$AAx?$AA8?$AA6?$AA?$CJ?$AA?2?$AAw?$AAi?$AAn?$AAd?$AAo?$AAw?$AAs?$AA?5?$AAk@ ; `string'
PUBLIC	??_C@_1FM@KOIPKFLA@?$AA?$CB?$AAX?$AAM?$AAV?$AAe?$AAc?$AAt?$AAo?$AAr?$AA3?$AAE?$AAq?$AAu?$AAa?$AAl?$AA?$CI?$AAE?$AAy?$AAe?$AAD?$AAi?$AAr?$AAe?$AAc?$AAt?$AAi?$AAo?$AAn?$AA?0?$AA?5?$AAX?$AAM@ ; `string'
PUBLIC	??_C@_1EG@DOFHPLOD@?$AA?$CB?$AAX?$AAM?$AAV?$AAe?$AAc?$AAt?$AAo?$AAr?$AA3?$AAI?$AAs?$AAI?$AAn?$AAf?$AAi?$AAn?$AAi?$AAt?$AAe?$AA?$CI?$AAE?$AAy?$AAe?$AAD?$AAi?$AAr?$AAe?$AAc?$AAt?$AAi?$AAo@ ; `string'
PUBLIC	??_C@_1FK@IBPGMKAB@?$AA?$CB?$AAX?$AAM?$AAV?$AAe?$AAc?$AAt?$AAo?$AAr?$AA3?$AAE?$AAq?$AAu?$AAa?$AAl?$AA?$CI?$AAU?$AAp?$AAD?$AAi?$AAr?$AAe?$AAc?$AAt?$AAi?$AAo?$AAn?$AA?0?$AA?5?$AAX?$AAM?$AAV@ ; `string'
PUBLIC	??_C@_1EE@JAOFAOOK@?$AA?$CB?$AAX?$AAM?$AAV?$AAe?$AAc?$AAt?$AAo?$AAr?$AA3?$AAI?$AAs?$AAI?$AAn?$AAf?$AAi?$AAn?$AAi?$AAt?$AAe?$AA?$CI?$AAU?$AAp?$AAD?$AAi?$AAr?$AAe?$AAc?$AAt?$AAi?$AAo?$AAn@ ; `string'
PUBLIC	??_C@_1JA@EADLBAJ@?$AAC?$AA?3?$AA?2?$AAP?$AAr?$AAo?$AAg?$AAr?$AAa?$AAm?$AA?5?$AAF?$AAi?$AAl?$AAe?$AAs?$AA?5?$AA?$CI?$AAx?$AA8?$AA6?$AA?$CJ?$AA?2?$AAM?$AAi?$AAc?$AAr?$AAo?$AAs?$AAo?$AAf?$AAt@ ; `string'
PUBLIC	??_C@_1DC@POOIKBAO@?$AAI?$AAT?$AAE?$AAR?$AAA?$AAT?$AAO?$AAR?$AA?5?$AAL?$AAI?$AAS?$AAT?$AA?5?$AAC?$AAO?$AAR?$AAR?$AAU?$AAP?$AAT?$AAE?$AAD?$AA?$CB?$AA?$AA@ ; `string'
PUBLIC	??_C@_1IM@EINEHPHE@?$AAC?$AA?3?$AA?2?$AAP?$AAr?$AAo?$AAg?$AAr?$AAa?$AAm?$AA?5?$AAF?$AAi?$AAl?$AAe?$AAs?$AA?5?$AA?$CI?$AAx?$AA8?$AA6?$AA?$CJ?$AA?2?$AAM?$AAi?$AAc?$AAr?$AAo?$AAs?$AAo?$AAf?$AAt@ ; `string'
PUBLIC	??_C@_1DM@LHGCHCBA@?$AAv?$AAe?$AAc?$AAt?$AAo?$AAr?$AA?5?$AAs?$AAu?$AAb?$AAs?$AAc?$AAr?$AAi?$AAp?$AAt?$AA?5?$AAo?$AAu?$AAt?$AA?5?$AAo?$AAf?$AA?5?$AAr?$AAa?$AAn?$AAg?$AAe?$AA?$AA@ ; `string'
PUBLIC	??_C@_0CE@OFMIGAMM@Standard?5C?$CL?$CL?5Libraries?5Out?5of?5Ra@ ; `string'
PUBLIC	??_C@_1FG@IBPIFFN@?$AA?$CC?$AAS?$AAt?$AAa?$AAn?$AAd?$AAa?$AAr?$AAd?$AA?5?$AAC?$AA?$CL?$AA?$CL?$AA?5?$AAL?$AAi?$AAb?$AAr?$AAa?$AAr?$AAi?$AAe?$AAs?$AA?5?$AAO?$AAu?$AAt?$AA?5?$AAo?$AAf?$AA?5?$AAR@ ; `string'
PUBLIC	??_C@_1MG@PMHOEKDO@?$AAs?$AAt?$AAd?$AA?3?$AA?3?$AAv?$AAe?$AAc?$AAt?$AAo?$AAr?$AA?$DM?$AAs?$AAt?$AAr?$AAu?$AAc?$AAt?$AA?5?$AAD?$AAX?$AAU?$AAT?$AAC?$AAa?$AAc?$AAh?$AAe?$AA_?$AAT?$AAe?$AAx@ ; `string'
PUBLIC	??_C@_1BO@MEPPHOO@?$AA?$CC?$AAo?$AAu?$AAt?$AA?5?$AAo?$AAf?$AA?5?$AAr?$AAa?$AAn?$AAg?$AAe?$AA?$CC?$AA?$AA@ ; `string'
PUBLIC	??_C@_1EE@EJDKCLKB@?$AAv?$AAe?$AAc?$AAt?$AAo?$AAr?$AA?5?$AAi?$AAt?$AAe?$AAr?$AAa?$AAt?$AAo?$AAr?$AA?5?$AAn?$AAo?$AAt?$AA?5?$AAi?$AAn?$AAc?$AAr?$AAe?$AAm?$AAe?$AAn?$AAt?$AAa?$AAb?$AAl@ ; `string'
PUBLIC	??_C@_1PA@CDGOAEFA@?$AAs?$AAt?$AAd?$AA?3?$AA?3?$AA_?$AAV?$AAe?$AAc?$AAt?$AAo?$AAr?$AA_?$AAc?$AAo?$AAn?$AAs?$AAt?$AA_?$AAi?$AAt?$AAe?$AAr?$AAa?$AAt?$AAo?$AAr?$AA?$DM?$AAc?$AAl?$AAa?$AAs@ ; `string'
PUBLIC	??_C@_1EG@FOHJJHAC@?$AAv?$AAe?$AAc?$AAt?$AAo?$AAr?$AA?5?$AAi?$AAt?$AAe?$AAr?$AAa?$AAt?$AAo?$AAr?$AA?5?$AAn?$AAo?$AAt?$AA?5?$AAd?$AAe?$AAr?$AAe?$AAf?$AAe?$AAr?$AAe?$AAn?$AAc?$AAa?$AAb@ ; `string'
PUBLIC	??_C@_1OO@BAHPFGHC@?$AAs?$AAt?$AAd?$AA?3?$AA?3?$AA_?$AAV?$AAe?$AAc?$AAt?$AAo?$AAr?$AA_?$AAc?$AAo?$AAn?$AAs?$AAt?$AA_?$AAi?$AAt?$AAe?$AAr?$AAa?$AAt?$AAo?$AAr?$AA?$DM?$AAc?$AAl?$AAa?$AAs@ ; `string'
PUBLIC	??_C@_0BD@OLBABOEK@vector?$DMT?$DO?5too?5long?$AA@ ; `string'
PUBLIC	??_C@_1DM@HINDPMBP@?$AAv?$AAe?$AAc?$AAt?$AAo?$AAr?$AA?5?$AAi?$AAt?$AAe?$AAr?$AAa?$AAt?$AAo?$AAr?$AAs?$AA?5?$AAi?$AAn?$AAc?$AAo?$AAm?$AAp?$AAa?$AAt?$AAi?$AAb?$AAl?$AAe?$AA?$AA@ ; `string'
PUBLIC	??_C@_0CI@FNPHFCCM@Standard?5C?$CL?$CL?5Libraries?5Invalid?5A@ ; `string'
PUBLIC	??_C@_1FO@GJIHNDLM@?$AA?$CC?$AAS?$AAt?$AAa?$AAn?$AAd?$AAa?$AAr?$AAd?$AA?5?$AAC?$AA?$CL?$AA?$CL?$AA?5?$AAL?$AAi?$AAb?$AAr?$AAa?$AAr?$AAi?$AAe?$AAs?$AA?5?$AAI?$AAn?$AAv?$AAa?$AAl?$AAi?$AAd?$AA?5@ ; `string'
PUBLIC	??_C@_1OI@HHLPKFIO@?$AAs?$AAt?$AAd?$AA?3?$AA?3?$AA_?$AAV?$AAe?$AAc?$AAt?$AAo?$AAr?$AA_?$AAc?$AAo?$AAn?$AAs?$AAt?$AA_?$AAi?$AAt?$AAe?$AAr?$AAa?$AAt?$AAo?$AAr?$AA?$DM?$AAc?$AAl?$AAa?$AAs@ ; `string'
PUBLIC	??_C@_1CG@JNLFBNGN@?$AA?$CC?$AAi?$AAn?$AAv?$AAa?$AAl?$AAi?$AAd?$AA?5?$AAa?$AAr?$AAg?$AAu?$AAm?$AAe?$AAn?$AAt?$AA?$CC?$AA?$AA@ ; `string'
PUBLIC	??_C@_1IO@LKIDJAMC@?$AAC?$AA?3?$AA?2?$AAP?$AAr?$AAo?$AAg?$AAr?$AAa?$AAm?$AA?5?$AAF?$AAi?$AAl?$AAe?$AAs?$AA?5?$AA?$CI?$AAx?$AA8?$AA6?$AA?$CJ?$AA?2?$AAM?$AAi?$AAc?$AAr?$AAo?$AAs?$AAo?$AAf?$AAt@ ; `string'
PUBLIC	??_C@_1CK@EOPGIILJ@?$AAi?$AAn?$AAv?$AAa?$AAl?$AAi?$AAd?$AA?5?$AAn?$AAu?$AAl?$AAl?$AA?5?$AAp?$AAo?$AAi?$AAn?$AAt?$AAe?$AAr?$AA?$AA@ ; `string'
PUBLIC	??_C@_1CO@DGLIKNHI@?$AAi?$AAn?$AAv?$AAa?$AAl?$AAi?$AAd?$AA?5?$AAi?$AAt?$AAe?$AAr?$AAa?$AAt?$AAo?$AAr?$AA?5?$AAr?$AAa?$AAn?$AAg?$AAe?$AA?$AA@ ; `string'
PUBLIC	__real@3f800000
PUBLIC	__xmm@41f00000000000000000000000000000
EXTRN	??2@YAPAXI@Z:PROC				; operator new
EXTRN	??3@YAXPAX@Z:PROC				; operator delete
EXTRN	___report_rangecheckfailure:PROC
EXTRN	__imp___invalid_parameter:PROC
EXTRN	__imp__wcscat_s:PROC
EXTRN	__imp__wcscpy_s:PROC
EXTRN	__imp__wcsnlen:PROC
EXTRN	__imp__wcsrchr:PROC
EXTRN	__imp___wcsicmp:PROC
EXTRN	__imp__CreateDirectoryW@8:PROC
EXTRN	__imp__CreateFileW@28:PROC
EXTRN	__imp__GetFileAttributesW@4:PROC
EXTRN	__imp__GetFullPathNameW@16:PROC
EXTRN	__imp__ReadFile@20:PROC
EXTRN	__imp__WriteFile@20:PROC
EXTRN	__imp__OutputDebugStringA@4:PROC
EXTRN	__imp__CloseHandle@4:PROC
EXTRN	__imp__GetModuleFileNameW@12:PROC
EXTRN	__imp__SendMessageW@16:PROC
EXTRN	__imp__DialogBoxIndirectParamW@20:PROC
EXTRN	__imp__EndDialog@8:PROC
EXTRN	__imp__GetDlgItem@8:PROC
EXTRN	__imp__SetDlgItemTextW@12:PROC
EXTRN	__imp__CheckDlgButton@12:PROC
EXTRN	__imp__IsDlgButtonChecked@8:PROC
EXTRN	__imp__EnableWindow@8:PROC
EXTRN	__imp__SetWindowTextW@8:PROC
EXTRN	__imp__SetRect@20:PROC
EXTRN	__imp__LoadIconW@8:PROC
EXTRN	__imp__MultiByteToWideChar@24:PROC
EXTRN	__imp___wsplitpath_s:PROC
EXTRN	__imp___wassert:PROC
EXTRN	__imp__SHGetFolderPathW@20:PROC
EXTRN	__imp__swprintf_s:PROC
EXTRN	__imp__vswprintf_s:PROC
EXTRN	__imp___CrtDbgReportW:PROC
EXTRN	__imp___CrtSetDbgFlag:PROC
EXTRN	_D3DCompileFromFile@36:PROC
EXTRN	__imp_??0_Lockit@std@@QAE@H@Z:PROC
EXTRN	__imp_??1_Lockit@std@@QAE@XZ:PROC
EXTRN	_DXTraceW@20:PROC
EXTRN	__imp_?_Debug_message@std@@YAXPB_W0I@Z:PROC
EXTRN	__imp_??0_Container_base12@std@@QAE@XZ:PROC
EXTRN	__imp_??1_Container_base12@std@@QAE@XZ:PROC
EXTRN	__imp_?_Getpfirst@_Container_base12@std@@QBEPAPAU_Iterator_base12@2@XZ:PROC
EXTRN	__imp_?_Orphan_all@_Container_base12@std@@QAEXXZ:PROC
EXTRN	__imp_?_Xbad_alloc@std@@YAXXZ:PROC
EXTRN	__imp_?_Xlength_error@std@@YAXPBD@Z:PROC
EXTRN	?DXUTShutdown@@YGXH@Z:PROC			; DXUTShutdown
EXTRN	?DXUTGetHINSTANCE@@YGPAUHINSTANCE__@@XZ:PROC	; DXUTGetHINSTANCE
EXTRN	?DXUTGetHWND@@YGPAUHWND__@@XZ:PROC		; DXUTGetHWND
EXTRN	?DXUTGetWindowTitle@@YGPB_WXZ:PROC		; DXUTGetWindowTitle
EXTRN	?DXUTGetShowMsgBoxOnError@@YG_NXZ:PROC		; DXUTGetShowMsgBoxOnError
EXTRN	?DXUTTrace@@YGJPBDKJPB_W_N@Z:PROC		; DXUTTrace
EXTRN	?StoreD3D11State@CDXUTDialogResourceManager@@QAEXPAUID3D11DeviceContext@@@Z:PROC ; CDXUTDialogResourceManager::StoreD3D11State
EXTRN	?RestoreD3D11State@CDXUTDialogResourceManager@@QAEXPAUID3D11DeviceContext@@@Z:PROC ; CDXUTDialogResourceManager::RestoreD3D11State
EXTRN	?ApplyRenderUI11@CDXUTDialogResourceManager@@QAEXPAUID3D11DeviceContext@@@Z:PROC ; CDXUTDialogResourceManager::ApplyRenderUI11
EXTRN	?DrawText11DXUT@@YAXPAUID3D11Device@@PAUID3D11DeviceContext@@PB_WABUtagRECT@@UXMFLOAT4@DirectX@@MM_N@Z:PROC ; DrawText11DXUT
EXTRN	?CreateDDSTextureFromFile@DirectX@@YAJPAUID3D11Device@@PB_WPAPAUID3D11Resource@@PAPAUID3D11ShaderResourceView@@IPAW4DDS_ALPHA_MODE@1@@Z:PROC ; DirectX::CreateDDSTextureFromFile
EXTRN	?CreateDDSTextureFromFileEx@DirectX@@YAJPAUID3D11Device@@PB_WIW4D3D11_USAGE@@III_NPAPAUID3D11Resource@@PAPAUID3D11ShaderResourceView@@PAW4DDS_ALPHA_MODE@1@@Z:PROC ; DirectX::CreateDDSTextureFromFileEx
EXTRN	?CreateWICTextureFromFile@DirectX@@YAJPAUID3D11Device@@PAUID3D11DeviceContext@@PB_WPAPAUID3D11Resource@@PAPAUID3D11ShaderResourceView@@I@Z:PROC ; DirectX::CreateWICTextureFromFile
EXTRN	?CreateWICTextureFromFileEx@DirectX@@YAJPAUID3D11Device@@PAUID3D11DeviceContext@@PB_WIW4D3D11_USAGE@@III_NPAPAUID3D11Resource@@PAPAUID3D11ShaderResourceView@@@Z:PROC ; DirectX::CreateWICTextureFromFileEx
EXTRN	?SaveDDSTextureToFile@DirectX@@YAJPAUID3D11DeviceContext@@PAUID3D11Resource@@PB_W@Z:PROC ; DirectX::SaveDDSTextureToFile
EXTRN	?SaveWICTextureToFile@DirectX@@YAJPAUID3D11DeviceContext@@PAUID3D11Resource@@ABU_GUID@@PB_WPBU4@V?$function@$$A6AXPAUIPropertyBag2@@@Z@std@@@Z:PROC ; DirectX::SaveWICTextureToFile
EXTRN	@_RTC_CheckStackVars@8:PROC
EXTRN	@__security_check_cookie@4:PROC
EXTRN	__CxxThrowException@8:PROC
EXTRN	__RTC_CheckEsp:PROC
EXTRN	__RTC_InitBase:PROC
EXTRN	__RTC_Shutdown:PROC
EXTRN	___CxxFrameHandler3:PROC
EXTRN	_memset:PROC
EXTRN	___security_cookie:DWORD
EXTRN	__fltused:DWORD
_BSS	SEGMENT
_ignore	DB	01H DUP (?)
__Tuple_alloc DB 01H DUP (?)
_BSS	ENDS
;	COMDAT ?s_cache@?1??DXUTGetGlobalResourceCache@@YGAAVCDXUTResourceCache@@XZ@4PAV2@A
_BSS	SEGMENT
?s_cache@?1??DXUTGetGlobalResourceCache@@YGAAVCDXUTResourceCache@@XZ@4PAV2@A DD 01H DUP (?) ; `DXUTGetGlobalResourceCache'::`2'::s_cache
_BSS	ENDS
;	COMDAT ?s_strMediaSearchPath@?1??DXUTMediaSearchPath@@YAPA_WXZ@4PA_WA
_BSS	SEGMENT
?s_strMediaSearchPath@?1??DXUTMediaSearchPath@@YAPA_WXZ@4PA_WA DW 0104H DUP (?) ; `DXUTMediaSearchPath'::`2'::s_strMediaSearchPath
_BSS	ENDS
CRT$XCU	SEGMENT
_ignore$initializer$ DD FLAT:??__Eignore@std@@YAXXZ
CRT$XCU	ENDS
;	COMDAT __xmm@41f00000000000000000000000000000
CONST	SEGMENT
__xmm@41f00000000000000000000000000000 DB 00H, 00H, 00H, 00H, 00H, 00H, 00H
	DB	00H, 00H, 00H, 00H, 00H, 00H, 00H, 0f0H, 'A'
CONST	ENDS
;	COMDAT __real@3f800000
CONST	SEGMENT
__real@3f800000 DD 03f800000r			; 1
CONST	ENDS
;	COMDAT rtc$TMZ
rtc$TMZ	SEGMENT
__RTC_Shutdown.rtc$TMZ DD FLAT:__RTC_Shutdown
rtc$TMZ	ENDS
;	COMDAT rtc$IMZ
rtc$IMZ	SEGMENT
__RTC_InitBase.rtc$IMZ DD FLAT:__RTC_InitBase
rtc$IMZ	ENDS
;	COMDAT ??_C@_1CO@DGLIKNHI@?$AAi?$AAn?$AAv?$AAa?$AAl?$AAi?$AAd?$AA?5?$AAi?$AAt?$AAe?$AAr?$AAa?$AAt?$AAo?$AAr?$AA?5?$AAr?$AAa?$AAn?$AAg?$AAe?$AA?$AA@
CONST	SEGMENT
??_C@_1CO@DGLIKNHI@?$AAi?$AAn?$AAv?$AAa?$AAl?$AAi?$AAd?$AA?5?$AAi?$AAt?$AAe?$AAr?$AAa?$AAt?$AAo?$AAr?$AA?5?$AAr?$AAa?$AAn?$AAg?$AAe?$AA?$AA@ DB 'i'
	DB	00H, 'n', 00H, 'v', 00H, 'a', 00H, 'l', 00H, 'i', 00H, 'd', 00H
	DB	' ', 00H, 'i', 00H, 't', 00H, 'e', 00H, 'r', 00H, 'a', 00H, 't'
	DB	00H, 'o', 00H, 'r', 00H, ' ', 00H, 'r', 00H, 'a', 00H, 'n', 00H
	DB	'g', 00H, 'e', 00H, 00H, 00H			; `string'
CONST	ENDS
;	COMDAT ??_C@_1CK@EOPGIILJ@?$AAi?$AAn?$AAv?$AAa?$AAl?$AAi?$AAd?$AA?5?$AAn?$AAu?$AAl?$AAl?$AA?5?$AAp?$AAo?$AAi?$AAn?$AAt?$AAe?$AAr?$AA?$AA@
CONST	SEGMENT
??_C@_1CK@EOPGIILJ@?$AAi?$AAn?$AAv?$AAa?$AAl?$AAi?$AAd?$AA?5?$AAn?$AAu?$AAl?$AAl?$AA?5?$AAp?$AAo?$AAi?$AAn?$AAt?$AAe?$AAr?$AA?$AA@ DB 'i'
	DB	00H, 'n', 00H, 'v', 00H, 'a', 00H, 'l', 00H, 'i', 00H, 'd', 00H
	DB	' ', 00H, 'n', 00H, 'u', 00H, 'l', 00H, 'l', 00H, ' ', 00H, 'p'
	DB	00H, 'o', 00H, 'i', 00H, 'n', 00H, 't', 00H, 'e', 00H, 'r', 00H
	DB	00H, 00H					; `string'
CONST	ENDS
;	COMDAT ??_C@_1IO@LKIDJAMC@?$AAC?$AA?3?$AA?2?$AAP?$AAr?$AAo?$AAg?$AAr?$AAa?$AAm?$AA?5?$AAF?$AAi?$AAl?$AAe?$AAs?$AA?5?$AA?$CI?$AAx?$AA8?$AA6?$AA?$CJ?$AA?2?$AAM?$AAi?$AAc?$AAr?$AAo?$AAs?$AAo?$AAf?$AAt@
CONST	SEGMENT
??_C@_1IO@LKIDJAMC@?$AAC?$AA?3?$AA?2?$AAP?$AAr?$AAo?$AAg?$AAr?$AAa?$AAm?$AA?5?$AAF?$AAi?$AAl?$AAe?$AAs?$AA?5?$AA?$CI?$AAx?$AA8?$AA6?$AA?$CJ?$AA?2?$AAM?$AAi?$AAc?$AAr?$AAo?$AAs?$AAo?$AAf?$AAt@ DB 'C'
	DB	00H, ':', 00H, '\', 00H, 'P', 00H, 'r', 00H, 'o', 00H, 'g', 00H
	DB	'r', 00H, 'a', 00H, 'm', 00H, ' ', 00H, 'F', 00H, 'i', 00H, 'l'
	DB	00H, 'e', 00H, 's', 00H, ' ', 00H, '(', 00H, 'x', 00H, '8', 00H
	DB	'6', 00H, ')', 00H, '\', 00H, 'M', 00H, 'i', 00H, 'c', 00H, 'r'
	DB	00H, 'o', 00H, 's', 00H, 'o', 00H, 'f', 00H, 't', 00H, ' ', 00H
	DB	'V', 00H, 'i', 00H, 's', 00H, 'u', 00H, 'a', 00H, 'l', 00H, ' '
	DB	00H, 'S', 00H, 't', 00H, 'u', 00H, 'd', 00H, 'i', 00H, 'o', 00H
	DB	' ', 00H, '1', 00H, '2', 00H, '.', 00H, '0', 00H, '\', 00H, 'V'
	DB	00H, 'C', 00H, '\', 00H, 'i', 00H, 'n', 00H, 'c', 00H, 'l', 00H
	DB	'u', 00H, 'd', 00H, 'e', 00H, '\', 00H, 'x', 00H, 'm', 00H, 'e'
	DB	00H, 'm', 00H, 'o', 00H, 'r', 00H, 'y', 00H, 00H, 00H ; `string'
CONST	ENDS
;	COMDAT ??_C@_1CG@JNLFBNGN@?$AA?$CC?$AAi?$AAn?$AAv?$AAa?$AAl?$AAi?$AAd?$AA?5?$AAa?$AAr?$AAg?$AAu?$AAm?$AAe?$AAn?$AAt?$AA?$CC?$AA?$AA@
CONST	SEGMENT
??_C@_1CG@JNLFBNGN@?$AA?$CC?$AAi?$AAn?$AAv?$AAa?$AAl?$AAi?$AAd?$AA?5?$AAa?$AAr?$AAg?$AAu?$AAm?$AAe?$AAn?$AAt?$AA?$CC?$AA?$AA@ DB '"'
	DB	00H, 'i', 00H, 'n', 00H, 'v', 00H, 'a', 00H, 'l', 00H, 'i', 00H
	DB	'd', 00H, ' ', 00H, 'a', 00H, 'r', 00H, 'g', 00H, 'u', 00H, 'm'
	DB	00H, 'e', 00H, 'n', 00H, 't', 00H, '"', 00H, 00H, 00H ; `string'
CONST	ENDS
;	COMDAT ??_C@_1OI@HHLPKFIO@?$AAs?$AAt?$AAd?$AA?3?$AA?3?$AA_?$AAV?$AAe?$AAc?$AAt?$AAo?$AAr?$AA_?$AAc?$AAo?$AAn?$AAs?$AAt?$AA_?$AAi?$AAt?$AAe?$AAr?$AAa?$AAt?$AAo?$AAr?$AA?$DM?$AAc?$AAl?$AAa?$AAs@
CONST	SEGMENT
??_C@_1OI@HHLPKFIO@?$AAs?$AAt?$AAd?$AA?3?$AA?3?$AA_?$AAV?$AAe?$AAc?$AAt?$AAo?$AAr?$AA_?$AAc?$AAo?$AAn?$AAs?$AAt?$AA_?$AAi?$AAt?$AAe?$AAr?$AAa?$AAt?$AAo?$AAr?$AA?$DM?$AAc?$AAl?$AAa?$AAs@ DB 's'
	DB	00H, 't', 00H, 'd', 00H, ':', 00H, ':', 00H, '_', 00H, 'V', 00H
	DB	'e', 00H, 'c', 00H, 't', 00H, 'o', 00H, 'r', 00H, '_', 00H, 'c'
	DB	00H, 'o', 00H, 'n', 00H, 's', 00H, 't', 00H, '_', 00H, 'i', 00H
	DB	't', 00H, 'e', 00H, 'r', 00H, 'a', 00H, 't', 00H, 'o', 00H, 'r'
	DB	00H, '<', 00H, 'c', 00H, 'l', 00H, 'a', 00H, 's', 00H, 's', 00H
	DB	' ', 00H, 's', 00H, 't', 00H, 'd', 00H, ':', 00H, ':', 00H, '_'
	DB	00H, 'V', 00H, 'e', 00H, 'c', 00H, 't', 00H, 'o', 00H, 'r', 00H
	DB	'_', 00H, 'v', 00H, 'a', 00H, 'l', 00H, '<', 00H, 's', 00H, 't'
	DB	00H, 'r', 00H, 'u', 00H, 'c', 00H, 't', 00H, ' ', 00H, 's', 00H
	DB	't', 00H, 'd', 00H, ':', 00H, ':', 00H, '_', 00H, 'S', 00H, 'i'
	DB	00H, 'm', 00H, 'p', 00H, 'l', 00H, 'e', 00H, '_', 00H, 't', 00H
	DB	'y', 00H, 'p', 00H, 'e', 00H, 's', 00H, '<', 00H, 's', 00H, 't'
	DB	00H, 'r', 00H, 'u', 00H, 'c', 00H, 't', 00H, ' ', 00H, 'D', 00H
	DB	'X', 00H, 'U', 00H, 'T', 00H, 'C', 00H, 'a', 00H, 'c', 00H, 'h'
	DB	00H, 'e', 00H, '_', 00H, 'T', 00H, 'e', 00H, 'x', 00H, 't', 00H
	DB	'u', 00H, 'r', 00H, 'e', 00H, '>', 00H, ' ', 00H, '>', 00H, ' '
	DB	00H, '>', 00H, ':', 00H, ':', 00H, '_', 00H, 'C', 00H, 'o', 00H
	DB	'm', 00H, 'p', 00H, 'a', 00H, 't', 00H, 00H, 00H ; `string'
CONST	ENDS
;	COMDAT ??_C@_1FO@GJIHNDLM@?$AA?$CC?$AAS?$AAt?$AAa?$AAn?$AAd?$AAa?$AAr?$AAd?$AA?5?$AAC?$AA?$CL?$AA?$CL?$AA?5?$AAL?$AAi?$AAb?$AAr?$AAa?$AAr?$AAi?$AAe?$AAs?$AA?5?$AAI?$AAn?$AAv?$AAa?$AAl?$AAi?$AAd?$AA?5@
CONST	SEGMENT
??_C@_1FO@GJIHNDLM@?$AA?$CC?$AAS?$AAt?$AAa?$AAn?$AAd?$AAa?$AAr?$AAd?$AA?5?$AAC?$AA?$CL?$AA?$CL?$AA?5?$AAL?$AAi?$AAb?$AAr?$AAa?$AAr?$AAi?$AAe?$AAs?$AA?5?$AAI?$AAn?$AAv?$AAa?$AAl?$AAi?$AAd?$AA?5@ DB '"'
	DB	00H, 'S', 00H, 't', 00H, 'a', 00H, 'n', 00H, 'd', 00H, 'a', 00H
	DB	'r', 00H, 'd', 00H, ' ', 00H, 'C', 00H, '+', 00H, '+', 00H, ' '
	DB	00H, 'L', 00H, 'i', 00H, 'b', 00H, 'r', 00H, 'a', 00H, 'r', 00H
	DB	'i', 00H, 'e', 00H, 's', 00H, ' ', 00H, 'I', 00H, 'n', 00H, 'v'
	DB	00H, 'a', 00H, 'l', 00H, 'i', 00H, 'd', 00H, ' ', 00H, 'A', 00H
	DB	'r', 00H, 'g', 00H, 'u', 00H, 'm', 00H, 'e', 00H, 'n', 00H, 't'
	DB	00H, '"', 00H, ' ', 00H, '&', 00H, '&', 00H, ' ', 00H, '0', 00H
	DB	00H, 00H					; `string'
CONST	ENDS
;	COMDAT ??_C@_0CI@FNPHFCCM@Standard?5C?$CL?$CL?5Libraries?5Invalid?5A@
CONST	SEGMENT
??_C@_0CI@FNPHFCCM@Standard?5C?$CL?$CL?5Libraries?5Invalid?5A@ DB 'Standa'
	DB	'rd C++ Libraries Invalid Argument', 00H	; `string'
CONST	ENDS
;	COMDAT ??_C@_1DM@HINDPMBP@?$AAv?$AAe?$AAc?$AAt?$AAo?$AAr?$AA?5?$AAi?$AAt?$AAe?$AAr?$AAa?$AAt?$AAo?$AAr?$AAs?$AA?5?$AAi?$AAn?$AAc?$AAo?$AAm?$AAp?$AAa?$AAt?$AAi?$AAb?$AAl?$AAe?$AA?$AA@
CONST	SEGMENT
??_C@_1DM@HINDPMBP@?$AAv?$AAe?$AAc?$AAt?$AAo?$AAr?$AA?5?$AAi?$AAt?$AAe?$AAr?$AAa?$AAt?$AAo?$AAr?$AAs?$AA?5?$AAi?$AAn?$AAc?$AAo?$AAm?$AAp?$AAa?$AAt?$AAi?$AAb?$AAl?$AAe?$AA?$AA@ DB 'v'
	DB	00H, 'e', 00H, 'c', 00H, 't', 00H, 'o', 00H, 'r', 00H, ' ', 00H
	DB	'i', 00H, 't', 00H, 'e', 00H, 'r', 00H, 'a', 00H, 't', 00H, 'o'
	DB	00H, 'r', 00H, 's', 00H, ' ', 00H, 'i', 00H, 'n', 00H, 'c', 00H
	DB	'o', 00H, 'm', 00H, 'p', 00H, 'a', 00H, 't', 00H, 'i', 00H, 'b'
	DB	00H, 'l', 00H, 'e', 00H, 00H, 00H		; `string'
CONST	ENDS
;	COMDAT ??_C@_0BD@OLBABOEK@vector?$DMT?$DO?5too?5long?$AA@
CONST	SEGMENT
??_C@_0BD@OLBABOEK@vector?$DMT?$DO?5too?5long?$AA@ DB 'vector<T> too long'
	DB	00H						; `string'
CONST	ENDS
;	COMDAT ??_C@_1OO@BAHPFGHC@?$AAs?$AAt?$AAd?$AA?3?$AA?3?$AA_?$AAV?$AAe?$AAc?$AAt?$AAo?$AAr?$AA_?$AAc?$AAo?$AAn?$AAs?$AAt?$AA_?$AAi?$AAt?$AAe?$AAr?$AAa?$AAt?$AAo?$AAr?$AA?$DM?$AAc?$AAl?$AAa?$AAs@
CONST	SEGMENT
??_C@_1OO@BAHPFGHC@?$AAs?$AAt?$AAd?$AA?3?$AA?3?$AA_?$AAV?$AAe?$AAc?$AAt?$AAo?$AAr?$AA_?$AAc?$AAo?$AAn?$AAs?$AAt?$AA_?$AAi?$AAt?$AAe?$AAr?$AAa?$AAt?$AAo?$AAr?$AA?$DM?$AAc?$AAl?$AAa?$AAs@ DB 's'
	DB	00H, 't', 00H, 'd', 00H, ':', 00H, ':', 00H, '_', 00H, 'V', 00H
	DB	'e', 00H, 'c', 00H, 't', 00H, 'o', 00H, 'r', 00H, '_', 00H, 'c'
	DB	00H, 'o', 00H, 'n', 00H, 's', 00H, 't', 00H, '_', 00H, 'i', 00H
	DB	't', 00H, 'e', 00H, 'r', 00H, 'a', 00H, 't', 00H, 'o', 00H, 'r'
	DB	00H, '<', 00H, 'c', 00H, 'l', 00H, 'a', 00H, 's', 00H, 's', 00H
	DB	' ', 00H, 's', 00H, 't', 00H, 'd', 00H, ':', 00H, ':', 00H, '_'
	DB	00H, 'V', 00H, 'e', 00H, 'c', 00H, 't', 00H, 'o', 00H, 'r', 00H
	DB	'_', 00H, 'v', 00H, 'a', 00H, 'l', 00H, '<', 00H, 's', 00H, 't'
	DB	00H, 'r', 00H, 'u', 00H, 'c', 00H, 't', 00H, ' ', 00H, 's', 00H
	DB	't', 00H, 'd', 00H, ':', 00H, ':', 00H, '_', 00H, 'S', 00H, 'i'
	DB	00H, 'm', 00H, 'p', 00H, 'l', 00H, 'e', 00H, '_', 00H, 't', 00H
	DB	'y', 00H, 'p', 00H, 'e', 00H, 's', 00H, '<', 00H, 's', 00H, 't'
	DB	00H, 'r', 00H, 'u', 00H, 'c', 00H, 't', 00H, ' ', 00H, 'D', 00H
	DB	'X', 00H, 'U', 00H, 'T', 00H, 'C', 00H, 'a', 00H, 'c', 00H, 'h'
	DB	00H, 'e', 00H, '_', 00H, 'T', 00H, 'e', 00H, 'x', 00H, 't', 00H
	DB	'u', 00H, 'r', 00H, 'e', 00H, '>', 00H, ' ', 00H, '>', 00H, ' '
	DB	00H, '>', 00H, ':', 00H, ':', 00H, 'o', 00H, 'p', 00H, 'e', 00H
	DB	'r', 00H, 'a', 00H, 't', 00H, 'o', 00H, 'r', 00H, ' ', 00H, '*'
	DB	00H, 00H, 00H				; `string'
CONST	ENDS
;	COMDAT ??_C@_1EG@FOHJJHAC@?$AAv?$AAe?$AAc?$AAt?$AAo?$AAr?$AA?5?$AAi?$AAt?$AAe?$AAr?$AAa?$AAt?$AAo?$AAr?$AA?5?$AAn?$AAo?$AAt?$AA?5?$AAd?$AAe?$AAr?$AAe?$AAf?$AAe?$AAr?$AAe?$AAn?$AAc?$AAa?$AAb@
CONST	SEGMENT
??_C@_1EG@FOHJJHAC@?$AAv?$AAe?$AAc?$AAt?$AAo?$AAr?$AA?5?$AAi?$AAt?$AAe?$AAr?$AAa?$AAt?$AAo?$AAr?$AA?5?$AAn?$AAo?$AAt?$AA?5?$AAd?$AAe?$AAr?$AAe?$AAf?$AAe?$AAr?$AAe?$AAn?$AAc?$AAa?$AAb@ DB 'v'
	DB	00H, 'e', 00H, 'c', 00H, 't', 00H, 'o', 00H, 'r', 00H, ' ', 00H
	DB	'i', 00H, 't', 00H, 'e', 00H, 'r', 00H, 'a', 00H, 't', 00H, 'o'
	DB	00H, 'r', 00H, ' ', 00H, 'n', 00H, 'o', 00H, 't', 00H, ' ', 00H
	DB	'd', 00H, 'e', 00H, 'r', 00H, 'e', 00H, 'f', 00H, 'e', 00H, 'r'
	DB	00H, 'e', 00H, 'n', 00H, 'c', 00H, 'a', 00H, 'b', 00H, 'l', 00H
	DB	'e', 00H, 00H, 00H				; `string'
CONST	ENDS
;	COMDAT ??_C@_1PA@CDGOAEFA@?$AAs?$AAt?$AAd?$AA?3?$AA?3?$AA_?$AAV?$AAe?$AAc?$AAt?$AAo?$AAr?$AA_?$AAc?$AAo?$AAn?$AAs?$AAt?$AA_?$AAi?$AAt?$AAe?$AAr?$AAa?$AAt?$AAo?$AAr?$AA?$DM?$AAc?$AAl?$AAa?$AAs@
CONST	SEGMENT
??_C@_1PA@CDGOAEFA@?$AAs?$AAt?$AAd?$AA?3?$AA?3?$AA_?$AAV?$AAe?$AAc?$AAt?$AAo?$AAr?$AA_?$AAc?$AAo?$AAn?$AAs?$AAt?$AA_?$AAi?$AAt?$AAe?$AAr?$AAa?$AAt?$AAo?$AAr?$AA?$DM?$AAc?$AAl?$AAa?$AAs@ DB 's'
	DB	00H, 't', 00H, 'd', 00H, ':', 00H, ':', 00H, '_', 00H, 'V', 00H
	DB	'e', 00H, 'c', 00H, 't', 00H, 'o', 00H, 'r', 00H, '_', 00H, 'c'
	DB	00H, 'o', 00H, 'n', 00H, 's', 00H, 't', 00H, '_', 00H, 'i', 00H
	DB	't', 00H, 'e', 00H, 'r', 00H, 'a', 00H, 't', 00H, 'o', 00H, 'r'
	DB	00H, '<', 00H, 'c', 00H, 'l', 00H, 'a', 00H, 's', 00H, 's', 00H
	DB	' ', 00H, 's', 00H, 't', 00H, 'd', 00H, ':', 00H, ':', 00H, '_'
	DB	00H, 'V', 00H, 'e', 00H, 'c', 00H, 't', 00H, 'o', 00H, 'r', 00H
	DB	'_', 00H, 'v', 00H, 'a', 00H, 'l', 00H, '<', 00H, 's', 00H, 't'
	DB	00H, 'r', 00H, 'u', 00H, 'c', 00H, 't', 00H, ' ', 00H, 's', 00H
	DB	't', 00H, 'd', 00H, ':', 00H, ':', 00H, '_', 00H, 'S', 00H, 'i'
	DB	00H, 'm', 00H, 'p', 00H, 'l', 00H, 'e', 00H, '_', 00H, 't', 00H
	DB	'y', 00H, 'p', 00H, 'e', 00H, 's', 00H, '<', 00H, 's', 00H, 't'
	DB	00H, 'r', 00H, 'u', 00H, 'c', 00H, 't', 00H, ' ', 00H, 'D', 00H
	DB	'X', 00H, 'U', 00H, 'T', 00H, 'C', 00H, 'a', 00H, 'c', 00H, 'h'
	DB	00H, 'e', 00H, '_', 00H, 'T', 00H, 'e', 00H, 'x', 00H, 't', 00H
	DB	'u', 00H, 'r', 00H, 'e', 00H, '>', 00H, ' ', 00H, '>', 00H, ' '
	DB	00H, '>', 00H, ':', 00H, ':', 00H, 'o', 00H, 'p', 00H, 'e', 00H
	DB	'r', 00H, 'a', 00H, 't', 00H, 'o', 00H, 'r', 00H, ' ', 00H, '+'
	DB	00H, '+', 00H, 00H, 00H			; `string'
CONST	ENDS
;	COMDAT ??_C@_1EE@EJDKCLKB@?$AAv?$AAe?$AAc?$AAt?$AAo?$AAr?$AA?5?$AAi?$AAt?$AAe?$AAr?$AAa?$AAt?$AAo?$AAr?$AA?5?$AAn?$AAo?$AAt?$AA?5?$AAi?$AAn?$AAc?$AAr?$AAe?$AAm?$AAe?$AAn?$AAt?$AAa?$AAb?$AAl@
CONST	SEGMENT
??_C@_1EE@EJDKCLKB@?$AAv?$AAe?$AAc?$AAt?$AAo?$AAr?$AA?5?$AAi?$AAt?$AAe?$AAr?$AAa?$AAt?$AAo?$AAr?$AA?5?$AAn?$AAo?$AAt?$AA?5?$AAi?$AAn?$AAc?$AAr?$AAe?$AAm?$AAe?$AAn?$AAt?$AAa?$AAb?$AAl@ DB 'v'
	DB	00H, 'e', 00H, 'c', 00H, 't', 00H, 'o', 00H, 'r', 00H, ' ', 00H
	DB	'i', 00H, 't', 00H, 'e', 00H, 'r', 00H, 'a', 00H, 't', 00H, 'o'
	DB	00H, 'r', 00H, ' ', 00H, 'n', 00H, 'o', 00H, 't', 00H, ' ', 00H
	DB	'i', 00H, 'n', 00H, 'c', 00H, 'r', 00H, 'e', 00H, 'm', 00H, 'e'
	DB	00H, 'n', 00H, 't', 00H, 'a', 00H, 'b', 00H, 'l', 00H, 'e', 00H
	DB	00H, 00H					; `string'
CONST	ENDS
;	COMDAT ??_C@_1BO@MEPPHOO@?$AA?$CC?$AAo?$AAu?$AAt?$AA?5?$AAo?$AAf?$AA?5?$AAr?$AAa?$AAn?$AAg?$AAe?$AA?$CC?$AA?$AA@
CONST	SEGMENT
??_C@_1BO@MEPPHOO@?$AA?$CC?$AAo?$AAu?$AAt?$AA?5?$AAo?$AAf?$AA?5?$AAr?$AAa?$AAn?$AAg?$AAe?$AA?$CC?$AA?$AA@ DB '"'
	DB	00H, 'o', 00H, 'u', 00H, 't', 00H, ' ', 00H, 'o', 00H, 'f', 00H
	DB	' ', 00H, 'r', 00H, 'a', 00H, 'n', 00H, 'g', 00H, 'e', 00H, '"'
	DB	00H, 00H, 00H				; `string'
CONST	ENDS
;	COMDAT ??_C@_1MG@PMHOEKDO@?$AAs?$AAt?$AAd?$AA?3?$AA?3?$AAv?$AAe?$AAc?$AAt?$AAo?$AAr?$AA?$DM?$AAs?$AAt?$AAr?$AAu?$AAc?$AAt?$AA?5?$AAD?$AAX?$AAU?$AAT?$AAC?$AAa?$AAc?$AAh?$AAe?$AA_?$AAT?$AAe?$AAx@
CONST	SEGMENT
??_C@_1MG@PMHOEKDO@?$AAs?$AAt?$AAd?$AA?3?$AA?3?$AAv?$AAe?$AAc?$AAt?$AAo?$AAr?$AA?$DM?$AAs?$AAt?$AAr?$AAu?$AAc?$AAt?$AA?5?$AAD?$AAX?$AAU?$AAT?$AAC?$AAa?$AAc?$AAh?$AAe?$AA_?$AAT?$AAe?$AAx@ DB 's'
	DB	00H, 't', 00H, 'd', 00H, ':', 00H, ':', 00H, 'v', 00H, 'e', 00H
	DB	'c', 00H, 't', 00H, 'o', 00H, 'r', 00H, '<', 00H, 's', 00H, 't'
	DB	00H, 'r', 00H, 'u', 00H, 'c', 00H, 't', 00H, ' ', 00H, 'D', 00H
	DB	'X', 00H, 'U', 00H, 'T', 00H, 'C', 00H, 'a', 00H, 'c', 00H, 'h'
	DB	00H, 'e', 00H, '_', 00H, 'T', 00H, 'e', 00H, 'x', 00H, 't', 00H
	DB	'u', 00H, 'r', 00H, 'e', 00H, ',', 00H, 'c', 00H, 'l', 00H, 'a'
	DB	00H, 's', 00H, 's', 00H, ' ', 00H, 's', 00H, 't', 00H, 'd', 00H
	DB	':', 00H, ':', 00H, 'a', 00H, 'l', 00H, 'l', 00H, 'o', 00H, 'c'
	DB	00H, 'a', 00H, 't', 00H, 'o', 00H, 'r', 00H, '<', 00H, 's', 00H
	DB	't', 00H, 'r', 00H, 'u', 00H, 'c', 00H, 't', 00H, ' ', 00H, 'D'
	DB	00H, 'X', 00H, 'U', 00H, 'T', 00H, 'C', 00H, 'a', 00H, 'c', 00H
	DB	'h', 00H, 'e', 00H, '_', 00H, 'T', 00H, 'e', 00H, 'x', 00H, 't'
	DB	00H, 'u', 00H, 'r', 00H, 'e', 00H, '>', 00H, ' ', 00H, '>', 00H
	DB	':', 00H, ':', 00H, 'o', 00H, 'p', 00H, 'e', 00H, 'r', 00H, 'a'
	DB	00H, 't', 00H, 'o', 00H, 'r', 00H, ' ', 00H, '[', 00H, ']', 00H
	DB	00H, 00H					; `string'
CONST	ENDS
;	COMDAT ??_C@_1FG@IBPIFFN@?$AA?$CC?$AAS?$AAt?$AAa?$AAn?$AAd?$AAa?$AAr?$AAd?$AA?5?$AAC?$AA?$CL?$AA?$CL?$AA?5?$AAL?$AAi?$AAb?$AAr?$AAa?$AAr?$AAi?$AAe?$AAs?$AA?5?$AAO?$AAu?$AAt?$AA?5?$AAo?$AAf?$AA?5?$AAR@
CONST	SEGMENT
??_C@_1FG@IBPIFFN@?$AA?$CC?$AAS?$AAt?$AAa?$AAn?$AAd?$AAa?$AAr?$AAd?$AA?5?$AAC?$AA?$CL?$AA?$CL?$AA?5?$AAL?$AAi?$AAb?$AAr?$AAa?$AAr?$AAi?$AAe?$AAs?$AA?5?$AAO?$AAu?$AAt?$AA?5?$AAo?$AAf?$AA?5?$AAR@ DB '"'
	DB	00H, 'S', 00H, 't', 00H, 'a', 00H, 'n', 00H, 'd', 00H, 'a', 00H
	DB	'r', 00H, 'd', 00H, ' ', 00H, 'C', 00H, '+', 00H, '+', 00H, ' '
	DB	00H, 'L', 00H, 'i', 00H, 'b', 00H, 'r', 00H, 'a', 00H, 'r', 00H
	DB	'i', 00H, 'e', 00H, 's', 00H, ' ', 00H, 'O', 00H, 'u', 00H, 't'
	DB	00H, ' ', 00H, 'o', 00H, 'f', 00H, ' ', 00H, 'R', 00H, 'a', 00H
	DB	'n', 00H, 'g', 00H, 'e', 00H, '"', 00H, ' ', 00H, '&', 00H, '&'
	DB	00H, ' ', 00H, '0', 00H, 00H, 00H		; `string'
CONST	ENDS
;	COMDAT ??_C@_0CE@OFMIGAMM@Standard?5C?$CL?$CL?5Libraries?5Out?5of?5Ra@
CONST	SEGMENT
??_C@_0CE@OFMIGAMM@Standard?5C?$CL?$CL?5Libraries?5Out?5of?5Ra@ DB 'Stand'
	DB	'ard C++ Libraries Out of Range', 00H	; `string'
CONST	ENDS
;	COMDAT ??_C@_1DM@LHGCHCBA@?$AAv?$AAe?$AAc?$AAt?$AAo?$AAr?$AA?5?$AAs?$AAu?$AAb?$AAs?$AAc?$AAr?$AAi?$AAp?$AAt?$AA?5?$AAo?$AAu?$AAt?$AA?5?$AAo?$AAf?$AA?5?$AAr?$AAa?$AAn?$AAg?$AAe?$AA?$AA@
CONST	SEGMENT
??_C@_1DM@LHGCHCBA@?$AAv?$AAe?$AAc?$AAt?$AAo?$AAr?$AA?5?$AAs?$AAu?$AAb?$AAs?$AAc?$AAr?$AAi?$AAp?$AAt?$AA?5?$AAo?$AAu?$AAt?$AA?5?$AAo?$AAf?$AA?5?$AAr?$AAa?$AAn?$AAg?$AAe?$AA?$AA@ DB 'v'
	DB	00H, 'e', 00H, 'c', 00H, 't', 00H, 'o', 00H, 'r', 00H, ' ', 00H
	DB	's', 00H, 'u', 00H, 'b', 00H, 's', 00H, 'c', 00H, 'r', 00H, 'i'
	DB	00H, 'p', 00H, 't', 00H, ' ', 00H, 'o', 00H, 'u', 00H, 't', 00H
	DB	' ', 00H, 'o', 00H, 'f', 00H, ' ', 00H, 'r', 00H, 'a', 00H, 'n'
	DB	00H, 'g', 00H, 'e', 00H, 00H, 00H		; `string'
CONST	ENDS
;	COMDAT ??_C@_1IM@EINEHPHE@?$AAC?$AA?3?$AA?2?$AAP?$AAr?$AAo?$AAg?$AAr?$AAa?$AAm?$AA?5?$AAF?$AAi?$AAl?$AAe?$AAs?$AA?5?$AA?$CI?$AAx?$AA8?$AA6?$AA?$CJ?$AA?2?$AAM?$AAi?$AAc?$AAr?$AAo?$AAs?$AAo?$AAf?$AAt@
CONST	SEGMENT
??_C@_1IM@EINEHPHE@?$AAC?$AA?3?$AA?2?$AAP?$AAr?$AAo?$AAg?$AAr?$AAa?$AAm?$AA?5?$AAF?$AAi?$AAl?$AAe?$AAs?$AA?5?$AA?$CI?$AAx?$AA8?$AA6?$AA?$CJ?$AA?2?$AAM?$AAi?$AAc?$AAr?$AAo?$AAs?$AAo?$AAf?$AAt@ DB 'C'
	DB	00H, ':', 00H, '\', 00H, 'P', 00H, 'r', 00H, 'o', 00H, 'g', 00H
	DB	'r', 00H, 'a', 00H, 'm', 00H, ' ', 00H, 'F', 00H, 'i', 00H, 'l'
	DB	00H, 'e', 00H, 's', 00H, ' ', 00H, '(', 00H, 'x', 00H, '8', 00H
	DB	'6', 00H, ')', 00H, '\', 00H, 'M', 00H, 'i', 00H, 'c', 00H, 'r'
	DB	00H, 'o', 00H, 's', 00H, 'o', 00H, 'f', 00H, 't', 00H, ' ', 00H
	DB	'V', 00H, 'i', 00H, 's', 00H, 'u', 00H, 'a', 00H, 'l', 00H, ' '
	DB	00H, 'S', 00H, 't', 00H, 'u', 00H, 'd', 00H, 'i', 00H, 'o', 00H
	DB	' ', 00H, '1', 00H, '2', 00H, '.', 00H, '0', 00H, '\', 00H, 'V'
	DB	00H, 'C', 00H, '\', 00H, 'i', 00H, 'n', 00H, 'c', 00H, 'l', 00H
	DB	'u', 00H, 'd', 00H, 'e', 00H, '\', 00H, 'v', 00H, 'e', 00H, 'c'
	DB	00H, 't', 00H, 'o', 00H, 'r', 00H, 00H, 00H	; `string'
CONST	ENDS
;	COMDAT ?s_vUpDir@?1??DXUTGetCubeMapViewMatrix@@YG?AUXMMATRIX@DirectX@@K@Z@4QBUXMVECTORF32@3@B
CONST	SEGMENT
?s_vUpDir@?1??DXUTGetCubeMapViewMatrix@@YG?AUXMMATRIX@DirectX@@K@Z@4QBUXMVECTORF32@3@B DD 000000000r ; 0 ; `DXUTGetCubeMapViewMatrix'::`2'::s_vUpDir
	DD	03f800000r			; 1
	DD	000000000r			; 0
	DD	000000000r			; 0
	DD	000000000r			; 0
	DD	03f800000r			; 1
	DD	000000000r			; 0
	DD	000000000r			; 0
	DD	000000000r			; 0
	DD	000000000r			; 0
	DD	0bf800000r			; -1
	DD	000000000r			; 0
	DD	000000000r			; 0
	DD	000000000r			; 0
	DD	03f800000r			; 1
	DD	000000000r			; 0
	DD	000000000r			; 0
	DD	03f800000r			; 1
	DD	000000000r			; 0
	DD	000000000r			; 0
	DD	000000000r			; 0
	DD	03f800000r			; 1
	DD	000000000r			; 0
	DD	000000000r			; 0
CONST	ENDS
;	COMDAT ?s_vLookDir@?1??DXUTGetCubeMapViewMatrix@@YG?AUXMMATRIX@DirectX@@K@Z@4QBUXMVECTORF32@3@B
CONST	SEGMENT
?s_vLookDir@?1??DXUTGetCubeMapViewMatrix@@YG?AUXMMATRIX@DirectX@@K@Z@4QBUXMVECTORF32@3@B DD 03f800000r ; 1 ; `DXUTGetCubeMapViewMatrix'::`2'::s_vLookDir
	DD	000000000r			; 0
	DD	000000000r			; 0
	DD	000000000r			; 0
	DD	0bf800000r			; -1
	DD	000000000r			; 0
	DD	000000000r			; 0
	DD	000000000r			; 0
	DD	000000000r			; 0
	DD	03f800000r			; 1
	DD	000000000r			; 0
	DD	000000000r			; 0
	DD	000000000r			; 0
	DD	0bf800000r			; -1
	DD	000000000r			; 0
	DD	000000000r			; 0
	DD	000000000r			; 0
	DD	000000000r			; 0
	DD	03f800000r			; 1
	DD	000000000r			; 0
	DD	000000000r			; 0
	DD	000000000r			; 0
	DD	0bf800000r			; -1
	DD	000000000r			; 0
CONST	ENDS
;	COMDAT ??_C@_1DC@POOIKBAO@?$AAI?$AAT?$AAE?$AAR?$AAA?$AAT?$AAO?$AAR?$AA?5?$AAL?$AAI?$AAS?$AAT?$AA?5?$AAC?$AAO?$AAR?$AAR?$AAU?$AAP?$AAT?$AAE?$AAD?$AA?$CB?$AA?$AA@
CONST	SEGMENT
??_C@_1DC@POOIKBAO@?$AAI?$AAT?$AAE?$AAR?$AAA?$AAT?$AAO?$AAR?$AA?5?$AAL?$AAI?$AAS?$AAT?$AA?5?$AAC?$AAO?$AAR?$AAR?$AAU?$AAP?$AAT?$AAE?$AAD?$AA?$CB?$AA?$AA@ DB 'I'
	DB	00H, 'T', 00H, 'E', 00H, 'R', 00H, 'A', 00H, 'T', 00H, 'O', 00H
	DB	'R', 00H, ' ', 00H, 'L', 00H, 'I', 00H, 'S', 00H, 'T', 00H, ' '
	DB	00H, 'C', 00H, 'O', 00H, 'R', 00H, 'R', 00H, 'U', 00H, 'P', 00H
	DB	'T', 00H, 'E', 00H, 'D', 00H, '!', 00H, 00H, 00H ; `string'
CONST	ENDS
;	COMDAT ??_C@_1JA@EADLBAJ@?$AAC?$AA?3?$AA?2?$AAP?$AAr?$AAo?$AAg?$AAr?$AAa?$AAm?$AA?5?$AAF?$AAi?$AAl?$AAe?$AAs?$AA?5?$AA?$CI?$AAx?$AA8?$AA6?$AA?$CJ?$AA?2?$AAM?$AAi?$AAc?$AAr?$AAo?$AAs?$AAo?$AAf?$AAt@
CONST	SEGMENT
??_C@_1JA@EADLBAJ@?$AAC?$AA?3?$AA?2?$AAP?$AAr?$AAo?$AAg?$AAr?$AAa?$AAm?$AA?5?$AAF?$AAi?$AAl?$AAe?$AAs?$AA?5?$AA?$CI?$AAx?$AA8?$AA6?$AA?$CJ?$AA?2?$AAM?$AAi?$AAc?$AAr?$AAo?$AAs?$AAo?$AAf?$AAt@ DB 'C'
	DB	00H, ':', 00H, '\', 00H, 'P', 00H, 'r', 00H, 'o', 00H, 'g', 00H
	DB	'r', 00H, 'a', 00H, 'm', 00H, ' ', 00H, 'F', 00H, 'i', 00H, 'l'
	DB	00H, 'e', 00H, 's', 00H, ' ', 00H, '(', 00H, 'x', 00H, '8', 00H
	DB	'6', 00H, ')', 00H, '\', 00H, 'M', 00H, 'i', 00H, 'c', 00H, 'r'
	DB	00H, 'o', 00H, 's', 00H, 'o', 00H, 'f', 00H, 't', 00H, ' ', 00H
	DB	'V', 00H, 'i', 00H, 's', 00H, 'u', 00H, 'a', 00H, 'l', 00H, ' '
	DB	00H, 'S', 00H, 't', 00H, 'u', 00H, 'd', 00H, 'i', 00H, 'o', 00H
	DB	' ', 00H, '1', 00H, '2', 00H, '.', 00H, '0', 00H, '\', 00H, 'V'
	DB	00H, 'C', 00H, '\', 00H, 'i', 00H, 'n', 00H, 'c', 00H, 'l', 00H
	DB	'u', 00H, 'd', 00H, 'e', 00H, '\', 00H, 'x', 00H, 'u', 00H, 't'
	DB	00H, 'i', 00H, 'l', 00H, 'i', 00H, 't', 00H, 'y', 00H, 00H, 00H ; `string'
CONST	ENDS
;	COMDAT ??_C@_1EE@JAOFAOOK@?$AA?$CB?$AAX?$AAM?$AAV?$AAe?$AAc?$AAt?$AAo?$AAr?$AA3?$AAI?$AAs?$AAI?$AAn?$AAf?$AAi?$AAn?$AAi?$AAt?$AAe?$AA?$CI?$AAU?$AAp?$AAD?$AAi?$AAr?$AAe?$AAc?$AAt?$AAi?$AAo?$AAn@
CONST	SEGMENT
??_C@_1EE@JAOFAOOK@?$AA?$CB?$AAX?$AAM?$AAV?$AAe?$AAc?$AAt?$AAo?$AAr?$AA3?$AAI?$AAs?$AAI?$AAn?$AAf?$AAi?$AAn?$AAi?$AAt?$AAe?$AA?$CI?$AAU?$AAp?$AAD?$AAi?$AAr?$AAe?$AAc?$AAt?$AAi?$AAo?$AAn@ DB '!'
	DB	00H, 'X', 00H, 'M', 00H, 'V', 00H, 'e', 00H, 'c', 00H, 't', 00H
	DB	'o', 00H, 'r', 00H, '3', 00H, 'I', 00H, 's', 00H, 'I', 00H, 'n'
	DB	00H, 'f', 00H, 'i', 00H, 'n', 00H, 'i', 00H, 't', 00H, 'e', 00H
	DB	'(', 00H, 'U', 00H, 'p', 00H, 'D', 00H, 'i', 00H, 'r', 00H, 'e'
	DB	00H, 'c', 00H, 't', 00H, 'i', 00H, 'o', 00H, 'n', 00H, ')', 00H
	DB	00H, 00H					; `string'
CONST	ENDS
;	COMDAT ??_C@_1FK@IBPGMKAB@?$AA?$CB?$AAX?$AAM?$AAV?$AAe?$AAc?$AAt?$AAo?$AAr?$AA3?$AAE?$AAq?$AAu?$AAa?$AAl?$AA?$CI?$AAU?$AAp?$AAD?$AAi?$AAr?$AAe?$AAc?$AAt?$AAi?$AAo?$AAn?$AA?0?$AA?5?$AAX?$AAM?$AAV@
CONST	SEGMENT
??_C@_1FK@IBPGMKAB@?$AA?$CB?$AAX?$AAM?$AAV?$AAe?$AAc?$AAt?$AAo?$AAr?$AA3?$AAE?$AAq?$AAu?$AAa?$AAl?$AA?$CI?$AAU?$AAp?$AAD?$AAi?$AAr?$AAe?$AAc?$AAt?$AAi?$AAo?$AAn?$AA?0?$AA?5?$AAX?$AAM?$AAV@ DB '!'
	DB	00H, 'X', 00H, 'M', 00H, 'V', 00H, 'e', 00H, 'c', 00H, 't', 00H
	DB	'o', 00H, 'r', 00H, '3', 00H, 'E', 00H, 'q', 00H, 'u', 00H, 'a'
	DB	00H, 'l', 00H, '(', 00H, 'U', 00H, 'p', 00H, 'D', 00H, 'i', 00H
	DB	'r', 00H, 'e', 00H, 'c', 00H, 't', 00H, 'i', 00H, 'o', 00H, 'n'
	DB	00H, ',', 00H, ' ', 00H, 'X', 00H, 'M', 00H, 'V', 00H, 'e', 00H
	DB	'c', 00H, 't', 00H, 'o', 00H, 'r', 00H, 'Z', 00H, 'e', 00H, 'r'
	DB	00H, 'o', 00H, '(', 00H, ')', 00H, ')', 00H, 00H, 00H ; `string'
CONST	ENDS
;	COMDAT ??_C@_1EG@DOFHPLOD@?$AA?$CB?$AAX?$AAM?$AAV?$AAe?$AAc?$AAt?$AAo?$AAr?$AA3?$AAI?$AAs?$AAI?$AAn?$AAf?$AAi?$AAn?$AAi?$AAt?$AAe?$AA?$CI?$AAE?$AAy?$AAe?$AAD?$AAi?$AAr?$AAe?$AAc?$AAt?$AAi?$AAo@
CONST	SEGMENT
??_C@_1EG@DOFHPLOD@?$AA?$CB?$AAX?$AAM?$AAV?$AAe?$AAc?$AAt?$AAo?$AAr?$AA3?$AAI?$AAs?$AAI?$AAn?$AAf?$AAi?$AAn?$AAi?$AAt?$AAe?$AA?$CI?$AAE?$AAy?$AAe?$AAD?$AAi?$AAr?$AAe?$AAc?$AAt?$AAi?$AAo@ DB '!'
	DB	00H, 'X', 00H, 'M', 00H, 'V', 00H, 'e', 00H, 'c', 00H, 't', 00H
	DB	'o', 00H, 'r', 00H, '3', 00H, 'I', 00H, 's', 00H, 'I', 00H, 'n'
	DB	00H, 'f', 00H, 'i', 00H, 'n', 00H, 'i', 00H, 't', 00H, 'e', 00H
	DB	'(', 00H, 'E', 00H, 'y', 00H, 'e', 00H, 'D', 00H, 'i', 00H, 'r'
	DB	00H, 'e', 00H, 'c', 00H, 't', 00H, 'i', 00H, 'o', 00H, 'n', 00H
	DB	')', 00H, 00H, 00H				; `string'
CONST	ENDS
;	COMDAT ??_C@_1FM@KOIPKFLA@?$AA?$CB?$AAX?$AAM?$AAV?$AAe?$AAc?$AAt?$AAo?$AAr?$AA3?$AAE?$AAq?$AAu?$AAa?$AAl?$AA?$CI?$AAE?$AAy?$AAe?$AAD?$AAi?$AAr?$AAe?$AAc?$AAt?$AAi?$AAo?$AAn?$AA?0?$AA?5?$AAX?$AAM@
CONST	SEGMENT
??_C@_1FM@KOIPKFLA@?$AA?$CB?$AAX?$AAM?$AAV?$AAe?$AAc?$AAt?$AAo?$AAr?$AA3?$AAE?$AAq?$AAu?$AAa?$AAl?$AA?$CI?$AAE?$AAy?$AAe?$AAD?$AAi?$AAr?$AAe?$AAc?$AAt?$AAi?$AAo?$AAn?$AA?0?$AA?5?$AAX?$AAM@ DB '!'
	DB	00H, 'X', 00H, 'M', 00H, 'V', 00H, 'e', 00H, 'c', 00H, 't', 00H
	DB	'o', 00H, 'r', 00H, '3', 00H, 'E', 00H, 'q', 00H, 'u', 00H, 'a'
	DB	00H, 'l', 00H, '(', 00H, 'E', 00H, 'y', 00H, 'e', 00H, 'D', 00H
	DB	'i', 00H, 'r', 00H, 'e', 00H, 'c', 00H, 't', 00H, 'i', 00H, 'o'
	DB	00H, 'n', 00H, ',', 00H, ' ', 00H, 'X', 00H, 'M', 00H, 'V', 00H
	DB	'e', 00H, 'c', 00H, 't', 00H, 'o', 00H, 'r', 00H, 'Z', 00H, 'e'
	DB	00H, 'r', 00H, 'o', 00H, '(', 00H, ')', 00H, ')', 00H, 00H, 00H ; `string'
CONST	ENDS
;	COMDAT ??_C@_1JC@FPIPICAN@?$AAc?$AA?3?$AA?2?$AAp?$AAr?$AAo?$AAg?$AAr?$AAa?$AAm?$AA?5?$AAf?$AAi?$AAl?$AAe?$AAs?$AA?5?$AA?$CI?$AAx?$AA8?$AA6?$AA?$CJ?$AA?2?$AAw?$AAi?$AAn?$AAd?$AAo?$AAw?$AAs?$AA?5?$AAk@
CONST	SEGMENT
??_C@_1JC@FPIPICAN@?$AAc?$AA?3?$AA?2?$AAp?$AAr?$AAo?$AAg?$AAr?$AAa?$AAm?$AA?5?$AAf?$AAi?$AAl?$AAe?$AAs?$AA?5?$AA?$CI?$AAx?$AA8?$AA6?$AA?$CJ?$AA?2?$AAw?$AAi?$AAn?$AAd?$AAo?$AAw?$AAs?$AA?5?$AAk@ DB 'c'
	DB	00H, ':', 00H, '\', 00H, 'p', 00H, 'r', 00H, 'o', 00H, 'g', 00H
	DB	'r', 00H, 'a', 00H, 'm', 00H, ' ', 00H, 'f', 00H, 'i', 00H, 'l'
	DB	00H, 'e', 00H, 's', 00H, ' ', 00H, '(', 00H, 'x', 00H, '8', 00H
	DB	'6', 00H, ')', 00H, '\', 00H, 'w', 00H, 'i', 00H, 'n', 00H, 'd'
	DB	00H, 'o', 00H, 'w', 00H, 's', 00H, ' ', 00H, 'k', 00H, 'i', 00H
	DB	't', 00H, 's', 00H, '\', 00H, '8', 00H, '.', 00H, '1', 00H, '\'
	DB	00H, 'i', 00H, 'n', 00H, 'c', 00H, 'l', 00H, 'u', 00H, 'd', 00H
	DB	'e', 00H, '\', 00H, 'u', 00H, 'm', 00H, '\', 00H, 'D', 00H, 'i'
	DB	00H, 'r', 00H, 'e', 00H, 'c', 00H, 't', 00H, 'X', 00H, 'M', 00H
	DB	'a', 00H, 't', 00H, 'h', 00H, 'M', 00H, 'a', 00H, 't', 00H, 'r'
	DB	00H, 'i', 00H, 'x', 00H, '.', 00H, 'i', 00H, 'n', 00H, 'l', 00H
	DB	00H, 00H					; `string'
CONST	ENDS
;	COMDAT ??_C@_15GANGMFKL@?$AA?$CF?$AAs?$AA?$AA@
CONST	SEGMENT
??_C@_15GANGMFKL@?$AA?$CF?$AAs?$AA?$AA@ DB '%', 00H, 's', 00H, 00H, 00H ; `string'
CONST	ENDS
;	COMDAT xdata$x
xdata$x	SEGMENT
__unwindtable$??$construct@UDXUTCache_Texture@@U1@@?$allocator@UDXUTCache_Texture@@@std@@QAEXPAUDXUTCache_Texture@@$$QAU2@@Z DD 0ffffffffH
	DD	FLAT:__unwindfunclet$??$construct@UDXUTCache_Texture@@U1@@?$allocator@UDXUTCache_Texture@@@std@@QAEXPAUDXUTCache_Texture@@$$QAU2@@Z$0
__ehfuncinfo$??$construct@UDXUTCache_Texture@@U1@@?$allocator@UDXUTCache_Texture@@@std@@QAEXPAUDXUTCache_Texture@@$$QAU2@@Z DD 019930522H
	DD	01H
	DD	FLAT:__unwindtable$??$construct@UDXUTCache_Texture@@U1@@?$allocator@UDXUTCache_Texture@@@std@@QAEXPAUDXUTCache_Texture@@$$QAU2@@Z
	DD	2 DUP(00H)
	DD	2 DUP(00H)
	DD	00H
	DD	01H
xdata$x	ENDS
;	COMDAT xdata$x
xdata$x	SEGMENT
__catchsym$??$_Uninit_move@PAUDXUTCache_Texture@@PAU1@V?$allocator@UDXUTCache_Texture@@@std@@U1@@std@@YAPAUDXUTCache_Texture@@PAU1@00AAU?$_Wrap_alloc@V?$allocator@UDXUTCache_Texture@@@std@@@0@0U_Nonscalar_ptr_iterator_tag@0@@Z$2 DD 040H
	DD	00H
	DD	00H
	DD	FLAT:__catch$??$_Uninit_move@PAUDXUTCache_Texture@@PAU1@V?$allocator@UDXUTCache_Texture@@@std@@U1@@std@@YAPAUDXUTCache_Texture@@PAU1@00AAU?$_Wrap_alloc@V?$allocator@UDXUTCache_Texture@@@std@@@0@0U_Nonscalar_ptr_iterator_tag@0@@Z$0
__unwindtable$??$_Uninit_move@PAUDXUTCache_Texture@@PAU1@V?$allocator@UDXUTCache_Texture@@@std@@U1@@std@@YAPAUDXUTCache_Texture@@PAU1@00AAU?$_Wrap_alloc@V?$allocator@UDXUTCache_Texture@@@std@@@0@0U_Nonscalar_ptr_iterator_tag@0@@Z DD 0ffffffffH
	DD	00H
	DD	0ffffffffH
	DD	00H
__tryblocktable$??$_Uninit_move@PAUDXUTCache_Texture@@PAU1@V?$allocator@UDXUTCache_Texture@@@std@@U1@@std@@YAPAUDXUTCache_Texture@@PAU1@00AAU?$_Wrap_alloc@V?$allocator@UDXUTCache_Texture@@@std@@@0@0U_Nonscalar_ptr_iterator_tag@0@@Z DD 00H
	DD	00H
	DD	01H
	DD	01H
	DD	FLAT:__catchsym$??$_Uninit_move@PAUDXUTCache_Texture@@PAU1@V?$allocator@UDXUTCache_Texture@@@std@@U1@@std@@YAPAUDXUTCache_Texture@@PAU1@00AAU?$_Wrap_alloc@V?$allocator@UDXUTCache_Texture@@@std@@@0@0U_Nonscalar_ptr_iterator_tag@0@@Z$2
__ehfuncinfo$??$_Uninit_move@PAUDXUTCache_Texture@@PAU1@V?$allocator@UDXUTCache_Texture@@@std@@U1@@std@@YAPAUDXUTCache_Texture@@PAU1@00AAU?$_Wrap_alloc@V?$allocator@UDXUTCache_Texture@@@std@@@0@0U_Nonscalar_ptr_iterator_tag@0@@Z DD 019930522H
	DD	02H
	DD	FLAT:__unwindtable$??$_Uninit_move@PAUDXUTCache_Texture@@PAU1@V?$allocator@UDXUTCache_Texture@@@std@@U1@@std@@YAPAUDXUTCache_Texture@@PAU1@00AAU?$_Wrap_alloc@V?$allocator@UDXUTCache_Texture@@@std@@@0@0U_Nonscalar_ptr_iterator_tag@0@@Z
	DD	01H
	DD	FLAT:__tryblocktable$??$_Uninit_move@PAUDXUTCache_Texture@@PAU1@V?$allocator@UDXUTCache_Texture@@@std@@U1@@std@@YAPAUDXUTCache_Texture@@PAU1@00AAU?$_Wrap_alloc@V?$allocator@UDXUTCache_Texture@@@std@@@0@0U_Nonscalar_ptr_iterator_tag@0@@Z
	DD	2 DUP(00H)
	DD	00H
	DD	01H
xdata$x	ENDS
;	COMDAT xdata$x
xdata$x	SEGMENT
__unwindtable$??$construct@UDXUTCache_Texture@@AAU1@@?$allocator@UDXUTCache_Texture@@@std@@QAEXPAUDXUTCache_Texture@@AAU2@@Z DD 0ffffffffH
	DD	FLAT:__unwindfunclet$??$construct@UDXUTCache_Texture@@AAU1@@?$allocator@UDXUTCache_Texture@@@std@@QAEXPAUDXUTCache_Texture@@AAU2@@Z$0
__ehfuncinfo$??$construct@UDXUTCache_Texture@@AAU1@@?$allocator@UDXUTCache_Texture@@@std@@QAEXPAUDXUTCache_Texture@@AAU2@@Z DD 019930522H
	DD	01H
	DD	FLAT:__unwindtable$??$construct@UDXUTCache_Texture@@AAU1@@?$allocator@UDXUTCache_Texture@@@std@@QAEXPAUDXUTCache_Texture@@AAU2@@Z
	DD	2 DUP(00H)
	DD	2 DUP(00H)
	DD	00H
	DD	01H
xdata$x	ENDS
;	COMDAT xdata$x
xdata$x	SEGMENT
__unwindtable$??0?$_Vector_const_iterator@V?$_Vector_val@U?$_Simple_types@UDXUTCache_Texture@@@std@@@std@@@std@@QAE@PAUDXUTCache_Texture@@PBU_Container_base12@1@@Z DD 0ffffffffH
	DD	FLAT:__unwindfunclet$??0?$_Vector_const_iterator@V?$_Vector_val@U?$_Simple_types@UDXUTCache_Texture@@@std@@@std@@@std@@QAE@PAUDXUTCache_Texture@@PBU_Container_base12@1@@Z$0
__ehfuncinfo$??0?$_Vector_const_iterator@V?$_Vector_val@U?$_Simple_types@UDXUTCache_Texture@@@std@@@std@@@std@@QAE@PAUDXUTCache_Texture@@PBU_Container_base12@1@@Z DD 019930522H
	DD	01H
	DD	FLAT:__unwindtable$??0?$_Vector_const_iterator@V?$_Vector_val@U?$_Simple_types@UDXUTCache_Texture@@@std@@@std@@@std@@QAE@PAUDXUTCache_Texture@@PBU_Container_base12@1@@Z
	DD	2 DUP(00H)
	DD	2 DUP(00H)
	DD	00H
	DD	01H
xdata$x	ENDS
;	COMDAT xdata$x
xdata$x	SEGMENT
__unwindtable$?_Orphan_range@?$vector@UDXUTCache_Texture@@V?$allocator@UDXUTCache_Texture@@@std@@@std@@IBEXPAUDXUTCache_Texture@@0@Z DD 0ffffffffH
	DD	FLAT:__unwindfunclet$?_Orphan_range@?$vector@UDXUTCache_Texture@@V?$allocator@UDXUTCache_Texture@@@std@@@std@@IBEXPAUDXUTCache_Texture@@0@Z$0
__ehfuncinfo$?_Orphan_range@?$vector@UDXUTCache_Texture@@V?$allocator@UDXUTCache_Texture@@@std@@@std@@IBEXPAUDXUTCache_Texture@@0@Z DD 019930522H
	DD	01H
	DD	FLAT:__unwindtable$?_Orphan_range@?$vector@UDXUTCache_Texture@@V?$allocator@UDXUTCache_Texture@@@std@@@std@@IBEXPAUDXUTCache_Texture@@0@Z
	DD	2 DUP(00H)
	DD	2 DUP(00H)
	DD	00H
	DD	01H
xdata$x	ENDS
;	COMDAT xdata$x
xdata$x	SEGMENT
__catchsym$?_Reallocate@?$vector@UDXUTCache_Texture@@V?$allocator@UDXUTCache_Texture@@@std@@@std@@IAEXI@Z$2 DD 040H
	DD	00H
	DD	00H
	DD	FLAT:__catch$?_Reallocate@?$vector@UDXUTCache_Texture@@V?$allocator@UDXUTCache_Texture@@@std@@@std@@IAEXI@Z$0
__unwindtable$?_Reallocate@?$vector@UDXUTCache_Texture@@V?$allocator@UDXUTCache_Texture@@@std@@@std@@IAEXI@Z DD 0ffffffffH
	DD	00H
	DD	0ffffffffH
	DD	00H
__tryblocktable$?_Reallocate@?$vector@UDXUTCache_Texture@@V?$allocator@UDXUTCache_Texture@@@std@@@std@@IAEXI@Z DD 00H
	DD	00H
	DD	01H
	DD	01H
	DD	FLAT:__catchsym$?_Reallocate@?$vector@UDXUTCache_Texture@@V?$allocator@UDXUTCache_Texture@@@std@@@std@@IAEXI@Z$2
__ehfuncinfo$?_Reallocate@?$vector@UDXUTCache_Texture@@V?$allocator@UDXUTCache_Texture@@@std@@@std@@IAEXI@Z DD 019930522H
	DD	02H
	DD	FLAT:__unwindtable$?_Reallocate@?$vector@UDXUTCache_Texture@@V?$allocator@UDXUTCache_Texture@@@std@@@std@@IAEXI@Z
	DD	01H
	DD	FLAT:__tryblocktable$?_Reallocate@?$vector@UDXUTCache_Texture@@V?$allocator@UDXUTCache_Texture@@@std@@@std@@IAEXI@Z
	DD	2 DUP(00H)
	DD	00H
	DD	01H
xdata$x	ENDS
;	COMDAT xdata$x
xdata$x	SEGMENT
__unwindtable$??0?$_Vector_alloc@$0A@U?$_Vec_base_types@UDXUTCache_Texture@@V?$allocator@UDXUTCache_Texture@@@std@@@std@@@std@@QAE@ABV?$allocator@UDXUTCache_Texture@@@1@@Z DD 0ffffffffH
	DD	FLAT:__unwindfunclet$??0?$_Vector_alloc@$0A@U?$_Vec_base_types@UDXUTCache_Texture@@V?$allocator@UDXUTCache_Texture@@@std@@@std@@@std@@QAE@ABV?$allocator@UDXUTCache_Texture@@@1@@Z$0
__ehfuncinfo$??0?$_Vector_alloc@$0A@U?$_Vec_base_types@UDXUTCache_Texture@@V?$allocator@UDXUTCache_Texture@@@std@@@std@@@std@@QAE@ABV?$allocator@UDXUTCache_Texture@@@1@@Z DD 019930522H
	DD	01H
	DD	FLAT:__unwindtable$??0?$_Vector_alloc@$0A@U?$_Vec_base_types@UDXUTCache_Texture@@V?$allocator@UDXUTCache_Texture@@@std@@@std@@@std@@QAE@ABV?$allocator@UDXUTCache_Texture@@@1@@Z
	DD	2 DUP(00H)
	DD	2 DUP(00H)
	DD	00H
	DD	01H
xdata$x	ENDS
xdata$x	SEGMENT
__unwindtable$?DXUTGetGlobalResourceCache@@YGAAVCDXUTResourceCache@@XZ DD 0ffffffffH
	DD	FLAT:__unwindfunclet$?DXUTGetGlobalResourceCache@@YGAAVCDXUTResourceCache@@XZ$0
__unwindtable$??1CDXUTResourceCache@@QAE@XZ DD 0ffffffffH
	DD	FLAT:__unwindfunclet$??1CDXUTResourceCache@@QAE@XZ$0
__unwindtable$?CreateTextureFromFile@CDXUTResourceCache@@QAEJPAUID3D11Device@@PAUID3D11DeviceContext@@PB_WPAPAUID3D11ShaderResourceView@@_N@Z DD 0ffffffffH
	DD	FLAT:__unwindfunclet$?CreateTextureFromFile@CDXUTResourceCache@@QAEJPAUID3D11Device@@PAUID3D11DeviceContext@@PB_WPAPAUID3D11ShaderResourceView@@_N@Z$0
	DD	00H
	DD	FLAT:__unwindfunclet$?CreateTextureFromFile@CDXUTResourceCache@@QAEJPAUID3D11Device@@PAUID3D11DeviceContext@@PB_WPAPAUID3D11ShaderResourceView@@_N@Z$1
__ehfuncinfo$?DXUTGetGlobalResourceCache@@YGAAVCDXUTResourceCache@@XZ DD 019930522H
	DD	01H
	DD	FLAT:__unwindtable$?DXUTGetGlobalResourceCache@@YGAAVCDXUTResourceCache@@XZ
	DD	2 DUP(00H)
	DD	2 DUP(00H)
	DD	00H
	DD	01H
__ehfuncinfo$?CreateTextureFromFile@CDXUTResourceCache@@QAEJPAUID3D11Device@@PAUID3D11DeviceContext@@PB_WPAPAUID3D11ShaderResourceView@@_N@Z DD 019930522H
	DD	02H
	DD	FLAT:__unwindtable$?CreateTextureFromFile@CDXUTResourceCache@@QAEJPAUID3D11Device@@PAUID3D11DeviceContext@@PB_WPAPAUID3D11ShaderResourceView@@_N@Z
	DD	2 DUP(00H)
	DD	2 DUP(00H)
	DD	00H
	DD	01H
__ehfuncinfo$??1CDXUTResourceCache@@QAE@XZ DD 019930522H
	DD	01H
	DD	FLAT:__unwindtable$??1CDXUTResourceCache@@QAE@XZ
	DD	2 DUP(00H)
	DD	2 DUP(00H)
	DD	00H
	DD	01H
xdata$x	ENDS
;	COMDAT xdata$x
xdata$x	SEGMENT
__unwindtable$??$construct@U_Container_proxy@std@@U12@@?$allocator@U_Container_proxy@std@@@std@@QAEXPAU_Container_proxy@1@$$QAU21@@Z DD 0ffffffffH
	DD	FLAT:__unwindfunclet$??$construct@U_Container_proxy@std@@U12@@?$allocator@U_Container_proxy@std@@@std@@QAEXPAU_Container_proxy@1@$$QAU21@@Z$0
__ehfuncinfo$??$construct@U_Container_proxy@std@@U12@@?$allocator@U_Container_proxy@std@@@std@@QAEXPAU_Container_proxy@1@$$QAU21@@Z DD 019930522H
	DD	01H
	DD	FLAT:__unwindtable$??$construct@U_Container_proxy@std@@U12@@?$allocator@U_Container_proxy@std@@@std@@QAEXPAU_Container_proxy@1@$$QAU21@@Z
	DD	2 DUP(00H)
	DD	2 DUP(00H)
	DD	00H
	DD	01H
xdata$x	ENDS
;	COMDAT xdata$x
xdata$x	SEGMENT
__unwindtable$?_Adopt@_Iterator_base12@std@@QAEXPBU_Container_base12@2@@Z DD 0ffffffffH
	DD	FLAT:__unwindfunclet$?_Adopt@_Iterator_base12@std@@QAEXPBU_Container_base12@2@@Z$0
	DD	0ffffffffH
	DD	FLAT:__unwindfunclet$?_Adopt@_Iterator_base12@std@@QAEXPBU_Container_base12@2@@Z$1
__ehfuncinfo$?_Adopt@_Iterator_base12@std@@QAEXPBU_Container_base12@2@@Z DD 019930522H
	DD	02H
	DD	FLAT:__unwindtable$?_Adopt@_Iterator_base12@std@@QAEXPBU_Container_base12@2@@Z
	DD	2 DUP(00H)
	DD	2 DUP(00H)
	DD	00H
	DD	01H
xdata$x	ENDS
CRT$XCU	SEGMENT
__Tuple_alloc$initializer$ DD FLAT:??__E_Tuple_alloc@std@@YAXXZ
CRT$XCU	ENDS
; Function compile flags: /Odtp /RTCsu
;	COMDAT ??$construct@UDXUTCache_Texture@@U1@@?$allocator@UDXUTCache_Texture@@@std@@QAEXPAUDXUTCache_Texture@@$$QAU2@@Z
_TEXT	SEGMENT
tv74 = -28						; size = 4
$T2 = -24						; size = 4
$T3 = -20						; size = 4
_this$ = -16						; size = 4
__$EHRec$ = -12						; size = 12
__Ptr$ = 8						; size = 4
_<_Args_0>$ = 12					; size = 4
??$construct@UDXUTCache_Texture@@U1@@?$allocator@UDXUTCache_Texture@@@std@@QAEXPAUDXUTCache_Texture@@$$QAU2@@Z PROC ; std::allocator<DXUTCache_Texture>::construct<DXUTCache_Texture,DXUTCache_Texture>, COMDAT
; _this$ = ecx
; File c:\program files (x86)\microsoft visual studio 12.0\vc\include\xmemory0
; Line 598
  00000	55		 push	 ebp
  00001	8b ec		 mov	 ebp, esp
  00003	6a ff		 push	 -1
  00005	68 00 00 00 00	 push	 __ehhandler$??$construct@UDXUTCache_Texture@@U1@@?$allocator@UDXUTCache_Texture@@@std@@QAEXPAUDXUTCache_Texture@@$$QAU2@@Z
  0000a	64 a1 00 00 00
	00		 mov	 eax, DWORD PTR fs:0
  00010	50		 push	 eax
  00011	83 ec 10	 sub	 esp, 16			; 00000010H
  00014	56		 push	 esi
  00015	57		 push	 edi
  00016	b8 cc cc cc cc	 mov	 eax, -858993460		; ccccccccH
  0001b	89 45 e4	 mov	 DWORD PTR [ebp-28], eax
  0001e	89 45 e8	 mov	 DWORD PTR [ebp-24], eax
  00021	89 45 ec	 mov	 DWORD PTR [ebp-20], eax
  00024	89 45 f0	 mov	 DWORD PTR [ebp-16], eax
  00027	a1 00 00 00 00	 mov	 eax, DWORD PTR ___security_cookie
  0002c	33 c5		 xor	 eax, ebp
  0002e	50		 push	 eax
  0002f	8d 45 f4	 lea	 eax, DWORD PTR __$EHRec$[ebp]
  00032	64 a3 00 00 00
	00		 mov	 DWORD PTR fs:0, eax
  00038	89 4d f0	 mov	 DWORD PTR _this$[ebp], ecx
; Line 600
  0003b	8b 45 08	 mov	 eax, DWORD PTR __Ptr$[ebp]
  0003e	50		 push	 eax
  0003f	68 10 02 00 00	 push	 528			; 00000210H
  00044	e8 00 00 00 00	 call	 ??2@YAPAXIPAX@Z		; operator new
  00049	83 c4 08	 add	 esp, 8
  0004c	89 45 e8	 mov	 DWORD PTR $T2[ebp], eax
  0004f	c7 45 fc 00 00
	00 00		 mov	 DWORD PTR __$EHRec$[ebp+8], 0
  00056	83 7d e8 00	 cmp	 DWORD PTR $T2[ebp], 0
  0005a	74 20		 je	 SHORT $LN3@construct
  0005c	8b 4d 0c	 mov	 ecx, DWORD PTR _<_Args_0>$[ebp]
  0005f	51		 push	 ecx
  00060	e8 00 00 00 00	 call	 ??$forward@UDXUTCache_Texture@@@std@@YA$$QAUDXUTCache_Texture@@AAU1@@Z ; std::forward<DXUTCache_Texture>
  00065	83 c4 04	 add	 esp, 4
  00068	b9 84 00 00 00	 mov	 ecx, 132		; 00000084H
  0006d	8b f0		 mov	 esi, eax
  0006f	8b 7d e8	 mov	 edi, DWORD PTR $T2[ebp]
  00072	f3 a5		 rep movsd
  00074	8b 55 e8	 mov	 edx, DWORD PTR $T2[ebp]
  00077	89 55 e4	 mov	 DWORD PTR tv74[ebp], edx
  0007a	eb 07		 jmp	 SHORT $LN4@construct
$LN3@construct:
  0007c	c7 45 e4 00 00
	00 00		 mov	 DWORD PTR tv74[ebp], 0
$LN4@construct:
  00083	8b 45 e4	 mov	 eax, DWORD PTR tv74[ebp]
  00086	89 45 ec	 mov	 DWORD PTR $T3[ebp], eax
  00089	c7 45 fc ff ff
	ff ff		 mov	 DWORD PTR __$EHRec$[ebp+8], -1
; Line 601
  00090	8b 4d f4	 mov	 ecx, DWORD PTR __$EHRec$[ebp]
  00093	64 89 0d 00 00
	00 00		 mov	 DWORD PTR fs:0, ecx
  0009a	59		 pop	 ecx
  0009b	5f		 pop	 edi
  0009c	5e		 pop	 esi
  0009d	83 c4 1c	 add	 esp, 28			; 0000001cH
  000a0	3b ec		 cmp	 ebp, esp
  000a2	e8 00 00 00 00	 call	 __RTC_CheckEsp
  000a7	8b e5		 mov	 esp, ebp
  000a9	5d		 pop	 ebp
  000aa	c2 08 00	 ret	 8
_TEXT	ENDS
;	COMDAT text$x
text$x	SEGMENT
__unwindfunclet$??$construct@UDXUTCache_Texture@@U1@@?$allocator@UDXUTCache_Texture@@@std@@QAEXPAUDXUTCache_Texture@@$$QAU2@@Z$0:
  00000	8b 45 08	 mov	 eax, DWORD PTR __Ptr$[ebp]
  00003	50		 push	 eax
  00004	8b 45 e8	 mov	 eax, DWORD PTR $T2[ebp]
  00007	50		 push	 eax
  00008	e8 00 00 00 00	 call	 ??3@YAXPAX0@Z		; operator delete
  0000d	83 c4 08	 add	 esp, 8
  00010	c3		 ret	 0
__ehhandler$??$construct@UDXUTCache_Texture@@U1@@?$allocator@UDXUTCache_Texture@@@std@@QAEXPAUDXUTCache_Texture@@$$QAU2@@Z:
  00011	8b 54 24 08	 mov	 edx, DWORD PTR [esp+8]
  00015	8d 42 0c	 lea	 eax, DWORD PTR [edx+12]
  00018	8b 4a e4	 mov	 ecx, DWORD PTR [edx-28]
  0001b	33 c8		 xor	 ecx, eax
  0001d	e8 00 00 00 00	 call	 @__security_check_cookie@4
  00022	b8 00 00 00 00	 mov	 eax, OFFSET __ehfuncinfo$??$construct@UDXUTCache_Texture@@U1@@?$allocator@UDXUTCache_Texture@@@std@@QAEXPAUDXUTCache_Texture@@$$QAU2@@Z
  00027	e9 00 00 00 00	 jmp	 ___CxxFrameHandler3
text$x	ENDS
??$construct@UDXUTCache_Texture@@U1@@?$allocator@UDXUTCache_Texture@@@std@@QAEXPAUDXUTCache_Texture@@$$QAU2@@Z ENDP ; std::allocator<DXUTCache_Texture>::construct<DXUTCache_Texture,DXUTCache_Texture>
; Function compile flags: /Odtp /RTCsu
;	COMDAT ??$construct@UDXUTCache_Texture@@U1@@?$allocator_traits@V?$allocator@UDXUTCache_Texture@@@std@@@std@@SAXAAV?$allocator@UDXUTCache_Texture@@@1@PAUDXUTCache_Texture@@$$QAU3@@Z
_TEXT	SEGMENT
__Al$ = 8						; size = 4
__Ptr$ = 12						; size = 4
_<_Args_0>$ = 16					; size = 4
??$construct@UDXUTCache_Texture@@U1@@?$allocator_traits@V?$allocator@UDXUTCache_Texture@@@std@@@std@@SAXAAV?$allocator@UDXUTCache_Texture@@@1@PAUDXUTCache_Texture@@$$QAU3@@Z PROC ; std::allocator_traits<std::allocator<DXUTCache_Texture> >::construct<DXUTCache_Texture,DXUTCache_Texture>, COMDAT
; File c:\program files (x86)\microsoft visual studio 12.0\vc\include\xmemory0
; Line 720
  00000	55		 push	 ebp
  00001	8b ec		 mov	 ebp, esp
; Line 723
  00003	8b 45 10	 mov	 eax, DWORD PTR _<_Args_0>$[ebp]
  00006	50		 push	 eax
  00007	e8 00 00 00 00	 call	 ??$forward@UDXUTCache_Texture@@@std@@YA$$QAUDXUTCache_Texture@@AAU1@@Z ; std::forward<DXUTCache_Texture>
  0000c	83 c4 04	 add	 esp, 4
  0000f	50		 push	 eax
  00010	8b 4d 0c	 mov	 ecx, DWORD PTR __Ptr$[ebp]
  00013	51		 push	 ecx
  00014	8b 4d 08	 mov	 ecx, DWORD PTR __Al$[ebp]
  00017	e8 00 00 00 00	 call	 ??$construct@UDXUTCache_Texture@@U1@@?$allocator@UDXUTCache_Texture@@@std@@QAEXPAUDXUTCache_Texture@@$$QAU2@@Z ; std::allocator<DXUTCache_Texture>::construct<DXUTCache_Texture,DXUTCache_Texture>
; Line 724
  0001c	3b ec		 cmp	 ebp, esp
  0001e	e8 00 00 00 00	 call	 __RTC_CheckEsp
  00023	5d		 pop	 ebp
  00024	c3		 ret	 0
??$construct@UDXUTCache_Texture@@U1@@?$allocator_traits@V?$allocator@UDXUTCache_Texture@@@std@@@std@@SAXAAV?$allocator@UDXUTCache_Texture@@@1@PAUDXUTCache_Texture@@$$QAU3@@Z ENDP ; std::allocator_traits<std::allocator<DXUTCache_Texture> >::construct<DXUTCache_Texture,DXUTCache_Texture>
_TEXT	ENDS
; Function compile flags: /Odtp /RTCsu
;	COMDAT ??$forward@UDXUTCache_Texture@@@std@@YA$$QAUDXUTCache_Texture@@AAU1@@Z
_TEXT	SEGMENT
__Arg$ = 8						; size = 4
??$forward@UDXUTCache_Texture@@@std@@YA$$QAUDXUTCache_Texture@@AAU1@@Z PROC ; std::forward<DXUTCache_Texture>, COMDAT
; File c:\program files (x86)\microsoft visual studio 12.0\vc\include\type_traits
; Line 1504
  00000	55		 push	 ebp
  00001	8b ec		 mov	 ebp, esp
; Line 1505
  00003	8b 45 08	 mov	 eax, DWORD PTR __Arg$[ebp]
; Line 1506
  00006	5d		 pop	 ebp
  00007	c3		 ret	 0
??$forward@UDXUTCache_Texture@@@std@@YA$$QAUDXUTCache_Texture@@AAU1@@Z ENDP ; std::forward<DXUTCache_Texture>
_TEXT	ENDS
; Function compile flags: /Odtp /RTCsu
;	COMDAT ??$_Debug_range2@PAUDXUTCache_Texture@@@std@@YAXPAUDXUTCache_Texture@@0PB_WIUrandom_access_iterator_tag@0@@Z
_TEXT	SEGMENT
__First$ = 8						; size = 4
__Last$ = 12						; size = 4
__File$ = 16						; size = 4
__Line$ = 20						; size = 4
___formal$ = 24						; size = 1
??$_Debug_range2@PAUDXUTCache_Texture@@@std@@YAXPAUDXUTCache_Texture@@0PB_WIUrandom_access_iterator_tag@0@@Z PROC ; std::_Debug_range2<DXUTCache_Texture *>, COMDAT
; File c:\program files (x86)\microsoft visual studio 12.0\vc\include\xutility
; Line 570
  00000	55		 push	 ebp
  00001	8b ec		 mov	 ebp, esp
  00003	56		 push	 esi
; Line 571
  00004	8b 45 08	 mov	 eax, DWORD PTR __First$[ebp]
  00007	3b 45 0c	 cmp	 eax, DWORD PTR __Last$[ebp]
  0000a	74 4f		 je	 SHORT $LN3@Debug_rang
; Line 573
  0000c	8b 4d 14	 mov	 ecx, DWORD PTR __Line$[ebp]
  0000f	51		 push	 ecx
  00010	8b 55 10	 mov	 edx, DWORD PTR __File$[ebp]
  00013	52		 push	 edx
  00014	8b 45 08	 mov	 eax, DWORD PTR __First$[ebp]
  00017	50		 push	 eax
  00018	e8 00 00 00 00	 call	 ??$_Debug_pointer@UDXUTCache_Texture@@@std@@YAXPAUDXUTCache_Texture@@PB_WI@Z ; std::_Debug_pointer<DXUTCache_Texture>
  0001d	83 c4 0c	 add	 esp, 12			; 0000000cH
; Line 574
  00020	8b 4d 14	 mov	 ecx, DWORD PTR __Line$[ebp]
  00023	51		 push	 ecx
  00024	8b 55 10	 mov	 edx, DWORD PTR __File$[ebp]
  00027	52		 push	 edx
  00028	8b 45 0c	 mov	 eax, DWORD PTR __Last$[ebp]
  0002b	50		 push	 eax
  0002c	e8 00 00 00 00	 call	 ??$_Debug_pointer@UDXUTCache_Texture@@@std@@YAXPAUDXUTCache_Texture@@PB_WI@Z ; std::_Debug_pointer<DXUTCache_Texture>
  00031	83 c4 0c	 add	 esp, 12			; 0000000cH
; Line 575
  00034	8b 4d 0c	 mov	 ecx, DWORD PTR __Last$[ebp]
  00037	3b 4d 08	 cmp	 ecx, DWORD PTR __First$[ebp]
  0003a	73 1f		 jae	 SHORT $LN3@Debug_rang
; Line 576
  0003c	8b f4		 mov	 esi, esp
  0003e	8b 55 14	 mov	 edx, DWORD PTR __Line$[ebp]
  00041	52		 push	 edx
  00042	8b 45 10	 mov	 eax, DWORD PTR __File$[ebp]
  00045	50		 push	 eax
  00046	68 00 00 00 00	 push	 OFFSET ??_C@_1CO@DGLIKNHI@?$AAi?$AAn?$AAv?$AAa?$AAl?$AAi?$AAd?$AA?5?$AAi?$AAt?$AAe?$AAr?$AAa?$AAt?$AAo?$AAr?$AA?5?$AAr?$AAa?$AAn?$AAg?$AAe?$AA?$AA@
  0004b	ff 15 00 00 00
	00		 call	 DWORD PTR __imp_?_Debug_message@std@@YAXPB_W0I@Z
  00051	83 c4 0c	 add	 esp, 12			; 0000000cH
  00054	3b f4		 cmp	 esi, esp
  00056	e8 00 00 00 00	 call	 __RTC_CheckEsp
$LN3@Debug_rang:
; Line 578
  0005b	5e		 pop	 esi
  0005c	3b ec		 cmp	 ebp, esp
  0005e	e8 00 00 00 00	 call	 __RTC_CheckEsp
  00063	5d		 pop	 ebp
  00064	c3		 ret	 0
??$_Debug_range2@PAUDXUTCache_Texture@@@std@@YAXPAUDXUTCache_Texture@@0PB_WIUrandom_access_iterator_tag@0@@Z ENDP ; std::_Debug_range2<DXUTCache_Texture *>
_TEXT	ENDS
; Function compile flags: /Odtp /RTCsu
;	COMDAT ??$_Iter_cat@PAUDXUTCache_Texture@@@std@@YA?AUrandom_access_iterator_tag@0@ABQAUDXUTCache_Texture@@@Z
_TEXT	SEGMENT
__Cat$ = -5						; size = 1
___$ReturnUdt$ = 8					; size = 4
___formal$ = 12						; size = 4
??$_Iter_cat@PAUDXUTCache_Texture@@@std@@YA?AUrandom_access_iterator_tag@0@ABQAUDXUTCache_Texture@@@Z PROC ; std::_Iter_cat<DXUTCache_Texture *>, COMDAT
; File c:\program files (x86)\microsoft visual studio 12.0\vc\include\xutility
; Line 405
  00000	55		 push	 ebp
  00001	8b ec		 mov	 ebp, esp
  00003	83 ec 0c	 sub	 esp, 12			; 0000000cH
  00006	c7 45 f4 cc cc
	cc cc		 mov	 DWORD PTR [ebp-12], -858993460 ; ccccccccH
  0000d	c7 45 f8 cc cc
	cc cc		 mov	 DWORD PTR [ebp-8], -858993460 ; ccccccccH
  00014	c7 45 fc cc cc
	cc cc		 mov	 DWORD PTR [ebp-4], -858993460 ; ccccccccH
; Line 407
  0001b	8b 45 08	 mov	 eax, DWORD PTR ___$ReturnUdt$[ebp]
  0001e	8a 4d fb	 mov	 cl, BYTE PTR __Cat$[ebp]
  00021	88 08		 mov	 BYTE PTR [eax], cl
  00023	8b 45 08	 mov	 eax, DWORD PTR ___$ReturnUdt$[ebp]
; Line 408
  00026	52		 push	 edx
  00027	8b cd		 mov	 ecx, ebp
  00029	50		 push	 eax
  0002a	8d 15 00 00 00
	00		 lea	 edx, DWORD PTR $LN5@Iter_cat
  00030	e8 00 00 00 00	 call	 @_RTC_CheckStackVars@8
  00035	58		 pop	 eax
  00036	5a		 pop	 edx
  00037	8b e5		 mov	 esp, ebp
  00039	5d		 pop	 ebp
  0003a	c3		 ret	 0
  0003b	90		 npad	 1
$LN5@Iter_cat:
  0003c	01 00 00 00	 DD	 1
  00040	00 00 00 00	 DD	 $LN4@Iter_cat
$LN4@Iter_cat:
  00044	fb ff ff ff	 DD	 -5			; fffffffbH
  00048	01 00 00 00	 DD	 1
  0004c	00 00 00 00	 DD	 $LN3@Iter_cat
$LN3@Iter_cat:
  00050	5f		 DB	 95			; 0000005fH
  00051	43		 DB	 67			; 00000043H
  00052	61		 DB	 97			; 00000061H
  00053	74		 DB	 116			; 00000074H
  00054	00		 DB	 0
??$_Iter_cat@PAUDXUTCache_Texture@@@std@@YA?AUrandom_access_iterator_tag@0@ABQAUDXUTCache_Texture@@@Z ENDP ; std::_Iter_cat<DXUTCache_Texture *>
_TEXT	ENDS
; Function compile flags: /Odtp /RTCsu
;	COMDAT ??$construct@UDXUTCache_Texture@@U1@@?$_Wrap_alloc@V?$allocator@UDXUTCache_Texture@@@std@@@std@@QAEXPAUDXUTCache_Texture@@$$QAU2@@Z
_TEXT	SEGMENT
_this$ = -4						; size = 4
__Ptr$ = 8						; size = 4
_<_Args_0>$ = 12					; size = 4
??$construct@UDXUTCache_Texture@@U1@@?$_Wrap_alloc@V?$allocator@UDXUTCache_Texture@@@std@@@std@@QAEXPAUDXUTCache_Texture@@$$QAU2@@Z PROC ; std::_Wrap_alloc<std::allocator<DXUTCache_Texture> >::construct<DXUTCache_Texture,DXUTCache_Texture>, COMDAT
; _this$ = ecx
; File c:\program files (x86)\microsoft visual studio 12.0\vc\include\xmemory0
; Line 868
  00000	55		 push	 ebp
  00001	8b ec		 mov	 ebp, esp
  00003	51		 push	 ecx
  00004	c7 45 fc cc cc
	cc cc		 mov	 DWORD PTR [ebp-4], -858993460 ; ccccccccH
  0000b	89 4d fc	 mov	 DWORD PTR _this$[ebp], ecx
; Line 872
  0000e	8b 45 0c	 mov	 eax, DWORD PTR _<_Args_0>$[ebp]
  00011	50		 push	 eax
  00012	e8 00 00 00 00	 call	 ??$forward@UDXUTCache_Texture@@@std@@YA$$QAUDXUTCache_Texture@@AAU1@@Z ; std::forward<DXUTCache_Texture>
  00017	83 c4 04	 add	 esp, 4
  0001a	50		 push	 eax
  0001b	8b 4d 08	 mov	 ecx, DWORD PTR __Ptr$[ebp]
  0001e	51		 push	 ecx
  0001f	8b 55 fc	 mov	 edx, DWORD PTR _this$[ebp]
  00022	52		 push	 edx
  00023	e8 00 00 00 00	 call	 ??$construct@UDXUTCache_Texture@@U1@@?$allocator_traits@V?$allocator@UDXUTCache_Texture@@@std@@@std@@SAXAAV?$allocator@UDXUTCache_Texture@@@1@PAUDXUTCache_Texture@@$$QAU3@@Z ; std::allocator_traits<std::allocator<DXUTCache_Texture> >::construct<DXUTCache_Texture,DXUTCache_Texture>
  00028	83 c4 0c	 add	 esp, 12			; 0000000cH
; Line 873
  0002b	83 c4 04	 add	 esp, 4
  0002e	3b ec		 cmp	 ebp, esp
  00030	e8 00 00 00 00	 call	 __RTC_CheckEsp
  00035	8b e5		 mov	 esp, ebp
  00037	5d		 pop	 ebp
  00038	c2 08 00	 ret	 8
??$construct@UDXUTCache_Texture@@U1@@?$_Wrap_alloc@V?$allocator@UDXUTCache_Texture@@@std@@@std@@QAEXPAUDXUTCache_Texture@@$$QAU2@@Z ENDP ; std::_Wrap_alloc<std::allocator<DXUTCache_Texture> >::construct<DXUTCache_Texture,DXUTCache_Texture>
_TEXT	ENDS
; Function compile flags: /Odtp /RTCsu
;	COMDAT ??$_Debug_pointer@UDXUTCache_Texture@@@std@@YAXPAUDXUTCache_Texture@@PB_WI@Z
_TEXT	SEGMENT
__First$ = 8						; size = 4
__File$ = 12						; size = 4
__Line$ = 16						; size = 4
??$_Debug_pointer@UDXUTCache_Texture@@@std@@YAXPAUDXUTCache_Texture@@PB_WI@Z PROC ; std::_Debug_pointer<DXUTCache_Texture>, COMDAT
; File c:\program files (x86)\microsoft visual studio 12.0\vc\include\xutility
; Line 552
  00000	55		 push	 ebp
  00001	8b ec		 mov	 ebp, esp
  00003	56		 push	 esi
; Line 553
  00004	83 7d 08 00	 cmp	 DWORD PTR __First$[ebp], 0
  00008	75 1f		 jne	 SHORT $LN2@Debug_poin
; Line 554
  0000a	8b f4		 mov	 esi, esp
  0000c	8b 45 10	 mov	 eax, DWORD PTR __Line$[ebp]
  0000f	50		 push	 eax
  00010	8b 4d 0c	 mov	 ecx, DWORD PTR __File$[ebp]
  00013	51		 push	 ecx
  00014	68 00 00 00 00	 push	 OFFSET ??_C@_1CK@EOPGIILJ@?$AAi?$AAn?$AAv?$AAa?$AAl?$AAi?$AAd?$AA?5?$AAn?$AAu?$AAl?$AAl?$AA?5?$AAp?$AAo?$AAi?$AAn?$AAt?$AAe?$AAr?$AA?$AA@
  00019	ff 15 00 00 00
	00		 call	 DWORD PTR __imp_?_Debug_message@std@@YAXPB_W0I@Z
  0001f	83 c4 0c	 add	 esp, 12			; 0000000cH
  00022	3b f4		 cmp	 esi, esp
  00024	e8 00 00 00 00	 call	 __RTC_CheckEsp
$LN2@Debug_poin:
; Line 555
  00029	5e		 pop	 esi
  0002a	3b ec		 cmp	 ebp, esp
  0002c	e8 00 00 00 00	 call	 __RTC_CheckEsp
  00031	5d		 pop	 ebp
  00032	c3		 ret	 0
??$_Debug_pointer@UDXUTCache_Texture@@@std@@YAXPAUDXUTCache_Texture@@PB_WI@Z ENDP ; std::_Debug_pointer<DXUTCache_Texture>
_TEXT	ENDS
; Function compile flags: /Odtp /RTCsu
;	COMDAT ??$_Debug_range@PAUDXUTCache_Texture@@@std@@YAXPAUDXUTCache_Texture@@0PB_WI@Z
_TEXT	SEGMENT
$T1 = -1						; size = 1
__First$ = 8						; size = 4
__Last$ = 12						; size = 4
__File$ = 16						; size = 4
__Line$ = 20						; size = 4
??$_Debug_range@PAUDXUTCache_Texture@@@std@@YAXPAUDXUTCache_Texture@@0PB_WI@Z PROC ; std::_Debug_range<DXUTCache_Texture *>, COMDAT
; File c:\program files (x86)\microsoft visual studio 12.0\vc\include\xutility
; Line 583
  00000	55		 push	 ebp
  00001	8b ec		 mov	 ebp, esp
  00003	51		 push	 ecx
  00004	c7 45 fc cc cc
	cc cc		 mov	 DWORD PTR [ebp-4], -858993460 ; ccccccccH
; Line 584
  0000b	8d 45 08	 lea	 eax, DWORD PTR __First$[ebp]
  0000e	50		 push	 eax
  0000f	8d 4d ff	 lea	 ecx, DWORD PTR $T1[ebp]
  00012	51		 push	 ecx
  00013	e8 00 00 00 00	 call	 ??$_Iter_cat@PAUDXUTCache_Texture@@@std@@YA?AUrandom_access_iterator_tag@0@ABQAUDXUTCache_Texture@@@Z ; std::_Iter_cat<DXUTCache_Texture *>
  00018	83 c4 08	 add	 esp, 8
  0001b	8a 10		 mov	 dl, BYTE PTR [eax]
  0001d	0f b6 c2	 movzx	 eax, dl
  00020	50		 push	 eax
  00021	8b 4d 14	 mov	 ecx, DWORD PTR __Line$[ebp]
  00024	51		 push	 ecx
  00025	8b 55 10	 mov	 edx, DWORD PTR __File$[ebp]
  00028	52		 push	 edx
  00029	8b 45 0c	 mov	 eax, DWORD PTR __Last$[ebp]
  0002c	50		 push	 eax
  0002d	8b 4d 08	 mov	 ecx, DWORD PTR __First$[ebp]
  00030	51		 push	 ecx
  00031	e8 00 00 00 00	 call	 ??$_Debug_range2@PAUDXUTCache_Texture@@@std@@YAXPAUDXUTCache_Texture@@0PB_WIUrandom_access_iterator_tag@0@@Z ; std::_Debug_range2<DXUTCache_Texture *>
  00036	83 c4 14	 add	 esp, 20			; 00000014H
; Line 585
  00039	83 c4 04	 add	 esp, 4
  0003c	3b ec		 cmp	 ebp, esp
  0003e	e8 00 00 00 00	 call	 __RTC_CheckEsp
  00043	8b e5		 mov	 esp, ebp
  00045	5d		 pop	 ebp
  00046	c3		 ret	 0
??$_Debug_range@PAUDXUTCache_Texture@@@std@@YAXPAUDXUTCache_Texture@@0PB_WI@Z ENDP ; std::_Debug_range<DXUTCache_Texture *>
_TEXT	ENDS
; Function compile flags: /Odtp /RTCsu
;	COMDAT ??$destroy@UDXUTCache_Texture@@@?$allocator@UDXUTCache_Texture@@@std@@QAEXPAUDXUTCache_Texture@@@Z
_TEXT	SEGMENT
_this$ = -4						; size = 4
__Ptr$ = 8						; size = 4
??$destroy@UDXUTCache_Texture@@@?$allocator@UDXUTCache_Texture@@@std@@QAEXPAUDXUTCache_Texture@@@Z PROC ; std::allocator<DXUTCache_Texture>::destroy<DXUTCache_Texture>, COMDAT
; _this$ = ecx
; File c:\program files (x86)\microsoft visual studio 12.0\vc\include\xmemory0
; Line 605
  00000	55		 push	 ebp
  00001	8b ec		 mov	 ebp, esp
  00003	51		 push	 ecx
  00004	c7 45 fc cc cc
	cc cc		 mov	 DWORD PTR [ebp-4], -858993460 ; ccccccccH
  0000b	89 4d fc	 mov	 DWORD PTR _this$[ebp], ecx
; Line 608
  0000e	8b e5		 mov	 esp, ebp
  00010	5d		 pop	 ebp
  00011	c2 04 00	 ret	 4
??$destroy@UDXUTCache_Texture@@@?$allocator@UDXUTCache_Texture@@@std@@QAEXPAUDXUTCache_Texture@@@Z ENDP ; std::allocator<DXUTCache_Texture>::destroy<DXUTCache_Texture>
_TEXT	ENDS
; Function compile flags: /Odtp /RTCsu
;	COMDAT ??$_Uninit_move@PAUDXUTCache_Texture@@PAU1@V?$allocator@UDXUTCache_Texture@@@std@@U1@@std@@YAPAUDXUTCache_Texture@@PAU1@00AAU?$_Wrap_alloc@V?$allocator@UDXUTCache_Texture@@@std@@@0@0U_Nonscalar_ptr_iterator_tag@0@@Z
_TEXT	SEGMENT
__Next$ = -20						; size = 4
__$EHRec$ = -16						; size = 16
__First$ = 8						; size = 4
__Last$ = 12						; size = 4
__Dest$ = 16						; size = 4
__Al$ = 20						; size = 4
___formal$ = 24						; size = 4
___formal$ = 28						; size = 1
??$_Uninit_move@PAUDXUTCache_Texture@@PAU1@V?$allocator@UDXUTCache_Texture@@@std@@U1@@std@@YAPAUDXUTCache_Texture@@PAU1@00AAU?$_Wrap_alloc@V?$allocator@UDXUTCache_Texture@@@std@@@0@0U_Nonscalar_ptr_iterator_tag@0@@Z PROC ; std::_Uninit_move<DXUTCache_Texture *,DXUTCache_Texture *,std::allocator<DXUTCache_Texture>,DXUTCache_Texture>, COMDAT
; File c:\program files (x86)\microsoft visual studio 12.0\vc\include\xmemory
; Line 437
  00000	55		 push	 ebp
  00001	8b ec		 mov	 ebp, esp
  00003	6a ff		 push	 -1
  00005	68 00 00 00 00	 push	 __ehhandler$??$_Uninit_move@PAUDXUTCache_Texture@@PAU1@V?$allocator@UDXUTCache_Texture@@@std@@U1@@std@@YAPAUDXUTCache_Texture@@PAU1@00AAU?$_Wrap_alloc@V?$allocator@UDXUTCache_Texture@@@std@@@0@0U_Nonscalar_ptr_iterator_tag@0@@Z
  0000a	64 a1 00 00 00
	00		 mov	 eax, DWORD PTR fs:0
  00010	50		 push	 eax
  00011	51		 push	 ecx
  00012	51		 push	 ecx
  00013	53		 push	 ebx
  00014	56		 push	 esi
  00015	57		 push	 edi
  00016	c7 45 ec cc cc
	cc cc		 mov	 DWORD PTR [ebp-20], -858993460 ; ccccccccH
  0001d	a1 00 00 00 00	 mov	 eax, DWORD PTR ___security_cookie
  00022	33 c5		 xor	 eax, ebp
  00024	50		 push	 eax
  00025	8d 45 f4	 lea	 eax, DWORD PTR __$EHRec$[ebp+4]
  00028	64 a3 00 00 00
	00		 mov	 DWORD PTR fs:0, eax
  0002e	89 65 f0	 mov	 DWORD PTR __$EHRec$[ebp], esp
; Line 438
  00031	68 b6 01 00 00	 push	 438			; 000001b6H
  00036	68 00 00 00 00	 push	 OFFSET ??_C@_1IO@LKIDJAMC@?$AAC?$AA?3?$AA?2?$AAP?$AAr?$AAo?$AAg?$AAr?$AAa?$AAm?$AA?5?$AAF?$AAi?$AAl?$AAe?$AAs?$AA?5?$AA?$CI?$AAx?$AA8?$AA6?$AA?$CJ?$AA?2?$AAM?$AAi?$AAc?$AAr?$AAo?$AAs?$AAo?$AAf?$AAt@
  0003b	8b 45 0c	 mov	 eax, DWORD PTR __Last$[ebp]
  0003e	50		 push	 eax
  0003f	8b 4d 08	 mov	 ecx, DWORD PTR __First$[ebp]
  00042	51		 push	 ecx
  00043	e8 00 00 00 00	 call	 ??$_Debug_range@PAUDXUTCache_Texture@@@std@@YAXPAUDXUTCache_Texture@@0PB_WI@Z ; std::_Debug_range<DXUTCache_Texture *>
  00048	83 c4 10	 add	 esp, 16			; 00000010H
; Line 439
  0004b	68 b7 01 00 00	 push	 439			; 000001b7H
  00050	68 00 00 00 00	 push	 OFFSET ??_C@_1IO@LKIDJAMC@?$AAC?$AA?3?$AA?2?$AAP?$AAr?$AAo?$AAg?$AAr?$AAa?$AAm?$AA?5?$AAF?$AAi?$AAl?$AAe?$AAs?$AA?5?$AA?$CI?$AAx?$AA8?$AA6?$AA?$CJ?$AA?2?$AAM?$AAi?$AAc?$AAr?$AAo?$AAs?$AAo?$AAf?$AAt@
  00055	8b 55 10	 mov	 edx, DWORD PTR __Dest$[ebp]
  00058	52		 push	 edx
  00059	e8 00 00 00 00	 call	 ??$_Debug_pointer@UDXUTCache_Texture@@@std@@YAXPAUDXUTCache_Texture@@PB_WI@Z ; std::_Debug_pointer<DXUTCache_Texture>
  0005e	83 c4 0c	 add	 esp, 12			; 0000000cH
; Line 440
  00061	8b 45 10	 mov	 eax, DWORD PTR __Dest$[ebp]
  00064	89 45 ec	 mov	 DWORD PTR __Next$[ebp], eax
; Line 442
  00067	c7 45 fc 00 00
	00 00		 mov	 DWORD PTR __$EHRec$[ebp+12], 0
; Line 443
  0006e	eb 18		 jmp	 SHORT $LN6@Uninit_mov
$LN5@Uninit_mov:
  00070	8b 4d 10	 mov	 ecx, DWORD PTR __Dest$[ebp]
  00073	81 c1 10 02 00
	00		 add	 ecx, 528		; 00000210H
  00079	89 4d 10	 mov	 DWORD PTR __Dest$[ebp], ecx
  0007c	8b 55 08	 mov	 edx, DWORD PTR __First$[ebp]
  0007f	81 c2 10 02 00
	00		 add	 edx, 528		; 00000210H
  00085	89 55 08	 mov	 DWORD PTR __First$[ebp], edx
$LN6@Uninit_mov:
  00088	8b 45 08	 mov	 eax, DWORD PTR __First$[ebp]
  0008b	3b 45 0c	 cmp	 eax, DWORD PTR __Last$[ebp]
  0008e	74 12		 je	 SHORT $LN4@Uninit_mov
; Line 444
  00090	8b 4d 08	 mov	 ecx, DWORD PTR __First$[ebp]
  00093	51		 push	 ecx
  00094	8b 55 10	 mov	 edx, DWORD PTR __Dest$[ebp]
  00097	52		 push	 edx
  00098	8b 4d 14	 mov	 ecx, DWORD PTR __Al$[ebp]
  0009b	e8 00 00 00 00	 call	 ??$construct@UDXUTCache_Texture@@U1@@?$_Wrap_alloc@V?$allocator@UDXUTCache_Texture@@@std@@@std@@QAEXPAUDXUTCache_Texture@@$$QAU2@@Z ; std::_Wrap_alloc<std::allocator<DXUTCache_Texture> >::construct<DXUTCache_Texture,DXUTCache_Texture>
  000a0	eb ce		 jmp	 SHORT $LN5@Uninit_mov
$LN4@Uninit_mov:
  000a2	eb 32		 jmp	 SHORT $LN10@Uninit_mov
__catch$??$_Uninit_move@PAUDXUTCache_Texture@@PAU1@V?$allocator@UDXUTCache_Texture@@@std@@U1@@std@@YAPAUDXUTCache_Texture@@PAU1@00AAU?$_Wrap_alloc@V?$allocator@UDXUTCache_Texture@@@std@@@0@0U_Nonscalar_ptr_iterator_tag@0@@Z$0:
; Line 446
  000a4	eb 0b		 jmp	 SHORT $LN3@Uninit_mov
$LN2@Uninit_mov:
  000a6	8b 45 ec	 mov	 eax, DWORD PTR __Next$[ebp]
  000a9	05 10 02 00 00	 add	 eax, 528		; 00000210H
  000ae	89 45 ec	 mov	 DWORD PTR __Next$[ebp], eax
$LN3@Uninit_mov:
  000b1	8b 4d ec	 mov	 ecx, DWORD PTR __Next$[ebp]
  000b4	3b 4d 10	 cmp	 ecx, DWORD PTR __Dest$[ebp]
  000b7	74 0e		 je	 SHORT $LN1@Uninit_mov
; Line 447
  000b9	8b 55 ec	 mov	 edx, DWORD PTR __Next$[ebp]
  000bc	52		 push	 edx
  000bd	8b 4d 14	 mov	 ecx, DWORD PTR __Al$[ebp]
  000c0	e8 00 00 00 00	 call	 ??$destroy@UDXUTCache_Texture@@@?$_Wrap_alloc@V?$allocator@UDXUTCache_Texture@@@std@@@std@@QAEXPAUDXUTCache_Texture@@@Z ; std::_Wrap_alloc<std::allocator<DXUTCache_Texture> >::destroy<DXUTCache_Texture>
  000c5	eb df		 jmp	 SHORT $LN2@Uninit_mov
$LN1@Uninit_mov:
; Line 448
  000c7	6a 00		 push	 0
  000c9	6a 00		 push	 0
  000cb	e8 00 00 00 00	 call	 __CxxThrowException@8
; Line 449
  000d0	b8 00 00 00 00	 mov	 eax, $LN13@Uninit_mov
  000d5	c3		 ret	 0
$LN10@Uninit_mov:
  000d6	c7 45 fc ff ff
	ff ff		 mov	 DWORD PTR __$EHRec$[ebp+12], -1
  000dd	eb 07		 jmp	 SHORT __tryend$??$_Uninit_move@PAUDXUTCache_Texture@@PAU1@V?$allocator@UDXUTCache_Texture@@@std@@U1@@std@@YAPAUDXUTCache_Texture@@PAU1@00AAU?$_Wrap_alloc@V?$allocator@UDXUTCache_Texture@@@std@@@0@0U_Nonscalar_ptr_iterator_tag@0@@Z$1
$LN13@Uninit_mov:
  000df	c7 45 fc ff ff
	ff ff		 mov	 DWORD PTR __$EHRec$[ebp+12], -1
__tryend$??$_Uninit_move@PAUDXUTCache_Texture@@PAU1@V?$allocator@UDXUTCache_Texture@@@std@@U1@@std@@YAPAUDXUTCache_Texture@@PAU1@00AAU?$_Wrap_alloc@V?$allocator@UDXUTCache_Texture@@@std@@@0@0U_Nonscalar_ptr_iterator_tag@0@@Z$1:
; Line 450
  000e6	8b 45 10	 mov	 eax, DWORD PTR __Dest$[ebp]
$LN9@Uninit_mov:
; Line 451
  000e9	8b 4d f4	 mov	 ecx, DWORD PTR __$EHRec$[ebp+4]
  000ec	64 89 0d 00 00
	00 00		 mov	 DWORD PTR fs:0, ecx
  000f3	59		 pop	 ecx
  000f4	5f		 pop	 edi
  000f5	5e		 pop	 esi
  000f6	5b		 pop	 ebx
  000f7	83 c4 14	 add	 esp, 20			; 00000014H
  000fa	3b ec		 cmp	 ebp, esp
  000fc	e8 00 00 00 00	 call	 __RTC_CheckEsp
  00101	8b e5		 mov	 esp, ebp
  00103	5d		 pop	 ebp
  00104	c3		 ret	 0
_TEXT	ENDS
;	COMDAT text$x
text$x	SEGMENT
__ehhandler$??$_Uninit_move@PAUDXUTCache_Texture@@PAU1@V?$allocator@UDXUTCache_Texture@@@std@@U1@@std@@YAPAUDXUTCache_Texture@@PAU1@00AAU?$_Wrap_alloc@V?$allocator@UDXUTCache_Texture@@@std@@@0@0U_Nonscalar_ptr_iterator_tag@0@@Z:
  00000	8b 54 24 08	 mov	 edx, DWORD PTR [esp+8]
  00004	8d 42 0c	 lea	 eax, DWORD PTR [edx+12]
  00007	8b 4a e8	 mov	 ecx, DWORD PTR [edx-24]
  0000a	33 c8		 xor	 ecx, eax
  0000c	e8 00 00 00 00	 call	 @__security_check_cookie@4
  00011	b8 00 00 00 00	 mov	 eax, OFFSET __ehfuncinfo$??$_Uninit_move@PAUDXUTCache_Texture@@PAU1@V?$allocator@UDXUTCache_Texture@@@std@@U1@@std@@YAPAUDXUTCache_Texture@@PAU1@00AAU?$_Wrap_alloc@V?$allocator@UDXUTCache_Texture@@@std@@@0@0U_Nonscalar_ptr_iterator_tag@0@@Z
  00016	e9 00 00 00 00	 jmp	 ___CxxFrameHandler3
text$x	ENDS
??$_Uninit_move@PAUDXUTCache_Texture@@PAU1@V?$allocator@UDXUTCache_Texture@@@std@@U1@@std@@YAPAUDXUTCache_Texture@@PAU1@00AAU?$_Wrap_alloc@V?$allocator@UDXUTCache_Texture@@@std@@@0@0U_Nonscalar_ptr_iterator_tag@0@@Z ENDP ; std::_Uninit_move<DXUTCache_Texture *,DXUTCache_Texture *,std::allocator<DXUTCache_Texture>,DXUTCache_Texture>
; Function compile flags: /Odtp /RTCsu
;	COMDAT ??$_Val_type@PAUDXUTCache_Texture@@@std@@YAPAUDXUTCache_Texture@@PAU1@@Z
_TEXT	SEGMENT
___formal$ = 8						; size = 4
??$_Val_type@PAUDXUTCache_Texture@@@std@@YAPAUDXUTCache_Texture@@PAU1@@Z PROC ; std::_Val_type<DXUTCache_Texture *>, COMDAT
; File c:\program files (x86)\microsoft visual studio 12.0\vc\include\xutility
; Line 645
  00000	55		 push	 ebp
  00001	8b ec		 mov	 ebp, esp
; Line 646
  00003	33 c0		 xor	 eax, eax
; Line 647
  00005	5d		 pop	 ebp
  00006	c3		 ret	 0
??$_Val_type@PAUDXUTCache_Texture@@@std@@YAPAUDXUTCache_Texture@@PAU1@@Z ENDP ; std::_Val_type<DXUTCache_Texture *>
_TEXT	ENDS
; Function compile flags: /Odtp /RTCsu
;	COMDAT ??$destroy@UDXUTCache_Texture@@@?$allocator_traits@V?$allocator@UDXUTCache_Texture@@@std@@@std@@SAXAAV?$allocator@UDXUTCache_Texture@@@1@PAUDXUTCache_Texture@@@Z
_TEXT	SEGMENT
__Al$ = 8						; size = 4
__Ptr$ = 12						; size = 4
??$destroy@UDXUTCache_Texture@@@?$allocator_traits@V?$allocator@UDXUTCache_Texture@@@std@@@std@@SAXAAV?$allocator@UDXUTCache_Texture@@@1@PAUDXUTCache_Texture@@@Z PROC ; std::allocator_traits<std::allocator<DXUTCache_Texture> >::destroy<DXUTCache_Texture>, COMDAT
; File c:\program files (x86)\microsoft visual studio 12.0\vc\include\xmemory0
; Line 728
  00000	55		 push	 ebp
  00001	8b ec		 mov	 ebp, esp
; Line 730
  00003	8b 45 0c	 mov	 eax, DWORD PTR __Ptr$[ebp]
  00006	50		 push	 eax
  00007	8b 4d 08	 mov	 ecx, DWORD PTR __Al$[ebp]
  0000a	e8 00 00 00 00	 call	 ??$destroy@UDXUTCache_Texture@@@?$allocator@UDXUTCache_Texture@@@std@@QAEXPAUDXUTCache_Texture@@@Z ; std::allocator<DXUTCache_Texture>::destroy<DXUTCache_Texture>
; Line 731
  0000f	3b ec		 cmp	 ebp, esp
  00011	e8 00 00 00 00	 call	 __RTC_CheckEsp
  00016	5d		 pop	 ebp
  00017	c3		 ret	 0
??$destroy@UDXUTCache_Texture@@@?$allocator_traits@V?$allocator@UDXUTCache_Texture@@@std@@@std@@SAXAAV?$allocator@UDXUTCache_Texture@@@1@PAUDXUTCache_Texture@@@Z ENDP ; std::allocator_traits<std::allocator<DXUTCache_Texture> >::destroy<DXUTCache_Texture>
_TEXT	ENDS
; Function compile flags: /Odtp /RTCsu
;	COMDAT ??$_Rechecked@PAUDXUTCache_Texture@@PAU1@@std@@YAAAPAUDXUTCache_Texture@@AAPAU1@PAU1@@Z
_TEXT	SEGMENT
__Dest$ = 8						; size = 4
__Src$ = 12						; size = 4
??$_Rechecked@PAUDXUTCache_Texture@@PAU1@@std@@YAAAPAUDXUTCache_Texture@@AAPAU1@PAU1@@Z PROC ; std::_Rechecked<DXUTCache_Texture *,DXUTCache_Texture *>, COMDAT
; File c:\program files (x86)\microsoft visual studio 12.0\vc\include\xutility
; Line 288
  00000	55		 push	 ebp
  00001	8b ec		 mov	 ebp, esp
; Line 289
  00003	8b 45 08	 mov	 eax, DWORD PTR __Dest$[ebp]
  00006	8b 4d 0c	 mov	 ecx, DWORD PTR __Src$[ebp]
  00009	89 08		 mov	 DWORD PTR [eax], ecx
; Line 290
  0000b	8b 45 08	 mov	 eax, DWORD PTR __Dest$[ebp]
; Line 291
  0000e	5d		 pop	 ebp
  0000f	c3		 ret	 0
??$_Rechecked@PAUDXUTCache_Texture@@PAU1@@std@@YAAAPAUDXUTCache_Texture@@AAPAU1@PAU1@@Z ENDP ; std::_Rechecked<DXUTCache_Texture *,DXUTCache_Texture *>
_TEXT	ENDS
; Function compile flags: /Odtp /RTCsu
;	COMDAT ??$_Uninit_move@PAUDXUTCache_Texture@@PAU1@U?$_Wrap_alloc@V?$allocator@UDXUTCache_Texture@@@std@@@std@@@std@@YAPAUDXUTCache_Texture@@PAU1@00AAU?$_Wrap_alloc@V?$allocator@UDXUTCache_Texture@@@std@@@0@@Z
_TEXT	SEGMENT
$T1 = -1						; size = 1
__First$ = 8						; size = 4
__Last$ = 12						; size = 4
__Dest$ = 16						; size = 4
__Al$ = 20						; size = 4
??$_Uninit_move@PAUDXUTCache_Texture@@PAU1@U?$_Wrap_alloc@V?$allocator@UDXUTCache_Texture@@@std@@@std@@@std@@YAPAUDXUTCache_Texture@@PAU1@00AAU?$_Wrap_alloc@V?$allocator@UDXUTCache_Texture@@@std@@@0@@Z PROC ; std::_Uninit_move<DXUTCache_Texture *,DXUTCache_Texture *,std::_Wrap_alloc<std::allocator<DXUTCache_Texture> > >, COMDAT
; File c:\program files (x86)\microsoft visual studio 12.0\vc\include\xmemory
; Line 482
  00000	55		 push	 ebp
  00001	8b ec		 mov	 ebp, esp
  00003	51		 push	 ecx
  00004	c7 45 fc cc cc
	cc cc		 mov	 DWORD PTR [ebp-4], -858993460 ; ccccccccH
; Line 484
  0000b	8b 45 10	 mov	 eax, DWORD PTR __Dest$[ebp]
  0000e	50		 push	 eax
  0000f	8b 4d 08	 mov	 ecx, DWORD PTR __First$[ebp]
  00012	51		 push	 ecx
  00013	e8 00 00 00 00	 call	 ??$_Ptr_cat@UDXUTCache_Texture@@U1@@std@@YA?AU_Nonscalar_ptr_iterator_tag@0@PAUDXUTCache_Texture@@0@Z ; std::_Ptr_cat<DXUTCache_Texture,DXUTCache_Texture>
  00018	83 c4 08	 add	 esp, 8
  0001b	88 45 ff	 mov	 BYTE PTR $T1[ebp], al
  0001e	0f b6 55 ff	 movzx	 edx, BYTE PTR $T1[ebp]
  00022	52		 push	 edx
  00023	8b 45 08	 mov	 eax, DWORD PTR __First$[ebp]
  00026	50		 push	 eax
  00027	e8 00 00 00 00	 call	 ??$_Val_type@PAUDXUTCache_Texture@@@std@@YAPAUDXUTCache_Texture@@PAU1@@Z ; std::_Val_type<DXUTCache_Texture *>
  0002c	83 c4 04	 add	 esp, 4
  0002f	50		 push	 eax
  00030	8b 4d 14	 mov	 ecx, DWORD PTR __Al$[ebp]
  00033	51		 push	 ecx
  00034	8b 55 10	 mov	 edx, DWORD PTR __Dest$[ebp]
  00037	52		 push	 edx
  00038	8b 45 0c	 mov	 eax, DWORD PTR __Last$[ebp]
  0003b	50		 push	 eax
  0003c	8b 4d 08	 mov	 ecx, DWORD PTR __First$[ebp]
  0003f	51		 push	 ecx
  00040	e8 00 00 00 00	 call	 ??$_Uninit_move@PAUDXUTCache_Texture@@PAU1@V?$allocator@UDXUTCache_Texture@@@std@@U1@@std@@YAPAUDXUTCache_Texture@@PAU1@00AAU?$_Wrap_alloc@V?$allocator@UDXUTCache_Texture@@@std@@@0@0U_Nonscalar_ptr_iterator_tag@0@@Z ; std::_Uninit_move<DXUTCache_Texture *,DXUTCache_Texture *,std::allocator<DXUTCache_Texture>,DXUTCache_Texture>
  00045	83 c4 18	 add	 esp, 24			; 00000018H
; Line 485
  00048	83 c4 04	 add	 esp, 4
  0004b	3b ec		 cmp	 ebp, esp
  0004d	e8 00 00 00 00	 call	 __RTC_CheckEsp
  00052	8b e5		 mov	 esp, ebp
  00054	5d		 pop	 ebp
  00055	c3		 ret	 0
??$_Uninit_move@PAUDXUTCache_Texture@@PAU1@U?$_Wrap_alloc@V?$allocator@UDXUTCache_Texture@@@std@@@std@@@std@@YAPAUDXUTCache_Texture@@PAU1@00AAU?$_Wrap_alloc@V?$allocator@UDXUTCache_Texture@@@std@@@0@@Z ENDP ; std::_Uninit_move<DXUTCache_Texture *,DXUTCache_Texture *,std::_Wrap_alloc<std::allocator<DXUTCache_Texture> > >
_TEXT	ENDS
; Function compile flags: /Odtp /RTCsu
;	COMDAT ??$_Unchecked@PAUDXUTCache_Texture@@@std@@YAPAUDXUTCache_Texture@@PAU1@@Z
_TEXT	SEGMENT
__Src$ = 8						; size = 4
??$_Unchecked@PAUDXUTCache_Texture@@@std@@YAPAUDXUTCache_Texture@@PAU1@@Z PROC ; std::_Unchecked<DXUTCache_Texture *>, COMDAT
; File c:\program files (x86)\microsoft visual studio 12.0\vc\include\xutility
; Line 280
  00000	55		 push	 ebp
  00001	8b ec		 mov	 ebp, esp
; Line 281
  00003	8b 45 08	 mov	 eax, DWORD PTR __Src$[ebp]
; Line 282
  00006	5d		 pop	 ebp
  00007	c3		 ret	 0
??$_Unchecked@PAUDXUTCache_Texture@@@std@@YAPAUDXUTCache_Texture@@PAU1@@Z ENDP ; std::_Unchecked<DXUTCache_Texture *>
_TEXT	ENDS
; Function compile flags: /Odtp /RTCsu
;	COMDAT ??$destroy@UDXUTCache_Texture@@@?$_Wrap_alloc@V?$allocator@UDXUTCache_Texture@@@std@@@std@@QAEXPAUDXUTCache_Texture@@@Z
_TEXT	SEGMENT
_this$ = -4						; size = 4
__Ptr$ = 8						; size = 4
??$destroy@UDXUTCache_Texture@@@?$_Wrap_alloc@V?$allocator@UDXUTCache_Texture@@@std@@@std@@QAEXPAUDXUTCache_Texture@@@Z PROC ; std::_Wrap_alloc<std::allocator<DXUTCache_Texture> >::destroy<DXUTCache_Texture>, COMDAT
; _this$ = ecx
; File c:\program files (x86)\microsoft visual studio 12.0\vc\include\xmemory0
; Line 877
  00000	55		 push	 ebp
  00001	8b ec		 mov	 ebp, esp
  00003	51		 push	 ecx
  00004	c7 45 fc cc cc
	cc cc		 mov	 DWORD PTR [ebp-4], -858993460 ; ccccccccH
  0000b	89 4d fc	 mov	 DWORD PTR _this$[ebp], ecx
; Line 879
  0000e	8b 45 08	 mov	 eax, DWORD PTR __Ptr$[ebp]
  00011	50		 push	 eax
  00012	8b 4d fc	 mov	 ecx, DWORD PTR _this$[ebp]
  00015	51		 push	 ecx
  00016	e8 00 00 00 00	 call	 ??$destroy@UDXUTCache_Texture@@@?$allocator_traits@V?$allocator@UDXUTCache_Texture@@@std@@@std@@SAXAAV?$allocator@UDXUTCache_Texture@@@1@PAUDXUTCache_Texture@@@Z ; std::allocator_traits<std::allocator<DXUTCache_Texture> >::destroy<DXUTCache_Texture>
  0001b	83 c4 08	 add	 esp, 8
; Line 880
  0001e	83 c4 04	 add	 esp, 4
  00021	3b ec		 cmp	 ebp, esp
  00023	e8 00 00 00 00	 call	 __RTC_CheckEsp
  00028	8b e5		 mov	 esp, ebp
  0002a	5d		 pop	 ebp
  0002b	c2 04 00	 ret	 4
??$destroy@UDXUTCache_Texture@@@?$_Wrap_alloc@V?$allocator@UDXUTCache_Texture@@@std@@@std@@QAEXPAUDXUTCache_Texture@@@Z ENDP ; std::_Wrap_alloc<std::allocator<DXUTCache_Texture> >::destroy<DXUTCache_Texture>
_TEXT	ENDS
; Function compile flags: /Odtp /RTCsu
;	COMDAT ??$construct@UDXUTCache_Texture@@AAU1@@?$allocator@UDXUTCache_Texture@@@std@@QAEXPAUDXUTCache_Texture@@AAU2@@Z
_TEXT	SEGMENT
tv74 = -28						; size = 4
$T2 = -24						; size = 4
$T3 = -20						; size = 4
_this$ = -16						; size = 4
__$EHRec$ = -12						; size = 12
__Ptr$ = 8						; size = 4
_<_Args_0>$ = 12					; size = 4
??$construct@UDXUTCache_Texture@@AAU1@@?$allocator@UDXUTCache_Texture@@@std@@QAEXPAUDXUTCache_Texture@@AAU2@@Z PROC ; std::allocator<DXUTCache_Texture>::construct<DXUTCache_Texture,DXUTCache_Texture &>, COMDAT
; _this$ = ecx
; File c:\program files (x86)\microsoft visual studio 12.0\vc\include\xmemory0
; Line 598
  00000	55		 push	 ebp
  00001	8b ec		 mov	 ebp, esp
  00003	6a ff		 push	 -1
  00005	68 00 00 00 00	 push	 __ehhandler$??$construct@UDXUTCache_Texture@@AAU1@@?$allocator@UDXUTCache_Texture@@@std@@QAEXPAUDXUTCache_Texture@@AAU2@@Z
  0000a	64 a1 00 00 00
	00		 mov	 eax, DWORD PTR fs:0
  00010	50		 push	 eax
  00011	83 ec 10	 sub	 esp, 16			; 00000010H
  00014	56		 push	 esi
  00015	57		 push	 edi
  00016	b8 cc cc cc cc	 mov	 eax, -858993460		; ccccccccH
  0001b	89 45 e4	 mov	 DWORD PTR [ebp-28], eax
  0001e	89 45 e8	 mov	 DWORD PTR [ebp-24], eax
  00021	89 45 ec	 mov	 DWORD PTR [ebp-20], eax
  00024	89 45 f0	 mov	 DWORD PTR [ebp-16], eax
  00027	a1 00 00 00 00	 mov	 eax, DWORD PTR ___security_cookie
  0002c	33 c5		 xor	 eax, ebp
  0002e	50		 push	 eax
  0002f	8d 45 f4	 lea	 eax, DWORD PTR __$EHRec$[ebp]
  00032	64 a3 00 00 00
	00		 mov	 DWORD PTR fs:0, eax
  00038	89 4d f0	 mov	 DWORD PTR _this$[ebp], ecx
; Line 600
  0003b	8b 45 08	 mov	 eax, DWORD PTR __Ptr$[ebp]
  0003e	50		 push	 eax
  0003f	68 10 02 00 00	 push	 528			; 00000210H
  00044	e8 00 00 00 00	 call	 ??2@YAPAXIPAX@Z		; operator new
  00049	83 c4 08	 add	 esp, 8
  0004c	89 45 e8	 mov	 DWORD PTR $T2[ebp], eax
  0004f	c7 45 fc 00 00
	00 00		 mov	 DWORD PTR __$EHRec$[ebp+8], 0
  00056	83 7d e8 00	 cmp	 DWORD PTR $T2[ebp], 0
  0005a	74 20		 je	 SHORT $LN3@construct
  0005c	8b 4d 0c	 mov	 ecx, DWORD PTR _<_Args_0>$[ebp]
  0005f	51		 push	 ecx
  00060	e8 00 00 00 00	 call	 ??$forward@AAUDXUTCache_Texture@@@std@@YAAAUDXUTCache_Texture@@AAU1@@Z ; std::forward<DXUTCache_Texture &>
  00065	83 c4 04	 add	 esp, 4
  00068	b9 84 00 00 00	 mov	 ecx, 132		; 00000084H
  0006d	8b f0		 mov	 esi, eax
  0006f	8b 7d e8	 mov	 edi, DWORD PTR $T2[ebp]
  00072	f3 a5		 rep movsd
  00074	8b 55 e8	 mov	 edx, DWORD PTR $T2[ebp]
  00077	89 55 e4	 mov	 DWORD PTR tv74[ebp], edx
  0007a	eb 07		 jmp	 SHORT $LN4@construct
$LN3@construct:
  0007c	c7 45 e4 00 00
	00 00		 mov	 DWORD PTR tv74[ebp], 0
$LN4@construct:
  00083	8b 45 e4	 mov	 eax, DWORD PTR tv74[ebp]
  00086	89 45 ec	 mov	 DWORD PTR $T3[ebp], eax
  00089	c7 45 fc ff ff
	ff ff		 mov	 DWORD PTR __$EHRec$[ebp+8], -1
; Line 601
  00090	8b 4d f4	 mov	 ecx, DWORD PTR __$EHRec$[ebp]
  00093	64 89 0d 00 00
	00 00		 mov	 DWORD PTR fs:0, ecx
  0009a	59		 pop	 ecx
  0009b	5f		 pop	 edi
  0009c	5e		 pop	 esi
  0009d	83 c4 1c	 add	 esp, 28			; 0000001cH
  000a0	3b ec		 cmp	 ebp, esp
  000a2	e8 00 00 00 00	 call	 __RTC_CheckEsp
  000a7	8b e5		 mov	 esp, ebp
  000a9	5d		 pop	 ebp
  000aa	c2 08 00	 ret	 8
_TEXT	ENDS
;	COMDAT text$x
text$x	SEGMENT
__unwindfunclet$??$construct@UDXUTCache_Texture@@AAU1@@?$allocator@UDXUTCache_Texture@@@std@@QAEXPAUDXUTCache_Texture@@AAU2@@Z$0:
  00000	8b 45 08	 mov	 eax, DWORD PTR __Ptr$[ebp]
  00003	50		 push	 eax
  00004	8b 45 e8	 mov	 eax, DWORD PTR $T2[ebp]
  00007	50		 push	 eax
  00008	e8 00 00 00 00	 call	 ??3@YAXPAX0@Z		; operator delete
  0000d	83 c4 08	 add	 esp, 8
  00010	c3		 ret	 0
__ehhandler$??$construct@UDXUTCache_Texture@@AAU1@@?$allocator@UDXUTCache_Texture@@@std@@QAEXPAUDXUTCache_Texture@@AAU2@@Z:
  00011	8b 54 24 08	 mov	 edx, DWORD PTR [esp+8]
  00015	8d 42 0c	 lea	 eax, DWORD PTR [edx+12]
  00018	8b 4a e4	 mov	 ecx, DWORD PTR [edx-28]
  0001b	33 c8		 xor	 ecx, eax
  0001d	e8 00 00 00 00	 call	 @__security_check_cookie@4
  00022	b8 00 00 00 00	 mov	 eax, OFFSET __ehfuncinfo$??$construct@UDXUTCache_Texture@@AAU1@@?$allocator@UDXUTCache_Texture@@@std@@QAEXPAUDXUTCache_Texture@@AAU2@@Z
  00027	e9 00 00 00 00	 jmp	 ___CxxFrameHandler3
text$x	ENDS
??$construct@UDXUTCache_Texture@@AAU1@@?$allocator@UDXUTCache_Texture@@@std@@QAEXPAUDXUTCache_Texture@@AAU2@@Z ENDP ; std::allocator<DXUTCache_Texture>::construct<DXUTCache_Texture,DXUTCache_Texture &>
; Function compile flags: /Odtp /RTCsu
;	COMDAT ??$_Uninitialized_move@PAUDXUTCache_Texture@@PAU1@U?$_Wrap_alloc@V?$allocator@UDXUTCache_Texture@@@std@@@std@@@std@@YAPAUDXUTCache_Texture@@PAU1@00AAU?$_Wrap_alloc@V?$allocator@UDXUTCache_Texture@@@std@@@0@@Z
_TEXT	SEGMENT
__First$ = 8						; size = 4
__Last$ = 12						; size = 4
__Dest$ = 16						; size = 4
__Al$ = 20						; size = 4
??$_Uninitialized_move@PAUDXUTCache_Texture@@PAU1@U?$_Wrap_alloc@V?$allocator@UDXUTCache_Texture@@@std@@@std@@@std@@YAPAUDXUTCache_Texture@@PAU1@00AAU?$_Wrap_alloc@V?$allocator@UDXUTCache_Texture@@@std@@@0@@Z PROC ; std::_Uninitialized_move<DXUTCache_Texture *,DXUTCache_Texture *,std::_Wrap_alloc<std::allocator<DXUTCache_Texture> > >, COMDAT
; File c:\program files (x86)\microsoft visual studio 12.0\vc\include\xmemory
; Line 492
  00000	55		 push	 ebp
  00001	8b ec		 mov	 ebp, esp
; Line 495
  00003	8b 45 14	 mov	 eax, DWORD PTR __Al$[ebp]
  00006	50		 push	 eax
  00007	8b 4d 10	 mov	 ecx, DWORD PTR __Dest$[ebp]
  0000a	51		 push	 ecx
  0000b	e8 00 00 00 00	 call	 ??$_Unchecked@PAUDXUTCache_Texture@@@std@@YAPAUDXUTCache_Texture@@PAU1@@Z ; std::_Unchecked<DXUTCache_Texture *>
  00010	83 c4 04	 add	 esp, 4
  00013	50		 push	 eax
  00014	8b 55 0c	 mov	 edx, DWORD PTR __Last$[ebp]
  00017	52		 push	 edx
  00018	e8 00 00 00 00	 call	 ??$_Unchecked@PAUDXUTCache_Texture@@@std@@YAPAUDXUTCache_Texture@@PAU1@@Z ; std::_Unchecked<DXUTCache_Texture *>
  0001d	83 c4 04	 add	 esp, 4
  00020	50		 push	 eax
  00021	8b 45 08	 mov	 eax, DWORD PTR __First$[ebp]
  00024	50		 push	 eax
  00025	e8 00 00 00 00	 call	 ??$_Unchecked@PAUDXUTCache_Texture@@@std@@YAPAUDXUTCache_Texture@@PAU1@@Z ; std::_Unchecked<DXUTCache_Texture *>
  0002a	83 c4 04	 add	 esp, 4
  0002d	50		 push	 eax
  0002e	e8 00 00 00 00	 call	 ??$_Uninit_move@PAUDXUTCache_Texture@@PAU1@U?$_Wrap_alloc@V?$allocator@UDXUTCache_Texture@@@std@@@std@@@std@@YAPAUDXUTCache_Texture@@PAU1@00AAU?$_Wrap_alloc@V?$allocator@UDXUTCache_Texture@@@std@@@0@@Z ; std::_Uninit_move<DXUTCache_Texture *,DXUTCache_Texture *,std::_Wrap_alloc<std::allocator<DXUTCache_Texture> > >
  00033	83 c4 10	 add	 esp, 16			; 00000010H
  00036	50		 push	 eax
  00037	8d 4d 10	 lea	 ecx, DWORD PTR __Dest$[ebp]
  0003a	51		 push	 ecx
  0003b	e8 00 00 00 00	 call	 ??$_Rechecked@PAUDXUTCache_Texture@@PAU1@@std@@YAAAPAUDXUTCache_Texture@@AAPAU1@PAU1@@Z ; std::_Rechecked<DXUTCache_Texture *,DXUTCache_Texture *>
  00040	83 c4 08	 add	 esp, 8
  00043	8b 00		 mov	 eax, DWORD PTR [eax]
; Line 496
  00045	3b ec		 cmp	 ebp, esp
  00047	e8 00 00 00 00	 call	 __RTC_CheckEsp
  0004c	5d		 pop	 ebp
  0004d	c3		 ret	 0
??$_Uninitialized_move@PAUDXUTCache_Texture@@PAU1@U?$_Wrap_alloc@V?$allocator@UDXUTCache_Texture@@@std@@@std@@@std@@YAPAUDXUTCache_Texture@@PAU1@00AAU?$_Wrap_alloc@V?$allocator@UDXUTCache_Texture@@@std@@@0@@Z ENDP ; std::_Uninitialized_move<DXUTCache_Texture *,DXUTCache_Texture *,std::_Wrap_alloc<std::allocator<DXUTCache_Texture> > >
_TEXT	ENDS
; Function compile flags: /Odtp /RTCsu
;	COMDAT ??$_Destroy_range@U?$_Wrap_alloc@V?$allocator@UDXUTCache_Texture@@@std@@@std@@@std@@YAXPAUDXUTCache_Texture@@0AAU?$_Wrap_alloc@V?$allocator@UDXUTCache_Texture@@@std@@@0@U_Nonscalar_ptr_iterator_tag@0@@Z
_TEXT	SEGMENT
__First$ = 8						; size = 4
__Last$ = 12						; size = 4
__Al$ = 16						; size = 4
___formal$ = 20						; size = 1
??$_Destroy_range@U?$_Wrap_alloc@V?$allocator@UDXUTCache_Texture@@@std@@@std@@@std@@YAXPAUDXUTCache_Texture@@0AAU?$_Wrap_alloc@V?$allocator@UDXUTCache_Texture@@@std@@@0@U_Nonscalar_ptr_iterator_tag@0@@Z PROC ; std::_Destroy_range<std::_Wrap_alloc<std::allocator<DXUTCache_Texture> > >, COMDAT
; File c:\program files (x86)\microsoft visual studio 12.0\vc\include\xmemory0
; Line 80
  00000	55		 push	 ebp
  00001	8b ec		 mov	 ebp, esp
; Line 81
  00003	eb 0b		 jmp	 SHORT $LN3@Destroy_ra
$LN2@Destroy_ra:
  00005	8b 45 08	 mov	 eax, DWORD PTR __First$[ebp]
  00008	05 10 02 00 00	 add	 eax, 528		; 00000210H
  0000d	89 45 08	 mov	 DWORD PTR __First$[ebp], eax
$LN3@Destroy_ra:
  00010	8b 4d 08	 mov	 ecx, DWORD PTR __First$[ebp]
  00013	3b 4d 0c	 cmp	 ecx, DWORD PTR __Last$[ebp]
  00016	74 0e		 je	 SHORT $LN4@Destroy_ra
; Line 82
  00018	8b 55 08	 mov	 edx, DWORD PTR __First$[ebp]
  0001b	52		 push	 edx
  0001c	8b 4d 10	 mov	 ecx, DWORD PTR __Al$[ebp]
  0001f	e8 00 00 00 00	 call	 ??$destroy@UDXUTCache_Texture@@@?$_Wrap_alloc@V?$allocator@UDXUTCache_Texture@@@std@@@std@@QAEXPAUDXUTCache_Texture@@@Z ; std::_Wrap_alloc<std::allocator<DXUTCache_Texture> >::destroy<DXUTCache_Texture>
  00024	eb df		 jmp	 SHORT $LN2@Destroy_ra
$LN4@Destroy_ra:
; Line 83
  00026	3b ec		 cmp	 ebp, esp
  00028	e8 00 00 00 00	 call	 __RTC_CheckEsp
  0002d	5d		 pop	 ebp
  0002e	c3		 ret	 0
??$_Destroy_range@U?$_Wrap_alloc@V?$allocator@UDXUTCache_Texture@@@std@@@std@@@std@@YAXPAUDXUTCache_Texture@@0AAU?$_Wrap_alloc@V?$allocator@UDXUTCache_Texture@@@std@@@0@U_Nonscalar_ptr_iterator_tag@0@@Z ENDP ; std::_Destroy_range<std::_Wrap_alloc<std::allocator<DXUTCache_Texture> > >
_TEXT	ENDS
; Function compile flags: /Odtp /RTCsu
;	COMDAT ??$_Ptr_cat@UDXUTCache_Texture@@U1@@std@@YA?AU_Nonscalar_ptr_iterator_tag@0@PAUDXUTCache_Texture@@0@Z
_TEXT	SEGMENT
__Cat$ = -5						; size = 1
___formal$ = 8						; size = 4
___formal$ = 12						; size = 4
??$_Ptr_cat@UDXUTCache_Texture@@U1@@std@@YA?AU_Nonscalar_ptr_iterator_tag@0@PAUDXUTCache_Texture@@0@Z PROC ; std::_Ptr_cat<DXUTCache_Texture,DXUTCache_Texture>, COMDAT
; File c:\program files (x86)\microsoft visual studio 12.0\vc\include\xutility
; Line 444
  00000	55		 push	 ebp
  00001	8b ec		 mov	 ebp, esp
  00003	83 ec 0c	 sub	 esp, 12			; 0000000cH
  00006	c7 45 f4 cc cc
	cc cc		 mov	 DWORD PTR [ebp-12], -858993460 ; ccccccccH
  0000d	c7 45 f8 cc cc
	cc cc		 mov	 DWORD PTR [ebp-8], -858993460 ; ccccccccH
  00014	c7 45 fc cc cc
	cc cc		 mov	 DWORD PTR [ebp-4], -858993460 ; ccccccccH
; Line 446
  0001b	8a 45 fb	 mov	 al, BYTE PTR __Cat$[ebp]
; Line 447
  0001e	52		 push	 edx
  0001f	8b cd		 mov	 ecx, ebp
  00021	50		 push	 eax
  00022	8d 15 00 00 00
	00		 lea	 edx, DWORD PTR $LN5@Ptr_cat
  00028	e8 00 00 00 00	 call	 @_RTC_CheckStackVars@8
  0002d	58		 pop	 eax
  0002e	5a		 pop	 edx
  0002f	8b e5		 mov	 esp, ebp
  00031	5d		 pop	 ebp
  00032	c3		 ret	 0
  00033	90		 npad	 1
$LN5@Ptr_cat:
  00034	01 00 00 00	 DD	 1
  00038	00 00 00 00	 DD	 $LN4@Ptr_cat
$LN4@Ptr_cat:
  0003c	fb ff ff ff	 DD	 -5			; fffffffbH
  00040	01 00 00 00	 DD	 1
  00044	00 00 00 00	 DD	 $LN3@Ptr_cat
$LN3@Ptr_cat:
  00048	5f		 DB	 95			; 0000005fH
  00049	43		 DB	 67			; 00000043H
  0004a	61		 DB	 97			; 00000061H
  0004b	74		 DB	 116			; 00000074H
  0004c	00		 DB	 0
??$_Ptr_cat@UDXUTCache_Texture@@U1@@std@@YA?AU_Nonscalar_ptr_iterator_tag@0@PAUDXUTCache_Texture@@0@Z ENDP ; std::_Ptr_cat<DXUTCache_Texture,DXUTCache_Texture>
_TEXT	ENDS
; Function compile flags: /Odtp /RTCsu
;	COMDAT ??$construct@UDXUTCache_Texture@@ABU1@@?$allocator_traits@V?$allocator@UDXUTCache_Texture@@@std@@@std@@SAXAAV?$allocator@UDXUTCache_Texture@@@1@PAUDXUTCache_Texture@@ABU3@@Z
_TEXT	SEGMENT
__Al$ = 8						; size = 4
__Ptr$ = 12						; size = 4
_<_Args_0>$ = 16					; size = 4
??$construct@UDXUTCache_Texture@@ABU1@@?$allocator_traits@V?$allocator@UDXUTCache_Texture@@@std@@@std@@SAXAAV?$allocator@UDXUTCache_Texture@@@1@PAUDXUTCache_Texture@@ABU3@@Z PROC ; std::allocator_traits<std::allocator<DXUTCache_Texture> >::construct<DXUTCache_Texture,DXUTCache_Texture const &>, COMDAT
; File c:\program files (x86)\microsoft visual studio 12.0\vc\include\xmemory0
; Line 720
  00000	55		 push	 ebp
  00001	8b ec		 mov	 ebp, esp
; Line 723
  00003	8b 45 10	 mov	 eax, DWORD PTR _<_Args_0>$[ebp]
  00006	50		 push	 eax
  00007	e8 00 00 00 00	 call	 ??$forward@ABUDXUTCache_Texture@@@std@@YAABUDXUTCache_Texture@@ABU1@@Z ; std::forward<DXUTCache_Texture const &>
  0000c	83 c4 04	 add	 esp, 4
  0000f	50		 push	 eax
  00010	8b 4d 0c	 mov	 ecx, DWORD PTR __Ptr$[ebp]
  00013	51		 push	 ecx
  00014	8b 4d 08	 mov	 ecx, DWORD PTR __Al$[ebp]
  00017	e8 00 00 00 00	 call	 ?construct@?$allocator@UDXUTCache_Texture@@@std@@QAEXPAUDXUTCache_Texture@@ABU3@@Z ; std::allocator<DXUTCache_Texture>::construct
; Line 724
  0001c	3b ec		 cmp	 ebp, esp
  0001e	e8 00 00 00 00	 call	 __RTC_CheckEsp
  00023	5d		 pop	 ebp
  00024	c3		 ret	 0
??$construct@UDXUTCache_Texture@@ABU1@@?$allocator_traits@V?$allocator@UDXUTCache_Texture@@@std@@@std@@SAXAAV?$allocator@UDXUTCache_Texture@@@1@PAUDXUTCache_Texture@@ABU3@@Z ENDP ; std::allocator_traits<std::allocator<DXUTCache_Texture> >::construct<DXUTCache_Texture,DXUTCache_Texture const &>
_TEXT	ENDS
; Function compile flags: /Odtp /RTCsu
;	COMDAT ??$forward@ABUDXUTCache_Texture@@@std@@YAABUDXUTCache_Texture@@ABU1@@Z
_TEXT	SEGMENT
__Arg$ = 8						; size = 4
??$forward@ABUDXUTCache_Texture@@@std@@YAABUDXUTCache_Texture@@ABU1@@Z PROC ; std::forward<DXUTCache_Texture const &>, COMDAT
; File c:\program files (x86)\microsoft visual studio 12.0\vc\include\type_traits
; Line 1504
  00000	55		 push	 ebp
  00001	8b ec		 mov	 ebp, esp
; Line 1505
  00003	8b 45 08	 mov	 eax, DWORD PTR __Arg$[ebp]
; Line 1506
  00006	5d		 pop	 ebp
  00007	c3		 ret	 0
??$forward@ABUDXUTCache_Texture@@@std@@YAABUDXUTCache_Texture@@ABU1@@Z ENDP ; std::forward<DXUTCache_Texture const &>
_TEXT	ENDS
; Function compile flags: /Odtp /RTCsu
;	COMDAT ??$construct@UDXUTCache_Texture@@AAU1@@?$allocator_traits@V?$allocator@UDXUTCache_Texture@@@std@@@std@@SAXAAV?$allocator@UDXUTCache_Texture@@@1@PAUDXUTCache_Texture@@AAU3@@Z
_TEXT	SEGMENT
__Al$ = 8						; size = 4
__Ptr$ = 12						; size = 4
_<_Args_0>$ = 16					; size = 4
??$construct@UDXUTCache_Texture@@AAU1@@?$allocator_traits@V?$allocator@UDXUTCache_Texture@@@std@@@std@@SAXAAV?$allocator@UDXUTCache_Texture@@@1@PAUDXUTCache_Texture@@AAU3@@Z PROC ; std::allocator_traits<std::allocator<DXUTCache_Texture> >::construct<DXUTCache_Texture,DXUTCache_Texture &>, COMDAT
; File c:\program files (x86)\microsoft visual studio 12.0\vc\include\xmemory0
; Line 720
  00000	55		 push	 ebp
  00001	8b ec		 mov	 ebp, esp
; Line 723
  00003	8b 45 10	 mov	 eax, DWORD PTR _<_Args_0>$[ebp]
  00006	50		 push	 eax
  00007	e8 00 00 00 00	 call	 ??$forward@AAUDXUTCache_Texture@@@std@@YAAAUDXUTCache_Texture@@AAU1@@Z ; std::forward<DXUTCache_Texture &>
  0000c	83 c4 04	 add	 esp, 4
  0000f	50		 push	 eax
  00010	8b 4d 0c	 mov	 ecx, DWORD PTR __Ptr$[ebp]
  00013	51		 push	 ecx
  00014	8b 4d 08	 mov	 ecx, DWORD PTR __Al$[ebp]
  00017	e8 00 00 00 00	 call	 ??$construct@UDXUTCache_Texture@@AAU1@@?$allocator@UDXUTCache_Texture@@@std@@QAEXPAUDXUTCache_Texture@@AAU2@@Z ; std::allocator<DXUTCache_Texture>::construct<DXUTCache_Texture,DXUTCache_Texture &>
; Line 724
  0001c	3b ec		 cmp	 ebp, esp
  0001e	e8 00 00 00 00	 call	 __RTC_CheckEsp
  00023	5d		 pop	 ebp
  00024	c3		 ret	 0
??$construct@UDXUTCache_Texture@@AAU1@@?$allocator_traits@V?$allocator@UDXUTCache_Texture@@@std@@@std@@SAXAAV?$allocator@UDXUTCache_Texture@@@1@PAUDXUTCache_Texture@@AAU3@@Z ENDP ; std::allocator_traits<std::allocator<DXUTCache_Texture> >::construct<DXUTCache_Texture,DXUTCache_Texture &>
_TEXT	ENDS
; Function compile flags: /Odtp /RTCsu
;	COMDAT ??$forward@AAUDXUTCache_Texture@@@std@@YAAAUDXUTCache_Texture@@AAU1@@Z
_TEXT	SEGMENT
__Arg$ = 8						; size = 4
??$forward@AAUDXUTCache_Texture@@@std@@YAAAUDXUTCache_Texture@@AAU1@@Z PROC ; std::forward<DXUTCache_Texture &>, COMDAT
; File c:\program files (x86)\microsoft visual studio 12.0\vc\include\type_traits
; Line 1504
  00000	55		 push	 ebp
  00001	8b ec		 mov	 ebp, esp
; Line 1505
  00003	8b 45 08	 mov	 eax, DWORD PTR __Arg$[ebp]
; Line 1506
  00006	5d		 pop	 ebp
  00007	c3		 ret	 0
??$forward@AAUDXUTCache_Texture@@@std@@YAAAUDXUTCache_Texture@@AAU1@@Z ENDP ; std::forward<DXUTCache_Texture &>
_TEXT	ENDS
; Function compile flags: /Odtp /RTCsu
;	COMDAT ??$_Allocate@UDXUTCache_Texture@@@std@@YAPAUDXUTCache_Texture@@IPAU1@@Z
_TEXT	SEGMENT
__Ptr$ = -4						; size = 4
__Count$ = 8						; size = 4
___formal$ = 12						; size = 4
??$_Allocate@UDXUTCache_Texture@@@std@@YAPAUDXUTCache_Texture@@IPAU1@@Z PROC ; std::_Allocate<DXUTCache_Texture>, COMDAT
; File c:\program files (x86)\microsoft visual studio 12.0\vc\include\xmemory0
; Line 22
  00000	55		 push	 ebp
  00001	8b ec		 mov	 ebp, esp
  00003	51		 push	 ecx
  00004	56		 push	 esi
  00005	c7 45 fc cc cc
	cc cc		 mov	 DWORD PTR [ebp-4], -858993460 ; ccccccccH
; Line 23
  0000c	c7 45 fc 00 00
	00 00		 mov	 DWORD PTR __Ptr$[ebp], 0
; Line 25
  00013	83 7d 08 00	 cmp	 DWORD PTR __Count$[ebp], 0
  00017	75 02		 jne	 SHORT $LN4@Allocate
; Line 27
  00019	eb 31		 jmp	 SHORT $LN3@Allocate
$LN4@Allocate:
; Line 28
  0001b	81 7d 08 07 1f
	7c 00		 cmp	 DWORD PTR __Count$[ebp], 8134407 ; 007c1f07H
  00022	77 19		 ja	 SHORT $LN1@Allocate
  00024	69 45 08 10 02
	00 00		 imul	 eax, DWORD PTR __Count$[ebp], 528
  0002b	50		 push	 eax
  0002c	e8 00 00 00 00	 call	 ??2@YAPAXI@Z		; operator new
  00031	83 c4 04	 add	 esp, 4
  00034	89 45 fc	 mov	 DWORD PTR __Ptr$[ebp], eax
  00037	83 7d fc 00	 cmp	 DWORD PTR __Ptr$[ebp], 0
  0003b	75 0f		 jne	 SHORT $LN3@Allocate
$LN1@Allocate:
; Line 29
  0003d	8b f4		 mov	 esi, esp
  0003f	ff 15 00 00 00
	00		 call	 DWORD PTR __imp_?_Xbad_alloc@std@@YAXXZ
  00045	3b f4		 cmp	 esi, esp
  00047	e8 00 00 00 00	 call	 __RTC_CheckEsp
$LN3@Allocate:
; Line 31
  0004c	8b 45 fc	 mov	 eax, DWORD PTR __Ptr$[ebp]
$LN6@Allocate:
; Line 32
  0004f	5e		 pop	 esi
  00050	83 c4 04	 add	 esp, 4
  00053	3b ec		 cmp	 ebp, esp
  00055	e8 00 00 00 00	 call	 __RTC_CheckEsp
  0005a	8b e5		 mov	 esp, ebp
  0005c	5d		 pop	 ebp
  0005d	c3		 ret	 0
??$_Allocate@UDXUTCache_Texture@@@std@@YAPAUDXUTCache_Texture@@IPAU1@@Z ENDP ; std::_Allocate<DXUTCache_Texture>
_TEXT	ENDS
; Function compile flags: /Odtp /RTCsu
;	COMDAT ??$_Umove@PAUDXUTCache_Texture@@@?$vector@UDXUTCache_Texture@@V?$allocator@UDXUTCache_Texture@@@std@@@std@@IAEPAUDXUTCache_Texture@@PAU2@00@Z
_TEXT	SEGMENT
__Alval$ = -9						; size = 1
_this$ = -4						; size = 4
__First$ = 8						; size = 4
__Last$ = 12						; size = 4
__Ptr$ = 16						; size = 4
??$_Umove@PAUDXUTCache_Texture@@@?$vector@UDXUTCache_Texture@@V?$allocator@UDXUTCache_Texture@@@std@@@std@@IAEPAUDXUTCache_Texture@@PAU2@00@Z PROC ; std::vector<DXUTCache_Texture,std::allocator<DXUTCache_Texture> >::_Umove<DXUTCache_Texture *>, COMDAT
; _this$ = ecx
; File c:\program files (x86)\microsoft visual studio 12.0\vc\include\vector
; Line 1644
  00000	55		 push	 ebp
  00001	8b ec		 mov	 ebp, esp
  00003	83 ec 10	 sub	 esp, 16			; 00000010H
  00006	b8 cc cc cc cc	 mov	 eax, -858993460		; ccccccccH
  0000b	89 45 f0	 mov	 DWORD PTR [ebp-16], eax
  0000e	89 45 f4	 mov	 DWORD PTR [ebp-12], eax
  00011	89 45 f8	 mov	 DWORD PTR [ebp-8], eax
  00014	89 45 fc	 mov	 DWORD PTR [ebp-4], eax
  00017	89 4d fc	 mov	 DWORD PTR _this$[ebp], ecx
; Line 1646
  0001a	8d 45 f7	 lea	 eax, DWORD PTR __Alval$[ebp]
  0001d	50		 push	 eax
  0001e	8b 4d fc	 mov	 ecx, DWORD PTR _this$[ebp]
  00021	e8 00 00 00 00	 call	 ?_Getal@?$_Vector_alloc@$0A@U?$_Vec_base_types@UDXUTCache_Texture@@V?$allocator@UDXUTCache_Texture@@@std@@@std@@@std@@QBE?AU?$_Wrap_alloc@V?$allocator@UDXUTCache_Texture@@@std@@@2@XZ ; std::_Vector_alloc<0,std::_Vec_base_types<DXUTCache_Texture,std::allocator<DXUTCache_Texture> > >::_Getal
; Line 1648
  00026	8d 4d f7	 lea	 ecx, DWORD PTR __Alval$[ebp]
  00029	51		 push	 ecx
  0002a	8b 55 10	 mov	 edx, DWORD PTR __Ptr$[ebp]
  0002d	52		 push	 edx
  0002e	8b 45 0c	 mov	 eax, DWORD PTR __Last$[ebp]
  00031	50		 push	 eax
  00032	8b 4d 08	 mov	 ecx, DWORD PTR __First$[ebp]
  00035	51		 push	 ecx
  00036	e8 00 00 00 00	 call	 ??$_Uninitialized_move@PAUDXUTCache_Texture@@PAU1@U?$_Wrap_alloc@V?$allocator@UDXUTCache_Texture@@@std@@@std@@@std@@YAPAUDXUTCache_Texture@@PAU1@00AAU?$_Wrap_alloc@V?$allocator@UDXUTCache_Texture@@@std@@@0@@Z ; std::_Uninitialized_move<DXUTCache_Texture *,DXUTCache_Texture *,std::_Wrap_alloc<std::allocator<DXUTCache_Texture> > >
  0003b	83 c4 10	 add	 esp, 16			; 00000010H
; Line 1649
  0003e	52		 push	 edx
  0003f	8b cd		 mov	 ecx, ebp
  00041	50		 push	 eax
  00042	8d 15 00 00 00
	00		 lea	 edx, DWORD PTR $LN5@Umove
  00048	e8 00 00 00 00	 call	 @_RTC_CheckStackVars@8
  0004d	58		 pop	 eax
  0004e	5a		 pop	 edx
  0004f	83 c4 10	 add	 esp, 16			; 00000010H
  00052	3b ec		 cmp	 ebp, esp
  00054	e8 00 00 00 00	 call	 __RTC_CheckEsp
  00059	8b e5		 mov	 esp, ebp
  0005b	5d		 pop	 ebp
  0005c	c2 0c 00	 ret	 12			; 0000000cH
  0005f	90		 npad	 1
$LN5@Umove:
  00060	01 00 00 00	 DD	 1
  00064	00 00 00 00	 DD	 $LN4@Umove
$LN4@Umove:
  00068	f7 ff ff ff	 DD	 -9			; fffffff7H
  0006c	01 00 00 00	 DD	 1
  00070	00 00 00 00	 DD	 $LN3@Umove
$LN3@Umove:
  00074	5f		 DB	 95			; 0000005fH
  00075	41		 DB	 65			; 00000041H
  00076	6c		 DB	 108			; 0000006cH
  00077	76		 DB	 118			; 00000076H
  00078	61		 DB	 97			; 00000061H
  00079	6c		 DB	 108			; 0000006cH
  0007a	00		 DB	 0
??$_Umove@PAUDXUTCache_Texture@@@?$vector@UDXUTCache_Texture@@V?$allocator@UDXUTCache_Texture@@@std@@@std@@IAEPAUDXUTCache_Texture@@PAU2@00@Z ENDP ; std::vector<DXUTCache_Texture,std::allocator<DXUTCache_Texture> >::_Umove<DXUTCache_Texture *>
_TEXT	ENDS
; Function compile flags: /Odtp /RTCsu
;	COMDAT ??$_Destroy_range@U?$_Wrap_alloc@V?$allocator@UDXUTCache_Texture@@@std@@@std@@@std@@YAXPAUDXUTCache_Texture@@0AAU?$_Wrap_alloc@V?$allocator@UDXUTCache_Texture@@@std@@@0@@Z
_TEXT	SEGMENT
$T1 = -1						; size = 1
__First$ = 8						; size = 4
__Last$ = 12						; size = 4
__Al$ = 16						; size = 4
??$_Destroy_range@U?$_Wrap_alloc@V?$allocator@UDXUTCache_Texture@@@std@@@std@@@std@@YAXPAUDXUTCache_Texture@@0AAU?$_Wrap_alloc@V?$allocator@UDXUTCache_Texture@@@std@@@0@@Z PROC ; std::_Destroy_range<std::_Wrap_alloc<std::allocator<DXUTCache_Texture> > >, COMDAT
; File c:\program files (x86)\microsoft visual studio 12.0\vc\include\xmemory0
; Line 95
  00000	55		 push	 ebp
  00001	8b ec		 mov	 ebp, esp
  00003	51		 push	 ecx
  00004	c7 45 fc cc cc
	cc cc		 mov	 DWORD PTR [ebp-4], -858993460 ; ccccccccH
; Line 96
  0000b	8b 45 0c	 mov	 eax, DWORD PTR __Last$[ebp]
  0000e	50		 push	 eax
  0000f	8b 4d 08	 mov	 ecx, DWORD PTR __First$[ebp]
  00012	51		 push	 ecx
  00013	e8 00 00 00 00	 call	 ??$_Ptr_cat@UDXUTCache_Texture@@U1@@std@@YA?AU_Nonscalar_ptr_iterator_tag@0@PAUDXUTCache_Texture@@0@Z ; std::_Ptr_cat<DXUTCache_Texture,DXUTCache_Texture>
  00018	83 c4 08	 add	 esp, 8
  0001b	88 45 ff	 mov	 BYTE PTR $T1[ebp], al
  0001e	0f b6 55 ff	 movzx	 edx, BYTE PTR $T1[ebp]
  00022	52		 push	 edx
  00023	8b 45 10	 mov	 eax, DWORD PTR __Al$[ebp]
  00026	50		 push	 eax
  00027	8b 4d 0c	 mov	 ecx, DWORD PTR __Last$[ebp]
  0002a	51		 push	 ecx
  0002b	8b 55 08	 mov	 edx, DWORD PTR __First$[ebp]
  0002e	52		 push	 edx
  0002f	e8 00 00 00 00	 call	 ??$_Destroy_range@U?$_Wrap_alloc@V?$allocator@UDXUTCache_Texture@@@std@@@std@@@std@@YAXPAUDXUTCache_Texture@@0AAU?$_Wrap_alloc@V?$allocator@UDXUTCache_Texture@@@std@@@0@U_Nonscalar_ptr_iterator_tag@0@@Z ; std::_Destroy_range<std::_Wrap_alloc<std::allocator<DXUTCache_Texture> > >
  00034	83 c4 10	 add	 esp, 16			; 00000010H
; Line 97
  00037	83 c4 04	 add	 esp, 4
  0003a	3b ec		 cmp	 ebp, esp
  0003c	e8 00 00 00 00	 call	 __RTC_CheckEsp
  00041	8b e5		 mov	 esp, ebp
  00043	5d		 pop	 ebp
  00044	c3		 ret	 0
??$_Destroy_range@U?$_Wrap_alloc@V?$allocator@UDXUTCache_Texture@@@std@@@std@@@std@@YAXPAUDXUTCache_Texture@@0AAU?$_Wrap_alloc@V?$allocator@UDXUTCache_Texture@@@std@@@0@@Z ENDP ; std::_Destroy_range<std::_Wrap_alloc<std::allocator<DXUTCache_Texture> > >
_TEXT	ENDS
; Function compile flags: /Odtp /RTCsu
;	COMDAT ?pointer_to@?$pointer_traits@PBUDXUTCache_Texture@@@std@@SAPBUDXUTCache_Texture@@ABU3@@Z
_TEXT	SEGMENT
__Val$ = 8						; size = 4
?pointer_to@?$pointer_traits@PBUDXUTCache_Texture@@@std@@SAPBUDXUTCache_Texture@@ABU3@@Z PROC ; std::pointer_traits<DXUTCache_Texture const *>::pointer_to, COMDAT
; File c:\program files (x86)\microsoft visual studio 12.0\vc\include\xmemory0
; Line 233
  00000	55		 push	 ebp
  00001	8b ec		 mov	 ebp, esp
; Line 234
  00003	8b 45 08	 mov	 eax, DWORD PTR __Val$[ebp]
  00006	50		 push	 eax
  00007	e8 00 00 00 00	 call	 ??$addressof@$$CBUDXUTCache_Texture@@@std@@YAPBUDXUTCache_Texture@@ABU1@@Z ; std::addressof<DXUTCache_Texture const >
  0000c	83 c4 04	 add	 esp, 4
; Line 235
  0000f	3b ec		 cmp	 ebp, esp
  00011	e8 00 00 00 00	 call	 __RTC_CheckEsp
  00016	5d		 pop	 ebp
  00017	c3		 ret	 0
?pointer_to@?$pointer_traits@PBUDXUTCache_Texture@@@std@@SAPBUDXUTCache_Texture@@ABU3@@Z ENDP ; std::pointer_traits<DXUTCache_Texture const *>::pointer_to
_TEXT	ENDS
; Function compile flags: /Odtp /RTCsu
;	COMDAT ??$construct@UDXUTCache_Texture@@ABU1@@?$_Wrap_alloc@V?$allocator@UDXUTCache_Texture@@@std@@@std@@QAEXPAUDXUTCache_Texture@@ABU2@@Z
_TEXT	SEGMENT
_this$ = -4						; size = 4
__Ptr$ = 8						; size = 4
_<_Args_0>$ = 12					; size = 4
??$construct@UDXUTCache_Texture@@ABU1@@?$_Wrap_alloc@V?$allocator@UDXUTCache_Texture@@@std@@@std@@QAEXPAUDXUTCache_Texture@@ABU2@@Z PROC ; std::_Wrap_alloc<std::allocator<DXUTCache_Texture> >::construct<DXUTCache_Texture,DXUTCache_Texture const &>, COMDAT
; _this$ = ecx
; File c:\program files (x86)\microsoft visual studio 12.0\vc\include\xmemory0
; Line 868
  00000	55		 push	 ebp
  00001	8b ec		 mov	 ebp, esp
  00003	51		 push	 ecx
  00004	c7 45 fc cc cc
	cc cc		 mov	 DWORD PTR [ebp-4], -858993460 ; ccccccccH
  0000b	89 4d fc	 mov	 DWORD PTR _this$[ebp], ecx
; Line 872
  0000e	8b 45 0c	 mov	 eax, DWORD PTR _<_Args_0>$[ebp]
  00011	50		 push	 eax
  00012	e8 00 00 00 00	 call	 ??$forward@ABUDXUTCache_Texture@@@std@@YAABUDXUTCache_Texture@@ABU1@@Z ; std::forward<DXUTCache_Texture const &>
  00017	83 c4 04	 add	 esp, 4
  0001a	50		 push	 eax
  0001b	8b 4d 08	 mov	 ecx, DWORD PTR __Ptr$[ebp]
  0001e	51		 push	 ecx
  0001f	8b 55 fc	 mov	 edx, DWORD PTR _this$[ebp]
  00022	52		 push	 edx
  00023	e8 00 00 00 00	 call	 ??$construct@UDXUTCache_Texture@@ABU1@@?$allocator_traits@V?$allocator@UDXUTCache_Texture@@@std@@@std@@SAXAAV?$allocator@UDXUTCache_Texture@@@1@PAUDXUTCache_Texture@@ABU3@@Z ; std::allocator_traits<std::allocator<DXUTCache_Texture> >::construct<DXUTCache_Texture,DXUTCache_Texture const &>
  00028	83 c4 0c	 add	 esp, 12			; 0000000cH
; Line 873
  0002b	83 c4 04	 add	 esp, 4
  0002e	3b ec		 cmp	 ebp, esp
  00030	e8 00 00 00 00	 call	 __RTC_CheckEsp
  00035	8b e5		 mov	 esp, ebp
  00037	5d		 pop	 ebp
  00038	c2 08 00	 ret	 8
??$construct@UDXUTCache_Texture@@ABU1@@?$_Wrap_alloc@V?$allocator@UDXUTCache_Texture@@@std@@@std@@QAEXPAUDXUTCache_Texture@@ABU2@@Z ENDP ; std::_Wrap_alloc<std::allocator<DXUTCache_Texture> >::construct<DXUTCache_Texture,DXUTCache_Texture const &>
_TEXT	ENDS
; Function compile flags: /Odtp /RTCsu
;	COMDAT ??$construct@UDXUTCache_Texture@@AAU1@@?$_Wrap_alloc@V?$allocator@UDXUTCache_Texture@@@std@@@std@@QAEXPAUDXUTCache_Texture@@AAU2@@Z
_TEXT	SEGMENT
_this$ = -4						; size = 4
__Ptr$ = 8						; size = 4
_<_Args_0>$ = 12					; size = 4
??$construct@UDXUTCache_Texture@@AAU1@@?$_Wrap_alloc@V?$allocator@UDXUTCache_Texture@@@std@@@std@@QAEXPAUDXUTCache_Texture@@AAU2@@Z PROC ; std::_Wrap_alloc<std::allocator<DXUTCache_Texture> >::construct<DXUTCache_Texture,DXUTCache_Texture &>, COMDAT
; _this$ = ecx
; File c:\program files (x86)\microsoft visual studio 12.0\vc\include\xmemory0
; Line 868
  00000	55		 push	 ebp
  00001	8b ec		 mov	 ebp, esp
  00003	51		 push	 ecx
  00004	c7 45 fc cc cc
	cc cc		 mov	 DWORD PTR [ebp-4], -858993460 ; ccccccccH
  0000b	89 4d fc	 mov	 DWORD PTR _this$[ebp], ecx
; Line 872
  0000e	8b 45 0c	 mov	 eax, DWORD PTR _<_Args_0>$[ebp]
  00011	50		 push	 eax
  00012	e8 00 00 00 00	 call	 ??$forward@AAUDXUTCache_Texture@@@std@@YAAAUDXUTCache_Texture@@AAU1@@Z ; std::forward<DXUTCache_Texture &>
  00017	83 c4 04	 add	 esp, 4
  0001a	50		 push	 eax
  0001b	8b 4d 08	 mov	 ecx, DWORD PTR __Ptr$[ebp]
  0001e	51		 push	 ecx
  0001f	8b 55 fc	 mov	 edx, DWORD PTR _this$[ebp]
  00022	52		 push	 edx
  00023	e8 00 00 00 00	 call	 ??$construct@UDXUTCache_Texture@@AAU1@@?$allocator_traits@V?$allocator@UDXUTCache_Texture@@@std@@@std@@SAXAAV?$allocator@UDXUTCache_Texture@@@1@PAUDXUTCache_Texture@@AAU3@@Z ; std::allocator_traits<std::allocator<DXUTCache_Texture> >::construct<DXUTCache_Texture,DXUTCache_Texture &>
  00028	83 c4 0c	 add	 esp, 12			; 0000000cH
; Line 873
  0002b	83 c4 04	 add	 esp, 4
  0002e	3b ec		 cmp	 ebp, esp
  00030	e8 00 00 00 00	 call	 __RTC_CheckEsp
  00035	8b e5		 mov	 esp, ebp
  00037	5d		 pop	 ebp
  00038	c2 08 00	 ret	 8
??$construct@UDXUTCache_Texture@@AAU1@@?$_Wrap_alloc@V?$allocator@UDXUTCache_Texture@@@std@@@std@@QAEXPAUDXUTCache_Texture@@AAU2@@Z ENDP ; std::_Wrap_alloc<std::allocator<DXUTCache_Texture> >::construct<DXUTCache_Texture,DXUTCache_Texture &>
_TEXT	ENDS
; Function compile flags: /Odtp /RTCsu
;	COMDAT ??$addressof@$$CBUDXUTCache_Texture@@@std@@YAPBUDXUTCache_Texture@@ABU1@@Z
_TEXT	SEGMENT
__Val$ = 8						; size = 4
??$addressof@$$CBUDXUTCache_Texture@@@std@@YAPBUDXUTCache_Texture@@ABU1@@Z PROC ; std::addressof<DXUTCache_Texture const >, COMDAT
; File c:\program files (x86)\microsoft visual studio 12.0\vc\include\xstddef
; Line 92
  00000	55		 push	 ebp
  00001	8b ec		 mov	 ebp, esp
; Line 95
  00003	8b 45 08	 mov	 eax, DWORD PTR __Val$[ebp]
; Line 96
  00006	5d		 pop	 ebp
  00007	c3		 ret	 0
??$addressof@$$CBUDXUTCache_Texture@@@std@@YAPBUDXUTCache_Texture@@ABU1@@Z ENDP ; std::addressof<DXUTCache_Texture const >
_TEXT	ENDS
; Function compile flags: /Odtp /RTCsu
;	COMDAT ??1?$_Vector_const_iterator@V?$_Vector_val@U?$_Simple_types@UDXUTCache_Texture@@@std@@@std@@@std@@QAE@XZ
_TEXT	SEGMENT
_this$ = -4						; size = 4
??1?$_Vector_const_iterator@V?$_Vector_val@U?$_Simple_types@UDXUTCache_Texture@@@std@@@std@@@std@@QAE@XZ PROC ; std::_Vector_const_iterator<std::_Vector_val<std::_Simple_types<DXUTCache_Texture> > >::~_Vector_const_iterator<std::_Vector_val<std::_Simple_types<DXUTCache_Texture> > >, COMDAT
; _this$ = ecx
  00000	55		 push	 ebp
  00001	8b ec		 mov	 ebp, esp
  00003	51		 push	 ecx
  00004	c7 45 fc cc cc
	cc cc		 mov	 DWORD PTR [ebp-4], -858993460 ; ccccccccH
  0000b	89 4d fc	 mov	 DWORD PTR _this$[ebp], ecx
  0000e	8b 4d fc	 mov	 ecx, DWORD PTR _this$[ebp]
  00011	e8 00 00 00 00	 call	 ??1?$_Iterator012@Urandom_access_iterator_tag@std@@UDXUTCache_Texture@@HPBU3@ABU3@U_Iterator_base12@2@@std@@QAE@XZ
  00016	83 c4 04	 add	 esp, 4
  00019	3b ec		 cmp	 ebp, esp
  0001b	e8 00 00 00 00	 call	 __RTC_CheckEsp
  00020	8b e5		 mov	 esp, ebp
  00022	5d		 pop	 ebp
  00023	c3		 ret	 0
??1?$_Vector_const_iterator@V?$_Vector_val@U?$_Simple_types@UDXUTCache_Texture@@@std@@@std@@@std@@QAE@XZ ENDP ; std::_Vector_const_iterator<std::_Vector_val<std::_Simple_types<DXUTCache_Texture> > >::~_Vector_const_iterator<std::_Vector_val<std::_Simple_types<DXUTCache_Texture> > >
_TEXT	ENDS
; Function compile flags: /Odtp /RTCsu
;	COMDAT ?_Compat@?$_Vector_const_iterator@V?$_Vector_val@U?$_Simple_types@UDXUTCache_Texture@@@std@@@std@@@std@@QBEXABV12@@Z
_TEXT	SEGMENT
_this$ = -4						; size = 4
__Right$ = 8						; size = 4
?_Compat@?$_Vector_const_iterator@V?$_Vector_val@U?$_Simple_types@UDXUTCache_Texture@@@std@@@std@@@std@@QBEXABV12@@Z PROC ; std::_Vector_const_iterator<std::_Vector_val<std::_Simple_types<DXUTCache_Texture> > >::_Compat, COMDAT
; _this$ = ecx
; File c:\program files (x86)\microsoft visual studio 12.0\vc\include\vector
; Line 236
  00000	55		 push	 ebp
  00001	8b ec		 mov	 ebp, esp
  00003	51		 push	 ecx
  00004	56		 push	 esi
  00005	c7 45 fc cc cc
	cc cc		 mov	 DWORD PTR [ebp-4], -858993460 ; ccccccccH
  0000c	89 4d fc	 mov	 DWORD PTR _this$[ebp], ecx
; Line 238
  0000f	8b 4d fc	 mov	 ecx, DWORD PTR _this$[ebp]
  00012	e8 00 00 00 00	 call	 ?_Getcont@_Iterator_base12@std@@QBEPBU_Container_base12@2@XZ ; std::_Iterator_base12::_Getcont
  00017	85 c0		 test	 eax, eax
  00019	74 1a		 je	 SHORT $LN1@Compat
  0001b	8b 4d fc	 mov	 ecx, DWORD PTR _this$[ebp]
  0001e	e8 00 00 00 00	 call	 ?_Getcont@_Iterator_base12@std@@QBEPBU_Container_base12@2@XZ ; std::_Iterator_base12::_Getcont
  00023	8b f0		 mov	 esi, eax
  00025	8b 4d 08	 mov	 ecx, DWORD PTR __Right$[ebp]
  00028	e8 00 00 00 00	 call	 ?_Getcont@_Iterator_base12@std@@QBEPBU_Container_base12@2@XZ ; std::_Iterator_base12::_Getcont
  0002d	3b f0		 cmp	 esi, eax
  0002f	0f 84 86 00 00
	00		 je	 $LN3@Compat
$LN1@Compat:
; Line 240
  00035	8b f4		 mov	 esi, esp
  00037	68 f0 00 00 00	 push	 240			; 000000f0H
  0003c	68 00 00 00 00	 push	 OFFSET ??_C@_1IM@EINEHPHE@?$AAC?$AA?3?$AA?2?$AAP?$AAr?$AAo?$AAg?$AAr?$AAa?$AAm?$AA?5?$AAF?$AAi?$AAl?$AAe?$AAs?$AA?5?$AA?$CI?$AAx?$AA8?$AA6?$AA?$CJ?$AA?2?$AAM?$AAi?$AAc?$AAr?$AAo?$AAs?$AAo?$AAf?$AAt@
  00041	68 00 00 00 00	 push	 OFFSET ??_C@_1DM@HINDPMBP@?$AAv?$AAe?$AAc?$AAt?$AAo?$AAr?$AA?5?$AAi?$AAt?$AAe?$AAr?$AAa?$AAt?$AAo?$AAr?$AAs?$AA?5?$AAi?$AAn?$AAc?$AAo?$AAm?$AAp?$AAa?$AAt?$AAi?$AAb?$AAl?$AAe?$AA?$AA@
  00046	ff 15 00 00 00
	00		 call	 DWORD PTR __imp_?_Debug_message@std@@YAXPB_W0I@Z
  0004c	83 c4 0c	 add	 esp, 12			; 0000000cH
  0004f	3b f4		 cmp	 esi, esp
  00051	e8 00 00 00 00	 call	 __RTC_CheckEsp
; Line 241
  00056	b8 00 00 00 00	 mov	 eax, OFFSET ??_C@_0CI@FNPHFCCM@Standard?5C?$CL?$CL?5Libraries?5Invalid?5A@
  0005b	85 c0		 test	 eax, eax
  0005d	74 04		 je	 SHORT $LN5@Compat
  0005f	33 c9		 xor	 ecx, ecx
  00061	75 30		 jne	 SHORT $LN6@Compat
$LN5@Compat:
  00063	8b f4		 mov	 esi, esp
  00065	68 00 00 00 00	 push	 OFFSET ??_C@_1FO@GJIHNDLM@?$AA?$CC?$AAS?$AAt?$AAa?$AAn?$AAd?$AAa?$AAr?$AAd?$AA?5?$AAC?$AA?$CL?$AA?$CL?$AA?5?$AAL?$AAi?$AAb?$AAr?$AAa?$AAr?$AAi?$AAe?$AAs?$AA?5?$AAI?$AAn?$AAv?$AAa?$AAl?$AAi?$AAd?$AA?5@
  0006a	68 00 00 00 00	 push	 OFFSET ??_C@_15GANGMFKL@?$AA?$CF?$AAs?$AA?$AA@
  0006f	6a 00		 push	 0
  00071	68 f1 00 00 00	 push	 241			; 000000f1H
  00076	68 00 00 00 00	 push	 OFFSET ??_C@_1IM@EINEHPHE@?$AAC?$AA?3?$AA?2?$AAP?$AAr?$AAo?$AAg?$AAr?$AAa?$AAm?$AA?5?$AAF?$AAi?$AAl?$AAe?$AAs?$AA?5?$AA?$CI?$AAx?$AA8?$AA6?$AA?$CJ?$AA?2?$AAM?$AAi?$AAc?$AAr?$AAo?$AAs?$AAo?$AAf?$AAt@
  0007b	6a 02		 push	 2
  0007d	ff 15 00 00 00
	00		 call	 DWORD PTR __imp___CrtDbgReportW
  00083	83 c4 18	 add	 esp, 24			; 00000018H
  00086	3b f4		 cmp	 esi, esp
  00088	e8 00 00 00 00	 call	 __RTC_CheckEsp
  0008d	83 f8 01	 cmp	 eax, 1
  00090	75 01		 jne	 SHORT $LN6@Compat
  00092	cc		 int	 3
$LN6@Compat:
  00093	8b f4		 mov	 esi, esp
  00095	6a 00		 push	 0
  00097	68 f1 00 00 00	 push	 241			; 000000f1H
  0009c	68 00 00 00 00	 push	 OFFSET ??_C@_1IM@EINEHPHE@?$AAC?$AA?3?$AA?2?$AAP?$AAr?$AAo?$AAg?$AAr?$AAa?$AAm?$AA?5?$AAF?$AAi?$AAl?$AAe?$AAs?$AA?5?$AA?$CI?$AAx?$AA8?$AA6?$AA?$CJ?$AA?2?$AAM?$AAi?$AAc?$AAr?$AAo?$AAs?$AAo?$AAf?$AAt@
  000a1	68 00 00 00 00	 push	 OFFSET ??_C@_1OI@HHLPKFIO@?$AAs?$AAt?$AAd?$AA?3?$AA?3?$AA_?$AAV?$AAe?$AAc?$AAt?$AAo?$AAr?$AA_?$AAc?$AAo?$AAn?$AAs?$AAt?$AA_?$AAi?$AAt?$AAe?$AAr?$AAa?$AAt?$AAo?$AAr?$AA?$DM?$AAc?$AAl?$AAa?$AAs@
  000a6	68 00 00 00 00	 push	 OFFSET ??_C@_1CG@JNLFBNGN@?$AA?$CC?$AAi?$AAn?$AAv?$AAa?$AAl?$AAi?$AAd?$AA?5?$AAa?$AAr?$AAg?$AAu?$AAm?$AAe?$AAn?$AAt?$AA?$CC?$AA?$AA@
  000ab	ff 15 00 00 00
	00		 call	 DWORD PTR __imp___invalid_parameter
  000b1	83 c4 14	 add	 esp, 20			; 00000014H
  000b4	3b f4		 cmp	 esi, esp
  000b6	e8 00 00 00 00	 call	 __RTC_CheckEsp
$LN3@Compat:
; Line 243
  000bb	5e		 pop	 esi
  000bc	83 c4 04	 add	 esp, 4
  000bf	3b ec		 cmp	 ebp, esp
  000c1	e8 00 00 00 00	 call	 __RTC_CheckEsp
  000c6	8b e5		 mov	 esp, ebp
  000c8	5d		 pop	 ebp
  000c9	c2 04 00	 ret	 4
?_Compat@?$_Vector_const_iterator@V?$_Vector_val@U?$_Simple_types@UDXUTCache_Texture@@@std@@@std@@@std@@QBEXABV12@@Z ENDP ; std::_Vector_const_iterator<std::_Vector_val<std::_Simple_types<DXUTCache_Texture> > >::_Compat
_TEXT	ENDS
; Function compile flags: /Odtp /RTCsu
;	COMDAT ??9?$_Vector_const_iterator@V?$_Vector_val@U?$_Simple_types@UDXUTCache_Texture@@@std@@@std@@@std@@QBE_NABV01@@Z
_TEXT	SEGMENT
tv69 = -8						; size = 4
_this$ = -4						; size = 4
__Right$ = 8						; size = 4
??9?$_Vector_const_iterator@V?$_Vector_val@U?$_Simple_types@UDXUTCache_Texture@@@std@@@std@@@std@@QBE_NABV01@@Z PROC ; std::_Vector_const_iterator<std::_Vector_val<std::_Simple_types<DXUTCache_Texture> > >::operator!=, COMDAT
; _this$ = ecx
; File c:\program files (x86)\microsoft visual studio 12.0\vc\include\vector
; Line 209
  00000	55		 push	 ebp
  00001	8b ec		 mov	 ebp, esp
  00003	83 ec 08	 sub	 esp, 8
  00006	c7 45 f8 cc cc
	cc cc		 mov	 DWORD PTR [ebp-8], -858993460 ; ccccccccH
  0000d	c7 45 fc cc cc
	cc cc		 mov	 DWORD PTR [ebp-4], -858993460 ; ccccccccH
  00014	89 4d fc	 mov	 DWORD PTR _this$[ebp], ecx
; Line 210
  00017	8b 45 08	 mov	 eax, DWORD PTR __Right$[ebp]
  0001a	50		 push	 eax
  0001b	8b 4d fc	 mov	 ecx, DWORD PTR _this$[ebp]
  0001e	e8 00 00 00 00	 call	 ??8?$_Vector_const_iterator@V?$_Vector_val@U?$_Simple_types@UDXUTCache_Texture@@@std@@@std@@@std@@QBE_NABV01@@Z ; std::_Vector_const_iterator<std::_Vector_val<std::_Simple_types<DXUTCache_Texture> > >::operator==
  00023	0f b6 c8	 movzx	 ecx, al
  00026	85 c9		 test	 ecx, ecx
  00028	75 09		 jne	 SHORT $LN3@operator
  0002a	c7 45 f8 01 00
	00 00		 mov	 DWORD PTR tv69[ebp], 1
  00031	eb 07		 jmp	 SHORT $LN4@operator
$LN3@operator:
  00033	c7 45 f8 00 00
	00 00		 mov	 DWORD PTR tv69[ebp], 0
$LN4@operator:
  0003a	8a 45 f8	 mov	 al, BYTE PTR tv69[ebp]
; Line 211
  0003d	83 c4 08	 add	 esp, 8
  00040	3b ec		 cmp	 ebp, esp
  00042	e8 00 00 00 00	 call	 __RTC_CheckEsp
  00047	8b e5		 mov	 esp, ebp
  00049	5d		 pop	 ebp
  0004a	c2 04 00	 ret	 4
??9?$_Vector_const_iterator@V?$_Vector_val@U?$_Simple_types@UDXUTCache_Texture@@@std@@@std@@@std@@QBE_NABV01@@Z ENDP ; std::_Vector_const_iterator<std::_Vector_val<std::_Simple_types<DXUTCache_Texture> > >::operator!=
_TEXT	ENDS
; Function compile flags: /Odtp /RTCsu
;	COMDAT ??8?$_Vector_const_iterator@V?$_Vector_val@U?$_Simple_types@UDXUTCache_Texture@@@std@@@std@@@std@@QBE_NABV01@@Z
_TEXT	SEGMENT
tv69 = -8						; size = 4
_this$ = -4						; size = 4
__Right$ = 8						; size = 4
??8?$_Vector_const_iterator@V?$_Vector_val@U?$_Simple_types@UDXUTCache_Texture@@@std@@@std@@@std@@QBE_NABV01@@Z PROC ; std::_Vector_const_iterator<std::_Vector_val<std::_Simple_types<DXUTCache_Texture> > >::operator==, COMDAT
; _this$ = ecx
; File c:\program files (x86)\microsoft visual studio 12.0\vc\include\vector
; Line 203
  00000	55		 push	 ebp
  00001	8b ec		 mov	 ebp, esp
  00003	83 ec 08	 sub	 esp, 8
  00006	c7 45 f8 cc cc
	cc cc		 mov	 DWORD PTR [ebp-8], -858993460 ; ccccccccH
  0000d	c7 45 fc cc cc
	cc cc		 mov	 DWORD PTR [ebp-4], -858993460 ; ccccccccH
  00014	89 4d fc	 mov	 DWORD PTR _this$[ebp], ecx
; Line 204
  00017	8b 45 08	 mov	 eax, DWORD PTR __Right$[ebp]
  0001a	50		 push	 eax
  0001b	8b 4d fc	 mov	 ecx, DWORD PTR _this$[ebp]
  0001e	e8 00 00 00 00	 call	 ?_Compat@?$_Vector_const_iterator@V?$_Vector_val@U?$_Simple_types@UDXUTCache_Texture@@@std@@@std@@@std@@QBEXABV12@@Z ; std::_Vector_const_iterator<std::_Vector_val<std::_Simple_types<DXUTCache_Texture> > >::_Compat
; Line 205
  00023	8b 4d fc	 mov	 ecx, DWORD PTR _this$[ebp]
  00026	8b 55 08	 mov	 edx, DWORD PTR __Right$[ebp]
  00029	8b 41 08	 mov	 eax, DWORD PTR [ecx+8]
  0002c	3b 42 08	 cmp	 eax, DWORD PTR [edx+8]
  0002f	75 09		 jne	 SHORT $LN3@operator
  00031	c7 45 f8 01 00
	00 00		 mov	 DWORD PTR tv69[ebp], 1
  00038	eb 07		 jmp	 SHORT $LN4@operator
$LN3@operator:
  0003a	c7 45 f8 00 00
	00 00		 mov	 DWORD PTR tv69[ebp], 0
$LN4@operator:
  00041	8a 45 f8	 mov	 al, BYTE PTR tv69[ebp]
; Line 206
  00044	83 c4 08	 add	 esp, 8
  00047	3b ec		 cmp	 ebp, esp
  00049	e8 00 00 00 00	 call	 __RTC_CheckEsp
  0004e	8b e5		 mov	 esp, ebp
  00050	5d		 pop	 ebp
  00051	c2 04 00	 ret	 4
??8?$_Vector_const_iterator@V?$_Vector_val@U?$_Simple_types@UDXUTCache_Texture@@@std@@@std@@@std@@QBE_NABV01@@Z ENDP ; std::_Vector_const_iterator<std::_Vector_val<std::_Simple_types<DXUTCache_Texture> > >::operator==
_TEXT	ENDS
; Function compile flags: /Odtp /RTCsu
;	COMDAT ??E?$_Vector_const_iterator@V?$_Vector_val@U?$_Simple_types@UDXUTCache_Texture@@@std@@@std@@@std@@QAEAAV01@XZ
_TEXT	SEGMENT
_this$ = -4						; size = 4
??E?$_Vector_const_iterator@V?$_Vector_val@U?$_Simple_types@UDXUTCache_Texture@@@std@@@std@@@std@@QAEAAV01@XZ PROC ; std::_Vector_const_iterator<std::_Vector_val<std::_Simple_types<DXUTCache_Texture> > >::operator++, COMDAT
; _this$ = ecx
; File c:\program files (x86)\microsoft visual studio 12.0\vc\include\vector
; Line 95
  00000	55		 push	 ebp
  00001	8b ec		 mov	 ebp, esp
  00003	51		 push	 ecx
  00004	56		 push	 esi
  00005	c7 45 fc cc cc
	cc cc		 mov	 DWORD PTR [ebp-4], -858993460 ; ccccccccH
  0000c	89 4d fc	 mov	 DWORD PTR _this$[ebp], ecx
; Line 99
  0000f	8b 4d fc	 mov	 ecx, DWORD PTR _this$[ebp]
  00012	e8 00 00 00 00	 call	 ?_Getcont@_Iterator_base12@std@@QBEPBU_Container_base12@2@XZ ; std::_Iterator_base12::_Getcont
  00017	85 c0		 test	 eax, eax
  00019	74 1c		 je	 SHORT $LN1@operator
  0001b	8b 45 fc	 mov	 eax, DWORD PTR _this$[ebp]
  0001e	83 78 08 00	 cmp	 DWORD PTR [eax+8], 0
  00022	74 13		 je	 SHORT $LN1@operator
  00024	8b 4d fc	 mov	 ecx, DWORD PTR _this$[ebp]
  00027	e8 00 00 00 00	 call	 ?_Getcont@_Iterator_base12@std@@QBEPBU_Container_base12@2@XZ ; std::_Iterator_base12::_Getcont
  0002c	8b 4d fc	 mov	 ecx, DWORD PTR _this$[ebp]
  0002f	8b 50 08	 mov	 edx, DWORD PTR [eax+8]
  00032	3b 51 08	 cmp	 edx, DWORD PTR [ecx+8]
  00035	77 7d		 ja	 SHORT $LN2@operator
$LN1@operator:
; Line 101
  00037	8b f4		 mov	 esi, esp
  00039	6a 65		 push	 101			; 00000065H
  0003b	68 00 00 00 00	 push	 OFFSET ??_C@_1IM@EINEHPHE@?$AAC?$AA?3?$AA?2?$AAP?$AAr?$AAo?$AAg?$AAr?$AAa?$AAm?$AA?5?$AAF?$AAi?$AAl?$AAe?$AAs?$AA?5?$AA?$CI?$AAx?$AA8?$AA6?$AA?$CJ?$AA?2?$AAM?$AAi?$AAc?$AAr?$AAo?$AAs?$AAo?$AAf?$AAt@
  00040	68 00 00 00 00	 push	 OFFSET ??_C@_1EE@EJDKCLKB@?$AAv?$AAe?$AAc?$AAt?$AAo?$AAr?$AA?5?$AAi?$AAt?$AAe?$AAr?$AAa?$AAt?$AAo?$AAr?$AA?5?$AAn?$AAo?$AAt?$AA?5?$AAi?$AAn?$AAc?$AAr?$AAe?$AAm?$AAe?$AAn?$AAt?$AAa?$AAb?$AAl@
  00045	ff 15 00 00 00
	00		 call	 DWORD PTR __imp_?_Debug_message@std@@YAXPB_W0I@Z
  0004b	83 c4 0c	 add	 esp, 12			; 0000000cH
  0004e	3b f4		 cmp	 esi, esp
  00050	e8 00 00 00 00	 call	 __RTC_CheckEsp
; Line 102
  00055	b8 00 00 00 00	 mov	 eax, OFFSET ??_C@_0CE@OFMIGAMM@Standard?5C?$CL?$CL?5Libraries?5Out?5of?5Ra@
  0005a	85 c0		 test	 eax, eax
  0005c	74 04		 je	 SHORT $LN5@operator
  0005e	33 c9		 xor	 ecx, ecx
  00060	75 2d		 jne	 SHORT $LN6@operator
$LN5@operator:
  00062	8b f4		 mov	 esi, esp
  00064	68 00 00 00 00	 push	 OFFSET ??_C@_1FG@IBPIFFN@?$AA?$CC?$AAS?$AAt?$AAa?$AAn?$AAd?$AAa?$AAr?$AAd?$AA?5?$AAC?$AA?$CL?$AA?$CL?$AA?5?$AAL?$AAi?$AAb?$AAr?$AAa?$AAr?$AAi?$AAe?$AAs?$AA?5?$AAO?$AAu?$AAt?$AA?5?$AAo?$AAf?$AA?5?$AAR@
  00069	68 00 00 00 00	 push	 OFFSET ??_C@_15GANGMFKL@?$AA?$CF?$AAs?$AA?$AA@
  0006e	6a 00		 push	 0
  00070	6a 66		 push	 102			; 00000066H
  00072	68 00 00 00 00	 push	 OFFSET ??_C@_1IM@EINEHPHE@?$AAC?$AA?3?$AA?2?$AAP?$AAr?$AAo?$AAg?$AAr?$AAa?$AAm?$AA?5?$AAF?$AAi?$AAl?$AAe?$AAs?$AA?5?$AA?$CI?$AAx?$AA8?$AA6?$AA?$CJ?$AA?2?$AAM?$AAi?$AAc?$AAr?$AAo?$AAs?$AAo?$AAf?$AAt@
  00077	6a 02		 push	 2
  00079	ff 15 00 00 00
	00		 call	 DWORD PTR __imp___CrtDbgReportW
  0007f	83 c4 18	 add	 esp, 24			; 00000018H
  00082	3b f4		 cmp	 esi, esp
  00084	e8 00 00 00 00	 call	 __RTC_CheckEsp
  00089	83 f8 01	 cmp	 eax, 1
  0008c	75 01		 jne	 SHORT $LN6@operator
  0008e	cc		 int	 3
$LN6@operator:
  0008f	8b f4		 mov	 esi, esp
  00091	6a 00		 push	 0
  00093	6a 66		 push	 102			; 00000066H
  00095	68 00 00 00 00	 push	 OFFSET ??_C@_1IM@EINEHPHE@?$AAC?$AA?3?$AA?2?$AAP?$AAr?$AAo?$AAg?$AAr?$AAa?$AAm?$AA?5?$AAF?$AAi?$AAl?$AAe?$AAs?$AA?5?$AA?$CI?$AAx?$AA8?$AA6?$AA?$CJ?$AA?2?$AAM?$AAi?$AAc?$AAr?$AAo?$AAs?$AAo?$AAf?$AAt@
  0009a	68 00 00 00 00	 push	 OFFSET ??_C@_1PA@CDGOAEFA@?$AAs?$AAt?$AAd?$AA?3?$AA?3?$AA_?$AAV?$AAe?$AAc?$AAt?$AAo?$AAr?$AA_?$AAc?$AAo?$AAn?$AAs?$AAt?$AA_?$AAi?$AAt?$AAe?$AAr?$AAa?$AAt?$AAo?$AAr?$AA?$DM?$AAc?$AAl?$AAa?$AAs@
  0009f	68 00 00 00 00	 push	 OFFSET ??_C@_1BO@MEPPHOO@?$AA?$CC?$AAo?$AAu?$AAt?$AA?5?$AAo?$AAf?$AA?5?$AAr?$AAa?$AAn?$AAg?$AAe?$AA?$CC?$AA?$AA@
  000a4	ff 15 00 00 00
	00		 call	 DWORD PTR __imp___invalid_parameter
  000aa	83 c4 14	 add	 esp, 20			; 00000014H
  000ad	3b f4		 cmp	 esi, esp
  000af	e8 00 00 00 00	 call	 __RTC_CheckEsp
$LN2@operator:
; Line 112
  000b4	8b 45 fc	 mov	 eax, DWORD PTR _this$[ebp]
  000b7	8b 48 08	 mov	 ecx, DWORD PTR [eax+8]
  000ba	81 c1 10 02 00
	00		 add	 ecx, 528		; 00000210H
  000c0	8b 55 fc	 mov	 edx, DWORD PTR _this$[ebp]
  000c3	89 4a 08	 mov	 DWORD PTR [edx+8], ecx
; Line 113
  000c6	8b 45 fc	 mov	 eax, DWORD PTR _this$[ebp]
; Line 114
  000c9	5e		 pop	 esi
  000ca	83 c4 04	 add	 esp, 4
  000cd	3b ec		 cmp	 ebp, esp
  000cf	e8 00 00 00 00	 call	 __RTC_CheckEsp
  000d4	8b e5		 mov	 esp, ebp
  000d6	5d		 pop	 ebp
  000d7	c3		 ret	 0
??E?$_Vector_const_iterator@V?$_Vector_val@U?$_Simple_types@UDXUTCache_Texture@@@std@@@std@@@std@@QAEAAV01@XZ ENDP ; std::_Vector_const_iterator<std::_Vector_val<std::_Simple_types<DXUTCache_Texture> > >::operator++
_TEXT	ENDS
; Function compile flags: /Odtp /RTCsu
;	COMDAT ??C?$_Vector_const_iterator@V?$_Vector_val@U?$_Simple_types@UDXUTCache_Texture@@@std@@@std@@@std@@QBEPBUDXUTCache_Texture@@XZ
_TEXT	SEGMENT
_this$ = -4						; size = 4
??C?$_Vector_const_iterator@V?$_Vector_val@U?$_Simple_types@UDXUTCache_Texture@@@std@@@std@@@std@@QBEPBUDXUTCache_Texture@@XZ PROC ; std::_Vector_const_iterator<std::_Vector_val<std::_Simple_types<DXUTCache_Texture> > >::operator->, COMDAT
; _this$ = ecx
; File c:\program files (x86)\microsoft visual studio 12.0\vc\include\vector
; Line 90
  00000	55		 push	 ebp
  00001	8b ec		 mov	 ebp, esp
  00003	51		 push	 ecx
  00004	c7 45 fc cc cc
	cc cc		 mov	 DWORD PTR [ebp-4], -858993460 ; ccccccccH
  0000b	89 4d fc	 mov	 DWORD PTR _this$[ebp], ecx
; Line 91
  0000e	8b 4d fc	 mov	 ecx, DWORD PTR _this$[ebp]
  00011	e8 00 00 00 00	 call	 ??D?$_Vector_const_iterator@V?$_Vector_val@U?$_Simple_types@UDXUTCache_Texture@@@std@@@std@@@std@@QBEABUDXUTCache_Texture@@XZ ; std::_Vector_const_iterator<std::_Vector_val<std::_Simple_types<DXUTCache_Texture> > >::operator*
  00016	50		 push	 eax
  00017	e8 00 00 00 00	 call	 ?pointer_to@?$pointer_traits@PBUDXUTCache_Texture@@@std@@SAPBUDXUTCache_Texture@@ABU3@@Z ; std::pointer_traits<DXUTCache_Texture const *>::pointer_to
  0001c	83 c4 04	 add	 esp, 4
; Line 92
  0001f	83 c4 04	 add	 esp, 4
  00022	3b ec		 cmp	 ebp, esp
  00024	e8 00 00 00 00	 call	 __RTC_CheckEsp
  00029	8b e5		 mov	 esp, ebp
  0002b	5d		 pop	 ebp
  0002c	c3		 ret	 0
??C?$_Vector_const_iterator@V?$_Vector_val@U?$_Simple_types@UDXUTCache_Texture@@@std@@@std@@@std@@QBEPBUDXUTCache_Texture@@XZ ENDP ; std::_Vector_const_iterator<std::_Vector_val<std::_Simple_types<DXUTCache_Texture> > >::operator->
_TEXT	ENDS
; Function compile flags: /Odtp /RTCsu
;	COMDAT ??D?$_Vector_const_iterator@V?$_Vector_val@U?$_Simple_types@UDXUTCache_Texture@@@std@@@std@@@std@@QBEABUDXUTCache_Texture@@XZ
_TEXT	SEGMENT
_this$ = -4						; size = 4
??D?$_Vector_const_iterator@V?$_Vector_val@U?$_Simple_types@UDXUTCache_Texture@@@std@@@std@@@std@@QBEABUDXUTCache_Texture@@XZ PROC ; std::_Vector_const_iterator<std::_Vector_val<std::_Simple_types<DXUTCache_Texture> > >::operator*, COMDAT
; _this$ = ecx
; File c:\program files (x86)\microsoft visual studio 12.0\vc\include\vector
; Line 65
  00000	55		 push	 ebp
  00001	8b ec		 mov	 ebp, esp
  00003	51		 push	 ecx
  00004	56		 push	 esi
  00005	c7 45 fc cc cc
	cc cc		 mov	 DWORD PTR [ebp-4], -858993460 ; ccccccccH
  0000c	89 4d fc	 mov	 DWORD PTR _this$[ebp], ecx
; Line 70
  0000f	8b 4d fc	 mov	 ecx, DWORD PTR _this$[ebp]
  00012	e8 00 00 00 00	 call	 ?_Getcont@_Iterator_base12@std@@QBEPBU_Container_base12@2@XZ ; std::_Iterator_base12::_Getcont
  00017	85 c0		 test	 eax, eax
  00019	74 2f		 je	 SHORT $LN1@operator
  0001b	8b 45 fc	 mov	 eax, DWORD PTR _this$[ebp]
  0001e	83 78 08 00	 cmp	 DWORD PTR [eax+8], 0
  00022	74 26		 je	 SHORT $LN1@operator
  00024	8b 4d fc	 mov	 ecx, DWORD PTR _this$[ebp]
  00027	e8 00 00 00 00	 call	 ?_Getcont@_Iterator_base12@std@@QBEPBU_Container_base12@2@XZ ; std::_Iterator_base12::_Getcont
  0002c	8b 4d fc	 mov	 ecx, DWORD PTR _this$[ebp]
  0002f	8b 51 08	 mov	 edx, DWORD PTR [ecx+8]
  00032	3b 50 04	 cmp	 edx, DWORD PTR [eax+4]
  00035	72 13		 jb	 SHORT $LN1@operator
  00037	8b 4d fc	 mov	 ecx, DWORD PTR _this$[ebp]
  0003a	e8 00 00 00 00	 call	 ?_Getcont@_Iterator_base12@std@@QBEPBU_Container_base12@2@XZ ; std::_Iterator_base12::_Getcont
  0003f	8b 4d fc	 mov	 ecx, DWORD PTR _this$[ebp]
  00042	8b 50 08	 mov	 edx, DWORD PTR [eax+8]
  00045	3b 51 08	 cmp	 edx, DWORD PTR [ecx+8]
  00048	77 7d		 ja	 SHORT $LN2@operator
$LN1@operator:
; Line 72
  0004a	8b f4		 mov	 esi, esp
  0004c	6a 48		 push	 72			; 00000048H
  0004e	68 00 00 00 00	 push	 OFFSET ??_C@_1IM@EINEHPHE@?$AAC?$AA?3?$AA?2?$AAP?$AAr?$AAo?$AAg?$AAr?$AAa?$AAm?$AA?5?$AAF?$AAi?$AAl?$AAe?$AAs?$AA?5?$AA?$CI?$AAx?$AA8?$AA6?$AA?$CJ?$AA?2?$AAM?$AAi?$AAc?$AAr?$AAo?$AAs?$AAo?$AAf?$AAt@
  00053	68 00 00 00 00	 push	 OFFSET ??_C@_1EG@FOHJJHAC@?$AAv?$AAe?$AAc?$AAt?$AAo?$AAr?$AA?5?$AAi?$AAt?$AAe?$AAr?$AAa?$AAt?$AAo?$AAr?$AA?5?$AAn?$AAo?$AAt?$AA?5?$AAd?$AAe?$AAr?$AAe?$AAf?$AAe?$AAr?$AAe?$AAn?$AAc?$AAa?$AAb@
  00058	ff 15 00 00 00
	00		 call	 DWORD PTR __imp_?_Debug_message@std@@YAXPB_W0I@Z
  0005e	83 c4 0c	 add	 esp, 12			; 0000000cH
  00061	3b f4		 cmp	 esi, esp
  00063	e8 00 00 00 00	 call	 __RTC_CheckEsp
; Line 73
  00068	b8 00 00 00 00	 mov	 eax, OFFSET ??_C@_0CE@OFMIGAMM@Standard?5C?$CL?$CL?5Libraries?5Out?5of?5Ra@
  0006d	85 c0		 test	 eax, eax
  0006f	74 04		 je	 SHORT $LN5@operator
  00071	33 c9		 xor	 ecx, ecx
  00073	75 2d		 jne	 SHORT $LN6@operator
$LN5@operator:
  00075	8b f4		 mov	 esi, esp
  00077	68 00 00 00 00	 push	 OFFSET ??_C@_1FG@IBPIFFN@?$AA?$CC?$AAS?$AAt?$AAa?$AAn?$AAd?$AAa?$AAr?$AAd?$AA?5?$AAC?$AA?$CL?$AA?$CL?$AA?5?$AAL?$AAi?$AAb?$AAr?$AAa?$AAr?$AAi?$AAe?$AAs?$AA?5?$AAO?$AAu?$AAt?$AA?5?$AAo?$AAf?$AA?5?$AAR@
  0007c	68 00 00 00 00	 push	 OFFSET ??_C@_15GANGMFKL@?$AA?$CF?$AAs?$AA?$AA@
  00081	6a 00		 push	 0
  00083	6a 49		 push	 73			; 00000049H
  00085	68 00 00 00 00	 push	 OFFSET ??_C@_1IM@EINEHPHE@?$AAC?$AA?3?$AA?2?$AAP?$AAr?$AAo?$AAg?$AAr?$AAa?$AAm?$AA?5?$AAF?$AAi?$AAl?$AAe?$AAs?$AA?5?$AA?$CI?$AAx?$AA8?$AA6?$AA?$CJ?$AA?2?$AAM?$AAi?$AAc?$AAr?$AAo?$AAs?$AAo?$AAf?$AAt@
  0008a	6a 02		 push	 2
  0008c	ff 15 00 00 00
	00		 call	 DWORD PTR __imp___CrtDbgReportW
  00092	83 c4 18	 add	 esp, 24			; 00000018H
  00095	3b f4		 cmp	 esi, esp
  00097	e8 00 00 00 00	 call	 __RTC_CheckEsp
  0009c	83 f8 01	 cmp	 eax, 1
  0009f	75 01		 jne	 SHORT $LN6@operator
  000a1	cc		 int	 3
$LN6@operator:
  000a2	8b f4		 mov	 esi, esp
  000a4	6a 00		 push	 0
  000a6	6a 49		 push	 73			; 00000049H
  000a8	68 00 00 00 00	 push	 OFFSET ??_C@_1IM@EINEHPHE@?$AAC?$AA?3?$AA?2?$AAP?$AAr?$AAo?$AAg?$AAr?$AAa?$AAm?$AA?5?$AAF?$AAi?$AAl?$AAe?$AAs?$AA?5?$AA?$CI?$AAx?$AA8?$AA6?$AA?$CJ?$AA?2?$AAM?$AAi?$AAc?$AAr?$AAo?$AAs?$AAo?$AAf?$AAt@
  000ad	68 00 00 00 00	 push	 OFFSET ??_C@_1OO@BAHPFGHC@?$AAs?$AAt?$AAd?$AA?3?$AA?3?$AA_?$AAV?$AAe?$AAc?$AAt?$AAo?$AAr?$AA_?$AAc?$AAo?$AAn?$AAs?$AAt?$AA_?$AAi?$AAt?$AAe?$AAr?$AAa?$AAt?$AAo?$AAr?$AA?$DM?$AAc?$AAl?$AAa?$AAs@
  000b2	68 00 00 00 00	 push	 OFFSET ??_C@_1BO@MEPPHOO@?$AA?$CC?$AAo?$AAu?$AAt?$AA?5?$AAo?$AAf?$AA?5?$AAr?$AAa?$AAn?$AAg?$AAe?$AA?$CC?$AA?$AA@
  000b7	ff 15 00 00 00
	00		 call	 DWORD PTR __imp___invalid_parameter
  000bd	83 c4 14	 add	 esp, 20			; 00000014H
  000c0	3b f4		 cmp	 esi, esp
  000c2	e8 00 00 00 00	 call	 __RTC_CheckEsp
$LN2@operator:
; Line 86
  000c7	8b 45 fc	 mov	 eax, DWORD PTR _this$[ebp]
  000ca	8b 40 08	 mov	 eax, DWORD PTR [eax+8]
; Line 87
  000cd	5e		 pop	 esi
  000ce	83 c4 04	 add	 esp, 4
  000d1	3b ec		 cmp	 ebp, esp
  000d3	e8 00 00 00 00	 call	 __RTC_CheckEsp
  000d8	8b e5		 mov	 esp, ebp
  000da	5d		 pop	 ebp
  000db	c3		 ret	 0
??D?$_Vector_const_iterator@V?$_Vector_val@U?$_Simple_types@UDXUTCache_Texture@@@std@@@std@@@std@@QBEABUDXUTCache_Texture@@XZ ENDP ; std::_Vector_const_iterator<std::_Vector_val<std::_Simple_types<DXUTCache_Texture> > >::operator*
_TEXT	ENDS
; Function compile flags: /Odtp /RTCsu
;	COMDAT ??0?$_Vector_const_iterator@V?$_Vector_val@U?$_Simple_types@UDXUTCache_Texture@@@std@@@std@@@std@@QAE@PAUDXUTCache_Texture@@PBU_Container_base12@1@@Z
_TEXT	SEGMENT
_this$ = -16						; size = 4
__$EHRec$ = -12						; size = 12
__Parg$ = 8						; size = 4
__Pvector$ = 12						; size = 4
??0?$_Vector_const_iterator@V?$_Vector_val@U?$_Simple_types@UDXUTCache_Texture@@@std@@@std@@@std@@QAE@PAUDXUTCache_Texture@@PBU_Container_base12@1@@Z PROC ; std::_Vector_const_iterator<std::_Vector_val<std::_Simple_types<DXUTCache_Texture> > >::_Vector_const_iterator<std::_Vector_val<std::_Simple_types<DXUTCache_Texture> > >, COMDAT
; _this$ = ecx
; File c:\program files (x86)\microsoft visual studio 12.0\vc\include\vector
; Line 47
  00000	55		 push	 ebp
  00001	8b ec		 mov	 ebp, esp
  00003	6a ff		 push	 -1
  00005	68 00 00 00 00	 push	 __ehhandler$??0?$_Vector_const_iterator@V?$_Vector_val@U?$_Simple_types@UDXUTCache_Texture@@@std@@@std@@@std@@QAE@PAUDXUTCache_Texture@@PBU_Container_base12@1@@Z
  0000a	64 a1 00 00 00
	00		 mov	 eax, DWORD PTR fs:0
  00010	50		 push	 eax
  00011	51		 push	 ecx
  00012	c7 45 f0 cc cc
	cc cc		 mov	 DWORD PTR [ebp-16], -858993460 ; ccccccccH
  00019	a1 00 00 00 00	 mov	 eax, DWORD PTR ___security_cookie
  0001e	33 c5		 xor	 eax, ebp
  00020	50		 push	 eax
  00021	8d 45 f4	 lea	 eax, DWORD PTR __$EHRec$[ebp]
  00024	64 a3 00 00 00
	00		 mov	 DWORD PTR fs:0, eax
  0002a	89 4d f0	 mov	 DWORD PTR _this$[ebp], ecx
  0002d	8b 4d f0	 mov	 ecx, DWORD PTR _this$[ebp]
  00030	e8 00 00 00 00	 call	 ??0?$_Iterator012@Urandom_access_iterator_tag@std@@UDXUTCache_Texture@@HPBU3@ABU3@U_Iterator_base12@2@@std@@QAE@XZ
  00035	c7 45 fc 00 00
	00 00		 mov	 DWORD PTR __$EHRec$[ebp+8], 0
  0003c	8b 45 f0	 mov	 eax, DWORD PTR _this$[ebp]
  0003f	8b 4d 08	 mov	 ecx, DWORD PTR __Parg$[ebp]
  00042	89 48 08	 mov	 DWORD PTR [eax+8], ecx
; Line 48
  00045	8b 55 0c	 mov	 edx, DWORD PTR __Pvector$[ebp]
  00048	52		 push	 edx
  00049	8b 4d f0	 mov	 ecx, DWORD PTR _this$[ebp]
  0004c	e8 00 00 00 00	 call	 ?_Adopt@_Iterator_base12@std@@QAEXPBU_Container_base12@2@@Z ; std::_Iterator_base12::_Adopt
; Line 49
  00051	c7 45 fc ff ff
	ff ff		 mov	 DWORD PTR __$EHRec$[ebp+8], -1
  00058	8b 45 f0	 mov	 eax, DWORD PTR _this$[ebp]
  0005b	8b 4d f4	 mov	 ecx, DWORD PTR __$EHRec$[ebp]
  0005e	64 89 0d 00 00
	00 00		 mov	 DWORD PTR fs:0, ecx
  00065	59		 pop	 ecx
  00066	83 c4 10	 add	 esp, 16			; 00000010H
  00069	3b ec		 cmp	 ebp, esp
  0006b	e8 00 00 00 00	 call	 __RTC_CheckEsp
  00070	8b e5		 mov	 esp, ebp
  00072	5d		 pop	 ebp
  00073	c2 08 00	 ret	 8
_TEXT	ENDS
;	COMDAT text$x
text$x	SEGMENT
__unwindfunclet$??0?$_Vector_const_iterator@V?$_Vector_val@U?$_Simple_types@UDXUTCache_Texture@@@std@@@std@@@std@@QAE@PAUDXUTCache_Texture@@PBU_Container_base12@1@@Z$0:
  00000	8b 4d f0	 mov	 ecx, DWORD PTR _this$[ebp]
  00003	e9 00 00 00 00	 jmp	 ??1?$_Iterator012@Urandom_access_iterator_tag@std@@UDXUTCache_Texture@@HPBU3@ABU3@U_Iterator_base12@2@@std@@QAE@XZ
__ehhandler$??0?$_Vector_const_iterator@V?$_Vector_val@U?$_Simple_types@UDXUTCache_Texture@@@std@@@std@@@std@@QAE@PAUDXUTCache_Texture@@PBU_Container_base12@1@@Z:
  00008	8b 54 24 08	 mov	 edx, DWORD PTR [esp+8]
  0000c	8d 42 0c	 lea	 eax, DWORD PTR [edx+12]
  0000f	8b 4a f8	 mov	 ecx, DWORD PTR [edx-8]
  00012	33 c8		 xor	 ecx, eax
  00014	e8 00 00 00 00	 call	 @__security_check_cookie@4
  00019	b8 00 00 00 00	 mov	 eax, OFFSET __ehfuncinfo$??0?$_Vector_const_iterator@V?$_Vector_val@U?$_Simple_types@UDXUTCache_Texture@@@std@@@std@@@std@@QAE@PAUDXUTCache_Texture@@PBU_Container_base12@1@@Z
  0001e	e9 00 00 00 00	 jmp	 ___CxxFrameHandler3
text$x	ENDS
??0?$_Vector_const_iterator@V?$_Vector_val@U?$_Simple_types@UDXUTCache_Texture@@@std@@@std@@@std@@QAE@PAUDXUTCache_Texture@@PBU_Container_base12@1@@Z ENDP ; std::_Vector_const_iterator<std::_Vector_val<std::_Simple_types<DXUTCache_Texture> > >::_Vector_const_iterator<std::_Vector_val<std::_Simple_types<DXUTCache_Texture> > >
; Function compile flags: /Odtp /RTCsu
;	COMDAT ??1?$_Iterator012@Urandom_access_iterator_tag@std@@UDXUTCache_Texture@@HPBU3@ABU3@U_Iterator_base12@2@@std@@QAE@XZ
_TEXT	SEGMENT
_this$ = -4						; size = 4
??1?$_Iterator012@Urandom_access_iterator_tag@std@@UDXUTCache_Texture@@HPBU3@ABU3@U_Iterator_base12@2@@std@@QAE@XZ PROC ; std::_Iterator012<std::random_access_iterator_tag,DXUTCache_Texture,int,DXUTCache_Texture const *,DXUTCache_Texture const &,std::_Iterator_base12>::~_Iterator012<std::random_access_iterator_tag,DXUTCache_Texture,int,DXUTCache_Texture const *,DXUTCache_Texture const &,std::_Iterator_base12>, COMDAT
; _this$ = ecx
  00000	55		 push	 ebp
  00001	8b ec		 mov	 ebp, esp
  00003	51		 push	 ecx
  00004	c7 45 fc cc cc
	cc cc		 mov	 DWORD PTR [ebp-4], -858993460 ; ccccccccH
  0000b	89 4d fc	 mov	 DWORD PTR _this$[ebp], ecx
  0000e	8b 4d fc	 mov	 ecx, DWORD PTR _this$[ebp]
  00011	e8 00 00 00 00	 call	 ??1_Iterator_base12@std@@QAE@XZ ; std::_Iterator_base12::~_Iterator_base12
  00016	83 c4 04	 add	 esp, 4
  00019	3b ec		 cmp	 ebp, esp
  0001b	e8 00 00 00 00	 call	 __RTC_CheckEsp
  00020	8b e5		 mov	 esp, ebp
  00022	5d		 pop	 ebp
  00023	c3		 ret	 0
??1?$_Iterator012@Urandom_access_iterator_tag@std@@UDXUTCache_Texture@@HPBU3@ABU3@U_Iterator_base12@2@@std@@QAE@XZ ENDP ; std::_Iterator012<std::random_access_iterator_tag,DXUTCache_Texture,int,DXUTCache_Texture const *,DXUTCache_Texture const &,std::_Iterator_base12>::~_Iterator012<std::random_access_iterator_tag,DXUTCache_Texture,int,DXUTCache_Texture const *,DXUTCache_Texture const &,std::_Iterator_base12>
_TEXT	ENDS
; Function compile flags: /Odtp /RTCsu
;	COMDAT ??0?$_Iterator012@Urandom_access_iterator_tag@std@@UDXUTCache_Texture@@HPBU3@ABU3@U_Iterator_base12@2@@std@@QAE@XZ
_TEXT	SEGMENT
_this$ = -4						; size = 4
??0?$_Iterator012@Urandom_access_iterator_tag@std@@UDXUTCache_Texture@@HPBU3@ABU3@U_Iterator_base12@2@@std@@QAE@XZ PROC ; std::_Iterator012<std::random_access_iterator_tag,DXUTCache_Texture,int,DXUTCache_Texture const *,DXUTCache_Texture const &,std::_Iterator_base12>::_Iterator012<std::random_access_iterator_tag,DXUTCache_Texture,int,DXUTCache_Texture const *,DXUTCache_Texture const &,std::_Iterator_base12>, COMDAT
; _this$ = ecx
  00000	55		 push	 ebp
  00001	8b ec		 mov	 ebp, esp
  00003	51		 push	 ecx
  00004	c7 45 fc cc cc
	cc cc		 mov	 DWORD PTR [ebp-4], -858993460 ; ccccccccH
  0000b	89 4d fc	 mov	 DWORD PTR _this$[ebp], ecx
  0000e	8b 4d fc	 mov	 ecx, DWORD PTR _this$[ebp]
  00011	e8 00 00 00 00	 call	 ??0_Iterator_base12@std@@QAE@XZ ; std::_Iterator_base12::_Iterator_base12
  00016	8b 45 fc	 mov	 eax, DWORD PTR _this$[ebp]
  00019	83 c4 04	 add	 esp, 4
  0001c	3b ec		 cmp	 ebp, esp
  0001e	e8 00 00 00 00	 call	 __RTC_CheckEsp
  00023	8b e5		 mov	 esp, ebp
  00025	5d		 pop	 ebp
  00026	c3		 ret	 0
??0?$_Iterator012@Urandom_access_iterator_tag@std@@UDXUTCache_Texture@@HPBU3@ABU3@U_Iterator_base12@2@@std@@QAE@XZ ENDP ; std::_Iterator012<std::random_access_iterator_tag,DXUTCache_Texture,int,DXUTCache_Texture const *,DXUTCache_Texture const &,std::_Iterator_base12>::_Iterator012<std::random_access_iterator_tag,DXUTCache_Texture,int,DXUTCache_Texture const *,DXUTCache_Texture const &,std::_Iterator_base12>
_TEXT	ENDS
; Function compile flags: /Odtp /RTCsu
_TEXT	SEGMENT
?DXUTMediaSearchPath@@YAPA_WXZ PROC			; DXUTMediaSearchPath
; File d:\engine class\assignment 1\new scratch\dxut\optional\sdkmisc.cpp
; Line 208
  00000	55		 push	 ebp
  00001	8b ec		 mov	 ebp, esp
; Line 213
  00003	b8 00 00 00 00	 mov	 eax, OFFSET ?s_strMediaSearchPath@?1??DXUTMediaSearchPath@@YAPA_WXZ@4PA_WA
; Line 215
  00008	5d		 pop	 ebp
  00009	c3		 ret	 0
?DXUTMediaSearchPath@@YAPA_WXZ ENDP			; DXUTMediaSearchPath
_TEXT	ENDS
; Function compile flags: /Odtp /RTCsu
_TEXT	SEGMENT
tv161 = -1060						; size = 4
tv154 = -1056						; size = 4
tv144 = -1052						; size = 4
tv136 = -1048						; size = 4
tv130 = -1044						; size = 4
tv64 = -1040						; size = 4
_sz$1 = -1032						; size = 1024
__$ArrayPad$ = -4					; size = 4
_hDlg$ = 8						; size = 4
_message$ = 12						; size = 4
_wParam$ = 16						; size = 4
_lParam$ = 20						; size = 4
?DisplaySwitchToREFWarningProc@@YGHPAUHWND__@@IIJ@Z PROC ; DisplaySwitchToREFWarningProc
; File d:\engine class\assignment 1\new scratch\dxut\optional\sdkmisc.cpp
; Line 165
  00000	55		 push	 ebp
  00001	8b ec		 mov	 ebp, esp
  00003	81 ec 24 04 00
	00		 sub	 esp, 1060		; 00000424H
  00009	56		 push	 esi
  0000a	57		 push	 edi
  0000b	8d bd dc fb ff
	ff		 lea	 edi, DWORD PTR [ebp-1060]
  00011	b9 09 01 00 00	 mov	 ecx, 265		; 00000109H
  00016	b8 cc cc cc cc	 mov	 eax, -858993460		; ccccccccH
  0001b	f3 ab		 rep stosd
  0001d	a1 00 00 00 00	 mov	 eax, DWORD PTR ___security_cookie
  00022	33 c5		 xor	 eax, ebp
  00024	89 45 fc	 mov	 DWORD PTR __$ArrayPad$[ebp], eax
; Line 166
  00027	8b 45 0c	 mov	 eax, DWORD PTR _message$[ebp]
  0002a	89 85 f0 fb ff
	ff		 mov	 DWORD PTR tv64[ebp], eax
  00030	81 bd f0 fb ff
	ff 10 01 00 00	 cmp	 DWORD PTR tv64[ebp], 272 ; 00000110H
  0003a	74 15		 je	 SHORT $LN7@DisplaySwi
  0003c	81 bd f0 fb ff
	ff 11 01 00 00	 cmp	 DWORD PTR tv64[ebp], 273 ; 00000111H
  00046	0f 84 01 01 00
	00		 je	 $LN6@DisplaySwi
  0004c	e9 86 02 00 00	 jmp	 $LN8@DisplaySwi
$LN7@DisplaySwi:
; Line 170
  00051	e8 00 00 00 00	 call	 ?DXUTGetWindowTitle@@YGPB_WXZ ; DXUTGetWindowTitle
  00056	8b f4		 mov	 esi, esp
  00058	50		 push	 eax
  00059	8b 4d 08	 mov	 ecx, DWORD PTR _hDlg$[ebp]
  0005c	51		 push	 ecx
  0005d	ff 15 00 00 00
	00		 call	 DWORD PTR __imp__SetWindowTextW@8
  00063	3b f4		 cmp	 esi, esp
  00065	e8 00 00 00 00	 call	 __RTC_CheckEsp
; Line 171
  0006a	8b f4		 mov	 esi, esp
  0006c	68 02 7f 00 00	 push	 32514			; 00007f02H
  00071	6a 00		 push	 0
  00073	ff 15 00 00 00
	00		 call	 DWORD PTR __imp__LoadIconW@8
  00079	3b f4		 cmp	 esi, esp
  0007b	e8 00 00 00 00	 call	 __RTC_CheckEsp
  00080	8b f4		 mov	 esi, esp
  00082	50		 push	 eax
  00083	6a 01		 push	 1
  00085	68 72 01 00 00	 push	 370			; 00000172H
  0008a	8b fc		 mov	 edi, esp
  0008c	68 00 01 00 00	 push	 256			; 00000100H
  00091	8b 55 08	 mov	 edx, DWORD PTR _hDlg$[ebp]
  00094	52		 push	 edx
  00095	ff 15 00 00 00
	00		 call	 DWORD PTR __imp__GetDlgItem@8
  0009b	3b fc		 cmp	 edi, esp
  0009d	e8 00 00 00 00	 call	 __RTC_CheckEsp
  000a2	50		 push	 eax
  000a3	ff 15 00 00 00
	00		 call	 DWORD PTR __imp__SendMessageW@16
  000a9	3b f4		 cmp	 esi, esp
  000ab	e8 00 00 00 00	 call	 __RTC_CheckEsp
; Line 174
  000b0	8b f4		 mov	 esi, esp
  000b2	8b 45 14	 mov	 eax, DWORD PTR _lParam$[ebp]
  000b5	50		 push	 eax
  000b6	8b 4d 14	 mov	 ecx, DWORD PTR _lParam$[ebp]
  000b9	51		 push	 ecx
  000ba	68 00 00 00 00	 push	 OFFSET $SG163499
  000bf	68 00 02 00 00	 push	 512			; 00000200H
  000c4	8d 95 f8 fb ff
	ff		 lea	 edx, DWORD PTR _sz$1[ebp]
  000ca	52		 push	 edx
  000cb	ff 15 00 00 00
	00		 call	 DWORD PTR __imp__swprintf_s
  000d1	83 c4 14	 add	 esp, 20			; 00000014H
  000d4	3b f4		 cmp	 esi, esp
  000d6	e8 00 00 00 00	 call	 __RTC_CheckEsp
; Line 175
  000db	8b f4		 mov	 esi, esp
  000dd	8d 85 f8 fb ff
	ff		 lea	 eax, DWORD PTR _sz$1[ebp]
  000e3	50		 push	 eax
  000e4	68 01 01 00 00	 push	 257			; 00000101H
  000e9	8b 4d 08	 mov	 ecx, DWORD PTR _hDlg$[ebp]
  000ec	51		 push	 ecx
  000ed	ff 15 00 00 00
	00		 call	 DWORD PTR __imp__SetDlgItemTextW@12
  000f3	3b f4		 cmp	 esi, esp
  000f5	e8 00 00 00 00	 call	 __RTC_CheckEsp
; Line 176
  000fa	8b f4		 mov	 esi, esp
  000fc	68 00 00 00 00	 push	 OFFSET $SG163500
  00101	6a 06		 push	 6
  00103	8b 55 08	 mov	 edx, DWORD PTR _hDlg$[ebp]
  00106	52		 push	 edx
  00107	ff 15 00 00 00
	00		 call	 DWORD PTR __imp__SetDlgItemTextW@12
  0010d	3b f4		 cmp	 esi, esp
  0010f	e8 00 00 00 00	 call	 __RTC_CheckEsp
; Line 177
  00114	8b f4		 mov	 esi, esp
  00116	68 00 00 00 00	 push	 OFFSET $SG163501
  0011b	6a 07		 push	 7
  0011d	8b 45 08	 mov	 eax, DWORD PTR _hDlg$[ebp]
  00120	50		 push	 eax
  00121	ff 15 00 00 00
	00		 call	 DWORD PTR __imp__SetDlgItemTextW@12
  00127	3b f4		 cmp	 esi, esp
  00129	e8 00 00 00 00	 call	 __RTC_CheckEsp
; Line 178
  0012e	8b f4		 mov	 esi, esp
  00130	68 00 00 00 00	 push	 OFFSET $SG163502
  00135	6a 05		 push	 5
  00137	8b 4d 08	 mov	 ecx, DWORD PTR _hDlg$[ebp]
  0013a	51		 push	 ecx
  0013b	ff 15 00 00 00
	00		 call	 DWORD PTR __imp__SetDlgItemTextW@12
  00141	3b f4		 cmp	 esi, esp
  00143	e8 00 00 00 00	 call	 __RTC_CheckEsp
; Line 179
  00148	e9 8a 01 00 00	 jmp	 $LN8@DisplaySwi
$LN6@DisplaySwi:
; Line 182
  0014d	8b 55 10	 mov	 edx, DWORD PTR _wParam$[ebp]
  00150	81 e2 ff ff 00
	00		 and	 edx, 65535		; 0000ffffH
  00156	0f b7 c2	 movzx	 eax, dx
  00159	89 85 ec fb ff
	ff		 mov	 DWORD PTR tv130[ebp], eax
  0015f	8b 8d ec fb ff
	ff		 mov	 ecx, DWORD PTR tv130[ebp]
  00165	83 e9 02	 sub	 ecx, 2
  00168	89 8d ec fb ff
	ff		 mov	 DWORD PTR tv130[ebp], ecx
  0016e	83 bd ec fb ff
	ff 05		 cmp	 DWORD PTR tv130[ebp], 5
  00175	0f 87 5c 01 00
	00		 ja	 $LN8@DisplaySwi
  0017b	8b 95 ec fb ff
	ff		 mov	 edx, DWORD PTR tv130[ebp]
  00181	ff 24 95 00 00
	00 00		 jmp	 DWORD PTR $LN23@DisplaySwi[edx*4]
$LN3@DisplaySwi:
; Line 187
  00188	8b f4		 mov	 esi, esp
  0018a	6a 05		 push	 5
  0018c	8b 45 08	 mov	 eax, DWORD PTR _hDlg$[ebp]
  0018f	50		 push	 eax
  00190	ff 15 00 00 00
	00		 call	 DWORD PTR __imp__IsDlgButtonChecked@8
  00196	3b f4		 cmp	 esi, esp
  00198	e8 00 00 00 00	 call	 __RTC_CheckEsp
  0019d	83 f8 01	 cmp	 eax, 1
  001a0	75 0c		 jne	 SHORT $LN12@DisplaySwi
  001a2	c7 85 e8 fb ff
	ff 00 00 00 00	 mov	 DWORD PTR tv136[ebp], 0
  001ac	eb 0a		 jmp	 SHORT $LN13@DisplaySwi
$LN12@DisplaySwi:
  001ae	c7 85 e8 fb ff
	ff 01 00 00 00	 mov	 DWORD PTR tv136[ebp], 1
$LN13@DisplaySwi:
  001b8	8b f4		 mov	 esi, esp
  001ba	8b 8d e8 fb ff
	ff		 mov	 ecx, DWORD PTR tv136[ebp]
  001c0	51		 push	 ecx
  001c1	6a 05		 push	 5
  001c3	8b 55 08	 mov	 edx, DWORD PTR _hDlg$[ebp]
  001c6	52		 push	 edx
  001c7	ff 15 00 00 00
	00		 call	 DWORD PTR __imp__CheckDlgButton@12
  001cd	3b f4		 cmp	 esi, esp
  001cf	e8 00 00 00 00	 call	 __RTC_CheckEsp
; Line 188
  001d4	8b f4		 mov	 esi, esp
  001d6	6a 05		 push	 5
  001d8	8b 45 08	 mov	 eax, DWORD PTR _hDlg$[ebp]
  001db	50		 push	 eax
  001dc	ff 15 00 00 00
	00		 call	 DWORD PTR __imp__IsDlgButtonChecked@8
  001e2	3b f4		 cmp	 esi, esp
  001e4	e8 00 00 00 00	 call	 __RTC_CheckEsp
  001e9	83 f8 01	 cmp	 eax, 1
  001ec	74 0c		 je	 SHORT $LN14@DisplaySwi
  001ee	c7 85 e4 fb ff
	ff 01 00 00 00	 mov	 DWORD PTR tv144[ebp], 1
  001f8	eb 0a		 jmp	 SHORT $LN15@DisplaySwi
$LN14@DisplaySwi:
  001fa	c7 85 e4 fb ff
	ff 00 00 00 00	 mov	 DWORD PTR tv144[ebp], 0
$LN15@DisplaySwi:
  00204	8b f4		 mov	 esi, esp
  00206	8b 8d e4 fb ff
	ff		 mov	 ecx, DWORD PTR tv144[ebp]
  0020c	51		 push	 ecx
  0020d	8b fc		 mov	 edi, esp
  0020f	6a 07		 push	 7
  00211	8b 55 08	 mov	 edx, DWORD PTR _hDlg$[ebp]
  00214	52		 push	 edx
  00215	ff 15 00 00 00
	00		 call	 DWORD PTR __imp__GetDlgItem@8
  0021b	3b fc		 cmp	 edi, esp
  0021d	e8 00 00 00 00	 call	 __RTC_CheckEsp
  00222	50		 push	 eax
  00223	ff 15 00 00 00
	00		 call	 DWORD PTR __imp__EnableWindow@8
  00229	3b f4		 cmp	 esi, esp
  0022b	e8 00 00 00 00	 call	 __RTC_CheckEsp
; Line 189
  00230	e9 a2 00 00 00	 jmp	 $LN8@DisplaySwi
$LN2@DisplaySwi:
; Line 192
  00235	8b f4		 mov	 esi, esp
  00237	6a 05		 push	 5
  00239	8b 45 08	 mov	 eax, DWORD PTR _hDlg$[ebp]
  0023c	50		 push	 eax
  0023d	ff 15 00 00 00
	00		 call	 DWORD PTR __imp__IsDlgButtonChecked@8
  00243	3b f4		 cmp	 esi, esp
  00245	e8 00 00 00 00	 call	 __RTC_CheckEsp
  0024a	83 f8 01	 cmp	 eax, 1
  0024d	75 0c		 jne	 SHORT $LN16@DisplaySwi
  0024f	c7 85 e0 fb ff
	ff 87 00 00 00	 mov	 DWORD PTR tv154[ebp], 135 ; 00000087H
  00259	eb 0a		 jmp	 SHORT $LN17@DisplaySwi
$LN16@DisplaySwi:
  0025b	c7 85 e0 fb ff
	ff 07 00 00 00	 mov	 DWORD PTR tv154[ebp], 7
$LN17@DisplaySwi:
  00265	8b f4		 mov	 esi, esp
  00267	8b 8d e0 fb ff
	ff		 mov	 ecx, DWORD PTR tv154[ebp]
  0026d	51		 push	 ecx
  0026e	8b 55 08	 mov	 edx, DWORD PTR _hDlg$[ebp]
  00271	52		 push	 edx
  00272	ff 15 00 00 00
	00		 call	 DWORD PTR __imp__EndDialog@8
  00278	3b f4		 cmp	 esi, esp
  0027a	e8 00 00 00 00	 call	 __RTC_CheckEsp
  0027f	b8 01 00 00 00	 mov	 eax, 1
  00284	eb 53		 jmp	 SHORT $LN10@DisplaySwi
$LN1@DisplaySwi:
; Line 196
  00286	8b f4		 mov	 esi, esp
  00288	6a 05		 push	 5
  0028a	8b 45 08	 mov	 eax, DWORD PTR _hDlg$[ebp]
  0028d	50		 push	 eax
  0028e	ff 15 00 00 00
	00		 call	 DWORD PTR __imp__IsDlgButtonChecked@8
  00294	3b f4		 cmp	 esi, esp
  00296	e8 00 00 00 00	 call	 __RTC_CheckEsp
  0029b	83 f8 01	 cmp	 eax, 1
  0029e	75 0c		 jne	 SHORT $LN18@DisplaySwi
  002a0	c7 85 dc fb ff
	ff 86 00 00 00	 mov	 DWORD PTR tv161[ebp], 134 ; 00000086H
  002aa	eb 0a		 jmp	 SHORT $LN19@DisplaySwi
$LN18@DisplaySwi:
  002ac	c7 85 dc fb ff
	ff 06 00 00 00	 mov	 DWORD PTR tv161[ebp], 6
$LN19@DisplaySwi:
  002b6	8b f4		 mov	 esi, esp
  002b8	8b 8d dc fb ff
	ff		 mov	 ecx, DWORD PTR tv161[ebp]
  002be	51		 push	 ecx
  002bf	8b 55 08	 mov	 edx, DWORD PTR _hDlg$[ebp]
  002c2	52		 push	 edx
  002c3	ff 15 00 00 00
	00		 call	 DWORD PTR __imp__EndDialog@8
  002c9	3b f4		 cmp	 esi, esp
  002cb	e8 00 00 00 00	 call	 __RTC_CheckEsp
  002d0	b8 01 00 00 00	 mov	 eax, 1
  002d5	eb 02		 jmp	 SHORT $LN10@DisplaySwi
$LN8@DisplaySwi:
; Line 200
  002d7	33 c0		 xor	 eax, eax
$LN10@DisplaySwi:
; Line 201
  002d9	52		 push	 edx
  002da	8b cd		 mov	 ecx, ebp
  002dc	50		 push	 eax
  002dd	8d 15 00 00 00
	00		 lea	 edx, DWORD PTR $LN22@DisplaySwi
  002e3	e8 00 00 00 00	 call	 @_RTC_CheckStackVars@8
  002e8	58		 pop	 eax
  002e9	5a		 pop	 edx
  002ea	5f		 pop	 edi
  002eb	5e		 pop	 esi
  002ec	8b 4d fc	 mov	 ecx, DWORD PTR __$ArrayPad$[ebp]
  002ef	33 cd		 xor	 ecx, ebp
  002f1	e8 00 00 00 00	 call	 @__security_check_cookie@4
  002f6	81 c4 24 04 00
	00		 add	 esp, 1060		; 00000424H
  002fc	3b ec		 cmp	 ebp, esp
  002fe	e8 00 00 00 00	 call	 __RTC_CheckEsp
  00303	8b e5		 mov	 esp, ebp
  00305	5d		 pop	 ebp
  00306	c2 10 00	 ret	 16			; 00000010H
  00309	8d 49 00	 npad	 3
$LN22@DisplaySwi:
  0030c	01 00 00 00	 DD	 1
  00310	00 00 00 00	 DD	 $LN21@DisplaySwi
$LN21@DisplaySwi:
  00314	f8 fb ff ff	 DD	 -1032			; fffffbf8H
  00318	00 04 00 00	 DD	 1024			; 00000400H
  0031c	00 00 00 00	 DD	 $LN20@DisplaySwi
$LN20@DisplaySwi:
  00320	73		 DB	 115			; 00000073H
  00321	7a		 DB	 122			; 0000007aH
  00322	00		 DB	 0
  00323	90		 npad	 1
$LN23@DisplaySwi:
  00324	00 00 00 00	 DD	 $LN1@DisplaySwi
  00328	00 00 00 00	 DD	 $LN8@DisplaySwi
  0032c	00 00 00 00	 DD	 $LN8@DisplaySwi
  00330	00 00 00 00	 DD	 $LN3@DisplaySwi
  00334	00 00 00 00	 DD	 $LN1@DisplaySwi
  00338	00 00 00 00	 DD	 $LN2@DisplaySwi
?DisplaySwitchToREFWarningProc@@YGHPAUHWND__@@IIJ@Z ENDP ; DisplaySwitchToREFWarningProc
_TEXT	ENDS
; Function compile flags: /Odtp /RTCsu
_TEXT	SEGMENT
_strFilePart$ = -1596					; size = 4
_strSearch$ = -1584					; size = 520
_strFullFileName$ = -1056				; size = 520
_strFullPath$ = -528					; size = 520
__$ArrayPad$ = -4					; size = 4
_strSearchPath$ = 8					; size = 4
_cchSearch$ = 12					; size = 4
_strStartAt$ = 16					; size = 4
_strLeafName$ = 20					; size = 4
?DXUTFindMediaSearchParentDirs@@YA_NPA_WHPB_W1@Z PROC	; DXUTFindMediaSearchParentDirs
; File d:\engine class\assignment 1\new scratch\dxut\optional\sdkmisc.cpp
; Line 427
  00000	55		 push	 ebp
  00001	8b ec		 mov	 ebp, esp
  00003	81 ec 40 06 00
	00		 sub	 esp, 1600		; 00000640H
  00009	56		 push	 esi
  0000a	57		 push	 edi
  0000b	8d bd c0 f9 ff
	ff		 lea	 edi, DWORD PTR [ebp-1600]
  00011	b9 90 01 00 00	 mov	 ecx, 400		; 00000190H
  00016	b8 cc cc cc cc	 mov	 eax, -858993460		; ccccccccH
  0001b	f3 ab		 rep stosd
  0001d	a1 00 00 00 00	 mov	 eax, DWORD PTR ___security_cookie
  00022	33 c5		 xor	 eax, ebp
  00024	89 45 fc	 mov	 DWORD PTR __$ArrayPad$[ebp], eax
; Line 431
  00027	33 c0		 xor	 eax, eax
  00029	66 89 85 f0 fd
	ff ff		 mov	 WORD PTR _strFullPath$[ebp], ax
  00030	68 06 02 00 00	 push	 518			; 00000206H
  00035	6a 00		 push	 0
  00037	8d 8d f2 fd ff
	ff		 lea	 ecx, DWORD PTR _strFullPath$[ebp+2]
  0003d	51		 push	 ecx
  0003e	e8 00 00 00 00	 call	 _memset
  00043	83 c4 0c	 add	 esp, 12			; 0000000cH
; Line 435
  00046	33 d2		 xor	 edx, edx
  00048	66 89 95 e0 fb
	ff ff		 mov	 WORD PTR _strFullFileName$[ebp], dx
  0004f	68 06 02 00 00	 push	 518			; 00000206H
  00054	6a 00		 push	 0
  00056	8d 85 e2 fb ff
	ff		 lea	 eax, DWORD PTR _strFullFileName$[ebp+2]
  0005c	50		 push	 eax
  0005d	e8 00 00 00 00	 call	 _memset
  00062	83 c4 0c	 add	 esp, 12			; 0000000cH
; Line 439
  00065	33 c9		 xor	 ecx, ecx
  00067	66 89 8d d0 f9
	ff ff		 mov	 WORD PTR _strSearch$[ebp], cx
  0006e	68 06 02 00 00	 push	 518			; 00000206H
  00073	6a 00		 push	 0
  00075	8d 95 d2 f9 ff
	ff		 lea	 edx, DWORD PTR _strSearch$[ebp+2]
  0007b	52		 push	 edx
  0007c	e8 00 00 00 00	 call	 _memset
  00081	83 c4 0c	 add	 esp, 12			; 0000000cH
; Line 440
  00084	c7 85 c4 f9 ff
	ff 00 00 00 00	 mov	 DWORD PTR _strFilePart$[ebp], 0
; Line 442
  0008e	8b f4		 mov	 esi, esp
  00090	8d 85 c4 f9 ff
	ff		 lea	 eax, DWORD PTR _strFilePart$[ebp]
  00096	50		 push	 eax
  00097	8d 8d f0 fd ff
	ff		 lea	 ecx, DWORD PTR _strFullPath$[ebp]
  0009d	51		 push	 ecx
  0009e	68 04 01 00 00	 push	 260			; 00000104H
  000a3	8b 55 10	 mov	 edx, DWORD PTR _strStartAt$[ebp]
  000a6	52		 push	 edx
  000a7	ff 15 00 00 00
	00		 call	 DWORD PTR __imp__GetFullPathNameW@16
  000ad	3b f4		 cmp	 esi, esp
  000af	e8 00 00 00 00	 call	 __RTC_CheckEsp
  000b4	85 c0		 test	 eax, eax
  000b6	75 07		 jne	 SHORT $LN4@DXUTFindMe
; Line 443
  000b8	32 c0		 xor	 al, al
  000ba	e9 ee 00 00 00	 jmp	 $LN6@DXUTFindMe
$LN4@DXUTFindMe:
; Line 446
  000bf	83 bd c4 f9 ff
	ff 00		 cmp	 DWORD PTR _strFilePart$[ebp], 0
  000c6	0f 84 df 00 00
	00		 je	 $LN3@DXUTFindMe
  000cc	8b 85 c4 f9 ff
	ff		 mov	 eax, DWORD PTR _strFilePart$[ebp]
  000d2	0f b7 08	 movzx	 ecx, WORD PTR [eax]
  000d5	85 c9		 test	 ecx, ecx
  000d7	0f 84 ce 00 00
	00		 je	 $LN3@DXUTFindMe
; Line 448
  000dd	8b f4		 mov	 esi, esp
  000df	8b 55 14	 mov	 edx, DWORD PTR _strLeafName$[ebp]
  000e2	52		 push	 edx
  000e3	8d 85 f0 fd ff
	ff		 lea	 eax, DWORD PTR _strFullPath$[ebp]
  000e9	50		 push	 eax
  000ea	68 00 00 00 00	 push	 OFFSET $SG163614
  000ef	68 04 01 00 00	 push	 260			; 00000104H
  000f4	8d 8d e0 fb ff
	ff		 lea	 ecx, DWORD PTR _strFullFileName$[ebp]
  000fa	51		 push	 ecx
  000fb	ff 15 00 00 00
	00		 call	 DWORD PTR __imp__swprintf_s
  00101	83 c4 14	 add	 esp, 20			; 00000014H
  00104	3b f4		 cmp	 esi, esp
  00106	e8 00 00 00 00	 call	 __RTC_CheckEsp
; Line 449
  0010b	8b f4		 mov	 esi, esp
  0010d	8d 95 e0 fb ff
	ff		 lea	 edx, DWORD PTR _strFullFileName$[ebp]
  00113	52		 push	 edx
  00114	ff 15 00 00 00
	00		 call	 DWORD PTR __imp__GetFileAttributesW@4
  0011a	3b f4		 cmp	 esi, esp
  0011c	e8 00 00 00 00	 call	 __RTC_CheckEsp
  00121	83 f8 ff	 cmp	 eax, -1
  00124	74 25		 je	 SHORT $LN2@DXUTFindMe
; Line 451
  00126	8b f4		 mov	 esi, esp
  00128	8d 85 e0 fb ff
	ff		 lea	 eax, DWORD PTR _strFullFileName$[ebp]
  0012e	50		 push	 eax
  0012f	8b 4d 0c	 mov	 ecx, DWORD PTR _cchSearch$[ebp]
  00132	51		 push	 ecx
  00133	8b 55 08	 mov	 edx, DWORD PTR _strSearchPath$[ebp]
  00136	52		 push	 edx
  00137	ff 15 00 00 00
	00		 call	 DWORD PTR __imp__wcscpy_s
  0013d	83 c4 0c	 add	 esp, 12			; 0000000cH
  00140	3b f4		 cmp	 esi, esp
  00142	e8 00 00 00 00	 call	 __RTC_CheckEsp
; Line 452
  00147	b0 01		 mov	 al, 1
  00149	eb 62		 jmp	 SHORT $LN6@DXUTFindMe
$LN2@DXUTFindMe:
; Line 455
  0014b	8b f4		 mov	 esi, esp
  0014d	8d 85 f0 fd ff
	ff		 lea	 eax, DWORD PTR _strFullPath$[ebp]
  00153	50		 push	 eax
  00154	68 00 00 00 00	 push	 OFFSET $SG163616
  00159	68 04 01 00 00	 push	 260			; 00000104H
  0015e	8d 8d d0 f9 ff
	ff		 lea	 ecx, DWORD PTR _strSearch$[ebp]
  00164	51		 push	 ecx
  00165	ff 15 00 00 00
	00		 call	 DWORD PTR __imp__swprintf_s
  0016b	83 c4 10	 add	 esp, 16			; 00000010H
  0016e	3b f4		 cmp	 esi, esp
  00170	e8 00 00 00 00	 call	 __RTC_CheckEsp
; Line 456
  00175	8b f4		 mov	 esi, esp
  00177	8d 95 c4 f9 ff
	ff		 lea	 edx, DWORD PTR _strFilePart$[ebp]
  0017d	52		 push	 edx
  0017e	8d 85 f0 fd ff
	ff		 lea	 eax, DWORD PTR _strFullPath$[ebp]
  00184	50		 push	 eax
  00185	68 04 01 00 00	 push	 260			; 00000104H
  0018a	8d 8d d0 f9 ff
	ff		 lea	 ecx, DWORD PTR _strSearch$[ebp]
  00190	51		 push	 ecx
  00191	ff 15 00 00 00
	00		 call	 DWORD PTR __imp__GetFullPathNameW@16
  00197	3b f4		 cmp	 esi, esp
  00199	e8 00 00 00 00	 call	 __RTC_CheckEsp
  0019e	85 c0		 test	 eax, eax
  001a0	75 04		 jne	 SHORT $LN1@DXUTFindMe
; Line 457
  001a2	32 c0		 xor	 al, al
  001a4	eb 07		 jmp	 SHORT $LN6@DXUTFindMe
$LN1@DXUTFindMe:
; Line 458
  001a6	e9 14 ff ff ff	 jmp	 $LN4@DXUTFindMe
$LN3@DXUTFindMe:
; Line 460
  001ab	32 c0		 xor	 al, al
$LN6@DXUTFindMe:
; Line 461
  001ad	52		 push	 edx
  001ae	8b cd		 mov	 ecx, ebp
  001b0	50		 push	 eax
  001b1	8d 15 00 00 00
	00		 lea	 edx, DWORD PTR $LN13@DXUTFindMe
  001b7	e8 00 00 00 00	 call	 @_RTC_CheckStackVars@8
  001bc	58		 pop	 eax
  001bd	5a		 pop	 edx
  001be	5f		 pop	 edi
  001bf	5e		 pop	 esi
  001c0	8b 4d fc	 mov	 ecx, DWORD PTR __$ArrayPad$[ebp]
  001c3	33 cd		 xor	 ecx, ebp
  001c5	e8 00 00 00 00	 call	 @__security_check_cookie@4
  001ca	81 c4 40 06 00
	00		 add	 esp, 1600		; 00000640H
  001d0	3b ec		 cmp	 ebp, esp
  001d2	e8 00 00 00 00	 call	 __RTC_CheckEsp
  001d7	8b e5		 mov	 esp, ebp
  001d9	5d		 pop	 ebp
  001da	c3		 ret	 0
  001db	90		 npad	 1
$LN13@DXUTFindMe:
  001dc	04 00 00 00	 DD	 4
  001e0	00 00 00 00	 DD	 $LN12@DXUTFindMe
$LN12@DXUTFindMe:
  001e4	f0 fd ff ff	 DD	 -528			; fffffdf0H
  001e8	08 02 00 00	 DD	 520			; 00000208H
  001ec	00 00 00 00	 DD	 $LN8@DXUTFindMe
  001f0	e0 fb ff ff	 DD	 -1056			; fffffbe0H
  001f4	08 02 00 00	 DD	 520			; 00000208H
  001f8	00 00 00 00	 DD	 $LN9@DXUTFindMe
  001fc	d0 f9 ff ff	 DD	 -1584			; fffff9d0H
  00200	08 02 00 00	 DD	 520			; 00000208H
  00204	00 00 00 00	 DD	 $LN10@DXUTFindMe
  00208	c4 f9 ff ff	 DD	 -1596			; fffff9c4H
  0020c	04 00 00 00	 DD	 4
  00210	00 00 00 00	 DD	 $LN11@DXUTFindMe
$LN11@DXUTFindMe:
  00214	73		 DB	 115			; 00000073H
  00215	74		 DB	 116			; 00000074H
  00216	72		 DB	 114			; 00000072H
  00217	46		 DB	 70			; 00000046H
  00218	69		 DB	 105			; 00000069H
  00219	6c		 DB	 108			; 0000006cH
  0021a	65		 DB	 101			; 00000065H
  0021b	50		 DB	 80			; 00000050H
  0021c	61		 DB	 97			; 00000061H
  0021d	72		 DB	 114			; 00000072H
  0021e	74		 DB	 116			; 00000074H
  0021f	00		 DB	 0
$LN10@DXUTFindMe:
  00220	73		 DB	 115			; 00000073H
  00221	74		 DB	 116			; 00000074H
  00222	72		 DB	 114			; 00000072H
  00223	53		 DB	 83			; 00000053H
  00224	65		 DB	 101			; 00000065H
  00225	61		 DB	 97			; 00000061H
  00226	72		 DB	 114			; 00000072H
  00227	63		 DB	 99			; 00000063H
  00228	68		 DB	 104			; 00000068H
  00229	00		 DB	 0
$LN9@DXUTFindMe:
  0022a	73		 DB	 115			; 00000073H
  0022b	74		 DB	 116			; 00000074H
  0022c	72		 DB	 114			; 00000072H
  0022d	46		 DB	 70			; 00000046H
  0022e	75		 DB	 117			; 00000075H
  0022f	6c		 DB	 108			; 0000006cH
  00230	6c		 DB	 108			; 0000006cH
  00231	46		 DB	 70			; 00000046H
  00232	69		 DB	 105			; 00000069H
  00233	6c		 DB	 108			; 0000006cH
  00234	65		 DB	 101			; 00000065H
  00235	4e		 DB	 78			; 0000004eH
  00236	61		 DB	 97			; 00000061H
  00237	6d		 DB	 109			; 0000006dH
  00238	65		 DB	 101			; 00000065H
  00239	00		 DB	 0
$LN8@DXUTFindMe:
  0023a	73		 DB	 115			; 00000073H
  0023b	74		 DB	 116			; 00000074H
  0023c	72		 DB	 114			; 00000072H
  0023d	46		 DB	 70			; 00000046H
  0023e	75		 DB	 117			; 00000075H
  0023f	6c		 DB	 108			; 0000006cH
  00240	6c		 DB	 108			; 0000006cH
  00241	50		 DB	 80			; 00000050H
  00242	61		 DB	 97			; 00000061H
  00243	74		 DB	 116			; 00000074H
  00244	68		 DB	 104			; 00000068H
  00245	00		 DB	 0
?DXUTFindMediaSearchParentDirs@@YA_NPA_WHPB_W1@Z ENDP	; DXUTFindMediaSearchParentDirs
_TEXT	ENDS
; Function compile flags: /Odtp /RTCsu
_TEXT	SEGMENT
_s_strSearchPath$ = -4					; size = 4
_strSearchPath$ = 8					; size = 4
_cchSearch$ = 12					; size = 4
_strLeaf$ = 16						; size = 4
_strExePath$ = 20					; size = 4
_strExeName$ = 24					; size = 4
?DXUTFindMediaSearchTypicalDirs@@YA_NPA_WHPB_W11@Z PROC	; DXUTFindMediaSearchTypicalDirs
; File d:\engine class\assignment 1\new scratch\dxut\optional\sdkmisc.cpp
; Line 350
  00000	55		 push	 ebp
  00001	8b ec		 mov	 ebp, esp
  00003	51		 push	 ecx
  00004	56		 push	 esi
  00005	c7 45 fc cc cc
	cc cc		 mov	 DWORD PTR [ebp-4], -858993460 ; ccccccccH
; Line 363
  0000c	8b f4		 mov	 esi, esp
  0000e	8b 45 10	 mov	 eax, DWORD PTR _strLeaf$[ebp]
  00011	50		 push	 eax
  00012	8b 4d 0c	 mov	 ecx, DWORD PTR _cchSearch$[ebp]
  00015	51		 push	 ecx
  00016	8b 55 08	 mov	 edx, DWORD PTR _strSearchPath$[ebp]
  00019	52		 push	 edx
  0001a	ff 15 00 00 00
	00		 call	 DWORD PTR __imp__wcscpy_s
  00020	83 c4 0c	 add	 esp, 12			; 0000000cH
  00023	3b f4		 cmp	 esi, esp
  00025	e8 00 00 00 00	 call	 __RTC_CheckEsp
; Line 364
  0002a	8b f4		 mov	 esi, esp
  0002c	8b 45 08	 mov	 eax, DWORD PTR _strSearchPath$[ebp]
  0002f	50		 push	 eax
  00030	ff 15 00 00 00
	00		 call	 DWORD PTR __imp__GetFileAttributesW@4
  00036	3b f4		 cmp	 esi, esp
  00038	e8 00 00 00 00	 call	 __RTC_CheckEsp
  0003d	83 f8 ff	 cmp	 eax, -1
  00040	74 07		 je	 SHORT $LN11@DXUTFindMe
; Line 365
  00042	b0 01		 mov	 al, 1
  00044	e9 89 02 00 00	 jmp	 $LN12@DXUTFindMe
$LN11@DXUTFindMe:
; Line 368
  00049	8b f4		 mov	 esi, esp
  0004b	8b 4d 10	 mov	 ecx, DWORD PTR _strLeaf$[ebp]
  0004e	51		 push	 ecx
  0004f	68 00 00 00 00	 push	 OFFSET $SG163580
  00054	8b 55 0c	 mov	 edx, DWORD PTR _cchSearch$[ebp]
  00057	52		 push	 edx
  00058	8b 45 08	 mov	 eax, DWORD PTR _strSearchPath$[ebp]
  0005b	50		 push	 eax
  0005c	ff 15 00 00 00
	00		 call	 DWORD PTR __imp__swprintf_s
  00062	83 c4 10	 add	 esp, 16			; 00000010H
  00065	3b f4		 cmp	 esi, esp
  00067	e8 00 00 00 00	 call	 __RTC_CheckEsp
; Line 369
  0006c	8b f4		 mov	 esi, esp
  0006e	8b 4d 08	 mov	 ecx, DWORD PTR _strSearchPath$[ebp]
  00071	51		 push	 ecx
  00072	ff 15 00 00 00
	00		 call	 DWORD PTR __imp__GetFileAttributesW@4
  00078	3b f4		 cmp	 esi, esp
  0007a	e8 00 00 00 00	 call	 __RTC_CheckEsp
  0007f	83 f8 ff	 cmp	 eax, -1
  00082	74 07		 je	 SHORT $LN10@DXUTFindMe
; Line 370
  00084	b0 01		 mov	 al, 1
  00086	e9 47 02 00 00	 jmp	 $LN12@DXUTFindMe
$LN10@DXUTFindMe:
; Line 373
  0008b	8b f4		 mov	 esi, esp
  0008d	8b 55 10	 mov	 edx, DWORD PTR _strLeaf$[ebp]
  00090	52		 push	 edx
  00091	68 00 00 00 00	 push	 OFFSET $SG163582
  00096	8b 45 0c	 mov	 eax, DWORD PTR _cchSearch$[ebp]
  00099	50		 push	 eax
  0009a	8b 4d 08	 mov	 ecx, DWORD PTR _strSearchPath$[ebp]
  0009d	51		 push	 ecx
  0009e	ff 15 00 00 00
	00		 call	 DWORD PTR __imp__swprintf_s
  000a4	83 c4 10	 add	 esp, 16			; 00000010H
  000a7	3b f4		 cmp	 esi, esp
  000a9	e8 00 00 00 00	 call	 __RTC_CheckEsp
; Line 374
  000ae	8b f4		 mov	 esi, esp
  000b0	8b 55 08	 mov	 edx, DWORD PTR _strSearchPath$[ebp]
  000b3	52		 push	 edx
  000b4	ff 15 00 00 00
	00		 call	 DWORD PTR __imp__GetFileAttributesW@4
  000ba	3b f4		 cmp	 esi, esp
  000bc	e8 00 00 00 00	 call	 __RTC_CheckEsp
  000c1	83 f8 ff	 cmp	 eax, -1
  000c4	74 07		 je	 SHORT $LN9@DXUTFindMe
; Line 375
  000c6	b0 01		 mov	 al, 1
  000c8	e9 05 02 00 00	 jmp	 $LN12@DXUTFindMe
$LN9@DXUTFindMe:
; Line 378
  000cd	8b f4		 mov	 esi, esp
  000cf	8b 45 10	 mov	 eax, DWORD PTR _strLeaf$[ebp]
  000d2	50		 push	 eax
  000d3	68 00 00 00 00	 push	 OFFSET $SG163584
  000d8	8b 4d 0c	 mov	 ecx, DWORD PTR _cchSearch$[ebp]
  000db	51		 push	 ecx
  000dc	8b 55 08	 mov	 edx, DWORD PTR _strSearchPath$[ebp]
  000df	52		 push	 edx
  000e0	ff 15 00 00 00
	00		 call	 DWORD PTR __imp__swprintf_s
  000e6	83 c4 10	 add	 esp, 16			; 00000010H
  000e9	3b f4		 cmp	 esi, esp
  000eb	e8 00 00 00 00	 call	 __RTC_CheckEsp
; Line 379
  000f0	8b f4		 mov	 esi, esp
  000f2	8b 45 08	 mov	 eax, DWORD PTR _strSearchPath$[ebp]
  000f5	50		 push	 eax
  000f6	ff 15 00 00 00
	00		 call	 DWORD PTR __imp__GetFileAttributesW@4
  000fc	3b f4		 cmp	 esi, esp
  000fe	e8 00 00 00 00	 call	 __RTC_CheckEsp
  00103	83 f8 ff	 cmp	 eax, -1
  00106	74 07		 je	 SHORT $LN8@DXUTFindMe
; Line 380
  00108	b0 01		 mov	 al, 1
  0010a	e9 c3 01 00 00	 jmp	 $LN12@DXUTFindMe
$LN8@DXUTFindMe:
; Line 383
  0010f	8b f4		 mov	 esi, esp
  00111	8b 4d 10	 mov	 ecx, DWORD PTR _strLeaf$[ebp]
  00114	51		 push	 ecx
  00115	8b 55 14	 mov	 edx, DWORD PTR _strExePath$[ebp]
  00118	52		 push	 edx
  00119	68 00 00 00 00	 push	 OFFSET $SG163586
  0011e	8b 45 0c	 mov	 eax, DWORD PTR _cchSearch$[ebp]
  00121	50		 push	 eax
  00122	8b 4d 08	 mov	 ecx, DWORD PTR _strSearchPath$[ebp]
  00125	51		 push	 ecx
  00126	ff 15 00 00 00
	00		 call	 DWORD PTR __imp__swprintf_s
  0012c	83 c4 14	 add	 esp, 20			; 00000014H
  0012f	3b f4		 cmp	 esi, esp
  00131	e8 00 00 00 00	 call	 __RTC_CheckEsp
; Line 384
  00136	8b f4		 mov	 esi, esp
  00138	8b 55 08	 mov	 edx, DWORD PTR _strSearchPath$[ebp]
  0013b	52		 push	 edx
  0013c	ff 15 00 00 00
	00		 call	 DWORD PTR __imp__GetFileAttributesW@4
  00142	3b f4		 cmp	 esi, esp
  00144	e8 00 00 00 00	 call	 __RTC_CheckEsp
  00149	83 f8 ff	 cmp	 eax, -1
  0014c	74 07		 je	 SHORT $LN7@DXUTFindMe
; Line 385
  0014e	b0 01		 mov	 al, 1
  00150	e9 7d 01 00 00	 jmp	 $LN12@DXUTFindMe
$LN7@DXUTFindMe:
; Line 388
  00155	8b f4		 mov	 esi, esp
  00157	8b 45 10	 mov	 eax, DWORD PTR _strLeaf$[ebp]
  0015a	50		 push	 eax
  0015b	8b 4d 14	 mov	 ecx, DWORD PTR _strExePath$[ebp]
  0015e	51		 push	 ecx
  0015f	68 00 00 00 00	 push	 OFFSET $SG163588
  00164	8b 55 0c	 mov	 edx, DWORD PTR _cchSearch$[ebp]
  00167	52		 push	 edx
  00168	8b 45 08	 mov	 eax, DWORD PTR _strSearchPath$[ebp]
  0016b	50		 push	 eax
  0016c	ff 15 00 00 00
	00		 call	 DWORD PTR __imp__swprintf_s
  00172	83 c4 14	 add	 esp, 20			; 00000014H
  00175	3b f4		 cmp	 esi, esp
  00177	e8 00 00 00 00	 call	 __RTC_CheckEsp
; Line 389
  0017c	8b f4		 mov	 esi, esp
  0017e	8b 4d 08	 mov	 ecx, DWORD PTR _strSearchPath$[ebp]
  00181	51		 push	 ecx
  00182	ff 15 00 00 00
	00		 call	 DWORD PTR __imp__GetFileAttributesW@4
  00188	3b f4		 cmp	 esi, esp
  0018a	e8 00 00 00 00	 call	 __RTC_CheckEsp
  0018f	83 f8 ff	 cmp	 eax, -1
  00192	74 07		 je	 SHORT $LN6@DXUTFindMe
; Line 390
  00194	b0 01		 mov	 al, 1
  00196	e9 37 01 00 00	 jmp	 $LN12@DXUTFindMe
$LN6@DXUTFindMe:
; Line 393
  0019b	8b f4		 mov	 esi, esp
  0019d	8b 55 10	 mov	 edx, DWORD PTR _strLeaf$[ebp]
  001a0	52		 push	 edx
  001a1	8b 45 14	 mov	 eax, DWORD PTR _strExePath$[ebp]
  001a4	50		 push	 eax
  001a5	68 00 00 00 00	 push	 OFFSET $SG163590
  001aa	8b 4d 0c	 mov	 ecx, DWORD PTR _cchSearch$[ebp]
  001ad	51		 push	 ecx
  001ae	8b 55 08	 mov	 edx, DWORD PTR _strSearchPath$[ebp]
  001b1	52		 push	 edx
  001b2	ff 15 00 00 00
	00		 call	 DWORD PTR __imp__swprintf_s
  001b8	83 c4 14	 add	 esp, 20			; 00000014H
  001bb	3b f4		 cmp	 esi, esp
  001bd	e8 00 00 00 00	 call	 __RTC_CheckEsp
; Line 394
  001c2	8b f4		 mov	 esi, esp
  001c4	8b 45 08	 mov	 eax, DWORD PTR _strSearchPath$[ebp]
  001c7	50		 push	 eax
  001c8	ff 15 00 00 00
	00		 call	 DWORD PTR __imp__GetFileAttributesW@4
  001ce	3b f4		 cmp	 esi, esp
  001d0	e8 00 00 00 00	 call	 __RTC_CheckEsp
  001d5	83 f8 ff	 cmp	 eax, -1
  001d8	74 07		 je	 SHORT $LN5@DXUTFindMe
; Line 395
  001da	b0 01		 mov	 al, 1
  001dc	e9 f1 00 00 00	 jmp	 $LN12@DXUTFindMe
$LN5@DXUTFindMe:
; Line 398
  001e1	8b f4		 mov	 esi, esp
  001e3	8b 4d 10	 mov	 ecx, DWORD PTR _strLeaf$[ebp]
  001e6	51		 push	 ecx
  001e7	8b 55 18	 mov	 edx, DWORD PTR _strExeName$[ebp]
  001ea	52		 push	 edx
  001eb	8b 45 14	 mov	 eax, DWORD PTR _strExePath$[ebp]
  001ee	50		 push	 eax
  001ef	68 00 00 00 00	 push	 OFFSET $SG163592
  001f4	8b 4d 0c	 mov	 ecx, DWORD PTR _cchSearch$[ebp]
  001f7	51		 push	 ecx
  001f8	8b 55 08	 mov	 edx, DWORD PTR _strSearchPath$[ebp]
  001fb	52		 push	 edx
  001fc	ff 15 00 00 00
	00		 call	 DWORD PTR __imp__swprintf_s
  00202	83 c4 18	 add	 esp, 24			; 00000018H
  00205	3b f4		 cmp	 esi, esp
  00207	e8 00 00 00 00	 call	 __RTC_CheckEsp
; Line 399
  0020c	8b f4		 mov	 esi, esp
  0020e	8b 45 08	 mov	 eax, DWORD PTR _strSearchPath$[ebp]
  00211	50		 push	 eax
  00212	ff 15 00 00 00
	00		 call	 DWORD PTR __imp__GetFileAttributesW@4
  00218	3b f4		 cmp	 esi, esp
  0021a	e8 00 00 00 00	 call	 __RTC_CheckEsp
  0021f	83 f8 ff	 cmp	 eax, -1
  00222	74 07		 je	 SHORT $LN4@DXUTFindMe
; Line 400
  00224	b0 01		 mov	 al, 1
  00226	e9 a7 00 00 00	 jmp	 $LN12@DXUTFindMe
$LN4@DXUTFindMe:
; Line 403
  0022b	8b f4		 mov	 esi, esp
  0022d	8b 4d 10	 mov	 ecx, DWORD PTR _strLeaf$[ebp]
  00230	51		 push	 ecx
  00231	8b 55 18	 mov	 edx, DWORD PTR _strExeName$[ebp]
  00234	52		 push	 edx
  00235	8b 45 14	 mov	 eax, DWORD PTR _strExePath$[ebp]
  00238	50		 push	 eax
  00239	68 00 00 00 00	 push	 OFFSET $SG163594
  0023e	8b 4d 0c	 mov	 ecx, DWORD PTR _cchSearch$[ebp]
  00241	51		 push	 ecx
  00242	8b 55 08	 mov	 edx, DWORD PTR _strSearchPath$[ebp]
  00245	52		 push	 edx
  00246	ff 15 00 00 00
	00		 call	 DWORD PTR __imp__swprintf_s
  0024c	83 c4 18	 add	 esp, 24			; 00000018H
  0024f	3b f4		 cmp	 esi, esp
  00251	e8 00 00 00 00	 call	 __RTC_CheckEsp
; Line 404
  00256	8b f4		 mov	 esi, esp
  00258	8b 45 08	 mov	 eax, DWORD PTR _strSearchPath$[ebp]
  0025b	50		 push	 eax
  0025c	ff 15 00 00 00
	00		 call	 DWORD PTR __imp__GetFileAttributesW@4
  00262	3b f4		 cmp	 esi, esp
  00264	e8 00 00 00 00	 call	 __RTC_CheckEsp
  00269	83 f8 ff	 cmp	 eax, -1
  0026c	74 04		 je	 SHORT $LN3@DXUTFindMe
; Line 405
  0026e	b0 01		 mov	 al, 1
  00270	eb 60		 jmp	 SHORT $LN12@DXUTFindMe
$LN3@DXUTFindMe:
; Line 408
  00272	e8 00 00 00 00	 call	 ?DXUTMediaSearchPath@@YAPA_WXZ ; DXUTMediaSearchPath
  00277	89 45 fc	 mov	 DWORD PTR _s_strSearchPath$[ebp], eax
; Line 409
  0027a	b9 02 00 00 00	 mov	 ecx, 2
  0027f	6b d1 00	 imul	 edx, ecx, 0
  00282	8b 45 fc	 mov	 eax, DWORD PTR _s_strSearchPath$[ebp]
  00285	0f b7 0c 10	 movzx	 ecx, WORD PTR [eax+edx]
  00289	85 c9		 test	 ecx, ecx
  0028b	74 43		 je	 SHORT $LN2@DXUTFindMe
; Line 411
  0028d	8b f4		 mov	 esi, esp
  0028f	8b 55 10	 mov	 edx, DWORD PTR _strLeaf$[ebp]
  00292	52		 push	 edx
  00293	8b 45 fc	 mov	 eax, DWORD PTR _s_strSearchPath$[ebp]
  00296	50		 push	 eax
  00297	68 00 00 00 00	 push	 OFFSET $SG163598
  0029c	8b 4d 0c	 mov	 ecx, DWORD PTR _cchSearch$[ebp]
  0029f	51		 push	 ecx
  002a0	8b 55 08	 mov	 edx, DWORD PTR _strSearchPath$[ebp]
  002a3	52		 push	 edx
  002a4	ff 15 00 00 00
	00		 call	 DWORD PTR __imp__swprintf_s
  002aa	83 c4 14	 add	 esp, 20			; 00000014H
  002ad	3b f4		 cmp	 esi, esp
  002af	e8 00 00 00 00	 call	 __RTC_CheckEsp
; Line 412
  002b4	8b f4		 mov	 esi, esp
  002b6	8b 45 08	 mov	 eax, DWORD PTR _strSearchPath$[ebp]
  002b9	50		 push	 eax
  002ba	ff 15 00 00 00
	00		 call	 DWORD PTR __imp__GetFileAttributesW@4
  002c0	3b f4		 cmp	 esi, esp
  002c2	e8 00 00 00 00	 call	 __RTC_CheckEsp
  002c7	83 f8 ff	 cmp	 eax, -1
  002ca	74 04		 je	 SHORT $LN2@DXUTFindMe
; Line 413
  002cc	b0 01		 mov	 al, 1
  002ce	eb 02		 jmp	 SHORT $LN12@DXUTFindMe
$LN2@DXUTFindMe:
; Line 416
  002d0	32 c0		 xor	 al, al
$LN12@DXUTFindMe:
; Line 417
  002d2	5e		 pop	 esi
  002d3	83 c4 04	 add	 esp, 4
  002d6	3b ec		 cmp	 ebp, esp
  002d8	e8 00 00 00 00	 call	 __RTC_CheckEsp
  002dd	8b e5		 mov	 esp, ebp
  002df	5d		 pop	 ebp
  002e0	c3		 ret	 0
?DXUTFindMediaSearchTypicalDirs@@YA_NPA_WHPB_W11@Z ENDP	; DXUTFindMediaSearchTypicalDirs
_TEXT	ENDS
; Function compile flags: /Odtp /RTCsu
;	COMDAT ??0?$function@$$A6AXPAUIPropertyBag2@@@Z@std@@QAE@$$T@Z
_TEXT	SEGMENT
_this$ = -4						; size = 4
___formal$ = 8						; size = 4
??0?$function@$$A6AXPAUIPropertyBag2@@@Z@std@@QAE@$$T@Z PROC ; std::function<void __cdecl(IPropertyBag2 *)>::function<void __cdecl(IPropertyBag2 *)>, COMDAT
; _this$ = ecx
; File c:\program files (x86)\microsoft visual studio 12.0\vc\include\functional
; Line 561
  00000	55		 push	 ebp
  00001	8b ec		 mov	 ebp, esp
  00003	51		 push	 ecx
  00004	c7 45 fc cc cc
	cc cc		 mov	 DWORD PTR [ebp-4], -858993460 ; ccccccccH
  0000b	89 4d fc	 mov	 DWORD PTR _this$[ebp], ecx
  0000e	8b 4d fc	 mov	 ecx, DWORD PTR _this$[ebp]
  00011	e8 00 00 00 00	 call	 ??0?$_Func_class@XPAUIPropertyBag2@@@std@@QAE@XZ ; std::_Func_class<void,IPropertyBag2 *>::_Func_class<void,IPropertyBag2 *>
; Line 563
  00016	8b 4d fc	 mov	 ecx, DWORD PTR _this$[ebp]
  00019	e8 00 00 00 00	 call	 ?_Reset@?$_Func_class@XPAUIPropertyBag2@@@std@@IAEXXZ ; std::_Func_class<void,IPropertyBag2 *>::_Reset
; Line 564
  0001e	8b 45 fc	 mov	 eax, DWORD PTR _this$[ebp]
  00021	83 c4 04	 add	 esp, 4
  00024	3b ec		 cmp	 ebp, esp
  00026	e8 00 00 00 00	 call	 __RTC_CheckEsp
  0002b	8b e5		 mov	 esp, ebp
  0002d	5d		 pop	 ebp
  0002e	c2 04 00	 ret	 4
??0?$function@$$A6AXPAUIPropertyBag2@@@Z@std@@QAE@$$T@Z ENDP ; std::function<void __cdecl(IPropertyBag2 *)>::function<void __cdecl(IPropertyBag2 *)>
_TEXT	ENDS
; Function compile flags: /Odtp /RTCsu
;	COMDAT ?_Set@?$_Func_class@XPAUIPropertyBag2@@@std@@AAEXPAV?$_Func_base@XPAUIPropertyBag2@@@2@@Z
_TEXT	SEGMENT
_this$ = -4						; size = 4
__Ptr$ = 8						; size = 4
?_Set@?$_Func_class@XPAUIPropertyBag2@@@std@@AAEXPAV?$_Func_base@XPAUIPropertyBag2@@@2@@Z PROC ; std::_Func_class<void,IPropertyBag2 *>::_Set, COMDAT
; _this$ = ecx
; File c:\program files (x86)\microsoft visual studio 12.0\vc\include\functional
; Line 510
  00000	55		 push	 ebp
  00001	8b ec		 mov	 ebp, esp
  00003	51		 push	 ecx
  00004	c7 45 fc cc cc
	cc cc		 mov	 DWORD PTR [ebp-4], -858993460 ; ccccccccH
  0000b	89 4d fc	 mov	 DWORD PTR _this$[ebp], ecx
; Line 511
  0000e	8b 45 fc	 mov	 eax, DWORD PTR _this$[ebp]
  00011	8b 4d 08	 mov	 ecx, DWORD PTR __Ptr$[ebp]
  00014	89 48 10	 mov	 DWORD PTR [eax+16], ecx
; Line 512
  00017	8b e5		 mov	 esp, ebp
  00019	5d		 pop	 ebp
  0001a	c2 04 00	 ret	 4
?_Set@?$_Func_class@XPAUIPropertyBag2@@@std@@AAEXPAV?$_Func_base@XPAUIPropertyBag2@@@2@@Z ENDP ; std::_Func_class<void,IPropertyBag2 *>::_Set
_TEXT	ENDS
; Function compile flags: /Odtp /RTCsu
;	COMDAT ?_Reset@?$_Func_class@XPAUIPropertyBag2@@@std@@IAEXXZ
_TEXT	SEGMENT
_this$ = -4						; size = 4
?_Reset@?$_Func_class@XPAUIPropertyBag2@@@std@@IAEXXZ PROC ; std::_Func_class<void,IPropertyBag2 *>::_Reset, COMDAT
; _this$ = ecx
; File c:\program files (x86)\microsoft visual studio 12.0\vc\include\functional
; Line 330
  00000	55		 push	 ebp
  00001	8b ec		 mov	 ebp, esp
  00003	51		 push	 ecx
  00004	c7 45 fc cc cc
	cc cc		 mov	 DWORD PTR [ebp-4], -858993460 ; ccccccccH
  0000b	89 4d fc	 mov	 DWORD PTR _this$[ebp], ecx
; Line 331
  0000e	6a 00		 push	 0
  00010	8b 4d fc	 mov	 ecx, DWORD PTR _this$[ebp]
  00013	e8 00 00 00 00	 call	 ?_Set@?$_Func_class@XPAUIPropertyBag2@@@std@@AAEXPAV?$_Func_base@XPAUIPropertyBag2@@@2@@Z ; std::_Func_class<void,IPropertyBag2 *>::_Set
; Line 332
  00018	83 c4 04	 add	 esp, 4
  0001b	3b ec		 cmp	 ebp, esp
  0001d	e8 00 00 00 00	 call	 __RTC_CheckEsp
  00022	8b e5		 mov	 esp, ebp
  00024	5d		 pop	 ebp
  00025	c3		 ret	 0
?_Reset@?$_Func_class@XPAUIPropertyBag2@@@std@@IAEXXZ ENDP ; std::_Func_class<void,IPropertyBag2 *>::_Reset
_TEXT	ENDS
; Function compile flags: /Odtp /RTCsu
;	COMDAT ??0?$_Func_class@XPAUIPropertyBag2@@@std@@QAE@XZ
_TEXT	SEGMENT
_this$ = -4						; size = 4
??0?$_Func_class@XPAUIPropertyBag2@@@std@@QAE@XZ PROC	; std::_Func_class<void,IPropertyBag2 *>::_Func_class<void,IPropertyBag2 *>, COMDAT
; _this$ = ecx
; File c:\program files (x86)\microsoft visual studio 12.0\vc\include\functional
; Line 308
  00000	55		 push	 ebp
  00001	8b ec		 mov	 ebp, esp
  00003	51		 push	 ecx
  00004	c7 45 fc cc cc
	cc cc		 mov	 DWORD PTR [ebp-4], -858993460 ; ccccccccH
  0000b	89 4d fc	 mov	 DWORD PTR _this$[ebp], ecx
  0000e	8b 45 fc	 mov	 eax, DWORD PTR _this$[ebp]
  00011	c7 40 10 00 00
	00 00		 mov	 DWORD PTR [eax+16], 0
; Line 309
  00018	8b 45 fc	 mov	 eax, DWORD PTR _this$[ebp]
  0001b	8b e5		 mov	 esp, ebp
  0001d	5d		 pop	 ebp
  0001e	c3		 ret	 0
??0?$_Func_class@XPAUIPropertyBag2@@@std@@QAE@XZ ENDP	; std::_Func_class<void,IPropertyBag2 *>::_Func_class<void,IPropertyBag2 *>
_TEXT	ENDS
; Function compile flags: /Odtp /RTCsu
;	COMDAT ??__E_Tuple_alloc@std@@YAXXZ
text$di	SEGMENT
$T1 = -1						; size = 1
??__E_Tuple_alloc@std@@YAXXZ PROC			; std::`dynamic initializer for '_Tuple_alloc'', COMDAT
; File c:\program files (x86)\microsoft visual studio 12.0\vc\include\tuple
; Line 66
  00000	55		 push	 ebp
  00001	8b ec		 mov	 ebp, esp
  00003	51		 push	 ecx
  00004	c7 45 fc cc cc
	cc cc		 mov	 DWORD PTR [ebp-4], -858993460 ; ccccccccH
  0000b	33 c0		 xor	 eax, eax
  0000d	88 45 ff	 mov	 BYTE PTR $T1[ebp], al
  00010	8b e5		 mov	 esp, ebp
  00012	5d		 pop	 ebp
  00013	c3		 ret	 0
??__E_Tuple_alloc@std@@YAXXZ ENDP			; std::`dynamic initializer for '_Tuple_alloc''
text$di	ENDS
; Function compile flags: /Odtp /RTCsu
;	COMDAT ??__Eignore@std@@YAXXZ
text$di	SEGMENT
??__Eignore@std@@YAXXZ PROC				; std::`dynamic initializer for 'ignore'', COMDAT
; File c:\program files (x86)\microsoft visual studio 12.0\vc\include\tuple
; Line 59
  00000	55		 push	 ebp
  00001	8b ec		 mov	 ebp, esp
  00003	b9 00 00 00 00	 mov	 ecx, OFFSET _ignore
  00008	e8 00 00 00 00	 call	 ??0_Ignore@std@@QAE@XZ	; std::_Ignore::_Ignore
  0000d	3b ec		 cmp	 ebp, esp
  0000f	e8 00 00 00 00	 call	 __RTC_CheckEsp
  00014	5d		 pop	 ebp
  00015	c3		 ret	 0
??__Eignore@std@@YAXXZ ENDP				; std::`dynamic initializer for 'ignore''
text$di	ENDS
; Function compile flags: /Odtp /RTCsu
;	COMDAT ??0_Ignore@std@@QAE@XZ
_TEXT	SEGMENT
_this$ = -4						; size = 4
??0_Ignore@std@@QAE@XZ PROC				; std::_Ignore::_Ignore, COMDAT
; _this$ = ecx
; File c:\program files (x86)\microsoft visual studio 12.0\vc\include\tuple
; Line 49
  00000	55		 push	 ebp
  00001	8b ec		 mov	 ebp, esp
  00003	51		 push	 ecx
  00004	c7 45 fc cc cc
	cc cc		 mov	 DWORD PTR [ebp-4], -858993460 ; ccccccccH
  0000b	89 4d fc	 mov	 DWORD PTR _this$[ebp], ecx
; Line 51
  0000e	8b 45 fc	 mov	 eax, DWORD PTR _this$[ebp]
  00011	8b e5		 mov	 esp, ebp
  00013	5d		 pop	 ebp
  00014	c3		 ret	 0
??0_Ignore@std@@QAE@XZ ENDP				; std::_Ignore::_Ignore
_TEXT	ENDS
; Function compile flags: /Odtp /RTCsu
_TEXT	SEGMENT
tv158 = -352						; size = 16
tv156 = -336						; size = 16
$T1 = -320						; size = 64
$T2 = -256						; size = 64
$T3 = -192						; size = 64
$T4 = -128						; size = 16
$T5 = -112						; size = 16
$T6 = -96						; size = 16
$T7 = -80						; size = 64
__$ArrayPad$ = -4					; size = 4
___$ReturnUdt$ = 8					; size = 4
_dwFace$ = 12						; size = 4
?DXUTGetCubeMapViewMatrix@@YG?AUXMMATRIX@DirectX@@K@Z PROC ; DXUTGetCubeMapViewMatrix
; File d:\engine class\assignment 1\new scratch\dxut\optional\sdkmisc.cpp
; Line 779
  00000	53		 push	 ebx
  00001	8b dc		 mov	 ebx, esp
  00003	83 ec 08	 sub	 esp, 8
  00006	83 e4 f0	 and	 esp, -16		; fffffff0H
  00009	83 c4 04	 add	 esp, 4
  0000c	55		 push	 ebp
  0000d	8b 6b 04	 mov	 ebp, DWORD PTR [ebx+4]
  00010	89 6c 24 04	 mov	 DWORD PTR [esp+4], ebp
  00014	8b ec		 mov	 ebp, esp
  00016	81 ec 68 01 00
	00		 sub	 esp, 360		; 00000168H
  0001c	56		 push	 esi
  0001d	57		 push	 edi
  0001e	8d bd 98 fe ff
	ff		 lea	 edi, DWORD PTR [ebp-360]
  00024	b9 5a 00 00 00	 mov	 ecx, 90			; 0000005aH
  00029	b8 cc cc cc cc	 mov	 eax, -858993460		; ccccccccH
  0002e	f3 ab		 rep stosd
  00030	a1 00 00 00 00	 mov	 eax, DWORD PTR ___security_cookie
  00035	33 c5		 xor	 eax, ebp
  00037	89 45 fc	 mov	 DWORD PTR __$ArrayPad$[ebp], eax
; Line 803
  0003a	83 7b 0c 06	 cmp	 DWORD PTR _dwFace$[ebx], 6
  0003e	73 06		 jae	 SHORT $LN1@DXUTGetCub
  00040	83 7b 0c 06	 cmp	 DWORD PTR _dwFace$[ebx], 6
  00044	72 46		 jb	 SHORT $LN2@DXUTGetCub
$LN1@DXUTGetCub:
; Line 804
  00046	e8 00 00 00 00	 call	 ?XMMatrixIdentity@DirectX@@YQ?AUXMMATRIX@1@XZ ; DirectX::XMMatrixIdentity
  0004b	0f 29 9d 30 ff
	ff ff		 movaps	 XMMWORD PTR $T2[ebp+48], xmm3
  00052	0f 29 95 20 ff
	ff ff		 movaps	 XMMWORD PTR $T2[ebp+32], xmm2
  00059	0f 29 8d 10 ff
	ff ff		 movaps	 XMMWORD PTR $T2[ebp+16], xmm1
  00060	0f 29 85 00 ff
	ff ff		 movaps	 XMMWORD PTR $T2[ebp], xmm0
  00067	b9 10 00 00 00	 mov	 ecx, 16			; 00000010H
  0006c	8d b5 00 ff ff
	ff		 lea	 esi, DWORD PTR $T2[ebp]
  00072	8d 7d b0	 lea	 edi, DWORD PTR $T7[ebp]
  00075	f3 a5		 rep movsd
  00077	b9 10 00 00 00	 mov	 ecx, 16			; 00000010H
  0007c	8d 75 b0	 lea	 esi, DWORD PTR $T7[ebp]
  0007f	8b 7b 08	 mov	 edi, DWORD PTR ___$ReturnUdt$[ebx]
  00082	f3 a5		 rep movsd
  00084	8b 43 08	 mov	 eax, DWORD PTR ___$ReturnUdt$[ebx]
  00087	e9 a4 00 00 00	 jmp	 $LN3@DXUTGetCub
$LN2@DXUTGetCub:
; Line 807
  0008c	8d 45 a0	 lea	 eax, DWORD PTR $T6[ebp]
  0008f	50		 push	 eax
  00090	8b 4b 0c	 mov	 ecx, DWORD PTR _dwFace$[ebx]
  00093	c1 e1 04	 shl	 ecx, 4
  00096	81 c1 00 00 00
	00		 add	 ecx, OFFSET ?s_vUpDir@?1??DXUTGetCubeMapViewMatrix@@YG?AUXMMATRIX@DirectX@@K@Z@4QBUXMVECTORF32@3@B
  0009c	e8 00 00 00 00	 call	 ??BXMVECTORF32@DirectX@@QBE?AT__m128@@XZ ; DirectX::XMVECTORF32::operator __m128
  000a1	0f 10 00	 movups	 xmm0, XMMWORD PTR [eax]
  000a4	8d 4d 90	 lea	 ecx, DWORD PTR $T5[ebp]
  000a7	51		 push	 ecx
  000a8	8b 4b 0c	 mov	 ecx, DWORD PTR _dwFace$[ebx]
  000ab	c1 e1 04	 shl	 ecx, 4
  000ae	81 c1 00 00 00
	00		 add	 ecx, OFFSET ?s_vLookDir@?1??DXUTGetCubeMapViewMatrix@@YG?AUXMMATRIX@DirectX@@K@Z@4QBUXMVECTORF32@3@B
  000b4	0f 29 85 b0 fe
	ff ff		 movaps	 XMMWORD PTR tv156[ebp], xmm0
  000bb	e8 00 00 00 00	 call	 ??BXMVECTORF32@DirectX@@QBE?AT__m128@@XZ ; DirectX::XMVECTORF32::operator __m128
  000c0	0f 10 00	 movups	 xmm0, XMMWORD PTR [eax]
  000c3	8d 55 80	 lea	 edx, DWORD PTR $T4[ebp]
  000c6	52		 push	 edx
  000c7	b9 00 00 00 00	 mov	 ecx, OFFSET ?g_XMZero@DirectX@@3UXMVECTORF32@1@B ; DirectX::g_XMZero
  000cc	0f 29 85 a0 fe
	ff ff		 movaps	 XMMWORD PTR tv158[ebp], xmm0
  000d3	e8 00 00 00 00	 call	 ??BXMVECTORF32@DirectX@@QBE?AT__m128@@XZ ; DirectX::XMVECTORF32::operator __m128
  000d8	0f 10 00	 movups	 xmm0, XMMWORD PTR [eax]
  000db	0f 28 8d a0 fe
	ff ff		 movaps	 xmm1, XMMWORD PTR tv158[ebp]
  000e2	0f 28 95 b0 fe
	ff ff		 movaps	 xmm2, XMMWORD PTR tv156[ebp]
  000e9	e8 00 00 00 00	 call	 ?XMMatrixLookAtLH@DirectX@@YQ?AUXMMATRIX@1@T__m128@@00@Z ; DirectX::XMMatrixLookAtLH
  000ee	0f 29 9d f0 fe
	ff ff		 movaps	 XMMWORD PTR $T1[ebp+48], xmm3
  000f5	0f 29 95 e0 fe
	ff ff		 movaps	 XMMWORD PTR $T1[ebp+32], xmm2
  000fc	0f 29 8d d0 fe
	ff ff		 movaps	 XMMWORD PTR $T1[ebp+16], xmm1
  00103	0f 29 85 c0 fe
	ff ff		 movaps	 XMMWORD PTR $T1[ebp], xmm0
  0010a	b9 10 00 00 00	 mov	 ecx, 16			; 00000010H
  0010f	8d b5 c0 fe ff
	ff		 lea	 esi, DWORD PTR $T1[ebp]
  00115	8d bd 40 ff ff
	ff		 lea	 edi, DWORD PTR $T3[ebp]
  0011b	f3 a5		 rep movsd
  0011d	b9 10 00 00 00	 mov	 ecx, 16			; 00000010H
  00122	8d b5 40 ff ff
	ff		 lea	 esi, DWORD PTR $T3[ebp]
  00128	8b 7b 08	 mov	 edi, DWORD PTR ___$ReturnUdt$[ebx]
  0012b	f3 a5		 rep movsd
  0012d	8b 43 08	 mov	 eax, DWORD PTR ___$ReturnUdt$[ebx]
$LN3@DXUTGetCub:
; Line 808
  00130	5f		 pop	 edi
  00131	5e		 pop	 esi
  00132	8b 4d fc	 mov	 ecx, DWORD PTR __$ArrayPad$[ebp]
  00135	33 cd		 xor	 ecx, ebp
  00137	e8 00 00 00 00	 call	 @__security_check_cookie@4
  0013c	8b e5		 mov	 esp, ebp
  0013e	5d		 pop	 ebp
  0013f	8b e3		 mov	 esp, ebx
  00141	5b		 pop	 ebx
  00142	c2 08 00	 ret	 8
?DXUTGetCubeMapViewMatrix@@YG?AUXMMATRIX@DirectX@@K@Z ENDP ; DXUTGetCubeMapViewMatrix
_TEXT	ENDS
; Function compile flags: /Odtp /RTCsu
_TEXT	SEGMENT
tv95 = -16						; size = 4
tv94 = -12						; size = 4
$T1 = -8						; size = 4
_hr$ = -4						; size = 4
_pContext$ = 8						; size = 4
_pSource$ = 12						; size = 4
_usedds$ = 16						; size = 1
_szFileName$ = 20					; size = 4
?DXUTSaveTextureToFile@@YGJPAUID3D11DeviceContext@@PAUID3D11Resource@@_NPB_W@Z PROC ; DXUTSaveTextureToFile
; File d:\engine class\assignment 1\new scratch\dxut\optional\sdkmisc.cpp
; Line 756
  00000	55		 push	 ebp
  00001	8b ec		 mov	 ebp, esp
  00003	83 ec 10	 sub	 esp, 16			; 00000010H
  00006	b8 cc cc cc cc	 mov	 eax, -858993460		; ccccccccH
  0000b	89 45 f0	 mov	 DWORD PTR [ebp-16], eax
  0000e	89 45 f4	 mov	 DWORD PTR [ebp-12], eax
  00011	89 45 f8	 mov	 DWORD PTR [ebp-8], eax
  00014	89 45 fc	 mov	 DWORD PTR [ebp-4], eax
; Line 757
  00017	83 7d 08 00	 cmp	 DWORD PTR _pContext$[ebp], 0
  0001b	74 0c		 je	 SHORT $LN3@DXUTSaveTe
  0001d	83 7d 0c 00	 cmp	 DWORD PTR _pSource$[ebp], 0
  00021	74 06		 je	 SHORT $LN3@DXUTSaveTe
  00023	83 7d 14 00	 cmp	 DWORD PTR _szFileName$[ebp], 0
  00027	75 07		 jne	 SHORT $LN4@DXUTSaveTe
$LN3@DXUTSaveTe:
; Line 758
  00029	b8 57 00 07 80	 mov	 eax, -2147024809	; 80070057H
  0002e	eb 5a		 jmp	 SHORT $LN5@DXUTSaveTe
$LN4@DXUTSaveTe:
; Line 762
  00030	0f b6 45 10	 movzx	 eax, BYTE PTR _usedds$[ebp]
  00034	85 c0		 test	 eax, eax
  00036	74 19		 je	 SHORT $LN2@DXUTSaveTe
; Line 764
  00038	8b 4d 14	 mov	 ecx, DWORD PTR _szFileName$[ebp]
  0003b	51		 push	 ecx
  0003c	8b 55 0c	 mov	 edx, DWORD PTR _pSource$[ebp]
  0003f	52		 push	 edx
  00040	8b 45 08	 mov	 eax, DWORD PTR _pContext$[ebp]
  00043	50		 push	 eax
  00044	e8 00 00 00 00	 call	 ?SaveDDSTextureToFile@DirectX@@YAJPAUID3D11DeviceContext@@PAUID3D11Resource@@PB_W@Z ; DirectX::SaveDDSTextureToFile
  00049	83 c4 0c	 add	 esp, 12			; 0000000cH
  0004c	89 45 fc	 mov	 DWORD PTR _hr$[ebp], eax
; Line 766
  0004f	eb 36		 jmp	 SHORT $LN1@DXUTSaveTe
$LN2@DXUTSaveTe:
; Line 768
  00051	83 ec 18	 sub	 esp, 24			; 00000018H
  00054	8b cc		 mov	 ecx, esp
  00056	89 65 f8	 mov	 DWORD PTR $T1[ebp], esp
  00059	6a 00		 push	 0
  0005b	e8 00 00 00 00	 call	 ??0?$function@$$A6AXPAUIPropertyBag2@@@Z@std@@QAE@$$T@Z ; std::function<void __cdecl(IPropertyBag2 *)>::function<void __cdecl(IPropertyBag2 *)>
  00060	89 45 f4	 mov	 DWORD PTR tv94[ebp], eax
  00063	6a 00		 push	 0
  00065	8b 4d 14	 mov	 ecx, DWORD PTR _szFileName$[ebp]
  00068	51		 push	 ecx
  00069	68 00 00 00 00	 push	 OFFSET _GUID_ContainerFormatBmp
  0006e	8b 55 0c	 mov	 edx, DWORD PTR _pSource$[ebp]
  00071	52		 push	 edx
  00072	8b 45 08	 mov	 eax, DWORD PTR _pContext$[ebp]
  00075	50		 push	 eax
  00076	e8 00 00 00 00	 call	 ?SaveWICTextureToFile@DirectX@@YAJPAUID3D11DeviceContext@@PAUID3D11Resource@@ABU_GUID@@PB_WPBU4@V?$function@$$A6AXPAUIPropertyBag2@@@Z@std@@@Z ; DirectX::SaveWICTextureToFile
  0007b	83 c4 2c	 add	 esp, 44			; 0000002cH
  0007e	89 45 f0	 mov	 DWORD PTR tv95[ebp], eax
  00081	8b 4d f0	 mov	 ecx, DWORD PTR tv95[ebp]
  00084	89 4d fc	 mov	 DWORD PTR _hr$[ebp], ecx
$LN1@DXUTSaveTe:
; Line 771
  00087	8b 45 fc	 mov	 eax, DWORD PTR _hr$[ebp]
$LN5@DXUTSaveTe:
; Line 772
  0008a	83 c4 10	 add	 esp, 16			; 00000010H
  0008d	3b ec		 cmp	 ebp, esp
  0008f	e8 00 00 00 00	 call	 __RTC_CheckEsp
  00094	8b e5		 mov	 esp, ebp
  00096	5d		 pop	 ebp
  00097	c2 10 00	 ret	 16			; 00000010H
?DXUTSaveTextureToFile@@YGJPAUID3D11DeviceContext@@PAUID3D11Resource@@_NPB_W@Z ENDP ; DXUTSaveTextureToFile
_TEXT	ENDS
; Function compile flags: /Odtp /RTCsu
_TEXT	SEGMENT
_ext$ = -1052						; size = 512
_hr$ = -536						; size = 4
_str$ = -528						; size = 520
__$ArrayPad$ = -4					; size = 4
_d3dDevice$ = 8						; size = 4
_szFileName$ = 12					; size = 4
_texture$ = 16						; size = 4
?DXUTCreateTextureFromFile@@YGJPAUID3D11Device@@PB_WPAPAUID3D11Resource@@@Z PROC ; DXUTCreateTextureFromFile
; File d:\engine class\assignment 1\new scratch\dxut\optional\sdkmisc.cpp
; Line 730
  00000	55		 push	 ebp
  00001	8b ec		 mov	 ebp, esp
  00003	81 ec 20 04 00
	00		 sub	 esp, 1056		; 00000420H
  00009	56		 push	 esi
  0000a	57		 push	 edi
  0000b	8d bd e0 fb ff
	ff		 lea	 edi, DWORD PTR [ebp-1056]
  00011	b9 08 01 00 00	 mov	 ecx, 264		; 00000108H
  00016	b8 cc cc cc cc	 mov	 eax, -858993460		; ccccccccH
  0001b	f3 ab		 rep stosd
  0001d	a1 00 00 00 00	 mov	 eax, DWORD PTR ___security_cookie
  00022	33 c5		 xor	 eax, ebp
  00024	89 45 fc	 mov	 DWORD PTR __$ArrayPad$[ebp], eax
; Line 731
  00027	83 7d 08 00	 cmp	 DWORD PTR _d3dDevice$[ebp], 0
  0002b	74 0c		 je	 SHORT $LN4@DXUTCreate
  0002d	83 7d 0c 00	 cmp	 DWORD PTR _szFileName$[ebp], 0
  00031	74 06		 je	 SHORT $LN4@DXUTCreate
  00033	83 7d 10 00	 cmp	 DWORD PTR _texture$[ebp], 0
  00037	75 0a		 jne	 SHORT $LN5@DXUTCreate
$LN4@DXUTCreate:
; Line 732
  00039	b8 57 00 07 80	 mov	 eax, -2147024809	; 80070057H
  0003e	e9 d0 00 00 00	 jmp	 $LN6@DXUTCreate
$LN5@DXUTCreate:
; Line 735
  00043	8b 45 0c	 mov	 eax, DWORD PTR _szFileName$[ebp]
  00046	50		 push	 eax
  00047	68 04 01 00 00	 push	 260			; 00000104H
  0004c	8d 8d f0 fd ff
	ff		 lea	 ecx, DWORD PTR _str$[ebp]
  00052	51		 push	 ecx
  00053	e8 00 00 00 00	 call	 ?DXUTFindDXSDKMediaFileCch@@YGJPA_WHPB_W@Z ; DXUTFindDXSDKMediaFileCch
  00058	89 85 e8 fd ff
	ff		 mov	 DWORD PTR _hr$[ebp], eax
; Line 736
  0005e	83 bd e8 fd ff
	ff 00		 cmp	 DWORD PTR _hr$[ebp], 0
  00065	7d 0b		 jge	 SHORT $LN3@DXUTCreate
; Line 737
  00067	8b 85 e8 fd ff
	ff		 mov	 eax, DWORD PTR _hr$[ebp]
  0006d	e9 a1 00 00 00	 jmp	 $LN6@DXUTCreate
$LN3@DXUTCreate:
; Line 740
  00072	8b f4		 mov	 esi, esp
  00074	68 00 01 00 00	 push	 256			; 00000100H
  00079	8d 95 e4 fb ff
	ff		 lea	 edx, DWORD PTR _ext$[ebp]
  0007f	52		 push	 edx
  00080	6a 00		 push	 0
  00082	6a 00		 push	 0
  00084	6a 00		 push	 0
  00086	6a 00		 push	 0
  00088	6a 00		 push	 0
  0008a	6a 00		 push	 0
  0008c	8d 85 f0 fd ff
	ff		 lea	 eax, DWORD PTR _str$[ebp]
  00092	50		 push	 eax
  00093	ff 15 00 00 00
	00		 call	 DWORD PTR __imp___wsplitpath_s
  00099	83 c4 24	 add	 esp, 36			; 00000024H
  0009c	3b f4		 cmp	 esi, esp
  0009e	e8 00 00 00 00	 call	 __RTC_CheckEsp
; Line 742
  000a3	8b f4		 mov	 esi, esp
  000a5	68 00 00 00 00	 push	 OFFSET $SG163669
  000aa	8d 8d e4 fb ff
	ff		 lea	 ecx, DWORD PTR _ext$[ebp]
  000b0	51		 push	 ecx
  000b1	ff 15 00 00 00
	00		 call	 DWORD PTR __imp___wcsicmp
  000b7	83 c4 08	 add	 esp, 8
  000ba	3b f4		 cmp	 esi, esp
  000bc	e8 00 00 00 00	 call	 __RTC_CheckEsp
  000c1	85 c0		 test	 eax, eax
  000c3	75 25		 jne	 SHORT $LN2@DXUTCreate
; Line 744
  000c5	6a 00		 push	 0
  000c7	6a 00		 push	 0
  000c9	6a 00		 push	 0
  000cb	8b 55 10	 mov	 edx, DWORD PTR _texture$[ebp]
  000ce	52		 push	 edx
  000cf	8d 85 f0 fd ff
	ff		 lea	 eax, DWORD PTR _str$[ebp]
  000d5	50		 push	 eax
  000d6	8b 4d 08	 mov	 ecx, DWORD PTR _d3dDevice$[ebp]
  000d9	51		 push	 ecx
  000da	e8 00 00 00 00	 call	 ?CreateDDSTextureFromFile@DirectX@@YAJPAUID3D11Device@@PB_WPAPAUID3D11Resource@@PAPAUID3D11ShaderResourceView@@IPAW4DDS_ALPHA_MODE@1@@Z ; DirectX::CreateDDSTextureFromFile
  000df	83 c4 18	 add	 esp, 24			; 00000018H
  000e2	89 85 e8 fd ff
	ff		 mov	 DWORD PTR _hr$[ebp], eax
; Line 746
  000e8	eb 23		 jmp	 SHORT $LN1@DXUTCreate
$LN2@DXUTCreate:
; Line 748
  000ea	6a 00		 push	 0
  000ec	6a 00		 push	 0
  000ee	8b 55 10	 mov	 edx, DWORD PTR _texture$[ebp]
  000f1	52		 push	 edx
  000f2	8d 85 f0 fd ff
	ff		 lea	 eax, DWORD PTR _str$[ebp]
  000f8	50		 push	 eax
  000f9	6a 00		 push	 0
  000fb	8b 4d 08	 mov	 ecx, DWORD PTR _d3dDevice$[ebp]
  000fe	51		 push	 ecx
  000ff	e8 00 00 00 00	 call	 ?CreateWICTextureFromFile@DirectX@@YAJPAUID3D11Device@@PAUID3D11DeviceContext@@PB_WPAPAUID3D11Resource@@PAPAUID3D11ShaderResourceView@@I@Z ; DirectX::CreateWICTextureFromFile
  00104	83 c4 18	 add	 esp, 24			; 00000018H
  00107	89 85 e8 fd ff
	ff		 mov	 DWORD PTR _hr$[ebp], eax
$LN1@DXUTCreate:
; Line 751
  0010d	8b 85 e8 fd ff
	ff		 mov	 eax, DWORD PTR _hr$[ebp]
$LN6@DXUTCreate:
; Line 752
  00113	52		 push	 edx
  00114	8b cd		 mov	 ecx, ebp
  00116	50		 push	 eax
  00117	8d 15 00 00 00
	00		 lea	 edx, DWORD PTR $LN11@DXUTCreate
  0011d	e8 00 00 00 00	 call	 @_RTC_CheckStackVars@8
  00122	58		 pop	 eax
  00123	5a		 pop	 edx
  00124	5f		 pop	 edi
  00125	5e		 pop	 esi
  00126	8b 4d fc	 mov	 ecx, DWORD PTR __$ArrayPad$[ebp]
  00129	33 cd		 xor	 ecx, ebp
  0012b	e8 00 00 00 00	 call	 @__security_check_cookie@4
  00130	81 c4 20 04 00
	00		 add	 esp, 1056		; 00000420H
  00136	3b ec		 cmp	 ebp, esp
  00138	e8 00 00 00 00	 call	 __RTC_CheckEsp
  0013d	8b e5		 mov	 esp, ebp
  0013f	5d		 pop	 ebp
  00140	c2 0c 00	 ret	 12			; 0000000cH
  00143	90		 npad	 1
$LN11@DXUTCreate:
  00144	02 00 00 00	 DD	 2
  00148	00 00 00 00	 DD	 $LN10@DXUTCreate
$LN10@DXUTCreate:
  0014c	f0 fd ff ff	 DD	 -528			; fffffdf0H
  00150	08 02 00 00	 DD	 520			; 00000208H
  00154	00 00 00 00	 DD	 $LN8@DXUTCreate
  00158	e4 fb ff ff	 DD	 -1052			; fffffbe4H
  0015c	00 02 00 00	 DD	 512			; 00000200H
  00160	00 00 00 00	 DD	 $LN9@DXUTCreate
$LN9@DXUTCreate:
  00164	65		 DB	 101			; 00000065H
  00165	78		 DB	 120			; 00000078H
  00166	74		 DB	 116			; 00000074H
  00167	00		 DB	 0
$LN8@DXUTCreate:
  00168	73		 DB	 115			; 00000073H
  00169	74		 DB	 116			; 00000074H
  0016a	72		 DB	 114			; 00000072H
  0016b	00		 DB	 0
?DXUTCreateTextureFromFile@@YGJPAUID3D11Device@@PB_WPAPAUID3D11Resource@@@Z ENDP ; DXUTCreateTextureFromFile
_TEXT	ENDS
; Function compile flags: /Odtp /RTCsu
_TEXT	SEGMENT
_ext$ = -1052						; size = 512
_hr$ = -536						; size = 4
_str$ = -528						; size = 520
__$ArrayPad$ = -4					; size = 4
_d3dDevice$ = 8						; size = 4
_szFileName$ = 12					; size = 4
_textureView$ = 16					; size = 4
?DXUTCreateShaderResourceViewFromFile@@YGJPAUID3D11Device@@PB_WPAPAUID3D11ShaderResourceView@@@Z PROC ; DXUTCreateShaderResourceViewFromFile
; File d:\engine class\assignment 1\new scratch\dxut\optional\sdkmisc.cpp
; Line 704
  00000	55		 push	 ebp
  00001	8b ec		 mov	 ebp, esp
  00003	81 ec 20 04 00
	00		 sub	 esp, 1056		; 00000420H
  00009	56		 push	 esi
  0000a	57		 push	 edi
  0000b	8d bd e0 fb ff
	ff		 lea	 edi, DWORD PTR [ebp-1056]
  00011	b9 08 01 00 00	 mov	 ecx, 264		; 00000108H
  00016	b8 cc cc cc cc	 mov	 eax, -858993460		; ccccccccH
  0001b	f3 ab		 rep stosd
  0001d	a1 00 00 00 00	 mov	 eax, DWORD PTR ___security_cookie
  00022	33 c5		 xor	 eax, ebp
  00024	89 45 fc	 mov	 DWORD PTR __$ArrayPad$[ebp], eax
; Line 705
  00027	83 7d 08 00	 cmp	 DWORD PTR _d3dDevice$[ebp], 0
  0002b	74 0c		 je	 SHORT $LN4@DXUTCreate
  0002d	83 7d 0c 00	 cmp	 DWORD PTR _szFileName$[ebp], 0
  00031	74 06		 je	 SHORT $LN4@DXUTCreate
  00033	83 7d 10 00	 cmp	 DWORD PTR _textureView$[ebp], 0
  00037	75 0a		 jne	 SHORT $LN5@DXUTCreate
$LN4@DXUTCreate:
; Line 706
  00039	b8 57 00 07 80	 mov	 eax, -2147024809	; 80070057H
  0003e	e9 d0 00 00 00	 jmp	 $LN6@DXUTCreate
$LN5@DXUTCreate:
; Line 709
  00043	8b 45 0c	 mov	 eax, DWORD PTR _szFileName$[ebp]
  00046	50		 push	 eax
  00047	68 04 01 00 00	 push	 260			; 00000104H
  0004c	8d 8d f0 fd ff
	ff		 lea	 ecx, DWORD PTR _str$[ebp]
  00052	51		 push	 ecx
  00053	e8 00 00 00 00	 call	 ?DXUTFindDXSDKMediaFileCch@@YGJPA_WHPB_W@Z ; DXUTFindDXSDKMediaFileCch
  00058	89 85 e8 fd ff
	ff		 mov	 DWORD PTR _hr$[ebp], eax
; Line 710
  0005e	83 bd e8 fd ff
	ff 00		 cmp	 DWORD PTR _hr$[ebp], 0
  00065	7d 0b		 jge	 SHORT $LN3@DXUTCreate
; Line 711
  00067	8b 85 e8 fd ff
	ff		 mov	 eax, DWORD PTR _hr$[ebp]
  0006d	e9 a1 00 00 00	 jmp	 $LN6@DXUTCreate
$LN3@DXUTCreate:
; Line 714
  00072	8b f4		 mov	 esi, esp
  00074	68 00 01 00 00	 push	 256			; 00000100H
  00079	8d 95 e4 fb ff
	ff		 lea	 edx, DWORD PTR _ext$[ebp]
  0007f	52		 push	 edx
  00080	6a 00		 push	 0
  00082	6a 00		 push	 0
  00084	6a 00		 push	 0
  00086	6a 00		 push	 0
  00088	6a 00		 push	 0
  0008a	6a 00		 push	 0
  0008c	8d 85 f0 fd ff
	ff		 lea	 eax, DWORD PTR _str$[ebp]
  00092	50		 push	 eax
  00093	ff 15 00 00 00
	00		 call	 DWORD PTR __imp___wsplitpath_s
  00099	83 c4 24	 add	 esp, 36			; 00000024H
  0009c	3b f4		 cmp	 esi, esp
  0009e	e8 00 00 00 00	 call	 __RTC_CheckEsp
; Line 716
  000a3	8b f4		 mov	 esi, esp
  000a5	68 00 00 00 00	 push	 OFFSET $SG163653
  000aa	8d 8d e4 fb ff
	ff		 lea	 ecx, DWORD PTR _ext$[ebp]
  000b0	51		 push	 ecx
  000b1	ff 15 00 00 00
	00		 call	 DWORD PTR __imp___wcsicmp
  000b7	83 c4 08	 add	 esp, 8
  000ba	3b f4		 cmp	 esi, esp
  000bc	e8 00 00 00 00	 call	 __RTC_CheckEsp
  000c1	85 c0		 test	 eax, eax
  000c3	75 25		 jne	 SHORT $LN2@DXUTCreate
; Line 718
  000c5	6a 00		 push	 0
  000c7	6a 00		 push	 0
  000c9	8b 55 10	 mov	 edx, DWORD PTR _textureView$[ebp]
  000cc	52		 push	 edx
  000cd	6a 00		 push	 0
  000cf	8d 85 f0 fd ff
	ff		 lea	 eax, DWORD PTR _str$[ebp]
  000d5	50		 push	 eax
  000d6	8b 4d 08	 mov	 ecx, DWORD PTR _d3dDevice$[ebp]
  000d9	51		 push	 ecx
  000da	e8 00 00 00 00	 call	 ?CreateDDSTextureFromFile@DirectX@@YAJPAUID3D11Device@@PB_WPAPAUID3D11Resource@@PAPAUID3D11ShaderResourceView@@IPAW4DDS_ALPHA_MODE@1@@Z ; DirectX::CreateDDSTextureFromFile
  000df	83 c4 18	 add	 esp, 24			; 00000018H
  000e2	89 85 e8 fd ff
	ff		 mov	 DWORD PTR _hr$[ebp], eax
; Line 720
  000e8	eb 23		 jmp	 SHORT $LN1@DXUTCreate
$LN2@DXUTCreate:
; Line 722
  000ea	6a 00		 push	 0
  000ec	8b 55 10	 mov	 edx, DWORD PTR _textureView$[ebp]
  000ef	52		 push	 edx
  000f0	6a 00		 push	 0
  000f2	8d 85 f0 fd ff
	ff		 lea	 eax, DWORD PTR _str$[ebp]
  000f8	50		 push	 eax
  000f9	6a 00		 push	 0
  000fb	8b 4d 08	 mov	 ecx, DWORD PTR _d3dDevice$[ebp]
  000fe	51		 push	 ecx
  000ff	e8 00 00 00 00	 call	 ?CreateWICTextureFromFile@DirectX@@YAJPAUID3D11Device@@PAUID3D11DeviceContext@@PB_WPAPAUID3D11Resource@@PAPAUID3D11ShaderResourceView@@I@Z ; DirectX::CreateWICTextureFromFile
  00104	83 c4 18	 add	 esp, 24			; 00000018H
  00107	89 85 e8 fd ff
	ff		 mov	 DWORD PTR _hr$[ebp], eax
$LN1@DXUTCreate:
; Line 725
  0010d	8b 85 e8 fd ff
	ff		 mov	 eax, DWORD PTR _hr$[ebp]
$LN6@DXUTCreate:
; Line 726
  00113	52		 push	 edx
  00114	8b cd		 mov	 ecx, ebp
  00116	50		 push	 eax
  00117	8d 15 00 00 00
	00		 lea	 edx, DWORD PTR $LN11@DXUTCreate
  0011d	e8 00 00 00 00	 call	 @_RTC_CheckStackVars@8
  00122	58		 pop	 eax
  00123	5a		 pop	 edx
  00124	5f		 pop	 edi
  00125	5e		 pop	 esi
  00126	8b 4d fc	 mov	 ecx, DWORD PTR __$ArrayPad$[ebp]
  00129	33 cd		 xor	 ecx, ebp
  0012b	e8 00 00 00 00	 call	 @__security_check_cookie@4
  00130	81 c4 20 04 00
	00		 add	 esp, 1056		; 00000420H
  00136	3b ec		 cmp	 ebp, esp
  00138	e8 00 00 00 00	 call	 __RTC_CheckEsp
  0013d	8b e5		 mov	 esp, ebp
  0013f	5d		 pop	 ebp
  00140	c2 0c 00	 ret	 12			; 0000000cH
  00143	90		 npad	 1
$LN11@DXUTCreate:
  00144	02 00 00 00	 DD	 2
  00148	00 00 00 00	 DD	 $LN10@DXUTCreate
$LN10@DXUTCreate:
  0014c	f0 fd ff ff	 DD	 -528			; fffffdf0H
  00150	08 02 00 00	 DD	 520			; 00000208H
  00154	00 00 00 00	 DD	 $LN8@DXUTCreate
  00158	e4 fb ff ff	 DD	 -1052			; fffffbe4H
  0015c	00 02 00 00	 DD	 512			; 00000200H
  00160	00 00 00 00	 DD	 $LN9@DXUTCreate
$LN9@DXUTCreate:
  00164	65		 DB	 101			; 00000065H
  00165	78		 DB	 120			; 00000078H
  00166	74		 DB	 116			; 00000074H
  00167	00		 DB	 0
$LN8@DXUTCreate:
  00168	73		 DB	 115			; 00000073H
  00169	74		 DB	 116			; 00000074H
  0016a	72		 DB	 114			; 00000072H
  0016b	00		 DB	 0
?DXUTCreateShaderResourceViewFromFile@@YGJPAUID3D11Device@@PB_WPAPAUID3D11ShaderResourceView@@@Z ENDP ; DXUTCreateShaderResourceViewFromFile
_TEXT	ENDS
; Function compile flags: /Odtp /RTCsu
_TEXT	SEGMENT
_pErrorBlob$ = -544					; size = 4
_str$ = -532						; size = 520
_hr$ = -8						; size = 4
__$ArrayPad$ = -4					; size = 4
_pFileName$ = 8						; size = 4
_pDefines$ = 12						; size = 4
_pEntrypoint$ = 16					; size = 4
_pTarget$ = 20						; size = 4
_Flags1$ = 24						; size = 4
_Flags2$ = 28						; size = 4
_ppCode$ = 32						; size = 4
?DXUTCompileFromFile@@YGJPB_WPBU_D3D_SHADER_MACRO@@PBD2IIPAPAUID3D10Blob@@@Z PROC ; DXUTCompileFromFile
; File d:\engine class\assignment 1\new scratch\dxut\optional\sdkmisc.cpp
; Line 604
  00000	55		 push	 ebp
  00001	8b ec		 mov	 ebp, esp
  00003	81 ec 24 02 00
	00		 sub	 esp, 548		; 00000224H
  00009	56		 push	 esi
  0000a	57		 push	 edi
  0000b	8d bd dc fd ff
	ff		 lea	 edi, DWORD PTR [ebp-548]
  00011	b9 89 00 00 00	 mov	 ecx, 137		; 00000089H
  00016	b8 cc cc cc cc	 mov	 eax, -858993460		; ccccccccH
  0001b	f3 ab		 rep stosd
  0001d	a1 00 00 00 00	 mov	 eax, DWORD PTR ___security_cookie
  00022	33 c5		 xor	 eax, ebp
  00024	89 45 fc	 mov	 DWORD PTR __$ArrayPad$[ebp], eax
; Line 607
  00027	8b 45 08	 mov	 eax, DWORD PTR _pFileName$[ebp]
  0002a	50		 push	 eax
  0002b	68 04 01 00 00	 push	 260			; 00000104H
  00030	8d 8d ec fd ff
	ff		 lea	 ecx, DWORD PTR _str$[ebp]
  00036	51		 push	 ecx
  00037	e8 00 00 00 00	 call	 ?DXUTFindDXSDKMediaFileCch@@YGJPA_WHPB_W@Z ; DXUTFindDXSDKMediaFileCch
  0003c	89 45 f8	 mov	 DWORD PTR _hr$[ebp], eax
  0003f	83 7d f8 00	 cmp	 DWORD PTR _hr$[ebp], 0
  00043	7d 1f		 jge	 SHORT $LN2@DXUTCompil
  00045	6a 01		 push	 1
  00047	68 00 00 00 00	 push	 OFFSET $SG163632
  0004c	8b 55 f8	 mov	 edx, DWORD PTR _hr$[ebp]
  0004f	52		 push	 edx
  00050	68 5f 02 00 00	 push	 607			; 0000025fH
  00055	68 00 00 00 00	 push	 OFFSET $SG163633
  0005a	e8 00 00 00 00	 call	 ?DXUTTrace@@YGJPBDKJPB_W_N@Z ; DXUTTrace
  0005f	e9 99 00 00 00	 jmp	 $LN3@DXUTCompil
$LN2@DXUTCompil:
; Line 614
  00064	8b 45 18	 mov	 eax, DWORD PTR _Flags1$[ebp]
  00067	83 c8 01	 or	 eax, 1
  0006a	89 45 18	 mov	 DWORD PTR _Flags1$[ebp], eax
; Line 617
  0006d	c7 85 e0 fd ff
	ff 00 00 00 00	 mov	 DWORD PTR _pErrorBlob$[ebp], 0
; Line 623
  00077	8d 8d e0 fd ff
	ff		 lea	 ecx, DWORD PTR _pErrorBlob$[ebp]
  0007d	51		 push	 ecx
  0007e	8b 55 20	 mov	 edx, DWORD PTR _ppCode$[ebp]
  00081	52		 push	 edx
  00082	8b 45 1c	 mov	 eax, DWORD PTR _Flags2$[ebp]
  00085	50		 push	 eax
  00086	8b 4d 18	 mov	 ecx, DWORD PTR _Flags1$[ebp]
  00089	51		 push	 ecx
  0008a	8b 55 14	 mov	 edx, DWORD PTR _pTarget$[ebp]
  0008d	52		 push	 edx
  0008e	8b 45 10	 mov	 eax, DWORD PTR _pEntrypoint$[ebp]
  00091	50		 push	 eax
  00092	6a 01		 push	 1
  00094	8b 4d 0c	 mov	 ecx, DWORD PTR _pDefines$[ebp]
  00097	51		 push	 ecx
  00098	8d 95 ec fd ff
	ff		 lea	 edx, DWORD PTR _str$[ebp]
  0009e	52		 push	 edx
  0009f	e8 00 00 00 00	 call	 _D3DCompileFromFile@36
  000a4	89 45 f8	 mov	 DWORD PTR _hr$[ebp], eax
; Line 688
  000a7	83 bd e0 fd ff
	ff 00		 cmp	 DWORD PTR _pErrorBlob$[ebp], 0
  000ae	74 4a		 je	 SHORT $LN1@DXUTCompil
; Line 690
  000b0	8b 85 e0 fd ff
	ff		 mov	 eax, DWORD PTR _pErrorBlob$[ebp]
  000b6	8b 08		 mov	 ecx, DWORD PTR [eax]
  000b8	8b f4		 mov	 esi, esp
  000ba	8b 95 e0 fd ff
	ff		 mov	 edx, DWORD PTR _pErrorBlob$[ebp]
  000c0	52		 push	 edx
  000c1	8b 41 0c	 mov	 eax, DWORD PTR [ecx+12]
  000c4	ff d0		 call	 eax
  000c6	3b f4		 cmp	 esi, esp
  000c8	e8 00 00 00 00	 call	 __RTC_CheckEsp
  000cd	8b f4		 mov	 esi, esp
  000cf	50		 push	 eax
  000d0	ff 15 00 00 00
	00		 call	 DWORD PTR __imp__OutputDebugStringA@4
  000d6	3b f4		 cmp	 esi, esp
  000d8	e8 00 00 00 00	 call	 __RTC_CheckEsp
; Line 691
  000dd	8b 8d e0 fd ff
	ff		 mov	 ecx, DWORD PTR _pErrorBlob$[ebp]
  000e3	8b 11		 mov	 edx, DWORD PTR [ecx]
  000e5	8b f4		 mov	 esi, esp
  000e7	8b 85 e0 fd ff
	ff		 mov	 eax, DWORD PTR _pErrorBlob$[ebp]
  000ed	50		 push	 eax
  000ee	8b 4a 08	 mov	 ecx, DWORD PTR [edx+8]
  000f1	ff d1		 call	 ecx
  000f3	3b f4		 cmp	 esi, esp
  000f5	e8 00 00 00 00	 call	 __RTC_CheckEsp
$LN1@DXUTCompil:
; Line 694
  000fa	8b 45 f8	 mov	 eax, DWORD PTR _hr$[ebp]
$LN3@DXUTCompil:
; Line 695
  000fd	52		 push	 edx
  000fe	8b cd		 mov	 ecx, ebp
  00100	50		 push	 eax
  00101	8d 15 00 00 00
	00		 lea	 edx, DWORD PTR $LN8@DXUTCompil
  00107	e8 00 00 00 00	 call	 @_RTC_CheckStackVars@8
  0010c	58		 pop	 eax
  0010d	5a		 pop	 edx
  0010e	5f		 pop	 edi
  0010f	5e		 pop	 esi
  00110	8b 4d fc	 mov	 ecx, DWORD PTR __$ArrayPad$[ebp]
  00113	33 cd		 xor	 ecx, ebp
  00115	e8 00 00 00 00	 call	 @__security_check_cookie@4
  0011a	81 c4 24 02 00
	00		 add	 esp, 548		; 00000224H
  00120	3b ec		 cmp	 ebp, esp
  00122	e8 00 00 00 00	 call	 __RTC_CheckEsp
  00127	8b e5		 mov	 esp, ebp
  00129	5d		 pop	 ebp
  0012a	c2 1c 00	 ret	 28			; 0000001cH
  0012d	8d 49 00	 npad	 3
$LN8@DXUTCompil:
  00130	02 00 00 00	 DD	 2
  00134	00 00 00 00	 DD	 $LN7@DXUTCompil
$LN7@DXUTCompil:
  00138	ec fd ff ff	 DD	 -532			; fffffdecH
  0013c	08 02 00 00	 DD	 520			; 00000208H
  00140	00 00 00 00	 DD	 $LN5@DXUTCompil
  00144	e0 fd ff ff	 DD	 -544			; fffffde0H
  00148	04 00 00 00	 DD	 4
  0014c	00 00 00 00	 DD	 $LN6@DXUTCompil
$LN6@DXUTCompil:
  00150	70		 DB	 112			; 00000070H
  00151	45		 DB	 69			; 00000045H
  00152	72		 DB	 114			; 00000072H
  00153	72		 DB	 114			; 00000072H
  00154	6f		 DB	 111			; 0000006fH
  00155	72		 DB	 114			; 00000072H
  00156	42		 DB	 66			; 00000042H
  00157	6c		 DB	 108			; 0000006cH
  00158	6f		 DB	 111			; 0000006fH
  00159	62		 DB	 98			; 00000062H
  0015a	00		 DB	 0
$LN5@DXUTCompil:
  0015b	73		 DB	 115			; 00000073H
  0015c	74		 DB	 116			; 00000074H
  0015d	72		 DB	 114			; 00000072H
  0015e	00		 DB	 0
?DXUTCompileFromFile@@YGJPB_WPBU_D3D_SHADER_MACRO@@PBD2IIPAPAUID3D10Blob@@@Z ENDP ; DXUTCompileFromFile
_TEXT	ENDS
; Function compile flags: /Odtp /RTCsu
_TEXT	SEGMENT
?DXUTGetMediaSearchPath@@YGPB_WXZ PROC			; DXUTGetMediaSearchPath
; File d:\engine class\assignment 1\new scratch\dxut\optional\sdkmisc.cpp
; Line 220
  00000	55		 push	 ebp
  00001	8b ec		 mov	 ebp, esp
; Line 221
  00003	e8 00 00 00 00	 call	 ?DXUTMediaSearchPath@@YAPA_WXZ ; DXUTMediaSearchPath
; Line 222
  00008	3b ec		 cmp	 ebp, esp
  0000a	e8 00 00 00 00	 call	 __RTC_CheckEsp
  0000f	5d		 pop	 ebp
  00010	c3		 ret	 0
?DXUTGetMediaSearchPath@@YGPB_WXZ ENDP			; DXUTGetMediaSearchPath
_TEXT	ENDS
; Function compile flags: /Odtp /RTCsu
_TEXT	SEGMENT
_ch$1 = -12						; size = 4
_s_strSearchPath$ = -8					; size = 4
_hr$ = -4						; size = 4
_strPath$ = 8						; size = 4
?DXUTSetMediaSearchPath@@YGJPB_W@Z PROC			; DXUTSetMediaSearchPath
; File d:\engine class\assignment 1\new scratch\dxut\optional\sdkmisc.cpp
; Line 227
  00000	55		 push	 ebp
  00001	8b ec		 mov	 ebp, esp
  00003	83 ec 0c	 sub	 esp, 12			; 0000000cH
  00006	56		 push	 esi
  00007	c7 45 f4 cc cc
	cc cc		 mov	 DWORD PTR [ebp-12], -858993460 ; ccccccccH
  0000e	c7 45 f8 cc cc
	cc cc		 mov	 DWORD PTR [ebp-8], -858993460 ; ccccccccH
  00015	c7 45 fc cc cc
	cc cc		 mov	 DWORD PTR [ebp-4], -858993460 ; ccccccccH
; Line 230
  0001c	e8 00 00 00 00	 call	 ?DXUTMediaSearchPath@@YAPA_WXZ ; DXUTMediaSearchPath
  00021	89 45 f8	 mov	 DWORD PTR _s_strSearchPath$[ebp], eax
; Line 232
  00024	8b f4		 mov	 esi, esp
  00026	8b 45 08	 mov	 eax, DWORD PTR _strPath$[ebp]
  00029	50		 push	 eax
  0002a	68 04 01 00 00	 push	 260			; 00000104H
  0002f	8b 4d f8	 mov	 ecx, DWORD PTR _s_strSearchPath$[ebp]
  00032	51		 push	 ecx
  00033	ff 15 00 00 00
	00		 call	 DWORD PTR __imp__wcscpy_s
  00039	83 c4 0c	 add	 esp, 12			; 0000000cH
  0003c	3b f4		 cmp	 esi, esp
  0003e	e8 00 00 00 00	 call	 __RTC_CheckEsp
  00043	89 45 fc	 mov	 DWORD PTR _hr$[ebp], eax
; Line 233
  00046	83 7d fc 00	 cmp	 DWORD PTR _hr$[ebp], 0
  0004a	7c 5e		 jl	 SHORT $LN2@DXUTSetMed
; Line 236
  0004c	c7 45 f4 00 00
	00 00		 mov	 DWORD PTR _ch$1[ebp], 0
; Line 237
  00053	8b f4		 mov	 esi, esp
  00055	68 04 01 00 00	 push	 260			; 00000104H
  0005a	8b 55 f8	 mov	 edx, DWORD PTR _s_strSearchPath$[ebp]
  0005d	52		 push	 edx
  0005e	ff 15 00 00 00
	00		 call	 DWORD PTR __imp__wcsnlen
  00064	83 c4 08	 add	 esp, 8
  00067	3b f4		 cmp	 esi, esp
  00069	e8 00 00 00 00	 call	 __RTC_CheckEsp
  0006e	89 45 f4	 mov	 DWORD PTR _ch$1[ebp], eax
; Line 238
  00071	83 7d fc 00	 cmp	 DWORD PTR _hr$[ebp], 0
  00075	7c 33		 jl	 SHORT $LN2@DXUTSetMed
  00077	8b 45 f4	 mov	 eax, DWORD PTR _ch$1[ebp]
  0007a	8b 4d f8	 mov	 ecx, DWORD PTR _s_strSearchPath$[ebp]
  0007d	0f b7 54 41 fe	 movzx	 edx, WORD PTR [ecx+eax*2-2]
  00082	83 fa 5c	 cmp	 edx, 92			; 0000005cH
  00085	74 23		 je	 SHORT $LN2@DXUTSetMed
; Line 240
  00087	8b f4		 mov	 esi, esp
  00089	68 00 00 00 00	 push	 OFFSET $SG163529
  0008e	68 04 01 00 00	 push	 260			; 00000104H
  00093	8b 45 f8	 mov	 eax, DWORD PTR _s_strSearchPath$[ebp]
  00096	50		 push	 eax
  00097	ff 15 00 00 00
	00		 call	 DWORD PTR __imp__wcscat_s
  0009d	83 c4 0c	 add	 esp, 12			; 0000000cH
  000a0	3b f4		 cmp	 esi, esp
  000a2	e8 00 00 00 00	 call	 __RTC_CheckEsp
  000a7	89 45 fc	 mov	 DWORD PTR _hr$[ebp], eax
$LN2@DXUTSetMed:
; Line 244
  000aa	8b 45 fc	 mov	 eax, DWORD PTR _hr$[ebp]
; Line 245
  000ad	5e		 pop	 esi
  000ae	83 c4 0c	 add	 esp, 12			; 0000000cH
  000b1	3b ec		 cmp	 ebp, esp
  000b3	e8 00 00 00 00	 call	 __RTC_CheckEsp
  000b8	8b e5		 mov	 esp, ebp
  000ba	5d		 pop	 ebp
  000bb	c2 04 00	 ret	 4
?DXUTSetMediaSearchPath@@YGJPB_W@Z ENDP			; DXUTSetMediaSearchPath
_TEXT	ENDS
; Function compile flags: /Odtp /RTCsu
_TEXT	SEGMENT
$T1 = -2128						; size = 4
_strLeafName$ = -2120					; size = 520
_strLastSlash$ = -1596					; size = 4
_strExeName$ = -1588					; size = 520
_strExePath$ = -1060					; size = 520
_strSearchFor$ = -532					; size = 520
_bFound$ = -5						; size = 1
__$ArrayPad$ = -4					; size = 4
_strDestPath$ = 8					; size = 4
_cchDest$ = 12						; size = 4
_strFilename$ = 16					; size = 4
?DXUTFindDXSDKMediaFileCch@@YGJPA_WHPB_W@Z PROC		; DXUTFindDXSDKMediaFileCch
; File d:\engine class\assignment 1\new scratch\dxut\optional\sdkmisc.cpp
; Line 256
  00000	55		 push	 ebp
  00001	8b ec		 mov	 ebp, esp
  00003	81 ec 50 08 00
	00		 sub	 esp, 2128		; 00000850H
  00009	56		 push	 esi
  0000a	57		 push	 edi
  0000b	8d bd b0 f7 ff
	ff		 lea	 edi, DWORD PTR [ebp-2128]
  00011	b9 14 02 00 00	 mov	 ecx, 532		; 00000214H
  00016	b8 cc cc cc cc	 mov	 eax, -858993460		; ccccccccH
  0001b	f3 ab		 rep stosd
  0001d	a1 00 00 00 00	 mov	 eax, DWORD PTR ___security_cookie
  00022	33 c5		 xor	 eax, ebp
  00024	89 45 fc	 mov	 DWORD PTR __$ArrayPad$[ebp], eax
; Line 260
  00027	83 7d 10 00	 cmp	 DWORD PTR _strFilename$[ebp], 0
  0002b	74 1f		 je	 SHORT $LN9@DXUTFindDX
  0002d	b8 02 00 00 00	 mov	 eax, 2
  00032	6b c8 00	 imul	 ecx, eax, 0
  00035	8b 55 10	 mov	 edx, DWORD PTR _strFilename$[ebp]
  00038	0f b7 04 0a	 movzx	 eax, WORD PTR [edx+ecx]
  0003c	85 c0		 test	 eax, eax
  0003e	74 0c		 je	 SHORT $LN9@DXUTFindDX
  00040	83 7d 08 00	 cmp	 DWORD PTR _strDestPath$[ebp], 0
  00044	74 06		 je	 SHORT $LN9@DXUTFindDX
  00046	83 7d 0c 0a	 cmp	 DWORD PTR _cchDest$[ebp], 10 ; 0000000aH
  0004a	7d 0a		 jge	 SHORT $LN10@DXUTFindDX
$LN9@DXUTFindDX:
; Line 261
  0004c	b8 57 00 07 80	 mov	 eax, -2147024809	; 80070057H
  00051	e9 ef 02 00 00	 jmp	 $LN12@DXUTFindDX
$LN10@DXUTFindDX:
; Line 267
  00056	33 c9		 xor	 ecx, ecx
  00058	66 89 8d dc fb
	ff ff		 mov	 WORD PTR _strExePath$[ebp], cx
  0005f	68 06 02 00 00	 push	 518			; 00000206H
  00064	6a 00		 push	 0
  00066	8d 95 de fb ff
	ff		 lea	 edx, DWORD PTR _strExePath$[ebp+2]
  0006c	52		 push	 edx
  0006d	e8 00 00 00 00	 call	 _memset
  00072	83 c4 0c	 add	 esp, 12			; 0000000cH
; Line 271
  00075	33 c0		 xor	 eax, eax
  00077	66 89 85 cc f9
	ff ff		 mov	 WORD PTR _strExeName$[ebp], ax
  0007e	68 06 02 00 00	 push	 518			; 00000206H
  00083	6a 00		 push	 0
  00085	8d 8d ce f9 ff
	ff		 lea	 ecx, DWORD PTR _strExeName$[ebp+2]
  0008b	51		 push	 ecx
  0008c	e8 00 00 00 00	 call	 _memset
  00091	83 c4 0c	 add	 esp, 12			; 0000000cH
; Line 272
  00094	c7 85 c4 f9 ff
	ff 00 00 00 00	 mov	 DWORD PTR _strLastSlash$[ebp], 0
; Line 273
  0009e	8b f4		 mov	 esi, esp
  000a0	68 04 01 00 00	 push	 260			; 00000104H
  000a5	8d 95 dc fb ff
	ff		 lea	 edx, DWORD PTR _strExePath$[ebp]
  000ab	52		 push	 edx
  000ac	6a 00		 push	 0
  000ae	ff 15 00 00 00
	00		 call	 DWORD PTR __imp__GetModuleFileNameW@12
  000b4	3b f4		 cmp	 esi, esp
  000b6	e8 00 00 00 00	 call	 __RTC_CheckEsp
; Line 274
  000bb	b8 02 00 00 00	 mov	 eax, 2
  000c0	69 c8 03 01 00
	00		 imul	 ecx, eax, 259
  000c6	89 8d b0 f7 ff
	ff		 mov	 DWORD PTR $T1[ebp], ecx
  000cc	81 bd b0 f7 ff
	ff 08 02 00 00	 cmp	 DWORD PTR $T1[ebp], 520	; 00000208H
  000d6	73 02		 jae	 SHORT $LN13@DXUTFindDX
  000d8	eb 05		 jmp	 SHORT $LN14@DXUTFindDX
$LN13@DXUTFindDX:
  000da	e8 00 00 00 00	 call	 ___report_rangecheckfailure
$LN14@DXUTFindDX:
  000df	33 d2		 xor	 edx, edx
  000e1	8b 85 b0 f7 ff
	ff		 mov	 eax, DWORD PTR $T1[ebp]
  000e7	66 89 94 05 dc
	fb ff ff	 mov	 WORD PTR _strExePath$[ebp+eax], dx
; Line 275
  000ef	6a 5c		 push	 92			; 0000005cH
  000f1	8d 8d dc fb ff
	ff		 lea	 ecx, DWORD PTR _strExePath$[ebp]
  000f7	51		 push	 ecx
  000f8	e8 00 00 00 00	 call	 ?wcsrchr@@YAPA_WPA_W_W@Z ; wcsrchr
  000fd	83 c4 08	 add	 esp, 8
  00100	89 85 c4 f9 ff
	ff		 mov	 DWORD PTR _strLastSlash$[ebp], eax
; Line 276
  00106	83 bd c4 f9 ff
	ff 00		 cmp	 DWORD PTR _strLastSlash$[ebp], 0
  0010d	74 63		 je	 SHORT $LN8@DXUTFindDX
; Line 278
  0010f	ba 02 00 00 00	 mov	 edx, 2
  00114	c1 e2 00	 shl	 edx, 0
  00117	03 95 c4 f9 ff
	ff		 add	 edx, DWORD PTR _strLastSlash$[ebp]
  0011d	8b f4		 mov	 esi, esp
  0011f	52		 push	 edx
  00120	68 04 01 00 00	 push	 260			; 00000104H
  00125	8d 85 cc f9 ff
	ff		 lea	 eax, DWORD PTR _strExeName$[ebp]
  0012b	50		 push	 eax
  0012c	ff 15 00 00 00
	00		 call	 DWORD PTR __imp__wcscpy_s
  00132	83 c4 0c	 add	 esp, 12			; 0000000cH
  00135	3b f4		 cmp	 esi, esp
  00137	e8 00 00 00 00	 call	 __RTC_CheckEsp
; Line 281
  0013c	33 c9		 xor	 ecx, ecx
  0013e	8b 95 c4 f9 ff
	ff		 mov	 edx, DWORD PTR _strLastSlash$[ebp]
  00144	66 89 0a	 mov	 WORD PTR [edx], cx
; Line 284
  00147	6a 2e		 push	 46			; 0000002eH
  00149	8d 85 cc f9 ff
	ff		 lea	 eax, DWORD PTR _strExeName$[ebp]
  0014f	50		 push	 eax
  00150	e8 00 00 00 00	 call	 ?wcsrchr@@YAPA_WPA_W_W@Z ; wcsrchr
  00155	83 c4 08	 add	 esp, 8
  00158	89 85 c4 f9 ff
	ff		 mov	 DWORD PTR _strLastSlash$[ebp], eax
; Line 285
  0015e	83 bd c4 f9 ff
	ff 00		 cmp	 DWORD PTR _strLastSlash$[ebp], 0
  00165	74 0b		 je	 SHORT $LN8@DXUTFindDX
; Line 286
  00167	33 c9		 xor	 ecx, ecx
  00169	8b 95 c4 f9 ff
	ff		 mov	 edx, DWORD PTR _strLastSlash$[ebp]
  0016f	66 89 0a	 mov	 WORD PTR [edx], cx
$LN8@DXUTFindDX:
; Line 300
  00172	8d 85 cc f9 ff
	ff		 lea	 eax, DWORD PTR _strExeName$[ebp]
  00178	50		 push	 eax
  00179	8d 8d dc fb ff
	ff		 lea	 ecx, DWORD PTR _strExePath$[ebp]
  0017f	51		 push	 ecx
  00180	8b 55 10	 mov	 edx, DWORD PTR _strFilename$[ebp]
  00183	52		 push	 edx
  00184	8b 45 0c	 mov	 eax, DWORD PTR _cchDest$[ebp]
  00187	50		 push	 eax
  00188	8b 4d 08	 mov	 ecx, DWORD PTR _strDestPath$[ebp]
  0018b	51		 push	 ecx
  0018c	e8 00 00 00 00	 call	 ?DXUTFindMediaSearchTypicalDirs@@YA_NPA_WHPB_W11@Z ; DXUTFindMediaSearchTypicalDirs
  00191	83 c4 14	 add	 esp, 20			; 00000014H
  00194	88 45 fb	 mov	 BYTE PTR _bFound$[ebp], al
; Line 301
  00197	0f b6 55 fb	 movzx	 edx, BYTE PTR _bFound$[ebp]
  0019b	85 d2		 test	 edx, edx
  0019d	74 07		 je	 SHORT $LN6@DXUTFindDX
; Line 302
  0019f	33 c0		 xor	 eax, eax
  001a1	e9 9f 01 00 00	 jmp	 $LN12@DXUTFindDX
$LN6@DXUTFindDX:
; Line 305
  001a6	8b f4		 mov	 esi, esp
  001a8	8b 45 10	 mov	 eax, DWORD PTR _strFilename$[ebp]
  001ab	50		 push	 eax
  001ac	68 00 00 00 00	 push	 OFFSET $SG163553
  001b1	68 04 01 00 00	 push	 260			; 00000104H
  001b6	8d 8d ec fd ff
	ff		 lea	 ecx, DWORD PTR _strSearchFor$[ebp]
  001bc	51		 push	 ecx
  001bd	ff 15 00 00 00
	00		 call	 DWORD PTR __imp__swprintf_s
  001c3	83 c4 10	 add	 esp, 16			; 00000010H
  001c6	3b f4		 cmp	 esi, esp
  001c8	e8 00 00 00 00	 call	 __RTC_CheckEsp
; Line 306
  001cd	8d 95 cc f9 ff
	ff		 lea	 edx, DWORD PTR _strExeName$[ebp]
  001d3	52		 push	 edx
  001d4	8d 85 dc fb ff
	ff		 lea	 eax, DWORD PTR _strExePath$[ebp]
  001da	50		 push	 eax
  001db	8d 8d ec fd ff
	ff		 lea	 ecx, DWORD PTR _strSearchFor$[ebp]
  001e1	51		 push	 ecx
  001e2	8b 55 0c	 mov	 edx, DWORD PTR _cchDest$[ebp]
  001e5	52		 push	 edx
  001e6	8b 45 08	 mov	 eax, DWORD PTR _strDestPath$[ebp]
  001e9	50		 push	 eax
  001ea	e8 00 00 00 00	 call	 ?DXUTFindMediaSearchTypicalDirs@@YA_NPA_WHPB_W11@Z ; DXUTFindMediaSearchTypicalDirs
  001ef	83 c4 14	 add	 esp, 20			; 00000014H
  001f2	88 45 fb	 mov	 BYTE PTR _bFound$[ebp], al
; Line 307
  001f5	0f b6 4d fb	 movzx	 ecx, BYTE PTR _bFound$[ebp]
  001f9	85 c9		 test	 ecx, ecx
  001fb	74 07		 je	 SHORT $LN5@DXUTFindDX
; Line 308
  001fd	33 c0		 xor	 eax, eax
  001ff	e9 41 01 00 00	 jmp	 $LN12@DXUTFindDX
$LN5@DXUTFindDX:
; Line 313
  00204	33 d2		 xor	 edx, edx
  00206	66 89 95 b8 f7
	ff ff		 mov	 WORD PTR _strLeafName$[ebp], dx
  0020d	68 06 02 00 00	 push	 518			; 00000206H
  00212	6a 00		 push	 0
  00214	8d 85 ba f7 ff
	ff		 lea	 eax, DWORD PTR _strLeafName$[ebp+2]
  0021a	50		 push	 eax
  0021b	e8 00 00 00 00	 call	 _memset
  00220	83 c4 0c	 add	 esp, 12			; 0000000cH
; Line 316
  00223	8b f4		 mov	 esi, esp
  00225	8b 4d 10	 mov	 ecx, DWORD PTR _strFilename$[ebp]
  00228	51		 push	 ecx
  00229	68 04 01 00 00	 push	 260			; 00000104H
  0022e	8d 95 b8 f7 ff
	ff		 lea	 edx, DWORD PTR _strLeafName$[ebp]
  00234	52		 push	 edx
  00235	ff 15 00 00 00
	00		 call	 DWORD PTR __imp__wcscpy_s
  0023b	83 c4 0c	 add	 esp, 12			; 0000000cH
  0023e	3b f4		 cmp	 esi, esp
  00240	e8 00 00 00 00	 call	 __RTC_CheckEsp
; Line 317
  00245	8d 85 b8 f7 ff
	ff		 lea	 eax, DWORD PTR _strLeafName$[ebp]
  0024b	50		 push	 eax
  0024c	68 00 00 00 00	 push	 OFFSET $SG163557
  00251	8b 4d 0c	 mov	 ecx, DWORD PTR _cchDest$[ebp]
  00254	51		 push	 ecx
  00255	8b 55 08	 mov	 edx, DWORD PTR _strDestPath$[ebp]
  00258	52		 push	 edx
  00259	e8 00 00 00 00	 call	 ?DXUTFindMediaSearchParentDirs@@YA_NPA_WHPB_W1@Z ; DXUTFindMediaSearchParentDirs
  0025e	83 c4 10	 add	 esp, 16			; 00000010H
  00261	88 45 fb	 mov	 BYTE PTR _bFound$[ebp], al
; Line 318
  00264	0f b6 45 fb	 movzx	 eax, BYTE PTR _bFound$[ebp]
  00268	85 c0		 test	 eax, eax
  0026a	74 07		 je	 SHORT $LN4@DXUTFindDX
; Line 319
  0026c	33 c0		 xor	 eax, eax
  0026e	e9 d2 00 00 00	 jmp	 $LN12@DXUTFindDX
$LN4@DXUTFindDX:
; Line 322
  00273	8d 8d b8 f7 ff
	ff		 lea	 ecx, DWORD PTR _strLeafName$[ebp]
  00279	51		 push	 ecx
  0027a	8d 95 dc fb ff
	ff		 lea	 edx, DWORD PTR _strExePath$[ebp]
  00280	52		 push	 edx
  00281	8b 45 0c	 mov	 eax, DWORD PTR _cchDest$[ebp]
  00284	50		 push	 eax
  00285	8b 4d 08	 mov	 ecx, DWORD PTR _strDestPath$[ebp]
  00288	51		 push	 ecx
  00289	e8 00 00 00 00	 call	 ?DXUTFindMediaSearchParentDirs@@YA_NPA_WHPB_W1@Z ; DXUTFindMediaSearchParentDirs
  0028e	83 c4 10	 add	 esp, 16			; 00000010H
  00291	88 45 fb	 mov	 BYTE PTR _bFound$[ebp], al
; Line 323
  00294	0f b6 55 fb	 movzx	 edx, BYTE PTR _bFound$[ebp]
  00298	85 d2		 test	 edx, edx
  0029a	74 07		 je	 SHORT $LN3@DXUTFindDX
; Line 324
  0029c	33 c0		 xor	 eax, eax
  0029e	e9 a2 00 00 00	 jmp	 $LN12@DXUTFindDX
$LN3@DXUTFindDX:
; Line 327
  002a3	8b f4		 mov	 esi, esp
  002a5	8b 45 10	 mov	 eax, DWORD PTR _strFilename$[ebp]
  002a8	50		 push	 eax
  002a9	68 00 00 00 00	 push	 OFFSET $SG163562
  002ae	68 04 01 00 00	 push	 260			; 00000104H
  002b3	8d 8d b8 f7 ff
	ff		 lea	 ecx, DWORD PTR _strLeafName$[ebp]
  002b9	51		 push	 ecx
  002ba	ff 15 00 00 00
	00		 call	 DWORD PTR __imp__swprintf_s
  002c0	83 c4 10	 add	 esp, 16			; 00000010H
  002c3	3b f4		 cmp	 esi, esp
  002c5	e8 00 00 00 00	 call	 __RTC_CheckEsp
; Line 328
  002ca	8d 95 b8 f7 ff
	ff		 lea	 edx, DWORD PTR _strLeafName$[ebp]
  002d0	52		 push	 edx
  002d1	68 00 00 00 00	 push	 OFFSET $SG163563
  002d6	8b 45 0c	 mov	 eax, DWORD PTR _cchDest$[ebp]
  002d9	50		 push	 eax
  002da	8b 4d 08	 mov	 ecx, DWORD PTR _strDestPath$[ebp]
  002dd	51		 push	 ecx
  002de	e8 00 00 00 00	 call	 ?DXUTFindMediaSearchParentDirs@@YA_NPA_WHPB_W1@Z ; DXUTFindMediaSearchParentDirs
  002e3	83 c4 10	 add	 esp, 16			; 00000010H
  002e6	88 45 fb	 mov	 BYTE PTR _bFound$[ebp], al
; Line 329
  002e9	0f b6 55 fb	 movzx	 edx, BYTE PTR _bFound$[ebp]
  002ed	85 d2		 test	 edx, edx
  002ef	74 04		 je	 SHORT $LN2@DXUTFindDX
; Line 330
  002f1	33 c0		 xor	 eax, eax
  002f3	eb 50		 jmp	 SHORT $LN12@DXUTFindDX
$LN2@DXUTFindDX:
; Line 333
  002f5	8d 85 b8 f7 ff
	ff		 lea	 eax, DWORD PTR _strLeafName$[ebp]
  002fb	50		 push	 eax
  002fc	8d 8d dc fb ff
	ff		 lea	 ecx, DWORD PTR _strExePath$[ebp]
  00302	51		 push	 ecx
  00303	8b 55 0c	 mov	 edx, DWORD PTR _cchDest$[ebp]
  00306	52		 push	 edx
  00307	8b 45 08	 mov	 eax, DWORD PTR _strDestPath$[ebp]
  0030a	50		 push	 eax
  0030b	e8 00 00 00 00	 call	 ?DXUTFindMediaSearchParentDirs@@YA_NPA_WHPB_W1@Z ; DXUTFindMediaSearchParentDirs
  00310	83 c4 10	 add	 esp, 16			; 00000010H
  00313	88 45 fb	 mov	 BYTE PTR _bFound$[ebp], al
; Line 334
  00316	0f b6 4d fb	 movzx	 ecx, BYTE PTR _bFound$[ebp]
  0031a	85 c9		 test	 ecx, ecx
  0031c	74 04		 je	 SHORT $LN1@DXUTFindDX
; Line 335
  0031e	33 c0		 xor	 eax, eax
  00320	eb 23		 jmp	 SHORT $LN12@DXUTFindDX
$LN1@DXUTFindDX:
; Line 338
  00322	8b f4		 mov	 esi, esp
  00324	8b 55 10	 mov	 edx, DWORD PTR _strFilename$[ebp]
  00327	52		 push	 edx
  00328	8b 45 0c	 mov	 eax, DWORD PTR _cchDest$[ebp]
  0032b	50		 push	 eax
  0032c	8b 4d 08	 mov	 ecx, DWORD PTR _strDestPath$[ebp]
  0032f	51		 push	 ecx
  00330	ff 15 00 00 00
	00		 call	 DWORD PTR __imp__wcscpy_s
  00336	83 c4 0c	 add	 esp, 12			; 0000000cH
  00339	3b f4		 cmp	 esi, esp
  0033b	e8 00 00 00 00	 call	 __RTC_CheckEsp
; Line 340
  00340	b8 03 09 04 80	 mov	 eax, -2147219197	; 80040903H
$LN12@DXUTFindDX:
; Line 341
  00345	52		 push	 edx
  00346	8b cd		 mov	 ecx, ebp
  00348	50		 push	 eax
  00349	8d 15 00 00 00
	00		 lea	 edx, DWORD PTR $LN20@DXUTFindDX
  0034f	e8 00 00 00 00	 call	 @_RTC_CheckStackVars@8
  00354	58		 pop	 eax
  00355	5a		 pop	 edx
  00356	5f		 pop	 edi
  00357	5e		 pop	 esi
  00358	8b 4d fc	 mov	 ecx, DWORD PTR __$ArrayPad$[ebp]
  0035b	33 cd		 xor	 ecx, ebp
  0035d	e8 00 00 00 00	 call	 @__security_check_cookie@4
  00362	81 c4 50 08 00
	00		 add	 esp, 2128		; 00000850H
  00368	3b ec		 cmp	 ebp, esp
  0036a	e8 00 00 00 00	 call	 __RTC_CheckEsp
  0036f	8b e5		 mov	 esp, ebp
  00371	5d		 pop	 ebp
  00372	c2 0c 00	 ret	 12			; 0000000cH
  00375	8d 49 00	 npad	 3
$LN20@DXUTFindDX:
  00378	04 00 00 00	 DD	 4
  0037c	00 00 00 00	 DD	 $LN19@DXUTFindDX
$LN19@DXUTFindDX:
  00380	ec fd ff ff	 DD	 -532			; fffffdecH
  00384	08 02 00 00	 DD	 520			; 00000208H
  00388	00 00 00 00	 DD	 $LN15@DXUTFindDX
  0038c	dc fb ff ff	 DD	 -1060			; fffffbdcH
  00390	08 02 00 00	 DD	 520			; 00000208H
  00394	00 00 00 00	 DD	 $LN16@DXUTFindDX
  00398	cc f9 ff ff	 DD	 -1588			; fffff9ccH
  0039c	08 02 00 00	 DD	 520			; 00000208H
  003a0	00 00 00 00	 DD	 $LN17@DXUTFindDX
  003a4	b8 f7 ff ff	 DD	 -2120			; fffff7b8H
  003a8	08 02 00 00	 DD	 520			; 00000208H
  003ac	00 00 00 00	 DD	 $LN18@DXUTFindDX
$LN18@DXUTFindDX:
  003b0	73		 DB	 115			; 00000073H
  003b1	74		 DB	 116			; 00000074H
  003b2	72		 DB	 114			; 00000072H
  003b3	4c		 DB	 76			; 0000004cH
  003b4	65		 DB	 101			; 00000065H
  003b5	61		 DB	 97			; 00000061H
  003b6	66		 DB	 102			; 00000066H
  003b7	4e		 DB	 78			; 0000004eH
  003b8	61		 DB	 97			; 00000061H
  003b9	6d		 DB	 109			; 0000006dH
  003ba	65		 DB	 101			; 00000065H
  003bb	00		 DB	 0
$LN17@DXUTFindDX:
  003bc	73		 DB	 115			; 00000073H
  003bd	74		 DB	 116			; 00000074H
  003be	72		 DB	 114			; 00000072H
  003bf	45		 DB	 69			; 00000045H
  003c0	78		 DB	 120			; 00000078H
  003c1	65		 DB	 101			; 00000065H
  003c2	4e		 DB	 78			; 0000004eH
  003c3	61		 DB	 97			; 00000061H
  003c4	6d		 DB	 109			; 0000006dH
  003c5	65		 DB	 101			; 00000065H
  003c6	00		 DB	 0
$LN16@DXUTFindDX:
  003c7	73		 DB	 115			; 00000073H
  003c8	74		 DB	 116			; 00000074H
  003c9	72		 DB	 114			; 00000072H
  003ca	45		 DB	 69			; 00000045H
  003cb	78		 DB	 120			; 00000078H
  003cc	65		 DB	 101			; 00000065H
  003cd	50		 DB	 80			; 00000050H
  003ce	61		 DB	 97			; 00000061H
  003cf	74		 DB	 116			; 00000074H
  003d0	68		 DB	 104			; 00000068H
  003d1	00		 DB	 0
$LN15@DXUTFindDX:
  003d2	73		 DB	 115			; 00000073H
  003d3	74		 DB	 116			; 00000074H
  003d4	72		 DB	 114			; 00000072H
  003d5	53		 DB	 83			; 00000053H
  003d6	65		 DB	 101			; 00000065H
  003d7	61		 DB	 97			; 00000061H
  003d8	72		 DB	 114			; 00000072H
  003d9	63		 DB	 99			; 00000063H
  003da	68		 DB	 104			; 00000068H
  003db	46		 DB	 70			; 00000046H
  003dc	6f		 DB	 111			; 0000006fH
  003dd	72		 DB	 114			; 00000072H
  003de	00		 DB	 0
?DXUTFindDXSDKMediaFileCch@@YGJPA_WHPB_W@Z ENDP		; DXUTFindDXSDKMediaFileCch
_TEXT	ENDS
; Function compile flags: /Odtp /RTCsu
_TEXT	SEGMENT
_nResult$1 = -788					; size = 4
_lParam$2 = -784					; size = 4
_dtp$3 = -776						; size = 200
_strPath$4 = -568					; size = 520
_hFile$5 = -44						; size = 4
_dwWritten$6 = -36					; size = 4
_dwRead$7 = -24						; size = 4
_dwSkipWarning$8 = -12					; size = 4
__$ArrayPad$ = -4					; size = 4
?DXUTDisplaySwitchingToREFWarning@@YGXXZ PROC		; DXUTDisplaySwitchingToREFWarning
; File d:\engine class\assignment 1\new scratch\dxut\optional\sdkmisc.cpp
; Line 69
  00000	55		 push	 ebp
  00001	8b ec		 mov	 ebp, esp
  00003	81 ec 14 03 00
	00		 sub	 esp, 788		; 00000314H
  00009	56		 push	 esi
  0000a	57		 push	 edi
  0000b	8d bd ec fc ff
	ff		 lea	 edi, DWORD PTR [ebp-788]
  00011	b9 c5 00 00 00	 mov	 ecx, 197		; 000000c5H
  00016	b8 cc cc cc cc	 mov	 eax, -858993460		; ccccccccH
  0001b	f3 ab		 rep stosd
  0001d	a1 00 00 00 00	 mov	 eax, DWORD PTR ___security_cookie
  00022	33 c5		 xor	 eax, ebp
  00024	89 45 fc	 mov	 DWORD PTR __$ArrayPad$[ebp], eax
; Line 70
  00027	e8 00 00 00 00	 call	 ?DXUTGetShowMsgBoxOnError@@YG_NXZ ; DXUTGetShowMsgBoxOnError
  0002c	0f b6 c0	 movzx	 eax, al
  0002f	85 c0		 test	 eax, eax
  00031	0f 84 46 05 00
	00		 je	 $LN9@DXUTDispla
; Line 72
  00037	c7 45 f4 00 00
	00 00		 mov	 DWORD PTR _dwSkipWarning$8[ebp], 0
  0003e	c7 45 e8 00 00
	00 00		 mov	 DWORD PTR _dwRead$7[ebp], 0
  00045	c7 45 dc 00 00
	00 00		 mov	 DWORD PTR _dwWritten$6[ebp], 0
; Line 73
  0004c	c7 45 d4 00 00
	00 00		 mov	 DWORD PTR _hFile$5[ebp], 0
; Line 77
  00053	8b f4		 mov	 esi, esp
  00055	8d 8d c8 fd ff
	ff		 lea	 ecx, DWORD PTR _strPath$4[ebp]
  0005b	51		 push	 ecx
  0005c	6a 00		 push	 0
  0005e	6a 00		 push	 0
  00060	6a 1c		 push	 28			; 0000001cH
  00062	e8 00 00 00 00	 call	 ?DXUTGetHWND@@YGPAUHWND__@@XZ ; DXUTGetHWND
  00067	50		 push	 eax
  00068	ff 15 00 00 00
	00		 call	 DWORD PTR __imp__SHGetFolderPathW@20
  0006e	3b f4		 cmp	 esi, esp
  00070	e8 00 00 00 00	 call	 __RTC_CheckEsp
  00075	85 c0		 test	 eax, eax
  00077	0f 8c 83 00 00
	00		 jl	 $LN7@DXUTDispla
; Line 79
  0007d	8b f4		 mov	 esi, esp
  0007f	68 00 00 00 00	 push	 OFFSET $SG163421
  00084	68 04 01 00 00	 push	 260			; 00000104H
  00089	8d 95 c8 fd ff
	ff		 lea	 edx, DWORD PTR _strPath$4[ebp]
  0008f	52		 push	 edx
  00090	ff 15 00 00 00
	00		 call	 DWORD PTR __imp__wcscat_s
  00096	83 c4 0c	 add	 esp, 12			; 0000000cH
  00099	3b f4		 cmp	 esi, esp
  0009b	e8 00 00 00 00	 call	 __RTC_CheckEsp
; Line 81
  000a0	8b f4		 mov	 esi, esp
  000a2	6a 00		 push	 0
  000a4	6a 00		 push	 0
  000a6	6a 03		 push	 3
  000a8	6a 00		 push	 0
  000aa	6a 01		 push	 1
  000ac	68 00 00 00 80	 push	 -2147483648		; 80000000H
  000b1	8d 85 c8 fd ff
	ff		 lea	 eax, DWORD PTR _strPath$4[ebp]
  000b7	50		 push	 eax
  000b8	ff 15 00 00 00
	00		 call	 DWORD PTR __imp__CreateFileW@28
  000be	3b f4		 cmp	 esi, esp
  000c0	e8 00 00 00 00	 call	 __RTC_CheckEsp
  000c5	89 45 d4	 mov	 DWORD PTR _hFile$5[ebp], eax
  000c8	83 7d d4 ff	 cmp	 DWORD PTR _hFile$5[ebp], -1
  000cc	74 32		 je	 SHORT $LN7@DXUTDispla
; Line 83
  000ce	8b f4		 mov	 esi, esp
  000d0	6a 00		 push	 0
  000d2	8d 4d e8	 lea	 ecx, DWORD PTR _dwRead$7[ebp]
  000d5	51		 push	 ecx
  000d6	6a 04		 push	 4
  000d8	8d 55 f4	 lea	 edx, DWORD PTR _dwSkipWarning$8[ebp]
  000db	52		 push	 edx
  000dc	8b 45 d4	 mov	 eax, DWORD PTR _hFile$5[ebp]
  000df	50		 push	 eax
  000e0	ff 15 00 00 00
	00		 call	 DWORD PTR __imp__ReadFile@20
  000e6	3b f4		 cmp	 esi, esp
  000e8	e8 00 00 00 00	 call	 __RTC_CheckEsp
; Line 84
  000ed	8b f4		 mov	 esi, esp
  000ef	8b 4d d4	 mov	 ecx, DWORD PTR _hFile$5[ebp]
  000f2	51		 push	 ecx
  000f3	ff 15 00 00 00
	00		 call	 DWORD PTR __imp__CloseHandle@4
  000f9	3b f4		 cmp	 esi, esp
  000fb	e8 00 00 00 00	 call	 __RTC_CheckEsp
$LN7@DXUTDispla:
; Line 88
  00100	83 7d f4 00	 cmp	 DWORD PTR _dwSkipWarning$8[ebp], 0
  00104	0f 85 73 04 00
	00		 jne	 $LN9@DXUTDispla
; Line 127
  0010a	c7 85 f8 fc ff
	ff c5 08 c8 90	 mov	 DWORD PTR _dtp$3[ebp], -1865938747 ; 90c808c5H
  00114	c7 85 fc fc ff
	ff 00 00 00 00	 mov	 DWORD PTR _dtp$3[ebp+4], 0
  0011e	ba 05 00 00 00	 mov	 edx, 5
  00123	66 89 95 00 fd
	ff ff		 mov	 WORD PTR _dtp$3[ebp+8], dx
  0012a	33 c0		 xor	 eax, eax
  0012c	66 89 85 02 fd
	ff ff		 mov	 WORD PTR _dtp$3[ebp+10], ax
  00133	33 c9		 xor	 ecx, ecx
  00135	66 89 8d 04 fd
	ff ff		 mov	 WORD PTR _dtp$3[ebp+12], cx
  0013c	ba 0d 01 00 00	 mov	 edx, 269		; 0000010dH
  00141	66 89 95 06 fd
	ff ff		 mov	 WORD PTR _dtp$3[ebp+14], dx
  00148	b8 52 00 00 00	 mov	 eax, 82			; 00000052H
  0014d	66 89 85 08 fd
	ff ff		 mov	 WORD PTR _dtp$3[ebp+16], ax
  00154	33 c9		 xor	 ecx, ecx
  00156	66 89 8d 0a fd
	ff ff		 mov	 WORD PTR _dtp$3[ebp+18], cx
  0015d	33 d2		 xor	 edx, edx
  0015f	66 89 95 0c fd
	ff ff		 mov	 WORD PTR _dtp$3[ebp+20], dx
  00166	a1 00 00 00 00	 mov	 eax, DWORD PTR $SG163462
  0016b	89 85 0e fd ff
	ff		 mov	 DWORD PTR _dtp$3[ebp+22], eax
  00171	b9 08 00 00 00	 mov	 ecx, 8
  00176	66 89 8d 12 fd
	ff ff		 mov	 WORD PTR _dtp$3[ebp+26], cx
  0017d	b9 07 00 00 00	 mov	 ecx, 7
  00182	be 00 00 00 00	 mov	 esi, OFFSET $SG163463
  00187	8d bd 14 fd ff
	ff		 lea	 edi, DWORD PTR _dtp$3[ebp+28]
  0018d	f3 a5		 rep movsd
  0018f	66 a5		 movsw
  00191	33 d2		 xor	 edx, edx
  00193	66 89 95 32 fd
	ff ff		 mov	 WORD PTR _dtp$3[ebp+58], dx
  0019a	c7 85 34 fd ff
	ff 03 02 00 50	 mov	 DWORD PTR _dtp$3[ebp+60], 1342177795 ; 50000203H
  001a4	c7 85 38 fd ff
	ff 00 00 00 00	 mov	 DWORD PTR _dtp$3[ebp+64], 0
  001ae	b8 07 00 00 00	 mov	 eax, 7
  001b3	66 89 85 3c fd
	ff ff		 mov	 WORD PTR _dtp$3[ebp+68], ax
  001ba	b9 07 00 00 00	 mov	 ecx, 7
  001bf	66 89 8d 3e fd
	ff ff		 mov	 WORD PTR _dtp$3[ebp+70], cx
  001c6	ba 18 00 00 00	 mov	 edx, 24			; 00000018H
  001cb	66 89 95 40 fd
	ff ff		 mov	 WORD PTR _dtp$3[ebp+72], dx
  001d2	b8 18 00 00 00	 mov	 eax, 24			; 00000018H
  001d7	66 89 85 42 fd
	ff ff		 mov	 WORD PTR _dtp$3[ebp+74], ax
  001de	b9 00 01 00 00	 mov	 ecx, 256		; 00000100H
  001e3	66 89 8d 44 fd
	ff ff		 mov	 WORD PTR _dtp$3[ebp+76], cx
  001ea	ba ff ff 00 00	 mov	 edx, 65535		; 0000ffffH
  001ef	66 89 95 46 fd
	ff ff		 mov	 WORD PTR _dtp$3[ebp+78], dx
  001f6	b8 82 00 00 00	 mov	 eax, 130		; 00000082H
  001fb	66 89 85 48 fd
	ff ff		 mov	 WORD PTR _dtp$3[ebp+80], ax
  00202	33 c9		 xor	 ecx, ecx
  00204	66 89 8d 4a fd
	ff ff		 mov	 WORD PTR _dtp$3[ebp+82], cx
  0020b	33 d2		 xor	 edx, edx
  0020d	66 89 95 4c fd
	ff ff		 mov	 WORD PTR _dtp$3[ebp+84], dx
  00214	33 c0		 xor	 eax, eax
  00216	66 89 85 4e fd
	ff ff		 mov	 WORD PTR _dtp$3[ebp+86], ax
  0021d	c7 85 50 fd ff
	ff 00 00 00 50	 mov	 DWORD PTR _dtp$3[ebp+88], 1342177280 ; 50000000H
  00227	c7 85 54 fd ff
	ff 00 00 00 00	 mov	 DWORD PTR _dtp$3[ebp+92], 0
  00231	b9 28 00 00 00	 mov	 ecx, 40			; 00000028H
  00236	66 89 8d 58 fd
	ff ff		 mov	 WORD PTR _dtp$3[ebp+96], cx
  0023d	ba 07 00 00 00	 mov	 edx, 7
  00242	66 89 95 5a fd
	ff ff		 mov	 WORD PTR _dtp$3[ebp+98], dx
  00249	b8 e6 00 00 00	 mov	 eax, 230		; 000000e6H
  0024e	66 89 85 5c fd
	ff ff		 mov	 WORD PTR _dtp$3[ebp+100], ax
  00255	b9 19 00 00 00	 mov	 ecx, 25			; 00000019H
  0025a	66 89 8d 5e fd
	ff ff		 mov	 WORD PTR _dtp$3[ebp+102], cx
  00261	ba 01 01 00 00	 mov	 edx, 257		; 00000101H
  00266	66 89 95 60 fd
	ff ff		 mov	 WORD PTR _dtp$3[ebp+104], dx
  0026d	b8 ff ff 00 00	 mov	 eax, 65535		; 0000ffffH
  00272	66 89 85 62 fd
	ff ff		 mov	 WORD PTR _dtp$3[ebp+106], ax
  00279	b9 82 00 00 00	 mov	 ecx, 130		; 00000082H
  0027e	66 89 8d 64 fd
	ff ff		 mov	 WORD PTR _dtp$3[ebp+108], cx
  00285	33 d2		 xor	 edx, edx
  00287	66 89 95 66 fd
	ff ff		 mov	 WORD PTR _dtp$3[ebp+110], dx
  0028e	33 c0		 xor	 eax, eax
  00290	66 89 85 68 fd
	ff ff		 mov	 WORD PTR _dtp$3[ebp+112], ax
  00297	33 c9		 xor	 ecx, ecx
  00299	66 89 8d 6a fd
	ff ff		 mov	 WORD PTR _dtp$3[ebp+114], cx
  002a0	c7 85 6c fd ff
	ff 01 00 01 50	 mov	 DWORD PTR _dtp$3[ebp+116], 1342242817 ; 50010001H
  002aa	c7 85 70 fd ff
	ff 00 00 00 00	 mov	 DWORD PTR _dtp$3[ebp+120], 0
  002b4	ba 50 00 00 00	 mov	 edx, 80			; 00000050H
  002b9	66 89 95 74 fd
	ff ff		 mov	 WORD PTR _dtp$3[ebp+124], dx
  002c0	b8 27 00 00 00	 mov	 eax, 39			; 00000027H
  002c5	66 89 85 76 fd
	ff ff		 mov	 WORD PTR _dtp$3[ebp+126], ax
  002cc	b9 32 00 00 00	 mov	 ecx, 50			; 00000032H
  002d1	66 89 8d 78 fd
	ff ff		 mov	 WORD PTR _dtp$3[ebp+128], cx
  002d8	ba 0e 00 00 00	 mov	 edx, 14			; 0000000eH
  002dd	66 89 95 7a fd
	ff ff		 mov	 WORD PTR _dtp$3[ebp+130], dx
  002e4	b8 06 00 00 00	 mov	 eax, 6
  002e9	66 89 85 7c fd
	ff ff		 mov	 WORD PTR _dtp$3[ebp+132], ax
  002f0	b9 ff ff 00 00	 mov	 ecx, 65535		; 0000ffffH
  002f5	66 89 8d 7e fd
	ff ff		 mov	 WORD PTR _dtp$3[ebp+134], cx
  002fc	ba 80 00 00 00	 mov	 edx, 128		; 00000080H
  00301	66 89 95 80 fd
	ff ff		 mov	 WORD PTR _dtp$3[ebp+136], dx
  00308	33 c0		 xor	 eax, eax
  0030a	66 89 85 82 fd
	ff ff		 mov	 WORD PTR _dtp$3[ebp+138], ax
  00311	33 c9		 xor	 ecx, ecx
  00313	66 89 8d 84 fd
	ff ff		 mov	 WORD PTR _dtp$3[ebp+140], cx
  0031a	33 d2		 xor	 edx, edx
  0031c	66 89 95 86 fd
	ff ff		 mov	 WORD PTR _dtp$3[ebp+142], dx
  00323	c7 85 88 fd ff
	ff 00 00 01 50	 mov	 DWORD PTR _dtp$3[ebp+144], 1342242816 ; 50010000H
  0032d	c7 85 8c fd ff
	ff 00 00 00 00	 mov	 DWORD PTR _dtp$3[ebp+148], 0
  00337	b8 85 00 00 00	 mov	 eax, 133		; 00000085H
  0033c	66 89 85 90 fd
	ff ff		 mov	 WORD PTR _dtp$3[ebp+152], ax
  00343	b9 27 00 00 00	 mov	 ecx, 39			; 00000027H
  00348	66 89 8d 92 fd
	ff ff		 mov	 WORD PTR _dtp$3[ebp+154], cx
  0034f	ba 32 00 00 00	 mov	 edx, 50			; 00000032H
  00354	66 89 95 94 fd
	ff ff		 mov	 WORD PTR _dtp$3[ebp+156], dx
  0035b	b8 0e 00 00 00	 mov	 eax, 14			; 0000000eH
  00360	66 89 85 96 fd
	ff ff		 mov	 WORD PTR _dtp$3[ebp+158], ax
  00367	b9 07 00 00 00	 mov	 ecx, 7
  0036c	66 89 8d 98 fd
	ff ff		 mov	 WORD PTR _dtp$3[ebp+160], cx
  00373	ba ff ff 00 00	 mov	 edx, 65535		; 0000ffffH
  00378	66 89 95 9a fd
	ff ff		 mov	 WORD PTR _dtp$3[ebp+162], dx
  0037f	b8 80 00 00 00	 mov	 eax, 128		; 00000080H
  00384	66 89 85 9c fd
	ff ff		 mov	 WORD PTR _dtp$3[ebp+164], ax
  0038b	33 c9		 xor	 ecx, ecx
  0038d	66 89 8d 9e fd
	ff ff		 mov	 WORD PTR _dtp$3[ebp+166], cx
  00394	33 d2		 xor	 edx, edx
  00396	66 89 95 a0 fd
	ff ff		 mov	 WORD PTR _dtp$3[ebp+168], dx
  0039d	33 c0		 xor	 eax, eax
  0039f	66 89 85 a2 fd
	ff ff		 mov	 WORD PTR _dtp$3[ebp+170], ax
  003a6	c7 85 a4 fd ff
	ff 02 00 01 50	 mov	 DWORD PTR _dtp$3[ebp+172], 1342242818 ; 50010002H
  003b0	c7 85 a8 fd ff
	ff 00 00 00 00	 mov	 DWORD PTR _dtp$3[ebp+176], 0
  003ba	b9 07 00 00 00	 mov	 ecx, 7
  003bf	66 89 8d ac fd
	ff ff		 mov	 WORD PTR _dtp$3[ebp+180], cx
  003c6	ba 3b 00 00 00	 mov	 edx, 59			; 0000003bH
  003cb	66 89 95 ae fd
	ff ff		 mov	 WORD PTR _dtp$3[ebp+182], dx
  003d2	b8 46 00 00 00	 mov	 eax, 70			; 00000046H
  003d7	66 89 85 b0 fd
	ff ff		 mov	 WORD PTR _dtp$3[ebp+184], ax
  003de	b9 10 00 00 00	 mov	 ecx, 16			; 00000010H
  003e3	66 89 8d b2 fd
	ff ff		 mov	 WORD PTR _dtp$3[ebp+186], cx
  003ea	ba 05 00 00 00	 mov	 edx, 5
  003ef	66 89 95 b4 fd
	ff ff		 mov	 WORD PTR _dtp$3[ebp+188], dx
  003f6	b8 ff ff 00 00	 mov	 eax, 65535		; 0000ffffH
  003fb	66 89 85 b6 fd
	ff ff		 mov	 WORD PTR _dtp$3[ebp+190], ax
  00402	b9 80 00 00 00	 mov	 ecx, 128		; 00000080H
  00407	66 89 8d b8 fd
	ff ff		 mov	 WORD PTR _dtp$3[ebp+192], cx
  0040e	33 d2		 xor	 edx, edx
  00410	66 89 95 ba fd
	ff ff		 mov	 WORD PTR _dtp$3[ebp+194], dx
  00417	33 c0		 xor	 eax, eax
  00419	66 89 85 bc fd
	ff ff		 mov	 WORD PTR _dtp$3[ebp+196], ax
  00420	33 c9		 xor	 ecx, ecx
  00422	66 89 8d be fd
	ff ff		 mov	 WORD PTR _dtp$3[ebp+198], cx
; Line 130
  00429	c7 85 f0 fc ff
	ff 0b 00 00 00	 mov	 DWORD PTR _lParam$2[ebp], 11 ; 0000000bH
; Line 132
  00433	8b f4		 mov	 esi, esp
  00435	8b 95 f0 fc ff
	ff		 mov	 edx, DWORD PTR _lParam$2[ebp]
  0043b	52		 push	 edx
  0043c	68 00 00 00 00	 push	 OFFSET ?DisplaySwitchToREFWarningProc@@YGHPAUHWND__@@IIJ@Z ; DisplaySwitchToREFWarningProc
  00441	e8 00 00 00 00	 call	 ?DXUTGetHWND@@YGPAUHWND__@@XZ ; DXUTGetHWND
  00446	50		 push	 eax
  00447	8d 85 f8 fc ff
	ff		 lea	 eax, DWORD PTR _dtp$3[ebp]
  0044d	50		 push	 eax
  0044e	e8 00 00 00 00	 call	 ?DXUTGetHINSTANCE@@YGPAUHINSTANCE__@@XZ ; DXUTGetHINSTANCE
  00453	50		 push	 eax
  00454	ff 15 00 00 00
	00		 call	 DWORD PTR __imp__DialogBoxIndirectParamW@20
  0045a	3b f4		 cmp	 esi, esp
  0045c	e8 00 00 00 00	 call	 __RTC_CheckEsp
  00461	89 85 ec fc ff
	ff		 mov	 DWORD PTR _nResult$1[ebp], eax
; Line 134
  00467	8b 8d ec fc ff
	ff		 mov	 ecx, DWORD PTR _nResult$1[ebp]
  0046d	81 e1 80 00 00
	00		 and	 ecx, 128		; 00000080H
  00473	0f 84 ef 00 00
	00		 je	 $LN4@DXUTDispla
; Line 137
  00479	c7 45 f4 01 00
	00 00		 mov	 DWORD PTR _dwSkipWarning$8[ebp], 1
; Line 138
  00480	8b f4		 mov	 esi, esp
  00482	8d 95 c8 fd ff
	ff		 lea	 edx, DWORD PTR _strPath$4[ebp]
  00488	52		 push	 edx
  00489	6a 00		 push	 0
  0048b	6a 00		 push	 0
  0048d	6a 1c		 push	 28			; 0000001cH
  0048f	e8 00 00 00 00	 call	 ?DXUTGetHWND@@YGPAUHWND__@@XZ ; DXUTGetHWND
  00494	50		 push	 eax
  00495	ff 15 00 00 00
	00		 call	 DWORD PTR __imp__SHGetFolderPathW@20
  0049b	3b f4		 cmp	 esi, esp
  0049d	e8 00 00 00 00	 call	 __RTC_CheckEsp
  004a2	85 c0		 test	 eax, eax
  004a4	0f 8c be 00 00
	00		 jl	 $LN4@DXUTDispla
; Line 140
  004aa	8b f4		 mov	 esi, esp
  004ac	68 00 00 00 00	 push	 OFFSET $SG163471
  004b1	68 04 01 00 00	 push	 260			; 00000104H
  004b6	8d 85 c8 fd ff
	ff		 lea	 eax, DWORD PTR _strPath$4[ebp]
  004bc	50		 push	 eax
  004bd	ff 15 00 00 00
	00		 call	 DWORD PTR __imp__wcscat_s
  004c3	83 c4 0c	 add	 esp, 12			; 0000000cH
  004c6	3b f4		 cmp	 esi, esp
  004c8	e8 00 00 00 00	 call	 __RTC_CheckEsp
; Line 141
  004cd	8b f4		 mov	 esi, esp
  004cf	6a 00		 push	 0
  004d1	8d 8d c8 fd ff
	ff		 lea	 ecx, DWORD PTR _strPath$4[ebp]
  004d7	51		 push	 ecx
  004d8	ff 15 00 00 00
	00		 call	 DWORD PTR __imp__CreateDirectoryW@8
  004de	3b f4		 cmp	 esi, esp
  004e0	e8 00 00 00 00	 call	 __RTC_CheckEsp
; Line 142
  004e5	8b f4		 mov	 esi, esp
  004e7	68 00 00 00 00	 push	 OFFSET $SG163472
  004ec	68 04 01 00 00	 push	 260			; 00000104H
  004f1	8d 95 c8 fd ff
	ff		 lea	 edx, DWORD PTR _strPath$4[ebp]
  004f7	52		 push	 edx
  004f8	ff 15 00 00 00
	00		 call	 DWORD PTR __imp__wcscat_s
  004fe	83 c4 0c	 add	 esp, 12			; 0000000cH
  00501	3b f4		 cmp	 esi, esp
  00503	e8 00 00 00 00	 call	 __RTC_CheckEsp
; Line 144
  00508	8b f4		 mov	 esi, esp
  0050a	6a 00		 push	 0
  0050c	6a 00		 push	 0
  0050e	6a 02		 push	 2
  00510	6a 00		 push	 0
  00512	6a 00		 push	 0
  00514	68 00 00 00 40	 push	 1073741824		; 40000000H
  00519	8d 85 c8 fd ff
	ff		 lea	 eax, DWORD PTR _strPath$4[ebp]
  0051f	50		 push	 eax
  00520	ff 15 00 00 00
	00		 call	 DWORD PTR __imp__CreateFileW@28
  00526	3b f4		 cmp	 esi, esp
  00528	e8 00 00 00 00	 call	 __RTC_CheckEsp
  0052d	89 45 d4	 mov	 DWORD PTR _hFile$5[ebp], eax
  00530	83 7d d4 ff	 cmp	 DWORD PTR _hFile$5[ebp], -1
  00534	74 32		 je	 SHORT $LN4@DXUTDispla
; Line 146
  00536	8b f4		 mov	 esi, esp
  00538	6a 00		 push	 0
  0053a	8d 4d dc	 lea	 ecx, DWORD PTR _dwWritten$6[ebp]
  0053d	51		 push	 ecx
  0053e	6a 04		 push	 4
  00540	8d 55 f4	 lea	 edx, DWORD PTR _dwSkipWarning$8[ebp]
  00543	52		 push	 edx
  00544	8b 45 d4	 mov	 eax, DWORD PTR _hFile$5[ebp]
  00547	50		 push	 eax
  00548	ff 15 00 00 00
	00		 call	 DWORD PTR __imp__WriteFile@20
  0054e	3b f4		 cmp	 esi, esp
  00550	e8 00 00 00 00	 call	 __RTC_CheckEsp
; Line 147
  00555	8b f4		 mov	 esi, esp
  00557	8b 4d d4	 mov	 ecx, DWORD PTR _hFile$5[ebp]
  0055a	51		 push	 ecx
  0055b	ff 15 00 00 00
	00		 call	 DWORD PTR __imp__CloseHandle@4
  00561	3b f4		 cmp	 esi, esp
  00563	e8 00 00 00 00	 call	 __RTC_CheckEsp
$LN4@DXUTDispla:
; Line 153
  00568	8b 95 ec fc ff
	ff		 mov	 edx, DWORD PTR _nResult$1[ebp]
  0056e	83 e2 0f	 and	 edx, 15			; 0000000fH
  00571	83 fa 07	 cmp	 edx, 7
  00574	75 07		 jne	 SHORT $LN9@DXUTDispla
; Line 154
  00576	6a 01		 push	 1
  00578	e8 00 00 00 00	 call	 ?DXUTShutdown@@YGXH@Z	; DXUTShutdown
$LN9@DXUTDispla:
; Line 157
  0057d	52		 push	 edx
  0057e	8b cd		 mov	 ecx, ebp
  00580	50		 push	 eax
  00581	8d 15 00 00 00
	00		 lea	 edx, DWORD PTR $LN17@DXUTDispla
  00587	e8 00 00 00 00	 call	 @_RTC_CheckStackVars@8
  0058c	58		 pop	 eax
  0058d	5a		 pop	 edx
  0058e	5f		 pop	 edi
  0058f	5e		 pop	 esi
  00590	8b 4d fc	 mov	 ecx, DWORD PTR __$ArrayPad$[ebp]
  00593	33 cd		 xor	 ecx, ebp
  00595	e8 00 00 00 00	 call	 @__security_check_cookie@4
  0059a	81 c4 14 03 00
	00		 add	 esp, 788		; 00000314H
  005a0	3b ec		 cmp	 ebp, esp
  005a2	e8 00 00 00 00	 call	 __RTC_CheckEsp
  005a7	8b e5		 mov	 esp, ebp
  005a9	5d		 pop	 ebp
  005aa	c3		 ret	 0
  005ab	90		 npad	 1
$LN17@DXUTDispla:
  005ac	05 00 00 00	 DD	 5
  005b0	00 00 00 00	 DD	 $LN16@DXUTDispla
$LN16@DXUTDispla:
  005b4	f4 ff ff ff	 DD	 -12			; fffffff4H
  005b8	04 00 00 00	 DD	 4
  005bc	00 00 00 00	 DD	 $LN11@DXUTDispla
  005c0	e8 ff ff ff	 DD	 -24			; ffffffe8H
  005c4	04 00 00 00	 DD	 4
  005c8	00 00 00 00	 DD	 $LN12@DXUTDispla
  005cc	dc ff ff ff	 DD	 -36			; ffffffdcH
  005d0	04 00 00 00	 DD	 4
  005d4	00 00 00 00	 DD	 $LN13@DXUTDispla
  005d8	c8 fd ff ff	 DD	 -568			; fffffdc8H
  005dc	08 02 00 00	 DD	 520			; 00000208H
  005e0	00 00 00 00	 DD	 $LN14@DXUTDispla
  005e4	f8 fc ff ff	 DD	 -776			; fffffcf8H
  005e8	c8 00 00 00	 DD	 200			; 000000c8H
  005ec	00 00 00 00	 DD	 $LN15@DXUTDispla
$LN15@DXUTDispla:
  005f0	64		 DB	 100			; 00000064H
  005f1	74		 DB	 116			; 00000074H
  005f2	70		 DB	 112			; 00000070H
  005f3	00		 DB	 0
$LN14@DXUTDispla:
  005f4	73		 DB	 115			; 00000073H
  005f5	74		 DB	 116			; 00000074H
  005f6	72		 DB	 114			; 00000072H
  005f7	50		 DB	 80			; 00000050H
  005f8	61		 DB	 97			; 00000061H
  005f9	74		 DB	 116			; 00000074H
  005fa	68		 DB	 104			; 00000068H
  005fb	00		 DB	 0
$LN13@DXUTDispla:
  005fc	64		 DB	 100			; 00000064H
  005fd	77		 DB	 119			; 00000077H
  005fe	57		 DB	 87			; 00000057H
  005ff	72		 DB	 114			; 00000072H
  00600	69		 DB	 105			; 00000069H
  00601	74		 DB	 116			; 00000074H
  00602	74		 DB	 116			; 00000074H
  00603	65		 DB	 101			; 00000065H
  00604	6e		 DB	 110			; 0000006eH
  00605	00		 DB	 0
$LN12@DXUTDispla:
  00606	64		 DB	 100			; 00000064H
  00607	77		 DB	 119			; 00000077H
  00608	52		 DB	 82			; 00000052H
  00609	65		 DB	 101			; 00000065H
  0060a	61		 DB	 97			; 00000061H
  0060b	64		 DB	 100			; 00000064H
  0060c	00		 DB	 0
$LN11@DXUTDispla:
  0060d	64		 DB	 100			; 00000064H
  0060e	77		 DB	 119			; 00000077H
  0060f	53		 DB	 83			; 00000053H
  00610	6b		 DB	 107			; 0000006bH
  00611	69		 DB	 105			; 00000069H
  00612	70		 DB	 112			; 00000070H
  00613	57		 DB	 87			; 00000057H
  00614	61		 DB	 97			; 00000061H
  00615	72		 DB	 114			; 00000072H
  00616	6e		 DB	 110			; 0000006eH
  00617	69		 DB	 105			; 00000069H
  00618	6e		 DB	 110			; 0000006eH
  00619	67		 DB	 103			; 00000067H
  0061a	00		 DB	 0
?DXUTDisplaySwitchingToREFWarning@@YGXXZ ENDP		; DXUTDisplaySwitchingToREFWarning
_TEXT	ENDS
; Function compile flags: /Odtp /RTCsu
_TEXT	SEGMENT
_this$ = -4						; size = 4
?End@CDXUTTextHelper@@QAEXXZ PROC			; CDXUTTextHelper::End
; _this$ = ecx
; File d:\engine class\assignment 1\new scratch\dxut\optional\sdkmisc.cpp
; Line 1027
  00000	55		 push	 ebp
  00001	8b ec		 mov	 ebp, esp
  00003	51		 push	 ecx
  00004	c7 45 fc cc cc
	cc cc		 mov	 DWORD PTR [ebp-4], -858993460 ; ccccccccH
  0000b	89 4d fc	 mov	 DWORD PTR _this$[ebp], ecx
; Line 1028
  0000e	8b 45 fc	 mov	 eax, DWORD PTR _this$[ebp]
  00011	83 78 20 00	 cmp	 DWORD PTR [eax+32], 0
  00015	74 12		 je	 SHORT $LN2@End
; Line 1030
  00017	8b 4d fc	 mov	 ecx, DWORD PTR _this$[ebp]
  0001a	8b 51 20	 mov	 edx, DWORD PTR [ecx+32]
  0001d	52		 push	 edx
  0001e	8b 45 fc	 mov	 eax, DWORD PTR _this$[ebp]
  00021	8b 48 24	 mov	 ecx, DWORD PTR [eax+36]
  00024	e8 00 00 00 00	 call	 ?RestoreD3D11State@CDXUTDialogResourceManager@@QAEXPAUID3D11DeviceContext@@@Z ; CDXUTDialogResourceManager::RestoreD3D11State
$LN2@End:
; Line 1032
  00029	83 c4 04	 add	 esp, 4
  0002c	3b ec		 cmp	 ebp, esp
  0002e	e8 00 00 00 00	 call	 __RTC_CheckEsp
  00033	8b e5		 mov	 esp, ebp
  00035	5d		 pop	 ebp
  00036	c3		 ret	 0
?End@CDXUTTextHelper@@QAEXXZ ENDP			; CDXUTTextHelper::End
_TEXT	ENDS
; Function compile flags: /Odtp /RTCsu
_TEXT	SEGMENT
tv156 = -32						; size = 8
tv152 = -24						; size = 4
tv146 = -20						; size = 8
tv142 = -12						; size = 4
_hr$ = -8						; size = 4
_this$ = -4						; size = 4
_rc$ = 8						; size = 4
_strMsg$ = 12						; size = 4
?DrawTextLine@CDXUTTextHelper@@QAEJABUtagRECT@@PB_W@Z PROC ; CDXUTTextHelper::DrawTextLine
; _this$ = ecx
; File d:\engine class\assignment 1\new scratch\dxut\optional\sdkmisc.cpp
; Line 995
  00000	55		 push	 ebp
  00001	8b ec		 mov	 ebp, esp
  00003	83 ec 20	 sub	 esp, 32			; 00000020H
  00006	b8 cc cc cc cc	 mov	 eax, -858993460		; ccccccccH
  0000b	89 45 e0	 mov	 DWORD PTR [ebp-32], eax
  0000e	89 45 e4	 mov	 DWORD PTR [ebp-28], eax
  00011	89 45 e8	 mov	 DWORD PTR [ebp-24], eax
  00014	89 45 ec	 mov	 DWORD PTR [ebp-20], eax
  00017	89 45 f0	 mov	 DWORD PTR [ebp-16], eax
  0001a	89 45 f4	 mov	 DWORD PTR [ebp-12], eax
  0001d	89 45 f8	 mov	 DWORD PTR [ebp-8], eax
  00020	89 45 fc	 mov	 DWORD PTR [ebp-4], eax
  00023	89 4d fc	 mov	 DWORD PTR _this$[ebp], ecx
; Line 996
  00026	8b 45 fc	 mov	 eax, DWORD PTR _this$[ebp]
  00029	83 78 20 00	 cmp	 DWORD PTR [eax+32], 0
  0002d	75 20		 jne	 SHORT $LN2@DrawTextLi
; Line 997
  0002f	6a 01		 push	 1
  00031	68 00 00 00 00	 push	 OFFSET $SG163918
  00036	68 57 00 07 80	 push	 -2147024809		; 80070057H
  0003b	68 e5 03 00 00	 push	 997			; 000003e5H
  00040	68 00 00 00 00	 push	 OFFSET $SG163919
  00045	e8 00 00 00 00	 call	 ?DXUTTrace@@YGJPBDKJPB_W_N@Z ; DXUTTrace
  0004a	e9 db 00 00 00	 jmp	 $LN3@DrawTextLi
$LN2@DrawTextLi:
; Line 999
  0004f	c7 45 f8 00 00
	00 00		 mov	 DWORD PTR _hr$[ebp], 0
; Line 1001
  00056	6a 00		 push	 0
  00058	8b 4d fc	 mov	 ecx, DWORD PTR _this$[ebp]
  0005b	8b 51 24	 mov	 edx, DWORD PTR [ecx+36]
  0005e	8b 42 68	 mov	 eax, DWORD PTR [edx+104]
  00061	89 45 f4	 mov	 DWORD PTR tv142[ebp], eax
  00064	f2 0f 2a 45 f4	 cvtsi2sd xmm0, DWORD PTR tv142[ebp]
  00069	8b 4d f4	 mov	 ecx, DWORD PTR tv142[ebp]
  0006c	c1 e9 1f	 shr	 ecx, 31			; 0000001fH
  0006f	f2 0f 58 04 cd
	00 00 00 00	 addsd	 xmm0, QWORD PTR __xmm@41f00000000000000000000000000000[ecx*8]
  00078	f2 0f 11 45 ec	 movsd	 QWORD PTR tv146[ebp], xmm0
  0007d	f2 0f 5a 45 ec	 cvtsd2ss xmm0, QWORD PTR tv146[ebp]
  00082	51		 push	 ecx
  00083	f3 0f 11 04 24	 movss	 DWORD PTR [esp], xmm0
  00088	8b 55 fc	 mov	 edx, DWORD PTR _this$[ebp]
  0008b	8b 42 24	 mov	 eax, DWORD PTR [edx+36]
  0008e	8b 48 64	 mov	 ecx, DWORD PTR [eax+100]
  00091	89 4d e8	 mov	 DWORD PTR tv152[ebp], ecx
  00094	f2 0f 2a 45 e8	 cvtsi2sd xmm0, DWORD PTR tv152[ebp]
  00099	8b 55 e8	 mov	 edx, DWORD PTR tv152[ebp]
  0009c	c1 ea 1f	 shr	 edx, 31			; 0000001fH
  0009f	f2 0f 58 04 d5
	00 00 00 00	 addsd	 xmm0, QWORD PTR __xmm@41f00000000000000000000000000000[edx*8]
  000a8	f2 0f 11 45 e0	 movsd	 QWORD PTR tv156[ebp], xmm0
  000ad	f2 0f 5a 45 e0	 cvtsd2ss xmm0, QWORD PTR tv156[ebp]
  000b2	51		 push	 ecx
  000b3	f3 0f 11 04 24	 movss	 DWORD PTR [esp], xmm0
  000b8	8b 45 fc	 mov	 eax, DWORD PTR _this$[ebp]
  000bb	83 ec 10	 sub	 esp, 16			; 00000010H
  000be	8b cc		 mov	 ecx, esp
  000c0	8b 10		 mov	 edx, DWORD PTR [eax]
  000c2	89 11		 mov	 DWORD PTR [ecx], edx
  000c4	8b 50 04	 mov	 edx, DWORD PTR [eax+4]
  000c7	89 51 04	 mov	 DWORD PTR [ecx+4], edx
  000ca	8b 50 08	 mov	 edx, DWORD PTR [eax+8]
  000cd	89 51 08	 mov	 DWORD PTR [ecx+8], edx
  000d0	8b 40 0c	 mov	 eax, DWORD PTR [eax+12]
  000d3	89 41 0c	 mov	 DWORD PTR [ecx+12], eax
  000d6	8b 4d 08	 mov	 ecx, DWORD PTR _rc$[ebp]
  000d9	51		 push	 ecx
  000da	8b 55 0c	 mov	 edx, DWORD PTR _strMsg$[ebp]
  000dd	52		 push	 edx
  000de	8b 45 fc	 mov	 eax, DWORD PTR _this$[ebp]
  000e1	8b 48 20	 mov	 ecx, DWORD PTR [eax+32]
  000e4	51		 push	 ecx
  000e5	8b 55 fc	 mov	 edx, DWORD PTR _this$[ebp]
  000e8	8b 42 1c	 mov	 eax, DWORD PTR [edx+28]
  000eb	50		 push	 eax
  000ec	e8 00 00 00 00	 call	 ?DrawText11DXUT@@YAXPAUID3D11Device@@PAUID3D11DeviceContext@@PB_WABUtagRECT@@UXMFLOAT4@DirectX@@MM_N@Z ; DrawText11DXUT
  000f1	83 c4 2c	 add	 esp, 44			; 0000002cH
; Line 1003
  000f4	83 7d f8 00	 cmp	 DWORD PTR _hr$[ebp], 0
  000f8	7d 1c		 jge	 SHORT $LN1@DrawTextLi
; Line 1004
  000fa	6a 01		 push	 1
  000fc	68 00 00 00 00	 push	 OFFSET $SG163927
  00101	8b 4d f8	 mov	 ecx, DWORD PTR _hr$[ebp]
  00104	51		 push	 ecx
  00105	68 ec 03 00 00	 push	 1004			; 000003ecH
  0010a	68 00 00 00 00	 push	 OFFSET $SG163928
  0010f	e8 00 00 00 00	 call	 _DXTraceW@20
  00114	eb 14		 jmp	 SHORT $LN3@DrawTextLi
$LN1@DrawTextLi:
; Line 1006
  00116	8b 55 fc	 mov	 edx, DWORD PTR _this$[ebp]
  00119	8b 42 14	 mov	 eax, DWORD PTR [edx+20]
  0011c	8b 4d fc	 mov	 ecx, DWORD PTR _this$[ebp]
  0011f	03 41 18	 add	 eax, DWORD PTR [ecx+24]
  00122	8b 55 fc	 mov	 edx, DWORD PTR _this$[ebp]
  00125	89 42 14	 mov	 DWORD PTR [edx+20], eax
; Line 1008
  00128	33 c0		 xor	 eax, eax
$LN3@DrawTextLi:
; Line 1009
  0012a	83 c4 20	 add	 esp, 32			; 00000020H
  0012d	3b ec		 cmp	 ebp, esp
  0012f	e8 00 00 00 00	 call	 __RTC_CheckEsp
  00134	8b e5		 mov	 esp, ebp
  00136	5d		 pop	 ebp
  00137	c2 08 00	 ret	 8
?DrawTextLine@CDXUTTextHelper@@QAEJABUtagRECT@@PB_W@Z ENDP ; CDXUTTextHelper::DrawTextLine
_TEXT	ENDS
; Function compile flags: /Odtp /RTCsu
_TEXT	SEGMENT
$T1 = -1044						; size = 4
_args$ = -1040						; size = 4
_strBuffer$ = -1032					; size = 1024
__$ArrayPad$ = -4					; size = 4
_this$ = 8						; size = 4
_rc$ = 12						; size = 4
_strMsg$ = 16						; size = 4
?DrawFormattedTextLine@CDXUTTextHelper@@QAAJABUtagRECT@@PB_WZZ PROC ; CDXUTTextHelper::DrawFormattedTextLine
; File d:\engine class\assignment 1\new scratch\dxut\optional\sdkmisc.cpp
; Line 979
  00000	55		 push	 ebp
  00001	8b ec		 mov	 ebp, esp
  00003	81 ec 14 04 00
	00		 sub	 esp, 1044		; 00000414H
  00009	56		 push	 esi
  0000a	57		 push	 edi
  0000b	8d bd ec fb ff
	ff		 lea	 edi, DWORD PTR [ebp-1044]
  00011	b9 05 01 00 00	 mov	 ecx, 261		; 00000105H
  00016	b8 cc cc cc cc	 mov	 eax, -858993460		; ccccccccH
  0001b	f3 ab		 rep stosd
  0001d	a1 00 00 00 00	 mov	 eax, DWORD PTR ___security_cookie
  00022	33 c5		 xor	 eax, ebp
  00024	89 45 fc	 mov	 DWORD PTR __$ArrayPad$[ebp], eax
; Line 983
  00027	8d 45 14	 lea	 eax, DWORD PTR _strMsg$[ebp+4]
  0002a	89 85 f0 fb ff
	ff		 mov	 DWORD PTR _args$[ebp], eax
; Line 984
  00030	8b f4		 mov	 esi, esp
  00032	8b 8d f0 fb ff
	ff		 mov	 ecx, DWORD PTR _args$[ebp]
  00038	51		 push	 ecx
  00039	8b 55 10	 mov	 edx, DWORD PTR _strMsg$[ebp]
  0003c	52		 push	 edx
  0003d	68 00 02 00 00	 push	 512			; 00000200H
  00042	8d 85 f8 fb ff
	ff		 lea	 eax, DWORD PTR _strBuffer$[ebp]
  00048	50		 push	 eax
  00049	ff 15 00 00 00
	00		 call	 DWORD PTR __imp__vswprintf_s
  0004f	83 c4 10	 add	 esp, 16			; 00000010H
  00052	3b f4		 cmp	 esi, esp
  00054	e8 00 00 00 00	 call	 __RTC_CheckEsp
; Line 985
  00059	b9 02 00 00 00	 mov	 ecx, 2
  0005e	69 d1 ff 01 00
	00		 imul	 edx, ecx, 511
  00064	89 95 ec fb ff
	ff		 mov	 DWORD PTR $T1[ebp], edx
  0006a	81 bd ec fb ff
	ff 00 04 00 00	 cmp	 DWORD PTR $T1[ebp], 1024 ; 00000400H
  00074	73 02		 jae	 SHORT $LN3@DrawFormat
  00076	eb 05		 jmp	 SHORT $LN4@DrawFormat
$LN3@DrawFormat:
  00078	e8 00 00 00 00	 call	 ___report_rangecheckfailure
$LN4@DrawFormat:
  0007d	33 c0		 xor	 eax, eax
  0007f	8b 8d ec fb ff
	ff		 mov	 ecx, DWORD PTR $T1[ebp]
  00085	66 89 84 0d f8
	fb ff ff	 mov	 WORD PTR _strBuffer$[ebp+ecx], ax
; Line 986
  0008d	c7 85 f0 fb ff
	ff 00 00 00 00	 mov	 DWORD PTR _args$[ebp], 0
; Line 988
  00097	8d 95 f8 fb ff
	ff		 lea	 edx, DWORD PTR _strBuffer$[ebp]
  0009d	52		 push	 edx
  0009e	8b 45 0c	 mov	 eax, DWORD PTR _rc$[ebp]
  000a1	50		 push	 eax
  000a2	8b 4d 08	 mov	 ecx, DWORD PTR _this$[ebp]
  000a5	e8 00 00 00 00	 call	 ?DrawTextLine@CDXUTTextHelper@@QAEJABUtagRECT@@PB_W@Z ; CDXUTTextHelper::DrawTextLine
$LN2@DrawFormat:
; Line 989
  000aa	52		 push	 edx
  000ab	8b cd		 mov	 ecx, ebp
  000ad	50		 push	 eax
  000ae	8d 15 00 00 00
	00		 lea	 edx, DWORD PTR $LN7@DrawFormat
  000b4	e8 00 00 00 00	 call	 @_RTC_CheckStackVars@8
  000b9	58		 pop	 eax
  000ba	5a		 pop	 edx
  000bb	5f		 pop	 edi
  000bc	5e		 pop	 esi
  000bd	8b 4d fc	 mov	 ecx, DWORD PTR __$ArrayPad$[ebp]
  000c0	33 cd		 xor	 ecx, ebp
  000c2	e8 00 00 00 00	 call	 @__security_check_cookie@4
  000c7	81 c4 14 04 00
	00		 add	 esp, 1044		; 00000414H
  000cd	3b ec		 cmp	 ebp, esp
  000cf	e8 00 00 00 00	 call	 __RTC_CheckEsp
  000d4	8b e5		 mov	 esp, ebp
  000d6	5d		 pop	 ebp
  000d7	c3		 ret	 0
$LN7@DrawFormat:
  000d8	01 00 00 00	 DD	 1
  000dc	00 00 00 00	 DD	 $LN6@DrawFormat
$LN6@DrawFormat:
  000e0	f8 fb ff ff	 DD	 -1032			; fffffbf8H
  000e4	00 04 00 00	 DD	 1024			; 00000400H
  000e8	00 00 00 00	 DD	 $LN5@DrawFormat
$LN5@DrawFormat:
  000ec	73		 DB	 115			; 00000073H
  000ed	74		 DB	 116			; 00000074H
  000ee	72		 DB	 114			; 00000072H
  000ef	42		 DB	 66			; 00000042H
  000f0	75		 DB	 117			; 00000075H
  000f1	66		 DB	 102			; 00000066H
  000f2	66		 DB	 102			; 00000066H
  000f3	65		 DB	 101			; 00000065H
  000f4	72		 DB	 114			; 00000072H
  000f5	00		 DB	 0
?DrawFormattedTextLine@CDXUTTextHelper@@QAAJABUtagRECT@@PB_WZZ ENDP ; CDXUTTextHelper::DrawFormattedTextLine
_TEXT	ENDS
; Function compile flags: /Odtp /RTCsu
_TEXT	SEGMENT
tv172 = -60						; size = 8
tv168 = -52						; size = 4
tv162 = -48						; size = 8
tv158 = -40						; size = 4
_rc$ = -32						; size = 16
_hr$ = -12						; size = 4
_this$ = -8						; size = 4
__$ArrayPad$ = -4					; size = 4
_strMsg$ = 8						; size = 4
?DrawTextLine@CDXUTTextHelper@@QAEJPB_W@Z PROC		; CDXUTTextHelper::DrawTextLine
; _this$ = ecx
; File d:\engine class\assignment 1\new scratch\dxut\optional\sdkmisc.cpp
; Line 957
  00000	55		 push	 ebp
  00001	8b ec		 mov	 ebp, esp
  00003	83 ec 3c	 sub	 esp, 60			; 0000003cH
  00006	56		 push	 esi
  00007	57		 push	 edi
  00008	51		 push	 ecx
  00009	8d 7d c4	 lea	 edi, DWORD PTR [ebp-60]
  0000c	b9 0f 00 00 00	 mov	 ecx, 15			; 0000000fH
  00011	b8 cc cc cc cc	 mov	 eax, -858993460		; ccccccccH
  00016	f3 ab		 rep stosd
  00018	59		 pop	 ecx
  00019	a1 00 00 00 00	 mov	 eax, DWORD PTR ___security_cookie
  0001e	33 c5		 xor	 eax, ebp
  00020	89 45 fc	 mov	 DWORD PTR __$ArrayPad$[ebp], eax
  00023	89 4d f8	 mov	 DWORD PTR _this$[ebp], ecx
; Line 958
  00026	8b 45 f8	 mov	 eax, DWORD PTR _this$[ebp]
  00029	83 78 20 00	 cmp	 DWORD PTR [eax+32], 0
  0002d	75 20		 jne	 SHORT $LN2@DrawTextLi
; Line 959
  0002f	6a 01		 push	 1
  00031	68 00 00 00 00	 push	 OFFSET $SG163884
  00036	68 57 00 07 80	 push	 -2147024809		; 80070057H
  0003b	68 bf 03 00 00	 push	 959			; 000003bfH
  00040	68 00 00 00 00	 push	 OFFSET $SG163885
  00045	e8 00 00 00 00	 call	 ?DXUTTrace@@YGJPBDKJPB_W_N@Z ; DXUTTrace
  0004a	e9 00 01 00 00	 jmp	 $LN3@DrawTextLi
$LN2@DrawTextLi:
; Line 961
  0004f	c7 45 f4 00 00
	00 00		 mov	 DWORD PTR _hr$[ebp], 0
; Line 963
  00056	8b f4		 mov	 esi, esp
  00058	6a 00		 push	 0
  0005a	6a 00		 push	 0
  0005c	8b 4d f8	 mov	 ecx, DWORD PTR _this$[ebp]
  0005f	8b 51 14	 mov	 edx, DWORD PTR [ecx+20]
  00062	52		 push	 edx
  00063	8b 45 f8	 mov	 eax, DWORD PTR _this$[ebp]
  00066	8b 48 10	 mov	 ecx, DWORD PTR [eax+16]
  00069	51		 push	 ecx
  0006a	8d 55 e0	 lea	 edx, DWORD PTR _rc$[ebp]
  0006d	52		 push	 edx
  0006e	ff 15 00 00 00
	00		 call	 DWORD PTR __imp__SetRect@20
  00074	3b f4		 cmp	 esi, esp
  00076	e8 00 00 00 00	 call	 __RTC_CheckEsp
; Line 965
  0007b	6a 00		 push	 0
  0007d	8b 45 f8	 mov	 eax, DWORD PTR _this$[ebp]
  00080	8b 48 24	 mov	 ecx, DWORD PTR [eax+36]
  00083	8b 51 68	 mov	 edx, DWORD PTR [ecx+104]
  00086	89 55 d8	 mov	 DWORD PTR tv158[ebp], edx
  00089	f2 0f 2a 45 d8	 cvtsi2sd xmm0, DWORD PTR tv158[ebp]
  0008e	8b 45 d8	 mov	 eax, DWORD PTR tv158[ebp]
  00091	c1 e8 1f	 shr	 eax, 31			; 0000001fH
  00094	f2 0f 58 04 c5
	00 00 00 00	 addsd	 xmm0, QWORD PTR __xmm@41f00000000000000000000000000000[eax*8]
  0009d	f2 0f 11 45 d0	 movsd	 QWORD PTR tv162[ebp], xmm0
  000a2	f2 0f 5a 45 d0	 cvtsd2ss xmm0, QWORD PTR tv162[ebp]
  000a7	51		 push	 ecx
  000a8	f3 0f 11 04 24	 movss	 DWORD PTR [esp], xmm0
  000ad	8b 4d f8	 mov	 ecx, DWORD PTR _this$[ebp]
  000b0	8b 51 24	 mov	 edx, DWORD PTR [ecx+36]
  000b3	8b 42 64	 mov	 eax, DWORD PTR [edx+100]
  000b6	89 45 cc	 mov	 DWORD PTR tv168[ebp], eax
  000b9	f2 0f 2a 45 cc	 cvtsi2sd xmm0, DWORD PTR tv168[ebp]
  000be	8b 4d cc	 mov	 ecx, DWORD PTR tv168[ebp]
  000c1	c1 e9 1f	 shr	 ecx, 31			; 0000001fH
  000c4	f2 0f 58 04 cd
	00 00 00 00	 addsd	 xmm0, QWORD PTR __xmm@41f00000000000000000000000000000[ecx*8]
  000cd	f2 0f 11 45 c4	 movsd	 QWORD PTR tv172[ebp], xmm0
  000d2	f2 0f 5a 45 c4	 cvtsd2ss xmm0, QWORD PTR tv172[ebp]
  000d7	51		 push	 ecx
  000d8	f3 0f 11 04 24	 movss	 DWORD PTR [esp], xmm0
  000dd	8b 55 f8	 mov	 edx, DWORD PTR _this$[ebp]
  000e0	83 ec 10	 sub	 esp, 16			; 00000010H
  000e3	8b c4		 mov	 eax, esp
  000e5	8b 0a		 mov	 ecx, DWORD PTR [edx]
  000e7	89 08		 mov	 DWORD PTR [eax], ecx
  000e9	8b 4a 04	 mov	 ecx, DWORD PTR [edx+4]
  000ec	89 48 04	 mov	 DWORD PTR [eax+4], ecx
  000ef	8b 4a 08	 mov	 ecx, DWORD PTR [edx+8]
  000f2	89 48 08	 mov	 DWORD PTR [eax+8], ecx
  000f5	8b 52 0c	 mov	 edx, DWORD PTR [edx+12]
  000f8	89 50 0c	 mov	 DWORD PTR [eax+12], edx
  000fb	8d 45 e0	 lea	 eax, DWORD PTR _rc$[ebp]
  000fe	50		 push	 eax
  000ff	8b 4d 08	 mov	 ecx, DWORD PTR _strMsg$[ebp]
  00102	51		 push	 ecx
  00103	8b 55 f8	 mov	 edx, DWORD PTR _this$[ebp]
  00106	8b 42 20	 mov	 eax, DWORD PTR [edx+32]
  00109	50		 push	 eax
  0010a	8b 4d f8	 mov	 ecx, DWORD PTR _this$[ebp]
  0010d	8b 51 1c	 mov	 edx, DWORD PTR [ecx+28]
  00110	52		 push	 edx
  00111	e8 00 00 00 00	 call	 ?DrawText11DXUT@@YAXPAUID3D11Device@@PAUID3D11DeviceContext@@PB_WABUtagRECT@@UXMFLOAT4@DirectX@@MM_N@Z ; DrawText11DXUT
  00116	83 c4 2c	 add	 esp, 44			; 0000002cH
; Line 967
  00119	83 7d f4 00	 cmp	 DWORD PTR _hr$[ebp], 0
  0011d	7d 1c		 jge	 SHORT $LN1@DrawTextLi
; Line 968
  0011f	6a 01		 push	 1
  00121	68 00 00 00 00	 push	 OFFSET $SG163894
  00126	8b 45 f4	 mov	 eax, DWORD PTR _hr$[ebp]
  00129	50		 push	 eax
  0012a	68 c8 03 00 00	 push	 968			; 000003c8H
  0012f	68 00 00 00 00	 push	 OFFSET $SG163895
  00134	e8 00 00 00 00	 call	 _DXTraceW@20
  00139	eb 14		 jmp	 SHORT $LN3@DrawTextLi
$LN1@DrawTextLi:
; Line 970
  0013b	8b 4d f8	 mov	 ecx, DWORD PTR _this$[ebp]
  0013e	8b 51 14	 mov	 edx, DWORD PTR [ecx+20]
  00141	8b 45 f8	 mov	 eax, DWORD PTR _this$[ebp]
  00144	03 50 18	 add	 edx, DWORD PTR [eax+24]
  00147	8b 4d f8	 mov	 ecx, DWORD PTR _this$[ebp]
  0014a	89 51 14	 mov	 DWORD PTR [ecx+20], edx
; Line 972
  0014d	33 c0		 xor	 eax, eax
$LN3@DrawTextLi:
; Line 973
  0014f	52		 push	 edx
  00150	8b cd		 mov	 ecx, ebp
  00152	50		 push	 eax
  00153	8d 15 00 00 00
	00		 lea	 edx, DWORD PTR $LN7@DrawTextLi
  00159	e8 00 00 00 00	 call	 @_RTC_CheckStackVars@8
  0015e	58		 pop	 eax
  0015f	5a		 pop	 edx
  00160	5f		 pop	 edi
  00161	5e		 pop	 esi
  00162	8b 4d fc	 mov	 ecx, DWORD PTR __$ArrayPad$[ebp]
  00165	33 cd		 xor	 ecx, ebp
  00167	e8 00 00 00 00	 call	 @__security_check_cookie@4
  0016c	83 c4 3c	 add	 esp, 60			; 0000003cH
  0016f	3b ec		 cmp	 ebp, esp
  00171	e8 00 00 00 00	 call	 __RTC_CheckEsp
  00176	8b e5		 mov	 esp, ebp
  00178	5d		 pop	 ebp
  00179	c2 04 00	 ret	 4
$LN7@DrawTextLi:
  0017c	01 00 00 00	 DD	 1
  00180	00 00 00 00	 DD	 $LN6@DrawTextLi
$LN6@DrawTextLi:
  00184	e0 ff ff ff	 DD	 -32			; ffffffe0H
  00188	10 00 00 00	 DD	 16			; 00000010H
  0018c	00 00 00 00	 DD	 $LN5@DrawTextLi
$LN5@DrawTextLi:
  00190	72		 DB	 114			; 00000072H
  00191	63		 DB	 99			; 00000063H
  00192	00		 DB	 0
?DrawTextLine@CDXUTTextHelper@@QAEJPB_W@Z ENDP		; CDXUTTextHelper::DrawTextLine
_TEXT	ENDS
; Function compile flags: /Odtp /RTCsu
_TEXT	SEGMENT
$T1 = -1044						; size = 4
_args$ = -1040						; size = 4
_strBuffer$ = -1032					; size = 1024
__$ArrayPad$ = -4					; size = 4
_this$ = 8						; size = 4
_strMsg$ = 12						; size = 4
?DrawFormattedTextLine@CDXUTTextHelper@@QAAJPB_WZZ PROC	; CDXUTTextHelper::DrawFormattedTextLine
; File d:\engine class\assignment 1\new scratch\dxut\optional\sdkmisc.cpp
; Line 942
  00000	55		 push	 ebp
  00001	8b ec		 mov	 ebp, esp
  00003	81 ec 14 04 00
	00		 sub	 esp, 1044		; 00000414H
  00009	56		 push	 esi
  0000a	57		 push	 edi
  0000b	8d bd ec fb ff
	ff		 lea	 edi, DWORD PTR [ebp-1044]
  00011	b9 05 01 00 00	 mov	 ecx, 261		; 00000105H
  00016	b8 cc cc cc cc	 mov	 eax, -858993460		; ccccccccH
  0001b	f3 ab		 rep stosd
  0001d	a1 00 00 00 00	 mov	 eax, DWORD PTR ___security_cookie
  00022	33 c5		 xor	 eax, ebp
  00024	89 45 fc	 mov	 DWORD PTR __$ArrayPad$[ebp], eax
; Line 946
  00027	8d 45 10	 lea	 eax, DWORD PTR _strMsg$[ebp+4]
  0002a	89 85 f0 fb ff
	ff		 mov	 DWORD PTR _args$[ebp], eax
; Line 947
  00030	8b f4		 mov	 esi, esp
  00032	8b 8d f0 fb ff
	ff		 mov	 ecx, DWORD PTR _args$[ebp]
  00038	51		 push	 ecx
  00039	8b 55 0c	 mov	 edx, DWORD PTR _strMsg$[ebp]
  0003c	52		 push	 edx
  0003d	68 00 02 00 00	 push	 512			; 00000200H
  00042	8d 85 f8 fb ff
	ff		 lea	 eax, DWORD PTR _strBuffer$[ebp]
  00048	50		 push	 eax
  00049	ff 15 00 00 00
	00		 call	 DWORD PTR __imp__vswprintf_s
  0004f	83 c4 10	 add	 esp, 16			; 00000010H
  00052	3b f4		 cmp	 esi, esp
  00054	e8 00 00 00 00	 call	 __RTC_CheckEsp
; Line 948
  00059	b9 02 00 00 00	 mov	 ecx, 2
  0005e	69 d1 ff 01 00
	00		 imul	 edx, ecx, 511
  00064	89 95 ec fb ff
	ff		 mov	 DWORD PTR $T1[ebp], edx
  0006a	81 bd ec fb ff
	ff 00 04 00 00	 cmp	 DWORD PTR $T1[ebp], 1024 ; 00000400H
  00074	73 02		 jae	 SHORT $LN3@DrawFormat
  00076	eb 05		 jmp	 SHORT $LN4@DrawFormat
$LN3@DrawFormat:
  00078	e8 00 00 00 00	 call	 ___report_rangecheckfailure
$LN4@DrawFormat:
  0007d	33 c0		 xor	 eax, eax
  0007f	8b 8d ec fb ff
	ff		 mov	 ecx, DWORD PTR $T1[ebp]
  00085	66 89 84 0d f8
	fb ff ff	 mov	 WORD PTR _strBuffer$[ebp+ecx], ax
; Line 949
  0008d	c7 85 f0 fb ff
	ff 00 00 00 00	 mov	 DWORD PTR _args$[ebp], 0
; Line 951
  00097	8d 95 f8 fb ff
	ff		 lea	 edx, DWORD PTR _strBuffer$[ebp]
  0009d	52		 push	 edx
  0009e	8b 4d 08	 mov	 ecx, DWORD PTR _this$[ebp]
  000a1	e8 00 00 00 00	 call	 ?DrawTextLine@CDXUTTextHelper@@QAEJPB_W@Z ; CDXUTTextHelper::DrawTextLine
$LN2@DrawFormat:
; Line 952
  000a6	52		 push	 edx
  000a7	8b cd		 mov	 ecx, ebp
  000a9	50		 push	 eax
  000aa	8d 15 00 00 00
	00		 lea	 edx, DWORD PTR $LN7@DrawFormat
  000b0	e8 00 00 00 00	 call	 @_RTC_CheckStackVars@8
  000b5	58		 pop	 eax
  000b6	5a		 pop	 edx
  000b7	5f		 pop	 edi
  000b8	5e		 pop	 esi
  000b9	8b 4d fc	 mov	 ecx, DWORD PTR __$ArrayPad$[ebp]
  000bc	33 cd		 xor	 ecx, ebp
  000be	e8 00 00 00 00	 call	 @__security_check_cookie@4
  000c3	81 c4 14 04 00
	00		 add	 esp, 1044		; 00000414H
  000c9	3b ec		 cmp	 ebp, esp
  000cb	e8 00 00 00 00	 call	 __RTC_CheckEsp
  000d0	8b e5		 mov	 esp, ebp
  000d2	5d		 pop	 ebp
  000d3	c3		 ret	 0
$LN7@DrawFormat:
  000d4	01 00 00 00	 DD	 1
  000d8	00 00 00 00	 DD	 $LN6@DrawFormat
$LN6@DrawFormat:
  000dc	f8 fb ff ff	 DD	 -1032			; fffffbf8H
  000e0	00 04 00 00	 DD	 1024			; 00000400H
  000e4	00 00 00 00	 DD	 $LN5@DrawFormat
$LN5@DrawFormat:
  000e8	73		 DB	 115			; 00000073H
  000e9	74		 DB	 116			; 00000074H
  000ea	72		 DB	 114			; 00000072H
  000eb	42		 DB	 66			; 00000042H
  000ec	75		 DB	 117			; 00000075H
  000ed	66		 DB	 102			; 00000066H
  000ee	66		 DB	 102			; 00000066H
  000ef	65		 DB	 101			; 00000065H
  000f0	72		 DB	 114			; 00000072H
  000f1	00		 DB	 0
?DrawFormattedTextLine@CDXUTTextHelper@@QAAJPB_WZZ ENDP	; CDXUTTextHelper::DrawFormattedTextLine
_TEXT	ENDS
; Function compile flags: /Odtp /RTCsu
_TEXT	SEGMENT
_this$ = -4						; size = 4
?Begin@CDXUTTextHelper@@QAEXXZ PROC			; CDXUTTextHelper::Begin
; _this$ = ecx
; File d:\engine class\assignment 1\new scratch\dxut\optional\sdkmisc.cpp
; Line 1014
  00000	55		 push	 ebp
  00001	8b ec		 mov	 ebp, esp
  00003	51		 push	 ecx
  00004	c7 45 fc cc cc
	cc cc		 mov	 DWORD PTR [ebp-4], -858993460 ; ccccccccH
  0000b	89 4d fc	 mov	 DWORD PTR _this$[ebp], ecx
; Line 1015
  0000e	8b 45 fc	 mov	 eax, DWORD PTR _this$[ebp]
  00011	83 78 20 00	 cmp	 DWORD PTR [eax+32], 0
  00015	74 24		 je	 SHORT $LN2@Begin
; Line 1017
  00017	8b 4d fc	 mov	 ecx, DWORD PTR _this$[ebp]
  0001a	8b 51 20	 mov	 edx, DWORD PTR [ecx+32]
  0001d	52		 push	 edx
  0001e	8b 45 fc	 mov	 eax, DWORD PTR _this$[ebp]
  00021	8b 48 24	 mov	 ecx, DWORD PTR [eax+36]
  00024	e8 00 00 00 00	 call	 ?StoreD3D11State@CDXUTDialogResourceManager@@QAEXPAUID3D11DeviceContext@@@Z ; CDXUTDialogResourceManager::StoreD3D11State
; Line 1018
  00029	8b 4d fc	 mov	 ecx, DWORD PTR _this$[ebp]
  0002c	8b 51 20	 mov	 edx, DWORD PTR [ecx+32]
  0002f	52		 push	 edx
  00030	8b 45 fc	 mov	 eax, DWORD PTR _this$[ebp]
  00033	8b 48 24	 mov	 ecx, DWORD PTR [eax+36]
  00036	e8 00 00 00 00	 call	 ?ApplyRenderUI11@CDXUTDialogResourceManager@@QAEXPAUID3D11DeviceContext@@@Z ; CDXUTDialogResourceManager::ApplyRenderUI11
$LN2@Begin:
; Line 1022
  0003b	83 c4 04	 add	 esp, 4
  0003e	3b ec		 cmp	 ebp, esp
  00040	e8 00 00 00 00	 call	 __RTC_CheckEsp
  00045	8b e5		 mov	 esp, ebp
  00047	5d		 pop	 ebp
  00048	c3		 ret	 0
?Begin@CDXUTTextHelper@@QAEXXZ ENDP			; CDXUTTextHelper::Begin
_TEXT	ENDS
; Function compile flags: /Odtp /RTCsu
_TEXT	SEGMENT
$T1 = -20						; size = 16
_this$ = -4						; size = 4
_nLineHeight$ = 8					; size = 4
?Init@CDXUTTextHelper@@QAEXH@Z PROC			; CDXUTTextHelper::Init
; _this$ = ecx
; File d:\engine class\assignment 1\new scratch\dxut\optional\sdkmisc.cpp
; Line 927
  00000	55		 push	 ebp
  00001	8b ec		 mov	 ebp, esp
  00003	83 ec 14	 sub	 esp, 20			; 00000014H
  00006	b8 cc cc cc cc	 mov	 eax, -858993460		; ccccccccH
  0000b	89 45 ec	 mov	 DWORD PTR [ebp-20], eax
  0000e	89 45 f0	 mov	 DWORD PTR [ebp-16], eax
  00011	89 45 f4	 mov	 DWORD PTR [ebp-12], eax
  00014	89 45 f8	 mov	 DWORD PTR [ebp-8], eax
  00017	89 45 fc	 mov	 DWORD PTR [ebp-4], eax
  0001a	89 4d fc	 mov	 DWORD PTR _this$[ebp], ecx
; Line 928
  0001d	51		 push	 ecx
  0001e	f3 0f 10 05 00
	00 00 00	 movss	 xmm0, DWORD PTR __real@3f800000
  00026	f3 0f 11 04 24	 movss	 DWORD PTR [esp], xmm0
  0002b	51		 push	 ecx
  0002c	f3 0f 10 05 00
	00 00 00	 movss	 xmm0, DWORD PTR __real@3f800000
  00034	f3 0f 11 04 24	 movss	 DWORD PTR [esp], xmm0
  00039	51		 push	 ecx
  0003a	f3 0f 10 05 00
	00 00 00	 movss	 xmm0, DWORD PTR __real@3f800000
  00042	f3 0f 11 04 24	 movss	 DWORD PTR [esp], xmm0
  00047	51		 push	 ecx
  00048	f3 0f 10 05 00
	00 00 00	 movss	 xmm0, DWORD PTR __real@3f800000
  00050	f3 0f 11 04 24	 movss	 DWORD PTR [esp], xmm0
  00055	8d 4d ec	 lea	 ecx, DWORD PTR $T1[ebp]
  00058	e8 00 00 00 00	 call	 ??0XMFLOAT4@DirectX@@QAE@MMMM@Z ; DirectX::XMFLOAT4::XMFLOAT4
  0005d	50		 push	 eax
  0005e	8b 4d fc	 mov	 ecx, DWORD PTR _this$[ebp]
  00061	e8 00 00 00 00	 call	 ??4XMFLOAT4@DirectX@@QAEAAU01@ABU01@@Z ; DirectX::XMFLOAT4::operator=
; Line 929
  00066	8b 45 fc	 mov	 eax, DWORD PTR _this$[ebp]
  00069	c7 40 10 00 00
	00 00		 mov	 DWORD PTR [eax+16], 0
; Line 930
  00070	8b 4d fc	 mov	 ecx, DWORD PTR _this$[ebp]
  00073	c7 41 14 00 00
	00 00		 mov	 DWORD PTR [ecx+20], 0
; Line 931
  0007a	8b 55 fc	 mov	 edx, DWORD PTR _this$[ebp]
  0007d	8b 45 08	 mov	 eax, DWORD PTR _nLineHeight$[ebp]
  00080	89 42 18	 mov	 DWORD PTR [edx+24], eax
; Line 932
  00083	8b 4d fc	 mov	 ecx, DWORD PTR _this$[ebp]
  00086	c7 41 1c 00 00
	00 00		 mov	 DWORD PTR [ecx+28], 0
; Line 933
  0008d	8b 55 fc	 mov	 edx, DWORD PTR _this$[ebp]
  00090	c7 42 20 00 00
	00 00		 mov	 DWORD PTR [edx+32], 0
; Line 934
  00097	8b 45 fc	 mov	 eax, DWORD PTR _this$[ebp]
  0009a	c7 40 24 00 00
	00 00		 mov	 DWORD PTR [eax+36], 0
; Line 937
  000a1	83 c4 14	 add	 esp, 20			; 00000014H
  000a4	3b ec		 cmp	 ebp, esp
  000a6	e8 00 00 00 00	 call	 __RTC_CheckEsp
  000ab	8b e5		 mov	 esp, ebp
  000ad	5d		 pop	 ebp
  000ae	c2 04 00	 ret	 4
?Init@CDXUTTextHelper@@QAEXH@Z ENDP			; CDXUTTextHelper::Init
_TEXT	ENDS
; Function compile flags: /Odtp /RTCsu
_TEXT	SEGMENT
_this$ = -4						; size = 4
??1CDXUTTextHelper@@QAE@XZ PROC				; CDXUTTextHelper::~CDXUTTextHelper
; _this$ = ecx
; File d:\engine class\assignment 1\new scratch\dxut\optional\sdkmisc.cpp
; Line 920
  00000	55		 push	 ebp
  00001	8b ec		 mov	 ebp, esp
  00003	51		 push	 ecx
  00004	c7 45 fc cc cc
	cc cc		 mov	 DWORD PTR [ebp-4], -858993460 ; ccccccccH
  0000b	89 4d fc	 mov	 DWORD PTR _this$[ebp], ecx
; Line 922
  0000e	8b e5		 mov	 esp, ebp
  00010	5d		 pop	 ebp
  00011	c3		 ret	 0
??1CDXUTTextHelper@@QAE@XZ ENDP				; CDXUTTextHelper::~CDXUTTextHelper
_TEXT	ENDS
; Function compile flags: /Odtp /RTCsu
_TEXT	SEGMENT
_this$ = -4						; size = 4
_pd3d11Device$ = 8					; size = 4
_pd3d11DeviceContext$ = 12				; size = 4
_pManager$ = 16						; size = 4
_nLineHeight$ = 20					; size = 4
??0CDXUTTextHelper@@QAE@PAUID3D11Device@@PAUID3D11DeviceContext@@PAVCDXUTDialogResourceManager@@H@Z PROC ; CDXUTTextHelper::CDXUTTextHelper
; _this$ = ecx
; File d:\engine class\assignment 1\new scratch\dxut\optional\sdkmisc.cpp
; Line 912
  00000	55		 push	 ebp
  00001	8b ec		 mov	 ebp, esp
  00003	51		 push	 ecx
  00004	c7 45 fc cc cc
	cc cc		 mov	 DWORD PTR [ebp-4], -858993460 ; ccccccccH
  0000b	89 4d fc	 mov	 DWORD PTR _this$[ebp], ecx
  0000e	8b 4d fc	 mov	 ecx, DWORD PTR _this$[ebp]
  00011	e8 00 00 00 00	 call	 ??0XMFLOAT4@DirectX@@QAE@XZ ; DirectX::XMFLOAT4::XMFLOAT4
; Line 913
  00016	8b 45 14	 mov	 eax, DWORD PTR _nLineHeight$[ebp]
  00019	50		 push	 eax
  0001a	8b 4d fc	 mov	 ecx, DWORD PTR _this$[ebp]
  0001d	e8 00 00 00 00	 call	 ?Init@CDXUTTextHelper@@QAEXH@Z ; CDXUTTextHelper::Init
; Line 914
  00022	8b 4d fc	 mov	 ecx, DWORD PTR _this$[ebp]
  00025	8b 55 08	 mov	 edx, DWORD PTR _pd3d11Device$[ebp]
  00028	89 51 1c	 mov	 DWORD PTR [ecx+28], edx
; Line 915
  0002b	8b 45 fc	 mov	 eax, DWORD PTR _this$[ebp]
  0002e	8b 4d 0c	 mov	 ecx, DWORD PTR _pd3d11DeviceContext$[ebp]
  00031	89 48 20	 mov	 DWORD PTR [eax+32], ecx
; Line 916
  00034	8b 55 fc	 mov	 edx, DWORD PTR _this$[ebp]
  00037	8b 45 10	 mov	 eax, DWORD PTR _pManager$[ebp]
  0003a	89 42 24	 mov	 DWORD PTR [edx+36], eax
; Line 917
  0003d	8b 45 fc	 mov	 eax, DWORD PTR _this$[ebp]
  00040	83 c4 04	 add	 esp, 4
  00043	3b ec		 cmp	 ebp, esp
  00045	e8 00 00 00 00	 call	 __RTC_CheckEsp
  0004a	8b e5		 mov	 esp, ebp
  0004c	5d		 pop	 ebp
  0004d	c2 10 00	 ret	 16			; 00000010H
??0CDXUTTextHelper@@QAE@PAUID3D11Device@@PAUID3D11DeviceContext@@PAVCDXUTDialogResourceManager@@H@Z ENDP ; CDXUTTextHelper::CDXUTTextHelper
_TEXT	ENDS
; Function compile flags: /Odtp /RTCsu
;	COMDAT ?_Orphan_range@?$vector@UDXUTCache_Texture@@V?$allocator@UDXUTCache_Texture@@@std@@@std@@IBEXPAUDXUTCache_Texture@@0@Z
_TEXT	SEGMENT
__Pnext$ = -32						; size = 4
__Lock$ = -24						; size = 4
_this$ = -16						; size = 4
__$EHRec$ = -12						; size = 12
__First$ = 8						; size = 4
__Last$ = 12						; size = 4
?_Orphan_range@?$vector@UDXUTCache_Texture@@V?$allocator@UDXUTCache_Texture@@@std@@@std@@IBEXPAUDXUTCache_Texture@@0@Z PROC ; std::vector<DXUTCache_Texture,std::allocator<DXUTCache_Texture> >::_Orphan_range, COMDAT
; _this$ = ecx
; File c:\program files (x86)\microsoft visual studio 12.0\vc\include\vector
; Line 1764
  00000	55		 push	 ebp
  00001	8b ec		 mov	 ebp, esp
  00003	6a ff		 push	 -1
  00005	68 00 00 00 00	 push	 __ehhandler$?_Orphan_range@?$vector@UDXUTCache_Texture@@V?$allocator@UDXUTCache_Texture@@@std@@@std@@IBEXPAUDXUTCache_Texture@@0@Z
  0000a	64 a1 00 00 00
	00		 mov	 eax, DWORD PTR fs:0
  00010	50		 push	 eax
  00011	83 ec 14	 sub	 esp, 20			; 00000014H
  00014	56		 push	 esi
  00015	b8 cc cc cc cc	 mov	 eax, -858993460		; ccccccccH
  0001a	89 45 e0	 mov	 DWORD PTR [ebp-32], eax
  0001d	89 45 e4	 mov	 DWORD PTR [ebp-28], eax
  00020	89 45 e8	 mov	 DWORD PTR [ebp-24], eax
  00023	89 45 ec	 mov	 DWORD PTR [ebp-20], eax
  00026	89 45 f0	 mov	 DWORD PTR [ebp-16], eax
  00029	a1 00 00 00 00	 mov	 eax, DWORD PTR ___security_cookie
  0002e	33 c5		 xor	 eax, ebp
  00030	50		 push	 eax
  00031	8d 45 f4	 lea	 eax, DWORD PTR __$EHRec$[ebp]
  00034	64 a3 00 00 00
	00		 mov	 DWORD PTR fs:0, eax
  0003a	89 4d f0	 mov	 DWORD PTR _this$[ebp], ecx
; Line 1765
  0003d	8b f4		 mov	 esi, esp
  0003f	6a 03		 push	 3
  00041	8d 4d e8	 lea	 ecx, DWORD PTR __Lock$[ebp]
  00044	ff 15 00 00 00
	00		 call	 DWORD PTR __imp_??0_Lockit@std@@QAE@H@Z
  0004a	3b f4		 cmp	 esi, esp
  0004c	e8 00 00 00 00	 call	 __RTC_CheckEsp
  00051	c7 45 fc 00 00
	00 00		 mov	 DWORD PTR __$EHRec$[ebp+8], 0
; Line 1766
  00058	8b f4		 mov	 esi, esp
  0005a	8b 4d f0	 mov	 ecx, DWORD PTR _this$[ebp]
  0005d	ff 15 00 00 00
	00		 call	 DWORD PTR __imp_?_Getpfirst@_Container_base12@std@@QBEPAPAU_Iterator_base12@2@XZ
  00063	3b f4		 cmp	 esi, esp
  00065	e8 00 00 00 00	 call	 __RTC_CheckEsp
  0006a	89 45 e0	 mov	 DWORD PTR __Pnext$[ebp], eax
; Line 1767
  0006d	83 7d e0 00	 cmp	 DWORD PTR __Pnext$[ebp], 0
  00071	74 4e		 je	 SHORT $LN6@Orphan_ran
$LN5@Orphan_ran:
; Line 1768
  00073	8b 45 e0	 mov	 eax, DWORD PTR __Pnext$[ebp]
  00076	83 38 00	 cmp	 DWORD PTR [eax], 0
  00079	74 46		 je	 SHORT $LN6@Orphan_ran
; Line 1769
  0007b	8b 4d e0	 mov	 ecx, DWORD PTR __Pnext$[ebp]
  0007e	8b 11		 mov	 edx, DWORD PTR [ecx]
  00080	8b 42 08	 mov	 eax, DWORD PTR [edx+8]
  00083	3b 45 08	 cmp	 eax, DWORD PTR __First$[ebp]
  00086	72 0d		 jb	 SHORT $LN2@Orphan_ran
  00088	8b 4d e0	 mov	 ecx, DWORD PTR __Pnext$[ebp]
  0008b	8b 11		 mov	 edx, DWORD PTR [ecx]
  0008d	8b 45 0c	 mov	 eax, DWORD PTR __Last$[ebp]
  00090	3b 42 08	 cmp	 eax, DWORD PTR [edx+8]
  00093	73 0f		 jae	 SHORT $LN3@Orphan_ran
$LN2@Orphan_ran:
; Line 1770
  00095	8b 4d e0	 mov	 ecx, DWORD PTR __Pnext$[ebp]
  00098	8b 09		 mov	 ecx, DWORD PTR [ecx]
  0009a	e8 00 00 00 00	 call	 ?_Getpnext@_Iterator_base12@std@@QAEPAPAU12@XZ ; std::_Iterator_base12::_Getpnext
  0009f	89 45 e0	 mov	 DWORD PTR __Pnext$[ebp], eax
; Line 1771
  000a2	eb 1b		 jmp	 SHORT $LN1@Orphan_ran
$LN3@Orphan_ran:
; Line 1773
  000a4	8b 55 e0	 mov	 edx, DWORD PTR __Pnext$[ebp]
  000a7	8b 0a		 mov	 ecx, DWORD PTR [edx]
  000a9	e8 00 00 00 00	 call	 ?_Clrcont@_Iterator_base12@std@@QAEXXZ ; std::_Iterator_base12::_Clrcont
; Line 1774
  000ae	8b 45 e0	 mov	 eax, DWORD PTR __Pnext$[ebp]
  000b1	8b 08		 mov	 ecx, DWORD PTR [eax]
  000b3	e8 00 00 00 00	 call	 ?_Getpnext@_Iterator_base12@std@@QAEPAPAU12@XZ ; std::_Iterator_base12::_Getpnext
  000b8	8b 4d e0	 mov	 ecx, DWORD PTR __Pnext$[ebp]
  000bb	8b 10		 mov	 edx, DWORD PTR [eax]
  000bd	89 11		 mov	 DWORD PTR [ecx], edx
$LN1@Orphan_ran:
; Line 1775
  000bf	eb b2		 jmp	 SHORT $LN5@Orphan_ran
$LN6@Orphan_ran:
; Line 1776
  000c1	c7 45 fc ff ff
	ff ff		 mov	 DWORD PTR __$EHRec$[ebp+8], -1
  000c8	8b f4		 mov	 esi, esp
  000ca	8d 4d e8	 lea	 ecx, DWORD PTR __Lock$[ebp]
  000cd	ff 15 00 00 00
	00		 call	 DWORD PTR __imp_??1_Lockit@std@@QAE@XZ
  000d3	3b f4		 cmp	 esi, esp
  000d5	e8 00 00 00 00	 call	 __RTC_CheckEsp
  000da	52		 push	 edx
  000db	8b cd		 mov	 ecx, ebp
  000dd	50		 push	 eax
  000de	8d 15 00 00 00
	00		 lea	 edx, DWORD PTR $LN13@Orphan_ran
  000e4	e8 00 00 00 00	 call	 @_RTC_CheckStackVars@8
  000e9	58		 pop	 eax
  000ea	5a		 pop	 edx
  000eb	8b 4d f4	 mov	 ecx, DWORD PTR __$EHRec$[ebp]
  000ee	64 89 0d 00 00
	00 00		 mov	 DWORD PTR fs:0, ecx
  000f5	59		 pop	 ecx
  000f6	5e		 pop	 esi
  000f7	83 c4 20	 add	 esp, 32			; 00000020H
  000fa	3b ec		 cmp	 ebp, esp
  000fc	e8 00 00 00 00	 call	 __RTC_CheckEsp
  00101	8b e5		 mov	 esp, ebp
  00103	5d		 pop	 ebp
  00104	c2 08 00	 ret	 8
  00107	90		 npad	 1
$LN13@Orphan_ran:
  00108	01 00 00 00	 DD	 1
  0010c	00 00 00 00	 DD	 $LN12@Orphan_ran
$LN12@Orphan_ran:
  00110	e8 ff ff ff	 DD	 -24			; ffffffe8H
  00114	04 00 00 00	 DD	 4
  00118	00 00 00 00	 DD	 $LN10@Orphan_ran
$LN10@Orphan_ran:
  0011c	5f		 DB	 95			; 0000005fH
  0011d	4c		 DB	 76			; 0000004cH
  0011e	6f		 DB	 111			; 0000006fH
  0011f	63		 DB	 99			; 00000063H
  00120	6b		 DB	 107			; 0000006bH
  00121	00		 DB	 0
_TEXT	ENDS
;	COMDAT text$x
text$x	SEGMENT
__unwindfunclet$?_Orphan_range@?$vector@UDXUTCache_Texture@@V?$allocator@UDXUTCache_Texture@@@std@@@std@@IBEXPAUDXUTCache_Texture@@0@Z$0:
  00000	8b f4		 mov	 esi, esp
  00002	8d 4d e8	 lea	 ecx, DWORD PTR __Lock$[ebp]
  00005	ff 15 00 00 00
	00		 call	 DWORD PTR __imp_??1_Lockit@std@@QAE@XZ
  0000b	3b f4		 cmp	 esi, esp
  0000d	e9 00 00 00 00	 jmp	 __RTC_CheckEsp
__ehhandler$?_Orphan_range@?$vector@UDXUTCache_Texture@@V?$allocator@UDXUTCache_Texture@@@std@@@std@@IBEXPAUDXUTCache_Texture@@0@Z:
  00012	8b 54 24 08	 mov	 edx, DWORD PTR [esp+8]
  00016	8d 42 0c	 lea	 eax, DWORD PTR [edx+12]
  00019	8b 4a e4	 mov	 ecx, DWORD PTR [edx-28]
  0001c	33 c8		 xor	 ecx, eax
  0001e	e8 00 00 00 00	 call	 @__security_check_cookie@4
  00023	b8 00 00 00 00	 mov	 eax, OFFSET __ehfuncinfo$?_Orphan_range@?$vector@UDXUTCache_Texture@@V?$allocator@UDXUTCache_Texture@@@std@@@std@@IBEXPAUDXUTCache_Texture@@0@Z
  00028	e9 00 00 00 00	 jmp	 ___CxxFrameHandler3
text$x	ENDS
?_Orphan_range@?$vector@UDXUTCache_Texture@@V?$allocator@UDXUTCache_Texture@@@std@@@std@@IBEXPAUDXUTCache_Texture@@0@Z ENDP ; std::vector<DXUTCache_Texture,std::allocator<DXUTCache_Texture> >::_Orphan_range
; Function compile flags: /Odtp /RTCsu
;	COMDAT ?_Xlen@?$vector@UDXUTCache_Texture@@V?$allocator@UDXUTCache_Texture@@@std@@@std@@IBEXXZ
_TEXT	SEGMENT
_this$ = -4						; size = 4
?_Xlen@?$vector@UDXUTCache_Texture@@V?$allocator@UDXUTCache_Texture@@@std@@@std@@IBEXXZ PROC ; std::vector<DXUTCache_Texture,std::allocator<DXUTCache_Texture> >::_Xlen, COMDAT
; _this$ = ecx
; File c:\program files (x86)\microsoft visual studio 12.0\vc\include\vector
; Line 1753
  00000	55		 push	 ebp
  00001	8b ec		 mov	 ebp, esp
  00003	51		 push	 ecx
  00004	56		 push	 esi
  00005	c7 45 fc cc cc
	cc cc		 mov	 DWORD PTR [ebp-4], -858993460 ; ccccccccH
  0000c	89 4d fc	 mov	 DWORD PTR _this$[ebp], ecx
; Line 1754
  0000f	8b f4		 mov	 esi, esp
  00011	68 00 00 00 00	 push	 OFFSET ??_C@_0BD@OLBABOEK@vector?$DMT?$DO?5too?5long?$AA@
  00016	ff 15 00 00 00
	00		 call	 DWORD PTR __imp_?_Xlength_error@std@@YAXPBD@Z
  0001c	3b f4		 cmp	 esi, esp
  0001e	e8 00 00 00 00	 call	 __RTC_CheckEsp
$LN2@Xlen:
; Line 1755
  00023	5e		 pop	 esi
  00024	83 c4 04	 add	 esp, 4
  00027	3b ec		 cmp	 ebp, esp
  00029	e8 00 00 00 00	 call	 __RTC_CheckEsp
  0002e	8b e5		 mov	 esp, ebp
  00030	5d		 pop	 ebp
  00031	c3		 ret	 0
?_Xlen@?$vector@UDXUTCache_Texture@@V?$allocator@UDXUTCache_Texture@@@std@@@std@@IBEXXZ ENDP ; std::vector<DXUTCache_Texture,std::allocator<DXUTCache_Texture> >::_Xlen
_TEXT	ENDS
; Function compile flags: /Odtp /RTCsu
;	COMDAT ?_Tidy@?$vector@UDXUTCache_Texture@@V?$allocator@UDXUTCache_Texture@@@std@@@std@@IAEXXZ
_TEXT	SEGMENT
$T1 = -5						; size = 1
_this$ = -4						; size = 4
?_Tidy@?$vector@UDXUTCache_Texture@@V?$allocator@UDXUTCache_Texture@@@std@@@std@@IAEXXZ PROC ; std::vector<DXUTCache_Texture,std::allocator<DXUTCache_Texture> >::_Tidy, COMDAT
; _this$ = ecx
; File c:\program files (x86)\microsoft visual studio 12.0\vc\include\vector
; Line 1622
  00000	55		 push	 ebp
  00001	8b ec		 mov	 ebp, esp
  00003	83 ec 08	 sub	 esp, 8
  00006	56		 push	 esi
  00007	c7 45 f8 cc cc
	cc cc		 mov	 DWORD PTR [ebp-8], -858993460 ; ccccccccH
  0000e	c7 45 fc cc cc
	cc cc		 mov	 DWORD PTR [ebp-4], -858993460 ; ccccccccH
  00015	89 4d fc	 mov	 DWORD PTR _this$[ebp], ecx
; Line 1623
  00018	8b 45 fc	 mov	 eax, DWORD PTR _this$[ebp]
  0001b	83 78 04 00	 cmp	 DWORD PTR [eax+4], 0
  0001f	74 77		 je	 SHORT $LN2@Tidy
; Line 1625
  00021	8b f4		 mov	 esi, esp
  00023	8b 4d fc	 mov	 ecx, DWORD PTR _this$[ebp]
  00026	ff 15 00 00 00
	00		 call	 DWORD PTR __imp_?_Orphan_all@_Container_base12@std@@QAEXXZ
  0002c	3b f4		 cmp	 esi, esp
  0002e	e8 00 00 00 00	 call	 __RTC_CheckEsp
; Line 1626
  00033	8b 4d fc	 mov	 ecx, DWORD PTR _this$[ebp]
  00036	8b 51 08	 mov	 edx, DWORD PTR [ecx+8]
  00039	52		 push	 edx
  0003a	8b 45 fc	 mov	 eax, DWORD PTR _this$[ebp]
  0003d	8b 48 04	 mov	 ecx, DWORD PTR [eax+4]
  00040	51		 push	 ecx
  00041	8b 4d fc	 mov	 ecx, DWORD PTR _this$[ebp]
  00044	e8 00 00 00 00	 call	 ?_Destroy@?$vector@UDXUTCache_Texture@@V?$allocator@UDXUTCache_Texture@@@std@@@std@@IAEXPAUDXUTCache_Texture@@0@Z ; std::vector<DXUTCache_Texture,std::allocator<DXUTCache_Texture> >::_Destroy
; Line 1628
  00049	8b 55 fc	 mov	 edx, DWORD PTR _this$[ebp]
  0004c	8b 45 fc	 mov	 eax, DWORD PTR _this$[ebp]
  0004f	8b 4a 0c	 mov	 ecx, DWORD PTR [edx+12]
  00052	2b 48 04	 sub	 ecx, DWORD PTR [eax+4]
  00055	8b c1		 mov	 eax, ecx
  00057	99		 cdq
  00058	b9 10 02 00 00	 mov	 ecx, 528		; 00000210H
  0005d	f7 f9		 idiv	 ecx
  0005f	50		 push	 eax
  00060	8b 55 fc	 mov	 edx, DWORD PTR _this$[ebp]
  00063	8b 42 04	 mov	 eax, DWORD PTR [edx+4]
  00066	50		 push	 eax
  00067	8d 4d fb	 lea	 ecx, DWORD PTR $T1[ebp]
  0006a	51		 push	 ecx
  0006b	8b 4d fc	 mov	 ecx, DWORD PTR _this$[ebp]
  0006e	e8 00 00 00 00	 call	 ?_Getal@?$_Vector_alloc@$0A@U?$_Vec_base_types@UDXUTCache_Texture@@V?$allocator@UDXUTCache_Texture@@@std@@@std@@@std@@QBE?AU?$_Wrap_alloc@V?$allocator@UDXUTCache_Texture@@@std@@@2@XZ ; std::_Vector_alloc<0,std::_Vec_base_types<DXUTCache_Texture,std::allocator<DXUTCache_Texture> > >::_Getal
  00073	8b c8		 mov	 ecx, eax
  00075	e8 00 00 00 00	 call	 ?deallocate@?$_Wrap_alloc@V?$allocator@UDXUTCache_Texture@@@std@@@std@@QAEXPAUDXUTCache_Texture@@I@Z ; std::_Wrap_alloc<std::allocator<DXUTCache_Texture> >::deallocate
; Line 1629
  0007a	8b 55 fc	 mov	 edx, DWORD PTR _this$[ebp]
  0007d	c7 42 04 00 00
	00 00		 mov	 DWORD PTR [edx+4], 0
; Line 1630
  00084	8b 45 fc	 mov	 eax, DWORD PTR _this$[ebp]
  00087	c7 40 08 00 00
	00 00		 mov	 DWORD PTR [eax+8], 0
; Line 1631
  0008e	8b 4d fc	 mov	 ecx, DWORD PTR _this$[ebp]
  00091	c7 41 0c 00 00
	00 00		 mov	 DWORD PTR [ecx+12], 0
$LN2@Tidy:
; Line 1633
  00098	5e		 pop	 esi
  00099	83 c4 08	 add	 esp, 8
  0009c	3b ec		 cmp	 ebp, esp
  0009e	e8 00 00 00 00	 call	 __RTC_CheckEsp
  000a3	8b e5		 mov	 esp, ebp
  000a5	5d		 pop	 ebp
  000a6	c3		 ret	 0
?_Tidy@?$vector@UDXUTCache_Texture@@V?$allocator@UDXUTCache_Texture@@@std@@@std@@IAEXXZ ENDP ; std::vector<DXUTCache_Texture,std::allocator<DXUTCache_Texture> >::_Tidy
_TEXT	ENDS
; Function compile flags: /Odtp /RTCsu
;	COMDAT ?_Reserve@?$vector@UDXUTCache_Texture@@V?$allocator@UDXUTCache_Texture@@@std@@@std@@IAEXI@Z
_TEXT	SEGMENT
_this$ = -4						; size = 4
__Count$ = 8						; size = 4
?_Reserve@?$vector@UDXUTCache_Texture@@V?$allocator@UDXUTCache_Texture@@@std@@@std@@IAEXI@Z PROC ; std::vector<DXUTCache_Texture,std::allocator<DXUTCache_Texture> >::_Reserve, COMDAT
; _this$ = ecx
; File c:\program files (x86)\microsoft visual studio 12.0\vc\include\vector
; Line 1612
  00000	55		 push	 ebp
  00001	8b ec		 mov	 ebp, esp
  00003	51		 push	 ecx
  00004	56		 push	 esi
  00005	c7 45 fc cc cc
	cc cc		 mov	 DWORD PTR [ebp-4], -858993460 ; ccccccccH
  0000c	89 4d fc	 mov	 DWORD PTR _this$[ebp], ecx
; Line 1613
  0000f	8b 4d fc	 mov	 ecx, DWORD PTR _this$[ebp]
  00012	e8 00 00 00 00	 call	 ?_Unused_capacity@?$vector@UDXUTCache_Texture@@V?$allocator@UDXUTCache_Texture@@@std@@@std@@QBEIXZ ; std::vector<DXUTCache_Texture,std::allocator<DXUTCache_Texture> >::_Unused_capacity
  00017	3b 45 08	 cmp	 eax, DWORD PTR __Count$[ebp]
  0001a	73 3e		 jae	 SHORT $LN4@Reserve
; Line 1615
  0001c	8b 4d fc	 mov	 ecx, DWORD PTR _this$[ebp]
  0001f	e8 00 00 00 00	 call	 ?max_size@?$vector@UDXUTCache_Texture@@V?$allocator@UDXUTCache_Texture@@@std@@@std@@QBEIXZ ; std::vector<DXUTCache_Texture,std::allocator<DXUTCache_Texture> >::max_size
  00024	8b f0		 mov	 esi, eax
  00026	8b 4d fc	 mov	 ecx, DWORD PTR _this$[ebp]
  00029	e8 00 00 00 00	 call	 ?size@?$vector@UDXUTCache_Texture@@V?$allocator@UDXUTCache_Texture@@@std@@@std@@QBEIXZ ; std::vector<DXUTCache_Texture,std::allocator<DXUTCache_Texture> >::size
  0002e	2b f0		 sub	 esi, eax
  00030	3b 75 08	 cmp	 esi, DWORD PTR __Count$[ebp]
  00033	73 08		 jae	 SHORT $LN1@Reserve
; Line 1616
  00035	8b 4d fc	 mov	 ecx, DWORD PTR _this$[ebp]
  00038	e8 00 00 00 00	 call	 ?_Xlen@?$vector@UDXUTCache_Texture@@V?$allocator@UDXUTCache_Texture@@@std@@@std@@IBEXXZ ; std::vector<DXUTCache_Texture,std::allocator<DXUTCache_Texture> >::_Xlen
$LN1@Reserve:
; Line 1617
  0003d	8b 4d fc	 mov	 ecx, DWORD PTR _this$[ebp]
  00040	e8 00 00 00 00	 call	 ?size@?$vector@UDXUTCache_Texture@@V?$allocator@UDXUTCache_Texture@@@std@@@std@@QBEIXZ ; std::vector<DXUTCache_Texture,std::allocator<DXUTCache_Texture> >::size
  00045	03 45 08	 add	 eax, DWORD PTR __Count$[ebp]
  00048	50		 push	 eax
  00049	8b 4d fc	 mov	 ecx, DWORD PTR _this$[ebp]
  0004c	e8 00 00 00 00	 call	 ?_Grow_to@?$vector@UDXUTCache_Texture@@V?$allocator@UDXUTCache_Texture@@@std@@@std@@IBEII@Z ; std::vector<DXUTCache_Texture,std::allocator<DXUTCache_Texture> >::_Grow_to
  00051	50		 push	 eax
  00052	8b 4d fc	 mov	 ecx, DWORD PTR _this$[ebp]
  00055	e8 00 00 00 00	 call	 ?_Reallocate@?$vector@UDXUTCache_Texture@@V?$allocator@UDXUTCache_Texture@@@std@@@std@@IAEXI@Z ; std::vector<DXUTCache_Texture,std::allocator<DXUTCache_Texture> >::_Reallocate
$LN4@Reserve:
; Line 1619
  0005a	5e		 pop	 esi
  0005b	83 c4 04	 add	 esp, 4
  0005e	3b ec		 cmp	 ebp, esp
  00060	e8 00 00 00 00	 call	 __RTC_CheckEsp
  00065	8b e5		 mov	 esp, ebp
  00067	5d		 pop	 ebp
  00068	c2 04 00	 ret	 4
?_Reserve@?$vector@UDXUTCache_Texture@@V?$allocator@UDXUTCache_Texture@@@std@@@std@@IAEXI@Z ENDP ; std::vector<DXUTCache_Texture,std::allocator<DXUTCache_Texture> >::_Reserve
_TEXT	ENDS
; Function compile flags: /Odtp /RTCsu
;	COMDAT ?_Reallocate@?$vector@UDXUTCache_Texture@@V?$allocator@UDXUTCache_Texture@@@std@@@std@@IAEXI@Z
_TEXT	SEGMENT
$T2 = -31						; size = 1
$T3 = -30						; size = 1
$T4 = -29						; size = 1
__Size$ = -28						; size = 4
__Ptr$ = -24						; size = 4
_this$ = -20						; size = 4
__$EHRec$ = -16						; size = 16
__Count$ = 8						; size = 4
?_Reallocate@?$vector@UDXUTCache_Texture@@V?$allocator@UDXUTCache_Texture@@@std@@@std@@IAEXI@Z PROC ; std::vector<DXUTCache_Texture,std::allocator<DXUTCache_Texture> >::_Reallocate, COMDAT
; _this$ = ecx
; File c:\program files (x86)\microsoft visual studio 12.0\vc\include\vector
; Line 1587
  00000	55		 push	 ebp
  00001	8b ec		 mov	 ebp, esp
  00003	6a ff		 push	 -1
  00005	68 00 00 00 00	 push	 __ehhandler$?_Reallocate@?$vector@UDXUTCache_Texture@@V?$allocator@UDXUTCache_Texture@@@std@@@std@@IAEXI@Z
  0000a	64 a1 00 00 00
	00		 mov	 eax, DWORD PTR fs:0
  00010	50		 push	 eax
  00011	51		 push	 ecx
  00012	83 ec 10	 sub	 esp, 16			; 00000010H
  00015	53		 push	 ebx
  00016	56		 push	 esi
  00017	57		 push	 edi
  00018	b8 cc cc cc cc	 mov	 eax, -858993460		; ccccccccH
  0001d	89 45 e0	 mov	 DWORD PTR [ebp-32], eax
  00020	89 45 e4	 mov	 DWORD PTR [ebp-28], eax
  00023	89 45 e8	 mov	 DWORD PTR [ebp-24], eax
  00026	89 45 ec	 mov	 DWORD PTR [ebp-20], eax
  00029	a1 00 00 00 00	 mov	 eax, DWORD PTR ___security_cookie
  0002e	33 c5		 xor	 eax, ebp
  00030	50		 push	 eax
  00031	8d 45 f4	 lea	 eax, DWORD PTR __$EHRec$[ebp+4]
  00034	64 a3 00 00 00
	00		 mov	 DWORD PTR fs:0, eax
  0003a	89 65 f0	 mov	 DWORD PTR __$EHRec$[ebp], esp
  0003d	89 4d ec	 mov	 DWORD PTR _this$[ebp], ecx
; Line 1588
  00040	8b 45 08	 mov	 eax, DWORD PTR __Count$[ebp]
  00043	50		 push	 eax
  00044	8d 4d e3	 lea	 ecx, DWORD PTR $T4[ebp]
  00047	51		 push	 ecx
  00048	8b 4d ec	 mov	 ecx, DWORD PTR _this$[ebp]
  0004b	e8 00 00 00 00	 call	 ?_Getal@?$_Vector_alloc@$0A@U?$_Vec_base_types@UDXUTCache_Texture@@V?$allocator@UDXUTCache_Texture@@@std@@@std@@@std@@QBE?AU?$_Wrap_alloc@V?$allocator@UDXUTCache_Texture@@@std@@@2@XZ ; std::_Vector_alloc<0,std::_Vec_base_types<DXUTCache_Texture,std::allocator<DXUTCache_Texture> > >::_Getal
  00050	8b c8		 mov	 ecx, eax
  00052	e8 00 00 00 00	 call	 ?allocate@?$_Wrap_alloc@V?$allocator@UDXUTCache_Texture@@@std@@@std@@QAEPAUDXUTCache_Texture@@I@Z ; std::_Wrap_alloc<std::allocator<DXUTCache_Texture> >::allocate
  00057	89 45 e8	 mov	 DWORD PTR __Ptr$[ebp], eax
; Line 1590
  0005a	c7 45 fc 00 00
	00 00		 mov	 DWORD PTR __$EHRec$[ebp+12], 0
; Line 1591
  00061	8b 55 e8	 mov	 edx, DWORD PTR __Ptr$[ebp]
  00064	52		 push	 edx
  00065	8b 45 ec	 mov	 eax, DWORD PTR _this$[ebp]
  00068	8b 48 08	 mov	 ecx, DWORD PTR [eax+8]
  0006b	51		 push	 ecx
  0006c	8b 55 ec	 mov	 edx, DWORD PTR _this$[ebp]
  0006f	8b 42 04	 mov	 eax, DWORD PTR [edx+4]
  00072	50		 push	 eax
  00073	8b 4d ec	 mov	 ecx, DWORD PTR _this$[ebp]
  00076	e8 00 00 00 00	 call	 ??$_Umove@PAUDXUTCache_Texture@@@?$vector@UDXUTCache_Texture@@V?$allocator@UDXUTCache_Texture@@@std@@@std@@IAEPAUDXUTCache_Texture@@PAU2@00@Z ; std::vector<DXUTCache_Texture,std::allocator<DXUTCache_Texture> >::_Umove<DXUTCache_Texture *>
  0007b	eb 2a		 jmp	 SHORT $LN5@Reallocate
__catch$?_Reallocate@?$vector@UDXUTCache_Texture@@V?$allocator@UDXUTCache_Texture@@@std@@@std@@IAEXI@Z$0:
; Line 1593
  0007d	8b 4d 08	 mov	 ecx, DWORD PTR __Count$[ebp]
  00080	51		 push	 ecx
  00081	8b 55 e8	 mov	 edx, DWORD PTR __Ptr$[ebp]
  00084	52		 push	 edx
  00085	8d 45 e2	 lea	 eax, DWORD PTR $T3[ebp]
  00088	50		 push	 eax
  00089	8b 4d ec	 mov	 ecx, DWORD PTR _this$[ebp]
  0008c	e8 00 00 00 00	 call	 ?_Getal@?$_Vector_alloc@$0A@U?$_Vec_base_types@UDXUTCache_Texture@@V?$allocator@UDXUTCache_Texture@@@std@@@std@@@std@@QBE?AU?$_Wrap_alloc@V?$allocator@UDXUTCache_Texture@@@std@@@2@XZ ; std::_Vector_alloc<0,std::_Vec_base_types<DXUTCache_Texture,std::allocator<DXUTCache_Texture> > >::_Getal
  00091	8b c8		 mov	 ecx, eax
  00093	e8 00 00 00 00	 call	 ?deallocate@?$_Wrap_alloc@V?$allocator@UDXUTCache_Texture@@@std@@@std@@QAEXPAUDXUTCache_Texture@@I@Z ; std::_Wrap_alloc<std::allocator<DXUTCache_Texture> >::deallocate
; Line 1594
  00098	6a 00		 push	 0
  0009a	6a 00		 push	 0
  0009c	e8 00 00 00 00	 call	 __CxxThrowException@8
; Line 1595
  000a1	b8 00 00 00 00	 mov	 eax, $LN8@Reallocate
  000a6	c3		 ret	 0
$LN5@Reallocate:
  000a7	c7 45 fc ff ff
	ff ff		 mov	 DWORD PTR __$EHRec$[ebp+12], -1
  000ae	eb 07		 jmp	 SHORT __tryend$?_Reallocate@?$vector@UDXUTCache_Texture@@V?$allocator@UDXUTCache_Texture@@@std@@@std@@IAEXI@Z$1
$LN8@Reallocate:
  000b0	c7 45 fc ff ff
	ff ff		 mov	 DWORD PTR __$EHRec$[ebp+12], -1
__tryend$?_Reallocate@?$vector@UDXUTCache_Texture@@V?$allocator@UDXUTCache_Texture@@@std@@@std@@IAEXI@Z$1:
; Line 1597
  000b7	8b 4d ec	 mov	 ecx, DWORD PTR _this$[ebp]
  000ba	e8 00 00 00 00	 call	 ?size@?$vector@UDXUTCache_Texture@@V?$allocator@UDXUTCache_Texture@@@std@@@std@@QBEIXZ ; std::vector<DXUTCache_Texture,std::allocator<DXUTCache_Texture> >::size
  000bf	89 45 e4	 mov	 DWORD PTR __Size$[ebp], eax
; Line 1598
  000c2	8b 4d ec	 mov	 ecx, DWORD PTR _this$[ebp]
  000c5	83 79 04 00	 cmp	 DWORD PTR [ecx+4], 0
  000c9	74 45		 je	 SHORT $LN1@Reallocate
; Line 1600
  000cb	8b 55 ec	 mov	 edx, DWORD PTR _this$[ebp]
  000ce	8b 42 08	 mov	 eax, DWORD PTR [edx+8]
  000d1	50		 push	 eax
  000d2	8b 4d ec	 mov	 ecx, DWORD PTR _this$[ebp]
  000d5	8b 51 04	 mov	 edx, DWORD PTR [ecx+4]
  000d8	52		 push	 edx
  000d9	8b 4d ec	 mov	 ecx, DWORD PTR _this$[ebp]
  000dc	e8 00 00 00 00	 call	 ?_Destroy@?$vector@UDXUTCache_Texture@@V?$allocator@UDXUTCache_Texture@@@std@@@std@@IAEXPAUDXUTCache_Texture@@0@Z ; std::vector<DXUTCache_Texture,std::allocator<DXUTCache_Texture> >::_Destroy
; Line 1602
  000e1	8b 45 ec	 mov	 eax, DWORD PTR _this$[ebp]
  000e4	8b 4d ec	 mov	 ecx, DWORD PTR _this$[ebp]
  000e7	8b 40 0c	 mov	 eax, DWORD PTR [eax+12]
  000ea	2b 41 04	 sub	 eax, DWORD PTR [ecx+4]
  000ed	99		 cdq
  000ee	b9 10 02 00 00	 mov	 ecx, 528		; 00000210H
  000f3	f7 f9		 idiv	 ecx
  000f5	50		 push	 eax
  000f6	8b 55 ec	 mov	 edx, DWORD PTR _this$[ebp]
  000f9	8b 42 04	 mov	 eax, DWORD PTR [edx+4]
  000fc	50		 push	 eax
  000fd	8d 4d e1	 lea	 ecx, DWORD PTR $T2[ebp]
  00100	51		 push	 ecx
  00101	8b 4d ec	 mov	 ecx, DWORD PTR _this$[ebp]
  00104	e8 00 00 00 00	 call	 ?_Getal@?$_Vector_alloc@$0A@U?$_Vec_base_types@UDXUTCache_Texture@@V?$allocator@UDXUTCache_Texture@@@std@@@std@@@std@@QBE?AU?$_Wrap_alloc@V?$allocator@UDXUTCache_Texture@@@std@@@2@XZ ; std::_Vector_alloc<0,std::_Vec_base_types<DXUTCache_Texture,std::allocator<DXUTCache_Texture> > >::_Getal
  00109	8b c8		 mov	 ecx, eax
  0010b	e8 00 00 00 00	 call	 ?deallocate@?$_Wrap_alloc@V?$allocator@UDXUTCache_Texture@@@std@@@std@@QAEXPAUDXUTCache_Texture@@I@Z ; std::_Wrap_alloc<std::allocator<DXUTCache_Texture> >::deallocate
$LN1@Reallocate:
; Line 1605
  00110	8b f4		 mov	 esi, esp
  00112	8b 4d ec	 mov	 ecx, DWORD PTR _this$[ebp]
  00115	ff 15 00 00 00
	00		 call	 DWORD PTR __imp_?_Orphan_all@_Container_base12@std@@QAEXXZ
  0011b	3b f4		 cmp	 esi, esp
  0011d	e8 00 00 00 00	 call	 __RTC_CheckEsp
; Line 1606
  00122	69 55 08 10 02
	00 00		 imul	 edx, DWORD PTR __Count$[ebp], 528
  00129	03 55 e8	 add	 edx, DWORD PTR __Ptr$[ebp]
  0012c	8b 45 ec	 mov	 eax, DWORD PTR _this$[ebp]
  0012f	89 50 0c	 mov	 DWORD PTR [eax+12], edx
; Line 1607
  00132	69 4d e4 10 02
	00 00		 imul	 ecx, DWORD PTR __Size$[ebp], 528
  00139	03 4d e8	 add	 ecx, DWORD PTR __Ptr$[ebp]
  0013c	8b 55 ec	 mov	 edx, DWORD PTR _this$[ebp]
  0013f	89 4a 08	 mov	 DWORD PTR [edx+8], ecx
; Line 1608
  00142	8b 45 ec	 mov	 eax, DWORD PTR _this$[ebp]
  00145	8b 4d e8	 mov	 ecx, DWORD PTR __Ptr$[ebp]
  00148	89 48 04	 mov	 DWORD PTR [eax+4], ecx
$LN4@Reallocate:
; Line 1609
  0014b	8b 4d f4	 mov	 ecx, DWORD PTR __$EHRec$[ebp+4]
  0014e	64 89 0d 00 00
	00 00		 mov	 DWORD PTR fs:0, ecx
  00155	59		 pop	 ecx
  00156	5f		 pop	 edi
  00157	5e		 pop	 esi
  00158	5b		 pop	 ebx
  00159	83 c4 20	 add	 esp, 32			; 00000020H
  0015c	3b ec		 cmp	 ebp, esp
  0015e	e8 00 00 00 00	 call	 __RTC_CheckEsp
  00163	8b e5		 mov	 esp, ebp
  00165	5d		 pop	 ebp
  00166	c2 04 00	 ret	 4
_TEXT	ENDS
;	COMDAT text$x
text$x	SEGMENT
__ehhandler$?_Reallocate@?$vector@UDXUTCache_Texture@@V?$allocator@UDXUTCache_Texture@@@std@@@std@@IAEXI@Z:
  00000	8b 54 24 08	 mov	 edx, DWORD PTR [esp+8]
  00004	8d 42 0c	 lea	 eax, DWORD PTR [edx+12]
  00007	8b 4a dc	 mov	 ecx, DWORD PTR [edx-36]
  0000a	33 c8		 xor	 ecx, eax
  0000c	e8 00 00 00 00	 call	 @__security_check_cookie@4
  00011	b8 00 00 00 00	 mov	 eax, OFFSET __ehfuncinfo$?_Reallocate@?$vector@UDXUTCache_Texture@@V?$allocator@UDXUTCache_Texture@@@std@@@std@@IAEXI@Z
  00016	e9 00 00 00 00	 jmp	 ___CxxFrameHandler3
text$x	ENDS
?_Reallocate@?$vector@UDXUTCache_Texture@@V?$allocator@UDXUTCache_Texture@@@std@@@std@@IAEXI@Z ENDP ; std::vector<DXUTCache_Texture,std::allocator<DXUTCache_Texture> >::_Reallocate
; Function compile flags: /Odtp /RTCsu
;	COMDAT ?_Inside@?$vector@UDXUTCache_Texture@@V?$allocator@UDXUTCache_Texture@@@std@@@std@@IBE_NPBUDXUTCache_Texture@@@Z
_TEXT	SEGMENT
tv76 = -8						; size = 4
_this$ = -4						; size = 4
__Ptr$ = 8						; size = 4
?_Inside@?$vector@UDXUTCache_Texture@@V?$allocator@UDXUTCache_Texture@@@std@@@std@@IBE_NPBUDXUTCache_Texture@@@Z PROC ; std::vector<DXUTCache_Texture,std::allocator<DXUTCache_Texture> >::_Inside, COMDAT
; _this$ = ecx
; File c:\program files (x86)\microsoft visual studio 12.0\vc\include\vector
; Line 1582
  00000	55		 push	 ebp
  00001	8b ec		 mov	 ebp, esp
  00003	83 ec 08	 sub	 esp, 8
  00006	c7 45 f8 cc cc
	cc cc		 mov	 DWORD PTR [ebp-8], -858993460 ; ccccccccH
  0000d	c7 45 fc cc cc
	cc cc		 mov	 DWORD PTR [ebp-4], -858993460 ; ccccccccH
  00014	89 4d fc	 mov	 DWORD PTR _this$[ebp], ecx
; Line 1583
  00017	8b 45 fc	 mov	 eax, DWORD PTR _this$[ebp]
  0001a	8b 4d 08	 mov	 ecx, DWORD PTR __Ptr$[ebp]
  0001d	3b 48 08	 cmp	 ecx, DWORD PTR [eax+8]
  00020	73 14		 jae	 SHORT $LN3@Inside
  00022	8b 55 fc	 mov	 edx, DWORD PTR _this$[ebp]
  00025	8b 42 04	 mov	 eax, DWORD PTR [edx+4]
  00028	3b 45 08	 cmp	 eax, DWORD PTR __Ptr$[ebp]
  0002b	77 09		 ja	 SHORT $LN3@Inside
  0002d	c7 45 f8 01 00
	00 00		 mov	 DWORD PTR tv76[ebp], 1
  00034	eb 07		 jmp	 SHORT $LN4@Inside
$LN3@Inside:
  00036	c7 45 f8 00 00
	00 00		 mov	 DWORD PTR tv76[ebp], 0
$LN4@Inside:
  0003d	8a 45 f8	 mov	 al, BYTE PTR tv76[ebp]
; Line 1584
  00040	8b e5		 mov	 esp, ebp
  00042	5d		 pop	 ebp
  00043	c2 04 00	 ret	 4
?_Inside@?$vector@UDXUTCache_Texture@@V?$allocator@UDXUTCache_Texture@@@std@@@std@@IBE_NPBUDXUTCache_Texture@@@Z ENDP ; std::vector<DXUTCache_Texture,std::allocator<DXUTCache_Texture> >::_Inside
_TEXT	ENDS
; Function compile flags: /Odtp /RTCsu
;	COMDAT ?_Grow_to@?$vector@UDXUTCache_Texture@@V?$allocator@UDXUTCache_Texture@@@std@@@std@@IBEII@Z
_TEXT	SEGMENT
tv73 = -12						; size = 4
__Capacity$ = -8					; size = 4
_this$ = -4						; size = 4
__Count$ = 8						; size = 4
?_Grow_to@?$vector@UDXUTCache_Texture@@V?$allocator@UDXUTCache_Texture@@@std@@@std@@IBEII@Z PROC ; std::vector<DXUTCache_Texture,std::allocator<DXUTCache_Texture> >::_Grow_to, COMDAT
; _this$ = ecx
; File c:\program files (x86)\microsoft visual studio 12.0\vc\include\vector
; Line 1571
  00000	55		 push	 ebp
  00001	8b ec		 mov	 ebp, esp
  00003	83 ec 0c	 sub	 esp, 12			; 0000000cH
  00006	c7 45 f4 cc cc
	cc cc		 mov	 DWORD PTR [ebp-12], -858993460 ; ccccccccH
  0000d	c7 45 f8 cc cc
	cc cc		 mov	 DWORD PTR [ebp-8], -858993460 ; ccccccccH
  00014	c7 45 fc cc cc
	cc cc		 mov	 DWORD PTR [ebp-4], -858993460 ; ccccccccH
  0001b	89 4d fc	 mov	 DWORD PTR _this$[ebp], ecx
; Line 1572
  0001e	8b 4d fc	 mov	 ecx, DWORD PTR _this$[ebp]
  00021	e8 00 00 00 00	 call	 ?capacity@?$vector@UDXUTCache_Texture@@V?$allocator@UDXUTCache_Texture@@@std@@@std@@QBEIXZ ; std::vector<DXUTCache_Texture,std::allocator<DXUTCache_Texture> >::capacity
  00026	89 45 f8	 mov	 DWORD PTR __Capacity$[ebp], eax
; Line 1575
  00029	8b 4d fc	 mov	 ecx, DWORD PTR _this$[ebp]
  0002c	e8 00 00 00 00	 call	 ?max_size@?$vector@UDXUTCache_Texture@@V?$allocator@UDXUTCache_Texture@@@std@@@std@@QBEIXZ ; std::vector<DXUTCache_Texture,std::allocator<DXUTCache_Texture> >::max_size
  00031	8b 4d f8	 mov	 ecx, DWORD PTR __Capacity$[ebp]
  00034	d1 e9		 shr	 ecx, 1
  00036	2b c1		 sub	 eax, ecx
  00038	3b 45 f8	 cmp	 eax, DWORD PTR __Capacity$[ebp]
  0003b	73 09		 jae	 SHORT $LN4@Grow_to
  0003d	c7 45 f4 00 00
	00 00		 mov	 DWORD PTR tv73[ebp], 0
  00044	eb 0b		 jmp	 SHORT $LN5@Grow_to
$LN4@Grow_to:
  00046	8b 55 f8	 mov	 edx, DWORD PTR __Capacity$[ebp]
  00049	d1 ea		 shr	 edx, 1
  0004b	03 55 f8	 add	 edx, DWORD PTR __Capacity$[ebp]
  0004e	89 55 f4	 mov	 DWORD PTR tv73[ebp], edx
$LN5@Grow_to:
  00051	8b 45 f4	 mov	 eax, DWORD PTR tv73[ebp]
  00054	89 45 f8	 mov	 DWORD PTR __Capacity$[ebp], eax
; Line 1576
  00057	8b 4d f8	 mov	 ecx, DWORD PTR __Capacity$[ebp]
  0005a	3b 4d 08	 cmp	 ecx, DWORD PTR __Count$[ebp]
  0005d	73 06		 jae	 SHORT $LN1@Grow_to
; Line 1577
  0005f	8b 55 08	 mov	 edx, DWORD PTR __Count$[ebp]
  00062	89 55 f8	 mov	 DWORD PTR __Capacity$[ebp], edx
$LN1@Grow_to:
; Line 1578
  00065	8b 45 f8	 mov	 eax, DWORD PTR __Capacity$[ebp]
; Line 1579
  00068	83 c4 0c	 add	 esp, 12			; 0000000cH
  0006b	3b ec		 cmp	 ebp, esp
  0006d	e8 00 00 00 00	 call	 __RTC_CheckEsp
  00072	8b e5		 mov	 esp, ebp
  00074	5d		 pop	 ebp
  00075	c2 04 00	 ret	 4
?_Grow_to@?$vector@UDXUTCache_Texture@@V?$allocator@UDXUTCache_Texture@@@std@@@std@@IBEII@Z ENDP ; std::vector<DXUTCache_Texture,std::allocator<DXUTCache_Texture> >::_Grow_to
_TEXT	ENDS
; Function compile flags: /Odtp /RTCsu
;	COMDAT ?_Destroy@?$vector@UDXUTCache_Texture@@V?$allocator@UDXUTCache_Texture@@@std@@@std@@IAEXPAUDXUTCache_Texture@@0@Z
_TEXT	SEGMENT
__Alval$ = -9						; size = 1
_this$ = -4						; size = 4
__First$ = 8						; size = 4
__Last$ = 12						; size = 4
?_Destroy@?$vector@UDXUTCache_Texture@@V?$allocator@UDXUTCache_Texture@@@std@@@std@@IAEXPAUDXUTCache_Texture@@0@Z PROC ; std::vector<DXUTCache_Texture,std::allocator<DXUTCache_Texture> >::_Destroy, COMDAT
; _this$ = ecx
; File c:\program files (x86)\microsoft visual studio 12.0\vc\include\vector
; Line 1565
  00000	55		 push	 ebp
  00001	8b ec		 mov	 ebp, esp
  00003	83 ec 10	 sub	 esp, 16			; 00000010H
  00006	b8 cc cc cc cc	 mov	 eax, -858993460		; ccccccccH
  0000b	89 45 f0	 mov	 DWORD PTR [ebp-16], eax
  0000e	89 45 f4	 mov	 DWORD PTR [ebp-12], eax
  00011	89 45 f8	 mov	 DWORD PTR [ebp-8], eax
  00014	89 45 fc	 mov	 DWORD PTR [ebp-4], eax
  00017	89 4d fc	 mov	 DWORD PTR _this$[ebp], ecx
; Line 1566
  0001a	8d 45 f7	 lea	 eax, DWORD PTR __Alval$[ebp]
  0001d	50		 push	 eax
  0001e	8b 4d fc	 mov	 ecx, DWORD PTR _this$[ebp]
  00021	e8 00 00 00 00	 call	 ?_Getal@?$_Vector_alloc@$0A@U?$_Vec_base_types@UDXUTCache_Texture@@V?$allocator@UDXUTCache_Texture@@@std@@@std@@@std@@QBE?AU?$_Wrap_alloc@V?$allocator@UDXUTCache_Texture@@@std@@@2@XZ ; std::_Vector_alloc<0,std::_Vec_base_types<DXUTCache_Texture,std::allocator<DXUTCache_Texture> > >::_Getal
; Line 1567
  00026	8d 4d f7	 lea	 ecx, DWORD PTR __Alval$[ebp]
  00029	51		 push	 ecx
  0002a	8b 55 0c	 mov	 edx, DWORD PTR __Last$[ebp]
  0002d	52		 push	 edx
  0002e	8b 45 08	 mov	 eax, DWORD PTR __First$[ebp]
  00031	50		 push	 eax
  00032	e8 00 00 00 00	 call	 ??$_Destroy_range@U?$_Wrap_alloc@V?$allocator@UDXUTCache_Texture@@@std@@@std@@@std@@YAXPAUDXUTCache_Texture@@0AAU?$_Wrap_alloc@V?$allocator@UDXUTCache_Texture@@@std@@@0@@Z ; std::_Destroy_range<std::_Wrap_alloc<std::allocator<DXUTCache_Texture> > >
  00037	83 c4 0c	 add	 esp, 12			; 0000000cH
; Line 1568
  0003a	52		 push	 edx
  0003b	8b cd		 mov	 ecx, ebp
  0003d	50		 push	 eax
  0003e	8d 15 00 00 00
	00		 lea	 edx, DWORD PTR $LN5@Destroy
  00044	e8 00 00 00 00	 call	 @_RTC_CheckStackVars@8
  00049	58		 pop	 eax
  0004a	5a		 pop	 edx
  0004b	83 c4 10	 add	 esp, 16			; 00000010H
  0004e	3b ec		 cmp	 ebp, esp
  00050	e8 00 00 00 00	 call	 __RTC_CheckEsp
  00055	8b e5		 mov	 esp, ebp
  00057	5d		 pop	 ebp
  00058	c2 08 00	 ret	 8
  0005b	90		 npad	 1
$LN5@Destroy:
  0005c	01 00 00 00	 DD	 1
  00060	00 00 00 00	 DD	 $LN4@Destroy
$LN4@Destroy:
  00064	f7 ff ff ff	 DD	 -9			; fffffff7H
  00068	01 00 00 00	 DD	 1
  0006c	00 00 00 00	 DD	 $LN3@Destroy
$LN3@Destroy:
  00070	5f		 DB	 95			; 0000005fH
  00071	41		 DB	 65			; 00000041H
  00072	6c		 DB	 108			; 0000006cH
  00073	76		 DB	 118			; 00000076H
  00074	61		 DB	 97			; 00000061H
  00075	6c		 DB	 108			; 0000006cH
  00076	00		 DB	 0
?_Destroy@?$vector@UDXUTCache_Texture@@V?$allocator@UDXUTCache_Texture@@@std@@@std@@IAEXPAUDXUTCache_Texture@@0@Z ENDP ; std::vector<DXUTCache_Texture,std::allocator<DXUTCache_Texture> >::_Destroy
_TEXT	ENDS
; Function compile flags: /Odtp /RTCsu
;	COMDAT ?clear@?$vector@UDXUTCache_Texture@@V?$allocator@UDXUTCache_Texture@@@std@@@std@@QAEXXZ
_TEXT	SEGMENT
_this$ = -4						; size = 4
?clear@?$vector@UDXUTCache_Texture@@V?$allocator@UDXUTCache_Texture@@@std@@@std@@QAEXXZ PROC ; std::vector<DXUTCache_Texture,std::allocator<DXUTCache_Texture> >::clear, COMDAT
; _this$ = ecx
; File c:\program files (x86)\microsoft visual studio 12.0\vc\include\vector
; Line 1507
  00000	55		 push	 ebp
  00001	8b ec		 mov	 ebp, esp
  00003	51		 push	 ecx
  00004	56		 push	 esi
  00005	c7 45 fc cc cc
	cc cc		 mov	 DWORD PTR [ebp-4], -858993460 ; ccccccccH
  0000c	89 4d fc	 mov	 DWORD PTR _this$[ebp], ecx
; Line 1508
  0000f	8b f4		 mov	 esi, esp
  00011	8b 4d fc	 mov	 ecx, DWORD PTR _this$[ebp]
  00014	ff 15 00 00 00
	00		 call	 DWORD PTR __imp_?_Orphan_all@_Container_base12@std@@QAEXXZ
  0001a	3b f4		 cmp	 esi, esp
  0001c	e8 00 00 00 00	 call	 __RTC_CheckEsp
; Line 1509
  00021	8b 45 fc	 mov	 eax, DWORD PTR _this$[ebp]
  00024	8b 48 08	 mov	 ecx, DWORD PTR [eax+8]
  00027	51		 push	 ecx
  00028	8b 55 fc	 mov	 edx, DWORD PTR _this$[ebp]
  0002b	8b 42 04	 mov	 eax, DWORD PTR [edx+4]
  0002e	50		 push	 eax
  0002f	8b 4d fc	 mov	 ecx, DWORD PTR _this$[ebp]
  00032	e8 00 00 00 00	 call	 ?_Destroy@?$vector@UDXUTCache_Texture@@V?$allocator@UDXUTCache_Texture@@@std@@@std@@IAEXPAUDXUTCache_Texture@@0@Z ; std::vector<DXUTCache_Texture,std::allocator<DXUTCache_Texture> >::_Destroy
; Line 1510
  00037	8b 4d fc	 mov	 ecx, DWORD PTR _this$[ebp]
  0003a	8b 55 fc	 mov	 edx, DWORD PTR _this$[ebp]
  0003d	8b 42 04	 mov	 eax, DWORD PTR [edx+4]
  00040	89 41 08	 mov	 DWORD PTR [ecx+8], eax
; Line 1511
  00043	5e		 pop	 esi
  00044	83 c4 04	 add	 esp, 4
  00047	3b ec		 cmp	 ebp, esp
  00049	e8 00 00 00 00	 call	 __RTC_CheckEsp
  0004e	8b e5		 mov	 esp, ebp
  00050	5d		 pop	 ebp
  00051	c3		 ret	 0
?clear@?$vector@UDXUTCache_Texture@@V?$allocator@UDXUTCache_Texture@@@std@@@std@@QAEXXZ ENDP ; std::vector<DXUTCache_Texture,std::allocator<DXUTCache_Texture> >::clear
_TEXT	ENDS
; Function compile flags: /Odtp /RTCsu
;	COMDAT ?push_back@?$vector@UDXUTCache_Texture@@V?$allocator@UDXUTCache_Texture@@@std@@@std@@QAEXABUDXUTCache_Texture@@@Z
_TEXT	SEGMENT
$T1 = -10						; size = 1
$T2 = -9						; size = 1
__Idx$3 = -8						; size = 4
_this$ = -4						; size = 4
__Val$ = 8						; size = 4
?push_back@?$vector@UDXUTCache_Texture@@V?$allocator@UDXUTCache_Texture@@@std@@@std@@QAEXABUDXUTCache_Texture@@@Z PROC ; std::vector<DXUTCache_Texture,std::allocator<DXUTCache_Texture> >::push_back, COMDAT
; _this$ = ecx
; File c:\program files (x86)\microsoft visual studio 12.0\vc\include\vector
; Line 1243
  00000	55		 push	 ebp
  00001	8b ec		 mov	 ebp, esp
  00003	83 ec 0c	 sub	 esp, 12			; 0000000cH
  00006	c7 45 f4 cc cc
	cc cc		 mov	 DWORD PTR [ebp-12], -858993460 ; ccccccccH
  0000d	c7 45 f8 cc cc
	cc cc		 mov	 DWORD PTR [ebp-8], -858993460 ; ccccccccH
  00014	c7 45 fc cc cc
	cc cc		 mov	 DWORD PTR [ebp-4], -858993460 ; ccccccccH
  0001b	89 4d fc	 mov	 DWORD PTR _this$[ebp], ecx
; Line 1244
  0001e	8b 45 08	 mov	 eax, DWORD PTR __Val$[ebp]
  00021	50		 push	 eax
  00022	e8 00 00 00 00	 call	 ??$addressof@$$CBUDXUTCache_Texture@@@std@@YAPBUDXUTCache_Texture@@ABU1@@Z ; std::addressof<DXUTCache_Texture const >
  00027	83 c4 04	 add	 esp, 4
  0002a	50		 push	 eax
  0002b	8b 4d fc	 mov	 ecx, DWORD PTR _this$[ebp]
  0002e	e8 00 00 00 00	 call	 ?_Inside@?$vector@UDXUTCache_Texture@@V?$allocator@UDXUTCache_Texture@@@std@@@std@@IBE_NPBUDXUTCache_Texture@@@Z ; std::vector<DXUTCache_Texture,std::allocator<DXUTCache_Texture> >::_Inside
  00033	0f b6 c8	 movzx	 ecx, al
  00036	85 c9		 test	 ecx, ecx
  00038	0f 84 86 00 00
	00		 je	 $LN4@push_back
; Line 1246
  0003e	8b 55 08	 mov	 edx, DWORD PTR __Val$[ebp]
  00041	52		 push	 edx
  00042	e8 00 00 00 00	 call	 ??$addressof@$$CBUDXUTCache_Texture@@@std@@YAPBUDXUTCache_Texture@@ABU1@@Z ; std::addressof<DXUTCache_Texture const >
  00047	83 c4 04	 add	 esp, 4
  0004a	8b 4d fc	 mov	 ecx, DWORD PTR _this$[ebp]
  0004d	2b 41 04	 sub	 eax, DWORD PTR [ecx+4]
  00050	99		 cdq
  00051	b9 10 02 00 00	 mov	 ecx, 528		; 00000210H
  00056	f7 f9		 idiv	 ecx
  00058	89 45 f8	 mov	 DWORD PTR __Idx$3[ebp], eax
; Line 1247
  0005b	8b 55 fc	 mov	 edx, DWORD PTR _this$[ebp]
  0005e	8b 45 fc	 mov	 eax, DWORD PTR _this$[ebp]
  00061	8b 4a 08	 mov	 ecx, DWORD PTR [edx+8]
  00064	3b 48 0c	 cmp	 ecx, DWORD PTR [eax+12]
  00067	75 0a		 jne	 SHORT $LN3@push_back
; Line 1248
  00069	6a 01		 push	 1
  0006b	8b 4d fc	 mov	 ecx, DWORD PTR _this$[ebp]
  0006e	e8 00 00 00 00	 call	 ?_Reserve@?$vector@UDXUTCache_Texture@@V?$allocator@UDXUTCache_Texture@@@std@@@std@@IAEXI@Z ; std::vector<DXUTCache_Texture,std::allocator<DXUTCache_Texture> >::_Reserve
$LN3@push_back:
; Line 1249
  00073	8b 55 fc	 mov	 edx, DWORD PTR _this$[ebp]
  00076	8b 42 08	 mov	 eax, DWORD PTR [edx+8]
  00079	50		 push	 eax
  0007a	8b 4d fc	 mov	 ecx, DWORD PTR _this$[ebp]
  0007d	8b 51 08	 mov	 edx, DWORD PTR [ecx+8]
  00080	52		 push	 edx
  00081	8b 4d fc	 mov	 ecx, DWORD PTR _this$[ebp]
  00084	e8 00 00 00 00	 call	 ?_Orphan_range@?$vector@UDXUTCache_Texture@@V?$allocator@UDXUTCache_Texture@@@std@@@std@@IBEXPAUDXUTCache_Texture@@0@Z ; std::vector<DXUTCache_Texture,std::allocator<DXUTCache_Texture> >::_Orphan_range
; Line 1251
  00089	69 45 f8 10 02
	00 00		 imul	 eax, DWORD PTR __Idx$3[ebp], 528
  00090	8b 4d fc	 mov	 ecx, DWORD PTR _this$[ebp]
  00093	03 41 04	 add	 eax, DWORD PTR [ecx+4]
  00096	50		 push	 eax
  00097	8b 55 fc	 mov	 edx, DWORD PTR _this$[ebp]
  0009a	8b 42 08	 mov	 eax, DWORD PTR [edx+8]
  0009d	50		 push	 eax
  0009e	8d 4d f7	 lea	 ecx, DWORD PTR $T2[ebp]
  000a1	51		 push	 ecx
  000a2	8b 4d fc	 mov	 ecx, DWORD PTR _this$[ebp]
  000a5	e8 00 00 00 00	 call	 ?_Getal@?$_Vector_alloc@$0A@U?$_Vec_base_types@UDXUTCache_Texture@@V?$allocator@UDXUTCache_Texture@@@std@@@std@@@std@@QBE?AU?$_Wrap_alloc@V?$allocator@UDXUTCache_Texture@@@std@@@2@XZ ; std::_Vector_alloc<0,std::_Vec_base_types<DXUTCache_Texture,std::allocator<DXUTCache_Texture> > >::_Getal
  000aa	8b c8		 mov	 ecx, eax
  000ac	e8 00 00 00 00	 call	 ??$construct@UDXUTCache_Texture@@AAU1@@?$_Wrap_alloc@V?$allocator@UDXUTCache_Texture@@@std@@@std@@QAEXPAUDXUTCache_Texture@@AAU2@@Z ; std::_Wrap_alloc<std::allocator<DXUTCache_Texture> >::construct<DXUTCache_Texture,DXUTCache_Texture &>
; Line 1252
  000b1	8b 55 fc	 mov	 edx, DWORD PTR _this$[ebp]
  000b4	8b 42 08	 mov	 eax, DWORD PTR [edx+8]
  000b7	05 10 02 00 00	 add	 eax, 528		; 00000210H
  000bc	8b 4d fc	 mov	 ecx, DWORD PTR _this$[ebp]
  000bf	89 41 08	 mov	 DWORD PTR [ecx+8], eax
; Line 1254
  000c2	eb 5e		 jmp	 SHORT $LN5@push_back
$LN4@push_back:
; Line 1256
  000c4	8b 55 fc	 mov	 edx, DWORD PTR _this$[ebp]
  000c7	8b 45 fc	 mov	 eax, DWORD PTR _this$[ebp]
  000ca	8b 4a 08	 mov	 ecx, DWORD PTR [edx+8]
  000cd	3b 48 0c	 cmp	 ecx, DWORD PTR [eax+12]
  000d0	75 0a		 jne	 SHORT $LN1@push_back
; Line 1257
  000d2	6a 01		 push	 1
  000d4	8b 4d fc	 mov	 ecx, DWORD PTR _this$[ebp]
  000d7	e8 00 00 00 00	 call	 ?_Reserve@?$vector@UDXUTCache_Texture@@V?$allocator@UDXUTCache_Texture@@@std@@@std@@IAEXI@Z ; std::vector<DXUTCache_Texture,std::allocator<DXUTCache_Texture> >::_Reserve
$LN1@push_back:
; Line 1258
  000dc	8b 55 fc	 mov	 edx, DWORD PTR _this$[ebp]
  000df	8b 42 08	 mov	 eax, DWORD PTR [edx+8]
  000e2	50		 push	 eax
  000e3	8b 4d fc	 mov	 ecx, DWORD PTR _this$[ebp]
  000e6	8b 51 08	 mov	 edx, DWORD PTR [ecx+8]
  000e9	52		 push	 edx
  000ea	8b 4d fc	 mov	 ecx, DWORD PTR _this$[ebp]
  000ed	e8 00 00 00 00	 call	 ?_Orphan_range@?$vector@UDXUTCache_Texture@@V?$allocator@UDXUTCache_Texture@@@std@@@std@@IBEXPAUDXUTCache_Texture@@0@Z ; std::vector<DXUTCache_Texture,std::allocator<DXUTCache_Texture> >::_Orphan_range
; Line 1260
  000f2	8b 45 08	 mov	 eax, DWORD PTR __Val$[ebp]
  000f5	50		 push	 eax
  000f6	8b 4d fc	 mov	 ecx, DWORD PTR _this$[ebp]
  000f9	8b 51 08	 mov	 edx, DWORD PTR [ecx+8]
  000fc	52		 push	 edx
  000fd	8d 45 f6	 lea	 eax, DWORD PTR $T1[ebp]
  00100	50		 push	 eax
  00101	8b 4d fc	 mov	 ecx, DWORD PTR _this$[ebp]
  00104	e8 00 00 00 00	 call	 ?_Getal@?$_Vector_alloc@$0A@U?$_Vec_base_types@UDXUTCache_Texture@@V?$allocator@UDXUTCache_Texture@@@std@@@std@@@std@@QBE?AU?$_Wrap_alloc@V?$allocator@UDXUTCache_Texture@@@std@@@2@XZ ; std::_Vector_alloc<0,std::_Vec_base_types<DXUTCache_Texture,std::allocator<DXUTCache_Texture> > >::_Getal
  00109	8b c8		 mov	 ecx, eax
  0010b	e8 00 00 00 00	 call	 ??$construct@UDXUTCache_Texture@@ABU1@@?$_Wrap_alloc@V?$allocator@UDXUTCache_Texture@@@std@@@std@@QAEXPAUDXUTCache_Texture@@ABU2@@Z ; std::_Wrap_alloc<std::allocator<DXUTCache_Texture> >::construct<DXUTCache_Texture,DXUTCache_Texture const &>
; Line 1261
  00110	8b 4d fc	 mov	 ecx, DWORD PTR _this$[ebp]
  00113	8b 51 08	 mov	 edx, DWORD PTR [ecx+8]
  00116	81 c2 10 02 00
	00		 add	 edx, 528		; 00000210H
  0011c	8b 45 fc	 mov	 eax, DWORD PTR _this$[ebp]
  0011f	89 50 08	 mov	 DWORD PTR [eax+8], edx
$LN5@push_back:
; Line 1263
  00122	83 c4 0c	 add	 esp, 12			; 0000000cH
  00125	3b ec		 cmp	 ebp, esp
  00127	e8 00 00 00 00	 call	 __RTC_CheckEsp
  0012c	8b e5		 mov	 esp, ebp
  0012e	5d		 pop	 ebp
  0012f	c2 04 00	 ret	 4
?push_back@?$vector@UDXUTCache_Texture@@V?$allocator@UDXUTCache_Texture@@@std@@@std@@QAEXABUDXUTCache_Texture@@@Z ENDP ; std::vector<DXUTCache_Texture,std::allocator<DXUTCache_Texture> >::push_back
_TEXT	ENDS
; Function compile flags: /Odtp /RTCsu
;	COMDAT ??A?$vector@UDXUTCache_Texture@@V?$allocator@UDXUTCache_Texture@@@std@@@std@@QAEAAUDXUTCache_Texture@@I@Z
_TEXT	SEGMENT
_this$ = -4						; size = 4
__Pos$ = 8						; size = 4
??A?$vector@UDXUTCache_Texture@@V?$allocator@UDXUTCache_Texture@@@std@@@std@@QAEAAUDXUTCache_Texture@@I@Z PROC ; std::vector<DXUTCache_Texture,std::allocator<DXUTCache_Texture> >::operator[], COMDAT
; _this$ = ecx
; File c:\program files (x86)\microsoft visual studio 12.0\vc\include\vector
; Line 1197
  00000	55		 push	 ebp
  00001	8b ec		 mov	 ebp, esp
  00003	51		 push	 ecx
  00004	56		 push	 esi
  00005	c7 45 fc cc cc
	cc cc		 mov	 DWORD PTR [ebp-4], -858993460 ; ccccccccH
  0000c	89 4d fc	 mov	 DWORD PTR _this$[ebp], ecx
; Line 1199
  0000f	8b 4d fc	 mov	 ecx, DWORD PTR _this$[ebp]
  00012	e8 00 00 00 00	 call	 ?size@?$vector@UDXUTCache_Texture@@V?$allocator@UDXUTCache_Texture@@@std@@@std@@QBEIXZ ; std::vector<DXUTCache_Texture,std::allocator<DXUTCache_Texture> >::size
  00017	3b 45 08	 cmp	 eax, DWORD PTR __Pos$[ebp]
  0001a	0f 87 86 00 00
	00		 ja	 $LN1@operator
; Line 1201
  00020	8b f4		 mov	 esi, esp
  00022	68 b1 04 00 00	 push	 1201			; 000004b1H
  00027	68 00 00 00 00	 push	 OFFSET ??_C@_1IM@EINEHPHE@?$AAC?$AA?3?$AA?2?$AAP?$AAr?$AAo?$AAg?$AAr?$AAa?$AAm?$AA?5?$AAF?$AAi?$AAl?$AAe?$AAs?$AA?5?$AA?$CI?$AAx?$AA8?$AA6?$AA?$CJ?$AA?2?$AAM?$AAi?$AAc?$AAr?$AAo?$AAs?$AAo?$AAf?$AAt@
  0002c	68 00 00 00 00	 push	 OFFSET ??_C@_1DM@LHGCHCBA@?$AAv?$AAe?$AAc?$AAt?$AAo?$AAr?$AA?5?$AAs?$AAu?$AAb?$AAs?$AAc?$AAr?$AAi?$AAp?$AAt?$AA?5?$AAo?$AAu?$AAt?$AA?5?$AAo?$AAf?$AA?5?$AAr?$AAa?$AAn?$AAg?$AAe?$AA?$AA@
  00031	ff 15 00 00 00
	00		 call	 DWORD PTR __imp_?_Debug_message@std@@YAXPB_W0I@Z
  00037	83 c4 0c	 add	 esp, 12			; 0000000cH
  0003a	3b f4		 cmp	 esi, esp
  0003c	e8 00 00 00 00	 call	 __RTC_CheckEsp
; Line 1202
  00041	b8 00 00 00 00	 mov	 eax, OFFSET ??_C@_0CE@OFMIGAMM@Standard?5C?$CL?$CL?5Libraries?5Out?5of?5Ra@
  00046	85 c0		 test	 eax, eax
  00048	74 04		 je	 SHORT $LN4@operator
  0004a	33 c9		 xor	 ecx, ecx
  0004c	75 30		 jne	 SHORT $LN5@operator
$LN4@operator:
  0004e	8b f4		 mov	 esi, esp
  00050	68 00 00 00 00	 push	 OFFSET ??_C@_1FG@IBPIFFN@?$AA?$CC?$AAS?$AAt?$AAa?$AAn?$AAd?$AAa?$AAr?$AAd?$AA?5?$AAC?$AA?$CL?$AA?$CL?$AA?5?$AAL?$AAi?$AAb?$AAr?$AAa?$AAr?$AAi?$AAe?$AAs?$AA?5?$AAO?$AAu?$AAt?$AA?5?$AAo?$AAf?$AA?5?$AAR@
  00055	68 00 00 00 00	 push	 OFFSET ??_C@_15GANGMFKL@?$AA?$CF?$AAs?$AA?$AA@
  0005a	6a 00		 push	 0
  0005c	68 b2 04 00 00	 push	 1202			; 000004b2H
  00061	68 00 00 00 00	 push	 OFFSET ??_C@_1IM@EINEHPHE@?$AAC?$AA?3?$AA?2?$AAP?$AAr?$AAo?$AAg?$AAr?$AAa?$AAm?$AA?5?$AAF?$AAi?$AAl?$AAe?$AAs?$AA?5?$AA?$CI?$AAx?$AA8?$AA6?$AA?$CJ?$AA?2?$AAM?$AAi?$AAc?$AAr?$AAo?$AAs?$AAo?$AAf?$AAt@
  00066	6a 02		 push	 2
  00068	ff 15 00 00 00
	00		 call	 DWORD PTR __imp___CrtDbgReportW
  0006e	83 c4 18	 add	 esp, 24			; 00000018H
  00071	3b f4		 cmp	 esi, esp
  00073	e8 00 00 00 00	 call	 __RTC_CheckEsp
  00078	83 f8 01	 cmp	 eax, 1
  0007b	75 01		 jne	 SHORT $LN5@operator
  0007d	cc		 int	 3
$LN5@operator:
  0007e	8b f4		 mov	 esi, esp
  00080	6a 00		 push	 0
  00082	68 b2 04 00 00	 push	 1202			; 000004b2H
  00087	68 00 00 00 00	 push	 OFFSET ??_C@_1IM@EINEHPHE@?$AAC?$AA?3?$AA?2?$AAP?$AAr?$AAo?$AAg?$AAr?$AAa?$AAm?$AA?5?$AAF?$AAi?$AAl?$AAe?$AAs?$AA?5?$AA?$CI?$AAx?$AA8?$AA6?$AA?$CJ?$AA?2?$AAM?$AAi?$AAc?$AAr?$AAo?$AAs?$AAo?$AAf?$AAt@
  0008c	68 00 00 00 00	 push	 OFFSET ??_C@_1MG@PMHOEKDO@?$AAs?$AAt?$AAd?$AA?3?$AA?3?$AAv?$AAe?$AAc?$AAt?$AAo?$AAr?$AA?$DM?$AAs?$AAt?$AAr?$AAu?$AAc?$AAt?$AA?5?$AAD?$AAX?$AAU?$AAT?$AAC?$AAa?$AAc?$AAh?$AAe?$AA_?$AAT?$AAe?$AAx@
  00091	68 00 00 00 00	 push	 OFFSET ??_C@_1BO@MEPPHOO@?$AA?$CC?$AAo?$AAu?$AAt?$AA?5?$AAo?$AAf?$AA?5?$AAr?$AAa?$AAn?$AAg?$AAe?$AA?$CC?$AA?$AA@
  00096	ff 15 00 00 00
	00		 call	 DWORD PTR __imp___invalid_parameter
  0009c	83 c4 14	 add	 esp, 20			; 00000014H
  0009f	3b f4		 cmp	 esi, esp
  000a1	e8 00 00 00 00	 call	 __RTC_CheckEsp
$LN1@operator:
; Line 1209
  000a6	69 45 08 10 02
	00 00		 imul	 eax, DWORD PTR __Pos$[ebp], 528
  000ad	8b 4d fc	 mov	 ecx, DWORD PTR _this$[ebp]
  000b0	03 41 04	 add	 eax, DWORD PTR [ecx+4]
; Line 1210
  000b3	5e		 pop	 esi
  000b4	83 c4 04	 add	 esp, 4
  000b7	3b ec		 cmp	 ebp, esp
  000b9	e8 00 00 00 00	 call	 __RTC_CheckEsp
  000be	8b e5		 mov	 esp, ebp
  000c0	5d		 pop	 ebp
  000c1	c2 04 00	 ret	 4
??A?$vector@UDXUTCache_Texture@@V?$allocator@UDXUTCache_Texture@@@std@@@std@@QAEAAUDXUTCache_Texture@@I@Z ENDP ; std::vector<DXUTCache_Texture,std::allocator<DXUTCache_Texture> >::operator[]
_TEXT	ENDS
; Function compile flags: /Odtp /RTCsu
;	COMDAT ?empty@?$vector@UDXUTCache_Texture@@V?$allocator@UDXUTCache_Texture@@@std@@@std@@QBE_NXZ
_TEXT	SEGMENT
tv75 = -8						; size = 4
_this$ = -4						; size = 4
?empty@?$vector@UDXUTCache_Texture@@V?$allocator@UDXUTCache_Texture@@@std@@@std@@QBE_NXZ PROC ; std::vector<DXUTCache_Texture,std::allocator<DXUTCache_Texture> >::empty, COMDAT
; _this$ = ecx
; File c:\program files (x86)\microsoft visual studio 12.0\vc\include\vector
; Line 1157
  00000	55		 push	 ebp
  00001	8b ec		 mov	 ebp, esp
  00003	83 ec 08	 sub	 esp, 8
  00006	c7 45 f8 cc cc
	cc cc		 mov	 DWORD PTR [ebp-8], -858993460 ; ccccccccH
  0000d	c7 45 fc cc cc
	cc cc		 mov	 DWORD PTR [ebp-4], -858993460 ; ccccccccH
  00014	89 4d fc	 mov	 DWORD PTR _this$[ebp], ecx
; Line 1158
  00017	8b 45 fc	 mov	 eax, DWORD PTR _this$[ebp]
  0001a	8b 4d fc	 mov	 ecx, DWORD PTR _this$[ebp]
  0001d	8b 50 04	 mov	 edx, DWORD PTR [eax+4]
  00020	3b 51 08	 cmp	 edx, DWORD PTR [ecx+8]
  00023	75 09		 jne	 SHORT $LN3@empty
  00025	c7 45 f8 01 00
	00 00		 mov	 DWORD PTR tv75[ebp], 1
  0002c	eb 07		 jmp	 SHORT $LN4@empty
$LN3@empty:
  0002e	c7 45 f8 00 00
	00 00		 mov	 DWORD PTR tv75[ebp], 0
$LN4@empty:
  00035	8a 45 f8	 mov	 al, BYTE PTR tv75[ebp]
; Line 1159
  00038	8b e5		 mov	 esp, ebp
  0003a	5d		 pop	 ebp
  0003b	c3		 ret	 0
?empty@?$vector@UDXUTCache_Texture@@V?$allocator@UDXUTCache_Texture@@@std@@@std@@QBE_NXZ ENDP ; std::vector<DXUTCache_Texture,std::allocator<DXUTCache_Texture> >::empty
_TEXT	ENDS
; Function compile flags: /Odtp /RTCsu
;	COMDAT ?max_size@?$vector@UDXUTCache_Texture@@V?$allocator@UDXUTCache_Texture@@@std@@@std@@QBEIXZ
_TEXT	SEGMENT
$T1 = -5						; size = 1
_this$ = -4						; size = 4
?max_size@?$vector@UDXUTCache_Texture@@V?$allocator@UDXUTCache_Texture@@@std@@@std@@QBEIXZ PROC ; std::vector<DXUTCache_Texture,std::allocator<DXUTCache_Texture> >::max_size, COMDAT
; _this$ = ecx
; File c:\program files (x86)\microsoft visual studio 12.0\vc\include\vector
; Line 1152
  00000	55		 push	 ebp
  00001	8b ec		 mov	 ebp, esp
  00003	83 ec 08	 sub	 esp, 8
  00006	c7 45 f8 cc cc
	cc cc		 mov	 DWORD PTR [ebp-8], -858993460 ; ccccccccH
  0000d	c7 45 fc cc cc
	cc cc		 mov	 DWORD PTR [ebp-4], -858993460 ; ccccccccH
  00014	89 4d fc	 mov	 DWORD PTR _this$[ebp], ecx
; Line 1153
  00017	8d 45 fb	 lea	 eax, DWORD PTR $T1[ebp]
  0001a	50		 push	 eax
  0001b	8b 4d fc	 mov	 ecx, DWORD PTR _this$[ebp]
  0001e	e8 00 00 00 00	 call	 ?_Getal@?$_Vector_alloc@$0A@U?$_Vec_base_types@UDXUTCache_Texture@@V?$allocator@UDXUTCache_Texture@@@std@@@std@@@std@@QBE?AU?$_Wrap_alloc@V?$allocator@UDXUTCache_Texture@@@std@@@2@XZ ; std::_Vector_alloc<0,std::_Vec_base_types<DXUTCache_Texture,std::allocator<DXUTCache_Texture> > >::_Getal
  00023	8b c8		 mov	 ecx, eax
  00025	e8 00 00 00 00	 call	 ?max_size@?$_Wrap_alloc@V?$allocator@UDXUTCache_Texture@@@std@@@std@@QBEIXZ ; std::_Wrap_alloc<std::allocator<DXUTCache_Texture> >::max_size
; Line 1154
  0002a	83 c4 08	 add	 esp, 8
  0002d	3b ec		 cmp	 ebp, esp
  0002f	e8 00 00 00 00	 call	 __RTC_CheckEsp
  00034	8b e5		 mov	 esp, ebp
  00036	5d		 pop	 ebp
  00037	c3		 ret	 0
?max_size@?$vector@UDXUTCache_Texture@@V?$allocator@UDXUTCache_Texture@@@std@@@std@@QBEIXZ ENDP ; std::vector<DXUTCache_Texture,std::allocator<DXUTCache_Texture> >::max_size
_TEXT	ENDS
; Function compile flags: /Odtp /RTCsu
;	COMDAT ?size@?$vector@UDXUTCache_Texture@@V?$allocator@UDXUTCache_Texture@@@std@@@std@@QBEIXZ
_TEXT	SEGMENT
_this$ = -4						; size = 4
?size@?$vector@UDXUTCache_Texture@@V?$allocator@UDXUTCache_Texture@@@std@@@std@@QBEIXZ PROC ; std::vector<DXUTCache_Texture,std::allocator<DXUTCache_Texture> >::size, COMDAT
; _this$ = ecx
; File c:\program files (x86)\microsoft visual studio 12.0\vc\include\vector
; Line 1147
  00000	55		 push	 ebp
  00001	8b ec		 mov	 ebp, esp
  00003	51		 push	 ecx
  00004	c7 45 fc cc cc
	cc cc		 mov	 DWORD PTR [ebp-4], -858993460 ; ccccccccH
  0000b	89 4d fc	 mov	 DWORD PTR _this$[ebp], ecx
; Line 1148
  0000e	8b 45 fc	 mov	 eax, DWORD PTR _this$[ebp]
  00011	8b 4d fc	 mov	 ecx, DWORD PTR _this$[ebp]
  00014	8b 40 08	 mov	 eax, DWORD PTR [eax+8]
  00017	2b 41 04	 sub	 eax, DWORD PTR [ecx+4]
  0001a	99		 cdq
  0001b	b9 10 02 00 00	 mov	 ecx, 528		; 00000210H
  00020	f7 f9		 idiv	 ecx
; Line 1149
  00022	8b e5		 mov	 esp, ebp
  00024	5d		 pop	 ebp
  00025	c3		 ret	 0
?size@?$vector@UDXUTCache_Texture@@V?$allocator@UDXUTCache_Texture@@@std@@@std@@QBEIXZ ENDP ; std::vector<DXUTCache_Texture,std::allocator<DXUTCache_Texture> >::size
_TEXT	ENDS
; Function compile flags: /Odtp /RTCsu
;	COMDAT ?shrink_to_fit@?$vector@UDXUTCache_Texture@@V?$allocator@UDXUTCache_Texture@@@std@@@std@@QAEXXZ
_TEXT	SEGMENT
_this$ = -4						; size = 4
?shrink_to_fit@?$vector@UDXUTCache_Texture@@V?$allocator@UDXUTCache_Texture@@@std@@@std@@QAEXXZ PROC ; std::vector<DXUTCache_Texture,std::allocator<DXUTCache_Texture> >::shrink_to_fit, COMDAT
; _this$ = ecx
; File c:\program files (x86)\microsoft visual studio 12.0\vc\include\vector
; Line 1089
  00000	55		 push	 ebp
  00001	8b ec		 mov	 ebp, esp
  00003	51		 push	 ecx
  00004	c7 45 fc cc cc
	cc cc		 mov	 DWORD PTR [ebp-4], -858993460 ; ccccccccH
  0000b	89 4d fc	 mov	 DWORD PTR _this$[ebp], ecx
; Line 1090
  0000e	8b 4d fc	 mov	 ecx, DWORD PTR _this$[ebp]
  00011	e8 00 00 00 00	 call	 ?_Has_unused_capacity@?$vector@UDXUTCache_Texture@@V?$allocator@UDXUTCache_Texture@@@std@@@std@@QBEIXZ ; std::vector<DXUTCache_Texture,std::allocator<DXUTCache_Texture> >::_Has_unused_capacity
  00016	85 c0		 test	 eax, eax
  00018	74 2a		 je	 SHORT $LN4@shrink_to_
; Line 1092
  0001a	8b 4d fc	 mov	 ecx, DWORD PTR _this$[ebp]
  0001d	e8 00 00 00 00	 call	 ?empty@?$vector@UDXUTCache_Texture@@V?$allocator@UDXUTCache_Texture@@@std@@@std@@QBE_NXZ ; std::vector<DXUTCache_Texture,std::allocator<DXUTCache_Texture> >::empty
  00022	0f b6 c0	 movzx	 eax, al
  00025	85 c0		 test	 eax, eax
  00027	74 0a		 je	 SHORT $LN2@shrink_to_
; Line 1093
  00029	8b 4d fc	 mov	 ecx, DWORD PTR _this$[ebp]
  0002c	e8 00 00 00 00	 call	 ?_Tidy@?$vector@UDXUTCache_Texture@@V?$allocator@UDXUTCache_Texture@@@std@@@std@@IAEXXZ ; std::vector<DXUTCache_Texture,std::allocator<DXUTCache_Texture> >::_Tidy
; Line 1094
  00031	eb 11		 jmp	 SHORT $LN4@shrink_to_
$LN2@shrink_to_:
; Line 1095
  00033	8b 4d fc	 mov	 ecx, DWORD PTR _this$[ebp]
  00036	e8 00 00 00 00	 call	 ?size@?$vector@UDXUTCache_Texture@@V?$allocator@UDXUTCache_Texture@@@std@@@std@@QBEIXZ ; std::vector<DXUTCache_Texture,std::allocator<DXUTCache_Texture> >::size
  0003b	50		 push	 eax
  0003c	8b 4d fc	 mov	 ecx, DWORD PTR _this$[ebp]
  0003f	e8 00 00 00 00	 call	 ?_Reallocate@?$vector@UDXUTCache_Texture@@V?$allocator@UDXUTCache_Texture@@@std@@@std@@IAEXI@Z ; std::vector<DXUTCache_Texture,std::allocator<DXUTCache_Texture> >::_Reallocate
$LN4@shrink_to_:
; Line 1097
  00044	83 c4 04	 add	 esp, 4
  00047	3b ec		 cmp	 ebp, esp
  00049	e8 00 00 00 00	 call	 __RTC_CheckEsp
  0004e	8b e5		 mov	 esp, ebp
  00050	5d		 pop	 ebp
  00051	c3		 ret	 0
?shrink_to_fit@?$vector@UDXUTCache_Texture@@V?$allocator@UDXUTCache_Texture@@@std@@@std@@QAEXXZ ENDP ; std::vector<DXUTCache_Texture,std::allocator<DXUTCache_Texture> >::shrink_to_fit
_TEXT	ENDS
; Function compile flags: /Odtp /RTCsu
;	COMDAT ?cend@?$vector@UDXUTCache_Texture@@V?$allocator@UDXUTCache_Texture@@@std@@@std@@QBE?AV?$_Vector_const_iterator@V?$_Vector_val@U?$_Simple_types@UDXUTCache_Texture@@@std@@@std@@@2@XZ
_TEXT	SEGMENT
_this$ = -4						; size = 4
___$ReturnUdt$ = 8					; size = 4
?cend@?$vector@UDXUTCache_Texture@@V?$allocator@UDXUTCache_Texture@@@std@@@std@@QBE?AV?$_Vector_const_iterator@V?$_Vector_val@U?$_Simple_types@UDXUTCache_Texture@@@std@@@std@@@2@XZ PROC ; std::vector<DXUTCache_Texture,std::allocator<DXUTCache_Texture> >::cend, COMDAT
; _this$ = ecx
; File c:\program files (x86)\microsoft visual studio 12.0\vc\include\vector
; Line 1074
  00000	55		 push	 ebp
  00001	8b ec		 mov	 ebp, esp
  00003	51		 push	 ecx
  00004	c7 45 fc cc cc
	cc cc		 mov	 DWORD PTR [ebp-4], -858993460 ; ccccccccH
  0000b	89 4d fc	 mov	 DWORD PTR _this$[ebp], ecx
; Line 1075
  0000e	8b 45 08	 mov	 eax, DWORD PTR ___$ReturnUdt$[ebp]
  00011	50		 push	 eax
  00012	8b 4d fc	 mov	 ecx, DWORD PTR _this$[ebp]
  00015	e8 00 00 00 00	 call	 ?end@?$vector@UDXUTCache_Texture@@V?$allocator@UDXUTCache_Texture@@@std@@@std@@QBE?AV?$_Vector_const_iterator@V?$_Vector_val@U?$_Simple_types@UDXUTCache_Texture@@@std@@@std@@@2@XZ ; std::vector<DXUTCache_Texture,std::allocator<DXUTCache_Texture> >::end
  0001a	8b 45 08	 mov	 eax, DWORD PTR ___$ReturnUdt$[ebp]
; Line 1076
  0001d	83 c4 04	 add	 esp, 4
  00020	3b ec		 cmp	 ebp, esp
  00022	e8 00 00 00 00	 call	 __RTC_CheckEsp
  00027	8b e5		 mov	 esp, ebp
  00029	5d		 pop	 ebp
  0002a	c2 04 00	 ret	 4
?cend@?$vector@UDXUTCache_Texture@@V?$allocator@UDXUTCache_Texture@@@std@@@std@@QBE?AV?$_Vector_const_iterator@V?$_Vector_val@U?$_Simple_types@UDXUTCache_Texture@@@std@@@std@@@2@XZ ENDP ; std::vector<DXUTCache_Texture,std::allocator<DXUTCache_Texture> >::cend
_TEXT	ENDS
; Function compile flags: /Odtp /RTCsu
;	COMDAT ?cbegin@?$vector@UDXUTCache_Texture@@V?$allocator@UDXUTCache_Texture@@@std@@@std@@QBE?AV?$_Vector_const_iterator@V?$_Vector_val@U?$_Simple_types@UDXUTCache_Texture@@@std@@@std@@@2@XZ
_TEXT	SEGMENT
_this$ = -4						; size = 4
___$ReturnUdt$ = 8					; size = 4
?cbegin@?$vector@UDXUTCache_Texture@@V?$allocator@UDXUTCache_Texture@@@std@@@std@@QBE?AV?$_Vector_const_iterator@V?$_Vector_val@U?$_Simple_types@UDXUTCache_Texture@@@std@@@std@@@2@XZ PROC ; std::vector<DXUTCache_Texture,std::allocator<DXUTCache_Texture> >::cbegin, COMDAT
; _this$ = ecx
; File c:\program files (x86)\microsoft visual studio 12.0\vc\include\vector
; Line 1069
  00000	55		 push	 ebp
  00001	8b ec		 mov	 ebp, esp
  00003	51		 push	 ecx
  00004	c7 45 fc cc cc
	cc cc		 mov	 DWORD PTR [ebp-4], -858993460 ; ccccccccH
  0000b	89 4d fc	 mov	 DWORD PTR _this$[ebp], ecx
; Line 1070
  0000e	8b 45 08	 mov	 eax, DWORD PTR ___$ReturnUdt$[ebp]
  00011	50		 push	 eax
  00012	8b 4d fc	 mov	 ecx, DWORD PTR _this$[ebp]
  00015	e8 00 00 00 00	 call	 ?begin@?$vector@UDXUTCache_Texture@@V?$allocator@UDXUTCache_Texture@@@std@@@std@@QBE?AV?$_Vector_const_iterator@V?$_Vector_val@U?$_Simple_types@UDXUTCache_Texture@@@std@@@std@@@2@XZ ; std::vector<DXUTCache_Texture,std::allocator<DXUTCache_Texture> >::begin
  0001a	8b 45 08	 mov	 eax, DWORD PTR ___$ReturnUdt$[ebp]
; Line 1071
  0001d	83 c4 04	 add	 esp, 4
  00020	3b ec		 cmp	 ebp, esp
  00022	e8 00 00 00 00	 call	 __RTC_CheckEsp
  00027	8b e5		 mov	 esp, ebp
  00029	5d		 pop	 ebp
  0002a	c2 04 00	 ret	 4
?cbegin@?$vector@UDXUTCache_Texture@@V?$allocator@UDXUTCache_Texture@@@std@@@std@@QBE?AV?$_Vector_const_iterator@V?$_Vector_val@U?$_Simple_types@UDXUTCache_Texture@@@std@@@std@@@2@XZ ENDP ; std::vector<DXUTCache_Texture,std::allocator<DXUTCache_Texture> >::cbegin
_TEXT	ENDS
; Function compile flags: /Odtp /RTCsu
;	COMDAT ?end@?$vector@UDXUTCache_Texture@@V?$allocator@UDXUTCache_Texture@@@std@@@std@@QBE?AV?$_Vector_const_iterator@V?$_Vector_val@U?$_Simple_types@UDXUTCache_Texture@@@std@@@std@@@2@XZ
_TEXT	SEGMENT
_this$ = -4						; size = 4
___$ReturnUdt$ = 8					; size = 4
?end@?$vector@UDXUTCache_Texture@@V?$allocator@UDXUTCache_Texture@@@std@@@std@@QBE?AV?$_Vector_const_iterator@V?$_Vector_val@U?$_Simple_types@UDXUTCache_Texture@@@std@@@std@@@2@XZ PROC ; std::vector<DXUTCache_Texture,std::allocator<DXUTCache_Texture> >::end, COMDAT
; _this$ = ecx
; File c:\program files (x86)\microsoft visual studio 12.0\vc\include\vector
; Line 1039
  00000	55		 push	 ebp
  00001	8b ec		 mov	 ebp, esp
  00003	51		 push	 ecx
  00004	c7 45 fc cc cc
	cc cc		 mov	 DWORD PTR [ebp-4], -858993460 ; ccccccccH
  0000b	89 4d fc	 mov	 DWORD PTR _this$[ebp], ecx
; Line 1040
  0000e	8b 45 fc	 mov	 eax, DWORD PTR _this$[ebp]
  00011	50		 push	 eax
  00012	8b 4d fc	 mov	 ecx, DWORD PTR _this$[ebp]
  00015	8b 51 08	 mov	 edx, DWORD PTR [ecx+8]
  00018	52		 push	 edx
  00019	8b 4d 08	 mov	 ecx, DWORD PTR ___$ReturnUdt$[ebp]
  0001c	e8 00 00 00 00	 call	 ??0?$_Vector_const_iterator@V?$_Vector_val@U?$_Simple_types@UDXUTCache_Texture@@@std@@@std@@@std@@QAE@PAUDXUTCache_Texture@@PBU_Container_base12@1@@Z ; std::_Vector_const_iterator<std::_Vector_val<std::_Simple_types<DXUTCache_Texture> > >::_Vector_const_iterator<std::_Vector_val<std::_Simple_types<DXUTCache_Texture> > >
  00021	8b 45 08	 mov	 eax, DWORD PTR ___$ReturnUdt$[ebp]
; Line 1041
  00024	83 c4 04	 add	 esp, 4
  00027	3b ec		 cmp	 ebp, esp
  00029	e8 00 00 00 00	 call	 __RTC_CheckEsp
  0002e	8b e5		 mov	 esp, ebp
  00030	5d		 pop	 ebp
  00031	c2 04 00	 ret	 4
?end@?$vector@UDXUTCache_Texture@@V?$allocator@UDXUTCache_Texture@@@std@@@std@@QBE?AV?$_Vector_const_iterator@V?$_Vector_val@U?$_Simple_types@UDXUTCache_Texture@@@std@@@std@@@2@XZ ENDP ; std::vector<DXUTCache_Texture,std::allocator<DXUTCache_Texture> >::end
_TEXT	ENDS
; Function compile flags: /Odtp /RTCsu
;	COMDAT ?begin@?$vector@UDXUTCache_Texture@@V?$allocator@UDXUTCache_Texture@@@std@@@std@@QBE?AV?$_Vector_const_iterator@V?$_Vector_val@U?$_Simple_types@UDXUTCache_Texture@@@std@@@std@@@2@XZ
_TEXT	SEGMENT
_this$ = -4						; size = 4
___$ReturnUdt$ = 8					; size = 4
?begin@?$vector@UDXUTCache_Texture@@V?$allocator@UDXUTCache_Texture@@@std@@@std@@QBE?AV?$_Vector_const_iterator@V?$_Vector_val@U?$_Simple_types@UDXUTCache_Texture@@@std@@@std@@@2@XZ PROC ; std::vector<DXUTCache_Texture,std::allocator<DXUTCache_Texture> >::begin, COMDAT
; _this$ = ecx
; File c:\program files (x86)\microsoft visual studio 12.0\vc\include\vector
; Line 1029
  00000	55		 push	 ebp
  00001	8b ec		 mov	 ebp, esp
  00003	51		 push	 ecx
  00004	c7 45 fc cc cc
	cc cc		 mov	 DWORD PTR [ebp-4], -858993460 ; ccccccccH
  0000b	89 4d fc	 mov	 DWORD PTR _this$[ebp], ecx
; Line 1030
  0000e	8b 45 fc	 mov	 eax, DWORD PTR _this$[ebp]
  00011	50		 push	 eax
  00012	8b 4d fc	 mov	 ecx, DWORD PTR _this$[ebp]
  00015	8b 51 04	 mov	 edx, DWORD PTR [ecx+4]
  00018	52		 push	 edx
  00019	8b 4d 08	 mov	 ecx, DWORD PTR ___$ReturnUdt$[ebp]
  0001c	e8 00 00 00 00	 call	 ??0?$_Vector_const_iterator@V?$_Vector_val@U?$_Simple_types@UDXUTCache_Texture@@@std@@@std@@@std@@QAE@PAUDXUTCache_Texture@@PBU_Container_base12@1@@Z ; std::_Vector_const_iterator<std::_Vector_val<std::_Simple_types<DXUTCache_Texture> > >::_Vector_const_iterator<std::_Vector_val<std::_Simple_types<DXUTCache_Texture> > >
  00021	8b 45 08	 mov	 eax, DWORD PTR ___$ReturnUdt$[ebp]
; Line 1031
  00024	83 c4 04	 add	 esp, 4
  00027	3b ec		 cmp	 ebp, esp
  00029	e8 00 00 00 00	 call	 __RTC_CheckEsp
  0002e	8b e5		 mov	 esp, ebp
  00030	5d		 pop	 ebp
  00031	c2 04 00	 ret	 4
?begin@?$vector@UDXUTCache_Texture@@V?$allocator@UDXUTCache_Texture@@@std@@@std@@QBE?AV?$_Vector_const_iterator@V?$_Vector_val@U?$_Simple_types@UDXUTCache_Texture@@@std@@@std@@@2@XZ ENDP ; std::vector<DXUTCache_Texture,std::allocator<DXUTCache_Texture> >::begin
_TEXT	ENDS
; Function compile flags: /Odtp /RTCsu
;	COMDAT ?_Has_unused_capacity@?$vector@UDXUTCache_Texture@@V?$allocator@UDXUTCache_Texture@@@std@@@std@@QBEIXZ
_TEXT	SEGMENT
tv75 = -8						; size = 4
_this$ = -4						; size = 4
?_Has_unused_capacity@?$vector@UDXUTCache_Texture@@V?$allocator@UDXUTCache_Texture@@@std@@@std@@QBEIXZ PROC ; std::vector<DXUTCache_Texture,std::allocator<DXUTCache_Texture> >::_Has_unused_capacity, COMDAT
; _this$ = ecx
; File c:\program files (x86)\microsoft visual studio 12.0\vc\include\vector
; Line 1019
  00000	55		 push	 ebp
  00001	8b ec		 mov	 ebp, esp
  00003	83 ec 08	 sub	 esp, 8
  00006	c7 45 f8 cc cc
	cc cc		 mov	 DWORD PTR [ebp-8], -858993460 ; ccccccccH
  0000d	c7 45 fc cc cc
	cc cc		 mov	 DWORD PTR [ebp-4], -858993460 ; ccccccccH
  00014	89 4d fc	 mov	 DWORD PTR _this$[ebp], ecx
; Line 1020
  00017	8b 45 fc	 mov	 eax, DWORD PTR _this$[ebp]
  0001a	8b 4d fc	 mov	 ecx, DWORD PTR _this$[ebp]
  0001d	8b 50 0c	 mov	 edx, DWORD PTR [eax+12]
  00020	3b 51 08	 cmp	 edx, DWORD PTR [ecx+8]
  00023	74 09		 je	 SHORT $LN3@Has_unused
  00025	c7 45 f8 01 00
	00 00		 mov	 DWORD PTR tv75[ebp], 1
  0002c	eb 07		 jmp	 SHORT $LN4@Has_unused
$LN3@Has_unused:
  0002e	c7 45 f8 00 00
	00 00		 mov	 DWORD PTR tv75[ebp], 0
$LN4@Has_unused:
  00035	8b 45 f8	 mov	 eax, DWORD PTR tv75[ebp]
; Line 1021
  00038	8b e5		 mov	 esp, ebp
  0003a	5d		 pop	 ebp
  0003b	c3		 ret	 0
?_Has_unused_capacity@?$vector@UDXUTCache_Texture@@V?$allocator@UDXUTCache_Texture@@@std@@@std@@QBEIXZ ENDP ; std::vector<DXUTCache_Texture,std::allocator<DXUTCache_Texture> >::_Has_unused_capacity
_TEXT	ENDS
; Function compile flags: /Odtp /RTCsu
;	COMDAT ?_Unused_capacity@?$vector@UDXUTCache_Texture@@V?$allocator@UDXUTCache_Texture@@@std@@@std@@QBEIXZ
_TEXT	SEGMENT
_this$ = -4						; size = 4
?_Unused_capacity@?$vector@UDXUTCache_Texture@@V?$allocator@UDXUTCache_Texture@@@std@@@std@@QBEIXZ PROC ; std::vector<DXUTCache_Texture,std::allocator<DXUTCache_Texture> >::_Unused_capacity, COMDAT
; _this$ = ecx
; File c:\program files (x86)\microsoft visual studio 12.0\vc\include\vector
; Line 1014
  00000	55		 push	 ebp
  00001	8b ec		 mov	 ebp, esp
  00003	51		 push	 ecx
  00004	c7 45 fc cc cc
	cc cc		 mov	 DWORD PTR [ebp-4], -858993460 ; ccccccccH
  0000b	89 4d fc	 mov	 DWORD PTR _this$[ebp], ecx
; Line 1015
  0000e	8b 45 fc	 mov	 eax, DWORD PTR _this$[ebp]
  00011	8b 4d fc	 mov	 ecx, DWORD PTR _this$[ebp]
  00014	8b 40 0c	 mov	 eax, DWORD PTR [eax+12]
  00017	2b 41 08	 sub	 eax, DWORD PTR [ecx+8]
  0001a	99		 cdq
  0001b	b9 10 02 00 00	 mov	 ecx, 528		; 00000210H
  00020	f7 f9		 idiv	 ecx
; Line 1016
  00022	8b e5		 mov	 esp, ebp
  00024	5d		 pop	 ebp
  00025	c3		 ret	 0
?_Unused_capacity@?$vector@UDXUTCache_Texture@@V?$allocator@UDXUTCache_Texture@@@std@@@std@@QBEIXZ ENDP ; std::vector<DXUTCache_Texture,std::allocator<DXUTCache_Texture> >::_Unused_capacity
_TEXT	ENDS
; Function compile flags: /Odtp /RTCsu
;	COMDAT ?capacity@?$vector@UDXUTCache_Texture@@V?$allocator@UDXUTCache_Texture@@@std@@@std@@QBEIXZ
_TEXT	SEGMENT
_this$ = -4						; size = 4
?capacity@?$vector@UDXUTCache_Texture@@V?$allocator@UDXUTCache_Texture@@@std@@@std@@QBEIXZ PROC ; std::vector<DXUTCache_Texture,std::allocator<DXUTCache_Texture> >::capacity, COMDAT
; _this$ = ecx
; File c:\program files (x86)\microsoft visual studio 12.0\vc\include\vector
; Line 1009
  00000	55		 push	 ebp
  00001	8b ec		 mov	 ebp, esp
  00003	51		 push	 ecx
  00004	c7 45 fc cc cc
	cc cc		 mov	 DWORD PTR [ebp-4], -858993460 ; ccccccccH
  0000b	89 4d fc	 mov	 DWORD PTR _this$[ebp], ecx
; Line 1010
  0000e	8b 45 fc	 mov	 eax, DWORD PTR _this$[ebp]
  00011	8b 4d fc	 mov	 ecx, DWORD PTR _this$[ebp]
  00014	8b 40 0c	 mov	 eax, DWORD PTR [eax+12]
  00017	2b 41 04	 sub	 eax, DWORD PTR [ecx+4]
  0001a	99		 cdq
  0001b	b9 10 02 00 00	 mov	 ecx, 528		; 00000210H
  00020	f7 f9		 idiv	 ecx
; Line 1011
  00022	8b e5		 mov	 esp, ebp
  00024	5d		 pop	 ebp
  00025	c3		 ret	 0
?capacity@?$vector@UDXUTCache_Texture@@V?$allocator@UDXUTCache_Texture@@@std@@@std@@QBEIXZ ENDP ; std::vector<DXUTCache_Texture,std::allocator<DXUTCache_Texture> >::capacity
_TEXT	ENDS
; Function compile flags: /Odtp /RTCsu
;	COMDAT ??1?$vector@UDXUTCache_Texture@@V?$allocator@UDXUTCache_Texture@@@std@@@std@@QAE@XZ
_TEXT	SEGMENT
_this$ = -4						; size = 4
??1?$vector@UDXUTCache_Texture@@V?$allocator@UDXUTCache_Texture@@@std@@@std@@QAE@XZ PROC ; std::vector<DXUTCache_Texture,std::allocator<DXUTCache_Texture> >::~vector<DXUTCache_Texture,std::allocator<DXUTCache_Texture> >, COMDAT
; _this$ = ecx
; File c:\program files (x86)\microsoft visual studio 12.0\vc\include\vector
; Line 944
  00000	55		 push	 ebp
  00001	8b ec		 mov	 ebp, esp
  00003	51		 push	 ecx
  00004	c7 45 fc cc cc
	cc cc		 mov	 DWORD PTR [ebp-4], -858993460 ; ccccccccH
  0000b	89 4d fc	 mov	 DWORD PTR _this$[ebp], ecx
; Line 945
  0000e	8b 4d fc	 mov	 ecx, DWORD PTR _this$[ebp]
  00011	e8 00 00 00 00	 call	 ?_Tidy@?$vector@UDXUTCache_Texture@@V?$allocator@UDXUTCache_Texture@@@std@@@std@@IAEXXZ ; std::vector<DXUTCache_Texture,std::allocator<DXUTCache_Texture> >::_Tidy
; Line 946
  00016	8b 4d fc	 mov	 ecx, DWORD PTR _this$[ebp]
  00019	e8 00 00 00 00	 call	 ??1?$_Vector_alloc@$0A@U?$_Vec_base_types@UDXUTCache_Texture@@V?$allocator@UDXUTCache_Texture@@@std@@@std@@@std@@QAE@XZ ; std::_Vector_alloc<0,std::_Vec_base_types<DXUTCache_Texture,std::allocator<DXUTCache_Texture> > >::~_Vector_alloc<0,std::_Vec_base_types<DXUTCache_Texture,std::allocator<DXUTCache_Texture> > >
  0001e	83 c4 04	 add	 esp, 4
  00021	3b ec		 cmp	 ebp, esp
  00023	e8 00 00 00 00	 call	 __RTC_CheckEsp
  00028	8b e5		 mov	 esp, ebp
  0002a	5d		 pop	 ebp
  0002b	c3		 ret	 0
??1?$vector@UDXUTCache_Texture@@V?$allocator@UDXUTCache_Texture@@@std@@@std@@QAE@XZ ENDP ; std::vector<DXUTCache_Texture,std::allocator<DXUTCache_Texture> >::~vector<DXUTCache_Texture,std::allocator<DXUTCache_Texture> >
_TEXT	ENDS
; Function compile flags: /Odtp /RTCsu
;	COMDAT ??0?$vector@UDXUTCache_Texture@@V?$allocator@UDXUTCache_Texture@@@std@@@std@@QAE@XZ
_TEXT	SEGMENT
$T1 = -5						; size = 1
_this$ = -4						; size = 4
??0?$vector@UDXUTCache_Texture@@V?$allocator@UDXUTCache_Texture@@@std@@@std@@QAE@XZ PROC ; std::vector<DXUTCache_Texture,std::allocator<DXUTCache_Texture> >::vector<DXUTCache_Texture,std::allocator<DXUTCache_Texture> >, COMDAT
; _this$ = ecx
; File c:\program files (x86)\microsoft visual studio 12.0\vc\include\vector
; Line 680
  00000	55		 push	 ebp
  00001	8b ec		 mov	 ebp, esp
  00003	83 ec 08	 sub	 esp, 8
  00006	c7 45 f8 cc cc
	cc cc		 mov	 DWORD PTR [ebp-8], -858993460 ; ccccccccH
  0000d	c7 45 fc cc cc
	cc cc		 mov	 DWORD PTR [ebp-4], -858993460 ; ccccccccH
  00014	89 4d fc	 mov	 DWORD PTR _this$[ebp], ecx
  00017	8d 4d fb	 lea	 ecx, DWORD PTR $T1[ebp]
  0001a	e8 00 00 00 00	 call	 ??0?$allocator@UDXUTCache_Texture@@@std@@QAE@XZ ; std::allocator<DXUTCache_Texture>::allocator<DXUTCache_Texture>
  0001f	50		 push	 eax
  00020	8b 4d fc	 mov	 ecx, DWORD PTR _this$[ebp]
  00023	e8 00 00 00 00	 call	 ??0?$_Vector_alloc@$0A@U?$_Vec_base_types@UDXUTCache_Texture@@V?$allocator@UDXUTCache_Texture@@@std@@@std@@@std@@QAE@ABV?$allocator@UDXUTCache_Texture@@@1@@Z ; std::_Vector_alloc<0,std::_Vec_base_types<DXUTCache_Texture,std::allocator<DXUTCache_Texture> > >::_Vector_alloc<0,std::_Vec_base_types<DXUTCache_Texture,std::allocator<DXUTCache_Texture> > >
; Line 681
  00028	8b 45 fc	 mov	 eax, DWORD PTR _this$[ebp]
  0002b	83 c4 08	 add	 esp, 8
  0002e	3b ec		 cmp	 ebp, esp
  00030	e8 00 00 00 00	 call	 __RTC_CheckEsp
  00035	8b e5		 mov	 esp, ebp
  00037	5d		 pop	 ebp
  00038	c3		 ret	 0
??0?$vector@UDXUTCache_Texture@@V?$allocator@UDXUTCache_Texture@@@std@@@std@@QAE@XZ ENDP ; std::vector<DXUTCache_Texture,std::allocator<DXUTCache_Texture> >::vector<DXUTCache_Texture,std::allocator<DXUTCache_Texture> >
_TEXT	ENDS
; Function compile flags: /Odtp /RTCsu
;	COMDAT ?_Getal@?$_Vector_alloc@$0A@U?$_Vec_base_types@UDXUTCache_Texture@@V?$allocator@UDXUTCache_Texture@@@std@@@std@@@std@@QBE?AU?$_Wrap_alloc@V?$allocator@UDXUTCache_Texture@@@std@@@2@XZ
_TEXT	SEGMENT
_this$ = -4						; size = 4
___$ReturnUdt$ = 8					; size = 4
?_Getal@?$_Vector_alloc@$0A@U?$_Vec_base_types@UDXUTCache_Texture@@V?$allocator@UDXUTCache_Texture@@@std@@@std@@@std@@QBE?AU?$_Wrap_alloc@V?$allocator@UDXUTCache_Texture@@@std@@@2@XZ PROC ; std::_Vector_alloc<0,std::_Vec_base_types<DXUTCache_Texture,std::allocator<DXUTCache_Texture> > >::_Getal, COMDAT
; _this$ = ecx
; File c:\program files (x86)\microsoft visual studio 12.0\vc\include\vector
; Line 641
  00000	55		 push	 ebp
  00001	8b ec		 mov	 ebp, esp
  00003	51		 push	 ecx
  00004	c7 45 fc cc cc
	cc cc		 mov	 DWORD PTR [ebp-4], -858993460 ; ccccccccH
  0000b	89 4d fc	 mov	 DWORD PTR _this$[ebp], ecx
; Line 642
  0000e	8b 4d 08	 mov	 ecx, DWORD PTR ___$ReturnUdt$[ebp]
  00011	e8 00 00 00 00	 call	 ??0?$_Wrap_alloc@V?$allocator@UDXUTCache_Texture@@@std@@@std@@QAE@XZ ; std::_Wrap_alloc<std::allocator<DXUTCache_Texture> >::_Wrap_alloc<std::allocator<DXUTCache_Texture> >
  00016	8b 45 08	 mov	 eax, DWORD PTR ___$ReturnUdt$[ebp]
; Line 643
  00019	83 c4 04	 add	 esp, 4
  0001c	3b ec		 cmp	 ebp, esp
  0001e	e8 00 00 00 00	 call	 __RTC_CheckEsp
  00023	8b e5		 mov	 esp, ebp
  00025	5d		 pop	 ebp
  00026	c2 04 00	 ret	 4
?_Getal@?$_Vector_alloc@$0A@U?$_Vec_base_types@UDXUTCache_Texture@@V?$allocator@UDXUTCache_Texture@@@std@@@std@@@std@@QBE?AU?$_Wrap_alloc@V?$allocator@UDXUTCache_Texture@@@std@@@2@XZ ENDP ; std::_Vector_alloc<0,std::_Vec_base_types<DXUTCache_Texture,std::allocator<DXUTCache_Texture> > >::_Getal
_TEXT	ENDS
; Function compile flags: /Odtp /RTCsu
;	COMDAT ?_Free_proxy@?$_Vector_alloc@$0A@U?$_Vec_base_types@UDXUTCache_Texture@@V?$allocator@UDXUTCache_Texture@@@std@@@std@@@std@@QAEXXZ
_TEXT	SEGMENT
__Alproxy$ = -9						; size = 1
_this$ = -4						; size = 4
?_Free_proxy@?$_Vector_alloc@$0A@U?$_Vec_base_types@UDXUTCache_Texture@@V?$allocator@UDXUTCache_Texture@@@std@@@std@@@std@@QAEXXZ PROC ; std::_Vector_alloc<0,std::_Vec_base_types<DXUTCache_Texture,std::allocator<DXUTCache_Texture> > >::_Free_proxy, COMDAT
; _this$ = ecx
; File c:\program files (x86)\microsoft visual studio 12.0\vc\include\vector
; Line 630
  00000	55		 push	 ebp
  00001	8b ec		 mov	 ebp, esp
  00003	83 ec 10	 sub	 esp, 16			; 00000010H
  00006	56		 push	 esi
  00007	b8 cc cc cc cc	 mov	 eax, -858993460		; ccccccccH
  0000c	89 45 f0	 mov	 DWORD PTR [ebp-16], eax
  0000f	89 45 f4	 mov	 DWORD PTR [ebp-12], eax
  00012	89 45 f8	 mov	 DWORD PTR [ebp-8], eax
  00015	89 45 fc	 mov	 DWORD PTR [ebp-4], eax
  00018	89 4d fc	 mov	 DWORD PTR _this$[ebp], ecx
; Line 632
  0001b	8d 4d f7	 lea	 ecx, DWORD PTR __Alproxy$[ebp]
  0001e	e8 00 00 00 00	 call	 ??0?$_Wrap_alloc@V?$allocator@U_Container_proxy@std@@@std@@@std@@QAE@XZ ; std::_Wrap_alloc<std::allocator<std::_Container_proxy> >::_Wrap_alloc<std::allocator<std::_Container_proxy> >
; Line 633
  00023	8b f4		 mov	 esi, esp
  00025	8b 4d fc	 mov	 ecx, DWORD PTR _this$[ebp]
  00028	ff 15 00 00 00
	00		 call	 DWORD PTR __imp_?_Orphan_all@_Container_base12@std@@QAEXXZ
  0002e	3b f4		 cmp	 esi, esp
  00030	e8 00 00 00 00	 call	 __RTC_CheckEsp
; Line 634
  00035	8b 45 fc	 mov	 eax, DWORD PTR _this$[ebp]
  00038	8b 08		 mov	 ecx, DWORD PTR [eax]
  0003a	51		 push	 ecx
  0003b	8d 4d f7	 lea	 ecx, DWORD PTR __Alproxy$[ebp]
  0003e	e8 00 00 00 00	 call	 ??$destroy@U_Container_proxy@std@@@?$_Wrap_alloc@V?$allocator@U_Container_proxy@std@@@std@@@std@@QAEXPAU_Container_proxy@1@@Z ; std::_Wrap_alloc<std::allocator<std::_Container_proxy> >::destroy<std::_Container_proxy>
; Line 635
  00043	6a 01		 push	 1
  00045	8b 55 fc	 mov	 edx, DWORD PTR _this$[ebp]
  00048	8b 02		 mov	 eax, DWORD PTR [edx]
  0004a	50		 push	 eax
  0004b	8d 4d f7	 lea	 ecx, DWORD PTR __Alproxy$[ebp]
  0004e	e8 00 00 00 00	 call	 ?deallocate@?$_Wrap_alloc@V?$allocator@U_Container_proxy@std@@@std@@@std@@QAEXPAU_Container_proxy@2@I@Z ; std::_Wrap_alloc<std::allocator<std::_Container_proxy> >::deallocate
; Line 636
  00053	8b 4d fc	 mov	 ecx, DWORD PTR _this$[ebp]
  00056	c7 01 00 00 00
	00		 mov	 DWORD PTR [ecx], 0
; Line 637
  0005c	52		 push	 edx
  0005d	8b cd		 mov	 ecx, ebp
  0005f	50		 push	 eax
  00060	8d 15 00 00 00
	00		 lea	 edx, DWORD PTR $LN5@Free_proxy
  00066	e8 00 00 00 00	 call	 @_RTC_CheckStackVars@8
  0006b	58		 pop	 eax
  0006c	5a		 pop	 edx
  0006d	5e		 pop	 esi
  0006e	83 c4 10	 add	 esp, 16			; 00000010H
  00071	3b ec		 cmp	 ebp, esp
  00073	e8 00 00 00 00	 call	 __RTC_CheckEsp
  00078	8b e5		 mov	 esp, ebp
  0007a	5d		 pop	 ebp
  0007b	c3		 ret	 0
$LN5@Free_proxy:
  0007c	01 00 00 00	 DD	 1
  00080	00 00 00 00	 DD	 $LN4@Free_proxy
$LN4@Free_proxy:
  00084	f7 ff ff ff	 DD	 -9			; fffffff7H
  00088	01 00 00 00	 DD	 1
  0008c	00 00 00 00	 DD	 $LN3@Free_proxy
$LN3@Free_proxy:
  00090	5f		 DB	 95			; 0000005fH
  00091	41		 DB	 65			; 00000041H
  00092	6c		 DB	 108			; 0000006cH
  00093	70		 DB	 112			; 00000070H
  00094	72		 DB	 114			; 00000072H
  00095	6f		 DB	 111			; 0000006fH
  00096	78		 DB	 120			; 00000078H
  00097	79		 DB	 121			; 00000079H
  00098	00		 DB	 0
?_Free_proxy@?$_Vector_alloc@$0A@U?$_Vec_base_types@UDXUTCache_Texture@@V?$allocator@UDXUTCache_Texture@@@std@@@std@@@std@@QAEXXZ ENDP ; std::_Vector_alloc<0,std::_Vec_base_types<DXUTCache_Texture,std::allocator<DXUTCache_Texture> > >::_Free_proxy
_TEXT	ENDS
; Function compile flags: /Odtp /RTCsu
;	COMDAT ?_Alloc_proxy@?$_Vector_alloc@$0A@U?$_Vec_base_types@UDXUTCache_Texture@@V?$allocator@UDXUTCache_Texture@@@std@@@std@@@std@@QAEXXZ
_TEXT	SEGMENT
$T1 = -24						; size = 8
__Alproxy$ = -9						; size = 1
_this$ = -4						; size = 4
?_Alloc_proxy@?$_Vector_alloc@$0A@U?$_Vec_base_types@UDXUTCache_Texture@@V?$allocator@UDXUTCache_Texture@@@std@@@std@@@std@@QAEXXZ PROC ; std::_Vector_alloc<0,std::_Vec_base_types<DXUTCache_Texture,std::allocator<DXUTCache_Texture> > >::_Alloc_proxy, COMDAT
; _this$ = ecx
; File c:\program files (x86)\microsoft visual studio 12.0\vc\include\vector
; Line 621
  00000	55		 push	 ebp
  00001	8b ec		 mov	 ebp, esp
  00003	83 ec 18	 sub	 esp, 24			; 00000018H
  00006	b8 cc cc cc cc	 mov	 eax, -858993460		; ccccccccH
  0000b	89 45 e8	 mov	 DWORD PTR [ebp-24], eax
  0000e	89 45 ec	 mov	 DWORD PTR [ebp-20], eax
  00011	89 45 f0	 mov	 DWORD PTR [ebp-16], eax
  00014	89 45 f4	 mov	 DWORD PTR [ebp-12], eax
  00017	89 45 f8	 mov	 DWORD PTR [ebp-8], eax
  0001a	89 45 fc	 mov	 DWORD PTR [ebp-4], eax
  0001d	89 4d fc	 mov	 DWORD PTR _this$[ebp], ecx
; Line 623
  00020	8d 4d f7	 lea	 ecx, DWORD PTR __Alproxy$[ebp]
  00023	e8 00 00 00 00	 call	 ??0?$_Wrap_alloc@V?$allocator@U_Container_proxy@std@@@std@@@std@@QAE@XZ ; std::_Wrap_alloc<std::allocator<std::_Container_proxy> >::_Wrap_alloc<std::allocator<std::_Container_proxy> >
; Line 624
  00028	6a 01		 push	 1
  0002a	8d 4d f7	 lea	 ecx, DWORD PTR __Alproxy$[ebp]
  0002d	e8 00 00 00 00	 call	 ?allocate@?$_Wrap_alloc@V?$allocator@U_Container_proxy@std@@@std@@@std@@QAEPAU_Container_proxy@2@I@Z ; std::_Wrap_alloc<std::allocator<std::_Container_proxy> >::allocate
  00032	8b 4d fc	 mov	 ecx, DWORD PTR _this$[ebp]
  00035	89 01		 mov	 DWORD PTR [ecx], eax
; Line 625
  00037	8d 4d e8	 lea	 ecx, DWORD PTR $T1[ebp]
  0003a	e8 00 00 00 00	 call	 ??0_Container_proxy@std@@QAE@XZ ; std::_Container_proxy::_Container_proxy
  0003f	50		 push	 eax
  00040	8b 55 fc	 mov	 edx, DWORD PTR _this$[ebp]
  00043	8b 02		 mov	 eax, DWORD PTR [edx]
  00045	50		 push	 eax
  00046	8d 4d f7	 lea	 ecx, DWORD PTR __Alproxy$[ebp]
  00049	e8 00 00 00 00	 call	 ??$construct@U_Container_proxy@std@@U12@@?$_Wrap_alloc@V?$allocator@U_Container_proxy@std@@@std@@@std@@QAEXPAU_Container_proxy@1@$$QAU21@@Z ; std::_Wrap_alloc<std::allocator<std::_Container_proxy> >::construct<std::_Container_proxy,std::_Container_proxy>
; Line 626
  0004e	8b 4d fc	 mov	 ecx, DWORD PTR _this$[ebp]
  00051	8b 11		 mov	 edx, DWORD PTR [ecx]
  00053	8b 45 fc	 mov	 eax, DWORD PTR _this$[ebp]
  00056	89 02		 mov	 DWORD PTR [edx], eax
; Line 627
  00058	52		 push	 edx
  00059	8b cd		 mov	 ecx, ebp
  0005b	50		 push	 eax
  0005c	8d 15 00 00 00
	00		 lea	 edx, DWORD PTR $LN5@Alloc_prox
  00062	e8 00 00 00 00	 call	 @_RTC_CheckStackVars@8
  00067	58		 pop	 eax
  00068	5a		 pop	 edx
  00069	83 c4 18	 add	 esp, 24			; 00000018H
  0006c	3b ec		 cmp	 ebp, esp
  0006e	e8 00 00 00 00	 call	 __RTC_CheckEsp
  00073	8b e5		 mov	 esp, ebp
  00075	5d		 pop	 ebp
  00076	c3		 ret	 0
  00077	90		 npad	 1
$LN5@Alloc_prox:
  00078	01 00 00 00	 DD	 1
  0007c	00 00 00 00	 DD	 $LN4@Alloc_prox
$LN4@Alloc_prox:
  00080	f7 ff ff ff	 DD	 -9			; fffffff7H
  00084	01 00 00 00	 DD	 1
  00088	00 00 00 00	 DD	 $LN3@Alloc_prox
$LN3@Alloc_prox:
  0008c	5f		 DB	 95			; 0000005fH
  0008d	41		 DB	 65			; 00000041H
  0008e	6c		 DB	 108			; 0000006cH
  0008f	70		 DB	 112			; 00000070H
  00090	72		 DB	 114			; 00000072H
  00091	6f		 DB	 111			; 0000006fH
  00092	78		 DB	 120			; 00000078H
  00093	79		 DB	 121			; 00000079H
  00094	00		 DB	 0
?_Alloc_proxy@?$_Vector_alloc@$0A@U?$_Vec_base_types@UDXUTCache_Texture@@V?$allocator@UDXUTCache_Texture@@@std@@@std@@@std@@QAEXXZ ENDP ; std::_Vector_alloc<0,std::_Vec_base_types<DXUTCache_Texture,std::allocator<DXUTCache_Texture> > >::_Alloc_proxy
_TEXT	ENDS
; Function compile flags: /Odtp /RTCsu
;	COMDAT ??1?$_Vector_alloc@$0A@U?$_Vec_base_types@UDXUTCache_Texture@@V?$allocator@UDXUTCache_Texture@@@std@@@std@@@std@@QAE@XZ
_TEXT	SEGMENT
_this$ = -4						; size = 4
??1?$_Vector_alloc@$0A@U?$_Vec_base_types@UDXUTCache_Texture@@V?$allocator@UDXUTCache_Texture@@@std@@@std@@@std@@QAE@XZ PROC ; std::_Vector_alloc<0,std::_Vec_base_types<DXUTCache_Texture,std::allocator<DXUTCache_Texture> > >::~_Vector_alloc<0,std::_Vec_base_types<DXUTCache_Texture,std::allocator<DXUTCache_Texture> > >, COMDAT
; _this$ = ecx
; File c:\program files (x86)\microsoft visual studio 12.0\vc\include\vector
; Line 607
  00000	55		 push	 ebp
  00001	8b ec		 mov	 ebp, esp
  00003	51		 push	 ecx
  00004	c7 45 fc cc cc
	cc cc		 mov	 DWORD PTR [ebp-4], -858993460 ; ccccccccH
  0000b	89 4d fc	 mov	 DWORD PTR _this$[ebp], ecx
; Line 608
  0000e	8b 4d fc	 mov	 ecx, DWORD PTR _this$[ebp]
  00011	e8 00 00 00 00	 call	 ?_Free_proxy@?$_Vector_alloc@$0A@U?$_Vec_base_types@UDXUTCache_Texture@@V?$allocator@UDXUTCache_Texture@@@std@@@std@@@std@@QAEXXZ ; std::_Vector_alloc<0,std::_Vec_base_types<DXUTCache_Texture,std::allocator<DXUTCache_Texture> > >::_Free_proxy
; Line 609
  00016	8b 4d fc	 mov	 ecx, DWORD PTR _this$[ebp]
  00019	e8 00 00 00 00	 call	 ??1?$_Vector_val@U?$_Simple_types@UDXUTCache_Texture@@@std@@@std@@QAE@XZ
  0001e	83 c4 04	 add	 esp, 4
  00021	3b ec		 cmp	 ebp, esp
  00023	e8 00 00 00 00	 call	 __RTC_CheckEsp
  00028	8b e5		 mov	 esp, ebp
  0002a	5d		 pop	 ebp
  0002b	c3		 ret	 0
??1?$_Vector_alloc@$0A@U?$_Vec_base_types@UDXUTCache_Texture@@V?$allocator@UDXUTCache_Texture@@@std@@@std@@@std@@QAE@XZ ENDP ; std::_Vector_alloc<0,std::_Vec_base_types<DXUTCache_Texture,std::allocator<DXUTCache_Texture> > >::~_Vector_alloc<0,std::_Vec_base_types<DXUTCache_Texture,std::allocator<DXUTCache_Texture> > >
_TEXT	ENDS
; Function compile flags: /Odtp /RTCsu
;	COMDAT ??0?$_Vector_alloc@$0A@U?$_Vec_base_types@UDXUTCache_Texture@@V?$allocator@UDXUTCache_Texture@@@std@@@std@@@std@@QAE@ABV?$allocator@UDXUTCache_Texture@@@1@@Z
_TEXT	SEGMENT
_this$ = -16						; size = 4
__$EHRec$ = -12						; size = 12
___formal$ = 8						; size = 4
??0?$_Vector_alloc@$0A@U?$_Vec_base_types@UDXUTCache_Texture@@V?$allocator@UDXUTCache_Texture@@@std@@@std@@@std@@QAE@ABV?$allocator@UDXUTCache_Texture@@@1@@Z PROC ; std::_Vector_alloc<0,std::_Vec_base_types<DXUTCache_Texture,std::allocator<DXUTCache_Texture> > >::_Vector_alloc<0,std::_Vec_base_types<DXUTCache_Texture,std::allocator<DXUTCache_Texture> > >, COMDAT
; _this$ = ecx
; File c:\program files (x86)\microsoft visual studio 12.0\vc\include\vector
; Line 601
  00000	55		 push	 ebp
  00001	8b ec		 mov	 ebp, esp
  00003	6a ff		 push	 -1
  00005	68 00 00 00 00	 push	 __ehhandler$??0?$_Vector_alloc@$0A@U?$_Vec_base_types@UDXUTCache_Texture@@V?$allocator@UDXUTCache_Texture@@@std@@@std@@@std@@QAE@ABV?$allocator@UDXUTCache_Texture@@@1@@Z
  0000a	64 a1 00 00 00
	00		 mov	 eax, DWORD PTR fs:0
  00010	50		 push	 eax
  00011	51		 push	 ecx
  00012	c7 45 f0 cc cc
	cc cc		 mov	 DWORD PTR [ebp-16], -858993460 ; ccccccccH
  00019	a1 00 00 00 00	 mov	 eax, DWORD PTR ___security_cookie
  0001e	33 c5		 xor	 eax, ebp
  00020	50		 push	 eax
  00021	8d 45 f4	 lea	 eax, DWORD PTR __$EHRec$[ebp]
  00024	64 a3 00 00 00
	00		 mov	 DWORD PTR fs:0, eax
  0002a	89 4d f0	 mov	 DWORD PTR _this$[ebp], ecx
  0002d	8b 4d f0	 mov	 ecx, DWORD PTR _this$[ebp]
  00030	e8 00 00 00 00	 call	 ??0?$_Vector_val@U?$_Simple_types@UDXUTCache_Texture@@@std@@@std@@QAE@XZ ; std::_Vector_val<std::_Simple_types<DXUTCache_Texture> >::_Vector_val<std::_Simple_types<DXUTCache_Texture> >
  00035	c7 45 fc 00 00
	00 00		 mov	 DWORD PTR __$EHRec$[ebp+8], 0
; Line 603
  0003c	8b 4d f0	 mov	 ecx, DWORD PTR _this$[ebp]
  0003f	e8 00 00 00 00	 call	 ?_Alloc_proxy@?$_Vector_alloc@$0A@U?$_Vec_base_types@UDXUTCache_Texture@@V?$allocator@UDXUTCache_Texture@@@std@@@std@@@std@@QAEXXZ ; std::_Vector_alloc<0,std::_Vec_base_types<DXUTCache_Texture,std::allocator<DXUTCache_Texture> > >::_Alloc_proxy
; Line 604
  00044	c7 45 fc ff ff
	ff ff		 mov	 DWORD PTR __$EHRec$[ebp+8], -1
  0004b	8b 45 f0	 mov	 eax, DWORD PTR _this$[ebp]
  0004e	8b 4d f4	 mov	 ecx, DWORD PTR __$EHRec$[ebp]
  00051	64 89 0d 00 00
	00 00		 mov	 DWORD PTR fs:0, ecx
  00058	59		 pop	 ecx
  00059	83 c4 10	 add	 esp, 16			; 00000010H
  0005c	3b ec		 cmp	 ebp, esp
  0005e	e8 00 00 00 00	 call	 __RTC_CheckEsp
  00063	8b e5		 mov	 esp, ebp
  00065	5d		 pop	 ebp
  00066	c2 04 00	 ret	 4
_TEXT	ENDS
;	COMDAT text$x
text$x	SEGMENT
__unwindfunclet$??0?$_Vector_alloc@$0A@U?$_Vec_base_types@UDXUTCache_Texture@@V?$allocator@UDXUTCache_Texture@@@std@@@std@@@std@@QAE@ABV?$allocator@UDXUTCache_Texture@@@1@@Z$0:
  00000	8b 4d f0	 mov	 ecx, DWORD PTR _this$[ebp]
  00003	e9 00 00 00 00	 jmp	 ??1?$_Vector_val@U?$_Simple_types@UDXUTCache_Texture@@@std@@@std@@QAE@XZ
__ehhandler$??0?$_Vector_alloc@$0A@U?$_Vec_base_types@UDXUTCache_Texture@@V?$allocator@UDXUTCache_Texture@@@std@@@std@@@std@@QAE@ABV?$allocator@UDXUTCache_Texture@@@1@@Z:
  00008	8b 54 24 08	 mov	 edx, DWORD PTR [esp+8]
  0000c	8d 42 0c	 lea	 eax, DWORD PTR [edx+12]
  0000f	8b 4a f8	 mov	 ecx, DWORD PTR [edx-8]
  00012	33 c8		 xor	 ecx, eax
  00014	e8 00 00 00 00	 call	 @__security_check_cookie@4
  00019	b8 00 00 00 00	 mov	 eax, OFFSET __ehfuncinfo$??0?$_Vector_alloc@$0A@U?$_Vec_base_types@UDXUTCache_Texture@@V?$allocator@UDXUTCache_Texture@@@std@@@std@@@std@@QAE@ABV?$allocator@UDXUTCache_Texture@@@1@@Z
  0001e	e9 00 00 00 00	 jmp	 ___CxxFrameHandler3
text$x	ENDS
??0?$_Vector_alloc@$0A@U?$_Vec_base_types@UDXUTCache_Texture@@V?$allocator@UDXUTCache_Texture@@@std@@@std@@@std@@QAE@ABV?$allocator@UDXUTCache_Texture@@@1@@Z ENDP ; std::_Vector_alloc<0,std::_Vec_base_types<DXUTCache_Texture,std::allocator<DXUTCache_Texture> > >::_Vector_alloc<0,std::_Vec_base_types<DXUTCache_Texture,std::allocator<DXUTCache_Texture> > >
; Function compile flags: /Odtp /RTCsu
;	COMDAT ??1?$_Vector_val@U?$_Simple_types@UDXUTCache_Texture@@@std@@@std@@QAE@XZ
_TEXT	SEGMENT
_this$ = -4						; size = 4
??1?$_Vector_val@U?$_Simple_types@UDXUTCache_Texture@@@std@@@std@@QAE@XZ PROC ; std::_Vector_val<std::_Simple_types<DXUTCache_Texture> >::~_Vector_val<std::_Simple_types<DXUTCache_Texture> >, COMDAT
; _this$ = ecx
  00000	55		 push	 ebp
  00001	8b ec		 mov	 ebp, esp
  00003	51		 push	 ecx
  00004	56		 push	 esi
  00005	c7 45 fc cc cc
	cc cc		 mov	 DWORD PTR [ebp-4], -858993460 ; ccccccccH
  0000c	89 4d fc	 mov	 DWORD PTR _this$[ebp], ecx
  0000f	8b f4		 mov	 esi, esp
  00011	8b 4d fc	 mov	 ecx, DWORD PTR _this$[ebp]
  00014	ff 15 00 00 00
	00		 call	 DWORD PTR __imp_??1_Container_base12@std@@QAE@XZ
  0001a	3b f4		 cmp	 esi, esp
  0001c	e8 00 00 00 00	 call	 __RTC_CheckEsp
  00021	5e		 pop	 esi
  00022	83 c4 04	 add	 esp, 4
  00025	3b ec		 cmp	 ebp, esp
  00027	e8 00 00 00 00	 call	 __RTC_CheckEsp
  0002c	8b e5		 mov	 esp, ebp
  0002e	5d		 pop	 ebp
  0002f	c3		 ret	 0
??1?$_Vector_val@U?$_Simple_types@UDXUTCache_Texture@@@std@@@std@@QAE@XZ ENDP ; std::_Vector_val<std::_Simple_types<DXUTCache_Texture> >::~_Vector_val<std::_Simple_types<DXUTCache_Texture> >
_TEXT	ENDS
; Function compile flags: /Odtp /RTCsu
;	COMDAT ??0?$_Vector_val@U?$_Simple_types@UDXUTCache_Texture@@@std@@@std@@QAE@XZ
_TEXT	SEGMENT
_this$ = -4						; size = 4
??0?$_Vector_val@U?$_Simple_types@UDXUTCache_Texture@@@std@@@std@@QAE@XZ PROC ; std::_Vector_val<std::_Simple_types<DXUTCache_Texture> >::_Vector_val<std::_Simple_types<DXUTCache_Texture> >, COMDAT
; _this$ = ecx
; File c:\program files (x86)\microsoft visual studio 12.0\vc\include\vector
; Line 480
  00000	55		 push	 ebp
  00001	8b ec		 mov	 ebp, esp
  00003	51		 push	 ecx
  00004	56		 push	 esi
  00005	c7 45 fc cc cc
	cc cc		 mov	 DWORD PTR [ebp-4], -858993460 ; ccccccccH
  0000c	89 4d fc	 mov	 DWORD PTR _this$[ebp], ecx
  0000f	8b f4		 mov	 esi, esp
  00011	8b 4d fc	 mov	 ecx, DWORD PTR _this$[ebp]
  00014	ff 15 00 00 00
	00		 call	 DWORD PTR __imp_??0_Container_base12@std@@QAE@XZ
  0001a	3b f4		 cmp	 esi, esp
  0001c	e8 00 00 00 00	 call	 __RTC_CheckEsp
; Line 482
  00021	8b 45 fc	 mov	 eax, DWORD PTR _this$[ebp]
  00024	c7 40 04 00 00
	00 00		 mov	 DWORD PTR [eax+4], 0
; Line 483
  0002b	8b 4d fc	 mov	 ecx, DWORD PTR _this$[ebp]
  0002e	c7 41 08 00 00
	00 00		 mov	 DWORD PTR [ecx+8], 0
; Line 484
  00035	8b 55 fc	 mov	 edx, DWORD PTR _this$[ebp]
  00038	c7 42 0c 00 00
	00 00		 mov	 DWORD PTR [edx+12], 0
; Line 485
  0003f	8b 45 fc	 mov	 eax, DWORD PTR _this$[ebp]
  00042	5e		 pop	 esi
  00043	83 c4 04	 add	 esp, 4
  00046	3b ec		 cmp	 ebp, esp
  00048	e8 00 00 00 00	 call	 __RTC_CheckEsp
  0004d	8b e5		 mov	 esp, ebp
  0004f	5d		 pop	 ebp
  00050	c3		 ret	 0
??0?$_Vector_val@U?$_Simple_types@UDXUTCache_Texture@@@std@@@std@@QAE@XZ ENDP ; std::_Vector_val<std::_Simple_types<DXUTCache_Texture> >::_Vector_val<std::_Simple_types<DXUTCache_Texture> >
_TEXT	ENDS
; Function compile flags: /Odtp /RTCsu
;	COMDAT ?max_size@?$_Wrap_alloc@V?$allocator@UDXUTCache_Texture@@@std@@@std@@QBEIXZ
_TEXT	SEGMENT
_this$ = -4						; size = 4
?max_size@?$_Wrap_alloc@V?$allocator@UDXUTCache_Texture@@@std@@@std@@QBEIXZ PROC ; std::_Wrap_alloc<std::allocator<DXUTCache_Texture> >::max_size, COMDAT
; _this$ = ecx
; File c:\program files (x86)\microsoft visual studio 12.0\vc\include\xmemory0
; Line 883
  00000	55		 push	 ebp
  00001	8b ec		 mov	 ebp, esp
  00003	51		 push	 ecx
  00004	c7 45 fc cc cc
	cc cc		 mov	 DWORD PTR [ebp-4], -858993460 ; ccccccccH
  0000b	89 4d fc	 mov	 DWORD PTR _this$[ebp], ecx
; Line 884
  0000e	8b 45 fc	 mov	 eax, DWORD PTR _this$[ebp]
  00011	50		 push	 eax
  00012	e8 00 00 00 00	 call	 ?max_size@?$allocator_traits@V?$allocator@UDXUTCache_Texture@@@std@@@std@@SAIABV?$allocator@UDXUTCache_Texture@@@2@@Z ; std::allocator_traits<std::allocator<DXUTCache_Texture> >::max_size
  00017	83 c4 04	 add	 esp, 4
; Line 885
  0001a	83 c4 04	 add	 esp, 4
  0001d	3b ec		 cmp	 ebp, esp
  0001f	e8 00 00 00 00	 call	 __RTC_CheckEsp
  00024	8b e5		 mov	 esp, ebp
  00026	5d		 pop	 ebp
  00027	c3		 ret	 0
?max_size@?$_Wrap_alloc@V?$allocator@UDXUTCache_Texture@@@std@@@std@@QBEIXZ ENDP ; std::_Wrap_alloc<std::allocator<DXUTCache_Texture> >::max_size
_TEXT	ENDS
; Function compile flags: /Odtp /RTCsu
;	COMDAT ?deallocate@?$_Wrap_alloc@V?$allocator@UDXUTCache_Texture@@@std@@@std@@QAEXPAUDXUTCache_Texture@@I@Z
_TEXT	SEGMENT
_this$ = -4						; size = 4
__Ptr$ = 8						; size = 4
__Count$ = 12						; size = 4
?deallocate@?$_Wrap_alloc@V?$allocator@UDXUTCache_Texture@@@std@@@std@@QAEXPAUDXUTCache_Texture@@I@Z PROC ; std::_Wrap_alloc<std::allocator<DXUTCache_Texture> >::deallocate, COMDAT
; _this$ = ecx
; File c:\program files (x86)\microsoft visual studio 12.0\vc\include\xmemory0
; Line 857
  00000	55		 push	 ebp
  00001	8b ec		 mov	 ebp, esp
  00003	51		 push	 ecx
  00004	c7 45 fc cc cc
	cc cc		 mov	 DWORD PTR [ebp-4], -858993460 ; ccccccccH
  0000b	89 4d fc	 mov	 DWORD PTR _this$[ebp], ecx
; Line 858
  0000e	8b 45 0c	 mov	 eax, DWORD PTR __Count$[ebp]
  00011	50		 push	 eax
  00012	8b 4d 08	 mov	 ecx, DWORD PTR __Ptr$[ebp]
  00015	51		 push	 ecx
  00016	8b 4d fc	 mov	 ecx, DWORD PTR _this$[ebp]
  00019	e8 00 00 00 00	 call	 ?deallocate@?$allocator@UDXUTCache_Texture@@@std@@QAEXPAUDXUTCache_Texture@@I@Z ; std::allocator<DXUTCache_Texture>::deallocate
; Line 859
  0001e	83 c4 04	 add	 esp, 4
  00021	3b ec		 cmp	 ebp, esp
  00023	e8 00 00 00 00	 call	 __RTC_CheckEsp
  00028	8b e5		 mov	 esp, ebp
  0002a	5d		 pop	 ebp
  0002b	c2 08 00	 ret	 8
?deallocate@?$_Wrap_alloc@V?$allocator@UDXUTCache_Texture@@@std@@@std@@QAEXPAUDXUTCache_Texture@@I@Z ENDP ; std::_Wrap_alloc<std::allocator<DXUTCache_Texture> >::deallocate
_TEXT	ENDS
; Function compile flags: /Odtp /RTCsu
;	COMDAT ?allocate@?$_Wrap_alloc@V?$allocator@UDXUTCache_Texture@@@std@@@std@@QAEPAUDXUTCache_Texture@@I@Z
_TEXT	SEGMENT
_this$ = -4						; size = 4
__Count$ = 8						; size = 4
?allocate@?$_Wrap_alloc@V?$allocator@UDXUTCache_Texture@@@std@@@std@@QAEPAUDXUTCache_Texture@@I@Z PROC ; std::_Wrap_alloc<std::allocator<DXUTCache_Texture> >::allocate, COMDAT
; _this$ = ecx
; File c:\program files (x86)\microsoft visual studio 12.0\vc\include\xmemory0
; Line 846
  00000	55		 push	 ebp
  00001	8b ec		 mov	 ebp, esp
  00003	51		 push	 ecx
  00004	c7 45 fc cc cc
	cc cc		 mov	 DWORD PTR [ebp-4], -858993460 ; ccccccccH
  0000b	89 4d fc	 mov	 DWORD PTR _this$[ebp], ecx
; Line 847
  0000e	8b 45 08	 mov	 eax, DWORD PTR __Count$[ebp]
  00011	50		 push	 eax
  00012	8b 4d fc	 mov	 ecx, DWORD PTR _this$[ebp]
  00015	e8 00 00 00 00	 call	 ?allocate@?$allocator@UDXUTCache_Texture@@@std@@QAEPAUDXUTCache_Texture@@I@Z ; std::allocator<DXUTCache_Texture>::allocate
; Line 848
  0001a	83 c4 04	 add	 esp, 4
  0001d	3b ec		 cmp	 ebp, esp
  0001f	e8 00 00 00 00	 call	 __RTC_CheckEsp
  00024	8b e5		 mov	 esp, ebp
  00026	5d		 pop	 ebp
  00027	c2 04 00	 ret	 4
?allocate@?$_Wrap_alloc@V?$allocator@UDXUTCache_Texture@@@std@@@std@@QAEPAUDXUTCache_Texture@@I@Z ENDP ; std::_Wrap_alloc<std::allocator<DXUTCache_Texture> >::allocate
_TEXT	ENDS
; Function compile flags: /Odtp /RTCsu
;	COMDAT ??0?$_Wrap_alloc@V?$allocator@UDXUTCache_Texture@@@std@@@std@@QAE@XZ
_TEXT	SEGMENT
_this$ = -4						; size = 4
??0?$_Wrap_alloc@V?$allocator@UDXUTCache_Texture@@@std@@@std@@QAE@XZ PROC ; std::_Wrap_alloc<std::allocator<DXUTCache_Texture> >::_Wrap_alloc<std::allocator<DXUTCache_Texture> >, COMDAT
; _this$ = ecx
; File c:\program files (x86)\microsoft visual studio 12.0\vc\include\xmemory0
; Line 801
  00000	55		 push	 ebp
  00001	8b ec		 mov	 ebp, esp
  00003	51		 push	 ecx
  00004	c7 45 fc cc cc
	cc cc		 mov	 DWORD PTR [ebp-4], -858993460 ; ccccccccH
  0000b	89 4d fc	 mov	 DWORD PTR _this$[ebp], ecx
  0000e	8b 4d fc	 mov	 ecx, DWORD PTR _this$[ebp]
  00011	e8 00 00 00 00	 call	 ??0?$allocator@UDXUTCache_Texture@@@std@@QAE@XZ ; std::allocator<DXUTCache_Texture>::allocator<DXUTCache_Texture>
; Line 802
  00016	8b 45 fc	 mov	 eax, DWORD PTR _this$[ebp]
  00019	83 c4 04	 add	 esp, 4
  0001c	3b ec		 cmp	 ebp, esp
  0001e	e8 00 00 00 00	 call	 __RTC_CheckEsp
  00023	8b e5		 mov	 esp, ebp
  00025	5d		 pop	 ebp
  00026	c3		 ret	 0
??0?$_Wrap_alloc@V?$allocator@UDXUTCache_Texture@@@std@@@std@@QAE@XZ ENDP ; std::_Wrap_alloc<std::allocator<DXUTCache_Texture> >::_Wrap_alloc<std::allocator<DXUTCache_Texture> >
_TEXT	ENDS
; Function compile flags: /Odtp /RTCsu
;	COMDAT ?max_size@?$allocator_traits@V?$allocator@UDXUTCache_Texture@@@std@@@std@@SAIABV?$allocator@UDXUTCache_Texture@@@2@@Z
_TEXT	SEGMENT
__Al$ = 8						; size = 4
?max_size@?$allocator_traits@V?$allocator@UDXUTCache_Texture@@@std@@@std@@SAIABV?$allocator@UDXUTCache_Texture@@@2@@Z PROC ; std::allocator_traits<std::allocator<DXUTCache_Texture> >::max_size, COMDAT
; File c:\program files (x86)\microsoft visual studio 12.0\vc\include\xmemory0
; Line 734
  00000	55		 push	 ebp
  00001	8b ec		 mov	 ebp, esp
; Line 735
  00003	8b 4d 08	 mov	 ecx, DWORD PTR __Al$[ebp]
  00006	e8 00 00 00 00	 call	 ?max_size@?$allocator@UDXUTCache_Texture@@@std@@QBEIXZ ; std::allocator<DXUTCache_Texture>::max_size
; Line 736
  0000b	3b ec		 cmp	 ebp, esp
  0000d	e8 00 00 00 00	 call	 __RTC_CheckEsp
  00012	5d		 pop	 ebp
  00013	c3		 ret	 0
?max_size@?$allocator_traits@V?$allocator@UDXUTCache_Texture@@@std@@@std@@SAIABV?$allocator@UDXUTCache_Texture@@@2@@Z ENDP ; std::allocator_traits<std::allocator<DXUTCache_Texture> >::max_size
_TEXT	ENDS
; Function compile flags: /Odtp /RTCsu
;	COMDAT ?max_size@?$allocator@UDXUTCache_Texture@@@std@@QBEIXZ
_TEXT	SEGMENT
_this$ = -4						; size = 4
?max_size@?$allocator@UDXUTCache_Texture@@@std@@QBEIXZ PROC ; std::allocator<DXUTCache_Texture>::max_size, COMDAT
; _this$ = ecx
; File c:\program files (x86)\microsoft visual studio 12.0\vc\include\xmemory0
; Line 611
  00000	55		 push	 ebp
  00001	8b ec		 mov	 ebp, esp
  00003	51		 push	 ecx
  00004	c7 45 fc cc cc
	cc cc		 mov	 DWORD PTR [ebp-4], -858993460 ; ccccccccH
  0000b	89 4d fc	 mov	 DWORD PTR _this$[ebp], ecx
; Line 612
  0000e	b8 07 1f 7c 00	 mov	 eax, 8134407		; 007c1f07H
; Line 613
  00013	8b e5		 mov	 esp, ebp
  00015	5d		 pop	 ebp
  00016	c3		 ret	 0
?max_size@?$allocator@UDXUTCache_Texture@@@std@@QBEIXZ ENDP ; std::allocator<DXUTCache_Texture>::max_size
_TEXT	ENDS
; Function compile flags: /Odtp /RTCsu
;	COMDAT ?construct@?$allocator@UDXUTCache_Texture@@@std@@QAEXPAUDXUTCache_Texture@@ABU3@@Z
_TEXT	SEGMENT
tv69 = -12						; size = 4
$T1 = -8						; size = 4
_this$ = -4						; size = 4
__Ptr$ = 8						; size = 4
__Val$ = 12						; size = 4
?construct@?$allocator@UDXUTCache_Texture@@@std@@QAEXPAUDXUTCache_Texture@@ABU3@@Z PROC ; std::allocator<DXUTCache_Texture>::construct, COMDAT
; _this$ = ecx
; File c:\program files (x86)\microsoft visual studio 12.0\vc\include\xmemory0
; Line 592
  00000	55		 push	 ebp
  00001	8b ec		 mov	 ebp, esp
  00003	83 ec 0c	 sub	 esp, 12			; 0000000cH
  00006	56		 push	 esi
  00007	57		 push	 edi
  00008	c7 45 f4 cc cc
	cc cc		 mov	 DWORD PTR [ebp-12], -858993460 ; ccccccccH
  0000f	c7 45 f8 cc cc
	cc cc		 mov	 DWORD PTR [ebp-8], -858993460 ; ccccccccH
  00016	c7 45 fc cc cc
	cc cc		 mov	 DWORD PTR [ebp-4], -858993460 ; ccccccccH
  0001d	89 4d fc	 mov	 DWORD PTR _this$[ebp], ecx
; Line 593
  00020	8b 45 08	 mov	 eax, DWORD PTR __Ptr$[ebp]
  00023	50		 push	 eax
  00024	68 10 02 00 00	 push	 528			; 00000210H
  00029	e8 00 00 00 00	 call	 ??2@YAPAXIPAX@Z		; operator new
  0002e	83 c4 08	 add	 esp, 8
  00031	89 45 f8	 mov	 DWORD PTR $T1[ebp], eax
  00034	83 7d f8 00	 cmp	 DWORD PTR $T1[ebp], 0
  00038	74 15		 je	 SHORT $LN3@construct
  0003a	b9 84 00 00 00	 mov	 ecx, 132		; 00000084H
  0003f	8b 75 0c	 mov	 esi, DWORD PTR __Val$[ebp]
  00042	8b 7d f8	 mov	 edi, DWORD PTR $T1[ebp]
  00045	f3 a5		 rep movsd
  00047	8b 4d f8	 mov	 ecx, DWORD PTR $T1[ebp]
  0004a	89 4d f4	 mov	 DWORD PTR tv69[ebp], ecx
  0004d	eb 07		 jmp	 SHORT $LN1@construct
$LN3@construct:
  0004f	c7 45 f4 00 00
	00 00		 mov	 DWORD PTR tv69[ebp], 0
$LN1@construct:
; Line 594
  00056	5f		 pop	 edi
  00057	5e		 pop	 esi
  00058	83 c4 0c	 add	 esp, 12			; 0000000cH
  0005b	3b ec		 cmp	 ebp, esp
  0005d	e8 00 00 00 00	 call	 __RTC_CheckEsp
  00062	8b e5		 mov	 esp, ebp
  00064	5d		 pop	 ebp
  00065	c2 08 00	 ret	 8
?construct@?$allocator@UDXUTCache_Texture@@@std@@QAEXPAUDXUTCache_Texture@@ABU3@@Z ENDP ; std::allocator<DXUTCache_Texture>::construct
_TEXT	ENDS
; Function compile flags: /Odtp /RTCsu
;	COMDAT ?allocate@?$allocator@UDXUTCache_Texture@@@std@@QAEPAUDXUTCache_Texture@@I@Z
_TEXT	SEGMENT
_this$ = -4						; size = 4
__Count$ = 8						; size = 4
?allocate@?$allocator@UDXUTCache_Texture@@@std@@QAEPAUDXUTCache_Texture@@I@Z PROC ; std::allocator<DXUTCache_Texture>::allocate, COMDAT
; _this$ = ecx
; File c:\program files (x86)\microsoft visual studio 12.0\vc\include\xmemory0
; Line 577
  00000	55		 push	 ebp
  00001	8b ec		 mov	 ebp, esp
  00003	51		 push	 ecx
  00004	c7 45 fc cc cc
	cc cc		 mov	 DWORD PTR [ebp-4], -858993460 ; ccccccccH
  0000b	89 4d fc	 mov	 DWORD PTR _this$[ebp], ecx
; Line 578
  0000e	6a 00		 push	 0
  00010	8b 45 08	 mov	 eax, DWORD PTR __Count$[ebp]
  00013	50		 push	 eax
  00014	e8 00 00 00 00	 call	 ??$_Allocate@UDXUTCache_Texture@@@std@@YAPAUDXUTCache_Texture@@IPAU1@@Z ; std::_Allocate<DXUTCache_Texture>
  00019	83 c4 08	 add	 esp, 8
; Line 579
  0001c	83 c4 04	 add	 esp, 4
  0001f	3b ec		 cmp	 ebp, esp
  00021	e8 00 00 00 00	 call	 __RTC_CheckEsp
  00026	8b e5		 mov	 esp, ebp
  00028	5d		 pop	 ebp
  00029	c2 04 00	 ret	 4
?allocate@?$allocator@UDXUTCache_Texture@@@std@@QAEPAUDXUTCache_Texture@@I@Z ENDP ; std::allocator<DXUTCache_Texture>::allocate
_TEXT	ENDS
; Function compile flags: /Odtp /RTCsu
;	COMDAT ?deallocate@?$allocator@UDXUTCache_Texture@@@std@@QAEXPAUDXUTCache_Texture@@I@Z
_TEXT	SEGMENT
_this$ = -4						; size = 4
__Ptr$ = 8						; size = 4
___formal$ = 12						; size = 4
?deallocate@?$allocator@UDXUTCache_Texture@@@std@@QAEXPAUDXUTCache_Texture@@I@Z PROC ; std::allocator<DXUTCache_Texture>::deallocate, COMDAT
; _this$ = ecx
; File c:\program files (x86)\microsoft visual studio 12.0\vc\include\xmemory0
; Line 572
  00000	55		 push	 ebp
  00001	8b ec		 mov	 ebp, esp
  00003	51		 push	 ecx
  00004	c7 45 fc cc cc
	cc cc		 mov	 DWORD PTR [ebp-4], -858993460 ; ccccccccH
  0000b	89 4d fc	 mov	 DWORD PTR _this$[ebp], ecx
; Line 573
  0000e	8b 45 08	 mov	 eax, DWORD PTR __Ptr$[ebp]
  00011	50		 push	 eax
  00012	e8 00 00 00 00	 call	 ??3@YAXPAX@Z		; operator delete
  00017	83 c4 04	 add	 esp, 4
; Line 574
  0001a	83 c4 04	 add	 esp, 4
  0001d	3b ec		 cmp	 ebp, esp
  0001f	e8 00 00 00 00	 call	 __RTC_CheckEsp
  00024	8b e5		 mov	 esp, ebp
  00026	5d		 pop	 ebp
  00027	c2 08 00	 ret	 8
?deallocate@?$allocator@UDXUTCache_Texture@@@std@@QAEXPAUDXUTCache_Texture@@I@Z ENDP ; std::allocator<DXUTCache_Texture>::deallocate
_TEXT	ENDS
; Function compile flags: /Odtp /RTCsu
;	COMDAT ??0?$allocator@UDXUTCache_Texture@@@std@@QAE@XZ
_TEXT	SEGMENT
_this$ = -4						; size = 4
??0?$allocator@UDXUTCache_Texture@@@std@@QAE@XZ PROC	; std::allocator<DXUTCache_Texture>::allocator<DXUTCache_Texture>, COMDAT
; _this$ = ecx
; File c:\program files (x86)\microsoft visual studio 12.0\vc\include\xmemory0
; Line 552
  00000	55		 push	 ebp
  00001	8b ec		 mov	 ebp, esp
  00003	51		 push	 ecx
  00004	c7 45 fc cc cc
	cc cc		 mov	 DWORD PTR [ebp-4], -858993460 ; ccccccccH
  0000b	89 4d fc	 mov	 DWORD PTR _this$[ebp], ecx
; Line 554
  0000e	8b 45 fc	 mov	 eax, DWORD PTR _this$[ebp]
  00011	8b e5		 mov	 esp, ebp
  00013	5d		 pop	 ebp
  00014	c3		 ret	 0
??0?$allocator@UDXUTCache_Texture@@@std@@QAE@XZ ENDP	; std::allocator<DXUTCache_Texture>::allocator<DXUTCache_Texture>
_TEXT	ENDS
; Function compile flags: /Odtp /RTCsu
;	COMDAT ??0CDXUTResourceCache@@IAE@XZ
_TEXT	SEGMENT
_this$ = -4						; size = 4
??0CDXUTResourceCache@@IAE@XZ PROC			; CDXUTResourceCache::CDXUTResourceCache, COMDAT
; _this$ = ecx
; File d:\engine class\assignment 1\new scratch\dxut\optional\sdkmisc.h
; Line 53
  00000	55		 push	 ebp
  00001	8b ec		 mov	 ebp, esp
  00003	51		 push	 ecx
  00004	c7 45 fc cc cc
	cc cc		 mov	 DWORD PTR [ebp-4], -858993460 ; ccccccccH
  0000b	89 4d fc	 mov	 DWORD PTR _this$[ebp], ecx
  0000e	8b 4d fc	 mov	 ecx, DWORD PTR _this$[ebp]
  00011	e8 00 00 00 00	 call	 ??0?$vector@UDXUTCache_Texture@@V?$allocator@UDXUTCache_Texture@@@std@@@std@@QAE@XZ ; std::vector<DXUTCache_Texture,std::allocator<DXUTCache_Texture> >::vector<DXUTCache_Texture,std::allocator<DXUTCache_Texture> >
  00016	8b 45 fc	 mov	 eax, DWORD PTR _this$[ebp]
  00019	83 c4 04	 add	 esp, 4
  0001c	3b ec		 cmp	 ebp, esp
  0001e	e8 00 00 00 00	 call	 __RTC_CheckEsp
  00023	8b e5		 mov	 esp, ebp
  00025	5d		 pop	 ebp
  00026	c3		 ret	 0
??0CDXUTResourceCache@@IAE@XZ ENDP			; CDXUTResourceCache::CDXUTResourceCache
_TEXT	ENDS
; Function compile flags: /Odtp /RTCsu
_TEXT	SEGMENT
tv76 = -28						; size = 4
$T2 = -24						; size = 4
$T3 = -20						; size = 4
_flag$4 = -16						; size = 4
__$EHRec$ = -12						; size = 12
?DXUTGetGlobalResourceCache@@YGAAVCDXUTResourceCache@@XZ PROC ; DXUTGetGlobalResourceCache
; File d:\engine class\assignment 1\new scratch\dxut\optional\sdkmisc.cpp
; Line 31
  00000	55		 push	 ebp
  00001	8b ec		 mov	 ebp, esp
  00003	6a ff		 push	 -1
  00005	68 00 00 00 00	 push	 __ehhandler$?DXUTGetGlobalResourceCache@@YGAAVCDXUTResourceCache@@XZ
  0000a	64 a1 00 00 00
	00		 mov	 eax, DWORD PTR fs:0
  00010	50		 push	 eax
  00011	83 ec 10	 sub	 esp, 16			; 00000010H
  00014	56		 push	 esi
  00015	b8 cc cc cc cc	 mov	 eax, -858993460		; ccccccccH
  0001a	89 45 e4	 mov	 DWORD PTR [ebp-28], eax
  0001d	89 45 e8	 mov	 DWORD PTR [ebp-24], eax
  00020	89 45 ec	 mov	 DWORD PTR [ebp-20], eax
  00023	89 45 f0	 mov	 DWORD PTR [ebp-16], eax
  00026	a1 00 00 00 00	 mov	 eax, DWORD PTR ___security_cookie
  0002b	33 c5		 xor	 eax, ebp
  0002d	50		 push	 eax
  0002e	8d 45 f4	 lea	 eax, DWORD PTR __$EHRec$[ebp]
  00031	64 a3 00 00 00
	00		 mov	 DWORD PTR fs:0, eax
; Line 34
  00037	83 3d 00 00 00
	00 00		 cmp	 DWORD PTR ?s_cache@?1??DXUTGetGlobalResourceCache@@YGAAVCDXUTResourceCache@@XZ@4PAV2@A, 0
  0003e	0f 85 8a 00 00
	00		 jne	 $LN1@DXUTGetGlo
; Line 37
  00044	8b f4		 mov	 esi, esp
  00046	6a ff		 push	 -1
  00048	ff 15 00 00 00
	00		 call	 DWORD PTR __imp___CrtSetDbgFlag
  0004e	83 c4 04	 add	 esp, 4
  00051	3b f4		 cmp	 esi, esp
  00053	e8 00 00 00 00	 call	 __RTC_CheckEsp
  00058	89 45 f0	 mov	 DWORD PTR _flag$4[ebp], eax
; Line 38
  0005b	8b 45 f0	 mov	 eax, DWORD PTR _flag$4[ebp]
  0005e	83 e0 fe	 and	 eax, -2			; fffffffeH
  00061	8b f4		 mov	 esi, esp
  00063	50		 push	 eax
  00064	ff 15 00 00 00
	00		 call	 DWORD PTR __imp___CrtSetDbgFlag
  0006a	83 c4 04	 add	 esp, 4
  0006d	3b f4		 cmp	 esi, esp
  0006f	e8 00 00 00 00	 call	 __RTC_CheckEsp
; Line 40
  00074	6a 10		 push	 16			; 00000010H
  00076	e8 00 00 00 00	 call	 ??2@YAPAXI@Z		; operator new
  0007b	83 c4 04	 add	 esp, 4
  0007e	89 45 e8	 mov	 DWORD PTR $T2[ebp], eax
  00081	c7 45 fc 00 00
	00 00		 mov	 DWORD PTR __$EHRec$[ebp+8], 0
  00088	83 7d e8 00	 cmp	 DWORD PTR $T2[ebp], 0
  0008c	74 0d		 je	 SHORT $LN4@DXUTGetGlo
  0008e	8b 4d e8	 mov	 ecx, DWORD PTR $T2[ebp]
  00091	e8 00 00 00 00	 call	 ??0CDXUTResourceCache@@IAE@XZ ; CDXUTResourceCache::CDXUTResourceCache
  00096	89 45 e4	 mov	 DWORD PTR tv76[ebp], eax
  00099	eb 07		 jmp	 SHORT $LN5@DXUTGetGlo
$LN4@DXUTGetGlo:
  0009b	c7 45 e4 00 00
	00 00		 mov	 DWORD PTR tv76[ebp], 0
$LN5@DXUTGetGlo:
  000a2	8b 4d e4	 mov	 ecx, DWORD PTR tv76[ebp]
  000a5	89 4d ec	 mov	 DWORD PTR $T3[ebp], ecx
  000a8	c7 45 fc ff ff
	ff ff		 mov	 DWORD PTR __$EHRec$[ebp+8], -1
  000af	8b 55 ec	 mov	 edx, DWORD PTR $T3[ebp]
  000b2	89 15 00 00 00
	00		 mov	 DWORD PTR ?s_cache@?1??DXUTGetGlobalResourceCache@@YGAAVCDXUTResourceCache@@XZ@4PAV2@A, edx
; Line 42
  000b8	8b f4		 mov	 esi, esp
  000ba	8b 45 f0	 mov	 eax, DWORD PTR _flag$4[ebp]
  000bd	50		 push	 eax
  000be	ff 15 00 00 00
	00		 call	 DWORD PTR __imp___CrtSetDbgFlag
  000c4	83 c4 04	 add	 esp, 4
  000c7	3b f4		 cmp	 esi, esp
  000c9	e8 00 00 00 00	 call	 __RTC_CheckEsp
$LN1@DXUTGetGlo:
; Line 45
  000ce	a1 00 00 00 00	 mov	 eax, DWORD PTR ?s_cache@?1??DXUTGetGlobalResourceCache@@YGAAVCDXUTResourceCache@@XZ@4PAV2@A
; Line 46
  000d3	8b 4d f4	 mov	 ecx, DWORD PTR __$EHRec$[ebp]
  000d6	64 89 0d 00 00
	00 00		 mov	 DWORD PTR fs:0, ecx
  000dd	59		 pop	 ecx
  000de	5e		 pop	 esi
  000df	83 c4 1c	 add	 esp, 28			; 0000001cH
  000e2	3b ec		 cmp	 ebp, esp
  000e4	e8 00 00 00 00	 call	 __RTC_CheckEsp
  000e9	8b e5		 mov	 esp, ebp
  000eb	5d		 pop	 ebp
  000ec	c3		 ret	 0
_TEXT	ENDS
text$x	SEGMENT
__unwindfunclet$?DXUTGetGlobalResourceCache@@YGAAVCDXUTResourceCache@@XZ$0:
  00000	8b 45 e8	 mov	 eax, DWORD PTR $T2[ebp]
  00003	50		 push	 eax
  00004	e8 00 00 00 00	 call	 ??3@YAXPAX@Z		; operator delete
  00009	59		 pop	 ecx
  0000a	c3		 ret	 0
__ehhandler$?DXUTGetGlobalResourceCache@@YGAAVCDXUTResourceCache@@XZ:
  0000b	8b 54 24 08	 mov	 edx, DWORD PTR [esp+8]
  0000f	8d 42 0c	 lea	 eax, DWORD PTR [edx+12]
  00012	8b 4a e8	 mov	 ecx, DWORD PTR [edx-24]
  00015	33 c8		 xor	 ecx, eax
  00017	e8 00 00 00 00	 call	 @__security_check_cookie@4
  0001c	b8 00 00 00 00	 mov	 eax, OFFSET __ehfuncinfo$?DXUTGetGlobalResourceCache@@YGAAVCDXUTResourceCache@@XZ
  00021	e9 00 00 00 00	 jmp	 ___CxxFrameHandler3
text$x	ENDS
?DXUTGetGlobalResourceCache@@YGAAVCDXUTResourceCache@@XZ ENDP ; DXUTGetGlobalResourceCache
; Function compile flags: /Odtp /RTCsu
_TEXT	SEGMENT
tv86 = -12						; size = 4
_j$1 = -8						; size = 4
_this$ = -4						; size = 4
?OnDestroyDevice@CDXUTResourceCache@@QAEJXZ PROC	; CDXUTResourceCache::OnDestroyDevice
; _this$ = ecx
; File d:\engine class\assignment 1\new scratch\dxut\optional\sdkmisc.cpp
; Line 893
  00000	55		 push	 ebp
  00001	8b ec		 mov	 ebp, esp
  00003	83 ec 0c	 sub	 esp, 12			; 0000000cH
  00006	56		 push	 esi
  00007	c7 45 f4 cc cc
	cc cc		 mov	 DWORD PTR [ebp-12], -858993460 ; ccccccccH
  0000e	c7 45 f8 cc cc
	cc cc		 mov	 DWORD PTR [ebp-8], -858993460 ; ccccccccH
  00015	c7 45 fc cc cc
	cc cc		 mov	 DWORD PTR [ebp-4], -858993460 ; ccccccccH
  0001c	89 4d fc	 mov	 DWORD PTR _this$[ebp], ecx
; Line 895
  0001f	c7 45 f8 00 00
	00 00		 mov	 DWORD PTR _j$1[ebp], 0
  00026	eb 09		 jmp	 SHORT $LN4@OnDestroyD
$LN3@OnDestroyD:
  00028	8b 45 f8	 mov	 eax, DWORD PTR _j$1[ebp]
  0002b	83 c0 01	 add	 eax, 1
  0002e	89 45 f8	 mov	 DWORD PTR _j$1[ebp], eax
$LN4@OnDestroyD:
  00031	8b 4d fc	 mov	 ecx, DWORD PTR _this$[ebp]
  00034	e8 00 00 00 00	 call	 ?size@?$vector@UDXUTCache_Texture@@V?$allocator@UDXUTCache_Texture@@@std@@@std@@QBEIXZ ; std::vector<DXUTCache_Texture,std::allocator<DXUTCache_Texture> >::size
  00039	39 45 f8	 cmp	 DWORD PTR _j$1[ebp], eax
  0003c	73 59		 jae	 SHORT $LN2@OnDestroyD
; Line 897
  0003e	8b 4d f8	 mov	 ecx, DWORD PTR _j$1[ebp]
  00041	51		 push	 ecx
  00042	8b 4d fc	 mov	 ecx, DWORD PTR _this$[ebp]
  00045	e8 00 00 00 00	 call	 ??A?$vector@UDXUTCache_Texture@@V?$allocator@UDXUTCache_Texture@@@std@@@std@@QAEAAUDXUTCache_Texture@@I@Z ; std::vector<DXUTCache_Texture,std::allocator<DXUTCache_Texture> >::operator[]
  0004a	83 b8 0c 02 00
	00 00		 cmp	 DWORD PTR [eax+524], 0
  00051	74 42		 je	 SHORT $LN1@OnDestroyD
  00053	8b 55 f8	 mov	 edx, DWORD PTR _j$1[ebp]
  00056	52		 push	 edx
  00057	8b 4d fc	 mov	 ecx, DWORD PTR _this$[ebp]
  0005a	e8 00 00 00 00	 call	 ??A?$vector@UDXUTCache_Texture@@V?$allocator@UDXUTCache_Texture@@@std@@@std@@QAEAAUDXUTCache_Texture@@I@Z ; std::vector<DXUTCache_Texture,std::allocator<DXUTCache_Texture> >::operator[]
  0005f	8b 80 0c 02 00
	00		 mov	 eax, DWORD PTR [eax+524]
  00065	89 45 f4	 mov	 DWORD PTR tv86[ebp], eax
  00068	8b 4d f4	 mov	 ecx, DWORD PTR tv86[ebp]
  0006b	8b 11		 mov	 edx, DWORD PTR [ecx]
  0006d	8b f4		 mov	 esi, esp
  0006f	8b 45 f4	 mov	 eax, DWORD PTR tv86[ebp]
  00072	50		 push	 eax
  00073	8b 4a 08	 mov	 ecx, DWORD PTR [edx+8]
  00076	ff d1		 call	 ecx
  00078	3b f4		 cmp	 esi, esp
  0007a	e8 00 00 00 00	 call	 __RTC_CheckEsp
  0007f	8b 55 f8	 mov	 edx, DWORD PTR _j$1[ebp]
  00082	52		 push	 edx
  00083	8b 4d fc	 mov	 ecx, DWORD PTR _this$[ebp]
  00086	e8 00 00 00 00	 call	 ??A?$vector@UDXUTCache_Texture@@V?$allocator@UDXUTCache_Texture@@@std@@@std@@QAEAAUDXUTCache_Texture@@I@Z ; std::vector<DXUTCache_Texture,std::allocator<DXUTCache_Texture> >::operator[]
  0008b	c7 80 0c 02 00
	00 00 00 00 00	 mov	 DWORD PTR [eax+524], 0
$LN1@OnDestroyD:
; Line 898
  00095	eb 91		 jmp	 SHORT $LN3@OnDestroyD
$LN2@OnDestroyD:
; Line 899
  00097	8b 4d fc	 mov	 ecx, DWORD PTR _this$[ebp]
  0009a	e8 00 00 00 00	 call	 ?clear@?$vector@UDXUTCache_Texture@@V?$allocator@UDXUTCache_Texture@@@std@@@std@@QAEXXZ ; std::vector<DXUTCache_Texture,std::allocator<DXUTCache_Texture> >::clear
; Line 900
  0009f	8b 4d fc	 mov	 ecx, DWORD PTR _this$[ebp]
  000a2	e8 00 00 00 00	 call	 ?shrink_to_fit@?$vector@UDXUTCache_Texture@@V?$allocator@UDXUTCache_Texture@@@std@@@std@@QAEXXZ ; std::vector<DXUTCache_Texture,std::allocator<DXUTCache_Texture> >::shrink_to_fit
; Line 902
  000a7	33 c0		 xor	 eax, eax
; Line 903
  000a9	5e		 pop	 esi
  000aa	83 c4 0c	 add	 esp, 12			; 0000000cH
  000ad	3b ec		 cmp	 ebp, esp
  000af	e8 00 00 00 00	 call	 __RTC_CheckEsp
  000b4	8b e5		 mov	 esp, ebp
  000b6	5d		 pop	 ebp
  000b7	c3		 ret	 0
?OnDestroyDevice@CDXUTResourceCache@@QAEJXZ ENDP	; CDXUTResourceCache::OnDestroyDevice
_TEXT	ENDS
; Function compile flags: /Odtp /RTCsu
_TEXT	SEGMENT
$T1 = -540						; size = 4
_szSrcFile$ = -532					; size = 520
_this$ = -8						; size = 4
__$ArrayPad$ = -4					; size = 4
_pDevice$ = 8						; size = 4
_pContext$ = 12						; size = 4
_pSrcFile$ = 16						; size = 4
_ppOutputRV$ = 20					; size = 4
_bSRGB$ = 24						; size = 1
?CreateTextureFromFile@CDXUTResourceCache@@QAEJPAUID3D11Device@@PAUID3D11DeviceContext@@PBDPAPAUID3D11ShaderResourceView@@_N@Z PROC ; CDXUTResourceCache::CreateTextureFromFile
; _this$ = ecx
; File d:\engine class\assignment 1\new scratch\dxut\optional\sdkmisc.cpp
; Line 877
  00000	55		 push	 ebp
  00001	8b ec		 mov	 ebp, esp
  00003	81 ec 1c 02 00
	00		 sub	 esp, 540		; 0000021cH
  00009	56		 push	 esi
  0000a	57		 push	 edi
  0000b	51		 push	 ecx
  0000c	8d bd e4 fd ff
	ff		 lea	 edi, DWORD PTR [ebp-540]
  00012	b9 87 00 00 00	 mov	 ecx, 135		; 00000087H
  00017	b8 cc cc cc cc	 mov	 eax, -858993460		; ccccccccH
  0001c	f3 ab		 rep stosd
  0001e	59		 pop	 ecx
  0001f	a1 00 00 00 00	 mov	 eax, DWORD PTR ___security_cookie
  00024	33 c5		 xor	 eax, ebp
  00026	89 45 fc	 mov	 DWORD PTR __$ArrayPad$[ebp], eax
  00029	89 4d f8	 mov	 DWORD PTR _this$[ebp], ecx
; Line 879
  0002c	8b f4		 mov	 esi, esp
  0002e	68 04 01 00 00	 push	 260			; 00000104H
  00033	8d 85 ec fd ff
	ff		 lea	 eax, DWORD PTR _szSrcFile$[ebp]
  00039	50		 push	 eax
  0003a	6a ff		 push	 -1
  0003c	8b 4d 10	 mov	 ecx, DWORD PTR _pSrcFile$[ebp]
  0003f	51		 push	 ecx
  00040	6a 00		 push	 0
  00042	6a 00		 push	 0
  00044	ff 15 00 00 00
	00		 call	 DWORD PTR __imp__MultiByteToWideChar@24
  0004a	3b f4		 cmp	 esi, esp
  0004c	e8 00 00 00 00	 call	 __RTC_CheckEsp
; Line 880
  00051	ba 02 00 00 00	 mov	 edx, 2
  00056	69 c2 03 01 00
	00		 imul	 eax, edx, 259
  0005c	89 85 e4 fd ff
	ff		 mov	 DWORD PTR $T1[ebp], eax
  00062	81 bd e4 fd ff
	ff 08 02 00 00	 cmp	 DWORD PTR $T1[ebp], 520	; 00000208H
  0006c	73 02		 jae	 SHORT $LN3@CreateText
  0006e	eb 05		 jmp	 SHORT $LN4@CreateText
$LN3@CreateText:
  00070	e8 00 00 00 00	 call	 ___report_rangecheckfailure
$LN4@CreateText:
  00075	33 c9		 xor	 ecx, ecx
  00077	8b 95 e4 fd ff
	ff		 mov	 edx, DWORD PTR $T1[ebp]
  0007d	66 89 8c 15 ec
	fd ff ff	 mov	 WORD PTR _szSrcFile$[ebp+edx], cx
; Line 882
  00085	0f b6 45 18	 movzx	 eax, BYTE PTR _bSRGB$[ebp]
  00089	50		 push	 eax
  0008a	8b 4d 14	 mov	 ecx, DWORD PTR _ppOutputRV$[ebp]
  0008d	51		 push	 ecx
  0008e	8d 95 ec fd ff
	ff		 lea	 edx, DWORD PTR _szSrcFile$[ebp]
  00094	52		 push	 edx
  00095	8b 45 0c	 mov	 eax, DWORD PTR _pContext$[ebp]
  00098	50		 push	 eax
  00099	8b 4d 08	 mov	 ecx, DWORD PTR _pDevice$[ebp]
  0009c	51		 push	 ecx
  0009d	8b 4d f8	 mov	 ecx, DWORD PTR _this$[ebp]
  000a0	e8 00 00 00 00	 call	 ?CreateTextureFromFile@CDXUTResourceCache@@QAEJPAUID3D11Device@@PAUID3D11DeviceContext@@PB_WPAPAUID3D11ShaderResourceView@@_N@Z ; CDXUTResourceCache::CreateTextureFromFile
$LN2@CreateText:
; Line 883
  000a5	52		 push	 edx
  000a6	8b cd		 mov	 ecx, ebp
  000a8	50		 push	 eax
  000a9	8d 15 00 00 00
	00		 lea	 edx, DWORD PTR $LN7@CreateText
  000af	e8 00 00 00 00	 call	 @_RTC_CheckStackVars@8
  000b4	58		 pop	 eax
  000b5	5a		 pop	 edx
  000b6	5f		 pop	 edi
  000b7	5e		 pop	 esi
  000b8	8b 4d fc	 mov	 ecx, DWORD PTR __$ArrayPad$[ebp]
  000bb	33 cd		 xor	 ecx, ebp
  000bd	e8 00 00 00 00	 call	 @__security_check_cookie@4
  000c2	81 c4 1c 02 00
	00		 add	 esp, 540		; 0000021cH
  000c8	3b ec		 cmp	 ebp, esp
  000ca	e8 00 00 00 00	 call	 __RTC_CheckEsp
  000cf	8b e5		 mov	 esp, ebp
  000d1	5d		 pop	 ebp
  000d2	c2 14 00	 ret	 20			; 00000014H
  000d5	8d 49 00	 npad	 3
$LN7@CreateText:
  000d8	01 00 00 00	 DD	 1
  000dc	00 00 00 00	 DD	 $LN6@CreateText
$LN6@CreateText:
  000e0	ec fd ff ff	 DD	 -532			; fffffdecH
  000e4	08 02 00 00	 DD	 520			; 00000208H
  000e8	00 00 00 00	 DD	 $LN5@CreateText
$LN5@CreateText:
  000ec	73		 DB	 115			; 00000073H
  000ed	7a		 DB	 122			; 0000007aH
  000ee	53		 DB	 83			; 00000053H
  000ef	72		 DB	 114			; 00000072H
  000f0	63		 DB	 99			; 00000063H
  000f1	46		 DB	 70			; 00000046H
  000f2	69		 DB	 105			; 00000069H
  000f3	6c		 DB	 108			; 0000006cH
  000f4	65		 DB	 101			; 00000065H
  000f5	00		 DB	 0
?CreateTextureFromFile@CDXUTResourceCache@@QAEJPAUID3D11Device@@PAUID3D11DeviceContext@@PBDPAPAUID3D11ShaderResourceView@@_N@Z ENDP ; CDXUTResourceCache::CreateTextureFromFile
_TEXT	ENDS
; Function compile flags: /Odtp /RTCsu
_TEXT	SEGMENT
tv141 = -1152						; size = 4
tv88 = -1148						; size = 4
tv232 = -1144						; size = 4
tv227 = -1140						; size = 2
tv220 = -1138						; size = 2
tv215 = -1136						; size = 4
tv216 = -1132						; size = 4
tv201 = -1128						; size = 4
tv67 = -1124						; size = 4
$T2 = -1120						; size = 4
$T3 = -1116						; size = 12
$T4 = -1101						; size = 1
_entry$ = -1096						; size = 528
_hr$ = -564						; size = 4
_ext$ = -556						; size = 512
_it$5 = -36						; size = 12
_this$ = -20						; size = 4
__$ArrayPad$ = -16					; size = 4
__$EHRec$ = -12						; size = 12
_pDevice$ = 8						; size = 4
_pContext$ = 12						; size = 4
_pSrcFile$ = 16						; size = 4
_ppOutputRV$ = 20					; size = 4
_bSRGB$ = 24						; size = 1
?CreateTextureFromFile@CDXUTResourceCache@@QAEJPAUID3D11Device@@PAUID3D11DeviceContext@@PB_WPAPAUID3D11ShaderResourceView@@_N@Z PROC ; CDXUTResourceCache::CreateTextureFromFile
; _this$ = ecx
; File d:\engine class\assignment 1\new scratch\dxut\optional\sdkmisc.cpp
; Line 824
  00000	55		 push	 ebp
  00001	8b ec		 mov	 ebp, esp
  00003	6a ff		 push	 -1
  00005	68 00 00 00 00	 push	 __ehhandler$?CreateTextureFromFile@CDXUTResourceCache@@QAEJPAUID3D11Device@@PAUID3D11DeviceContext@@PB_WPAPAUID3D11ShaderResourceView@@_N@Z
  0000a	64 a1 00 00 00
	00		 mov	 eax, DWORD PTR fs:0
  00010	50		 push	 eax
  00011	81 ec 74 04 00
	00		 sub	 esp, 1140		; 00000474H
  00017	56		 push	 esi
  00018	57		 push	 edi
  00019	51		 push	 ecx
  0001a	8d bd 80 fb ff
	ff		 lea	 edi, DWORD PTR [ebp-1152]
  00020	b9 1d 01 00 00	 mov	 ecx, 285		; 0000011dH
  00025	b8 cc cc cc cc	 mov	 eax, -858993460		; ccccccccH
  0002a	f3 ab		 rep stosd
  0002c	59		 pop	 ecx
  0002d	a1 00 00 00 00	 mov	 eax, DWORD PTR ___security_cookie
  00032	33 c5		 xor	 eax, ebp
  00034	89 45 f0	 mov	 DWORD PTR __$ArrayPad$[ebp], eax
  00037	50		 push	 eax
  00038	8d 45 f4	 lea	 eax, DWORD PTR __$EHRec$[ebp]
  0003b	64 a3 00 00 00
	00		 mov	 DWORD PTR fs:0, eax
  00041	89 4d ec	 mov	 DWORD PTR _this$[ebp], ecx
; Line 825
  00044	83 7d 14 00	 cmp	 DWORD PTR _ppOutputRV$[ebp], 0
  00048	75 0a		 jne	 SHORT $LN8@CreateText
; Line 826
  0004a	b8 57 00 07 80	 mov	 eax, -2147024809	; 80070057H
  0004f	e9 f1 02 00 00	 jmp	 $LN9@CreateText
$LN8@CreateText:
; Line 828
  00054	8b 45 14	 mov	 eax, DWORD PTR _ppOutputRV$[ebp]
  00057	c7 00 00 00 00
	00		 mov	 DWORD PTR [eax], 0
; Line 830
  0005d	8d 4d dc	 lea	 ecx, DWORD PTR _it$5[ebp]
  00060	51		 push	 ecx
  00061	8b 4d ec	 mov	 ecx, DWORD PTR _this$[ebp]
  00064	e8 00 00 00 00	 call	 ?cbegin@?$vector@UDXUTCache_Texture@@V?$allocator@UDXUTCache_Texture@@@std@@@std@@QBE?AV?$_Vector_const_iterator@V?$_Vector_val@U?$_Simple_types@UDXUTCache_Texture@@@std@@@std@@@2@XZ ; std::vector<DXUTCache_Texture,std::allocator<DXUTCache_Texture> >::cbegin
  00069	c7 45 fc 00 00
	00 00		 mov	 DWORD PTR __$EHRec$[ebp+8], 0
  00070	eb 08		 jmp	 SHORT $LN7@CreateText
$LN6@CreateText:
  00072	8d 4d dc	 lea	 ecx, DWORD PTR _it$5[ebp]
  00075	e8 00 00 00 00	 call	 ??E?$_Vector_const_iterator@V?$_Vector_val@U?$_Simple_types@UDXUTCache_Texture@@@std@@@std@@@std@@QAEAAV01@XZ ; std::_Vector_const_iterator<std::_Vector_val<std::_Simple_types<DXUTCache_Texture> > >::operator++
$LN7@CreateText:
  0007a	8d 95 a4 fb ff
	ff		 lea	 edx, DWORD PTR $T3[ebp]
  00080	52		 push	 edx
  00081	8b 4d ec	 mov	 ecx, DWORD PTR _this$[ebp]
  00084	e8 00 00 00 00	 call	 ?cend@?$vector@UDXUTCache_Texture@@V?$allocator@UDXUTCache_Texture@@@std@@@std@@QBE?AV?$_Vector_const_iterator@V?$_Vector_val@U?$_Simple_types@UDXUTCache_Texture@@@std@@@std@@@2@XZ ; std::vector<DXUTCache_Texture,std::allocator<DXUTCache_Texture> >::cend
  00089	89 85 9c fb ff
	ff		 mov	 DWORD PTR tv67[ebp], eax
  0008f	8b 85 9c fb ff
	ff		 mov	 eax, DWORD PTR tv67[ebp]
  00095	89 85 98 fb ff
	ff		 mov	 DWORD PTR tv201[ebp], eax
  0009b	c6 45 fc 01	 mov	 BYTE PTR __$EHRec$[ebp+8], 1
  0009f	8b 8d 98 fb ff
	ff		 mov	 ecx, DWORD PTR tv201[ebp]
  000a5	51		 push	 ecx
  000a6	8d 4d dc	 lea	 ecx, DWORD PTR _it$5[ebp]
  000a9	e8 00 00 00 00	 call	 ??9?$_Vector_const_iterator@V?$_Vector_val@U?$_Simple_types@UDXUTCache_Texture@@@std@@@std@@@std@@QBE_NABV01@@Z ; std::_Vector_const_iterator<std::_Vector_val<std::_Simple_types<DXUTCache_Texture> > >::operator!=
  000ae	88 85 b3 fb ff
	ff		 mov	 BYTE PTR $T4[ebp], al
  000b4	c6 45 fc 00	 mov	 BYTE PTR __$EHRec$[ebp+8], 0
  000b8	8d 8d a4 fb ff
	ff		 lea	 ecx, DWORD PTR $T3[ebp]
  000be	e8 00 00 00 00	 call	 ??1?$_Vector_const_iterator@V?$_Vector_val@U?$_Simple_types@UDXUTCache_Texture@@@std@@@std@@@std@@QAE@XZ
  000c3	0f b6 95 b3 fb
	ff ff		 movzx	 edx, BYTE PTR $T4[ebp]
  000ca	85 d2		 test	 edx, edx
  000cc	0f 84 36 01 00
	00		 je	 $LN5@CreateText
; Line 834
  000d2	8b 45 10	 mov	 eax, DWORD PTR _pSrcFile$[ebp]
  000d5	89 85 94 fb ff
	ff		 mov	 DWORD PTR tv216[ebp], eax
  000db	8d 4d dc	 lea	 ecx, DWORD PTR _it$5[ebp]
  000de	e8 00 00 00 00	 call	 ??C?$_Vector_const_iterator@V?$_Vector_val@U?$_Simple_types@UDXUTCache_Texture@@@std@@@std@@@std@@QBEPBUDXUTCache_Texture@@XZ ; std::_Vector_const_iterator<std::_Vector_val<std::_Simple_types<DXUTCache_Texture> > >::operator->
  000e3	89 85 90 fb ff
	ff		 mov	 DWORD PTR tv215[ebp], eax
$LL13@CreateText:
  000e9	8b 8d 90 fb ff
	ff		 mov	 ecx, DWORD PTR tv215[ebp]
  000ef	66 8b 11	 mov	 dx, WORD PTR [ecx]
  000f2	66 89 95 8e fb
	ff ff		 mov	 WORD PTR tv220[ebp], dx
  000f9	8b 85 94 fb ff
	ff		 mov	 eax, DWORD PTR tv216[ebp]
  000ff	66 3b 10	 cmp	 dx, WORD PTR [eax]
  00102	75 4b		 jne	 SHORT $LN14@CreateText
  00104	66 83 bd 8e fb
	ff ff 00	 cmp	 WORD PTR tv220[ebp], 0
  0010c	74 35		 je	 SHORT $LN15@CreateText
  0010e	8b 8d 90 fb ff
	ff		 mov	 ecx, DWORD PTR tv215[ebp]
  00114	66 8b 51 02	 mov	 dx, WORD PTR [ecx+2]
  00118	66 89 95 8c fb
	ff ff		 mov	 WORD PTR tv227[ebp], dx
  0011f	8b 85 94 fb ff
	ff		 mov	 eax, DWORD PTR tv216[ebp]
  00125	66 3b 50 02	 cmp	 dx, WORD PTR [eax+2]
  00129	75 24		 jne	 SHORT $LN14@CreateText
  0012b	83 85 90 fb ff
	ff 04		 add	 DWORD PTR tv215[ebp], 4
  00132	83 85 94 fb ff
	ff 04		 add	 DWORD PTR tv216[ebp], 4
  00139	66 83 bd 8c fb
	ff ff 00	 cmp	 WORD PTR tv227[ebp], 0
  00141	75 a6		 jne	 SHORT $LL13@CreateText
$LN15@CreateText:
  00143	c7 85 88 fb ff
	ff 00 00 00 00	 mov	 DWORD PTR tv232[ebp], 0
  0014d	eb 0b		 jmp	 SHORT $LN16@CreateText
$LN14@CreateText:
  0014f	1b c9		 sbb	 ecx, ecx
  00151	83 c9 01	 or	 ecx, 1
  00154	89 8d 88 fb ff
	ff		 mov	 DWORD PTR tv232[ebp], ecx
$LN16@CreateText:
  0015a	8b 95 88 fb ff
	ff		 mov	 edx, DWORD PTR tv232[ebp]
  00160	89 95 84 fb ff
	ff		 mov	 DWORD PTR tv88[ebp], edx
  00166	83 bd 84 fb ff
	ff 00		 cmp	 DWORD PTR tv88[ebp], 0
  0016d	0f 85 90 00 00
	00		 jne	 $LN4@CreateText
  00173	8d 4d dc	 lea	 ecx, DWORD PTR _it$5[ebp]
  00176	e8 00 00 00 00	 call	 ??C?$_Vector_const_iterator@V?$_Vector_val@U?$_Simple_types@UDXUTCache_Texture@@@std@@@std@@@std@@QBEPBUDXUTCache_Texture@@XZ ; std::_Vector_const_iterator<std::_Vector_val<std::_Simple_types<DXUTCache_Texture> > >::operator->
  0017b	0f b6 80 08 02
	00 00		 movzx	 eax, BYTE PTR [eax+520]
  00182	0f b6 4d 18	 movzx	 ecx, BYTE PTR _bSRGB$[ebp]
  00186	3b c1		 cmp	 eax, ecx
  00188	75 79		 jne	 SHORT $LN4@CreateText
  0018a	8d 4d dc	 lea	 ecx, DWORD PTR _it$5[ebp]
  0018d	e8 00 00 00 00	 call	 ??C?$_Vector_const_iterator@V?$_Vector_val@U?$_Simple_types@UDXUTCache_Texture@@@std@@@std@@@std@@QBEPBUDXUTCache_Texture@@XZ ; std::_Vector_const_iterator<std::_Vector_val<std::_Simple_types<DXUTCache_Texture> > >::operator->
  00192	83 b8 0c 02 00
	00 00		 cmp	 DWORD PTR [eax+524], 0
  00199	74 68		 je	 SHORT $LN4@CreateText
; Line 836
  0019b	8d 4d dc	 lea	 ecx, DWORD PTR _it$5[ebp]
  0019e	e8 00 00 00 00	 call	 ??C?$_Vector_const_iterator@V?$_Vector_val@U?$_Simple_types@UDXUTCache_Texture@@@std@@@std@@@std@@QBEPBUDXUTCache_Texture@@XZ ; std::_Vector_const_iterator<std::_Vector_val<std::_Simple_types<DXUTCache_Texture> > >::operator->
  001a3	8b 90 0c 02 00
	00		 mov	 edx, DWORD PTR [eax+524]
  001a9	89 95 80 fb ff
	ff		 mov	 DWORD PTR tv141[ebp], edx
  001af	8b 85 80 fb ff
	ff		 mov	 eax, DWORD PTR tv141[ebp]
  001b5	8b 08		 mov	 ecx, DWORD PTR [eax]
  001b7	8b f4		 mov	 esi, esp
  001b9	8b 95 80 fb ff
	ff		 mov	 edx, DWORD PTR tv141[ebp]
  001bf	52		 push	 edx
  001c0	8b 41 04	 mov	 eax, DWORD PTR [ecx+4]
  001c3	ff d0		 call	 eax
  001c5	3b f4		 cmp	 esi, esp
  001c7	e8 00 00 00 00	 call	 __RTC_CheckEsp
; Line 837
  001cc	8d 4d dc	 lea	 ecx, DWORD PTR _it$5[ebp]
  001cf	e8 00 00 00 00	 call	 ??C?$_Vector_const_iterator@V?$_Vector_val@U?$_Simple_types@UDXUTCache_Texture@@@std@@@std@@@std@@QBEPBUDXUTCache_Texture@@XZ ; std::_Vector_const_iterator<std::_Vector_val<std::_Simple_types<DXUTCache_Texture> > >::operator->
  001d4	8b 4d 14	 mov	 ecx, DWORD PTR _ppOutputRV$[ebp]
  001d7	8b 90 0c 02 00
	00		 mov	 edx, DWORD PTR [eax+524]
  001dd	89 11		 mov	 DWORD PTR [ecx], edx
; Line 838
  001df	c7 85 a0 fb ff
	ff 00 00 00 00	 mov	 DWORD PTR $T2[ebp], 0
  001e9	c7 45 fc ff ff
	ff ff		 mov	 DWORD PTR __$EHRec$[ebp+8], -1
  001f0	8d 4d dc	 lea	 ecx, DWORD PTR _it$5[ebp]
  001f3	e8 00 00 00 00	 call	 ??1?$_Vector_const_iterator@V?$_Vector_val@U?$_Simple_types@UDXUTCache_Texture@@@std@@@std@@@std@@QAE@XZ
  001f8	8b 85 a0 fb ff
	ff		 mov	 eax, DWORD PTR $T2[ebp]
  001fe	e9 42 01 00 00	 jmp	 $LN9@CreateText
$LN4@CreateText:
; Line 839
  00203	e9 6a fe ff ff	 jmp	 $LN6@CreateText
$LN5@CreateText:
; Line 840
  00208	c7 45 fc ff ff
	ff ff		 mov	 DWORD PTR __$EHRec$[ebp+8], -1
  0020f	8d 4d dc	 lea	 ecx, DWORD PTR _it$5[ebp]
  00212	e8 00 00 00 00	 call	 ??1?$_Vector_const_iterator@V?$_Vector_val@U?$_Simple_types@UDXUTCache_Texture@@@std@@@std@@@std@@QAE@XZ
; Line 843
  00217	8b f4		 mov	 esi, esp
  00219	68 00 01 00 00	 push	 256			; 00000100H
  0021e	8d 85 d4 fd ff
	ff		 lea	 eax, DWORD PTR _ext$[ebp]
  00224	50		 push	 eax
  00225	6a 00		 push	 0
  00227	6a 00		 push	 0
  00229	6a 00		 push	 0
  0022b	6a 00		 push	 0
  0022d	6a 00		 push	 0
  0022f	6a 00		 push	 0
  00231	8b 4d 10	 mov	 ecx, DWORD PTR _pSrcFile$[ebp]
  00234	51		 push	 ecx
  00235	ff 15 00 00 00
	00		 call	 DWORD PTR __imp___wsplitpath_s
  0023b	83 c4 24	 add	 esp, 36			; 00000024H
  0023e	3b f4		 cmp	 esi, esp
  00240	e8 00 00 00 00	 call	 __RTC_CheckEsp
; Line 846
  00245	8b f4		 mov	 esi, esp
  00247	68 00 00 00 00	 push	 OFFSET $SG163821
  0024c	8d 95 d4 fd ff
	ff		 lea	 edx, DWORD PTR _ext$[ebp]
  00252	52		 push	 edx
  00253	ff 15 00 00 00
	00		 call	 DWORD PTR __imp___wcsicmp
  00259	83 c4 08	 add	 esp, 8
  0025c	3b f4		 cmp	 esi, esp
  0025e	e8 00 00 00 00	 call	 __RTC_CheckEsp
  00263	85 c0		 test	 eax, eax
  00265	75 2f		 jne	 SHORT $LN3@CreateText
; Line 850
  00267	6a 00		 push	 0
  00269	8b 45 14	 mov	 eax, DWORD PTR _ppOutputRV$[ebp]
  0026c	50		 push	 eax
  0026d	6a 00		 push	 0
  0026f	0f b6 4d 18	 movzx	 ecx, BYTE PTR _bSRGB$[ebp]
  00273	51		 push	 ecx
  00274	6a 00		 push	 0
  00276	6a 00		 push	 0
  00278	6a 08		 push	 8
  0027a	6a 00		 push	 0
  0027c	6a 00		 push	 0
  0027e	8b 55 10	 mov	 edx, DWORD PTR _pSrcFile$[ebp]
  00281	52		 push	 edx
  00282	8b 45 08	 mov	 eax, DWORD PTR _pDevice$[ebp]
  00285	50		 push	 eax
  00286	e8 00 00 00 00	 call	 ?CreateDDSTextureFromFileEx@DirectX@@YAJPAUID3D11Device@@PB_WIW4D3D11_USAGE@@III_NPAPAUID3D11Resource@@PAPAUID3D11ShaderResourceView@@PAW4DDS_ALPHA_MODE@1@@Z ; DirectX::CreateDDSTextureFromFileEx
  0028b	83 c4 2c	 add	 esp, 44			; 0000002cH
  0028e	89 85 cc fd ff
	ff		 mov	 DWORD PTR _hr$[ebp], eax
; Line 852
  00294	eb 2f		 jmp	 SHORT $LN2@CreateText
$LN3@CreateText:
; Line 856
  00296	8b 4d 14	 mov	 ecx, DWORD PTR _ppOutputRV$[ebp]
  00299	51		 push	 ecx
  0029a	6a 00		 push	 0
  0029c	0f b6 55 18	 movzx	 edx, BYTE PTR _bSRGB$[ebp]
  002a0	52		 push	 edx
  002a1	6a 00		 push	 0
  002a3	6a 00		 push	 0
  002a5	6a 08		 push	 8
  002a7	6a 00		 push	 0
  002a9	6a 00		 push	 0
  002ab	8b 45 10	 mov	 eax, DWORD PTR _pSrcFile$[ebp]
  002ae	50		 push	 eax
  002af	8b 4d 0c	 mov	 ecx, DWORD PTR _pContext$[ebp]
  002b2	51		 push	 ecx
  002b3	8b 55 08	 mov	 edx, DWORD PTR _pDevice$[ebp]
  002b6	52		 push	 edx
  002b7	e8 00 00 00 00	 call	 ?CreateWICTextureFromFileEx@DirectX@@YAJPAUID3D11Device@@PAUID3D11DeviceContext@@PB_WIW4D3D11_USAGE@@III_NPAPAUID3D11Resource@@PAPAUID3D11ShaderResourceView@@@Z ; DirectX::CreateWICTextureFromFileEx
  002bc	83 c4 2c	 add	 esp, 44			; 0000002cH
  002bf	89 85 cc fd ff
	ff		 mov	 DWORD PTR _hr$[ebp], eax
$LN2@CreateText:
; Line 859
  002c5	83 bd cc fd ff
	ff 00		 cmp	 DWORD PTR _hr$[ebp], 0
  002cc	7d 08		 jge	 SHORT $LN1@CreateText
; Line 860
  002ce	8b 85 cc fd ff
	ff		 mov	 eax, DWORD PTR _hr$[ebp]
  002d4	eb 6f		 jmp	 SHORT $LN9@CreateText
$LN1@CreateText:
; Line 862
  002d6	8d 8d b8 fb ff
	ff		 lea	 ecx, DWORD PTR _entry$[ebp]
  002dc	e8 00 00 00 00	 call	 ??0DXUTCache_Texture@@QAE@XZ ; DXUTCache_Texture::DXUTCache_Texture
; Line 863
  002e1	8b f4		 mov	 esi, esp
  002e3	8b 45 10	 mov	 eax, DWORD PTR _pSrcFile$[ebp]
  002e6	50		 push	 eax
  002e7	68 04 01 00 00	 push	 260			; 00000104H
  002ec	8d 8d b8 fb ff
	ff		 lea	 ecx, DWORD PTR _entry$[ebp]
  002f2	51		 push	 ecx
  002f3	ff 15 00 00 00
	00		 call	 DWORD PTR __imp__wcscpy_s
  002f9	83 c4 0c	 add	 esp, 12			; 0000000cH
  002fc	3b f4		 cmp	 esi, esp
  002fe	e8 00 00 00 00	 call	 __RTC_CheckEsp
; Line 864
  00303	8a 55 18	 mov	 dl, BYTE PTR _bSRGB$[ebp]
  00306	88 95 c0 fd ff
	ff		 mov	 BYTE PTR _entry$[ebp+520], dl
; Line 865
  0030c	8b 45 14	 mov	 eax, DWORD PTR _ppOutputRV$[ebp]
  0030f	8b 08		 mov	 ecx, DWORD PTR [eax]
  00311	89 8d c4 fd ff
	ff		 mov	 DWORD PTR _entry$[ebp+524], ecx
; Line 866
  00317	8b 95 c4 fd ff
	ff		 mov	 edx, DWORD PTR _entry$[ebp+524]
  0031d	8b 02		 mov	 eax, DWORD PTR [edx]
  0031f	8b f4		 mov	 esi, esp
  00321	8b 8d c4 fd ff
	ff		 mov	 ecx, DWORD PTR _entry$[ebp+524]
  00327	51		 push	 ecx
  00328	8b 50 04	 mov	 edx, DWORD PTR [eax+4]
  0032b	ff d2		 call	 edx
  0032d	3b f4		 cmp	 esi, esp
  0032f	e8 00 00 00 00	 call	 __RTC_CheckEsp
; Line 867
  00334	8d 85 b8 fb ff
	ff		 lea	 eax, DWORD PTR _entry$[ebp]
  0033a	50		 push	 eax
  0033b	8b 4d ec	 mov	 ecx, DWORD PTR _this$[ebp]
  0033e	e8 00 00 00 00	 call	 ?push_back@?$vector@UDXUTCache_Texture@@V?$allocator@UDXUTCache_Texture@@@std@@@std@@QAEXABUDXUTCache_Texture@@@Z ; std::vector<DXUTCache_Texture,std::allocator<DXUTCache_Texture> >::push_back
; Line 869
  00343	33 c0		 xor	 eax, eax
$LN9@CreateText:
; Line 870
  00345	52		 push	 edx
  00346	8b cd		 mov	 ecx, ebp
  00348	50		 push	 eax
  00349	8d 15 00 00 00
	00		 lea	 edx, DWORD PTR $LN22@CreateText
  0034f	e8 00 00 00 00	 call	 @_RTC_CheckStackVars@8
  00354	58		 pop	 eax
  00355	5a		 pop	 edx
  00356	8b 4d f4	 mov	 ecx, DWORD PTR __$EHRec$[ebp]
  00359	64 89 0d 00 00
	00 00		 mov	 DWORD PTR fs:0, ecx
  00360	59		 pop	 ecx
  00361	5f		 pop	 edi
  00362	5e		 pop	 esi
  00363	8b 4d f0	 mov	 ecx, DWORD PTR __$ArrayPad$[ebp]
  00366	33 cd		 xor	 ecx, ebp
  00368	e8 00 00 00 00	 call	 @__security_check_cookie@4
  0036d	81 c4 80 04 00
	00		 add	 esp, 1152		; 00000480H
  00373	3b ec		 cmp	 ebp, esp
  00375	e8 00 00 00 00	 call	 __RTC_CheckEsp
  0037a	8b e5		 mov	 esp, ebp
  0037c	5d		 pop	 ebp
  0037d	c2 14 00	 ret	 20			; 00000014H
$LN22@CreateText:
  00380	03 00 00 00	 DD	 3
  00384	00 00 00 00	 DD	 $LN21@CreateText
$LN21@CreateText:
  00388	dc ff ff ff	 DD	 -36			; ffffffdcH
  0038c	0c 00 00 00	 DD	 12			; 0000000cH
  00390	00 00 00 00	 DD	 $LN17@CreateText
  00394	d4 fd ff ff	 DD	 -556			; fffffdd4H
  00398	00 02 00 00	 DD	 512			; 00000200H
  0039c	00 00 00 00	 DD	 $LN18@CreateText
  003a0	b8 fb ff ff	 DD	 -1096			; fffffbb8H
  003a4	10 02 00 00	 DD	 528			; 00000210H
  003a8	00 00 00 00	 DD	 $LN19@CreateText
$LN19@CreateText:
  003ac	65		 DB	 101			; 00000065H
  003ad	6e		 DB	 110			; 0000006eH
  003ae	74		 DB	 116			; 00000074H
  003af	72		 DB	 114			; 00000072H
  003b0	79		 DB	 121			; 00000079H
  003b1	00		 DB	 0
$LN18@CreateText:
  003b2	65		 DB	 101			; 00000065H
  003b3	78		 DB	 120			; 00000078H
  003b4	74		 DB	 116			; 00000074H
  003b5	00		 DB	 0
$LN17@CreateText:
  003b6	69		 DB	 105			; 00000069H
  003b7	74		 DB	 116			; 00000074H
  003b8	00		 DB	 0
_TEXT	ENDS
text$x	SEGMENT
__unwindfunclet$?CreateTextureFromFile@CDXUTResourceCache@@QAEJPAUID3D11Device@@PAUID3D11DeviceContext@@PB_WPAPAUID3D11ShaderResourceView@@_N@Z$0:
  00000	8d 4d dc	 lea	 ecx, DWORD PTR _it$5[ebp]
  00003	e9 00 00 00 00	 jmp	 ??1?$_Vector_const_iterator@V?$_Vector_val@U?$_Simple_types@UDXUTCache_Texture@@@std@@@std@@@std@@QAE@XZ
__unwindfunclet$?CreateTextureFromFile@CDXUTResourceCache@@QAEJPAUID3D11Device@@PAUID3D11DeviceContext@@PB_WPAPAUID3D11ShaderResourceView@@_N@Z$1:
  00008	8d 8d a4 fb ff
	ff		 lea	 ecx, DWORD PTR $T3[ebp]
  0000e	e9 00 00 00 00	 jmp	 ??1?$_Vector_const_iterator@V?$_Vector_val@U?$_Simple_types@UDXUTCache_Texture@@@std@@@std@@@std@@QAE@XZ
__ehhandler$?CreateTextureFromFile@CDXUTResourceCache@@QAEJPAUID3D11Device@@PAUID3D11DeviceContext@@PB_WPAPAUID3D11ShaderResourceView@@_N@Z:
  00013	8b 54 24 08	 mov	 edx, DWORD PTR [esp+8]
  00017	8d 42 0c	 lea	 eax, DWORD PTR [edx+12]
  0001a	8b 8a 80 fb ff
	ff		 mov	 ecx, DWORD PTR [edx-1152]
  00020	33 c8		 xor	 ecx, eax
  00022	e8 00 00 00 00	 call	 @__security_check_cookie@4
  00027	8b 4a fc	 mov	 ecx, DWORD PTR [edx-4]
  0002a	33 c8		 xor	 ecx, eax
  0002c	e8 00 00 00 00	 call	 @__security_check_cookie@4
  00031	b8 00 00 00 00	 mov	 eax, OFFSET __ehfuncinfo$?CreateTextureFromFile@CDXUTResourceCache@@QAEJPAUID3D11Device@@PAUID3D11DeviceContext@@PB_WPAPAUID3D11ShaderResourceView@@_N@Z
  00036	e9 00 00 00 00	 jmp	 ___CxxFrameHandler3
text$x	ENDS
?CreateTextureFromFile@CDXUTResourceCache@@QAEJPAUID3D11Device@@PAUID3D11DeviceContext@@PB_WPAPAUID3D11ShaderResourceView@@_N@Z ENDP ; CDXUTResourceCache::CreateTextureFromFile
; Function compile flags: /Odtp /RTCsu
_TEXT	SEGMENT
_this$ = -16						; size = 4
__$EHRec$ = -12						; size = 12
??1CDXUTResourceCache@@QAE@XZ PROC			; CDXUTResourceCache::~CDXUTResourceCache
; _this$ = ecx
; File d:\engine class\assignment 1\new scratch\dxut\optional\sdkmisc.cpp
; Line 816
  00000	55		 push	 ebp
  00001	8b ec		 mov	 ebp, esp
  00003	6a ff		 push	 -1
  00005	68 00 00 00 00	 push	 __ehhandler$??1CDXUTResourceCache@@QAE@XZ
  0000a	64 a1 00 00 00
	00		 mov	 eax, DWORD PTR fs:0
  00010	50		 push	 eax
  00011	51		 push	 ecx
  00012	c7 45 f0 cc cc
	cc cc		 mov	 DWORD PTR [ebp-16], -858993460 ; ccccccccH
  00019	a1 00 00 00 00	 mov	 eax, DWORD PTR ___security_cookie
  0001e	33 c5		 xor	 eax, ebp
  00020	50		 push	 eax
  00021	8d 45 f4	 lea	 eax, DWORD PTR __$EHRec$[ebp]
  00024	64 a3 00 00 00
	00		 mov	 DWORD PTR fs:0, eax
  0002a	89 4d f0	 mov	 DWORD PTR _this$[ebp], ecx
  0002d	c7 45 fc 00 00
	00 00		 mov	 DWORD PTR __$EHRec$[ebp+8], 0
; Line 817
  00034	8b 4d f0	 mov	 ecx, DWORD PTR _this$[ebp]
  00037	e8 00 00 00 00	 call	 ?OnDestroyDevice@CDXUTResourceCache@@QAEJXZ ; CDXUTResourceCache::OnDestroyDevice
; Line 818
  0003c	c7 45 fc ff ff
	ff ff		 mov	 DWORD PTR __$EHRec$[ebp+8], -1
  00043	8b 4d f0	 mov	 ecx, DWORD PTR _this$[ebp]
  00046	e8 00 00 00 00	 call	 ??1?$vector@UDXUTCache_Texture@@V?$allocator@UDXUTCache_Texture@@@std@@@std@@QAE@XZ ; std::vector<DXUTCache_Texture,std::allocator<DXUTCache_Texture> >::~vector<DXUTCache_Texture,std::allocator<DXUTCache_Texture> >
  0004b	8b 4d f4	 mov	 ecx, DWORD PTR __$EHRec$[ebp]
  0004e	64 89 0d 00 00
	00 00		 mov	 DWORD PTR fs:0, ecx
  00055	59		 pop	 ecx
  00056	83 c4 10	 add	 esp, 16			; 00000010H
  00059	3b ec		 cmp	 ebp, esp
  0005b	e8 00 00 00 00	 call	 __RTC_CheckEsp
  00060	8b e5		 mov	 esp, ebp
  00062	5d		 pop	 ebp
  00063	c3		 ret	 0
_TEXT	ENDS
text$x	SEGMENT
__unwindfunclet$??1CDXUTResourceCache@@QAE@XZ$0:
  00000	8b 4d f0	 mov	 ecx, DWORD PTR _this$[ebp]
  00003	e9 00 00 00 00	 jmp	 ??1?$vector@UDXUTCache_Texture@@V?$allocator@UDXUTCache_Texture@@@std@@@std@@QAE@XZ ; std::vector<DXUTCache_Texture,std::allocator<DXUTCache_Texture> >::~vector<DXUTCache_Texture,std::allocator<DXUTCache_Texture> >
__ehhandler$??1CDXUTResourceCache@@QAE@XZ:
  00008	8b 54 24 08	 mov	 edx, DWORD PTR [esp+8]
  0000c	8d 42 0c	 lea	 eax, DWORD PTR [edx+12]
  0000f	8b 4a f8	 mov	 ecx, DWORD PTR [edx-8]
  00012	33 c8		 xor	 ecx, eax
  00014	e8 00 00 00 00	 call	 @__security_check_cookie@4
  00019	b8 00 00 00 00	 mov	 eax, OFFSET __ehfuncinfo$??1CDXUTResourceCache@@QAE@XZ
  0001e	e9 00 00 00 00	 jmp	 ___CxxFrameHandler3
text$x	ENDS
??1CDXUTResourceCache@@QAE@XZ ENDP			; CDXUTResourceCache::~CDXUTResourceCache
; Function compile flags: /Odtp /RTCsu
;	COMDAT ??0DXUTCache_Texture@@QAE@XZ
_TEXT	SEGMENT
_this$ = -4						; size = 4
??0DXUTCache_Texture@@QAE@XZ PROC			; DXUTCache_Texture::DXUTCache_Texture, COMDAT
; _this$ = ecx
; File d:\engine class\assignment 1\new scratch\dxut\optional\sdkmisc.h
; Line 30
  00000	55		 push	 ebp
  00001	8b ec		 mov	 ebp, esp
  00003	51		 push	 ecx
  00004	c7 45 fc cc cc
	cc cc		 mov	 DWORD PTR [ebp-4], -858993460 ; ccccccccH
  0000b	89 4d fc	 mov	 DWORD PTR _this$[ebp], ecx
  0000e	8b 45 fc	 mov	 eax, DWORD PTR _this$[ebp]
  00011	c7 80 0c 02 00
	00 00 00 00 00	 mov	 DWORD PTR [eax+524], 0
; Line 31
  0001b	8b 45 fc	 mov	 eax, DWORD PTR _this$[ebp]
  0001e	8b e5		 mov	 esp, ebp
  00020	5d		 pop	 ebp
  00021	c3		 ret	 0
??0DXUTCache_Texture@@QAE@XZ ENDP			; DXUTCache_Texture::DXUTCache_Texture
_TEXT	ENDS
; Function compile flags: /Odtp /RTCsu
;	COMDAT ??$destroy@U_Container_proxy@std@@@?$allocator@U_Container_proxy@std@@@std@@QAEXPAU_Container_proxy@1@@Z
_TEXT	SEGMENT
_this$ = -4						; size = 4
__Ptr$ = 8						; size = 4
??$destroy@U_Container_proxy@std@@@?$allocator@U_Container_proxy@std@@@std@@QAEXPAU_Container_proxy@1@@Z PROC ; std::allocator<std::_Container_proxy>::destroy<std::_Container_proxy>, COMDAT
; _this$ = ecx
; File c:\program files (x86)\microsoft visual studio 12.0\vc\include\xmemory0
; Line 605
  00000	55		 push	 ebp
  00001	8b ec		 mov	 ebp, esp
  00003	51		 push	 ecx
  00004	c7 45 fc cc cc
	cc cc		 mov	 DWORD PTR [ebp-4], -858993460 ; ccccccccH
  0000b	89 4d fc	 mov	 DWORD PTR _this$[ebp], ecx
; Line 608
  0000e	8b e5		 mov	 esp, ebp
  00010	5d		 pop	 ebp
  00011	c2 04 00	 ret	 4
??$destroy@U_Container_proxy@std@@@?$allocator@U_Container_proxy@std@@@std@@QAEXPAU_Container_proxy@1@@Z ENDP ; std::allocator<std::_Container_proxy>::destroy<std::_Container_proxy>
_TEXT	ENDS
; Function compile flags: /Odtp /RTCsu
;	COMDAT ??$construct@U_Container_proxy@std@@U12@@?$allocator@U_Container_proxy@std@@@std@@QAEXPAU_Container_proxy@1@$$QAU21@@Z
_TEXT	SEGMENT
tv74 = -28						; size = 4
$T2 = -24						; size = 4
$T3 = -20						; size = 4
_this$ = -16						; size = 4
__$EHRec$ = -12						; size = 12
__Ptr$ = 8						; size = 4
_<_Args_0>$ = 12					; size = 4
??$construct@U_Container_proxy@std@@U12@@?$allocator@U_Container_proxy@std@@@std@@QAEXPAU_Container_proxy@1@$$QAU21@@Z PROC ; std::allocator<std::_Container_proxy>::construct<std::_Container_proxy,std::_Container_proxy>, COMDAT
; _this$ = ecx
; File c:\program files (x86)\microsoft visual studio 12.0\vc\include\xmemory0
; Line 598
  00000	55		 push	 ebp
  00001	8b ec		 mov	 ebp, esp
  00003	6a ff		 push	 -1
  00005	68 00 00 00 00	 push	 __ehhandler$??$construct@U_Container_proxy@std@@U12@@?$allocator@U_Container_proxy@std@@@std@@QAEXPAU_Container_proxy@1@$$QAU21@@Z
  0000a	64 a1 00 00 00
	00		 mov	 eax, DWORD PTR fs:0
  00010	50		 push	 eax
  00011	83 ec 10	 sub	 esp, 16			; 00000010H
  00014	b8 cc cc cc cc	 mov	 eax, -858993460		; ccccccccH
  00019	89 45 e4	 mov	 DWORD PTR [ebp-28], eax
  0001c	89 45 e8	 mov	 DWORD PTR [ebp-24], eax
  0001f	89 45 ec	 mov	 DWORD PTR [ebp-20], eax
  00022	89 45 f0	 mov	 DWORD PTR [ebp-16], eax
  00025	a1 00 00 00 00	 mov	 eax, DWORD PTR ___security_cookie
  0002a	33 c5		 xor	 eax, ebp
  0002c	50		 push	 eax
  0002d	8d 45 f4	 lea	 eax, DWORD PTR __$EHRec$[ebp]
  00030	64 a3 00 00 00
	00		 mov	 DWORD PTR fs:0, eax
  00036	89 4d f0	 mov	 DWORD PTR _this$[ebp], ecx
; Line 600
  00039	8b 45 08	 mov	 eax, DWORD PTR __Ptr$[ebp]
  0003c	50		 push	 eax
  0003d	6a 08		 push	 8
  0003f	e8 00 00 00 00	 call	 ??2@YAPAXIPAX@Z		; operator new
  00044	83 c4 08	 add	 esp, 8
  00047	89 45 e8	 mov	 DWORD PTR $T2[ebp], eax
  0004a	c7 45 fc 00 00
	00 00		 mov	 DWORD PTR __$EHRec$[ebp+8], 0
  00051	83 7d e8 00	 cmp	 DWORD PTR $T2[ebp], 0
  00055	74 21		 je	 SHORT $LN3@construct
  00057	8b 4d 0c	 mov	 ecx, DWORD PTR _<_Args_0>$[ebp]
  0005a	51		 push	 ecx
  0005b	e8 00 00 00 00	 call	 ??$forward@U_Container_proxy@std@@@std@@YA$$QAU_Container_proxy@0@AAU10@@Z ; std::forward<std::_Container_proxy>
  00060	83 c4 04	 add	 esp, 4
  00063	8b 10		 mov	 edx, DWORD PTR [eax]
  00065	8b 40 04	 mov	 eax, DWORD PTR [eax+4]
  00068	8b 4d e8	 mov	 ecx, DWORD PTR $T2[ebp]
  0006b	89 11		 mov	 DWORD PTR [ecx], edx
  0006d	89 41 04	 mov	 DWORD PTR [ecx+4], eax
  00070	8b 55 e8	 mov	 edx, DWORD PTR $T2[ebp]
  00073	89 55 e4	 mov	 DWORD PTR tv74[ebp], edx
  00076	eb 07		 jmp	 SHORT $LN4@construct
$LN3@construct:
  00078	c7 45 e4 00 00
	00 00		 mov	 DWORD PTR tv74[ebp], 0
$LN4@construct:
  0007f	8b 45 e4	 mov	 eax, DWORD PTR tv74[ebp]
  00082	89 45 ec	 mov	 DWORD PTR $T3[ebp], eax
  00085	c7 45 fc ff ff
	ff ff		 mov	 DWORD PTR __$EHRec$[ebp+8], -1
; Line 601
  0008c	8b 4d f4	 mov	 ecx, DWORD PTR __$EHRec$[ebp]
  0008f	64 89 0d 00 00
	00 00		 mov	 DWORD PTR fs:0, ecx
  00096	59		 pop	 ecx
  00097	83 c4 1c	 add	 esp, 28			; 0000001cH
  0009a	3b ec		 cmp	 ebp, esp
  0009c	e8 00 00 00 00	 call	 __RTC_CheckEsp
  000a1	8b e5		 mov	 esp, ebp
  000a3	5d		 pop	 ebp
  000a4	c2 08 00	 ret	 8
_TEXT	ENDS
;	COMDAT text$x
text$x	SEGMENT
__unwindfunclet$??$construct@U_Container_proxy@std@@U12@@?$allocator@U_Container_proxy@std@@@std@@QAEXPAU_Container_proxy@1@$$QAU21@@Z$0:
  00000	8b 45 08	 mov	 eax, DWORD PTR __Ptr$[ebp]
  00003	50		 push	 eax
  00004	8b 45 e8	 mov	 eax, DWORD PTR $T2[ebp]
  00007	50		 push	 eax
  00008	e8 00 00 00 00	 call	 ??3@YAXPAX0@Z		; operator delete
  0000d	83 c4 08	 add	 esp, 8
  00010	c3		 ret	 0
__ehhandler$??$construct@U_Container_proxy@std@@U12@@?$allocator@U_Container_proxy@std@@@std@@QAEXPAU_Container_proxy@1@$$QAU21@@Z:
  00011	8b 54 24 08	 mov	 edx, DWORD PTR [esp+8]
  00015	8d 42 0c	 lea	 eax, DWORD PTR [edx+12]
  00018	8b 4a ec	 mov	 ecx, DWORD PTR [edx-20]
  0001b	33 c8		 xor	 ecx, eax
  0001d	e8 00 00 00 00	 call	 @__security_check_cookie@4
  00022	b8 00 00 00 00	 mov	 eax, OFFSET __ehfuncinfo$??$construct@U_Container_proxy@std@@U12@@?$allocator@U_Container_proxy@std@@@std@@QAEXPAU_Container_proxy@1@$$QAU21@@Z
  00027	e9 00 00 00 00	 jmp	 ___CxxFrameHandler3
text$x	ENDS
??$construct@U_Container_proxy@std@@U12@@?$allocator@U_Container_proxy@std@@@std@@QAEXPAU_Container_proxy@1@$$QAU21@@Z ENDP ; std::allocator<std::_Container_proxy>::construct<std::_Container_proxy,std::_Container_proxy>
; Function compile flags: /Odtp /RTCsu
;	COMDAT ??$destroy@U_Container_proxy@std@@@?$allocator_traits@V?$allocator@U_Container_proxy@std@@@std@@@std@@SAXAAV?$allocator@U_Container_proxy@std@@@1@PAU_Container_proxy@1@@Z
_TEXT	SEGMENT
__Al$ = 8						; size = 4
__Ptr$ = 12						; size = 4
??$destroy@U_Container_proxy@std@@@?$allocator_traits@V?$allocator@U_Container_proxy@std@@@std@@@std@@SAXAAV?$allocator@U_Container_proxy@std@@@1@PAU_Container_proxy@1@@Z PROC ; std::allocator_traits<std::allocator<std::_Container_proxy> >::destroy<std::_Container_proxy>, COMDAT
; File c:\program files (x86)\microsoft visual studio 12.0\vc\include\xmemory0
; Line 728
  00000	55		 push	 ebp
  00001	8b ec		 mov	 ebp, esp
; Line 730
  00003	8b 45 0c	 mov	 eax, DWORD PTR __Ptr$[ebp]
  00006	50		 push	 eax
  00007	8b 4d 08	 mov	 ecx, DWORD PTR __Al$[ebp]
  0000a	e8 00 00 00 00	 call	 ??$destroy@U_Container_proxy@std@@@?$allocator@U_Container_proxy@std@@@std@@QAEXPAU_Container_proxy@1@@Z ; std::allocator<std::_Container_proxy>::destroy<std::_Container_proxy>
; Line 731
  0000f	3b ec		 cmp	 ebp, esp
  00011	e8 00 00 00 00	 call	 __RTC_CheckEsp
  00016	5d		 pop	 ebp
  00017	c3		 ret	 0
??$destroy@U_Container_proxy@std@@@?$allocator_traits@V?$allocator@U_Container_proxy@std@@@std@@@std@@SAXAAV?$allocator@U_Container_proxy@std@@@1@PAU_Container_proxy@1@@Z ENDP ; std::allocator_traits<std::allocator<std::_Container_proxy> >::destroy<std::_Container_proxy>
_TEXT	ENDS
; Function compile flags: /Odtp /RTCsu
;	COMDAT ??$construct@U_Container_proxy@std@@U12@@?$allocator_traits@V?$allocator@U_Container_proxy@std@@@std@@@std@@SAXAAV?$allocator@U_Container_proxy@std@@@1@PAU_Container_proxy@1@$$QAU31@@Z
_TEXT	SEGMENT
__Al$ = 8						; size = 4
__Ptr$ = 12						; size = 4
_<_Args_0>$ = 16					; size = 4
??$construct@U_Container_proxy@std@@U12@@?$allocator_traits@V?$allocator@U_Container_proxy@std@@@std@@@std@@SAXAAV?$allocator@U_Container_proxy@std@@@1@PAU_Container_proxy@1@$$QAU31@@Z PROC ; std::allocator_traits<std::allocator<std::_Container_proxy> >::construct<std::_Container_proxy,std::_Container_proxy>, COMDAT
; File c:\program files (x86)\microsoft visual studio 12.0\vc\include\xmemory0
; Line 720
  00000	55		 push	 ebp
  00001	8b ec		 mov	 ebp, esp
; Line 723
  00003	8b 45 10	 mov	 eax, DWORD PTR _<_Args_0>$[ebp]
  00006	50		 push	 eax
  00007	e8 00 00 00 00	 call	 ??$forward@U_Container_proxy@std@@@std@@YA$$QAU_Container_proxy@0@AAU10@@Z ; std::forward<std::_Container_proxy>
  0000c	83 c4 04	 add	 esp, 4
  0000f	50		 push	 eax
  00010	8b 4d 0c	 mov	 ecx, DWORD PTR __Ptr$[ebp]
  00013	51		 push	 ecx
  00014	8b 4d 08	 mov	 ecx, DWORD PTR __Al$[ebp]
  00017	e8 00 00 00 00	 call	 ??$construct@U_Container_proxy@std@@U12@@?$allocator@U_Container_proxy@std@@@std@@QAEXPAU_Container_proxy@1@$$QAU21@@Z ; std::allocator<std::_Container_proxy>::construct<std::_Container_proxy,std::_Container_proxy>
; Line 724
  0001c	3b ec		 cmp	 ebp, esp
  0001e	e8 00 00 00 00	 call	 __RTC_CheckEsp
  00023	5d		 pop	 ebp
  00024	c3		 ret	 0
??$construct@U_Container_proxy@std@@U12@@?$allocator_traits@V?$allocator@U_Container_proxy@std@@@std@@@std@@SAXAAV?$allocator@U_Container_proxy@std@@@1@PAU_Container_proxy@1@$$QAU31@@Z ENDP ; std::allocator_traits<std::allocator<std::_Container_proxy> >::construct<std::_Container_proxy,std::_Container_proxy>
_TEXT	ENDS
; Function compile flags: /Odtp /RTCsu
;	COMDAT ??$forward@U_Container_proxy@std@@@std@@YA$$QAU_Container_proxy@0@AAU10@@Z
_TEXT	SEGMENT
__Arg$ = 8						; size = 4
??$forward@U_Container_proxy@std@@@std@@YA$$QAU_Container_proxy@0@AAU10@@Z PROC ; std::forward<std::_Container_proxy>, COMDAT
; File c:\program files (x86)\microsoft visual studio 12.0\vc\include\type_traits
; Line 1504
  00000	55		 push	 ebp
  00001	8b ec		 mov	 ebp, esp
; Line 1505
  00003	8b 45 08	 mov	 eax, DWORD PTR __Arg$[ebp]
; Line 1506
  00006	5d		 pop	 ebp
  00007	c3		 ret	 0
??$forward@U_Container_proxy@std@@@std@@YA$$QAU_Container_proxy@0@AAU10@@Z ENDP ; std::forward<std::_Container_proxy>
_TEXT	ENDS
; Function compile flags: /Odtp /RTCsu
;	COMDAT ??$_Allocate@U_Container_proxy@std@@@std@@YAPAU_Container_proxy@0@IPAU10@@Z
_TEXT	SEGMENT
__Ptr$ = -4						; size = 4
__Count$ = 8						; size = 4
___formal$ = 12						; size = 4
??$_Allocate@U_Container_proxy@std@@@std@@YAPAU_Container_proxy@0@IPAU10@@Z PROC ; std::_Allocate<std::_Container_proxy>, COMDAT
; File c:\program files (x86)\microsoft visual studio 12.0\vc\include\xmemory0
; Line 22
  00000	55		 push	 ebp
  00001	8b ec		 mov	 ebp, esp
  00003	51		 push	 ecx
  00004	56		 push	 esi
  00005	c7 45 fc cc cc
	cc cc		 mov	 DWORD PTR [ebp-4], -858993460 ; ccccccccH
; Line 23
  0000c	c7 45 fc 00 00
	00 00		 mov	 DWORD PTR __Ptr$[ebp], 0
; Line 25
  00013	83 7d 08 00	 cmp	 DWORD PTR __Count$[ebp], 0
  00017	75 02		 jne	 SHORT $LN4@Allocate
; Line 27
  00019	eb 30		 jmp	 SHORT $LN3@Allocate
$LN4@Allocate:
; Line 28
  0001b	81 7d 08 ff ff
	ff 1f		 cmp	 DWORD PTR __Count$[ebp], 536870911 ; 1fffffffH
  00022	77 18		 ja	 SHORT $LN1@Allocate
  00024	8b 45 08	 mov	 eax, DWORD PTR __Count$[ebp]
  00027	c1 e0 03	 shl	 eax, 3
  0002a	50		 push	 eax
  0002b	e8 00 00 00 00	 call	 ??2@YAPAXI@Z		; operator new
  00030	83 c4 04	 add	 esp, 4
  00033	89 45 fc	 mov	 DWORD PTR __Ptr$[ebp], eax
  00036	83 7d fc 00	 cmp	 DWORD PTR __Ptr$[ebp], 0
  0003a	75 0f		 jne	 SHORT $LN3@Allocate
$LN1@Allocate:
; Line 29
  0003c	8b f4		 mov	 esi, esp
  0003e	ff 15 00 00 00
	00		 call	 DWORD PTR __imp_?_Xbad_alloc@std@@YAXXZ
  00044	3b f4		 cmp	 esi, esp
  00046	e8 00 00 00 00	 call	 __RTC_CheckEsp
$LN3@Allocate:
; Line 31
  0004b	8b 45 fc	 mov	 eax, DWORD PTR __Ptr$[ebp]
$LN6@Allocate:
; Line 32
  0004e	5e		 pop	 esi
  0004f	83 c4 04	 add	 esp, 4
  00052	3b ec		 cmp	 ebp, esp
  00054	e8 00 00 00 00	 call	 __RTC_CheckEsp
  00059	8b e5		 mov	 esp, ebp
  0005b	5d		 pop	 ebp
  0005c	c3		 ret	 0
??$_Allocate@U_Container_proxy@std@@@std@@YAPAU_Container_proxy@0@IPAU10@@Z ENDP ; std::_Allocate<std::_Container_proxy>
_TEXT	ENDS
; Function compile flags: /Odtp /RTCsu
;	COMDAT ??$destroy@U_Container_proxy@std@@@?$_Wrap_alloc@V?$allocator@U_Container_proxy@std@@@std@@@std@@QAEXPAU_Container_proxy@1@@Z
_TEXT	SEGMENT
_this$ = -4						; size = 4
__Ptr$ = 8						; size = 4
??$destroy@U_Container_proxy@std@@@?$_Wrap_alloc@V?$allocator@U_Container_proxy@std@@@std@@@std@@QAEXPAU_Container_proxy@1@@Z PROC ; std::_Wrap_alloc<std::allocator<std::_Container_proxy> >::destroy<std::_Container_proxy>, COMDAT
; _this$ = ecx
; File c:\program files (x86)\microsoft visual studio 12.0\vc\include\xmemory0
; Line 877
  00000	55		 push	 ebp
  00001	8b ec		 mov	 ebp, esp
  00003	51		 push	 ecx
  00004	c7 45 fc cc cc
	cc cc		 mov	 DWORD PTR [ebp-4], -858993460 ; ccccccccH
  0000b	89 4d fc	 mov	 DWORD PTR _this$[ebp], ecx
; Line 879
  0000e	8b 45 08	 mov	 eax, DWORD PTR __Ptr$[ebp]
  00011	50		 push	 eax
  00012	8b 4d fc	 mov	 ecx, DWORD PTR _this$[ebp]
  00015	51		 push	 ecx
  00016	e8 00 00 00 00	 call	 ??$destroy@U_Container_proxy@std@@@?$allocator_traits@V?$allocator@U_Container_proxy@std@@@std@@@std@@SAXAAV?$allocator@U_Container_proxy@std@@@1@PAU_Container_proxy@1@@Z ; std::allocator_traits<std::allocator<std::_Container_proxy> >::destroy<std::_Container_proxy>
  0001b	83 c4 08	 add	 esp, 8
; Line 880
  0001e	83 c4 04	 add	 esp, 4
  00021	3b ec		 cmp	 ebp, esp
  00023	e8 00 00 00 00	 call	 __RTC_CheckEsp
  00028	8b e5		 mov	 esp, ebp
  0002a	5d		 pop	 ebp
  0002b	c2 04 00	 ret	 4
??$destroy@U_Container_proxy@std@@@?$_Wrap_alloc@V?$allocator@U_Container_proxy@std@@@std@@@std@@QAEXPAU_Container_proxy@1@@Z ENDP ; std::_Wrap_alloc<std::allocator<std::_Container_proxy> >::destroy<std::_Container_proxy>
_TEXT	ENDS
; Function compile flags: /Odtp /RTCsu
;	COMDAT ??$construct@U_Container_proxy@std@@U12@@?$_Wrap_alloc@V?$allocator@U_Container_proxy@std@@@std@@@std@@QAEXPAU_Container_proxy@1@$$QAU21@@Z
_TEXT	SEGMENT
_this$ = -4						; size = 4
__Ptr$ = 8						; size = 4
_<_Args_0>$ = 12					; size = 4
??$construct@U_Container_proxy@std@@U12@@?$_Wrap_alloc@V?$allocator@U_Container_proxy@std@@@std@@@std@@QAEXPAU_Container_proxy@1@$$QAU21@@Z PROC ; std::_Wrap_alloc<std::allocator<std::_Container_proxy> >::construct<std::_Container_proxy,std::_Container_proxy>, COMDAT
; _this$ = ecx
; File c:\program files (x86)\microsoft visual studio 12.0\vc\include\xmemory0
; Line 868
  00000	55		 push	 ebp
  00001	8b ec		 mov	 ebp, esp
  00003	51		 push	 ecx
  00004	c7 45 fc cc cc
	cc cc		 mov	 DWORD PTR [ebp-4], -858993460 ; ccccccccH
  0000b	89 4d fc	 mov	 DWORD PTR _this$[ebp], ecx
; Line 872
  0000e	8b 45 0c	 mov	 eax, DWORD PTR _<_Args_0>$[ebp]
  00011	50		 push	 eax
  00012	e8 00 00 00 00	 call	 ??$forward@U_Container_proxy@std@@@std@@YA$$QAU_Container_proxy@0@AAU10@@Z ; std::forward<std::_Container_proxy>
  00017	83 c4 04	 add	 esp, 4
  0001a	50		 push	 eax
  0001b	8b 4d 08	 mov	 ecx, DWORD PTR __Ptr$[ebp]
  0001e	51		 push	 ecx
  0001f	8b 55 fc	 mov	 edx, DWORD PTR _this$[ebp]
  00022	52		 push	 edx
  00023	e8 00 00 00 00	 call	 ??$construct@U_Container_proxy@std@@U12@@?$allocator_traits@V?$allocator@U_Container_proxy@std@@@std@@@std@@SAXAAV?$allocator@U_Container_proxy@std@@@1@PAU_Container_proxy@1@$$QAU31@@Z ; std::allocator_traits<std::allocator<std::_Container_proxy> >::construct<std::_Container_proxy,std::_Container_proxy>
  00028	83 c4 0c	 add	 esp, 12			; 0000000cH
; Line 873
  0002b	83 c4 04	 add	 esp, 4
  0002e	3b ec		 cmp	 ebp, esp
  00030	e8 00 00 00 00	 call	 __RTC_CheckEsp
  00035	8b e5		 mov	 esp, ebp
  00037	5d		 pop	 ebp
  00038	c2 08 00	 ret	 8
??$construct@U_Container_proxy@std@@U12@@?$_Wrap_alloc@V?$allocator@U_Container_proxy@std@@@std@@@std@@QAEXPAU_Container_proxy@1@$$QAU21@@Z ENDP ; std::_Wrap_alloc<std::allocator<std::_Container_proxy> >::construct<std::_Container_proxy,std::_Container_proxy>
_TEXT	ENDS
; Function compile flags: /Odtp /RTCsu
;	COMDAT ?deallocate@?$_Wrap_alloc@V?$allocator@U_Container_proxy@std@@@std@@@std@@QAEXPAU_Container_proxy@2@I@Z
_TEXT	SEGMENT
_this$ = -4						; size = 4
__Ptr$ = 8						; size = 4
__Count$ = 12						; size = 4
?deallocate@?$_Wrap_alloc@V?$allocator@U_Container_proxy@std@@@std@@@std@@QAEXPAU_Container_proxy@2@I@Z PROC ; std::_Wrap_alloc<std::allocator<std::_Container_proxy> >::deallocate, COMDAT
; _this$ = ecx
; File c:\program files (x86)\microsoft visual studio 12.0\vc\include\xmemory0
; Line 857
  00000	55		 push	 ebp
  00001	8b ec		 mov	 ebp, esp
  00003	51		 push	 ecx
  00004	c7 45 fc cc cc
	cc cc		 mov	 DWORD PTR [ebp-4], -858993460 ; ccccccccH
  0000b	89 4d fc	 mov	 DWORD PTR _this$[ebp], ecx
; Line 858
  0000e	8b 45 0c	 mov	 eax, DWORD PTR __Count$[ebp]
  00011	50		 push	 eax
  00012	8b 4d 08	 mov	 ecx, DWORD PTR __Ptr$[ebp]
  00015	51		 push	 ecx
  00016	8b 4d fc	 mov	 ecx, DWORD PTR _this$[ebp]
  00019	e8 00 00 00 00	 call	 ?deallocate@?$allocator@U_Container_proxy@std@@@std@@QAEXPAU_Container_proxy@2@I@Z ; std::allocator<std::_Container_proxy>::deallocate
; Line 859
  0001e	83 c4 04	 add	 esp, 4
  00021	3b ec		 cmp	 ebp, esp
  00023	e8 00 00 00 00	 call	 __RTC_CheckEsp
  00028	8b e5		 mov	 esp, ebp
  0002a	5d		 pop	 ebp
  0002b	c2 08 00	 ret	 8
?deallocate@?$_Wrap_alloc@V?$allocator@U_Container_proxy@std@@@std@@@std@@QAEXPAU_Container_proxy@2@I@Z ENDP ; std::_Wrap_alloc<std::allocator<std::_Container_proxy> >::deallocate
_TEXT	ENDS
; Function compile flags: /Odtp /RTCsu
;	COMDAT ?allocate@?$_Wrap_alloc@V?$allocator@U_Container_proxy@std@@@std@@@std@@QAEPAU_Container_proxy@2@I@Z
_TEXT	SEGMENT
_this$ = -4						; size = 4
__Count$ = 8						; size = 4
?allocate@?$_Wrap_alloc@V?$allocator@U_Container_proxy@std@@@std@@@std@@QAEPAU_Container_proxy@2@I@Z PROC ; std::_Wrap_alloc<std::allocator<std::_Container_proxy> >::allocate, COMDAT
; _this$ = ecx
; File c:\program files (x86)\microsoft visual studio 12.0\vc\include\xmemory0
; Line 846
  00000	55		 push	 ebp
  00001	8b ec		 mov	 ebp, esp
  00003	51		 push	 ecx
  00004	c7 45 fc cc cc
	cc cc		 mov	 DWORD PTR [ebp-4], -858993460 ; ccccccccH
  0000b	89 4d fc	 mov	 DWORD PTR _this$[ebp], ecx
; Line 847
  0000e	8b 45 08	 mov	 eax, DWORD PTR __Count$[ebp]
  00011	50		 push	 eax
  00012	8b 4d fc	 mov	 ecx, DWORD PTR _this$[ebp]
  00015	e8 00 00 00 00	 call	 ?allocate@?$allocator@U_Container_proxy@std@@@std@@QAEPAU_Container_proxy@2@I@Z ; std::allocator<std::_Container_proxy>::allocate
; Line 848
  0001a	83 c4 04	 add	 esp, 4
  0001d	3b ec		 cmp	 ebp, esp
  0001f	e8 00 00 00 00	 call	 __RTC_CheckEsp
  00024	8b e5		 mov	 esp, ebp
  00026	5d		 pop	 ebp
  00027	c2 04 00	 ret	 4
?allocate@?$_Wrap_alloc@V?$allocator@U_Container_proxy@std@@@std@@@std@@QAEPAU_Container_proxy@2@I@Z ENDP ; std::_Wrap_alloc<std::allocator<std::_Container_proxy> >::allocate
_TEXT	ENDS
; Function compile flags: /Odtp /RTCsu
;	COMDAT ??0?$_Wrap_alloc@V?$allocator@U_Container_proxy@std@@@std@@@std@@QAE@XZ
_TEXT	SEGMENT
_this$ = -4						; size = 4
??0?$_Wrap_alloc@V?$allocator@U_Container_proxy@std@@@std@@@std@@QAE@XZ PROC ; std::_Wrap_alloc<std::allocator<std::_Container_proxy> >::_Wrap_alloc<std::allocator<std::_Container_proxy> >, COMDAT
; _this$ = ecx
; File c:\program files (x86)\microsoft visual studio 12.0\vc\include\xmemory0
; Line 801
  00000	55		 push	 ebp
  00001	8b ec		 mov	 ebp, esp
  00003	51		 push	 ecx
  00004	c7 45 fc cc cc
	cc cc		 mov	 DWORD PTR [ebp-4], -858993460 ; ccccccccH
  0000b	89 4d fc	 mov	 DWORD PTR _this$[ebp], ecx
  0000e	8b 4d fc	 mov	 ecx, DWORD PTR _this$[ebp]
  00011	e8 00 00 00 00	 call	 ??0?$allocator@U_Container_proxy@std@@@std@@QAE@XZ ; std::allocator<std::_Container_proxy>::allocator<std::_Container_proxy>
; Line 802
  00016	8b 45 fc	 mov	 eax, DWORD PTR _this$[ebp]
  00019	83 c4 04	 add	 esp, 4
  0001c	3b ec		 cmp	 ebp, esp
  0001e	e8 00 00 00 00	 call	 __RTC_CheckEsp
  00023	8b e5		 mov	 esp, ebp
  00025	5d		 pop	 ebp
  00026	c3		 ret	 0
??0?$_Wrap_alloc@V?$allocator@U_Container_proxy@std@@@std@@@std@@QAE@XZ ENDP ; std::_Wrap_alloc<std::allocator<std::_Container_proxy> >::_Wrap_alloc<std::allocator<std::_Container_proxy> >
_TEXT	ENDS
; Function compile flags: /Odtp /RTCsu
;	COMDAT ?allocate@?$allocator@U_Container_proxy@std@@@std@@QAEPAU_Container_proxy@2@I@Z
_TEXT	SEGMENT
_this$ = -4						; size = 4
__Count$ = 8						; size = 4
?allocate@?$allocator@U_Container_proxy@std@@@std@@QAEPAU_Container_proxy@2@I@Z PROC ; std::allocator<std::_Container_proxy>::allocate, COMDAT
; _this$ = ecx
; File c:\program files (x86)\microsoft visual studio 12.0\vc\include\xmemory0
; Line 577
  00000	55		 push	 ebp
  00001	8b ec		 mov	 ebp, esp
  00003	51		 push	 ecx
  00004	c7 45 fc cc cc
	cc cc		 mov	 DWORD PTR [ebp-4], -858993460 ; ccccccccH
  0000b	89 4d fc	 mov	 DWORD PTR _this$[ebp], ecx
; Line 578
  0000e	6a 00		 push	 0
  00010	8b 45 08	 mov	 eax, DWORD PTR __Count$[ebp]
  00013	50		 push	 eax
  00014	e8 00 00 00 00	 call	 ??$_Allocate@U_Container_proxy@std@@@std@@YAPAU_Container_proxy@0@IPAU10@@Z ; std::_Allocate<std::_Container_proxy>
  00019	83 c4 08	 add	 esp, 8
; Line 579
  0001c	83 c4 04	 add	 esp, 4
  0001f	3b ec		 cmp	 ebp, esp
  00021	e8 00 00 00 00	 call	 __RTC_CheckEsp
  00026	8b e5		 mov	 esp, ebp
  00028	5d		 pop	 ebp
  00029	c2 04 00	 ret	 4
?allocate@?$allocator@U_Container_proxy@std@@@std@@QAEPAU_Container_proxy@2@I@Z ENDP ; std::allocator<std::_Container_proxy>::allocate
_TEXT	ENDS
; Function compile flags: /Odtp /RTCsu
;	COMDAT ?deallocate@?$allocator@U_Container_proxy@std@@@std@@QAEXPAU_Container_proxy@2@I@Z
_TEXT	SEGMENT
_this$ = -4						; size = 4
__Ptr$ = 8						; size = 4
___formal$ = 12						; size = 4
?deallocate@?$allocator@U_Container_proxy@std@@@std@@QAEXPAU_Container_proxy@2@I@Z PROC ; std::allocator<std::_Container_proxy>::deallocate, COMDAT
; _this$ = ecx
; File c:\program files (x86)\microsoft visual studio 12.0\vc\include\xmemory0
; Line 572
  00000	55		 push	 ebp
  00001	8b ec		 mov	 ebp, esp
  00003	51		 push	 ecx
  00004	c7 45 fc cc cc
	cc cc		 mov	 DWORD PTR [ebp-4], -858993460 ; ccccccccH
  0000b	89 4d fc	 mov	 DWORD PTR _this$[ebp], ecx
; Line 573
  0000e	8b 45 08	 mov	 eax, DWORD PTR __Ptr$[ebp]
  00011	50		 push	 eax
  00012	e8 00 00 00 00	 call	 ??3@YAXPAX@Z		; operator delete
  00017	83 c4 04	 add	 esp, 4
; Line 574
  0001a	83 c4 04	 add	 esp, 4
  0001d	3b ec		 cmp	 ebp, esp
  0001f	e8 00 00 00 00	 call	 __RTC_CheckEsp
  00024	8b e5		 mov	 esp, ebp
  00026	5d		 pop	 ebp
  00027	c2 08 00	 ret	 8
?deallocate@?$allocator@U_Container_proxy@std@@@std@@QAEXPAU_Container_proxy@2@I@Z ENDP ; std::allocator<std::_Container_proxy>::deallocate
_TEXT	ENDS
; Function compile flags: /Odtp /RTCsu
;	COMDAT ??0?$allocator@U_Container_proxy@std@@@std@@QAE@XZ
_TEXT	SEGMENT
_this$ = -4						; size = 4
??0?$allocator@U_Container_proxy@std@@@std@@QAE@XZ PROC	; std::allocator<std::_Container_proxy>::allocator<std::_Container_proxy>, COMDAT
; _this$ = ecx
; File c:\program files (x86)\microsoft visual studio 12.0\vc\include\xmemory0
; Line 552
  00000	55		 push	 ebp
  00001	8b ec		 mov	 ebp, esp
  00003	51		 push	 ecx
  00004	c7 45 fc cc cc
	cc cc		 mov	 DWORD PTR [ebp-4], -858993460 ; ccccccccH
  0000b	89 4d fc	 mov	 DWORD PTR _this$[ebp], ecx
; Line 554
  0000e	8b 45 fc	 mov	 eax, DWORD PTR _this$[ebp]
  00011	8b e5		 mov	 esp, ebp
  00013	5d		 pop	 ebp
  00014	c3		 ret	 0
??0?$allocator@U_Container_proxy@std@@@std@@QAE@XZ ENDP	; std::allocator<std::_Container_proxy>::allocator<std::_Container_proxy>
_TEXT	ENDS
; Function compile flags: /Odtp /RTCsu
;	COMDAT ?_Orphan_me@_Iterator_base12@std@@QAEXXZ
_TEXT	SEGMENT
__Pnext$1 = -8						; size = 4
_this$ = -4						; size = 4
?_Orphan_me@_Iterator_base12@std@@QAEXXZ PROC		; std::_Iterator_base12::_Orphan_me, COMDAT
; _this$ = ecx
; File c:\program files (x86)\microsoft visual studio 12.0\vc\include\xutility
; Line 192
  00000	55		 push	 ebp
  00001	8b ec		 mov	 ebp, esp
  00003	83 ec 08	 sub	 esp, 8
  00006	56		 push	 esi
  00007	c7 45 f8 cc cc
	cc cc		 mov	 DWORD PTR [ebp-8], -858993460 ; ccccccccH
  0000e	c7 45 fc cc cc
	cc cc		 mov	 DWORD PTR [ebp-4], -858993460 ; ccccccccH
  00015	89 4d fc	 mov	 DWORD PTR _this$[ebp], ecx
; Line 194
  00018	8b 45 fc	 mov	 eax, DWORD PTR _this$[ebp]
  0001b	83 38 00	 cmp	 DWORD PTR [eax], 0
  0001e	74 67		 je	 SHORT $LN5@Orphan_me
; Line 196
  00020	8b 4d fc	 mov	 ecx, DWORD PTR _this$[ebp]
  00023	8b 11		 mov	 edx, DWORD PTR [ecx]
  00025	83 c2 04	 add	 edx, 4
  00028	89 55 f8	 mov	 DWORD PTR __Pnext$1[ebp], edx
$LN3@Orphan_me:
; Line 197
  0002b	8b 45 f8	 mov	 eax, DWORD PTR __Pnext$1[ebp]
  0002e	83 38 00	 cmp	 DWORD PTR [eax], 0
  00031	74 17		 je	 SHORT $LN2@Orphan_me
  00033	8b 4d f8	 mov	 ecx, DWORD PTR __Pnext$1[ebp]
  00036	8b 11		 mov	 edx, DWORD PTR [ecx]
  00038	3b 55 fc	 cmp	 edx, DWORD PTR _this$[ebp]
  0003b	74 0d		 je	 SHORT $LN2@Orphan_me
; Line 198
  0003d	8b 45 f8	 mov	 eax, DWORD PTR __Pnext$1[ebp]
  00040	8b 08		 mov	 ecx, DWORD PTR [eax]
  00042	83 c1 04	 add	 ecx, 4
  00045	89 4d f8	 mov	 DWORD PTR __Pnext$1[ebp], ecx
  00048	eb e1		 jmp	 SHORT $LN3@Orphan_me
$LN2@Orphan_me:
; Line 200
  0004a	8b 55 f8	 mov	 edx, DWORD PTR __Pnext$1[ebp]
  0004d	83 3a 00	 cmp	 DWORD PTR [edx], 0
  00050	75 21		 jne	 SHORT $LN1@Orphan_me
; Line 201
  00052	8b f4		 mov	 esi, esp
  00054	68 c9 00 00 00	 push	 201			; 000000c9H
  00059	68 00 00 00 00	 push	 OFFSET ??_C@_1JA@EADLBAJ@?$AAC?$AA?3?$AA?2?$AAP?$AAr?$AAo?$AAg?$AAr?$AAa?$AAm?$AA?5?$AAF?$AAi?$AAl?$AAe?$AAs?$AA?5?$AA?$CI?$AAx?$AA8?$AA6?$AA?$CJ?$AA?2?$AAM?$AAi?$AAc?$AAr?$AAo?$AAs?$AAo?$AAf?$AAt@
  0005e	68 00 00 00 00	 push	 OFFSET ??_C@_1DC@POOIKBAO@?$AAI?$AAT?$AAE?$AAR?$AAA?$AAT?$AAO?$AAR?$AA?5?$AAL?$AAI?$AAS?$AAT?$AA?5?$AAC?$AAO?$AAR?$AAR?$AAU?$AAP?$AAT?$AAE?$AAD?$AA?$CB?$AA?$AA@
  00063	ff 15 00 00 00
	00		 call	 DWORD PTR __imp_?_Debug_message@std@@YAXPB_W0I@Z
  00069	83 c4 0c	 add	 esp, 12			; 0000000cH
  0006c	3b f4		 cmp	 esi, esp
  0006e	e8 00 00 00 00	 call	 __RTC_CheckEsp
$LN1@Orphan_me:
; Line 202
  00073	8b 45 f8	 mov	 eax, DWORD PTR __Pnext$1[ebp]
  00076	8b 4d fc	 mov	 ecx, DWORD PTR _this$[ebp]
  00079	8b 51 04	 mov	 edx, DWORD PTR [ecx+4]
  0007c	89 10		 mov	 DWORD PTR [eax], edx
; Line 203
  0007e	8b 45 fc	 mov	 eax, DWORD PTR _this$[ebp]
  00081	c7 00 00 00 00
	00		 mov	 DWORD PTR [eax], 0
$LN5@Orphan_me:
; Line 206
  00087	5e		 pop	 esi
  00088	83 c4 08	 add	 esp, 8
  0008b	3b ec		 cmp	 ebp, esp
  0008d	e8 00 00 00 00	 call	 __RTC_CheckEsp
  00092	8b e5		 mov	 esp, ebp
  00094	5d		 pop	 ebp
  00095	c3		 ret	 0
?_Orphan_me@_Iterator_base12@std@@QAEXXZ ENDP		; std::_Iterator_base12::_Orphan_me
_TEXT	ENDS
; Function compile flags: /Odtp /RTCsu
;	COMDAT ?_Getpnext@_Iterator_base12@std@@QAEPAPAU12@XZ
_TEXT	SEGMENT
_this$ = -4						; size = 4
?_Getpnext@_Iterator_base12@std@@QAEPAPAU12@XZ PROC	; std::_Iterator_base12::_Getpnext, COMDAT
; _this$ = ecx
; File c:\program files (x86)\microsoft visual studio 12.0\vc\include\xutility
; Line 187
  00000	55		 push	 ebp
  00001	8b ec		 mov	 ebp, esp
  00003	51		 push	 ecx
  00004	c7 45 fc cc cc
	cc cc		 mov	 DWORD PTR [ebp-4], -858993460 ; ccccccccH
  0000b	89 4d fc	 mov	 DWORD PTR _this$[ebp], ecx
; Line 188
  0000e	8b 45 fc	 mov	 eax, DWORD PTR _this$[ebp]
  00011	83 c0 04	 add	 eax, 4
; Line 189
  00014	8b e5		 mov	 esp, ebp
  00016	5d		 pop	 ebp
  00017	c3		 ret	 0
?_Getpnext@_Iterator_base12@std@@QAEPAPAU12@XZ ENDP	; std::_Iterator_base12::_Getpnext
_TEXT	ENDS
; Function compile flags: /Odtp /RTCsu
;	COMDAT ?_Getcont@_Iterator_base12@std@@QBEPBU_Container_base12@2@XZ
_TEXT	SEGMENT
tv68 = -8						; size = 4
_this$ = -4						; size = 4
?_Getcont@_Iterator_base12@std@@QBEPBU_Container_base12@2@XZ PROC ; std::_Iterator_base12::_Getcont, COMDAT
; _this$ = ecx
; File c:\program files (x86)\microsoft visual studio 12.0\vc\include\xutility
; Line 182
  00000	55		 push	 ebp
  00001	8b ec		 mov	 ebp, esp
  00003	83 ec 08	 sub	 esp, 8
  00006	c7 45 f8 cc cc
	cc cc		 mov	 DWORD PTR [ebp-8], -858993460 ; ccccccccH
  0000d	c7 45 fc cc cc
	cc cc		 mov	 DWORD PTR [ebp-4], -858993460 ; ccccccccH
  00014	89 4d fc	 mov	 DWORD PTR _this$[ebp], ecx
; Line 183
  00017	8b 45 fc	 mov	 eax, DWORD PTR _this$[ebp]
  0001a	83 38 00	 cmp	 DWORD PTR [eax], 0
  0001d	75 09		 jne	 SHORT $LN3@Getcont
  0001f	c7 45 f8 00 00
	00 00		 mov	 DWORD PTR tv68[ebp], 0
  00026	eb 0a		 jmp	 SHORT $LN4@Getcont
$LN3@Getcont:
  00028	8b 4d fc	 mov	 ecx, DWORD PTR _this$[ebp]
  0002b	8b 11		 mov	 edx, DWORD PTR [ecx]
  0002d	8b 02		 mov	 eax, DWORD PTR [edx]
  0002f	89 45 f8	 mov	 DWORD PTR tv68[ebp], eax
$LN4@Getcont:
  00032	8b 45 f8	 mov	 eax, DWORD PTR tv68[ebp]
; Line 184
  00035	8b e5		 mov	 esp, ebp
  00037	5d		 pop	 ebp
  00038	c3		 ret	 0
?_Getcont@_Iterator_base12@std@@QBEPBU_Container_base12@2@XZ ENDP ; std::_Iterator_base12::_Getcont
_TEXT	ENDS
; Function compile flags: /Odtp /RTCsu
;	COMDAT ?_Clrcont@_Iterator_base12@std@@QAEXXZ
_TEXT	SEGMENT
_this$ = -4						; size = 4
?_Clrcont@_Iterator_base12@std@@QAEXXZ PROC		; std::_Iterator_base12::_Clrcont, COMDAT
; _this$ = ecx
; File c:\program files (x86)\microsoft visual studio 12.0\vc\include\xutility
; Line 177
  00000	55		 push	 ebp
  00001	8b ec		 mov	 ebp, esp
  00003	51		 push	 ecx
  00004	c7 45 fc cc cc
	cc cc		 mov	 DWORD PTR [ebp-4], -858993460 ; ccccccccH
  0000b	89 4d fc	 mov	 DWORD PTR _this$[ebp], ecx
; Line 178
  0000e	8b 45 fc	 mov	 eax, DWORD PTR _this$[ebp]
  00011	c7 00 00 00 00
	00		 mov	 DWORD PTR [eax], 0
; Line 179
  00017	8b e5		 mov	 esp, ebp
  00019	5d		 pop	 ebp
  0001a	c3		 ret	 0
?_Clrcont@_Iterator_base12@std@@QAEXXZ ENDP		; std::_Iterator_base12::_Clrcont
_TEXT	ENDS
; Function compile flags: /Odtp /RTCsu
;	COMDAT ?_Adopt@_Iterator_base12@std@@QAEXPBU_Container_base12@2@@Z
_TEXT	SEGMENT
__Lock$2 = -40						; size = 4
__Parent_proxy$3 = -32					; size = 4
__Lock$4 = -24						; size = 4
_this$ = -16						; size = 4
__$EHRec$ = -12						; size = 12
__Parent$ = 8						; size = 4
?_Adopt@_Iterator_base12@std@@QAEXPBU_Container_base12@2@@Z PROC ; std::_Iterator_base12::_Adopt, COMDAT
; _this$ = ecx
; File c:\program files (x86)\microsoft visual studio 12.0\vc\include\xutility
; Line 148
  00000	55		 push	 ebp
  00001	8b ec		 mov	 ebp, esp
  00003	6a ff		 push	 -1
  00005	68 00 00 00 00	 push	 __ehhandler$?_Adopt@_Iterator_base12@std@@QAEXPBU_Container_base12@2@@Z
  0000a	64 a1 00 00 00
	00		 mov	 eax, DWORD PTR fs:0
  00010	50		 push	 eax
  00011	83 ec 20	 sub	 esp, 32			; 00000020H
  00014	56		 push	 esi
  00015	b8 cc cc cc cc	 mov	 eax, -858993460		; ccccccccH
  0001a	89 45 d4	 mov	 DWORD PTR [ebp-44], eax
  0001d	89 45 d8	 mov	 DWORD PTR [ebp-40], eax
  00020	89 45 dc	 mov	 DWORD PTR [ebp-36], eax
  00023	89 45 e0	 mov	 DWORD PTR [ebp-32], eax
  00026	89 45 e4	 mov	 DWORD PTR [ebp-28], eax
  00029	89 45 e8	 mov	 DWORD PTR [ebp-24], eax
  0002c	89 45 ec	 mov	 DWORD PTR [ebp-20], eax
  0002f	89 45 f0	 mov	 DWORD PTR [ebp-16], eax
  00032	a1 00 00 00 00	 mov	 eax, DWORD PTR ___security_cookie
  00037	33 c5		 xor	 eax, ebp
  00039	50		 push	 eax
  0003a	8d 45 f4	 lea	 eax, DWORD PTR __$EHRec$[ebp]
  0003d	64 a3 00 00 00
	00		 mov	 DWORD PTR fs:0, eax
  00043	89 4d f0	 mov	 DWORD PTR _this$[ebp], ecx
; Line 149
  00046	83 7d 08 00	 cmp	 DWORD PTR __Parent$[ebp], 0
  0004a	75 3e		 jne	 SHORT $LN3@Adopt
; Line 152
  0004c	8b f4		 mov	 esi, esp
  0004e	6a 03		 push	 3
  00050	8d 4d e8	 lea	 ecx, DWORD PTR __Lock$4[ebp]
  00053	ff 15 00 00 00
	00		 call	 DWORD PTR __imp_??0_Lockit@std@@QAE@H@Z
  00059	3b f4		 cmp	 esi, esp
  0005b	e8 00 00 00 00	 call	 __RTC_CheckEsp
  00060	c7 45 fc 00 00
	00 00		 mov	 DWORD PTR __$EHRec$[ebp+8], 0
; Line 153
  00067	8b 4d f0	 mov	 ecx, DWORD PTR _this$[ebp]
  0006a	e8 00 00 00 00	 call	 ?_Orphan_me@_Iterator_base12@std@@QAEXXZ ; std::_Iterator_base12::_Orphan_me
; Line 155
  0006f	c7 45 fc ff ff
	ff ff		 mov	 DWORD PTR __$EHRec$[ebp+8], -1
  00076	8b f4		 mov	 esi, esp
  00078	8d 4d e8	 lea	 ecx, DWORD PTR __Lock$4[ebp]
  0007b	ff 15 00 00 00
	00		 call	 DWORD PTR __imp_??1_Lockit@std@@QAE@XZ
  00081	3b f4		 cmp	 esi, esp
  00083	e8 00 00 00 00	 call	 __RTC_CheckEsp
; Line 156
  00088	eb 6b		 jmp	 SHORT $LN4@Adopt
$LN3@Adopt:
; Line 158
  0008a	8b 45 08	 mov	 eax, DWORD PTR __Parent$[ebp]
  0008d	8b 08		 mov	 ecx, DWORD PTR [eax]
  0008f	89 4d e0	 mov	 DWORD PTR __Parent_proxy$3[ebp], ecx
; Line 161
  00092	8b 55 f0	 mov	 edx, DWORD PTR _this$[ebp]
  00095	8b 02		 mov	 eax, DWORD PTR [edx]
  00097	3b 45 e0	 cmp	 eax, DWORD PTR __Parent_proxy$3[ebp]
  0009a	74 59		 je	 SHORT $LN4@Adopt
; Line 163
  0009c	8b f4		 mov	 esi, esp
  0009e	6a 03		 push	 3
  000a0	8d 4d d8	 lea	 ecx, DWORD PTR __Lock$2[ebp]
  000a3	ff 15 00 00 00
	00		 call	 DWORD PTR __imp_??0_Lockit@std@@QAE@H@Z
  000a9	3b f4		 cmp	 esi, esp
  000ab	e8 00 00 00 00	 call	 __RTC_CheckEsp
  000b0	c7 45 fc 01 00
	00 00		 mov	 DWORD PTR __$EHRec$[ebp+8], 1
; Line 164
  000b7	8b 4d f0	 mov	 ecx, DWORD PTR _this$[ebp]
  000ba	e8 00 00 00 00	 call	 ?_Orphan_me@_Iterator_base12@std@@QAEXXZ ; std::_Iterator_base12::_Orphan_me
; Line 165
  000bf	8b 4d f0	 mov	 ecx, DWORD PTR _this$[ebp]
  000c2	8b 55 e0	 mov	 edx, DWORD PTR __Parent_proxy$3[ebp]
  000c5	8b 42 04	 mov	 eax, DWORD PTR [edx+4]
  000c8	89 41 04	 mov	 DWORD PTR [ecx+4], eax
; Line 166
  000cb	8b 4d e0	 mov	 ecx, DWORD PTR __Parent_proxy$3[ebp]
  000ce	8b 55 f0	 mov	 edx, DWORD PTR _this$[ebp]
  000d1	89 51 04	 mov	 DWORD PTR [ecx+4], edx
; Line 167
  000d4	8b 45 f0	 mov	 eax, DWORD PTR _this$[ebp]
  000d7	8b 4d e0	 mov	 ecx, DWORD PTR __Parent_proxy$3[ebp]
  000da	89 08		 mov	 DWORD PTR [eax], ecx
; Line 168
  000dc	c7 45 fc ff ff
	ff ff		 mov	 DWORD PTR __$EHRec$[ebp+8], -1
  000e3	8b f4		 mov	 esi, esp
  000e5	8d 4d d8	 lea	 ecx, DWORD PTR __Lock$2[ebp]
  000e8	ff 15 00 00 00
	00		 call	 DWORD PTR __imp_??1_Lockit@std@@QAE@XZ
  000ee	3b f4		 cmp	 esi, esp
  000f0	e8 00 00 00 00	 call	 __RTC_CheckEsp
$LN4@Adopt:
; Line 174
  000f5	52		 push	 edx
  000f6	8b cd		 mov	 ecx, ebp
  000f8	50		 push	 eax
  000f9	8d 15 00 00 00
	00		 lea	 edx, DWORD PTR $LN12@Adopt
  000ff	e8 00 00 00 00	 call	 @_RTC_CheckStackVars@8
  00104	58		 pop	 eax
  00105	5a		 pop	 edx
  00106	8b 4d f4	 mov	 ecx, DWORD PTR __$EHRec$[ebp]
  00109	64 89 0d 00 00
	00 00		 mov	 DWORD PTR fs:0, ecx
  00110	59		 pop	 ecx
  00111	5e		 pop	 esi
  00112	83 c4 2c	 add	 esp, 44			; 0000002cH
  00115	3b ec		 cmp	 ebp, esp
  00117	e8 00 00 00 00	 call	 __RTC_CheckEsp
  0011c	8b e5		 mov	 esp, ebp
  0011e	5d		 pop	 ebp
  0011f	c2 04 00	 ret	 4
  00122	8b ff		 npad	 2
$LN12@Adopt:
  00124	02 00 00 00	 DD	 2
  00128	00 00 00 00	 DD	 $LN11@Adopt
$LN11@Adopt:
  0012c	e8 ff ff ff	 DD	 -24			; ffffffe8H
  00130	04 00 00 00	 DD	 4
  00134	00 00 00 00	 DD	 $LN8@Adopt
  00138	d8 ff ff ff	 DD	 -40			; ffffffd8H
  0013c	04 00 00 00	 DD	 4
  00140	00 00 00 00	 DD	 $LN9@Adopt
$LN9@Adopt:
  00144	5f		 DB	 95			; 0000005fH
  00145	4c		 DB	 76			; 0000004cH
  00146	6f		 DB	 111			; 0000006fH
  00147	63		 DB	 99			; 00000063H
  00148	6b		 DB	 107			; 0000006bH
  00149	00		 DB	 0
$LN8@Adopt:
  0014a	5f		 DB	 95			; 0000005fH
  0014b	4c		 DB	 76			; 0000004cH
  0014c	6f		 DB	 111			; 0000006fH
  0014d	63		 DB	 99			; 00000063H
  0014e	6b		 DB	 107			; 0000006bH
  0014f	00		 DB	 0
_TEXT	ENDS
;	COMDAT text$x
text$x	SEGMENT
__unwindfunclet$?_Adopt@_Iterator_base12@std@@QAEXPBU_Container_base12@2@@Z$0:
  00000	8b f4		 mov	 esi, esp
  00002	8d 4d e8	 lea	 ecx, DWORD PTR __Lock$4[ebp]
  00005	ff 15 00 00 00
	00		 call	 DWORD PTR __imp_??1_Lockit@std@@QAE@XZ
  0000b	3b f4		 cmp	 esi, esp
  0000d	e9 00 00 00 00	 jmp	 __RTC_CheckEsp
__unwindfunclet$?_Adopt@_Iterator_base12@std@@QAEXPBU_Container_base12@2@@Z$1:
  00012	8b f4		 mov	 esi, esp
  00014	8d 4d d8	 lea	 ecx, DWORD PTR __Lock$2[ebp]
  00017	ff 15 00 00 00
	00		 call	 DWORD PTR __imp_??1_Lockit@std@@QAE@XZ
  0001d	3b f4		 cmp	 esi, esp
  0001f	e9 00 00 00 00	 jmp	 __RTC_CheckEsp
__ehhandler$?_Adopt@_Iterator_base12@std@@QAEXPBU_Container_base12@2@@Z:
  00024	8b 54 24 08	 mov	 edx, DWORD PTR [esp+8]
  00028	8d 42 0c	 lea	 eax, DWORD PTR [edx+12]
  0002b	8b 4a d8	 mov	 ecx, DWORD PTR [edx-40]
  0002e	33 c8		 xor	 ecx, eax
  00030	e8 00 00 00 00	 call	 @__security_check_cookie@4
  00035	b8 00 00 00 00	 mov	 eax, OFFSET __ehfuncinfo$?_Adopt@_Iterator_base12@std@@QAEXPBU_Container_base12@2@@Z
  0003a	e9 00 00 00 00	 jmp	 ___CxxFrameHandler3
text$x	ENDS
?_Adopt@_Iterator_base12@std@@QAEXPBU_Container_base12@2@@Z ENDP ; std::_Iterator_base12::_Adopt
; Function compile flags: /Odtp /RTCsu
;	COMDAT ??1_Iterator_base12@std@@QAE@XZ
_TEXT	SEGMENT
__Lock$ = -12						; size = 4
_this$ = -4						; size = 4
??1_Iterator_base12@std@@QAE@XZ PROC			; std::_Iterator_base12::~_Iterator_base12, COMDAT
; _this$ = ecx
; File c:\program files (x86)\microsoft visual studio 12.0\vc\include\xutility
; Line 140
  00000	55		 push	 ebp
  00001	8b ec		 mov	 ebp, esp
  00003	83 ec 10	 sub	 esp, 16			; 00000010H
  00006	56		 push	 esi
  00007	b8 cc cc cc cc	 mov	 eax, -858993460		; ccccccccH
  0000c	89 45 f0	 mov	 DWORD PTR [ebp-16], eax
  0000f	89 45 f4	 mov	 DWORD PTR [ebp-12], eax
  00012	89 45 f8	 mov	 DWORD PTR [ebp-8], eax
  00015	89 45 fc	 mov	 DWORD PTR [ebp-4], eax
  00018	89 4d fc	 mov	 DWORD PTR _this$[ebp], ecx
; Line 142
  0001b	8b f4		 mov	 esi, esp
  0001d	6a 03		 push	 3
  0001f	8d 4d f4	 lea	 ecx, DWORD PTR __Lock$[ebp]
  00022	ff 15 00 00 00
	00		 call	 DWORD PTR __imp_??0_Lockit@std@@QAE@H@Z
  00028	3b f4		 cmp	 esi, esp
  0002a	e8 00 00 00 00	 call	 __RTC_CheckEsp
; Line 143
  0002f	8b 4d fc	 mov	 ecx, DWORD PTR _this$[ebp]
  00032	e8 00 00 00 00	 call	 ?_Orphan_me@_Iterator_base12@std@@QAEXXZ ; std::_Iterator_base12::_Orphan_me
; Line 145
  00037	8b f4		 mov	 esi, esp
  00039	8d 4d f4	 lea	 ecx, DWORD PTR __Lock$[ebp]
  0003c	ff 15 00 00 00
	00		 call	 DWORD PTR __imp_??1_Lockit@std@@QAE@XZ
  00042	3b f4		 cmp	 esi, esp
  00044	e8 00 00 00 00	 call	 __RTC_CheckEsp
  00049	52		 push	 edx
  0004a	8b cd		 mov	 ecx, ebp
  0004c	50		 push	 eax
  0004d	8d 15 00 00 00
	00		 lea	 edx, DWORD PTR $LN5@Iterator_b
  00053	e8 00 00 00 00	 call	 @_RTC_CheckStackVars@8
  00058	58		 pop	 eax
  00059	5a		 pop	 edx
  0005a	5e		 pop	 esi
  0005b	83 c4 10	 add	 esp, 16			; 00000010H
  0005e	3b ec		 cmp	 ebp, esp
  00060	e8 00 00 00 00	 call	 __RTC_CheckEsp
  00065	8b e5		 mov	 esp, ebp
  00067	5d		 pop	 ebp
  00068	c3		 ret	 0
  00069	8d 49 00	 npad	 3
$LN5@Iterator_b:
  0006c	01 00 00 00	 DD	 1
  00070	00 00 00 00	 DD	 $LN4@Iterator_b
$LN4@Iterator_b:
  00074	f4 ff ff ff	 DD	 -12			; fffffff4H
  00078	04 00 00 00	 DD	 4
  0007c	00 00 00 00	 DD	 $LN3@Iterator_b
$LN3@Iterator_b:
  00080	5f		 DB	 95			; 0000005fH
  00081	4c		 DB	 76			; 0000004cH
  00082	6f		 DB	 111			; 0000006fH
  00083	63		 DB	 99			; 00000063H
  00084	6b		 DB	 107			; 0000006bH
  00085	00		 DB	 0
??1_Iterator_base12@std@@QAE@XZ ENDP			; std::_Iterator_base12::~_Iterator_base12
_TEXT	ENDS
; Function compile flags: /Odtp /RTCsu
;	COMDAT ??0_Iterator_base12@std@@QAE@XZ
_TEXT	SEGMENT
_this$ = -4						; size = 4
??0_Iterator_base12@std@@QAE@XZ PROC			; std::_Iterator_base12::_Iterator_base12, COMDAT
; _this$ = ecx
; File c:\program files (x86)\microsoft visual studio 12.0\vc\include\xutility
; Line 114
  00000	55		 push	 ebp
  00001	8b ec		 mov	 ebp, esp
  00003	51		 push	 ecx
  00004	c7 45 fc cc cc
	cc cc		 mov	 DWORD PTR [ebp-4], -858993460 ; ccccccccH
  0000b	89 4d fc	 mov	 DWORD PTR _this$[ebp], ecx
  0000e	8b 45 fc	 mov	 eax, DWORD PTR _this$[ebp]
  00011	c7 00 00 00 00
	00		 mov	 DWORD PTR [eax], 0
  00017	8b 4d fc	 mov	 ecx, DWORD PTR _this$[ebp]
  0001a	c7 41 04 00 00
	00 00		 mov	 DWORD PTR [ecx+4], 0
; Line 115
  00021	8b 45 fc	 mov	 eax, DWORD PTR _this$[ebp]
  00024	8b e5		 mov	 esp, ebp
  00026	5d		 pop	 ebp
  00027	c3		 ret	 0
??0_Iterator_base12@std@@QAE@XZ ENDP			; std::_Iterator_base12::_Iterator_base12
_TEXT	ENDS
; Function compile flags: /Odtp /RTCsu
;	COMDAT ??0_Container_proxy@std@@QAE@XZ
_TEXT	SEGMENT
_this$ = -4						; size = 4
??0_Container_proxy@std@@QAE@XZ PROC			; std::_Container_proxy::_Container_proxy, COMDAT
; _this$ = ecx
; File c:\program files (x86)\microsoft visual studio 12.0\vc\include\xutility
; Line 68
  00000	55		 push	 ebp
  00001	8b ec		 mov	 ebp, esp
  00003	51		 push	 ecx
  00004	c7 45 fc cc cc
	cc cc		 mov	 DWORD PTR [ebp-4], -858993460 ; ccccccccH
  0000b	89 4d fc	 mov	 DWORD PTR _this$[ebp], ecx
  0000e	8b 45 fc	 mov	 eax, DWORD PTR _this$[ebp]
  00011	c7 00 00 00 00
	00		 mov	 DWORD PTR [eax], 0
  00017	8b 4d fc	 mov	 ecx, DWORD PTR _this$[ebp]
  0001a	c7 41 04 00 00
	00 00		 mov	 DWORD PTR [ecx+4], 0
; Line 69
  00021	8b 45 fc	 mov	 eax, DWORD PTR _this$[ebp]
  00024	8b e5		 mov	 esp, ebp
  00026	5d		 pop	 ebp
  00027	c3		 ret	 0
??0_Container_proxy@std@@QAE@XZ ENDP			; std::_Container_proxy::_Container_proxy
_TEXT	ENDS
; Function compile flags: /Odtp /RTCsu
;	COMDAT ?XMMatrixLookToLH@DirectX@@YQ?AUXMMATRIX@1@T__m128@@00@Z
_TEXT	SEGMENT
$T1 = -608						; size = 64
$T2 = -544						; size = 64
$T3 = -480						; size = 16
$T4 = -464						; size = 16
$T5 = -448						; size = 16
_M$ = -416						; size = 64
$T6 = -336						; size = 16
_D2$ = -320						; size = 16
$T7 = -304						; size = 16
_D1$ = -288						; size = 16
$T8 = -272						; size = 16
_D0$ = -256						; size = 16
$T9 = -240						; size = 16
_NegEyePosition$ = -224					; size = 16
$T10 = -208						; size = 16
_R1$ = -192						; size = 16
$T11 = -176						; size = 16
$T12 = -160						; size = 16
_R0$ = -144						; size = 16
$T13 = -128						; size = 16
_R2$ = -112						; size = 16
$T14 = -96						; size = 16
$T15 = -80						; size = 16
_UpDirection$ = -64					; size = 16
_EyeDirection$ = -48					; size = 16
_EyePosition$ = -32					; size = 16
__$ArrayPad$ = -4					; size = 4
?XMMatrixLookToLH@DirectX@@YQ?AUXMMATRIX@1@T__m128@@00@Z PROC ; DirectX::XMMatrixLookToLH, COMDAT
; _EyePosition$ = xmm0
; _EyeDirection$ = xmm1
; _UpDirection$ = xmm2
; File c:\program files (x86)\windows kits\8.1\include\um\directxmathmatrix.inl
; Line 1944
  00000	53		 push	 ebx
  00001	8b dc		 mov	 ebx, esp
  00003	83 ec 08	 sub	 esp, 8
  00006	83 e4 f0	 and	 esp, -16		; fffffff0H
  00009	83 c4 04	 add	 esp, 4
  0000c	55		 push	 ebp
  0000d	8b 6b 04	 mov	 ebp, DWORD PTR [ebx+4]
  00010	89 6c 24 04	 mov	 DWORD PTR [esp+4], ebp
  00014	8b ec		 mov	 ebp, esp
  00016	81 ec 68 02 00
	00		 sub	 esp, 616		; 00000268H
  0001c	56		 push	 esi
  0001d	57		 push	 edi
  0001e	51		 push	 ecx
  0001f	8d bd 98 fd ff
	ff		 lea	 edi, DWORD PTR [ebp-616]
  00025	b9 9a 00 00 00	 mov	 ecx, 154		; 0000009aH
  0002a	b8 cc cc cc cc	 mov	 eax, -858993460		; ccccccccH
  0002f	f3 ab		 rep stosd
  00031	59		 pop	 ecx
  00032	a1 00 00 00 00	 mov	 eax, DWORD PTR ___security_cookie
  00037	33 c5		 xor	 eax, ebp
  00039	89 45 fc	 mov	 DWORD PTR __$ArrayPad$[ebp], eax
  0003c	0f 29 55 c0	 movaps	 XMMWORD PTR _UpDirection$[ebp], xmm2
  00040	0f 29 4d d0	 movaps	 XMMWORD PTR _EyeDirection$[ebp], xmm1
  00044	0f 29 45 e0	 movaps	 XMMWORD PTR _EyePosition$[ebp], xmm0
; Line 1945
  00048	e8 00 00 00 00	 call	 ?XMVectorZero@DirectX@@YQ?AT__m128@@XZ ; DirectX::XMVectorZero
  0004d	0f 29 45 b0	 movaps	 XMMWORD PTR $T15[ebp], xmm0
  00051	0f 28 4d b0	 movaps	 xmm1, XMMWORD PTR $T15[ebp]
  00055	0f 28 45 d0	 movaps	 xmm0, XMMWORD PTR _EyeDirection$[ebp]
  00059	e8 00 00 00 00	 call	 ?XMVector3Equal@DirectX@@YQ_NT__m128@@0@Z ; DirectX::XMVector3Equal
  0005e	0f b6 c0	 movzx	 eax, al
  00061	85 c0		 test	 eax, eax
  00063	74 21		 je	 SHORT $LN3@XMMatrixLo
  00065	8b f4		 mov	 esi, esp
  00067	68 99 07 00 00	 push	 1945			; 00000799H
  0006c	68 00 00 00 00	 push	 OFFSET ??_C@_1JC@FPIPICAN@?$AAc?$AA?3?$AA?2?$AAp?$AAr?$AAo?$AAg?$AAr?$AAa?$AAm?$AA?5?$AAf?$AAi?$AAl?$AAe?$AAs?$AA?5?$AA?$CI?$AAx?$AA8?$AA6?$AA?$CJ?$AA?2?$AAw?$AAi?$AAn?$AAd?$AAo?$AAw?$AAs?$AA?5?$AAk@
  00071	68 00 00 00 00	 push	 OFFSET ??_C@_1FM@KOIPKFLA@?$AA?$CB?$AAX?$AAM?$AAV?$AAe?$AAc?$AAt?$AAo?$AAr?$AA3?$AAE?$AAq?$AAu?$AAa?$AAl?$AA?$CI?$AAE?$AAy?$AAe?$AAD?$AAi?$AAr?$AAe?$AAc?$AAt?$AAi?$AAo?$AAn?$AA?0?$AA?5?$AAX?$AAM@
  00076	ff 15 00 00 00
	00		 call	 DWORD PTR __imp___wassert
  0007c	83 c4 0c	 add	 esp, 12			; 0000000cH
  0007f	3b f4		 cmp	 esi, esp
  00081	e8 00 00 00 00	 call	 __RTC_CheckEsp
$LN3@XMMatrixLo:
; Line 1946
  00086	0f 28 45 d0	 movaps	 xmm0, XMMWORD PTR _EyeDirection$[ebp]
  0008a	e8 00 00 00 00	 call	 ?XMVector3IsInfinite@DirectX@@YQ_NT__m128@@@Z ; DirectX::XMVector3IsInfinite
  0008f	0f b6 d0	 movzx	 edx, al
  00092	85 d2		 test	 edx, edx
  00094	74 21		 je	 SHORT $LN4@XMMatrixLo
  00096	8b f4		 mov	 esi, esp
  00098	68 9a 07 00 00	 push	 1946			; 0000079aH
  0009d	68 00 00 00 00	 push	 OFFSET ??_C@_1JC@FPIPICAN@?$AAc?$AA?3?$AA?2?$AAp?$AAr?$AAo?$AAg?$AAr?$AAa?$AAm?$AA?5?$AAf?$AAi?$AAl?$AAe?$AAs?$AA?5?$AA?$CI?$AAx?$AA8?$AA6?$AA?$CJ?$AA?2?$AAw?$AAi?$AAn?$AAd?$AAo?$AAw?$AAs?$AA?5?$AAk@
  000a2	68 00 00 00 00	 push	 OFFSET ??_C@_1EG@DOFHPLOD@?$AA?$CB?$AAX?$AAM?$AAV?$AAe?$AAc?$AAt?$AAo?$AAr?$AA3?$AAI?$AAs?$AAI?$AAn?$AAf?$AAi?$AAn?$AAi?$AAt?$AAe?$AA?$CI?$AAE?$AAy?$AAe?$AAD?$AAi?$AAr?$AAe?$AAc?$AAt?$AAi?$AAo@
  000a7	ff 15 00 00 00
	00		 call	 DWORD PTR __imp___wassert
  000ad	83 c4 0c	 add	 esp, 12			; 0000000cH
  000b0	3b f4		 cmp	 esi, esp
  000b2	e8 00 00 00 00	 call	 __RTC_CheckEsp
$LN4@XMMatrixLo:
; Line 1947
  000b7	e8 00 00 00 00	 call	 ?XMVectorZero@DirectX@@YQ?AT__m128@@XZ ; DirectX::XMVectorZero
  000bc	0f 29 45 a0	 movaps	 XMMWORD PTR $T14[ebp], xmm0
  000c0	0f 28 4d a0	 movaps	 xmm1, XMMWORD PTR $T14[ebp]
  000c4	0f 28 45 c0	 movaps	 xmm0, XMMWORD PTR _UpDirection$[ebp]
  000c8	e8 00 00 00 00	 call	 ?XMVector3Equal@DirectX@@YQ_NT__m128@@0@Z ; DirectX::XMVector3Equal
  000cd	0f b6 c8	 movzx	 ecx, al
  000d0	85 c9		 test	 ecx, ecx
  000d2	74 21		 je	 SHORT $LN5@XMMatrixLo
  000d4	8b f4		 mov	 esi, esp
  000d6	68 9b 07 00 00	 push	 1947			; 0000079bH
  000db	68 00 00 00 00	 push	 OFFSET ??_C@_1JC@FPIPICAN@?$AAc?$AA?3?$AA?2?$AAp?$AAr?$AAo?$AAg?$AAr?$AAa?$AAm?$AA?5?$AAf?$AAi?$AAl?$AAe?$AAs?$AA?5?$AA?$CI?$AAx?$AA8?$AA6?$AA?$CJ?$AA?2?$AAw?$AAi?$AAn?$AAd?$AAo?$AAw?$AAs?$AA?5?$AAk@
  000e0	68 00 00 00 00	 push	 OFFSET ??_C@_1FK@IBPGMKAB@?$AA?$CB?$AAX?$AAM?$AAV?$AAe?$AAc?$AAt?$AAo?$AAr?$AA3?$AAE?$AAq?$AAu?$AAa?$AAl?$AA?$CI?$AAU?$AAp?$AAD?$AAi?$AAr?$AAe?$AAc?$AAt?$AAi?$AAo?$AAn?$AA?0?$AA?5?$AAX?$AAM?$AAV@
  000e5	ff 15 00 00 00
	00		 call	 DWORD PTR __imp___wassert
  000eb	83 c4 0c	 add	 esp, 12			; 0000000cH
  000ee	3b f4		 cmp	 esi, esp
  000f0	e8 00 00 00 00	 call	 __RTC_CheckEsp
$LN5@XMMatrixLo:
; Line 1948
  000f5	0f 28 45 c0	 movaps	 xmm0, XMMWORD PTR _UpDirection$[ebp]
  000f9	e8 00 00 00 00	 call	 ?XMVector3IsInfinite@DirectX@@YQ_NT__m128@@@Z ; DirectX::XMVector3IsInfinite
  000fe	0f b6 c0	 movzx	 eax, al
  00101	85 c0		 test	 eax, eax
  00103	74 21		 je	 SHORT $LN6@XMMatrixLo
  00105	8b f4		 mov	 esi, esp
  00107	68 9c 07 00 00	 push	 1948			; 0000079cH
  0010c	68 00 00 00 00	 push	 OFFSET ??_C@_1JC@FPIPICAN@?$AAc?$AA?3?$AA?2?$AAp?$AAr?$AAo?$AAg?$AAr?$AAa?$AAm?$AA?5?$AAf?$AAi?$AAl?$AAe?$AAs?$AA?5?$AA?$CI?$AAx?$AA8?$AA6?$AA?$CJ?$AA?2?$AAw?$AAi?$AAn?$AAd?$AAo?$AAw?$AAs?$AA?5?$AAk@
  00111	68 00 00 00 00	 push	 OFFSET ??_C@_1EE@JAOFAOOK@?$AA?$CB?$AAX?$AAM?$AAV?$AAe?$AAc?$AAt?$AAo?$AAr?$AA3?$AAI?$AAs?$AAI?$AAn?$AAf?$AAi?$AAn?$AAi?$AAt?$AAe?$AA?$CI?$AAU?$AAp?$AAD?$AAi?$AAr?$AAe?$AAc?$AAt?$AAi?$AAo?$AAn@
  00116	ff 15 00 00 00
	00		 call	 DWORD PTR __imp___wassert
  0011c	83 c4 0c	 add	 esp, 12			; 0000000cH
  0011f	3b f4		 cmp	 esi, esp
  00121	e8 00 00 00 00	 call	 __RTC_CheckEsp
$LN6@XMMatrixLo:
; Line 1952
  00126	0f 28 45 d0	 movaps	 xmm0, XMMWORD PTR _EyeDirection$[ebp]
  0012a	e8 00 00 00 00	 call	 ?XMVector3Normalize@DirectX@@YQ?AT__m128@@T2@@Z ; DirectX::XMVector3Normalize
  0012f	0f 29 45 80	 movaps	 XMMWORD PTR $T13[ebp], xmm0
  00133	0f 28 45 80	 movaps	 xmm0, XMMWORD PTR $T13[ebp]
  00137	0f 29 45 90	 movaps	 XMMWORD PTR _R2$[ebp], xmm0
; Line 1954
  0013b	0f 28 4d 90	 movaps	 xmm1, XMMWORD PTR _R2$[ebp]
  0013f	0f 28 45 c0	 movaps	 xmm0, XMMWORD PTR _UpDirection$[ebp]
  00143	e8 00 00 00 00	 call	 ?XMVector3Cross@DirectX@@YQ?AT__m128@@T2@0@Z ; DirectX::XMVector3Cross
  00148	0f 29 85 60 ff
	ff ff		 movaps	 XMMWORD PTR $T12[ebp], xmm0
  0014f	0f 28 85 60 ff
	ff ff		 movaps	 xmm0, XMMWORD PTR $T12[ebp]
  00156	0f 29 85 70 ff
	ff ff		 movaps	 XMMWORD PTR _R0$[ebp], xmm0
; Line 1955
  0015d	0f 28 85 70 ff
	ff ff		 movaps	 xmm0, XMMWORD PTR _R0$[ebp]
  00164	e8 00 00 00 00	 call	 ?XMVector3Normalize@DirectX@@YQ?AT__m128@@T2@@Z ; DirectX::XMVector3Normalize
  00169	0f 29 85 50 ff
	ff ff		 movaps	 XMMWORD PTR $T11[ebp], xmm0
  00170	0f 28 85 50 ff
	ff ff		 movaps	 xmm0, XMMWORD PTR $T11[ebp]
  00177	0f 29 85 70 ff
	ff ff		 movaps	 XMMWORD PTR _R0$[ebp], xmm0
; Line 1957
  0017e	0f 28 8d 70 ff
	ff ff		 movaps	 xmm1, XMMWORD PTR _R0$[ebp]
  00185	0f 28 45 90	 movaps	 xmm0, XMMWORD PTR _R2$[ebp]
  00189	e8 00 00 00 00	 call	 ?XMVector3Cross@DirectX@@YQ?AT__m128@@T2@0@Z ; DirectX::XMVector3Cross
  0018e	0f 29 85 30 ff
	ff ff		 movaps	 XMMWORD PTR $T10[ebp], xmm0
  00195	0f 28 85 30 ff
	ff ff		 movaps	 xmm0, XMMWORD PTR $T10[ebp]
  0019c	0f 29 85 40 ff
	ff ff		 movaps	 XMMWORD PTR _R1$[ebp], xmm0
; Line 1959
  001a3	0f 28 45 e0	 movaps	 xmm0, XMMWORD PTR _EyePosition$[ebp]
  001a7	e8 00 00 00 00	 call	 ?XMVectorNegate@DirectX@@YQ?AT__m128@@T2@@Z ; DirectX::XMVectorNegate
  001ac	0f 29 85 10 ff
	ff ff		 movaps	 XMMWORD PTR $T9[ebp], xmm0
  001b3	0f 28 85 10 ff
	ff ff		 movaps	 xmm0, XMMWORD PTR $T9[ebp]
  001ba	0f 29 85 20 ff
	ff ff		 movaps	 XMMWORD PTR _NegEyePosition$[ebp], xmm0
; Line 1961
  001c1	0f 28 8d 20 ff
	ff ff		 movaps	 xmm1, XMMWORD PTR _NegEyePosition$[ebp]
  001c8	0f 28 85 70 ff
	ff ff		 movaps	 xmm0, XMMWORD PTR _R0$[ebp]
  001cf	e8 00 00 00 00	 call	 ?XMVector3Dot@DirectX@@YQ?AT__m128@@T2@0@Z ; DirectX::XMVector3Dot
  001d4	0f 29 85 f0 fe
	ff ff		 movaps	 XMMWORD PTR $T8[ebp], xmm0
  001db	0f 28 85 f0 fe
	ff ff		 movaps	 xmm0, XMMWORD PTR $T8[ebp]
  001e2	0f 29 85 00 ff
	ff ff		 movaps	 XMMWORD PTR _D0$[ebp], xmm0
; Line 1962
  001e9	0f 28 8d 20 ff
	ff ff		 movaps	 xmm1, XMMWORD PTR _NegEyePosition$[ebp]
  001f0	0f 28 85 40 ff
	ff ff		 movaps	 xmm0, XMMWORD PTR _R1$[ebp]
  001f7	e8 00 00 00 00	 call	 ?XMVector3Dot@DirectX@@YQ?AT__m128@@T2@0@Z ; DirectX::XMVector3Dot
  001fc	0f 29 85 d0 fe
	ff ff		 movaps	 XMMWORD PTR $T7[ebp], xmm0
  00203	0f 28 85 d0 fe
	ff ff		 movaps	 xmm0, XMMWORD PTR $T7[ebp]
  0020a	0f 29 85 e0 fe
	ff ff		 movaps	 XMMWORD PTR _D1$[ebp], xmm0
; Line 1963
  00211	0f 28 8d 20 ff
	ff ff		 movaps	 xmm1, XMMWORD PTR _NegEyePosition$[ebp]
  00218	0f 28 45 90	 movaps	 xmm0, XMMWORD PTR _R2$[ebp]
  0021c	e8 00 00 00 00	 call	 ?XMVector3Dot@DirectX@@YQ?AT__m128@@T2@0@Z ; DirectX::XMVector3Dot
  00221	0f 29 85 b0 fe
	ff ff		 movaps	 XMMWORD PTR $T6[ebp], xmm0
  00228	0f 28 85 b0 fe
	ff ff		 movaps	 xmm0, XMMWORD PTR $T6[ebp]
  0022f	0f 29 85 c0 fe
	ff ff		 movaps	 XMMWORD PTR _D2$[ebp], xmm0
; Line 1965
  00236	8d 8d 60 fe ff
	ff		 lea	 ecx, DWORD PTR _M$[ebp]
  0023c	e8 00 00 00 00	 call	 ??0XMMATRIX@DirectX@@QAE@XZ ; DirectX::XMMATRIX::XMMATRIX
; Line 1966
  00241	0f 28 15 00 00
	00 00		 movaps	 xmm2, XMMWORD PTR ?g_XMSelect1110@DirectX@@3UXMVECTORI32@1@B
  00248	0f 28 8d 70 ff
	ff ff		 movaps	 xmm1, XMMWORD PTR _R0$[ebp]
  0024f	0f 28 85 00 ff
	ff ff		 movaps	 xmm0, XMMWORD PTR _D0$[ebp]
  00256	e8 00 00 00 00	 call	 ?XMVectorSelect@DirectX@@YQ?AT__m128@@T2@00@Z ; DirectX::XMVectorSelect
  0025b	0f 29 85 40 fe
	ff ff		 movaps	 XMMWORD PTR $T5[ebp], xmm0
  00262	ba 10 00 00 00	 mov	 edx, 16			; 00000010H
  00267	6b c2 00	 imul	 eax, edx, 0
  0026a	0f 10 85 40 fe
	ff ff		 movups	 xmm0, XMMWORD PTR $T5[ebp]
  00271	0f 11 84 05 60
	fe ff ff	 movups	 XMMWORD PTR _M$[ebp+eax], xmm0
; Line 1967
  00279	0f 28 15 00 00
	00 00		 movaps	 xmm2, XMMWORD PTR ?g_XMSelect1110@DirectX@@3UXMVECTORI32@1@B
  00280	0f 28 8d 40 ff
	ff ff		 movaps	 xmm1, XMMWORD PTR _R1$[ebp]
  00287	0f 28 85 e0 fe
	ff ff		 movaps	 xmm0, XMMWORD PTR _D1$[ebp]
  0028e	e8 00 00 00 00	 call	 ?XMVectorSelect@DirectX@@YQ?AT__m128@@T2@00@Z ; DirectX::XMVectorSelect
  00293	0f 29 85 30 fe
	ff ff		 movaps	 XMMWORD PTR $T4[ebp], xmm0
  0029a	b9 10 00 00 00	 mov	 ecx, 16			; 00000010H
  0029f	c1 e1 00	 shl	 ecx, 0
  002a2	0f 10 85 30 fe
	ff ff		 movups	 xmm0, XMMWORD PTR $T4[ebp]
  002a9	0f 11 84 0d 60
	fe ff ff	 movups	 XMMWORD PTR _M$[ebp+ecx], xmm0
; Line 1968
  002b1	0f 28 15 00 00
	00 00		 movaps	 xmm2, XMMWORD PTR ?g_XMSelect1110@DirectX@@3UXMVECTORI32@1@B
  002b8	0f 28 4d 90	 movaps	 xmm1, XMMWORD PTR _R2$[ebp]
  002bc	0f 28 85 c0 fe
	ff ff		 movaps	 xmm0, XMMWORD PTR _D2$[ebp]
  002c3	e8 00 00 00 00	 call	 ?XMVectorSelect@DirectX@@YQ?AT__m128@@T2@00@Z ; DirectX::XMVectorSelect
  002c8	0f 29 85 20 fe
	ff ff		 movaps	 XMMWORD PTR $T3[ebp], xmm0
  002cf	ba 10 00 00 00	 mov	 edx, 16			; 00000010H
  002d4	d1 e2		 shl	 edx, 1
  002d6	0f 10 85 20 fe
	ff ff		 movups	 xmm0, XMMWORD PTR $T3[ebp]
  002dd	0f 11 84 15 60
	fe ff ff	 movups	 XMMWORD PTR _M$[ebp+edx], xmm0
; Line 1969
  002e5	b8 10 00 00 00	 mov	 eax, 16			; 00000010H
  002ea	6b c8 03	 imul	 ecx, eax, 3
  002ed	0f 10 05 00 00
	00 00		 movups	 xmm0, XMMWORD PTR ?g_XMIdentityR3@DirectX@@3UXMVECTORF32@1@B
  002f4	0f 11 84 0d 60
	fe ff ff	 movups	 XMMWORD PTR _M$[ebp+ecx], xmm0
; Line 1971
  002fc	0f 28 85 60 fe
	ff ff		 movaps	 xmm0, XMMWORD PTR _M$[ebp]
  00303	0f 28 8d 70 fe
	ff ff		 movaps	 xmm1, XMMWORD PTR _M$[ebp+16]
  0030a	0f 28 95 80 fe
	ff ff		 movaps	 xmm2, XMMWORD PTR _M$[ebp+32]
  00311	0f 28 9d 90 fe
	ff ff		 movaps	 xmm3, XMMWORD PTR _M$[ebp+48]
  00318	e8 00 00 00 00	 call	 ?XMMatrixTranspose@DirectX@@YQ?AUXMMATRIX@1@U21@@Z ; DirectX::XMMatrixTranspose
  0031d	0f 29 9d d0 fd
	ff ff		 movaps	 XMMWORD PTR $T1[ebp+48], xmm3
  00324	0f 29 95 c0 fd
	ff ff		 movaps	 XMMWORD PTR $T1[ebp+32], xmm2
  0032b	0f 29 8d b0 fd
	ff ff		 movaps	 XMMWORD PTR $T1[ebp+16], xmm1
  00332	0f 29 85 a0 fd
	ff ff		 movaps	 XMMWORD PTR $T1[ebp], xmm0
  00339	b9 10 00 00 00	 mov	 ecx, 16			; 00000010H
  0033e	8d b5 a0 fd ff
	ff		 lea	 esi, DWORD PTR $T1[ebp]
  00344	8d bd e0 fd ff
	ff		 lea	 edi, DWORD PTR $T2[ebp]
  0034a	f3 a5		 rep movsd
  0034c	8d 95 e0 fd ff
	ff		 lea	 edx, DWORD PTR $T2[ebp]
  00352	52		 push	 edx
  00353	8d 8d 60 fe ff
	ff		 lea	 ecx, DWORD PTR _M$[ebp]
  00359	e8 00 00 00 00	 call	 ??4XMMATRIX@DirectX@@QAEAAU01@ABU01@@Z ; DirectX::XMMATRIX::operator=
; Line 1973
  0035e	0f 28 85 60 fe
	ff ff		 movaps	 xmm0, XMMWORD PTR _M$[ebp]
  00365	0f 28 8d 70 fe
	ff ff		 movaps	 xmm1, XMMWORD PTR _M$[ebp+16]
  0036c	0f 28 95 80 fe
	ff ff		 movaps	 xmm2, XMMWORD PTR _M$[ebp+32]
  00373	0f 28 9d 90 fe
	ff ff		 movaps	 xmm3, XMMWORD PTR _M$[ebp+48]
; Line 1977
  0037a	52		 push	 edx
  0037b	8b cd		 mov	 ecx, ebp
  0037d	50		 push	 eax
  0037e	8d 15 00 00 00
	00		 lea	 edx, DWORD PTR $LN9@XMMatrixLo
  00384	e8 00 00 00 00	 call	 @_RTC_CheckStackVars@8
  00389	58		 pop	 eax
  0038a	5a		 pop	 edx
  0038b	5f		 pop	 edi
  0038c	5e		 pop	 esi
  0038d	8b 4d fc	 mov	 ecx, DWORD PTR __$ArrayPad$[ebp]
  00390	33 cd		 xor	 ecx, ebp
  00392	e8 00 00 00 00	 call	 @__security_check_cookie@4
  00397	8b e5		 mov	 esp, ebp
  00399	5d		 pop	 ebp
  0039a	8b e3		 mov	 esp, ebx
  0039c	5b		 pop	 ebx
  0039d	c3		 ret	 0
  0039e	8b ff		 npad	 2
$LN9@XMMatrixLo:
  003a0	01 00 00 00	 DD	 1
  003a4	00 00 00 00	 DD	 $LN8@XMMatrixLo
$LN8@XMMatrixLo:
  003a8	60 fe ff ff	 DD	 -416			; fffffe60H
  003ac	40 00 00 00	 DD	 64			; 00000040H
  003b0	00 00 00 00	 DD	 $LN7@XMMatrixLo
$LN7@XMMatrixLo:
  003b4	4d		 DB	 77			; 0000004dH
  003b5	00		 DB	 0
?XMMatrixLookToLH@DirectX@@YQ?AUXMMATRIX@1@T__m128@@00@Z ENDP ; DirectX::XMMatrixLookToLH
_TEXT	ENDS
; Function compile flags: /Odtp /RTCsu
;	COMDAT ?XMMatrixLookAtLH@DirectX@@YQ?AUXMMATRIX@1@T__m128@@00@Z
_TEXT	SEGMENT
$T1 = -224						; size = 64
$T2 = -160						; size = 64
$T3 = -96						; size = 16
_EyeDirection$ = -80					; size = 16
_UpDirection$ = -64					; size = 16
_FocusPosition$ = -48					; size = 16
_EyePosition$ = -32					; size = 16
__$ArrayPad$ = -4					; size = 4
?XMMatrixLookAtLH@DirectX@@YQ?AUXMMATRIX@1@T__m128@@00@Z PROC ; DirectX::XMMatrixLookAtLH, COMDAT
; _EyePosition$ = xmm0
; _FocusPosition$ = xmm1
; _UpDirection$ = xmm2
; File c:\program files (x86)\windows kits\8.1\include\um\directxmathmatrix.inl
; Line 1918
  00000	53		 push	 ebx
  00001	8b dc		 mov	 ebx, esp
  00003	83 ec 08	 sub	 esp, 8
  00006	83 e4 f0	 and	 esp, -16		; fffffff0H
  00009	83 c4 04	 add	 esp, 4
  0000c	55		 push	 ebp
  0000d	8b 6b 04	 mov	 ebp, DWORD PTR [ebx+4]
  00010	89 6c 24 04	 mov	 DWORD PTR [esp+4], ebp
  00014	8b ec		 mov	 ebp, esp
  00016	81 ec e8 00 00
	00		 sub	 esp, 232		; 000000e8H
  0001c	56		 push	 esi
  0001d	57		 push	 edi
  0001e	51		 push	 ecx
  0001f	8d bd 18 ff ff
	ff		 lea	 edi, DWORD PTR [ebp-232]
  00025	b9 3a 00 00 00	 mov	 ecx, 58			; 0000003aH
  0002a	b8 cc cc cc cc	 mov	 eax, -858993460		; ccccccccH
  0002f	f3 ab		 rep stosd
  00031	59		 pop	 ecx
  00032	a1 00 00 00 00	 mov	 eax, DWORD PTR ___security_cookie
  00037	33 c5		 xor	 eax, ebp
  00039	89 45 fc	 mov	 DWORD PTR __$ArrayPad$[ebp], eax
  0003c	0f 29 55 c0	 movaps	 XMMWORD PTR _UpDirection$[ebp], xmm2
  00040	0f 29 4d d0	 movaps	 XMMWORD PTR _FocusPosition$[ebp], xmm1
  00044	0f 29 45 e0	 movaps	 XMMWORD PTR _EyePosition$[ebp], xmm0
; Line 1919
  00048	0f 28 4d e0	 movaps	 xmm1, XMMWORD PTR _EyePosition$[ebp]
  0004c	0f 28 45 d0	 movaps	 xmm0, XMMWORD PTR _FocusPosition$[ebp]
  00050	e8 00 00 00 00	 call	 ?XMVectorSubtract@DirectX@@YQ?AT__m128@@T2@0@Z ; DirectX::XMVectorSubtract
  00055	0f 29 45 a0	 movaps	 XMMWORD PTR $T3[ebp], xmm0
  00059	0f 28 45 a0	 movaps	 xmm0, XMMWORD PTR $T3[ebp]
  0005d	0f 29 45 b0	 movaps	 XMMWORD PTR _EyeDirection$[ebp], xmm0
; Line 1920
  00061	0f 28 55 c0	 movaps	 xmm2, XMMWORD PTR _UpDirection$[ebp]
  00065	0f 28 4d b0	 movaps	 xmm1, XMMWORD PTR _EyeDirection$[ebp]
  00069	0f 28 45 e0	 movaps	 xmm0, XMMWORD PTR _EyePosition$[ebp]
  0006d	e8 00 00 00 00	 call	 ?XMMatrixLookToLH@DirectX@@YQ?AUXMMATRIX@1@T__m128@@00@Z ; DirectX::XMMatrixLookToLH
  00072	0f 29 9d 50 ff
	ff ff		 movaps	 XMMWORD PTR $T1[ebp+48], xmm3
  00079	0f 29 95 40 ff
	ff ff		 movaps	 XMMWORD PTR $T1[ebp+32], xmm2
  00080	0f 29 8d 30 ff
	ff ff		 movaps	 XMMWORD PTR $T1[ebp+16], xmm1
  00087	0f 29 85 20 ff
	ff ff		 movaps	 XMMWORD PTR $T1[ebp], xmm0
  0008e	b9 10 00 00 00	 mov	 ecx, 16			; 00000010H
  00093	8d b5 20 ff ff
	ff		 lea	 esi, DWORD PTR $T1[ebp]
  00099	8d bd 60 ff ff
	ff		 lea	 edi, DWORD PTR $T2[ebp]
  0009f	f3 a5		 rep movsd
  000a1	0f 28 85 60 ff
	ff ff		 movaps	 xmm0, XMMWORD PTR $T2[ebp]
  000a8	0f 28 8d 70 ff
	ff ff		 movaps	 xmm1, XMMWORD PTR $T2[ebp+16]
  000af	0f 28 55 80	 movaps	 xmm2, XMMWORD PTR $T2[ebp+32]
  000b3	0f 28 5d 90	 movaps	 xmm3, XMMWORD PTR $T2[ebp+48]
; Line 1921
  000b7	5f		 pop	 edi
  000b8	5e		 pop	 esi
  000b9	8b 4d fc	 mov	 ecx, DWORD PTR __$ArrayPad$[ebp]
  000bc	33 cd		 xor	 ecx, ebp
  000be	e8 00 00 00 00	 call	 @__security_check_cookie@4
  000c3	8b e5		 mov	 esp, ebp
  000c5	5d		 pop	 ebp
  000c6	8b e3		 mov	 esp, ebx
  000c8	5b		 pop	 ebx
  000c9	c3		 ret	 0
?XMMatrixLookAtLH@DirectX@@YQ?AUXMMATRIX@1@T__m128@@00@Z ENDP ; DirectX::XMMatrixLookAtLH
_TEXT	ENDS
; Function compile flags: /Odtp /RTCsu
;	COMDAT ?XMMatrixIdentity@DirectX@@YQ?AUXMMATRIX@1@XZ
_TEXT	SEGMENT
_M$ = -80						; size = 64
__$ArrayPad$ = -4					; size = 4
?XMMatrixIdentity@DirectX@@YQ?AUXMMATRIX@1@XZ PROC	; DirectX::XMMatrixIdentity, COMDAT
; File c:\program files (x86)\windows kits\8.1\include\um\directxmathmatrix.inl
; Line 1032
  00000	53		 push	 ebx
  00001	8b dc		 mov	 ebx, esp
  00003	83 ec 08	 sub	 esp, 8
  00006	83 e4 f0	 and	 esp, -16		; fffffff0H
  00009	83 c4 04	 add	 esp, 4
  0000c	55		 push	 ebp
  0000d	8b 6b 04	 mov	 ebp, DWORD PTR [ebx+4]
  00010	89 6c 24 04	 mov	 DWORD PTR [esp+4], ebp
  00014	8b ec		 mov	 ebp, esp
  00016	83 ec 60	 sub	 esp, 96			; 00000060H
  00019	57		 push	 edi
  0001a	51		 push	 ecx
  0001b	8d 7d a0	 lea	 edi, DWORD PTR [ebp-96]
  0001e	b9 18 00 00 00	 mov	 ecx, 24			; 00000018H
  00023	b8 cc cc cc cc	 mov	 eax, -858993460		; ccccccccH
  00028	f3 ab		 rep stosd
  0002a	59		 pop	 ecx
  0002b	a1 00 00 00 00	 mov	 eax, DWORD PTR ___security_cookie
  00030	33 c5		 xor	 eax, ebp
  00032	89 45 fc	 mov	 DWORD PTR __$ArrayPad$[ebp], eax
; Line 1035
  00035	8d 4d b0	 lea	 ecx, DWORD PTR _M$[ebp]
  00038	e8 00 00 00 00	 call	 ??0XMMATRIX@DirectX@@QAE@XZ ; DirectX::XMMATRIX::XMMATRIX
; Line 1036
  0003d	b8 10 00 00 00	 mov	 eax, 16			; 00000010H
  00042	6b c8 00	 imul	 ecx, eax, 0
  00045	0f 10 05 00 00
	00 00		 movups	 xmm0, XMMWORD PTR ?g_XMIdentityR0@DirectX@@3UXMVECTORF32@1@B
  0004c	0f 11 44 0d b0	 movups	 XMMWORD PTR _M$[ebp+ecx], xmm0
; Line 1037
  00051	ba 10 00 00 00	 mov	 edx, 16			; 00000010H
  00056	c1 e2 00	 shl	 edx, 0
  00059	0f 10 05 00 00
	00 00		 movups	 xmm0, XMMWORD PTR ?g_XMIdentityR1@DirectX@@3UXMVECTORF32@1@B
  00060	0f 11 44 15 b0	 movups	 XMMWORD PTR _M$[ebp+edx], xmm0
; Line 1038
  00065	b8 10 00 00 00	 mov	 eax, 16			; 00000010H
  0006a	d1 e0		 shl	 eax, 1
  0006c	0f 10 05 00 00
	00 00		 movups	 xmm0, XMMWORD PTR ?g_XMIdentityR2@DirectX@@3UXMVECTORF32@1@B
  00073	0f 11 44 05 b0	 movups	 XMMWORD PTR _M$[ebp+eax], xmm0
; Line 1039
  00078	b9 10 00 00 00	 mov	 ecx, 16			; 00000010H
  0007d	6b d1 03	 imul	 edx, ecx, 3
  00080	0f 10 05 00 00
	00 00		 movups	 xmm0, XMMWORD PTR ?g_XMIdentityR3@DirectX@@3UXMVECTORF32@1@B
  00087	0f 11 44 15 b0	 movups	 XMMWORD PTR _M$[ebp+edx], xmm0
; Line 1040
  0008c	0f 28 45 b0	 movaps	 xmm0, XMMWORD PTR _M$[ebp]
  00090	0f 28 4d c0	 movaps	 xmm1, XMMWORD PTR _M$[ebp+16]
  00094	0f 28 55 d0	 movaps	 xmm2, XMMWORD PTR _M$[ebp+32]
  00098	0f 28 5d e0	 movaps	 xmm3, XMMWORD PTR _M$[ebp+48]
; Line 1044
  0009c	52		 push	 edx
  0009d	8b cd		 mov	 ecx, ebp
  0009f	50		 push	 eax
  000a0	8d 15 00 00 00
	00		 lea	 edx, DWORD PTR $LN5@XMMatrixId
  000a6	e8 00 00 00 00	 call	 @_RTC_CheckStackVars@8
  000ab	58		 pop	 eax
  000ac	5a		 pop	 edx
  000ad	5f		 pop	 edi
  000ae	8b 4d fc	 mov	 ecx, DWORD PTR __$ArrayPad$[ebp]
  000b1	33 cd		 xor	 ecx, ebp
  000b3	e8 00 00 00 00	 call	 @__security_check_cookie@4
  000b8	8b e5		 mov	 esp, ebp
  000ba	5d		 pop	 ebp
  000bb	8b e3		 mov	 esp, ebx
  000bd	5b		 pop	 ebx
  000be	c3		 ret	 0
  000bf	90		 npad	 1
$LN5@XMMatrixId:
  000c0	01 00 00 00	 DD	 1
  000c4	00 00 00 00	 DD	 $LN4@XMMatrixId
$LN4@XMMatrixId:
  000c8	b0 ff ff ff	 DD	 -80			; ffffffb0H
  000cc	40 00 00 00	 DD	 64			; 00000040H
  000d0	00 00 00 00	 DD	 $LN3@XMMatrixId
$LN3@XMMatrixId:
  000d4	4d		 DB	 77			; 0000004dH
  000d5	00		 DB	 0
?XMMatrixIdentity@DirectX@@YQ?AUXMMATRIX@1@XZ ENDP	; DirectX::XMMatrixIdentity
_TEXT	ENDS
; Function compile flags: /Odtp /RTCsu
;	COMDAT ?XMMatrixTranspose@DirectX@@YQ?AUXMMATRIX@1@U21@@Z
_TEXT	SEGMENT
$T1 = -384						; size = 16
$T2 = -368						; size = 16
$T3 = -352						; size = 16
$T4 = -336						; size = 16
_mResult$ = -304					; size = 64
$T5 = -224						; size = 16
_vTemp4$ = -208						; size = 16
$T6 = -192						; size = 16
_vTemp2$ = -176						; size = 16
$T7 = -160						; size = 16
_vTemp3$ = -144						; size = 16
$T8 = -128						; size = 16
_vTemp1$ = -112						; size = 16
_M$ = -80						; size = 64
__$ArrayPad$ = -4					; size = 4
?XMMatrixTranspose@DirectX@@YQ?AUXMMATRIX@1@U21@@Z PROC	; DirectX::XMMatrixTranspose, COMDAT
; File c:\program files (x86)\windows kits\8.1\include\um\directxmathmatrix.inl
; Line 543
  00000	53		 push	 ebx
  00001	8b dc		 mov	 ebx, esp
  00003	83 ec 08	 sub	 esp, 8
  00006	83 e4 f0	 and	 esp, -16		; fffffff0H
  00009	83 c4 04	 add	 esp, 4
  0000c	55		 push	 ebp
  0000d	8b 6b 04	 mov	 ebp, DWORD PTR [ebx+4]
  00010	89 6c 24 04	 mov	 DWORD PTR [esp+4], ebp
  00014	8b ec		 mov	 ebp, esp
  00016	81 ec 80 01 00
	00		 sub	 esp, 384		; 00000180H
  0001c	57		 push	 edi
  0001d	51		 push	 ecx
  0001e	8d bd 80 fe ff
	ff		 lea	 edi, DWORD PTR [ebp-384]
  00024	b9 60 00 00 00	 mov	 ecx, 96			; 00000060H
  00029	b8 cc cc cc cc	 mov	 eax, -858993460		; ccccccccH
  0002e	f3 ab		 rep stosd
  00030	59		 pop	 ecx
  00031	a1 00 00 00 00	 mov	 eax, DWORD PTR ___security_cookie
  00036	33 c5		 xor	 eax, ebp
  00038	89 45 fc	 mov	 DWORD PTR __$ArrayPad$[ebp], eax
  0003b	0f 29 5d e0	 movaps	 XMMWORD PTR _M$[ebp+48], xmm3
  0003f	0f 29 55 d0	 movaps	 XMMWORD PTR _M$[ebp+32], xmm2
  00043	0f 29 4d c0	 movaps	 XMMWORD PTR _M$[ebp+16], xmm1
  00047	0f 29 45 b0	 movaps	 XMMWORD PTR _M$[ebp], xmm0
; Line 581
  0004b	b8 10 00 00 00	 mov	 eax, 16			; 00000010H
  00050	c1 e0 00	 shl	 eax, 0
  00053	b9 10 00 00 00	 mov	 ecx, 16			; 00000010H
  00058	6b d1 00	 imul	 edx, ecx, 0
  0005b	0f 10 44 15 b0	 movups	 xmm0, XMMWORD PTR _M$[ebp+edx]
  00060	0f c6 44 05 b0
	44		 shufps	 xmm0, XMMWORD PTR _M$[ebp+eax], 68 ; 00000044H
  00066	0f 29 45 80	 movaps	 XMMWORD PTR $T8[ebp], xmm0
  0006a	0f 28 45 80	 movaps	 xmm0, XMMWORD PTR $T8[ebp]
  0006e	0f 29 45 90	 movaps	 XMMWORD PTR _vTemp1$[ebp], xmm0
; Line 583
  00072	b8 10 00 00 00	 mov	 eax, 16			; 00000010H
  00077	c1 e0 00	 shl	 eax, 0
  0007a	b9 10 00 00 00	 mov	 ecx, 16			; 00000010H
  0007f	6b d1 00	 imul	 edx, ecx, 0
  00082	0f 10 44 15 b0	 movups	 xmm0, XMMWORD PTR _M$[ebp+edx]
  00087	0f c6 44 05 b0
	ee		 shufps	 xmm0, XMMWORD PTR _M$[ebp+eax], 238 ; 000000eeH
  0008d	0f 29 85 60 ff
	ff ff		 movaps	 XMMWORD PTR $T7[ebp], xmm0
  00094	0f 28 85 60 ff
	ff ff		 movaps	 xmm0, XMMWORD PTR $T7[ebp]
  0009b	0f 29 85 70 ff
	ff ff		 movaps	 XMMWORD PTR _vTemp3$[ebp], xmm0
; Line 585
  000a2	b8 10 00 00 00	 mov	 eax, 16			; 00000010H
  000a7	6b c8 03	 imul	 ecx, eax, 3
  000aa	ba 10 00 00 00	 mov	 edx, 16			; 00000010H
  000af	d1 e2		 shl	 edx, 1
  000b1	0f 10 44 15 b0	 movups	 xmm0, XMMWORD PTR _M$[ebp+edx]
  000b6	0f c6 44 0d b0
	44		 shufps	 xmm0, XMMWORD PTR _M$[ebp+ecx], 68 ; 00000044H
  000bc	0f 29 85 40 ff
	ff ff		 movaps	 XMMWORD PTR $T6[ebp], xmm0
  000c3	0f 28 85 40 ff
	ff ff		 movaps	 xmm0, XMMWORD PTR $T6[ebp]
  000ca	0f 29 85 50 ff
	ff ff		 movaps	 XMMWORD PTR _vTemp2$[ebp], xmm0
; Line 587
  000d1	b8 10 00 00 00	 mov	 eax, 16			; 00000010H
  000d6	6b c8 03	 imul	 ecx, eax, 3
  000d9	ba 10 00 00 00	 mov	 edx, 16			; 00000010H
  000de	d1 e2		 shl	 edx, 1
  000e0	0f 10 44 15 b0	 movups	 xmm0, XMMWORD PTR _M$[ebp+edx]
  000e5	0f c6 44 0d b0
	ee		 shufps	 xmm0, XMMWORD PTR _M$[ebp+ecx], 238 ; 000000eeH
  000eb	0f 29 85 20 ff
	ff ff		 movaps	 XMMWORD PTR $T5[ebp], xmm0
  000f2	0f 28 85 20 ff
	ff ff		 movaps	 xmm0, XMMWORD PTR $T5[ebp]
  000f9	0f 29 85 30 ff
	ff ff		 movaps	 XMMWORD PTR _vTemp4$[ebp], xmm0
; Line 588
  00100	8d 8d d0 fe ff
	ff		 lea	 ecx, DWORD PTR _mResult$[ebp]
  00106	e8 00 00 00 00	 call	 ??0XMMATRIX@DirectX@@QAE@XZ ; DirectX::XMMATRIX::XMMATRIX
; Line 591
  0010b	0f 28 45 90	 movaps	 xmm0, XMMWORD PTR _vTemp1$[ebp]
  0010f	0f c6 85 50 ff
	ff ff 88	 shufps	 xmm0, XMMWORD PTR _vTemp2$[ebp], 136 ; 00000088H
  00117	0f 29 85 b0 fe
	ff ff		 movaps	 XMMWORD PTR $T4[ebp], xmm0
  0011e	b8 10 00 00 00	 mov	 eax, 16			; 00000010H
  00123	6b c8 00	 imul	 ecx, eax, 0
  00126	0f 10 85 b0 fe
	ff ff		 movups	 xmm0, XMMWORD PTR $T4[ebp]
  0012d	0f 11 84 0d d0
	fe ff ff	 movups	 XMMWORD PTR _mResult$[ebp+ecx], xmm0
; Line 593
  00135	0f 28 45 90	 movaps	 xmm0, XMMWORD PTR _vTemp1$[ebp]
  00139	0f c6 85 50 ff
	ff ff dd	 shufps	 xmm0, XMMWORD PTR _vTemp2$[ebp], 221 ; 000000ddH
  00141	0f 29 85 a0 fe
	ff ff		 movaps	 XMMWORD PTR $T3[ebp], xmm0
  00148	ba 10 00 00 00	 mov	 edx, 16			; 00000010H
  0014d	c1 e2 00	 shl	 edx, 0
  00150	0f 10 85 a0 fe
	ff ff		 movups	 xmm0, XMMWORD PTR $T3[ebp]
  00157	0f 11 84 15 d0
	fe ff ff	 movups	 XMMWORD PTR _mResult$[ebp+edx], xmm0
; Line 595
  0015f	0f 28 85 70 ff
	ff ff		 movaps	 xmm0, XMMWORD PTR _vTemp3$[ebp]
  00166	0f c6 85 30 ff
	ff ff 88	 shufps	 xmm0, XMMWORD PTR _vTemp4$[ebp], 136 ; 00000088H
  0016e	0f 29 85 90 fe
	ff ff		 movaps	 XMMWORD PTR $T2[ebp], xmm0
  00175	b8 10 00 00 00	 mov	 eax, 16			; 00000010H
  0017a	d1 e0		 shl	 eax, 1
  0017c	0f 10 85 90 fe
	ff ff		 movups	 xmm0, XMMWORD PTR $T2[ebp]
  00183	0f 11 84 05 d0
	fe ff ff	 movups	 XMMWORD PTR _mResult$[ebp+eax], xmm0
; Line 597
  0018b	0f 28 85 70 ff
	ff ff		 movaps	 xmm0, XMMWORD PTR _vTemp3$[ebp]
  00192	0f c6 85 30 ff
	ff ff dd	 shufps	 xmm0, XMMWORD PTR _vTemp4$[ebp], 221 ; 000000ddH
  0019a	0f 29 85 80 fe
	ff ff		 movaps	 XMMWORD PTR $T1[ebp], xmm0
  001a1	b9 10 00 00 00	 mov	 ecx, 16			; 00000010H
  001a6	6b d1 03	 imul	 edx, ecx, 3
  001a9	0f 10 85 80 fe
	ff ff		 movups	 xmm0, XMMWORD PTR $T1[ebp]
  001b0	0f 11 84 15 d0
	fe ff ff	 movups	 XMMWORD PTR _mResult$[ebp+edx], xmm0
; Line 598
  001b8	0f 28 85 d0 fe
	ff ff		 movaps	 xmm0, XMMWORD PTR _mResult$[ebp]
  001bf	0f 28 8d e0 fe
	ff ff		 movaps	 xmm1, XMMWORD PTR _mResult$[ebp+16]
  001c6	0f 28 95 f0 fe
	ff ff		 movaps	 xmm2, XMMWORD PTR _mResult$[ebp+32]
  001cd	0f 28 9d 00 ff
	ff ff		 movaps	 xmm3, XMMWORD PTR _mResult$[ebp+48]
; Line 601
  001d4	52		 push	 edx
  001d5	8b cd		 mov	 ecx, ebp
  001d7	50		 push	 eax
  001d8	8d 15 00 00 00
	00		 lea	 edx, DWORD PTR $LN6@XMMatrixTr
  001de	e8 00 00 00 00	 call	 @_RTC_CheckStackVars@8
  001e3	58		 pop	 eax
  001e4	5a		 pop	 edx
  001e5	5f		 pop	 edi
  001e6	8b 4d fc	 mov	 ecx, DWORD PTR __$ArrayPad$[ebp]
  001e9	33 cd		 xor	 ecx, ebp
  001eb	e8 00 00 00 00	 call	 @__security_check_cookie@4
  001f0	8b e5		 mov	 esp, ebp
  001f2	5d		 pop	 ebp
  001f3	8b e3		 mov	 esp, ebx
  001f5	5b		 pop	 ebx
  001f6	c3		 ret	 0
  001f7	90		 npad	 1
$LN6@XMMatrixTr:
  001f8	02 00 00 00	 DD	 2
  001fc	00 00 00 00	 DD	 $LN5@XMMatrixTr
$LN5@XMMatrixTr:
  00200	b0 ff ff ff	 DD	 -80			; ffffffb0H
  00204	40 00 00 00	 DD	 64			; 00000040H
  00208	00 00 00 00	 DD	 $LN3@XMMatrixTr
  0020c	d0 fe ff ff	 DD	 -304			; fffffed0H
  00210	40 00 00 00	 DD	 64			; 00000040H
  00214	00 00 00 00	 DD	 $LN4@XMMatrixTr
$LN4@XMMatrixTr:
  00218	6d		 DB	 109			; 0000006dH
  00219	52		 DB	 82			; 00000052H
  0021a	65		 DB	 101			; 00000065H
  0021b	73		 DB	 115			; 00000073H
  0021c	75		 DB	 117			; 00000075H
  0021d	6c		 DB	 108			; 0000006cH
  0021e	74		 DB	 116			; 00000074H
  0021f	00		 DB	 0
$LN3@XMMatrixTr:
  00220	4d		 DB	 77			; 0000004dH
  00221	00		 DB	 0
?XMMatrixTranspose@DirectX@@YQ?AUXMMATRIX@1@U21@@Z ENDP	; DirectX::XMMatrixTranspose
_TEXT	ENDS
; Function compile flags: /Odtp /RTCsu
;	COMDAT ?XMVector3Normalize@DirectX@@YQ?AT__m128@@T2@@Z
_TEXT	SEGMENT
$T1 = -384						; size = 16
$T2 = -368						; size = 16
_vTemp2$ = -352						; size = 16
$T3 = -336						; size = 16
$T4 = -320						; size = 16
_vTemp1$ = -304						; size = 16
$T5 = -288						; size = 16
$T6 = -272						; size = 16
$T7 = -256						; size = 16
$T8 = -240						; size = 16
$T9 = -224						; size = 16
$T10 = -208						; size = 16
_vZeroMask$ = -192					; size = 16
$T11 = -176						; size = 16
_vResult$ = -160					; size = 16
$T12 = -144						; size = 16
$T13 = -128						; size = 16
$T14 = -112						; size = 16
$T15 = -96						; size = 16
$T16 = -80						; size = 16
_vTemp$ = -64						; size = 16
$T17 = -48						; size = 16
_vLengthSq$ = -32					; size = 16
_V$ = -16						; size = 16
?XMVector3Normalize@DirectX@@YQ?AT__m128@@T2@@Z PROC	; DirectX::XMVector3Normalize, COMDAT
; _V$ = xmm0
; File c:\program files (x86)\windows kits\8.1\include\um\directxmathvector.inl
; Line 9459
  00000	53		 push	 ebx
  00001	8b dc		 mov	 ebx, esp
  00003	83 ec 08	 sub	 esp, 8
  00006	83 e4 f0	 and	 esp, -16		; fffffff0H
  00009	83 c4 04	 add	 esp, 4
  0000c	55		 push	 ebp
  0000d	8b 6b 04	 mov	 ebp, DWORD PTR [ebx+4]
  00010	89 6c 24 04	 mov	 DWORD PTR [esp+4], ebp
  00014	8b ec		 mov	 ebp, esp
  00016	81 ec 80 01 00
	00		 sub	 esp, 384		; 00000180H
  0001c	57		 push	 edi
  0001d	51		 push	 ecx
  0001e	8d bd 80 fe ff
	ff		 lea	 edi, DWORD PTR [ebp-384]
  00024	b9 60 00 00 00	 mov	 ecx, 96			; 00000060H
  00029	b8 cc cc cc cc	 mov	 eax, -858993460		; ccccccccH
  0002e	f3 ab		 rep stosd
  00030	59		 pop	 ecx
  00031	0f 29 45 f0	 movaps	 XMMWORD PTR _V$[ebp], xmm0
; Line 9502
  00035	0f 28 45 f0	 movaps	 xmm0, XMMWORD PTR _V$[ebp]
  00039	0f 59 45 f0	 mulps	 xmm0, XMMWORD PTR _V$[ebp]
  0003d	0f 29 45 d0	 movaps	 XMMWORD PTR $T17[ebp], xmm0
  00041	0f 28 45 d0	 movaps	 xmm0, XMMWORD PTR $T17[ebp]
  00045	0f 29 45 e0	 movaps	 XMMWORD PTR _vLengthSq$[ebp], xmm0
; Line 9503
  00049	0f 28 45 e0	 movaps	 xmm0, XMMWORD PTR _vLengthSq$[ebp]
  0004d	0f c6 45 e0 99	 shufps	 xmm0, XMMWORD PTR _vLengthSq$[ebp], 153 ; 00000099H
  00052	0f 29 45 b0	 movaps	 XMMWORD PTR $T16[ebp], xmm0
  00056	0f 28 45 b0	 movaps	 xmm0, XMMWORD PTR $T16[ebp]
  0005a	0f 29 45 c0	 movaps	 XMMWORD PTR _vTemp$[ebp], xmm0
; Line 9504
  0005e	0f 28 45 e0	 movaps	 xmm0, XMMWORD PTR _vLengthSq$[ebp]
  00062	f3 0f 58 45 c0	 addss	 xmm0, XMMWORD PTR _vTemp$[ebp]
  00067	0f 29 45 a0	 movaps	 XMMWORD PTR $T15[ebp], xmm0
  0006b	0f 28 45 a0	 movaps	 xmm0, XMMWORD PTR $T15[ebp]
  0006f	0f 29 45 e0	 movaps	 XMMWORD PTR _vLengthSq$[ebp], xmm0
; Line 9505
  00073	0f 28 45 c0	 movaps	 xmm0, XMMWORD PTR _vTemp$[ebp]
  00077	0f c6 45 c0 55	 shufps	 xmm0, XMMWORD PTR _vTemp$[ebp], 85 ; 00000055H
  0007c	0f 29 45 90	 movaps	 XMMWORD PTR $T14[ebp], xmm0
  00080	0f 28 45 90	 movaps	 xmm0, XMMWORD PTR $T14[ebp]
  00084	0f 29 45 c0	 movaps	 XMMWORD PTR _vTemp$[ebp], xmm0
; Line 9506
  00088	0f 28 45 e0	 movaps	 xmm0, XMMWORD PTR _vLengthSq$[ebp]
  0008c	f3 0f 58 45 c0	 addss	 xmm0, XMMWORD PTR _vTemp$[ebp]
  00091	0f 29 45 80	 movaps	 XMMWORD PTR $T13[ebp], xmm0
  00095	0f 28 45 80	 movaps	 xmm0, XMMWORD PTR $T13[ebp]
  00099	0f 29 45 e0	 movaps	 XMMWORD PTR _vLengthSq$[ebp], xmm0
; Line 9507
  0009d	0f 28 45 e0	 movaps	 xmm0, XMMWORD PTR _vLengthSq$[ebp]
  000a1	0f c6 45 e0 00	 shufps	 xmm0, XMMWORD PTR _vLengthSq$[ebp], 0
  000a6	0f 29 85 70 ff
	ff ff		 movaps	 XMMWORD PTR $T12[ebp], xmm0
  000ad	0f 28 85 70 ff
	ff ff		 movaps	 xmm0, XMMWORD PTR $T12[ebp]
  000b4	0f 29 45 e0	 movaps	 XMMWORD PTR _vLengthSq$[ebp], xmm0
; Line 9509
  000b8	0f 51 45 e0	 sqrtps	 xmm0, XMMWORD PTR _vLengthSq$[ebp]
  000bc	0f 29 85 50 ff
	ff ff		 movaps	 XMMWORD PTR $T11[ebp], xmm0
  000c3	0f 28 85 50 ff
	ff ff		 movaps	 xmm0, XMMWORD PTR $T11[ebp]
  000ca	0f 29 85 60 ff
	ff ff		 movaps	 XMMWORD PTR _vResult$[ebp], xmm0
; Line 9511
  000d1	0f 57 c0	 xorps	 xmm0, xmm0
  000d4	0f 29 85 30 ff
	ff ff		 movaps	 XMMWORD PTR $T10[ebp], xmm0
  000db	0f 28 85 30 ff
	ff ff		 movaps	 xmm0, XMMWORD PTR $T10[ebp]
  000e2	0f 29 85 40 ff
	ff ff		 movaps	 XMMWORD PTR _vZeroMask$[ebp], xmm0
; Line 9513
  000e9	0f 28 85 40 ff
	ff ff		 movaps	 xmm0, XMMWORD PTR _vZeroMask$[ebp]
  000f0	0f c2 85 60 ff
	ff ff 04	 cmpneqps xmm0, XMMWORD PTR _vResult$[ebp]
  000f8	0f 29 85 20 ff
	ff ff		 movaps	 XMMWORD PTR $T9[ebp], xmm0
  000ff	0f 28 85 20 ff
	ff ff		 movaps	 xmm0, XMMWORD PTR $T9[ebp]
  00106	0f 29 85 40 ff
	ff ff		 movaps	 XMMWORD PTR _vZeroMask$[ebp], xmm0
; Line 9516
  0010d	8d 85 10 ff ff
	ff		 lea	 eax, DWORD PTR $T8[ebp]
  00113	50		 push	 eax
  00114	b9 00 00 00 00	 mov	 ecx, OFFSET ?g_XMInfinity@DirectX@@3UXMVECTORI32@1@B ; DirectX::g_XMInfinity
  00119	e8 00 00 00 00	 call	 ??BXMVECTORI32@DirectX@@QBE?AT__m128@@XZ ; DirectX::XMVECTORI32::operator __m128
  0011e	0f 10 00	 movups	 xmm0, XMMWORD PTR [eax]
  00121	0f 28 4d e0	 movaps	 xmm1, XMMWORD PTR _vLengthSq$[ebp]
  00125	0f c2 c8 04	 cmpneqps xmm1, xmm0
  00129	0f 29 8d 00 ff
	ff ff		 movaps	 XMMWORD PTR $T7[ebp], xmm1
  00130	0f 28 85 00 ff
	ff ff		 movaps	 xmm0, XMMWORD PTR $T7[ebp]
  00137	0f 29 45 e0	 movaps	 XMMWORD PTR _vLengthSq$[ebp], xmm0
; Line 9518
  0013b	0f 28 45 f0	 movaps	 xmm0, XMMWORD PTR _V$[ebp]
  0013f	0f 5e 85 60 ff
	ff ff		 divps	 xmm0, XMMWORD PTR _vResult$[ebp]
  00146	0f 29 85 f0 fe
	ff ff		 movaps	 XMMWORD PTR $T6[ebp], xmm0
  0014d	0f 28 85 f0 fe
	ff ff		 movaps	 xmm0, XMMWORD PTR $T6[ebp]
  00154	0f 29 85 60 ff
	ff ff		 movaps	 XMMWORD PTR _vResult$[ebp], xmm0
; Line 9520
  0015b	0f 28 85 60 ff
	ff ff		 movaps	 xmm0, XMMWORD PTR _vResult$[ebp]
  00162	0f 54 85 40 ff
	ff ff		 andps	 xmm0, XMMWORD PTR _vZeroMask$[ebp]
  00169	0f 29 85 e0 fe
	ff ff		 movaps	 XMMWORD PTR $T5[ebp], xmm0
  00170	0f 28 85 e0 fe
	ff ff		 movaps	 xmm0, XMMWORD PTR $T5[ebp]
  00177	0f 29 85 60 ff
	ff ff		 movaps	 XMMWORD PTR _vResult$[ebp], xmm0
; Line 9522
  0017e	8d 8d c0 fe ff
	ff		 lea	 ecx, DWORD PTR $T4[ebp]
  00184	51		 push	 ecx
  00185	b9 00 00 00 00	 mov	 ecx, OFFSET ?g_XMQNaN@DirectX@@3UXMVECTORI32@1@B ; DirectX::g_XMQNaN
  0018a	e8 00 00 00 00	 call	 ??BXMVECTORI32@DirectX@@QBE?AT__m128@@XZ ; DirectX::XMVECTORI32::operator __m128
  0018f	0f 10 00	 movups	 xmm0, XMMWORD PTR [eax]
  00192	0f 28 4d e0	 movaps	 xmm1, XMMWORD PTR _vLengthSq$[ebp]
  00196	0f 55 c8	 andnps	 xmm1, xmm0
  00199	0f 29 8d b0 fe
	ff ff		 movaps	 XMMWORD PTR $T3[ebp], xmm1
  001a0	0f 28 85 b0 fe
	ff ff		 movaps	 xmm0, XMMWORD PTR $T3[ebp]
  001a7	0f 29 85 d0 fe
	ff ff		 movaps	 XMMWORD PTR _vTemp1$[ebp], xmm0
; Line 9523
  001ae	0f 28 85 60 ff
	ff ff		 movaps	 xmm0, XMMWORD PTR _vResult$[ebp]
  001b5	0f 54 45 e0	 andps	 xmm0, XMMWORD PTR _vLengthSq$[ebp]
  001b9	0f 29 85 90 fe
	ff ff		 movaps	 XMMWORD PTR $T2[ebp], xmm0
  001c0	0f 28 85 90 fe
	ff ff		 movaps	 xmm0, XMMWORD PTR $T2[ebp]
  001c7	0f 29 85 a0 fe
	ff ff		 movaps	 XMMWORD PTR _vTemp2$[ebp], xmm0
; Line 9524
  001ce	0f 28 85 d0 fe
	ff ff		 movaps	 xmm0, XMMWORD PTR _vTemp1$[ebp]
  001d5	0f 56 85 a0 fe
	ff ff		 orps	 xmm0, XMMWORD PTR _vTemp2$[ebp]
  001dc	0f 29 85 80 fe
	ff ff		 movaps	 XMMWORD PTR $T1[ebp], xmm0
  001e3	0f 28 85 80 fe
	ff ff		 movaps	 xmm0, XMMWORD PTR $T1[ebp]
  001ea	0f 29 85 60 ff
	ff ff		 movaps	 XMMWORD PTR _vResult$[ebp], xmm0
; Line 9525
  001f1	0f 28 85 60 ff
	ff ff		 movaps	 xmm0, XMMWORD PTR _vResult$[ebp]
; Line 9528
  001f8	5f		 pop	 edi
  001f9	8b e5		 mov	 esp, ebp
  001fb	5d		 pop	 ebp
  001fc	8b e3		 mov	 esp, ebx
  001fe	5b		 pop	 ebx
  001ff	c3		 ret	 0
?XMVector3Normalize@DirectX@@YQ?AT__m128@@T2@@Z ENDP	; DirectX::XMVector3Normalize
_TEXT	ENDS
; Function compile flags: /Odtp /RTCsu
;	COMDAT ?XMVector3Cross@DirectX@@YQ?AT__m128@@T2@0@Z
_TEXT	SEGMENT
$T1 = -224						; size = 16
$T2 = -208						; size = 16
$T3 = -192						; size = 16
$T4 = -176						; size = 16
$T5 = -160						; size = 16
$T6 = -144						; size = 16
$T7 = -128						; size = 16
_vResult$ = -112					; size = 16
$T8 = -96						; size = 16
_vTemp2$ = -80						; size = 16
$T9 = -64						; size = 16
_vTemp1$ = -48						; size = 16
_V2$ = -32						; size = 16
_V1$ = -16						; size = 16
?XMVector3Cross@DirectX@@YQ?AT__m128@@T2@0@Z PROC	; DirectX::XMVector3Cross, COMDAT
; _V1$ = xmm0
; _V2$ = xmm1
; File c:\program files (x86)\windows kits\8.1\include\um\directxmathvector.inl
; Line 9137
  00000	53		 push	 ebx
  00001	8b dc		 mov	 ebx, esp
  00003	83 ec 08	 sub	 esp, 8
  00006	83 e4 f0	 and	 esp, -16		; fffffff0H
  00009	83 c4 04	 add	 esp, 4
  0000c	55		 push	 ebp
  0000d	8b 6b 04	 mov	 ebp, DWORD PTR [ebx+4]
  00010	89 6c 24 04	 mov	 DWORD PTR [esp+4], ebp
  00014	8b ec		 mov	 ebp, esp
  00016	81 ec e0 00 00
	00		 sub	 esp, 224		; 000000e0H
  0001c	57		 push	 edi
  0001d	51		 push	 ecx
  0001e	8d bd 20 ff ff
	ff		 lea	 edi, DWORD PTR [ebp-224]
  00024	b9 38 00 00 00	 mov	 ecx, 56			; 00000038H
  00029	b8 cc cc cc cc	 mov	 eax, -858993460		; ccccccccH
  0002e	f3 ab		 rep stosd
  00030	59		 pop	 ecx
  00031	0f 29 4d e0	 movaps	 XMMWORD PTR _V2$[ebp], xmm1
  00035	0f 29 45 f0	 movaps	 XMMWORD PTR _V1$[ebp], xmm0
; Line 9164
  00039	0f 28 45 f0	 movaps	 xmm0, XMMWORD PTR _V1$[ebp]
  0003d	0f c6 45 f0 c9	 shufps	 xmm0, XMMWORD PTR _V1$[ebp], 201 ; 000000c9H
  00042	0f 29 45 c0	 movaps	 XMMWORD PTR $T9[ebp], xmm0
  00046	0f 28 45 c0	 movaps	 xmm0, XMMWORD PTR $T9[ebp]
  0004a	0f 29 45 d0	 movaps	 XMMWORD PTR _vTemp1$[ebp], xmm0
; Line 9166
  0004e	0f 28 45 e0	 movaps	 xmm0, XMMWORD PTR _V2$[ebp]
  00052	0f c6 45 e0 d2	 shufps	 xmm0, XMMWORD PTR _V2$[ebp], 210 ; 000000d2H
  00057	0f 29 45 a0	 movaps	 XMMWORD PTR $T8[ebp], xmm0
  0005b	0f 28 45 a0	 movaps	 xmm0, XMMWORD PTR $T8[ebp]
  0005f	0f 29 45 b0	 movaps	 XMMWORD PTR _vTemp2$[ebp], xmm0
; Line 9168
  00063	0f 28 45 d0	 movaps	 xmm0, XMMWORD PTR _vTemp1$[ebp]
  00067	0f 59 45 b0	 mulps	 xmm0, XMMWORD PTR _vTemp2$[ebp]
  0006b	0f 29 45 80	 movaps	 XMMWORD PTR $T7[ebp], xmm0
  0006f	0f 28 45 80	 movaps	 xmm0, XMMWORD PTR $T7[ebp]
  00073	0f 29 45 90	 movaps	 XMMWORD PTR _vResult$[ebp], xmm0
; Line 9170
  00077	0f 28 45 d0	 movaps	 xmm0, XMMWORD PTR _vTemp1$[ebp]
  0007b	0f c6 45 d0 c9	 shufps	 xmm0, XMMWORD PTR _vTemp1$[ebp], 201 ; 000000c9H
  00080	0f 29 85 70 ff
	ff ff		 movaps	 XMMWORD PTR $T6[ebp], xmm0
  00087	0f 28 85 70 ff
	ff ff		 movaps	 xmm0, XMMWORD PTR $T6[ebp]
  0008e	0f 29 45 d0	 movaps	 XMMWORD PTR _vTemp1$[ebp], xmm0
; Line 9172
  00092	0f 28 45 b0	 movaps	 xmm0, XMMWORD PTR _vTemp2$[ebp]
  00096	0f c6 45 b0 d2	 shufps	 xmm0, XMMWORD PTR _vTemp2$[ebp], 210 ; 000000d2H
  0009b	0f 29 85 60 ff
	ff ff		 movaps	 XMMWORD PTR $T5[ebp], xmm0
  000a2	0f 28 85 60 ff
	ff ff		 movaps	 xmm0, XMMWORD PTR $T5[ebp]
  000a9	0f 29 45 b0	 movaps	 XMMWORD PTR _vTemp2$[ebp], xmm0
; Line 9174
  000ad	0f 28 45 d0	 movaps	 xmm0, XMMWORD PTR _vTemp1$[ebp]
  000b1	0f 59 45 b0	 mulps	 xmm0, XMMWORD PTR _vTemp2$[ebp]
  000b5	0f 29 85 50 ff
	ff ff		 movaps	 XMMWORD PTR $T4[ebp], xmm0
  000bc	0f 28 85 50 ff
	ff ff		 movaps	 xmm0, XMMWORD PTR $T4[ebp]
  000c3	0f 29 45 d0	 movaps	 XMMWORD PTR _vTemp1$[ebp], xmm0
; Line 9176
  000c7	0f 28 45 90	 movaps	 xmm0, XMMWORD PTR _vResult$[ebp]
  000cb	0f 5c 45 d0	 subps	 xmm0, XMMWORD PTR _vTemp1$[ebp]
  000cf	0f 29 85 40 ff
	ff ff		 movaps	 XMMWORD PTR $T3[ebp], xmm0
  000d6	0f 28 85 40 ff
	ff ff		 movaps	 xmm0, XMMWORD PTR $T3[ebp]
  000dd	0f 29 45 90	 movaps	 XMMWORD PTR _vResult$[ebp], xmm0
; Line 9178
  000e1	8d 85 30 ff ff
	ff		 lea	 eax, DWORD PTR $T2[ebp]
  000e7	50		 push	 eax
  000e8	b9 00 00 00 00	 mov	 ecx, OFFSET ?g_XMMask3@DirectX@@3UXMVECTORI32@1@B ; DirectX::g_XMMask3
  000ed	e8 00 00 00 00	 call	 ??BXMVECTORI32@DirectX@@QBE?AT__m128@@XZ ; DirectX::XMVECTORI32::operator __m128
  000f2	0f 10 00	 movups	 xmm0, XMMWORD PTR [eax]
  000f5	0f 28 4d 90	 movaps	 xmm1, XMMWORD PTR _vResult$[ebp]
  000f9	0f 54 c8	 andps	 xmm1, xmm0
  000fc	0f 29 8d 20 ff
	ff ff		 movaps	 XMMWORD PTR $T1[ebp], xmm1
  00103	0f 28 85 20 ff
	ff ff		 movaps	 xmm0, XMMWORD PTR $T1[ebp]
; Line 9181
  0010a	5f		 pop	 edi
  0010b	8b e5		 mov	 esp, ebp
  0010d	5d		 pop	 ebp
  0010e	8b e3		 mov	 esp, ebx
  00110	5b		 pop	 ebx
  00111	c3		 ret	 0
?XMVector3Cross@DirectX@@YQ?AT__m128@@T2@0@Z ENDP	; DirectX::XMVector3Cross
_TEXT	ENDS
; Function compile flags: /Odtp /RTCsu
;	COMDAT ?XMVector3Dot@DirectX@@YQ?AT__m128@@T2@0@Z
_TEXT	SEGMENT
$T1 = -160						; size = 16
$T2 = -144						; size = 16
$T3 = -128						; size = 16
$T4 = -112						; size = 16
$T5 = -96						; size = 16
_vTemp$ = -80						; size = 16
$T6 = -64						; size = 16
_vDot$ = -48						; size = 16
_V2$ = -32						; size = 16
_V1$ = -16						; size = 16
?XMVector3Dot@DirectX@@YQ?AT__m128@@T2@0@Z PROC		; DirectX::XMVector3Dot, COMDAT
; _V1$ = xmm0
; _V2$ = xmm1
; File c:\program files (x86)\windows kits\8.1\include\um\directxmathvector.inl
; Line 9094
  00000	53		 push	 ebx
  00001	8b dc		 mov	 ebx, esp
  00003	83 ec 08	 sub	 esp, 8
  00006	83 e4 f0	 and	 esp, -16		; fffffff0H
  00009	83 c4 04	 add	 esp, 4
  0000c	55		 push	 ebp
  0000d	8b 6b 04	 mov	 ebp, DWORD PTR [ebx+4]
  00010	89 6c 24 04	 mov	 DWORD PTR [esp+4], ebp
  00014	8b ec		 mov	 ebp, esp
  00016	81 ec a0 00 00
	00		 sub	 esp, 160		; 000000a0H
  0001c	57		 push	 edi
  0001d	51		 push	 ecx
  0001e	8d bd 60 ff ff
	ff		 lea	 edi, DWORD PTR [ebp-160]
  00024	b9 28 00 00 00	 mov	 ecx, 40			; 00000028H
  00029	b8 cc cc cc cc	 mov	 eax, -858993460		; ccccccccH
  0002e	f3 ab		 rep stosd
  00030	59		 pop	 ecx
  00031	0f 29 4d e0	 movaps	 XMMWORD PTR _V2$[ebp], xmm1
  00035	0f 29 45 f0	 movaps	 XMMWORD PTR _V1$[ebp], xmm0
; Line 9115
  00039	0f 28 45 f0	 movaps	 xmm0, XMMWORD PTR _V1$[ebp]
  0003d	0f 59 45 e0	 mulps	 xmm0, XMMWORD PTR _V2$[ebp]
  00041	0f 29 45 c0	 movaps	 XMMWORD PTR $T6[ebp], xmm0
  00045	0f 28 45 c0	 movaps	 xmm0, XMMWORD PTR $T6[ebp]
  00049	0f 29 45 d0	 movaps	 XMMWORD PTR _vDot$[ebp], xmm0
; Line 9117
  0004d	0f 28 45 d0	 movaps	 xmm0, XMMWORD PTR _vDot$[ebp]
  00051	0f c6 45 d0 99	 shufps	 xmm0, XMMWORD PTR _vDot$[ebp], 153 ; 00000099H
  00056	0f 29 45 a0	 movaps	 XMMWORD PTR $T5[ebp], xmm0
  0005a	0f 28 45 a0	 movaps	 xmm0, XMMWORD PTR $T5[ebp]
  0005e	0f 29 45 b0	 movaps	 XMMWORD PTR _vTemp$[ebp], xmm0
; Line 9119
  00062	0f 28 45 d0	 movaps	 xmm0, XMMWORD PTR _vDot$[ebp]
  00066	f3 0f 58 45 b0	 addss	 xmm0, XMMWORD PTR _vTemp$[ebp]
  0006b	0f 29 45 90	 movaps	 XMMWORD PTR $T4[ebp], xmm0
  0006f	0f 28 45 90	 movaps	 xmm0, XMMWORD PTR $T4[ebp]
  00073	0f 29 45 d0	 movaps	 XMMWORD PTR _vDot$[ebp], xmm0
; Line 9121
  00077	0f 28 45 b0	 movaps	 xmm0, XMMWORD PTR _vTemp$[ebp]
  0007b	0f c6 45 b0 55	 shufps	 xmm0, XMMWORD PTR _vTemp$[ebp], 85 ; 00000055H
  00080	0f 29 45 80	 movaps	 XMMWORD PTR $T3[ebp], xmm0
  00084	0f 28 45 80	 movaps	 xmm0, XMMWORD PTR $T3[ebp]
  00088	0f 29 45 b0	 movaps	 XMMWORD PTR _vTemp$[ebp], xmm0
; Line 9123
  0008c	0f 28 45 d0	 movaps	 xmm0, XMMWORD PTR _vDot$[ebp]
  00090	f3 0f 58 45 b0	 addss	 xmm0, XMMWORD PTR _vTemp$[ebp]
  00095	0f 29 85 70 ff
	ff ff		 movaps	 XMMWORD PTR $T2[ebp], xmm0
  0009c	0f 28 85 70 ff
	ff ff		 movaps	 xmm0, XMMWORD PTR $T2[ebp]
  000a3	0f 29 45 d0	 movaps	 XMMWORD PTR _vDot$[ebp], xmm0
; Line 9125
  000a7	0f 28 45 d0	 movaps	 xmm0, XMMWORD PTR _vDot$[ebp]
  000ab	0f c6 45 d0 00	 shufps	 xmm0, XMMWORD PTR _vDot$[ebp], 0
  000b0	0f 29 85 60 ff
	ff ff		 movaps	 XMMWORD PTR $T1[ebp], xmm0
  000b7	0f 28 85 60 ff
	ff ff		 movaps	 xmm0, XMMWORD PTR $T1[ebp]
; Line 9128
  000be	5f		 pop	 edi
  000bf	8b e5		 mov	 esp, ebp
  000c1	5d		 pop	 ebp
  000c2	8b e3		 mov	 esp, ebx
  000c4	5b		 pop	 ebx
  000c5	c3		 ret	 0
?XMVector3Dot@DirectX@@YQ?AT__m128@@T2@0@Z ENDP		; DirectX::XMVector3Dot
_TEXT	ENDS
; Function compile flags: /Odtp /RTCsu
;	COMDAT ?XMVector3IsInfinite@DirectX@@YQ_NT__m128@@@Z
_TEXT	SEGMENT
tv80 = -100						; size = 4
$T1 = -96						; size = 16
$T2 = -80						; size = 16
$T3 = -64						; size = 16
$T4 = -48						; size = 16
_vTemp$ = -32						; size = 16
_V$ = -16						; size = 16
?XMVector3IsInfinite@DirectX@@YQ_NT__m128@@@Z PROC	; DirectX::XMVector3IsInfinite, COMDAT
; _V$ = xmm0
; File c:\program files (x86)\windows kits\8.1\include\um\directxmathvector.inl
; Line 9058
  00000	53		 push	 ebx
  00001	8b dc		 mov	 ebx, esp
  00003	83 ec 08	 sub	 esp, 8
  00006	83 e4 f0	 and	 esp, -16		; fffffff0H
  00009	83 c4 04	 add	 esp, 4
  0000c	55		 push	 ebp
  0000d	8b 6b 04	 mov	 ebp, DWORD PTR [ebx+4]
  00010	89 6c 24 04	 mov	 DWORD PTR [esp+4], ebp
  00014	8b ec		 mov	 ebp, esp
  00016	83 ec 70	 sub	 esp, 112		; 00000070H
  00019	57		 push	 edi
  0001a	51		 push	 ecx
  0001b	8d 7d 90	 lea	 edi, DWORD PTR [ebp-112]
  0001e	b9 1c 00 00 00	 mov	 ecx, 28			; 0000001cH
  00023	b8 cc cc cc cc	 mov	 eax, -858993460		; ccccccccH
  00028	f3 ab		 rep stosd
  0002a	59		 pop	 ecx
  0002b	0f 29 45 f0	 movaps	 XMMWORD PTR _V$[ebp], xmm0
; Line 9074
  0002f	8d 45 d0	 lea	 eax, DWORD PTR $T4[ebp]
  00032	50		 push	 eax
  00033	b9 00 00 00 00	 mov	 ecx, OFFSET ?g_XMAbsMask@DirectX@@3UXMVECTORI32@1@B ; DirectX::g_XMAbsMask
  00038	e8 00 00 00 00	 call	 ??BXMVECTORI32@DirectX@@QBE?AT__m128@@XZ ; DirectX::XMVECTORI32::operator __m128
  0003d	0f 10 00	 movups	 xmm0, XMMWORD PTR [eax]
  00040	0f 28 4d f0	 movaps	 xmm1, XMMWORD PTR _V$[ebp]
  00044	0f 54 c8	 andps	 xmm1, xmm0
  00047	0f 29 4d c0	 movaps	 XMMWORD PTR $T3[ebp], xmm1
  0004b	0f 28 45 c0	 movaps	 xmm0, XMMWORD PTR $T3[ebp]
  0004f	0f 29 45 e0	 movaps	 XMMWORD PTR _vTemp$[ebp], xmm0
; Line 9076
  00053	8d 4d b0	 lea	 ecx, DWORD PTR $T2[ebp]
  00056	51		 push	 ecx
  00057	b9 00 00 00 00	 mov	 ecx, OFFSET ?g_XMInfinity@DirectX@@3UXMVECTORI32@1@B ; DirectX::g_XMInfinity
  0005c	e8 00 00 00 00	 call	 ??BXMVECTORI32@DirectX@@QBE?AT__m128@@XZ ; DirectX::XMVECTORI32::operator __m128
  00061	0f 10 00	 movups	 xmm0, XMMWORD PTR [eax]
  00064	0f 28 4d e0	 movaps	 xmm1, XMMWORD PTR _vTemp$[ebp]
  00068	0f c2 c8 00	 cmpeqps xmm1, xmm0
  0006c	0f 29 4d a0	 movaps	 XMMWORD PTR $T1[ebp], xmm1
  00070	0f 28 45 a0	 movaps	 xmm0, XMMWORD PTR $T1[ebp]
  00074	0f 29 45 e0	 movaps	 XMMWORD PTR _vTemp$[ebp], xmm0
; Line 9078
  00078	0f 28 45 e0	 movaps	 xmm0, XMMWORD PTR _vTemp$[ebp]
  0007c	0f 50 d0	 movmskps edx, xmm0
  0007f	83 e2 07	 and	 edx, 7
  00082	74 09		 je	 SHORT $LN3@XMVector3I
  00084	c7 45 9c 01 00
	00 00		 mov	 DWORD PTR tv80[ebp], 1
  0008b	eb 07		 jmp	 SHORT $LN4@XMVector3I
$LN3@XMVector3I:
  0008d	c7 45 9c 00 00
	00 00		 mov	 DWORD PTR tv80[ebp], 0
$LN4@XMVector3I:
  00094	8a 45 9c	 mov	 al, BYTE PTR tv80[ebp]
; Line 9081
  00097	5f		 pop	 edi
  00098	8b e5		 mov	 esp, ebp
  0009a	5d		 pop	 ebp
  0009b	8b e3		 mov	 esp, ebx
  0009d	5b		 pop	 ebx
  0009e	c3		 ret	 0
?XMVector3IsInfinite@DirectX@@YQ_NT__m128@@@Z ENDP	; DirectX::XMVector3IsInfinite
_TEXT	ENDS
; Function compile flags: /Odtp /RTCsu
;	COMDAT ?XMVector3Equal@DirectX@@YQ_NT__m128@@0@Z
_TEXT	SEGMENT
tv73 = -72						; size = 4
tv71 = -68						; size = 4
$T1 = -64						; size = 16
_vTemp$ = -48						; size = 16
_V2$ = -32						; size = 16
_V1$ = -16						; size = 16
?XMVector3Equal@DirectX@@YQ_NT__m128@@0@Z PROC		; DirectX::XMVector3Equal, COMDAT
; _V1$ = xmm0
; _V2$ = xmm1
; File c:\program files (x86)\windows kits\8.1\include\um\directxmathvector.inl
; Line 8539
  00000	53		 push	 ebx
  00001	8b dc		 mov	 ebx, esp
  00003	83 ec 08	 sub	 esp, 8
  00006	83 e4 f0	 and	 esp, -16		; fffffff0H
  00009	83 c4 04	 add	 esp, 4
  0000c	55		 push	 ebp
  0000d	8b 6b 04	 mov	 ebp, DWORD PTR [ebx+4]
  00010	89 6c 24 04	 mov	 DWORD PTR [esp+4], ebp
  00014	8b ec		 mov	 ebp, esp
  00016	83 ec 50	 sub	 esp, 80			; 00000050H
  00019	57		 push	 edi
  0001a	51		 push	 ecx
  0001b	8d 7d b0	 lea	 edi, DWORD PTR [ebp-80]
  0001e	b9 14 00 00 00	 mov	 ecx, 20			; 00000014H
  00023	b8 cc cc cc cc	 mov	 eax, -858993460		; ccccccccH
  00028	f3 ab		 rep stosd
  0002a	59		 pop	 ecx
  0002b	0f 29 4d e0	 movaps	 XMMWORD PTR _V2$[ebp], xmm1
  0002f	0f 29 45 f0	 movaps	 XMMWORD PTR _V1$[ebp], xmm0
; Line 8548
  00033	0f 28 45 f0	 movaps	 xmm0, XMMWORD PTR _V1$[ebp]
  00037	0f c2 45 e0 00	 cmpeqps xmm0, XMMWORD PTR _V2$[ebp]
  0003c	0f 29 45 c0	 movaps	 XMMWORD PTR $T1[ebp], xmm0
  00040	0f 28 45 c0	 movaps	 xmm0, XMMWORD PTR $T1[ebp]
  00044	0f 29 45 d0	 movaps	 XMMWORD PTR _vTemp$[ebp], xmm0
; Line 8549
  00048	0f 28 45 d0	 movaps	 xmm0, XMMWORD PTR _vTemp$[ebp]
  0004c	0f 50 c0	 movmskps eax, xmm0
  0004f	83 e0 07	 and	 eax, 7
  00052	83 f8 07	 cmp	 eax, 7
  00055	75 09		 jne	 SHORT $LN3@XMVector3E
  00057	c7 45 bc 01 00
	00 00		 mov	 DWORD PTR tv71[ebp], 1
  0005e	eb 07		 jmp	 SHORT $LN4@XMVector3E
$LN3@XMVector3E:
  00060	c7 45 bc 00 00
	00 00		 mov	 DWORD PTR tv71[ebp], 0
$LN4@XMVector3E:
  00067	83 7d bc 00	 cmp	 DWORD PTR tv71[ebp], 0
  0006b	74 09		 je	 SHORT $LN5@XMVector3E
  0006d	c7 45 b8 01 00
	00 00		 mov	 DWORD PTR tv73[ebp], 1
  00074	eb 07		 jmp	 SHORT $LN6@XMVector3E
$LN5@XMVector3E:
  00076	c7 45 b8 00 00
	00 00		 mov	 DWORD PTR tv73[ebp], 0
$LN6@XMVector3E:
  0007d	8a 45 b8	 mov	 al, BYTE PTR tv73[ebp]
; Line 8553
  00080	5f		 pop	 edi
  00081	8b e5		 mov	 esp, ebp
  00083	5d		 pop	 ebp
  00084	8b e3		 mov	 esp, ebx
  00086	5b		 pop	 ebx
  00087	c3		 ret	 0
?XMVector3Equal@DirectX@@YQ_NT__m128@@0@Z ENDP		; DirectX::XMVector3Equal
_TEXT	ENDS
; Function compile flags: /Odtp /RTCsu
;	COMDAT ?XMVectorSubtract@DirectX@@YQ?AT__m128@@T2@0@Z
_TEXT	SEGMENT
$T1 = -48						; size = 16
_V2$ = -32						; size = 16
_V1$ = -16						; size = 16
?XMVectorSubtract@DirectX@@YQ?AT__m128@@T2@0@Z PROC	; DirectX::XMVectorSubtract, COMDAT
; _V1$ = xmm0
; _V2$ = xmm1
; File c:\program files (x86)\windows kits\8.1\include\um\directxmathvector.inl
; Line 2869
  00000	53		 push	 ebx
  00001	8b dc		 mov	 ebx, esp
  00003	83 ec 08	 sub	 esp, 8
  00006	83 e4 f0	 and	 esp, -16		; fffffff0H
  00009	83 c4 04	 add	 esp, 4
  0000c	55		 push	 ebp
  0000d	8b 6b 04	 mov	 ebp, DWORD PTR [ebx+4]
  00010	89 6c 24 04	 mov	 DWORD PTR [esp+4], ebp
  00014	8b ec		 mov	 ebp, esp
  00016	83 ec 30	 sub	 esp, 48			; 00000030H
  00019	57		 push	 edi
  0001a	51		 push	 ecx
  0001b	8d 7d d0	 lea	 edi, DWORD PTR [ebp-48]
  0001e	b9 0c 00 00 00	 mov	 ecx, 12			; 0000000cH
  00023	b8 cc cc cc cc	 mov	 eax, -858993460		; ccccccccH
  00028	f3 ab		 rep stosd
  0002a	59		 pop	 ecx
  0002b	0f 29 4d e0	 movaps	 XMMWORD PTR _V2$[ebp], xmm1
  0002f	0f 29 45 f0	 movaps	 XMMWORD PTR _V1$[ebp], xmm0
; Line 2882
  00033	0f 28 45 f0	 movaps	 xmm0, XMMWORD PTR _V1$[ebp]
  00037	0f 5c 45 e0	 subps	 xmm0, XMMWORD PTR _V2$[ebp]
  0003b	0f 29 45 d0	 movaps	 XMMWORD PTR $T1[ebp], xmm0
  0003f	0f 28 45 d0	 movaps	 xmm0, XMMWORD PTR $T1[ebp]
; Line 2885
  00043	5f		 pop	 edi
  00044	8b e5		 mov	 esp, ebp
  00046	5d		 pop	 ebp
  00047	8b e3		 mov	 esp, ebx
  00049	5b		 pop	 ebx
  0004a	c3		 ret	 0
?XMVectorSubtract@DirectX@@YQ?AT__m128@@T2@0@Z ENDP	; DirectX::XMVectorSubtract
_TEXT	ENDS
; Function compile flags: /Odtp /RTCsu
;	COMDAT ?XMVectorNegate@DirectX@@YQ?AT__m128@@T2@@Z
_TEXT	SEGMENT
$T1 = -64						; size = 16
$T2 = -48						; size = 16
_Z$ = -32						; size = 16
_V$ = -16						; size = 16
?XMVectorNegate@DirectX@@YQ?AT__m128@@T2@@Z PROC	; DirectX::XMVectorNegate, COMDAT
; _V$ = xmm0
; File c:\program files (x86)\windows kits\8.1\include\um\directxmathvector.inl
; Line 2755
  00000	53		 push	 ebx
  00001	8b dc		 mov	 ebx, esp
  00003	83 ec 08	 sub	 esp, 8
  00006	83 e4 f0	 and	 esp, -16		; fffffff0H
  00009	83 c4 04	 add	 esp, 4
  0000c	55		 push	 ebp
  0000d	8b 6b 04	 mov	 ebp, DWORD PTR [ebx+4]
  00010	89 6c 24 04	 mov	 DWORD PTR [esp+4], ebp
  00014	8b ec		 mov	 ebp, esp
  00016	83 ec 40	 sub	 esp, 64			; 00000040H
  00019	57		 push	 edi
  0001a	51		 push	 ecx
  0001b	8d 7d c0	 lea	 edi, DWORD PTR [ebp-64]
  0001e	b9 10 00 00 00	 mov	 ecx, 16			; 00000010H
  00023	b8 cc cc cc cc	 mov	 eax, -858993460		; ccccccccH
  00028	f3 ab		 rep stosd
  0002a	59		 pop	 ecx
  0002b	0f 29 45 f0	 movaps	 XMMWORD PTR _V$[ebp], xmm0
; Line 2770
  0002f	0f 57 c0	 xorps	 xmm0, xmm0
  00032	0f 29 45 d0	 movaps	 XMMWORD PTR $T2[ebp], xmm0
  00036	0f 28 45 d0	 movaps	 xmm0, XMMWORD PTR $T2[ebp]
  0003a	0f 29 45 e0	 movaps	 XMMWORD PTR _Z$[ebp], xmm0
; Line 2772
  0003e	0f 28 45 e0	 movaps	 xmm0, XMMWORD PTR _Z$[ebp]
  00042	0f 5c 45 f0	 subps	 xmm0, XMMWORD PTR _V$[ebp]
  00046	0f 29 45 c0	 movaps	 XMMWORD PTR $T1[ebp], xmm0
  0004a	0f 28 45 c0	 movaps	 xmm0, XMMWORD PTR $T1[ebp]
; Line 2775
  0004e	5f		 pop	 edi
  0004f	8b e5		 mov	 esp, ebp
  00051	5d		 pop	 ebp
  00052	8b e3		 mov	 esp, ebx
  00054	5b		 pop	 ebx
  00055	c3		 ret	 0
?XMVectorNegate@DirectX@@YQ?AT__m128@@T2@@Z ENDP	; DirectX::XMVectorNegate
_TEXT	ENDS
; Function compile flags: /Odtp /RTCsu
;	COMDAT ?XMVectorSelect@DirectX@@YQ?AT__m128@@T2@00@Z
_TEXT	SEGMENT
$T1 = -128						; size = 16
$T2 = -112						; size = 16
_vTemp2$ = -96						; size = 16
$T3 = -80						; size = 16
_vTemp1$ = -64						; size = 16
_Control$ = -48						; size = 16
_V2$ = -32						; size = 16
_V1$ = -16						; size = 16
?XMVectorSelect@DirectX@@YQ?AT__m128@@T2@00@Z PROC	; DirectX::XMVectorSelect, COMDAT
; _V1$ = xmm0
; _V2$ = xmm1
; _Control$ = xmm2
; File c:\program files (x86)\windows kits\8.1\include\um\directxmathvector.inl
; Line 1448
  00000	53		 push	 ebx
  00001	8b dc		 mov	 ebx, esp
  00003	83 ec 08	 sub	 esp, 8
  00006	83 e4 f0	 and	 esp, -16		; fffffff0H
  00009	83 c4 04	 add	 esp, 4
  0000c	55		 push	 ebp
  0000d	8b 6b 04	 mov	 ebp, DWORD PTR [ebx+4]
  00010	89 6c 24 04	 mov	 DWORD PTR [esp+4], ebp
  00014	8b ec		 mov	 ebp, esp
  00016	81 ec 80 00 00
	00		 sub	 esp, 128		; 00000080H
  0001c	57		 push	 edi
  0001d	51		 push	 ecx
  0001e	8d 7d 80	 lea	 edi, DWORD PTR [ebp-128]
  00021	b9 20 00 00 00	 mov	 ecx, 32			; 00000020H
  00026	b8 cc cc cc cc	 mov	 eax, -858993460		; ccccccccH
  0002b	f3 ab		 rep stosd
  0002d	59		 pop	 ecx
  0002e	0f 29 55 d0	 movaps	 XMMWORD PTR _Control$[ebp], xmm2
  00032	0f 29 4d e0	 movaps	 XMMWORD PTR _V2$[ebp], xmm1
  00036	0f 29 45 f0	 movaps	 XMMWORD PTR _V1$[ebp], xmm0
; Line 1461
  0003a	0f 28 45 d0	 movaps	 xmm0, XMMWORD PTR _Control$[ebp]
  0003e	0f 55 45 f0	 andnps	 xmm0, XMMWORD PTR _V1$[ebp]
  00042	0f 29 45 b0	 movaps	 XMMWORD PTR $T3[ebp], xmm0
  00046	0f 28 45 b0	 movaps	 xmm0, XMMWORD PTR $T3[ebp]
  0004a	0f 29 45 c0	 movaps	 XMMWORD PTR _vTemp1$[ebp], xmm0
; Line 1462
  0004e	0f 28 45 e0	 movaps	 xmm0, XMMWORD PTR _V2$[ebp]
  00052	0f 54 45 d0	 andps	 xmm0, XMMWORD PTR _Control$[ebp]
  00056	0f 29 45 90	 movaps	 XMMWORD PTR $T2[ebp], xmm0
  0005a	0f 28 45 90	 movaps	 xmm0, XMMWORD PTR $T2[ebp]
  0005e	0f 29 45 a0	 movaps	 XMMWORD PTR _vTemp2$[ebp], xmm0
; Line 1463
  00062	0f 28 45 c0	 movaps	 xmm0, XMMWORD PTR _vTemp1$[ebp]
  00066	0f 56 45 a0	 orps	 xmm0, XMMWORD PTR _vTemp2$[ebp]
  0006a	0f 29 45 80	 movaps	 XMMWORD PTR $T1[ebp], xmm0
  0006e	0f 28 45 80	 movaps	 xmm0, XMMWORD PTR $T1[ebp]
; Line 1466
  00072	5f		 pop	 edi
  00073	8b e5		 mov	 esp, ebp
  00075	5d		 pop	 ebp
  00076	8b e3		 mov	 esp, ebx
  00078	5b		 pop	 ebx
  00079	c3		 ret	 0
?XMVectorSelect@DirectX@@YQ?AT__m128@@T2@00@Z ENDP	; DirectX::XMVectorSelect
_TEXT	ENDS
; Function compile flags: /Odtp /RTCsu
;	COMDAT ?XMVectorZero@DirectX@@YQ?AT__m128@@XZ
_TEXT	SEGMENT
$T1 = -16						; size = 16
?XMVectorZero@DirectX@@YQ?AT__m128@@XZ PROC		; DirectX::XMVectorZero, COMDAT
; File c:\program files (x86)\windows kits\8.1\include\um\directxmathvector.inl
; Line 51
  00000	53		 push	 ebx
  00001	8b dc		 mov	 ebx, esp
  00003	83 ec 08	 sub	 esp, 8
  00006	83 e4 f0	 and	 esp, -16		; fffffff0H
  00009	83 c4 04	 add	 esp, 4
  0000c	55		 push	 ebp
  0000d	8b 6b 04	 mov	 ebp, DWORD PTR [ebx+4]
  00010	89 6c 24 04	 mov	 DWORD PTR [esp+4], ebp
  00014	8b ec		 mov	 ebp, esp
  00016	83 ec 10	 sub	 esp, 16			; 00000010H
  00019	b8 cc cc cc cc	 mov	 eax, -858993460		; ccccccccH
  0001e	89 45 f0	 mov	 DWORD PTR [ebp-16], eax
  00021	89 45 f4	 mov	 DWORD PTR [ebp-12], eax
  00024	89 45 f8	 mov	 DWORD PTR [ebp-8], eax
  00027	89 45 fc	 mov	 DWORD PTR [ebp-4], eax
; Line 58
  0002a	0f 57 c0	 xorps	 xmm0, xmm0
  0002d	0f 29 45 f0	 movaps	 XMMWORD PTR $T1[ebp], xmm0
  00031	0f 28 45 f0	 movaps	 xmm0, XMMWORD PTR $T1[ebp]
; Line 61
  00035	8b e5		 mov	 esp, ebp
  00037	5d		 pop	 ebp
  00038	8b e3		 mov	 esp, ebx
  0003a	5b		 pop	 ebx
  0003b	c3		 ret	 0
?XMVectorZero@DirectX@@YQ?AT__m128@@XZ ENDP		; DirectX::XMVectorZero
_TEXT	ENDS
; Function compile flags: /Odtp /RTCsu
;	COMDAT ??4XMFLOAT4@DirectX@@QAEAAU01@ABU01@@Z
_TEXT	SEGMENT
_this$ = -4						; size = 4
_Float4$ = 8						; size = 4
??4XMFLOAT4@DirectX@@QAEAAU01@ABU01@@Z PROC		; DirectX::XMFLOAT4::operator=, COMDAT
; _this$ = ecx
; File c:\program files (x86)\windows kits\8.1\include\um\directxmath.h
; Line 582
  00000	55		 push	 ebp
  00001	8b ec		 mov	 ebp, esp
  00003	51		 push	 ecx
  00004	c7 45 fc cc cc
	cc cc		 mov	 DWORD PTR [ebp-4], -858993460 ; ccccccccH
  0000b	89 4d fc	 mov	 DWORD PTR _this$[ebp], ecx
  0000e	8b 45 fc	 mov	 eax, DWORD PTR _this$[ebp]
  00011	8b 4d 08	 mov	 ecx, DWORD PTR _Float4$[ebp]
  00014	8b 11		 mov	 edx, DWORD PTR [ecx]
  00016	89 10		 mov	 DWORD PTR [eax], edx
  00018	8b 45 fc	 mov	 eax, DWORD PTR _this$[ebp]
  0001b	8b 4d 08	 mov	 ecx, DWORD PTR _Float4$[ebp]
  0001e	8b 51 04	 mov	 edx, DWORD PTR [ecx+4]
  00021	89 50 04	 mov	 DWORD PTR [eax+4], edx
  00024	8b 45 fc	 mov	 eax, DWORD PTR _this$[ebp]
  00027	8b 4d 08	 mov	 ecx, DWORD PTR _Float4$[ebp]
  0002a	8b 51 08	 mov	 edx, DWORD PTR [ecx+8]
  0002d	89 50 08	 mov	 DWORD PTR [eax+8], edx
  00030	8b 45 fc	 mov	 eax, DWORD PTR _this$[ebp]
  00033	8b 4d 08	 mov	 ecx, DWORD PTR _Float4$[ebp]
  00036	8b 51 0c	 mov	 edx, DWORD PTR [ecx+12]
  00039	89 50 0c	 mov	 DWORD PTR [eax+12], edx
  0003c	8b 45 fc	 mov	 eax, DWORD PTR _this$[ebp]
  0003f	8b e5		 mov	 esp, ebp
  00041	5d		 pop	 ebp
  00042	c2 04 00	 ret	 4
??4XMFLOAT4@DirectX@@QAEAAU01@ABU01@@Z ENDP		; DirectX::XMFLOAT4::operator=
_TEXT	ENDS
; Function compile flags: /Odtp /RTCsu
;	COMDAT ??0XMFLOAT4@DirectX@@QAE@MMMM@Z
_TEXT	SEGMENT
_this$ = -4						; size = 4
__x$ = 8						; size = 4
__y$ = 12						; size = 4
__z$ = 16						; size = 4
__w$ = 20						; size = 4
??0XMFLOAT4@DirectX@@QAE@MMMM@Z PROC			; DirectX::XMFLOAT4::XMFLOAT4, COMDAT
; _this$ = ecx
; File c:\program files (x86)\windows kits\8.1\include\um\directxmath.h
; Line 579
  00000	55		 push	 ebp
  00001	8b ec		 mov	 ebp, esp
  00003	51		 push	 ecx
  00004	c7 45 fc cc cc
	cc cc		 mov	 DWORD PTR [ebp-4], -858993460 ; ccccccccH
  0000b	89 4d fc	 mov	 DWORD PTR _this$[ebp], ecx
  0000e	8b 45 fc	 mov	 eax, DWORD PTR _this$[ebp]
  00011	f3 0f 10 45 08	 movss	 xmm0, DWORD PTR __x$[ebp]
  00016	f3 0f 11 00	 movss	 DWORD PTR [eax], xmm0
  0001a	8b 4d fc	 mov	 ecx, DWORD PTR _this$[ebp]
  0001d	f3 0f 10 45 0c	 movss	 xmm0, DWORD PTR __y$[ebp]
  00022	f3 0f 11 41 04	 movss	 DWORD PTR [ecx+4], xmm0
  00027	8b 55 fc	 mov	 edx, DWORD PTR _this$[ebp]
  0002a	f3 0f 10 45 10	 movss	 xmm0, DWORD PTR __z$[ebp]
  0002f	f3 0f 11 42 08	 movss	 DWORD PTR [edx+8], xmm0
  00034	8b 45 fc	 mov	 eax, DWORD PTR _this$[ebp]
  00037	f3 0f 10 45 14	 movss	 xmm0, DWORD PTR __w$[ebp]
  0003c	f3 0f 11 40 0c	 movss	 DWORD PTR [eax+12], xmm0
  00041	8b 45 fc	 mov	 eax, DWORD PTR _this$[ebp]
  00044	8b e5		 mov	 esp, ebp
  00046	5d		 pop	 ebp
  00047	c2 10 00	 ret	 16			; 00000010H
??0XMFLOAT4@DirectX@@QAE@MMMM@Z ENDP			; DirectX::XMFLOAT4::XMFLOAT4
_TEXT	ENDS
; Function compile flags: /Odtp /RTCsu
;	COMDAT ??0XMFLOAT4@DirectX@@QAE@XZ
_TEXT	SEGMENT
_this$ = -4						; size = 4
??0XMFLOAT4@DirectX@@QAE@XZ PROC			; DirectX::XMFLOAT4::XMFLOAT4, COMDAT
; _this$ = ecx
; File c:\program files (x86)\windows kits\8.1\include\um\directxmath.h
; Line 578
  00000	55		 push	 ebp
  00001	8b ec		 mov	 ebp, esp
  00003	51		 push	 ecx
  00004	c7 45 fc cc cc
	cc cc		 mov	 DWORD PTR [ebp-4], -858993460 ; ccccccccH
  0000b	89 4d fc	 mov	 DWORD PTR _this$[ebp], ecx
  0000e	8b 45 fc	 mov	 eax, DWORD PTR _this$[ebp]
  00011	8b e5		 mov	 esp, ebp
  00013	5d		 pop	 ebp
  00014	c3		 ret	 0
??0XMFLOAT4@DirectX@@QAE@XZ ENDP			; DirectX::XMFLOAT4::XMFLOAT4
_TEXT	ENDS
; Function compile flags: /Odtp /RTCsu
;	COMDAT ??4XMMATRIX@DirectX@@QAEAAU01@ABU01@@Z
_TEXT	SEGMENT
_this$ = -4						; size = 4
_M$ = 8							; size = 4
??4XMMATRIX@DirectX@@QAEAAU01@ABU01@@Z PROC		; DirectX::XMMATRIX::operator=, COMDAT
; _this$ = ecx
; File c:\program files (x86)\windows kits\8.1\include\um\directxmath.h
; Line 444
  00000	55		 push	 ebp
  00001	8b ec		 mov	 ebp, esp
  00003	51		 push	 ecx
  00004	c7 45 fc cc cc
	cc cc		 mov	 DWORD PTR [ebp-4], -858993460 ; ccccccccH
  0000b	89 4d fc	 mov	 DWORD PTR _this$[ebp], ecx
  0000e	b8 10 00 00 00	 mov	 eax, 16			; 00000010H
  00013	6b c8 00	 imul	 ecx, eax, 0
  00016	03 4d 08	 add	 ecx, DWORD PTR _M$[ebp]
  00019	ba 10 00 00 00	 mov	 edx, 16			; 00000010H
  0001e	6b c2 00	 imul	 eax, edx, 0
  00021	03 45 fc	 add	 eax, DWORD PTR _this$[ebp]
  00024	0f 10 01	 movups	 xmm0, XMMWORD PTR [ecx]
  00027	0f 11 00	 movups	 XMMWORD PTR [eax], xmm0
  0002a	b9 10 00 00 00	 mov	 ecx, 16			; 00000010H
  0002f	c1 e1 00	 shl	 ecx, 0
  00032	03 4d 08	 add	 ecx, DWORD PTR _M$[ebp]
  00035	ba 10 00 00 00	 mov	 edx, 16			; 00000010H
  0003a	c1 e2 00	 shl	 edx, 0
  0003d	03 55 fc	 add	 edx, DWORD PTR _this$[ebp]
  00040	0f 10 01	 movups	 xmm0, XMMWORD PTR [ecx]
  00043	0f 11 02	 movups	 XMMWORD PTR [edx], xmm0
  00046	b8 10 00 00 00	 mov	 eax, 16			; 00000010H
  0004b	d1 e0		 shl	 eax, 1
  0004d	03 45 08	 add	 eax, DWORD PTR _M$[ebp]
  00050	b9 10 00 00 00	 mov	 ecx, 16			; 00000010H
  00055	d1 e1		 shl	 ecx, 1
  00057	03 4d fc	 add	 ecx, DWORD PTR _this$[ebp]
  0005a	0f 10 00	 movups	 xmm0, XMMWORD PTR [eax]
  0005d	0f 11 01	 movups	 XMMWORD PTR [ecx], xmm0
  00060	ba 10 00 00 00	 mov	 edx, 16			; 00000010H
  00065	6b c2 03	 imul	 eax, edx, 3
  00068	03 45 08	 add	 eax, DWORD PTR _M$[ebp]
  0006b	b9 10 00 00 00	 mov	 ecx, 16			; 00000010H
  00070	6b d1 03	 imul	 edx, ecx, 3
  00073	03 55 fc	 add	 edx, DWORD PTR _this$[ebp]
  00076	0f 10 00	 movups	 xmm0, XMMWORD PTR [eax]
  00079	0f 11 02	 movups	 XMMWORD PTR [edx], xmm0
  0007c	8b 45 fc	 mov	 eax, DWORD PTR _this$[ebp]
  0007f	8b e5		 mov	 esp, ebp
  00081	5d		 pop	 ebp
  00082	c2 04 00	 ret	 4
??4XMMATRIX@DirectX@@QAEAAU01@ABU01@@Z ENDP		; DirectX::XMMATRIX::operator=
_TEXT	ENDS
; Function compile flags: /Odtp /RTCsu
;	COMDAT ??0XMMATRIX@DirectX@@QAE@XZ
_TEXT	SEGMENT
_this$ = -4						; size = 4
??0XMMATRIX@DirectX@@QAE@XZ PROC			; DirectX::XMMATRIX::XMMATRIX, COMDAT
; _this$ = ecx
; File c:\program files (x86)\windows kits\8.1\include\um\directxmath.h
; Line 431
  00000	55		 push	 ebp
  00001	8b ec		 mov	 ebp, esp
  00003	51		 push	 ecx
  00004	c7 45 fc cc cc
	cc cc		 mov	 DWORD PTR [ebp-4], -858993460 ; ccccccccH
  0000b	89 4d fc	 mov	 DWORD PTR _this$[ebp], ecx
  0000e	8b 45 fc	 mov	 eax, DWORD PTR _this$[ebp]
  00011	8b e5		 mov	 esp, ebp
  00013	5d		 pop	 ebp
  00014	c3		 ret	 0
??0XMMATRIX@DirectX@@QAE@XZ ENDP			; DirectX::XMMATRIX::XMMATRIX
_TEXT	ENDS
; Function compile flags: /Odtp /RTCsu
;	COMDAT ??BXMVECTORI32@DirectX@@QBE?AT__m128@@XZ
_TEXT	SEGMENT
_this$ = -4						; size = 4
___$ReturnUdt$ = 8					; size = 4
??BXMVECTORI32@DirectX@@QBE?AT__m128@@XZ PROC		; DirectX::XMVECTORI32::operator __m128, COMDAT
; _this$ = ecx
; File c:\program files (x86)\windows kits\8.1\include\um\directxmath.h
; Line 330
  00000	55		 push	 ebp
  00001	8b ec		 mov	 ebp, esp
  00003	51		 push	 ecx
  00004	c7 45 fc cc cc
	cc cc		 mov	 DWORD PTR [ebp-4], -858993460 ; ccccccccH
  0000b	89 4d fc	 mov	 DWORD PTR _this$[ebp], ecx
  0000e	8b 45 fc	 mov	 eax, DWORD PTR _this$[ebp]
  00011	8b 4d 08	 mov	 ecx, DWORD PTR ___$ReturnUdt$[ebp]
  00014	0f 10 00	 movups	 xmm0, XMMWORD PTR [eax]
  00017	0f 11 01	 movups	 XMMWORD PTR [ecx], xmm0
  0001a	8b 45 08	 mov	 eax, DWORD PTR ___$ReturnUdt$[ebp]
  0001d	8b e5		 mov	 esp, ebp
  0001f	5d		 pop	 ebp
  00020	c2 04 00	 ret	 4
??BXMVECTORI32@DirectX@@QBE?AT__m128@@XZ ENDP		; DirectX::XMVECTORI32::operator __m128
_TEXT	ENDS
; Function compile flags: /Odtp /RTCsu
;	COMDAT ??BXMVECTORF32@DirectX@@QBE?AT__m128@@XZ
_TEXT	SEGMENT
_this$ = -4						; size = 4
___$ReturnUdt$ = 8					; size = 4
??BXMVECTORF32@DirectX@@QBE?AT__m128@@XZ PROC		; DirectX::XMVECTORF32::operator __m128, COMDAT
; _this$ = ecx
; File c:\program files (x86)\windows kits\8.1\include\um\directxmath.h
; Line 314
  00000	55		 push	 ebp
  00001	8b ec		 mov	 ebp, esp
  00003	51		 push	 ecx
  00004	c7 45 fc cc cc
	cc cc		 mov	 DWORD PTR [ebp-4], -858993460 ; ccccccccH
  0000b	89 4d fc	 mov	 DWORD PTR _this$[ebp], ecx
  0000e	8b 45 fc	 mov	 eax, DWORD PTR _this$[ebp]
  00011	8b 4d 08	 mov	 ecx, DWORD PTR ___$ReturnUdt$[ebp]
  00014	0f 10 00	 movups	 xmm0, XMMWORD PTR [eax]
  00017	0f 11 01	 movups	 XMMWORD PTR [ecx], xmm0
  0001a	8b 45 08	 mov	 eax, DWORD PTR ___$ReturnUdt$[ebp]
  0001d	8b e5		 mov	 esp, ebp
  0001f	5d		 pop	 ebp
  00020	c2 04 00	 ret	 4
??BXMVECTORF32@DirectX@@QBE?AT__m128@@XZ ENDP		; DirectX::XMVECTORF32::operator __m128
_TEXT	ENDS
; Function compile flags: /Odtp /RTCsu
;	COMDAT ??3@YAXPAX0@Z
_TEXT	SEGMENT
___formal$ = 8						; size = 4
___formal$ = 12						; size = 4
??3@YAXPAX0@Z PROC					; operator delete, COMDAT
; File c:\program files (x86)\microsoft visual studio 12.0\vc\include\new.h
; Line 105
  00000	55		 push	 ebp
  00001	8b ec		 mov	 ebp, esp
  00003	5d		 pop	 ebp
  00004	c3		 ret	 0
??3@YAXPAX0@Z ENDP					; operator delete
_TEXT	ENDS
; Function compile flags: /Odtp /RTCsu
;	COMDAT ??2@YAPAXIPAX@Z
_TEXT	SEGMENT
___formal$ = 8						; size = 4
__Where$ = 12						; size = 4
??2@YAPAXIPAX@Z PROC					; operator new, COMDAT
; File c:\program files (x86)\microsoft visual studio 12.0\vc\include\new.h
; Line 103
  00000	55		 push	 ebp
  00001	8b ec		 mov	 ebp, esp
  00003	8b 45 0c	 mov	 eax, DWORD PTR __Where$[ebp]
  00006	5d		 pop	 ebp
  00007	c3		 ret	 0
??2@YAPAXIPAX@Z ENDP					; operator new
_TEXT	ENDS
; Function compile flags: /Odtp /RTCsu
;	COMDAT ?wcsrchr@@YAPA_WPA_W_W@Z
_TEXT	SEGMENT
__Str$ = 8						; size = 4
__Ch$ = 12						; size = 2
?wcsrchr@@YAPA_WPA_W_W@Z PROC				; wcsrchr, COMDAT
; File c:\program files (x86)\microsoft visual studio 12.0\vc\include\string.h
; Line 387
  00000	55		 push	 ebp
  00001	8b ec		 mov	 ebp, esp
  00003	56		 push	 esi
  00004	8b f4		 mov	 esi, esp
  00006	0f b7 45 0c	 movzx	 eax, WORD PTR __Ch$[ebp]
  0000a	50		 push	 eax
  0000b	8b 4d 08	 mov	 ecx, DWORD PTR __Str$[ebp]
  0000e	51		 push	 ecx
  0000f	ff 15 00 00 00
	00		 call	 DWORD PTR __imp__wcsrchr
  00015	83 c4 08	 add	 esp, 8
  00018	3b f4		 cmp	 esi, esp
  0001a	e8 00 00 00 00	 call	 __RTC_CheckEsp
  0001f	5e		 pop	 esi
  00020	3b ec		 cmp	 ebp, esp
  00022	e8 00 00 00 00	 call	 __RTC_CheckEsp
  00027	5d		 pop	 ebp
  00028	c3		 ret	 0
?wcsrchr@@YAPA_WPA_W_W@Z ENDP				; wcsrchr
_TEXT	ENDS
END
