; Listing generated by Microsoft (R) Optimizing Compiler Version 18.00.30501.0 

	TITLE	D:\Engine Class\Assignment 1\New Scratch\DXUT\Optional\SDKmisc.cpp
	.686P
	.XMM
	include listing.inc
	.model	flat

INCLUDELIB MSVCRTD
INCLUDELIB OLDNAMES

PUBLIC	_GUID_ContainerFormatBmp
PUBLIC	?value@?$integral_constant@H$0A@@std@@2HB	; std::integral_constant<int,0>::value
PUBLIC	?g_XMIdentityR0@DirectX@@3UXMVECTORF32@1@B	; DirectX::g_XMIdentityR0
PUBLIC	?g_XMIdentityR1@DirectX@@3UXMVECTORF32@1@B	; DirectX::g_XMIdentityR1
PUBLIC	?g_XMIdentityR2@DirectX@@3UXMVECTORF32@1@B	; DirectX::g_XMIdentityR2
PUBLIC	?g_XMIdentityR3@DirectX@@3UXMVECTORF32@1@B	; DirectX::g_XMIdentityR3
PUBLIC	?g_XMMask3@DirectX@@3UXMVECTORI32@1@B		; DirectX::g_XMMask3
PUBLIC	?g_XMZero@DirectX@@3UXMVECTORF32@1@B		; DirectX::g_XMZero
PUBLIC	?g_XMInfinity@DirectX@@3UXMVECTORI32@1@B	; DirectX::g_XMInfinity
PUBLIC	?g_XMQNaN@DirectX@@3UXMVECTORI32@1@B		; DirectX::g_XMQNaN
PUBLIC	?g_XMAbsMask@DirectX@@3UXMVECTORI32@1@B		; DirectX::g_XMAbsMask
PUBLIC	?g_XMSelect1110@DirectX@@3UXMVECTORI32@1@B	; DirectX::g_XMSelect1110
;	COMDAT ?g_XMSelect1110@DirectX@@3UXMVECTORI32@1@B
CONST	SEGMENT
?g_XMSelect1110@DirectX@@3UXMVECTORI32@1@B DD 0ffffffffH ; DirectX::g_XMSelect1110
	DD	0ffffffffH
	DD	0ffffffffH
	DD	00H
CONST	ENDS
;	COMDAT ?g_XMAbsMask@DirectX@@3UXMVECTORI32@1@B
CONST	SEGMENT
?g_XMAbsMask@DirectX@@3UXMVECTORI32@1@B DD 07fffffffH	; DirectX::g_XMAbsMask
	DD	07fffffffH
	DD	07fffffffH
	DD	07fffffffH
CONST	ENDS
;	COMDAT ?g_XMQNaN@DirectX@@3UXMVECTORI32@1@B
CONST	SEGMENT
?g_XMQNaN@DirectX@@3UXMVECTORI32@1@B DD 07fc00000H	; DirectX::g_XMQNaN
	DD	07fc00000H
	DD	07fc00000H
	DD	07fc00000H
CONST	ENDS
;	COMDAT ?g_XMInfinity@DirectX@@3UXMVECTORI32@1@B
CONST	SEGMENT
?g_XMInfinity@DirectX@@3UXMVECTORI32@1@B DD 07f800000H	; DirectX::g_XMInfinity
	DD	07f800000H
	DD	07f800000H
	DD	07f800000H
CONST	ENDS
;	COMDAT ?g_XMZero@DirectX@@3UXMVECTORF32@1@B
CONST	SEGMENT
?g_XMZero@DirectX@@3UXMVECTORF32@1@B DD 000000000r ; 0	; DirectX::g_XMZero
	DD	000000000r			; 0
	DD	000000000r			; 0
	DD	000000000r			; 0
CONST	ENDS
;	COMDAT ?g_XMMask3@DirectX@@3UXMVECTORI32@1@B
CONST	SEGMENT
?g_XMMask3@DirectX@@3UXMVECTORI32@1@B DD 0ffffffffH	; DirectX::g_XMMask3
	DD	0ffffffffH
	DD	0ffffffffH
	DD	00H
CONST	ENDS
;	COMDAT ?g_XMIdentityR3@DirectX@@3UXMVECTORF32@1@B
CONST	SEGMENT
?g_XMIdentityR3@DirectX@@3UXMVECTORF32@1@B DD 000000000r ; 0 ; DirectX::g_XMIdentityR3
	DD	000000000r			; 0
	DD	000000000r			; 0
	DD	03f800000r			; 1
CONST	ENDS
;	COMDAT ?g_XMIdentityR2@DirectX@@3UXMVECTORF32@1@B
CONST	SEGMENT
?g_XMIdentityR2@DirectX@@3UXMVECTORF32@1@B DD 000000000r ; 0 ; DirectX::g_XMIdentityR2
	DD	000000000r			; 0
	DD	03f800000r			; 1
	DD	000000000r			; 0
CONST	ENDS
;	COMDAT ?g_XMIdentityR1@DirectX@@3UXMVECTORF32@1@B
CONST	SEGMENT
?g_XMIdentityR1@DirectX@@3UXMVECTORF32@1@B DD 000000000r ; 0 ; DirectX::g_XMIdentityR1
	DD	03f800000r			; 1
	DD	000000000r			; 0
	DD	000000000r			; 0
CONST	ENDS
;	COMDAT ?g_XMIdentityR0@DirectX@@3UXMVECTORF32@1@B
CONST	SEGMENT
?g_XMIdentityR0@DirectX@@3UXMVECTORF32@1@B DD 03f800000r ; 1 ; DirectX::g_XMIdentityR0
	DD	000000000r			; 0
	DD	000000000r			; 0
	DD	000000000r			; 0
CONST	ENDS
;	COMDAT ?value@?$integral_constant@H$0A@@std@@2HB
CONST	SEGMENT
?value@?$integral_constant@H$0A@@std@@2HB DD 00H	; std::integral_constant<int,0>::value
CONST	ENDS
CONST	SEGMENT
$SG163884 DB	'D', 00H, 'r', 00H, 'a', 00H, 'w', 00H, 'T', 00H, 'e', 00H
	DB	'x', 00H, 't', 00H, 'L', 00H, 'i', 00H, 'n', 00H, 'e', 00H, 00H
	DB	00H
	ORG $+2
$SG163885 DB	'SDKmisc.cpp', 00H
$SG163894 DB	'D', 00H, 'r', 00H, 'a', 00H, 'w', 00H, 'T', 00H, 'e', 00H
	DB	'x', 00H, 't', 00H, 00H, 00H
	ORG $+2
$SG163895 DB	'S', 00H, 'D', 00H, 'K', 00H, 'm', 00H, 'i', 00H, 's', 00H
	DB	'c', 00H, '.', 00H, 'c', 00H, 'p', 00H, 'p', 00H, 00H, 00H
$SG163918 DB	'D', 00H, 'r', 00H, 'a', 00H, 'w', 00H, 'T', 00H, 'e', 00H
	DB	'x', 00H, 't', 00H, 'L', 00H, 'i', 00H, 'n', 00H, 'e', 00H, 00H
	DB	00H
	ORG $+2
$SG163919 DB	'SDKmisc.cpp', 00H
$SG163927 DB	'D', 00H, 'r', 00H, 'a', 00H, 'w', 00H, 'T', 00H, 'e', 00H
	DB	'x', 00H, 't', 00H, 00H, 00H
	ORG $+2
$SG163928 DB	'S', 00H, 'D', 00H, 'K', 00H, 'm', 00H, 'i', 00H, 's', 00H
	DB	'c', 00H, '.', 00H, 'c', 00H, 'p', 00H, 'p', 00H, 00H, 00H
$SG163421 DB	'\', 00H, 'D', 00H, 'X', 00H, 'U', 00H, 'T', 00H, '\', 00H
	DB	'S', 00H, 'k', 00H, 'i', 00H, 'p', 00H, 'R', 00H, 'e', 00H, 'f'
	DB	00H, 'W', 00H, 'a', 00H, 'r', 00H, 'n', 00H, 'i', 00H, 'n', 00H
	DB	'g', 00H, '.', 00H, 'd', 00H, 'a', 00H, 't', 00H, 00H, 00H
	ORG $+2
$SG163462 DB	' ', 00H, 00H, 00H
$SG163463 DB	'M', 00H, 'S', 00H, ' ', 00H, 'S', 00H, 'h', 00H, 'e', 00H
	DB	'l', 00H, 'l', 00H, ' ', 00H, 'D', 00H, 'l', 00H, 'g', 00H, ' '
	DB	00H, '2', 00H, 00H, 00H
	ORG $+2
$SG163471 DB	'\', 00H, 'D', 00H, 'X', 00H, 'U', 00H, 'T', 00H, 00H, 00H
$SG163472 DB	'\', 00H, 'S', 00H, 'k', 00H, 'i', 00H, 'p', 00H, 'R', 00H
	DB	'e', 00H, 'f', 00H, 'W', 00H, 'a', 00H, 'r', 00H, 'n', 00H, 'i'
	DB	00H, 'n', 00H, 'g', 00H, '.', 00H, 'd', 00H, 'a', 00H, 't', 00H
	DB	00H, 00H
$SG163500 DB	'&', 00H, 'Y', 00H, 'e', 00H, 's', 00H, 00H, 00H
	ORG $+2
$SG163499 DB	'T', 00H, 'h', 00H, 'i', 00H, 's', 00H, ' ', 00H, 'p', 00H
	DB	'r', 00H, 'o', 00H, 'g', 00H, 'r', 00H, 'a', 00H, 'm', 00H, ' '
	DB	00H, 'n', 00H, 'e', 00H, 'e', 00H, 'd', 00H, 's', 00H, ' ', 00H
	DB	't', 00H, 'o', 00H, ' ', 00H, 'u', 00H, 's', 00H, 'e', 00H, ' '
	DB	00H, 't', 00H, 'h', 00H, 'e', 00H, ' ', 00H, 'D', 00H, 'i', 00H
	DB	'r', 00H, 'e', 00H, 'c', 00H, 't', 00H, '3', 00H, 'D', 00H, ' '
	DB	00H, '%', 00H, 'I', 00H, 'u', 00H, ' ', 00H, 'r', 00H, 'e', 00H
	DB	'f', 00H, 'e', 00H, 'r', 00H, 'e', 00H, 'n', 00H, 'c', 00H, 'e'
	DB	00H, ' ', 00H, 'd', 00H, 'e', 00H, 'v', 00H, 'i', 00H, 'c', 00H
	DB	'e', 00H, '.', 00H, ' ', 00H, ' ', 00H, 'T', 00H, 'h', 00H, 'i'
	DB	00H, 's', 00H, ' ', 00H, 'd', 00H, 'e', 00H, 'v', 00H, 'i', 00H
	DB	'c', 00H, 'e', 00H, ' ', 00H, 'i', 00H, 'm', 00H, 'p', 00H, 'l'
	DB	00H, 'e', 00H, 'm', 00H, 'e', 00H, 'n', 00H, 't', 00H, 's', 00H
	DB	' ', 00H, 't', 00H, 'h', 00H, 'e', 00H, ' ', 00H, 'e', 00H, 'n'
	DB	00H, 't', 00H, 'i', 00H, 'r', 00H, 'e', 00H, ' ', 00H, 'D', 00H
	DB	'i', 00H, 'r', 00H, 'e', 00H, 'c', 00H, 't', 00H, '3', 00H, 'D'
	DB	00H, ' ', 00H, '%', 00H, 'I', 00H, 'u', 00H, ' ', 00H, 'f', 00H
	DB	'e', 00H, 'a', 00H, 't', 00H, 'u', 00H, 'r', 00H, 'e', 00H, ' '
	DB	00H, 's', 00H, 'e', 00H, 't', 00H, ',', 00H, ' ', 00H, 'b', 00H
	DB	'u', 00H, 't', 00H, ' ', 00H, 'r', 00H, 'u', 00H, 'n', 00H, 's'
	DB	00H, ' ', 00H, 'v', 00H, 'e', 00H, 'r', 00H, 'y', 00H, ' ', 00H
	DB	's', 00H, 'l', 00H, 'o', 00H, 'w', 00H, 'l', 00H, 'y', 00H, '.'
	DB	00H, ' ', 00H, ' ', 00H, 'D', 00H, 'o', 00H, ' ', 00H, 'y', 00H
	DB	'o', 00H, 'u', 00H, ' ', 00H, 'w', 00H, 'i', 00H, 's', 00H, 'h'
	DB	00H, ' ', 00H, 't', 00H, 'o', 00H, ' ', 00H, 'c', 00H, 'o', 00H
	DB	'n', 00H, 't', 00H, 'i', 00H, 'n', 00H, 'u', 00H, 'e', 00H, '?'
	DB	00H, 00H, 00H
$SG163501 DB	'&', 00H, 'N', 00H, 'o', 00H, 00H, 00H
$SG163502 DB	'&', 00H, 'D', 00H, 'o', 00H, 'n', 00H, '''', 00H, 't', 00H
	DB	' ', 00H, 's', 00H, 'h', 00H, 'o', 00H, 'w', 00H, ' ', 00H, 'a'
	DB	00H, 'g', 00H, 'a', 00H, 'i', 00H, 'n', 00H, 00H, 00H
$SG163529 DB	'\', 00H, 00H, 00H
$SG163553 DB	'm', 00H, 'e', 00H, 'd', 00H, 'i', 00H, 'a', 00H, '\', 00H
	DB	'%', 00H, 's', 00H, 00H, 00H
	ORG $+2
$SG163557 DB	'.', 00H, 00H, 00H
$SG163562 DB	'm', 00H, 'e', 00H, 'd', 00H, 'i', 00H, 'a', 00H, '\', 00H
	DB	'%', 00H, 's', 00H, 00H, 00H
	ORG $+2
$SG163563 DB	'.', 00H, 00H, 00H
$SG163580 DB	'.', 00H, '.', 00H, '\', 00H, '%', 00H, 's', 00H, 00H, 00H
$SG163582 DB	'.', 00H, '.', 00H, '\', 00H, '.', 00H, '.', 00H, '\', 00H
	DB	'%', 00H, 's', 00H, 00H, 00H
	ORG $+2
$SG163584 DB	'.', 00H, '.', 00H, '\', 00H, '.', 00H, '.', 00H, '\', 00H
	DB	'%', 00H, 's', 00H, 00H, 00H
	ORG $+2
$SG163586 DB	'%', 00H, 's', 00H, '\', 00H, '%', 00H, 's', 00H, 00H, 00H
$SG163588 DB	'%', 00H, 's', 00H, '\', 00H, '.', 00H, '.', 00H, '\', 00H
	DB	'%', 00H, 's', 00H, 00H, 00H
	ORG $+2
$SG163590 DB	'%', 00H, 's', 00H, '\', 00H, '.', 00H, '.', 00H, '\', 00H
	DB	'.', 00H, '.', 00H, '\', 00H, '%', 00H, 's', 00H, 00H, 00H
$SG163592 DB	'%', 00H, 's', 00H, '\', 00H, '.', 00H, '.', 00H, '\', 00H
	DB	'%', 00H, 's', 00H, '\', 00H, '%', 00H, 's', 00H, 00H, 00H
$SG163594 DB	'%', 00H, 's', 00H, '\', 00H, '.', 00H, '.', 00H, '\', 00H
	DB	'.', 00H, '.', 00H, '\', 00H, '%', 00H, 's', 00H, '\', 00H, '%'
	DB	00H, 's', 00H, 00H, 00H
	ORG $+2
$SG163598 DB	'%', 00H, 's', 00H, '%', 00H, 's', 00H, 00H, 00H
	ORG $+2
$SG163614 DB	'%', 00H, 's', 00H, '\', 00H, '%', 00H, 's', 00H, 00H, 00H
$SG163616 DB	'%', 00H, 's', 00H, '\', 00H, '.', 00H, '.', 00H, 00H, 00H
$SG163633 DB	'SDKmisc.cpp', 00H
$SG163632 DB	'D', 00H, 'X', 00H, 'U', 00H, 'T', 00H, 'F', 00H, 'i', 00H
	DB	'n', 00H, 'd', 00H, 'D', 00H, 'X', 00H, 'S', 00H, 'D', 00H, 'K'
	DB	00H, 'M', 00H, 'e', 00H, 'd', 00H, 'i', 00H, 'a', 00H, 'F', 00H
	DB	'i', 00H, 'l', 00H, 'e', 00H, 'C', 00H, 'c', 00H, 'h', 00H, '('
	DB	00H, ' ', 00H, 's', 00H, 't', 00H, 'r', 00H, ',', 00H, ' ', 00H
	DB	'M', 00H, 'A', 00H, 'X', 00H, '_', 00H, 'P', 00H, 'A', 00H, 'T'
	DB	00H, 'H', 00H, ',', 00H, ' ', 00H, 'p', 00H, 'F', 00H, 'i', 00H
	DB	'l', 00H, 'e', 00H, 'N', 00H, 'a', 00H, 'm', 00H, 'e', 00H, ' '
	DB	00H, ')', 00H, 00H, 00H
$SG163653 DB	'.', 00H, 'd', 00H, 'd', 00H, 's', 00H, 00H, 00H
	ORG $+2
$SG163669 DB	'.', 00H, 'd', 00H, 'd', 00H, 's', 00H, 00H, 00H
	ORG $+2
$SG163821 DB	'.', 00H, 'd', 00H, 'd', 00H, 's', 00H, 00H, 00H
CONST	ENDS
;	COMDAT _GUID_ContainerFormatBmp
CONST	SEGMENT
_GUID_ContainerFormatBmp DD 0af1d87eH
	DW	0fcfeH
	DW	04188H
	DB	0bdH
	DB	0ebH
	DB	0a7H
	DB	090H
	DB	064H
	DB	071H
	DB	0cbH
	DB	0e3H
CONST	ENDS
PUBLIC	?wcsrchr@@YAPA_WPA_W_W@Z			; wcsrchr
PUBLIC	??2@YAPAXIPAX@Z					; operator new
PUBLIC	??3@YAXPAX0@Z					; operator delete
PUBLIC	??BXMVECTORF32@DirectX@@QBE?AT__m128@@XZ	; DirectX::XMVECTORF32::operator __m128
PUBLIC	??BXMVECTORI32@DirectX@@QBE?AT__m128@@XZ	; DirectX::XMVECTORI32::operator __m128
PUBLIC	??0XMMATRIX@DirectX@@QAE@XZ			; DirectX::XMMATRIX::XMMATRIX
PUBLIC	??4XMMATRIX@DirectX@@QAEAAU01@ABU01@@Z		; DirectX::XMMATRIX::operator=
PUBLIC	??0XMFLOAT4@DirectX@@QAE@XZ			; DirectX::XMFLOAT4::XMFLOAT4
PUBLIC	??0XMFLOAT4@DirectX@@QAE@MMMM@Z			; DirectX::XMFLOAT4::XMFLOAT4
PUBLIC	??4XMFLOAT4@DirectX@@QAEAAU01@ABU01@@Z		; DirectX::XMFLOAT4::operator=
PUBLIC	?XMVectorZero@DirectX@@YQ?AT__m128@@XZ		; DirectX::XMVectorZero
PUBLIC	?XMVectorSelect@DirectX@@YQ?AT__m128@@T2@00@Z	; DirectX::XMVectorSelect
PUBLIC	?XMVectorNegate@DirectX@@YQ?AT__m128@@T2@@Z	; DirectX::XMVectorNegate
PUBLIC	?XMVectorSubtract@DirectX@@YQ?AT__m128@@T2@0@Z	; DirectX::XMVectorSubtract
PUBLIC	?XMVector3Equal@DirectX@@YQ_NT__m128@@0@Z	; DirectX::XMVector3Equal
PUBLIC	?XMVector3IsInfinite@DirectX@@YQ_NT__m128@@@Z	; DirectX::XMVector3IsInfinite
PUBLIC	?XMVector3Dot@DirectX@@YQ?AT__m128@@T2@0@Z	; DirectX::XMVector3Dot
PUBLIC	?XMVector3Cross@DirectX@@YQ?AT__m128@@T2@0@Z	; DirectX::XMVector3Cross
PUBLIC	?XMVector3Normalize@DirectX@@YQ?AT__m128@@T2@@Z	; DirectX::XMVector3Normalize
PUBLIC	?XMMatrixTranspose@DirectX@@YQ?AUXMMATRIX@1@U21@@Z ; DirectX::XMMatrixTranspose
PUBLIC	?XMMatrixIdentity@DirectX@@YQ?AUXMMATRIX@1@XZ	; DirectX::XMMatrixIdentity
PUBLIC	?XMMatrixLookAtLH@DirectX@@YQ?AUXMMATRIX@1@T__m128@@00@Z ; DirectX::XMMatrixLookAtLH
PUBLIC	?XMMatrixLookToLH@DirectX@@YQ?AUXMMATRIX@1@T__m128@@00@Z ; DirectX::XMMatrixLookToLH
PUBLIC	??0_Container_proxy@std@@QAE@XZ			; std::_Container_proxy::_Container_proxy
PUBLIC	??0_Iterator_base12@std@@QAE@XZ			; std::_Iterator_base12::_Iterator_base12
PUBLIC	??1_Iterator_base12@std@@QAE@XZ			; std::_Iterator_base12::~_Iterator_base12
PUBLIC	?_Adopt@_Iterator_base12@std@@QAEXPBU_Container_base12@2@@Z ; std::_Iterator_base12::_Adopt
PUBLIC	?_Clrcont@_Iterator_base12@std@@QAEXXZ		; std::_Iterator_base12::_Clrcont
PUBLIC	?_Getcont@_Iterator_base12@std@@QBEPBU_Container_base12@2@XZ ; std::_Iterator_base12::_Getcont
PUBLIC	?_Getpnext@_Iterator_base12@std@@QAEPAPAU12@XZ	; std::_Iterator_base12::_Getpnext
PUBLIC	?_Orphan_me@_Iterator_base12@std@@QAEXXZ	; std::_Iterator_base12::_Orphan_me
PUBLIC	??0?$allocator@U_Container_proxy@std@@@std@@QAE@XZ ; std::allocator<std::_Container_proxy>::allocator<std::_Container_proxy>
PUBLIC	?deallocate@?$allocator@U_Container_proxy@std@@@std@@QAEXPAU_Container_proxy@2@I@Z ; std::allocator<std::_Container_proxy>::deallocate
PUBLIC	?allocate@?$allocator@U_Container_proxy@std@@@std@@QAEPAU_Container_proxy@2@I@Z ; std::allocator<std::_Container_proxy>::allocate
PUBLIC	??0?$_Wrap_alloc@V?$allocator@U_Container_proxy@std@@@std@@@std@@QAE@XZ ; std::_Wrap_alloc<std::allocator<std::_Container_proxy> >::_Wrap_alloc<std::allocator<std::_Container_proxy> >
PUBLIC	?allocate@?$_Wrap_alloc@V?$allocator@U_Container_proxy@std@@@std@@@std@@QAEPAU_Container_proxy@2@I@Z ; std::_Wrap_alloc<std::allocator<std::_Container_proxy> >::allocate
PUBLIC	?deallocate@?$_Wrap_alloc@V?$allocator@U_Container_proxy@std@@@std@@@std@@QAEXPAU_Container_proxy@2@I@Z ; std::_Wrap_alloc<std::allocator<std::_Container_proxy> >::deallocate
PUBLIC	??$construct@U_Container_proxy@std@@U12@@?$_Wrap_alloc@V?$allocator@U_Container_proxy@std@@@std@@@std@@QAEXPAU_Container_proxy@1@$$QAU21@@Z ; std::_Wrap_alloc<std::allocator<std::_Container_proxy> >::construct<std::_Container_proxy,std::_Container_proxy>
PUBLIC	??$destroy@U_Container_proxy@std@@@?$_Wrap_alloc@V?$allocator@U_Container_proxy@std@@@std@@@std@@QAEXPAU_Container_proxy@1@@Z ; std::_Wrap_alloc<std::allocator<std::_Container_proxy> >::destroy<std::_Container_proxy>
PUBLIC	??$_Allocate@U_Container_proxy@std@@@std@@YAPAU_Container_proxy@0@IPAU10@@Z ; std::_Allocate<std::_Container_proxy>
PUBLIC	??$forward@U_Container_proxy@std@@@std@@YA$$QAU_Container_proxy@0@AAU10@@Z ; std::forward<std::_Container_proxy>
PUBLIC	??$construct@U_Container_proxy@std@@U12@@?$allocator_traits@V?$allocator@U_Container_proxy@std@@@std@@@std@@SAXAAV?$allocator@U_Container_proxy@std@@@1@PAU_Container_proxy@1@$$QAU31@@Z ; std::allocator_traits<std::allocator<std::_Container_proxy> >::construct<std::_Container_proxy,std::_Container_proxy>
PUBLIC	??$destroy@U_Container_proxy@std@@@?$allocator_traits@V?$allocator@U_Container_proxy@std@@@std@@@std@@SAXAAV?$allocator@U_Container_proxy@std@@@1@PAU_Container_proxy@1@@Z ; std::allocator_traits<std::allocator<std::_Container_proxy> >::destroy<std::_Container_proxy>
PUBLIC	??$construct@U_Container_proxy@std@@U12@@?$allocator@U_Container_proxy@std@@@std@@QAEXPAU_Container_proxy@1@$$QAU21@@Z ; std::allocator<std::_Container_proxy>::construct<std::_Container_proxy,std::_Container_proxy>
PUBLIC	??$destroy@U_Container_proxy@std@@@?$allocator@U_Container_proxy@std@@@std@@QAEXPAU_Container_proxy@1@@Z ; std::allocator<std::_Container_proxy>::destroy<std::_Container_proxy>
PUBLIC	??0DXUTCache_Texture@@QAE@XZ			; DXUTCache_Texture::DXUTCache_Texture
PUBLIC	??1CDXUTResourceCache@@QAE@XZ			; CDXUTResourceCache::~CDXUTResourceCache
PUBLIC	?CreateTextureFromFile@CDXUTResourceCache@@QAEJPAUID3D11Device@@PAUID3D11DeviceContext@@PB_WPAPAUID3D11ShaderResourceView@@_N@Z ; CDXUTResourceCache::CreateTextureFromFile
PUBLIC	?CreateTextureFromFile@CDXUTResourceCache@@QAEJPAUID3D11Device@@PAUID3D11DeviceContext@@PBDPAPAUID3D11ShaderResourceView@@_N@Z ; CDXUTResourceCache::CreateTextureFromFile
PUBLIC	?OnDestroyDevice@CDXUTResourceCache@@QAEJXZ	; CDXUTResourceCache::OnDestroyDevice
PUBLIC	?DXUTGetGlobalResourceCache@@YGAAVCDXUTResourceCache@@XZ ; DXUTGetGlobalResourceCache
PUBLIC	??0CDXUTResourceCache@@IAE@XZ			; CDXUTResourceCache::CDXUTResourceCache
PUBLIC	??0?$allocator@UDXUTCache_Texture@@@std@@QAE@XZ	; std::allocator<DXUTCache_Texture>::allocator<DXUTCache_Texture>
PUBLIC	?deallocate@?$allocator@UDXUTCache_Texture@@@std@@QAEXPAUDXUTCache_Texture@@I@Z ; std::allocator<DXUTCache_Texture>::deallocate
PUBLIC	?allocate@?$allocator@UDXUTCache_Texture@@@std@@QAEPAUDXUTCache_Texture@@I@Z ; std::allocator<DXUTCache_Texture>::allocate
PUBLIC	?construct@?$allocator@UDXUTCache_Texture@@@std@@QAEXPAUDXUTCache_Texture@@ABU3@@Z ; std::allocator<DXUTCache_Texture>::construct
PUBLIC	?max_size@?$allocator@UDXUTCache_Texture@@@std@@QBEIXZ ; std::allocator<DXUTCache_Texture>::max_size
PUBLIC	?max_size@?$allocator_traits@V?$allocator@UDXUTCache_Texture@@@std@@@std@@SAIABV?$allocator@UDXUTCache_Texture@@@2@@Z ; std::allocator_traits<std::allocator<DXUTCache_Texture> >::max_size
PUBLIC	??0?$_Wrap_alloc@V?$allocator@UDXUTCache_Texture@@@std@@@std@@QAE@XZ ; std::_Wrap_alloc<std::allocator<DXUTCache_Texture> >::_Wrap_alloc<std::allocator<DXUTCache_Texture> >
PUBLIC	?allocate@?$_Wrap_alloc@V?$allocator@UDXUTCache_Texture@@@std@@@std@@QAEPAUDXUTCache_Texture@@I@Z ; std::_Wrap_alloc<std::allocator<DXUTCache_Texture> >::allocate
PUBLIC	?deallocate@?$_Wrap_alloc@V?$allocator@UDXUTCache_Texture@@@std@@@std@@QAEXPAUDXUTCache_Texture@@I@Z ; std::_Wrap_alloc<std::allocator<DXUTCache_Texture> >::deallocate
PUBLIC	?max_size@?$_Wrap_alloc@V?$allocator@UDXUTCache_Texture@@@std@@@std@@QBEIXZ ; std::_Wrap_alloc<std::allocator<DXUTCache_Texture> >::max_size
PUBLIC	??0?$_Vector_val@U?$_Simple_types@UDXUTCache_Texture@@@std@@@std@@QAE@XZ ; std::_Vector_val<std::_Simple_types<DXUTCache_Texture> >::_Vector_val<std::_Simple_types<DXUTCache_Texture> >
PUBLIC	??1?$_Vector_val@U?$_Simple_types@UDXUTCache_Texture@@@std@@@std@@QAE@XZ ; std::_Vector_val<std::_Simple_types<DXUTCache_Texture> >::~_Vector_val<std::_Simple_types<DXUTCache_Texture> >
PUBLIC	??0?$_Vector_alloc@$0A@U?$_Vec_base_types@UDXUTCache_Texture@@V?$allocator@UDXUTCache_Texture@@@std@@@std@@@std@@QAE@ABV?$allocator@UDXUTCache_Texture@@@1@@Z ; std::_Vector_alloc<0,std::_Vec_base_types<DXUTCache_Texture,std::allocator<DXUTCache_Texture> > >::_Vector_alloc<0,std::_Vec_base_types<DXUTCache_Texture,std::allocator<DXUTCache_Texture> > >
PUBLIC	??1?$_Vector_alloc@$0A@U?$_Vec_base_types@UDXUTCache_Texture@@V?$allocator@UDXUTCache_Texture@@@std@@@std@@@std@@QAE@XZ ; std::_Vector_alloc<0,std::_Vec_base_types<DXUTCache_Texture,std::allocator<DXUTCache_Texture> > >::~_Vector_alloc<0,std::_Vec_base_types<DXUTCache_Texture,std::allocator<DXUTCache_Texture> > >
PUBLIC	?_Alloc_proxy@?$_Vector_alloc@$0A@U?$_Vec_base_types@UDXUTCache_Texture@@V?$allocator@UDXUTCache_Texture@@@std@@@std@@@std@@QAEXXZ ; std::_Vector_alloc<0,std::_Vec_base_types<DXUTCache_Texture,std::allocator<DXUTCache_Texture> > >::_Alloc_proxy
PUBLIC	?_Free_proxy@?$_Vector_alloc@$0A@U?$_Vec_base_types@UDXUTCache_Texture@@V?$allocator@UDXUTCache_Texture@@@std@@@std@@@std@@QAEXXZ ; std::_Vector_alloc<0,std::_Vec_base_types<DXUTCache_Texture,std::allocator<DXUTCache_Texture> > >::_Free_proxy
PUBLIC	?_Getal@?$_Vector_alloc@$0A@U?$_Vec_base_types@UDXUTCache_Texture@@V?$allocator@UDXUTCache_Texture@@@std@@@std@@@std@@QBE?AU?$_Wrap_alloc@V?$allocator@UDXUTCache_Texture@@@std@@@2@XZ ; std::_Vector_alloc<0,std::_Vec_base_types<DXUTCache_Texture,std::allocator<DXUTCache_Texture> > >::_Getal
PUBLIC	??0?$vector@UDXUTCache_Texture@@V?$allocator@UDXUTCache_Texture@@@std@@@std@@QAE@XZ ; std::vector<DXUTCache_Texture,std::allocator<DXUTCache_Texture> >::vector<DXUTCache_Texture,std::allocator<DXUTCache_Texture> >
PUBLIC	??1?$vector@UDXUTCache_Texture@@V?$allocator@UDXUTCache_Texture@@@std@@@std@@QAE@XZ ; std::vector<DXUTCache_Texture,std::allocator<DXUTCache_Texture> >::~vector<DXUTCache_Texture,std::allocator<DXUTCache_Texture> >
PUBLIC	?capacity@?$vector@UDXUTCache_Texture@@V?$allocator@UDXUTCache_Texture@@@std@@@std@@QBEIXZ ; std::vector<DXUTCache_Texture,std::allocator<DXUTCache_Texture> >::capacity
PUBLIC	?_Unused_capacity@?$vector@UDXUTCache_Texture@@V?$allocator@UDXUTCache_Texture@@@std@@@std@@QBEIXZ ; std::vector<DXUTCache_Texture,std::allocator<DXUTCache_Texture> >::_Unused_capacity
PUBLIC	?_Has_unused_capacity@?$vector@UDXUTCache_Texture@@V?$allocator@UDXUTCache_Texture@@@std@@@std@@QBEIXZ ; std::vector<DXUTCache_Texture,std::allocator<DXUTCache_Texture> >::_Has_unused_capacity
PUBLIC	?begin@?$vector@UDXUTCache_Texture@@V?$allocator@UDXUTCache_Texture@@@std@@@std@@QBE?AV?$_Vector_const_iterator@V?$_Vector_val@U?$_Simple_types@UDXUTCache_Texture@@@std@@@std@@@2@XZ ; std::vector<DXUTCache_Texture,std::allocator<DXUTCache_Texture> >::begin
PUBLIC	?end@?$vector@UDXUTCache_Texture@@V?$allocator@UDXUTCache_Texture@@@std@@@std@@QBE?AV?$_Vector_const_iterator@V?$_Vector_val@U?$_Simple_types@UDXUTCache_Texture@@@std@@@std@@@2@XZ ; std::vector<DXUTCache_Texture,std::allocator<DXUTCache_Texture> >::end
PUBLIC	?cbegin@?$vector@UDXUTCache_Texture@@V?$allocator@UDXUTCache_Texture@@@std@@@std@@QBE?AV?$_Vector_const_iterator@V?$_Vector_val@U?$_Simple_types@UDXUTCache_Texture@@@std@@@std@@@2@XZ ; std::vector<DXUTCache_Texture,std::allocator<DXUTCache_Texture> >::cbegin
PUBLIC	?cend@?$vector@UDXUTCache_Texture@@V?$allocator@UDXUTCache_Texture@@@std@@@std@@QBE?AV?$_Vector_const_iterator@V?$_Vector_val@U?$_Simple_types@UDXUTCache_Texture@@@std@@@std@@@2@XZ ; std::vector<DXUTCache_Texture,std::allocator<DXUTCache_Texture> >::cend
PUBLIC	?shrink_to_fit@?$vector@UDXUTCache_Texture@@V?$allocator@UDXUTCache_Texture@@@std@@@std@@QAEXXZ ; std::vector<DXUTCache_Texture,std::allocator<DXUTCache_Texture> >::shrink_to_fit
PUBLIC	?size@?$vector@UDXUTCache_Texture@@V?$allocator@UDXUTCache_Texture@@@std@@@std@@QBEIXZ ; std::vector<DXUTCache_Texture,std::allocator<DXUTCache_Texture> >::size
PUBLIC	?max_size@?$vector@UDXUTCache_Texture@@V?$allocator@UDXUTCache_Texture@@@std@@@std@@QBEIXZ ; std::vector<DXUTCache_Texture,std::allocator<DXUTCache_Texture> >::max_size
PUBLIC	?empty@?$vector@UDXUTCache_Texture@@V?$allocator@UDXUTCache_Texture@@@std@@@std@@QBE_NXZ ; std::vector<DXUTCache_Texture,std::allocator<DXUTCache_Texture> >::empty
PUBLIC	??A?$vector@UDXUTCache_Texture@@V?$allocator@UDXUTCache_Texture@@@std@@@std@@QAEAAUDXUTCache_Texture@@I@Z ; std::vector<DXUTCache_Texture,std::allocator<DXUTCache_Texture> >::operator[]
PUBLIC	?push_back@?$vector@UDXUTCache_Texture@@V?$allocator@UDXUTCache_Texture@@@std@@@std@@QAEXABUDXUTCache_Texture@@@Z ; std::vector<DXUTCache_Texture,std::allocator<DXUTCache_Texture> >::push_back
PUBLIC	?clear@?$vector@UDXUTCache_Texture@@V?$allocator@UDXUTCache_Texture@@@std@@@std@@QAEXXZ ; std::vector<DXUTCache_Texture,std::allocator<DXUTCache_Texture> >::clear
PUBLIC	?_Destroy@?$vector@UDXUTCache_Texture@@V?$allocator@UDXUTCache_Texture@@@std@@@std@@IAEXPAUDXUTCache_Texture@@0@Z ; std::vector<DXUTCache_Texture,std::allocator<DXUTCache_Texture> >::_Destroy
PUBLIC	?_Grow_to@?$vector@UDXUTCache_Texture@@V?$allocator@UDXUTCache_Texture@@@std@@@std@@IBEII@Z ; std::vector<DXUTCache_Texture,std::allocator<DXUTCache_Texture> >::_Grow_to
PUBLIC	?_Inside@?$vector@UDXUTCache_Texture@@V?$allocator@UDXUTCache_Texture@@@std@@@std@@IBE_NPBUDXUTCache_Texture@@@Z ; std::vector<DXUTCache_Texture,std::allocator<DXUTCache_Texture> >::_Inside
PUBLIC	?_Reallocate@?$vector@UDXUTCache_Texture@@V?$allocator@UDXUTCache_Texture@@@std@@@std@@IAEXI@Z ; std::vector<DXUTCache_Texture,std::allocator<DXUTCache_Texture> >::_Reallocate
PUBLIC	?_Reserve@?$vector@UDXUTCache_Texture@@V?$allocator@UDXUTCache_Texture@@@std@@@std@@IAEXI@Z ; std::vector<DXUTCache_Texture,std::allocator<DXUTCache_Texture> >::_Reserve
PUBLIC	?_Tidy@?$vector@UDXUTCache_Texture@@V?$allocator@UDXUTCache_Texture@@@std@@@std@@IAEXXZ ; std::vector<DXUTCache_Texture,std::allocator<DXUTCache_Texture> >::_Tidy
PUBLIC	?_Xlen@?$vector@UDXUTCache_Texture@@V?$allocator@UDXUTCache_Texture@@@std@@@std@@IBEXXZ ; std::vector<DXUTCache_Texture,std::allocator<DXUTCache_Texture> >::_Xlen
PUBLIC	?_Orphan_range@?$vector@UDXUTCache_Texture@@V?$allocator@UDXUTCache_Texture@@@std@@@std@@IBEXPAUDXUTCache_Texture@@0@Z ; std::vector<DXUTCache_Texture,std::allocator<DXUTCache_Texture> >::_Orphan_range
PUBLIC	??0CDXUTTextHelper@@QAE@PAUID3D11Device@@PAUID3D11DeviceContext@@PAVCDXUTDialogResourceManager@@H@Z ; CDXUTTextHelper::CDXUTTextHelper
PUBLIC	??1CDXUTTextHelper@@QAE@XZ			; CDXUTTextHelper::~CDXUTTextHelper
PUBLIC	?Init@CDXUTTextHelper@@QAEXH@Z			; CDXUTTextHelper::Init
PUBLIC	?Begin@CDXUTTextHelper@@QAEXXZ			; CDXUTTextHelper::Begin
PUBLIC	?DrawFormattedTextLine@CDXUTTextHelper@@QAAJPB_WZZ ; CDXUTTextHelper::DrawFormattedTextLine
PUBLIC	?DrawTextLine@CDXUTTextHelper@@QAEJPB_W@Z	; CDXUTTextHelper::DrawTextLine
PUBLIC	?DrawFormattedTextLine@CDXUTTextHelper@@QAAJABUtagRECT@@PB_WZZ ; CDXUTTextHelper::DrawFormattedTextLine
PUBLIC	?DrawTextLine@CDXUTTextHelper@@QAEJABUtagRECT@@PB_W@Z ; CDXUTTextHelper::DrawTextLine
PUBLIC	?End@CDXUTTextHelper@@QAEXXZ			; CDXUTTextHelper::End
PUBLIC	?DXUTDisplaySwitchingToREFWarning@@YGXXZ	; DXUTDisplaySwitchingToREFWarning
PUBLIC	?DXUTFindDXSDKMediaFileCch@@YGJPA_WHPB_W@Z	; DXUTFindDXSDKMediaFileCch
PUBLIC	?DXUTSetMediaSearchPath@@YGJPB_W@Z		; DXUTSetMediaSearchPath
PUBLIC	?DXUTGetMediaSearchPath@@YGPB_WXZ		; DXUTGetMediaSearchPath
PUBLIC	?DXUTCompileFromFile@@YGJPB_WPBU_D3D_SHADER_MACRO@@PBD2IIPAPAUID3D10Blob@@@Z ; DXUTCompileFromFile
PUBLIC	?DXUTCreateShaderResourceViewFromFile@@YGJPAUID3D11Device@@PB_WPAPAUID3D11ShaderResourceView@@@Z ; DXUTCreateShaderResourceViewFromFile
PUBLIC	?DXUTCreateTextureFromFile@@YGJPAUID3D11Device@@PB_WPAPAUID3D11Resource@@@Z ; DXUTCreateTextureFromFile
PUBLIC	?DXUTSaveTextureToFile@@YGJPAUID3D11DeviceContext@@PAUID3D11Resource@@_NPB_W@Z ; DXUTSaveTextureToFile
PUBLIC	?DXUTGetCubeMapViewMatrix@@YG?AUXMMATRIX@DirectX@@K@Z ; DXUTGetCubeMapViewMatrix
PUBLIC	??0_Ignore@std@@QAE@XZ				; std::_Ignore::_Ignore
PUBLIC	??0?$_Func_class@XPAUIPropertyBag2@@@std@@QAE@XZ ; std::_Func_class<void,IPropertyBag2 *>::_Func_class<void,IPropertyBag2 *>
PUBLIC	?_Reset@?$_Func_class@XPAUIPropertyBag2@@@std@@IAEXXZ ; std::_Func_class<void,IPropertyBag2 *>::_Reset
PUBLIC	?_Set@?$_Func_class@XPAUIPropertyBag2@@@std@@AAEXPAV?$_Func_base@XPAUIPropertyBag2@@@2@@Z ; std::_Func_class<void,IPropertyBag2 *>::_Set
PUBLIC	??0?$function@$$A6AXPAUIPropertyBag2@@@Z@std@@QAE@$$T@Z ; std::function<void __cdecl(IPropertyBag2 *)>::function<void __cdecl(IPropertyBag2 *)>
PUBLIC	?DXUTFindMediaSearchTypicalDirs@@YA_NPA_WHPB_W11@Z ; DXUTFindMediaSearchTypicalDirs
PUBLIC	?DXUTFindMediaSearchParentDirs@@YA_NPA_WHPB_W1@Z ; DXUTFindMediaSearchParentDirs
PUBLIC	?DisplaySwitchToREFWarningProc@@YGHPAUHWND__@@IIJ@Z ; DisplaySwitchToREFWarningProc
PUBLIC	?DXUTMediaSearchPath@@YAPA_WXZ			; DXUTMediaSearchPath
PUBLIC	??0?$_Iterator012@Urandom_access_iterator_tag@std@@UDXUTCache_Texture@@HPBU3@ABU3@U_Iterator_base12@2@@std@@QAE@XZ ; std::_Iterator012<std::random_access_iterator_tag,DXUTCache_Texture,int,DXUTCache_Texture const *,DXUTCache_Texture const &,std::_Iterator_base12>::_Iterator012<std::random_access_iterator_tag,DXUTCache_Texture,int,DXUTCache_Texture const *,DXUTCache_Texture const &,std::_Iterator_base12>
PUBLIC	??1?$_Iterator012@Urandom_access_iterator_tag@std@@UDXUTCache_Texture@@HPBU3@ABU3@U_Iterator_base12@2@@std@@QAE@XZ ; std::_Iterator012<std::random_access_iterator_tag,DXUTCache_Texture,int,DXUTCache_Texture const *,DXUTCache_Texture const &,std::_Iterator_base12>::~_Iterator012<std::random_access_iterator_tag,DXUTCache_Texture,int,DXUTCache_Texture const *,DXUTCache_Texture const &,std::_Iterator_base12>
PUBLIC	??0?$_Vector_const_iterator@V?$_Vector_val@U?$_Simple_types@UDXUTCache_Texture@@@std@@@std@@@std@@QAE@PAUDXUTCache_Texture@@PBU_Container_base12@1@@Z ; std::_Vector_const_iterator<std::_Vector_val<std::_Simple_types<DXUTCache_Texture> > >::_Vector_const_iterator<std::_Vector_val<std::_Simple_types<DXUTCache_Texture> > >
PUBLIC	??D?$_Vector_const_iterator@V?$_Vector_val@U?$_Simple_types@UDXUTCache_Texture@@@std@@@std@@@std@@QBEABUDXUTCache_Texture@@XZ ; std::_Vector_const_iterator<std::_Vector_val<std::_Simple_types<DXUTCache_Texture> > >::operator*
PUBLIC	??C?$_Vector_const_iterator@V?$_Vector_val@U?$_Simple_types@UDXUTCache_Texture@@@std@@@std@@@std@@QBEPBUDXUTCache_Texture@@XZ ; std::_Vector_const_iterator<std::_Vector_val<std::_Simple_types<DXUTCache_Texture> > >::operator->
PUBLIC	??E?$_Vector_const_iterator@V?$_Vector_val@U?$_Simple_types@UDXUTCache_Texture@@@std@@@std@@@std@@QAEAAV01@XZ ; std::_Vector_const_iterator<std::_Vector_val<std::_Simple_types<DXUTCache_Texture> > >::operator++
PUBLIC	??8?$_Vector_const_iterator@V?$_Vector_val@U?$_Simple_types@UDXUTCache_Texture@@@std@@@std@@@std@@QBE_NABV01@@Z ; std::_Vector_const_iterator<std::_Vector_val<std::_Simple_types<DXUTCache_Texture> > >::operator==
PUBLIC	??9?$_Vector_const_iterator@V?$_Vector_val@U?$_Simple_types@UDXUTCache_Texture@@@std@@@std@@@std@@QBE_NABV01@@Z ; std::_Vector_const_iterator<std::_Vector_val<std::_Simple_types<DXUTCache_Texture> > >::operator!=
PUBLIC	?_Compat@?$_Vector_const_iterator@V?$_Vector_val@U?$_Simple_types@UDXUTCache_Texture@@@std@@@std@@@std@@QBEXABV12@@Z ; std::_Vector_const_iterator<std::_Vector_val<std::_Simple_types<DXUTCache_Texture> > >::_Compat
PUBLIC	??1?$_Vector_const_iterator@V?$_Vector_val@U?$_Simple_types@UDXUTCache_Texture@@@std@@@std@@@std@@QAE@XZ ; std::_Vector_const_iterator<std::_Vector_val<std::_Simple_types<DXUTCache_Texture> > >::~_Vector_const_iterator<std::_Vector_val<std::_Simple_types<DXUTCache_Texture> > >
PUBLIC	??$addressof@$$CBUDXUTCache_Texture@@@std@@YAPBUDXUTCache_Texture@@ABU1@@Z ; std::addressof<DXUTCache_Texture const >
PUBLIC	??$construct@UDXUTCache_Texture@@AAU1@@?$_Wrap_alloc@V?$allocator@UDXUTCache_Texture@@@std@@@std@@QAEXPAUDXUTCache_Texture@@AAU2@@Z ; std::_Wrap_alloc<std::allocator<DXUTCache_Texture> >::construct<DXUTCache_Texture,DXUTCache_Texture &>
PUBLIC	??$construct@UDXUTCache_Texture@@ABU1@@?$_Wrap_alloc@V?$allocator@UDXUTCache_Texture@@@std@@@std@@QAEXPAUDXUTCache_Texture@@ABU2@@Z ; std::_Wrap_alloc<std::allocator<DXUTCache_Texture> >::construct<DXUTCache_Texture,DXUTCache_Texture const &>
PUBLIC	?pointer_to@?$pointer_traits@PBUDXUTCache_Texture@@@std@@SAPBUDXUTCache_Texture@@ABU3@@Z ; std::pointer_traits<DXUTCache_Texture const *>::pointer_to
PUBLIC	??$_Destroy_range@U?$_Wrap_alloc@V?$allocator@UDXUTCache_Texture@@@std@@@std@@@std@@YAXPAUDXUTCache_Texture@@0AAU?$_Wrap_alloc@V?$allocator@UDXUTCache_Texture@@@std@@@0@@Z ; std::_Destroy_range<std::_Wrap_alloc<std::allocator<DXUTCache_Texture> > >
PUBLIC	??$_Umove@PAUDXUTCache_Texture@@@?$vector@UDXUTCache_Texture@@V?$allocator@UDXUTCache_Texture@@@std@@@std@@IAEPAUDXUTCache_Texture@@PAU2@00@Z ; std::vector<DXUTCache_Texture,std::allocator<DXUTCache_Texture> >::_Umove<DXUTCache_Texture *>
PUBLIC	??$_Allocate@UDXUTCache_Texture@@@std@@YAPAUDXUTCache_Texture@@IPAU1@@Z ; std::_Allocate<DXUTCache_Texture>
PUBLIC	??$forward@AAUDXUTCache_Texture@@@std@@YAAAUDXUTCache_Texture@@AAU1@@Z ; std::forward<DXUTCache_Texture &>
PUBLIC	??$construct@UDXUTCache_Texture@@AAU1@@?$allocator_traits@V?$allocator@UDXUTCache_Texture@@@std@@@std@@SAXAAV?$allocator@UDXUTCache_Texture@@@1@PAUDXUTCache_Texture@@AAU3@@Z ; std::allocator_traits<std::allocator<DXUTCache_Texture> >::construct<DXUTCache_Texture,DXUTCache_Texture &>
PUBLIC	??$forward@ABUDXUTCache_Texture@@@std@@YAABUDXUTCache_Texture@@ABU1@@Z ; std::forward<DXUTCache_Texture const &>
PUBLIC	??$construct@UDXUTCache_Texture@@ABU1@@?$allocator_traits@V?$allocator@UDXUTCache_Texture@@@std@@@std@@SAXAAV?$allocator@UDXUTCache_Texture@@@1@PAUDXUTCache_Texture@@ABU3@@Z ; std::allocator_traits<std::allocator<DXUTCache_Texture> >::construct<DXUTCache_Texture,DXUTCache_Texture const &>
PUBLIC	??$_Ptr_cat@UDXUTCache_Texture@@U1@@std@@YA?AU_Nonscalar_ptr_iterator_tag@0@PAUDXUTCache_Texture@@0@Z ; std::_Ptr_cat<DXUTCache_Texture,DXUTCache_Texture>
PUBLIC	??$_Destroy_range@U?$_Wrap_alloc@V?$allocator@UDXUTCache_Texture@@@std@@@std@@@std@@YAXPAUDXUTCache_Texture@@0AAU?$_Wrap_alloc@V?$allocator@UDXUTCache_Texture@@@std@@@0@U_Nonscalar_ptr_iterator_tag@0@@Z ; std::_Destroy_range<std::_Wrap_alloc<std::allocator<DXUTCache_Texture> > >
PUBLIC	??$_Uninitialized_move@PAUDXUTCache_Texture@@PAU1@U?$_Wrap_alloc@V?$allocator@UDXUTCache_Texture@@@std@@@std@@@std@@YAPAUDXUTCache_Texture@@PAU1@00AAU?$_Wrap_alloc@V?$allocator@UDXUTCache_Texture@@@std@@@0@@Z ; std::_Uninitialized_move<DXUTCache_Texture *,DXUTCache_Texture *,std::_Wrap_alloc<std::allocator<DXUTCache_Texture> > >
PUBLIC	??$construct@UDXUTCache_Texture@@AAU1@@?$allocator@UDXUTCache_Texture@@@std@@QAEXPAUDXUTCache_Texture@@AAU2@@Z ; std::allocator<DXUTCache_Texture>::construct<DXUTCache_Texture,DXUTCache_Texture &>
PUBLIC	??$destroy@UDXUTCache_Texture@@@?$_Wrap_alloc@V?$allocator@UDXUTCache_Texture@@@std@@@std@@QAEXPAUDXUTCache_Texture@@@Z ; std::_Wrap_alloc<std::allocator<DXUTCache_Texture> >::destroy<DXUTCache_Texture>
PUBLIC	??$_Unchecked@PAUDXUTCache_Texture@@@std@@YAPAUDXUTCache_Texture@@PAU1@@Z ; std::_Unchecked<DXUTCache_Texture *>
PUBLIC	??$_Uninit_move@PAUDXUTCache_Texture@@PAU1@U?$_Wrap_alloc@V?$allocator@UDXUTCache_Texture@@@std@@@std@@@std@@YAPAUDXUTCache_Texture@@PAU1@00AAU?$_Wrap_alloc@V?$allocator@UDXUTCache_Texture@@@std@@@0@@Z ; std::_Uninit_move<DXUTCache_Texture *,DXUTCache_Texture *,std::_Wrap_alloc<std::allocator<DXUTCache_Texture> > >
PUBLIC	??$_Rechecked@PAUDXUTCache_Texture@@PAU1@@std@@YAAAPAUDXUTCache_Texture@@AAPAU1@PAU1@@Z ; std::_Rechecked<DXUTCache_Texture *,DXUTCache_Texture *>
PUBLIC	??$destroy@UDXUTCache_Texture@@@?$allocator_traits@V?$allocator@UDXUTCache_Texture@@@std@@@std@@SAXAAV?$allocator@UDXUTCache_Texture@@@1@PAUDXUTCache_Texture@@@Z ; std::allocator_traits<std::allocator<DXUTCache_Texture> >::destroy<DXUTCache_Texture>
PUBLIC	??$_Val_type@PAUDXUTCache_Texture@@@std@@YAPAUDXUTCache_Texture@@PAU1@@Z ; std::_Val_type<DXUTCache_Texture *>
PUBLIC	??$_Uninit_move@PAUDXUTCache_Texture@@PAU1@V?$allocator@UDXUTCache_Texture@@@std@@U1@@std@@YAPAUDXUTCache_Texture@@PAU1@00AAU?$_Wrap_alloc@V?$allocator@UDXUTCache_Texture@@@std@@@0@0U_Nonscalar_ptr_iterator_tag@0@@Z ; std::_Uninit_move<DXUTCache_Texture *,DXUTCache_Texture *,std::allocator<DXUTCache_Texture>,DXUTCache_Texture>
PUBLIC	??$destroy@UDXUTCache_Texture@@@?$allocator@UDXUTCache_Texture@@@std@@QAEXPAUDXUTCache_Texture@@@Z ; std::allocator<DXUTCache_Texture>::destroy<DXUTCache_Texture>
PUBLIC	??$_Debug_range@PAUDXUTCache_Texture@@@std@@YAXPAUDXUTCache_Texture@@0PB_WI@Z ; std::_Debug_range<DXUTCache_Texture *>
PUBLIC	??$_Debug_pointer@UDXUTCache_Texture@@@std@@YAXPAUDXUTCache_Texture@@PB_WI@Z ; std::_Debug_pointer<DXUTCache_Texture>
PUBLIC	??$construct@UDXUTCache_Texture@@U1@@?$_Wrap_alloc@V?$allocator@UDXUTCache_Texture@@@std@@@std@@QAEXPAUDXUTCache_Texture@@$$QAU2@@Z ; std::_Wrap_alloc<std::allocator<DXUTCache_Texture> >::construct<DXUTCache_Texture,DXUTCache_Texture>
PUBLIC	??$_Iter_cat@PAUDXUTCache_Texture@@@std@@YA?AUrandom_access_iterator_tag@0@ABQAUDXUTCache_Texture@@@Z ; std::_Iter_cat<DXUTCache_Texture *>
PUBLIC	??$_Debug_range2@PAUDXUTCache_Texture@@@std@@YAXPAUDXUTCache_Texture@@0PB_WIUrandom_access_iterator_tag@0@@Z ; std::_Debug_range2<DXUTCache_Texture *>
PUBLIC	??$forward@UDXUTCache_Texture@@@std@@YA$$QAUDXUTCache_Texture@@AAU1@@Z ; std::forward<DXUTCache_Texture>
PUBLIC	??$construct@UDXUTCache_Texture@@U1@@?$allocator_traits@V?$allocator@UDXUTCache_Texture@@@std@@@std@@SAXAAV?$allocator@UDXUTCache_Texture@@@1@PAUDXUTCache_Texture@@$$QAU3@@Z ; std::allocator_traits<std::allocator<DXUTCache_Texture> >::construct<DXUTCache_Texture,DXUTCache_Texture>
PUBLIC	??$construct@UDXUTCache_Texture@@U1@@?$allocator@UDXUTCache_Texture@@@std@@QAEXPAUDXUTCache_Texture@@$$QAU2@@Z ; std::allocator<DXUTCache_Texture>::construct<DXUTCache_Texture,DXUTCache_Texture>
PUBLIC	??_C@_15GANGMFKL@?$AA?$CF?$AAs?$AA?$AA@		; `string'
PUBLIC	??_C@_1JC@FPIPICAN@?$AAc?$AA?3?$AA?2?$AAp?$AAr?$AAo?$AAg?$AAr?$AAa?$AAm?$AA?5?$AAf?$AAi?$AAl?$AAe?$AAs?$AA?5?$AA?$CI?$AAx?$AA8?$AA6?$AA?$CJ?$AA?2?$AAw?$AAi?$AAn?$AAd?$AAo?$AAw?$AAs?$AA?5?$AAk@ ; `string'
PUBLIC	??_C@_1FM@KOIPKFLA@?$AA?$CB?$AAX?$AAM?$AAV?$AAe?$AAc?$AAt?$AAo?$AAr?$AA3?$AAE?$AAq?$AAu?$AAa?$AAl?$AA?$CI?$AAE?$AAy?$AAe?$AAD?$AAi?$AAr?$AAe?$AAc?$AAt?$AAi?$AAo?$AAn?$AA?0?$AA?5?$AAX?$AAM@ ; `string'
PUBLIC	??_C@_1EG@DOFHPLOD@?$AA?$CB?$AAX?$AAM?$AAV?$AAe?$AAc?$AAt?$AAo?$AAr?$AA3?$AAI?$AAs?$AAI?$AAn?$AAf?$AAi?$AAn?$AAi?$AAt?$AAe?$AA?$CI?$AAE?$AAy?$AAe?$AAD?$AAi?$AAr?$AAe?$AAc?$AAt?$AAi?$AAo@ ; `string'
PUBLIC	??_C@_1FK@IBPGMKAB@?$AA?$CB?$AAX?$AAM?$AAV?$AAe?$AAc?$AAt?$AAo?$AAr?$AA3?$AAE?$AAq?$AAu?$AAa?$AAl?$AA?$CI?$AAU?$AAp?$AAD?$AAi?$AAr?$AAe?$AAc?$AAt?$AAi?$AAo?$AAn?$AA?0?$AA?5?$AAX?$AAM?$AAV@ ; `string'
PUBLIC	??_C@_1EE@JAOFAOOK@?$AA?$CB?$AAX?$AAM?$AAV?$AAe?$AAc?$AAt?$AAo?$AAr?$AA3?$AAI?$AAs?$AAI?$AAn?$AAf?$AAi?$AAn?$AAi?$AAt?$AAe?$AA?$CI?$AAU?$AAp?$AAD?$AAi?$AAr?$AAe?$AAc?$AAt?$AAi?$AAo?$AAn@ ; `string'
PUBLIC	??_C@_1JA@EADLBAJ@?$AAC?$AA?3?$AA?2?$AAP?$AAr?$AAo?$AAg?$AAr?$AAa?$AAm?$AA?5?$AAF?$AAi?$AAl?$AAe?$AAs?$AA?5?$AA?$CI?$AAx?$AA8?$AA6?$AA?$CJ?$AA?2?$AAM?$AAi?$AAc?$AAr?$AAo?$AAs?$AAo?$AAf?$AAt@ ; `string'
PUBLIC	??_C@_1DC@POOIKBAO@?$AAI?$AAT?$AAE?$AAR?$AAA?$AAT?$AAO?$AAR?$AA?5?$AAL?$AAI?$AAS?$AAT?$AA?5?$AAC?$AAO?$AAR?$AAR?$AAU?$AAP?$AAT?$AAE?$AAD?$AA?$CB?$AA?$AA@ ; `string'
PUBLIC	??_C@_1IM@EINEHPHE@?$AAC?$AA?3?$AA?2?$AAP?$AAr?$AAo?$AAg?$AAr?$AAa?$AAm?$AA?5?$AAF?$AAi?$AAl?$AAe?$AAs?$AA?5?$AA?$CI?$AAx?$AA8?$AA6?$AA?$CJ?$AA?2?$AAM?$AAi?$AAc?$AAr?$AAo?$AAs?$AAo?$AAf?$AAt@ ; `string'
PUBLIC	??_C@_1DM@LHGCHCBA@?$AAv?$AAe?$AAc?$AAt?$AAo?$AAr?$AA?5?$AAs?$AAu?$AAb?$AAs?$AAc?$AAr?$AAi?$AAp?$AAt?$AA?5?$AAo?$AAu?$AAt?$AA?5?$AAo?$AAf?$AA?5?$AAr?$AAa?$AAn?$AAg?$AAe?$AA?$AA@ ; `string'
PUBLIC	??_C@_0CE@OFMIGAMM@Standard?5C?$CL?$CL?5Libraries?5Out?5of?5Ra@ ; `string'
PUBLIC	??_C@_1FG@IBPIFFN@?$AA?$CC?$AAS?$AAt?$AAa?$AAn?$AAd?$AAa?$AAr?$AAd?$AA?5?$AAC?$AA?$CL?$AA?$CL?$AA?5?$AAL?$AAi?$AAb?$AAr?$AAa?$AAr?$AAi?$AAe?$AAs?$AA?5?$AAO?$AAu?$AAt?$AA?5?$AAo?$AAf?$AA?5?$AAR@ ; `string'
PUBLIC	??_C@_1MG@PMHOEKDO@?$AAs?$AAt?$AAd?$AA?3?$AA?3?$AAv?$AAe?$AAc?$AAt?$AAo?$AAr?$AA?$DM?$AAs?$AAt?$AAr?$AAu?$AAc?$AAt?$AA?5?$AAD?$AAX?$AAU?$AAT?$AAC?$AAa?$AAc?$AAh?$AAe?$AA_?$AAT?$AAe?$AAx@ ; `string'
PUBLIC	??_C@_1BO@MEPPHOO@?$AA?$CC?$AAo?$AAu?$AAt?$AA?5?$AAo?$AAf?$AA?5?$AAr?$AAa?$AAn?$AAg?$AAe?$AA?$CC?$AA?$AA@ ; `string'
PUBLIC	??_C@_1EE@EJDKCLKB@?$AAv?$AAe?$AAc?$AAt?$AAo?$AAr?$AA?5?$AAi?$AAt?$AAe?$AAr?$AAa?$AAt?$AAo?$AAr?$AA?5?$AAn?$AAo?$AAt?$AA?5?$AAi?$AAn?$AAc?$AAr?$AAe?$AAm?$AAe?$AAn?$AAt?$AAa?$AAb?$AAl@ ; `string'
PUBLIC	??_C@_1PA@CDGOAEFA@?$AAs?$AAt?$AAd?$AA?3?$AA?3?$AA_?$AAV?$AAe?$AAc?$AAt?$AAo?$AAr?$AA_?$AAc?$AAo?$AAn?$AAs?$AAt?$AA_?$AAi?$AAt?$AAe?$AAr?$AAa?$AAt?$AAo?$AAr?$AA?$DM?$AAc?$AAl?$AAa?$AAs@ ; `string'
PUBLIC	??_C@_1EG@FOHJJHAC@?$AAv?$AAe?$AAc?$AAt?$AAo?$AAr?$AA?5?$AAi?$AAt?$AAe?$AAr?$AAa?$AAt?$AAo?$AAr?$AA?5?$AAn?$AAo?$AAt?$AA?5?$AAd?$AAe?$AAr?$AAe?$AAf?$AAe?$AAr?$AAe?$AAn?$AAc?$AAa?$AAb@ ; `string'
PUBLIC	??_C@_1OO@BAHPFGHC@?$AAs?$AAt?$AAd?$AA?3?$AA?3?$AA_?$AAV?$AAe?$AAc?$AAt?$AAo?$AAr?$AA_?$AAc?$AAo?$AAn?$AAs?$AAt?$AA_?$AAi?$AAt?$AAe?$AAr?$AAa?$AAt?$AAo?$AAr?$AA?$DM?$AAc?$AAl?$AAa?$AAs@ ; `string'
PUBLIC	??_C@_0BD@OLBABOEK@vector?$DMT?$DO?5too?5long?$AA@ ; `string'
PUBLIC	??_C@_1DM@HINDPMBP@?$AAv?$AAe?$AAc?$AAt?$AAo?$AAr?$AA?5?$AAi?$AAt?$AAe?$AAr?$AAa?$AAt?$AAo?$AAr?$AAs?$AA?5?$AAi?$AAn?$AAc?$AAo?$AAm?$AAp?$AAa?$AAt?$AAi?$AAb?$AAl?$AAe?$AA?$AA@ ; `string'
PUBLIC	??_C@_0CI@FNPHFCCM@Standard?5C?$CL?$CL?5Libraries?5Invalid?5A@ ; `string'
PUBLIC	??_C@_1FO@GJIHNDLM@?$AA?$CC?$AAS?$AAt?$AAa?$AAn?$AAd?$AAa?$AAr?$AAd?$AA?5?$AAC?$AA?$CL?$AA?$CL?$AA?5?$AAL?$AAi?$AAb?$AAr?$AAa?$AAr?$AAi?$AAe?$AAs?$AA?5?$AAI?$AAn?$AAv?$AAa?$AAl?$AAi?$AAd?$AA?5@ ; `string'
PUBLIC	??_C@_1OI@HHLPKFIO@?$AAs?$AAt?$AAd?$AA?3?$AA?3?$AA_?$AAV?$AAe?$AAc?$AAt?$AAo?$AAr?$AA_?$AAc?$AAo?$AAn?$AAs?$AAt?$AA_?$AAi?$AAt?$AAe?$AAr?$AAa?$AAt?$AAo?$AAr?$AA?$DM?$AAc?$AAl?$AAa?$AAs@ ; `string'
PUBLIC	??_C@_1CG@JNLFBNGN@?$AA?$CC?$AAi?$AAn?$AAv?$AAa?$AAl?$AAi?$AAd?$AA?5?$AAa?$AAr?$AAg?$AAu?$AAm?$AAe?$AAn?$AAt?$AA?$CC?$AA?$AA@ ; `string'
PUBLIC	??_C@_1IO@LKIDJAMC@?$AAC?$AA?3?$AA?2?$AAP?$AAr?$AAo?$AAg?$AAr?$AAa?$AAm?$AA?5?$AAF?$AAi?$AAl?$AAe?$AAs?$AA?5?$AA?$CI?$AAx?$AA8?$AA6?$AA?$CJ?$AA?2?$AAM?$AAi?$AAc?$AAr?$AAo?$AAs?$AAo?$AAf?$AAt@ ; `string'
PUBLIC	??_C@_1CK@EOPGIILJ@?$AAi?$AAn?$AAv?$AAa?$AAl?$AAi?$AAd?$AA?5?$AAn?$AAu?$AAl?$AAl?$AA?5?$AAp?$AAo?$AAi?$AAn?$AAt?$AAe?$AAr?$AA?$AA@ ; `string'
PUBLIC	??_C@_1CO@DGLIKNHI@?$AAi?$AAn?$AAv?$AAa?$AAl?$AAi?$AAd?$AA?5?$AAi?$AAt?$AAe?$AAr?$AAa?$AAt?$AAo?$AAr?$AA?5?$AAr?$AAa?$AAn?$AAg?$AAe?$AA?$AA@ ; `string'
PUBLIC	__real@3f800000
PUBLIC	__xmm@41f00000000000000000000000000000
EXTRN	??2@YAPAXI@Z:PROC				; operator new
EXTRN	??3@YAXPAX@Z:PROC				; operator delete
EXTRN	___report_rangecheckfailure:PROC
EXTRN	__imp___invalid_parameter:PROC
EXTRN	__imp__wcscat_s:PROC
EXTRN	__imp__wcscpy_s:PROC
EXTRN	__imp__wcsnlen:PROC
EXTRN	__imp__wcsrchr:PROC
EXTRN	__imp___wcsicmp:PROC
EXTRN	__imp__CreateDirectoryW@8:PROC
EXTRN	__imp__CreateFileW@28:PROC
EXTRN	__imp__GetFileAttributesW@4:PROC
EXTRN	__imp__GetFullPathNameW@16:PROC
EXTRN	__imp__ReadFile@20:PROC
EXTRN	__imp__WriteFile@20:PROC
EXTRN	__imp__OutputDebugStringA@4:PROC
EXTRN	__imp__CloseHandle@4:PROC
EXTRN	__imp__GetModuleFileNameW@12:PROC
EXTRN	__imp__SendMessageW@16:PROC
EXTRN	__imp__DialogBoxIndirectParamW@20:PROC
EXTRN	__imp__EndDialog@8:PROC
EXTRN	__imp__GetDlgItem@8:PROC
EXTRN	__imp__SetDlgItemTextW@12:PROC
EXTRN	__imp__CheckDlgButton@12:PROC
EXTRN	__imp__IsDlgButtonChecked@8:PROC
EXTRN	__imp__EnableWindow@8:PROC
EXTRN	__imp__SetWindowTextW@8:PROC
EXTRN	__imp__SetRect@20:PROC
EXTRN	__imp__LoadIconW@8:PROC
EXTRN	__imp__MultiByteToWideChar@24:PROC
EXTRN	__imp___wsplitpath_s:PROC
EXTRN	__imp___wassert:PROC
EXTRN	__imp__SHGetFolderPathW@20:PROC
EXTRN	__imp__swprintf_s:PROC
EXTRN	__imp__vswprintf_s:PROC
EXTRN	__imp___CrtDbgReportW:PROC
EXTRN	__imp___CrtSetDbgFlag:PROC
EXTRN	_D3DCompileFromFile@36:PROC
EXTRN	__imp_??0_Lockit@std@@QAE@H@Z:PROC
EXTRN	__imp_??1_Lockit@std@@QAE@XZ:PROC
EXTRN	_DXTraceW@20:PROC
EXTRN	__imp_?_Debug_message@std@@YAXPB_W0I@Z:PROC
EXTRN	__imp_??0_Container_base12@std@@QAE@XZ:PROC
EXTRN	__imp_??1_Container_base12@std@@QAE@XZ:PROC
EXTRN	__imp_?_Getpfirst@_Container_base12@std@@QBEPAPAU_Iterator_base12@2@XZ:PROC
EXTRN	__imp_?_Orphan_all@_Container_base12@std@@QAEXXZ:PROC
EXTRN	__imp_?_Xbad_alloc@std@@YAXXZ:PROC
EXTRN	__imp_?_Xlength_error@std@@YAXPBD@Z:PROC
EXTRN	?DXUTShutdown@@YGXH@Z:PROC			; DXUTShutdown
EXTRN	?DXUTGetHINSTANCE@@YGPAUHINSTANCE__@@XZ:PROC	; DXUTGetHINSTANCE
EXTRN	?DXUTGetHWND@@YGPAUHWND__@@XZ:PROC		; DXUTGetHWND
EXTRN	?DXUTGetWindowTitle@@YGPB_WXZ:PROC		; DXUTGetWindowTitle
EXTRN	?DXUTGetShowMsgBoxOnError@@YG_NXZ:PROC		; DXUTGetShowMsgBoxOnError
EXTRN	?DXUTTrace@@YGJPBDKJPB_W_N@Z:PROC		; DXUTTrace
EXTRN	?StoreD3D11State@CDXUTDialogResourceManager@@QAEXPAUID3D11DeviceContext@@@Z:PROC ; CDXUTDialogResourceManager::StoreD3D11State
EXTRN	?RestoreD3D11State@CDXUTDialogResourceManager@@QAEXPAUID3D11DeviceContext@@@Z:PROC ; CDXUTDialogResourceManager::RestoreD3D11State
EXTRN	?ApplyRenderUI11@CDXUTDialogResourceManager@@QAEXPAUID3D11DeviceContext@@@Z:PROC ; CDXUTDialogResourceManager::ApplyRenderUI11
EXTRN	?DrawText11DXUT@@YAXPAUID3D11Device@@PAUID3D11DeviceContext@@PB_WABUtagRECT@@UXMFLOAT4@DirectX@@MM_N@Z:PROC ; DrawText11DXUT
EXTRN	?CreateDDSTextureFromFile@DirectX@@YAJPAUID3D11Device@@PB_WPAPAUID3D11Resource@@PAPAUID3D11ShaderResourceView@@IPAW4DDS_ALPHA_MODE@1@@Z:PROC ; DirectX::CreateDDSTextureFromFile
EXTRN	?CreateDDSTextureFromFileEx@DirectX@@YAJPAUID3D11Device@@PB_WIW4D3D11_USAGE@@III_NPAPAUID3D11Resource@@PAPAUID3D11ShaderResourceView@@PAW4DDS_ALPHA_MODE@1@@Z:PROC ; DirectX::CreateDDSTextureFromFileEx
EXTRN	?CreateWICTextureFromFile@DirectX@@YAJPAUID3D11Device@@PAUID3D11DeviceContext@@PB_WPAPAUID3D11Resource@@PAPAUID3D11ShaderResourceView@@I@Z:PROC ; DirectX::CreateWICTextureFromFile
EXTRN	?CreateWICTextureFromFileEx@DirectX@@YAJPAUID3D11Device@@PAUID3D11DeviceContext@@PB_WIW4D3D11_USAGE@@III_NPAPAUID3D11Resource@@PAPAUID3D11ShaderResourceView@@@Z:PROC ; DirectX::CreateWICTextureFromFileEx
EXTRN	?SaveDDSTextureToFile@DirectX@@YAJPAUID3D11DeviceContext@@PAUID3D11Resource@@PB_W@Z:PROC ; DirectX::SaveDDSTextureToFile
EXTRN	?SaveWICTextureToFile@DirectX@@YAJPAUID3D11DeviceContext@@PAUID3D11Resource@@ABU_GUID@@PB_WPBU4@V?$function@$$A6AXPAUIPropertyBag2@@@Z@std@@@Z:PROC ; DirectX::SaveWICTextureToFile
EXTRN	@_RTC_CheckStackVars@8:PROC
EXTRN	@__security_check_cookie@4:PROC
EXTRN	__CxxThrowException@8:PROC
EXTRN	__RTC_CheckEsp:PROC
EXTRN	__RTC_InitBase:PROC
EXTRN	__RTC_Shutdown:PROC
EXTRN	___CxxFrameHandler3:PROC
EXTRN	_memset:PROC
EXTRN	___security_cookie:DWORD
EXTRN	__fltused:DWORD
_BSS	SEGMENT
_ignore	DB	01H DUP (?)
__Tuple_alloc DB 01H DUP (?)
_BSS	ENDS
;	COMDAT ?s_cache@?1??DXUTGetGlobalResourceCache@@YGAAVCDXUTResourceCache@@XZ@4PAV2@A
_BSS	SEGMENT
?s_cache@?1??DXUTGetGlobalResourceCache@@YGAAVCDXUTResourceCache@@XZ@4PAV2@A DD 01H DUP (?) ; `DXUTGetGlobalResourceCache'::`2'::s_cache
_BSS	ENDS
;	COMDAT ?s_strMediaSearchPath@?1??DXUTMediaSearchPath@@YAPA_WXZ@4PA_WA
_BSS	SEGMENT
?s_strMediaSearchPath@?1??DXUTMediaSearchPath@@YAPA_WXZ@4PA_WA DW 0104H DUP (?) ; `DXUTMediaSearchPath'::`2'::s_strMediaSearchPath
_BSS	ENDS
CRT$XCU	SEGMENT
_ignore$initializer$ DD FLAT:??__Eignore@std@@YAXXZ
CRT$XCU	ENDS
;	COMDAT __xmm@41f00000000000000000000000000000
CONST	SEGMENT
__xmm@41f00000000000000000000000000000 DB 00H, 00H, 00H, 00H, 00H, 00H, 00H
	DB	00H, 00H, 00H, 00H, 00H, 00H, 00H, 0f0H, 'A'
CONST	ENDS
;	COMDAT __real@3f800000
CONST	SEGMENT
__real@3f800000 DD 03f800000r			; 1
CONST	ENDS
;	COMDAT rtc$TMZ
rtc$TMZ	SEGMENT
__RTC_Shutdown.rtc$TMZ DD FLAT:__RTC_Shutdown
rtc$TMZ	ENDS
;	COMDAT rtc$IMZ
rtc$IMZ	SEGMENT
__RTC_InitBase.rtc$IMZ DD FLAT:__RTC_InitBase
rtc$IMZ	ENDS
;	COMDAT ??_C@_1CO@DGLIKNHI@?$AAi?$AAn?$AAv?$AAa?$AAl?$AAi?$AAd?$AA?5?$AAi?$AAt?$AAe?$AAr?$AAa?$AAt?$AAo?$AAr?$AA?5?$AAr?$AAa?$AAn?$AAg?$AAe?$AA?$AA@
CONST	SEGMENT
??_C@_1CO@DGLIKNHI@?$AAi?$AAn?$AAv?$AAa?$AAl?$AAi?$AAd?$AA?5?$AAi?$AAt?$AAe?$AAr?$AAa?$AAt?$AAo?$AAr?$AA?5?$AAr?$AAa?$AAn?$AAg?$AAe?$AA?$AA@ DB 'i'
	DB	00H, 'n', 00H, 'v', 00H, 'a', 00H, 'l', 00H, 'i', 00H, 'd', 00H
	DB	' ', 00H, 'i', 00H, 't', 00H, 'e', 00H, 'r', 00H, 'a', 00H, 't'
	DB	00H, 'o', 00H, 'r', 00H, ' ', 00H, 'r', 00H, 'a', 00H, 'n', 00H
	DB	'g', 00H, 'e', 00H, 00H, 00H			; `string'
CONST	ENDS
;	COMDAT ??_C@_1CK@EOPGIILJ@?$AAi?$AAn?$AAv?$AAa?$AAl?$AAi?$AAd?$AA?5?$AAn?$AAu?$AAl?$AAl?$AA?5?$AAp?$AAo?$AAi?$AAn?$AAt?$AAe?$AAr?$AA?$AA@
CONST	SEGMENT
??_C@_1CK@EOPGIILJ@?$AAi?$AAn?$AAv?$AAa?$AAl?$AAi?$AAd?$AA?5?$AAn?$AAu?$AAl?$AAl?$AA?5?$AAp?$AAo?$AAi?$AAn?$AAt?$AAe?$AAr?$AA?$AA@ DB 'i'
	DB	00H, 'n', 00H, 'v', 00H, 'a', 00H, 'l', 00H, 'i', 00H, 'd', 00H
	DB	' ', 00H, 'n', 00H, 'u', 00H, 'l', 00H, 'l', 00H, ' ', 00H, 'p'
	DB	00H, 'o', 00H, 'i', 00H, 'n', 00H, 't', 00H, 'e', 00H, 'r', 00H
	DB	00H, 00H					; `string'
CONST	ENDS
;	COMDAT ??_C@_1IO@LKIDJAMC@?$AAC?$AA?3?$AA?2?$AAP?$AAr?$AAo?$AAg?$AAr?$AAa?$AAm?$AA?5?$AAF?$AAi?$AAl?$AAe?$AAs?$AA?5?$AA?$CI?$AAx?$AA8?$AA6?$AA?$CJ?$AA?2?$AAM?$AAi?$AAc?$AAr?$AAo?$AAs?$AAo?$AAf?$AAt@
CONST	SEGMENT
??_C@_1IO@LKIDJAMC@?$AAC?$AA?3?$AA?2?$AAP?$AAr?$AAo?$AAg?$AAr?$AAa?$AAm?$AA?5?$AAF?$AAi?$AAl?$AAe?$AAs?$AA?5?$AA?$CI?$AAx?$AA8?$AA6?$AA?$CJ?$AA?2?$AAM?$AAi?$AAc?$AAr?$AAo?$AAs?$AAo?$AAf?$AAt@ DB 'C'
	DB	00H, ':', 00H, '\', 00H, 'P', 00H, 'r', 00H, 'o', 00H, 'g', 00H
	DB	'r', 00H, 'a', 00H, 'm', 00H, ' ', 00H, 'F', 00H, 'i', 00H, 'l'
	DB	00H, 'e', 00H, 's', 00H, ' ', 00H, '(', 00H, 'x', 00H, '8', 00H
	DB	'6', 00H, ')', 00H, '\', 00H, 'M', 00H, 'i', 00H, 'c', 00H, 'r'
	DB	00H, 'o', 00H, 's', 00H, 'o', 00H, 'f', 00H, 't', 00H, ' ', 00H
	DB	'V', 00H, 'i', 00H, 's', 00H, 'u', 00H, 'a', 00H, 'l', 00H, ' '
	DB	00H, 'S', 00H, 't', 00H, 'u', 00H, 'd', 00H, 'i', 00H, 'o', 00H
	DB	' ', 00H, '1', 00H, '2', 00H, '.', 00H, '0', 00H, '\', 00H, 'V'
	DB	00H, 'C', 00H, '\', 00H, 'i', 00H, 'n', 00H, 'c', 00H, 'l', 00H
	DB	'u', 00H, 'd', 00H, 'e', 00H, '\', 00H, 'x', 00H, 'm', 00H, 'e'
	DB	00H, 'm', 00H, 'o', 00H, 'r', 00H, 'y', 00H, 00H, 00H ; `string'
CONST	ENDS
;	COMDAT ??_C@_1CG@JNLFBNGN@?$AA?$CC?$AAi?$AAn?$AAv?$AAa?$AAl?$AAi?$AAd?$AA?5?$AAa?$AAr?$AAg?$AAu?$AAm?$AAe?$AAn?$AAt?$AA?$CC?$AA?$AA@
CONST	SEGMENT
??_C@_1CG@JNLFBNGN@?$AA?$CC?$AAi?$AAn?$AAv?$AAa?$AAl?$AAi?$AAd?$AA?5?$AAa?$AAr?$AAg?$AAu?$AAm?$AAe?$AAn?$AAt?$AA?$CC?$AA?$AA@ DB '"'
	DB	00H, 'i', 00H, 'n', 00H, 'v', 00H, 'a', 00H, 'l', 00H, 'i', 00H
	DB	'd', 00H, ' ', 00H, 'a', 00H, 'r', 00H, 'g', 00H, 'u', 00H, 'm'
	DB	00H, 'e', 00H, 'n', 00H, 't', 00H, '"', 00H, 00H, 00H ; `string'
CONST	ENDS
;	COMDAT ??_C@_1OI@HHLPKFIO@?$AAs?$AAt?$AAd?$AA?3?$AA?3?$AA_?$AAV?$AAe?$AAc?$AAt?$AAo?$AAr?$AA_?$AAc?$AAo?$AAn?$AAs?$AAt?$AA_?$AAi?$AAt?$AAe?$AAr?$AAa?$AAt?$AAo?$AAr?$AA?$DM?$AAc?$AAl?$AAa?$AAs@
CONST	SEGMENT
??_C@_1OI@HHLPKFIO@?$AAs?$AAt?$AAd?$AA?3?$AA?3?$AA_?$AAV?$AAe?$AAc?$AAt?$AAo?$AAr?$AA_?$AAc?$AAo?$AAn?$AAs?$AAt?$AA_?$AAi?$AAt?$AAe?$AAr?$AAa?$AAt?$AAo?$AAr?$AA?$DM?$AAc?$AAl?$AAa?$AAs@ DB 's'
	DB	00H, 't', 00H, 'd', 00H, ':', 00H, ':', 00H, '_', 00H, 'V', 00H
	DB	'e', 00H, 'c', 00H, 't', 00H, 'o', 00H, 'r', 00H, '_', 00H, 'c'
	DB	00H, 'o', 00H, 'n', 00H, 's', 00H, 't', 00H, '_', 00H, 'i', 00H
	DB	't', 00H, 'e', 00H, 'r', 00H, 'a', 00H, 't', 00H, 'o', 00H, 'r'
	DB	00H, '<', 00H, 'c', 00H, 'l', 00H, 'a', 00H, 's', 00H, 's', 00H
	DB	' ', 00H, 's', 00H, 't', 00H, 'd', 00H, ':', 00H, ':', 00H, '_'
	DB	00H, 'V', 00H, 'e', 00H, 'c', 00H, 't', 00H, 'o', 00H, 'r', 00H
	DB	'_', 00H, 'v', 00H, 'a', 00H, 'l', 00H, '<', 00H, 's', 00H, 't'
	DB	00H, 'r', 00H, 'u', 00H, 'c', 00H, 't', 00H, ' ', 00H, 's', 00H
	DB	't', 00H, 'd', 00H, ':', 00H, ':', 00H, '_', 00H, 'S', 00H, 'i'
	DB	00H, 'm', 00H, 'p', 00H, 'l', 00H, 'e', 00H, '_', 00H, 't', 00H
	DB	'y', 00H, 'p', 00H, 'e', 00H, 's', 00H, '<', 00H, 's', 00H, 't'
	DB	00H, 'r', 00H, 'u', 00H, 'c', 00H, 't', 00H, ' ', 00H, 'D', 00H
	DB	'X', 00H, 'U', 00H, 'T', 00H, 'C', 00H, 'a', 00H, 'c', 00H, 'h'
	DB	00H, 'e', 00H, '_', 00H, 'T', 00H, 'e', 00H, 'x', 00H, 't', 00H
	DB	'u', 00H, 'r', 00H, 'e', 00H, '>', 00H, ' ', 00H, '>', 00H, ' '
	DB	00H, '>', 00H, ':', 00H, ':', 00H, '_', 00H, 'C', 00H, 'o', 00H
	DB	'm', 00H, 'p', 00H, 'a', 00H, 't', 00H, 00H, 00H ; `string'
CONST	ENDS
;	COMDAT ??_C@_1FO@GJIHNDLM@?$AA?$CC?$AAS?$AAt?$AAa?$AAn?$AAd?$AAa?$AAr?$AAd?$AA?5?$AAC?$AA?$CL?$AA?$CL?$AA?5?$AAL?$AAi?$AAb?$AAr?$AAa?$AAr?$AAi?$AAe?$AAs?$AA?5?$AAI?$AAn?$AAv?$AAa?$AAl?$AAi?$AAd?$AA?5@
CONST	SEGMENT
??_C@_1FO@GJIHNDLM@?$AA?$CC?$AAS?$AAt?$AAa?$AAn?$AAd?$AAa?$AAr?$AAd?$AA?5?$AAC?$AA?$CL?$AA?$CL?$AA?5?$AAL?$AAi?$AAb?$AAr?$AAa?$AAr?$AAi?$AAe?$AAs?$AA?5?$AAI?$AAn?$AAv?$AAa?$AAl?$AAi?$AAd?$AA?5@ DB '"'
	DB	00H, 'S', 00H, 't', 00H, 'a', 00H, 'n', 00H, 'd', 00H, 'a', 00H
	DB	'r', 00H, 'd', 00H, ' ', 00H, 'C', 00H, '+', 00H, '+', 00H, ' '
	DB	00H, 'L', 00H, 'i', 00H, 'b', 00H, 'r', 00H, 'a', 00H, 'r', 00H
	DB	'i', 00H, 'e', 00H, 's', 00H, ' ', 00H, 'I', 00H, 'n', 00H, 'v'
	DB	00H, 'a', 00H, 'l', 00H, 'i', 00H, 'd', 00H, ' ', 00H, 'A', 00H
	DB	'r', 00H, 'g', 00H, 'u', 00H, 'm', 00H, 'e', 00H, 'n', 00H, 't'
	DB	00H, '"', 00H, ' ', 00H, '&', 00H, '&', 00H, ' ', 00H, '0', 00H
	DB	00H, 00H					; `string'
CONST	ENDS
;	COMDAT ??_C@_0CI@FNPHFCCM@Standard?5C?$CL?$CL?5Libraries?5Invalid?5A@
CONST	SEGMENT
??_C@_0CI@FNPHFCCM@Standard?5C?$CL?$CL?5Libraries?5Invalid?5A@ DB 'Standa'
	DB	'rd C++ Libraries Invalid Argument', 00H	; `string'
CONST	ENDS
;	COMDAT ??_C@_1DM@HINDPMBP@?$AAv?$AAe?$AAc?$AAt?$AAo?$AAr?$AA?5?$AAi?$AAt?$AAe?$AAr?$AAa?$AAt?$AAo?$AAr?$AAs?$AA?5?$AAi?$AAn?$AAc?$AAo?$AAm?$AAp?$AAa?$AAt?$AAi?$AAb?$AAl?$AAe?$AA?$AA@
CONST	SEGMENT
??_C@_1DM@HINDPMBP@?$AAv?$AAe?$AAc?$AAt?$AAo?$AAr?$AA?5?$AAi?$AAt?$AAe?$AAr?$AAa?$AAt?$AAo?$AAr?$AAs?$AA?5?$AAi?$AAn?$AAc?$AAo?$AAm?$AAp?$AAa?$AAt?$AAi?$AAb?$AAl?$AAe?$AA?$AA@ DB 'v'
	DB	00H, 'e', 00H, 'c', 00H, 't', 00H, 'o', 00H, 'r', 00H, ' ', 00H
	DB	'i', 00H, 't', 00H, 'e', 00H, 'r', 00H, 'a', 00H, 't', 00H, 'o'
	DB	00H, 'r', 00H, 's', 00H, ' ', 00H, 'i', 00H, 'n', 00H, 'c', 00H
	DB	'o', 00H, 'm', 00H, 'p', 00H, 'a', 00H, 't', 00H, 'i', 00H, 'b'
	DB	00H, 'l', 00H, 'e', 00H, 00H, 00H		; `string'
CONST	ENDS
;	COMDAT ??_C@_0BD@OLBABOEK@vector?$DMT?$DO?5too?5long?$AA@
CONST	SEGMENT
??_C@_0BD@OLBABOEK@vector?$DMT?$DO?5too?5long?$AA@ DB 'vector<T> too long'
	DB	00H						; `string'
CONST	ENDS
;	COMDAT ??_C@_1OO@BAHPFGHC@?$AAs?$AAt?$AAd?$AA?3?$AA?3?$AA_?$AAV?$AAe?$AAc?$AAt?$AAo?$AAr?$AA_?$AAc?$AAo?$AAn?$AAs?$AAt?$AA_?$AAi?$AAt?$AAe?$AAr?$AAa?$AAt?$AAo?$AAr?$AA?$DM?$AAc?$AAl?$AAa?$AAs@
CONST	SEGMENT
??_C@_1OO@BAHPFGHC@?$AAs?$AAt?$AAd?$AA?3?$AA?3?$AA_?$AAV?$AAe?$AAc?$AAt?$AAo?$AAr?$AA_?$AAc?$AAo?$AAn?$AAs?$AAt?$AA_?$AAi?$AAt?$AAe?$AAr?$AAa?$AAt?$AAo?$AAr?$AA?$DM?$AAc?$AAl?$AAa?$AAs@ DB 's'
	DB	00H, 't', 00H, 'd', 00H, ':', 00H, ':', 00H, '_', 00H, 'V', 00H
	DB	'e', 00H, 'c', 00H, 't', 00H, 'o', 00H, 'r', 00H, '_', 00H, 'c'
	DB	00H, 'o', 00H, 'n', 00H, 's', 00H, 't', 00H, '_', 00H, 'i', 00H
	DB	't', 00H, 'e', 00H, 'r', 00H, 'a', 00H, 't', 00H, 'o', 00H, 'r'
	DB	00H, '<', 00H, 'c', 00H, 'l', 00H, 'a', 00H, 's', 00H, 's', 00H
	DB	' ', 00H, 's', 00H, 't', 00H, 'd', 00H, ':', 00H, ':', 00H, '_'
	DB	00H, 'V', 00H, 'e', 00H, 'c', 00H, 't', 00H, 'o', 00H, 'r', 00H
	DB	'_', 00H, 'v', 00H, 'a', 00H, 'l', 00H, '<', 00H, 's', 00H, 't'
	DB	00H, 'r', 00H, 'u', 00H, 'c', 00H, 't', 00H, ' ', 00H, 's', 00H
	DB	't', 00H, 'd', 00H, ':', 00H, ':', 00H, '_', 00H, 'S', 00H, 'i'
	DB	00H, 'm', 00H, 'p', 00H, 'l', 00H, 'e', 00H, '_', 00H, 't', 00H
	DB	'y', 00H, 'p', 00H, 'e', 00H, 's', 00H, '<', 00H, 's', 00H, 't'
	DB	00H, 'r', 00H, 'u', 00H, 'c', 00H, 't', 00H, ' ', 00H, 'D', 00H
	DB	'X', 00H, 'U', 00H, 'T', 00H, 'C', 00H, 'a', 00H, 'c', 00H, 'h'
	DB	00H, 'e', 00H, '_', 00H, 'T', 00H, 'e', 00H, 'x', 00H, 't', 00H
	DB	'u', 00H, 'r', 00H, 'e', 00H, '>', 00H, ' ', 00H, '>', 00H, ' '
	DB	00H, '>', 00H, ':', 00H, ':', 00H, 'o', 00H, 'p', 00H, 'e', 00H
	DB	'r', 00H, 'a', 00H, 't', 00H, 'o', 00H, 'r', 00H, ' ', 00H, '*'
	DB	00H, 00H, 00H				; `string'
CONST	ENDS
;	COMDAT ??_C@_1EG@FOHJJHAC@?$AAv?$AAe?$AAc?$AAt?$AAo?$AAr?$AA?5?$AAi?$AAt?$AAe?$AAr?$AAa?$AAt?$AAo?$AAr?$AA?5?$AAn?$AAo?$AAt?$AA?5?$AAd?$AAe?$AAr?$AAe?$AAf?$AAe?$AAr?$AAe?$AAn?$AAc?$AAa?$AAb@
CONST	SEGMENT
??_C@_1EG@FOHJJHAC@?$AAv?$AAe?$AAc?$AAt?$AAo?$AAr?$AA?5?$AAi?$AAt?$AAe?$AAr?$AAa?$AAt?$AAo?$AAr?$AA?5?$AAn?$AAo?$AAt?$AA?5?$AAd?$AAe?$AAr?$AAe?$AAf?$AAe?$AAr?$AAe?$AAn?$AAc?$AAa?$AAb@ DB 'v'
	DB	00H, 'e', 00H, 'c', 00H, 't', 00H, 'o', 00H, 'r', 00H, ' ', 00H
	DB	'i', 00H, 't', 00H, 'e', 00H, 'r', 00H, 'a', 00H, 't', 00H, 'o'
	DB	00H, 'r', 00H, ' ', 00H, 'n', 00H, 'o', 00H, 't', 00H, ' ', 00H
	DB	'd', 00H, 'e', 00H, 'r', 00H, 'e', 00H, 'f', 00H, 'e', 00H, 'r'
	DB	00H, 'e', 00H, 'n', 00H, 'c', 00H, 'a', 00H, 'b', 00H, 'l', 00H
	DB	'e', 00H, 00H, 00H				; `string'
CONST	ENDS
;	COMDAT ??_C@_1PA@CDGOAEFA@?$AAs?$AAt?$AAd?$AA?3?$AA?3?$AA_?$AAV?$AAe?$AAc?$AAt?$AAo?$AAr?$AA_?$AAc?$AAo?$AAn?$AAs?$AAt?$AA_?$AAi?$AAt?$AAe?$AAr?$AAa?$AAt?$AAo?$AAr?$AA?$DM?$AAc?$AAl?$AAa?$AAs@
CONST	SEGMENT
??_C@_1PA@CDGOAEFA@?$AAs?$AAt?$AAd?$AA?3?$AA?3?$AA_?$AAV?$AAe?$AAc?$AAt?$AAo?$AAr?$AA_?$AAc?$AAo?$AAn?$AAs?$AAt?$AA_?$AAi?$AAt?$AAe?$AAr?$AAa?$AAt?$AAo?$AAr?$AA?$DM?$AAc?$AAl?$AAa?$AAs@ DB 's'
	DB	00H, 't', 00H, 'd', 00H, ':', 00H, ':', 00H, '_', 00H, 'V', 00H
	DB	'e', 00H, 'c', 00H, 't', 00H, 'o', 00H, 'r', 00H, '_', 00H, 'c'
	DB	00H, 'o', 00H, 'n', 00H, 's', 00H, 't', 00H, '_', 00H, 'i', 00H
	DB	't', 00H, 'e', 00H, 'r', 00H, 'a', 00H, 't', 00H, 'o', 00H, 'r'
	DB	00H, '<', 00H, 'c', 00H, 'l', 00H, 'a', 00H, 's', 00H, 's', 00H
	DB	' ', 00H, 's', 00H, 't', 00H, 'd', 00H, ':', 00H, ':', 00H, '_'
	DB	00H, 'V', 00H, 'e', 00H, 'c', 00H, 't', 00H, 'o', 00H, 'r', 00H
	DB	'_', 00H, 'v', 00H, 'a', 00H, 'l', 00H, '<', 00H, 's', 00H, 't'
	DB	00H, 'r', 00H, 'u', 00H, 'c', 00H, 't', 00H, ' ', 00H, 's', 00H
	DB	't', 00H, 'd', 00H, ':', 00H, ':', 00H, '_', 00H, 'S', 00H, 'i'
	DB	00H, 'm', 00H, 'p', 00H, 'l', 00H, 'e', 00H, '_', 00H, 't', 00H
	DB	'y', 00H, 'p', 00H, 'e', 00H, 's', 00H, '<', 00H, 's', 00H, 't'
	DB	00H, 'r', 00H, 'u', 00H, 'c', 00H, 't', 00H, ' ', 00H, 'D', 00H
	DB	'X', 00H, 'U', 00H, 'T', 00H, 'C', 00H, 'a', 00H, 'c', 00H, 'h'
	DB	00H, 'e', 00H, '_', 00H, 'T', 00H, 'e', 00H, 'x', 00H, 't', 00H
	DB	'u', 00H, 'r', 00H, 'e', 00H, '>', 00H, ' ', 00H, '>', 00H, ' '
	DB	00H, '>', 00H, ':', 00H, ':', 00H, 'o', 00H, 'p', 00H, 'e', 00H
	DB	'r', 00H, 'a', 00H, 't', 00H, 'o', 00H, 'r', 00H, ' ', 00H, '+'
	DB	00H, '+', 00H, 00H, 00H			; `string'
CONST	ENDS
;	COMDAT ??_C@_1EE@EJDKCLKB@?$AAv?$AAe?$AAc?$AAt?$AAo?$AAr?$AA?5?$AAi?$AAt?$AAe?$AAr?$AAa?$AAt?$AAo?$AAr?$AA?5?$AAn?$AAo?$AAt?$AA?5?$AAi?$AAn?$AAc?$AAr?$AAe?$AAm?$AAe?$AAn?$AAt?$AAa?$AAb?$AAl@
CONST	SEGMENT
??_C@_1EE@EJDKCLKB@?$AAv?$AAe?$AAc?$AAt?$AAo?$AAr?$AA?5?$AAi?$AAt?$AAe?$AAr?$AAa?$AAt?$AAo?$AAr?$AA?5?$AAn?$AAo?$AAt?$AA?5?$AAi?$AAn?$AAc?$AAr?$AAe?$AAm?$AAe?$AAn?$AAt?$AAa?$AAb?$AAl@ DB 'v'
	DB	00H, 'e', 00H, 'c', 00H, 't', 00H, 'o', 00H, 'r', 00H, ' ', 00H
	DB	'i', 00H, 't', 00H, 'e', 00H, 'r', 00H, 'a', 00H, 't', 00H, 'o'
	DB	00H, 'r', 00H, ' ', 00H, 'n', 00H, 'o', 00H, 't', 00H, ' ', 00H
	DB	'i', 00H, 'n', 00H, 'c', 00H, 'r', 00H, 'e', 00H, 'm', 00H, 'e'
	DB	00H, 'n', 00H, 't', 00H, 'a', 00H, 'b', 00H, 'l', 00H, 'e', 00H
	DB	00H, 00H					; `string'
CONST	ENDS
;	COMDAT ??_C@_1BO@MEPPHOO@?$AA?$CC?$AAo?$AAu?$AAt?$AA?5?$AAo?$AAf?$AA?5?$AAr?$AAa?$AAn?$AAg?$AAe?$AA?$CC?$AA?$AA@
CONST	SEGMENT
??_C@_1BO@MEPPHOO@?$AA?$CC?$AAo?$AAu?$AAt?$AA?5?$AAo?$AAf?$AA?5?$AAr?$AAa?$AAn?$AAg?$AAe?$AA?$CC?$AA?$AA@ DB '"'
	DB	00H, 'o', 00H, 'u', 00H, 't', 00H, ' ', 00H, 'o', 00H, 'f', 00H
	DB	' ', 00H, 'r', 00H, 'a', 00H, 'n', 00H, 'g', 00H, 'e', 00H, '"'
	DB	00H, 00H, 00H				; `string'
CONST	ENDS
;	COMDAT ??_C@_1MG@PMHOEKDO@?$AAs?$AAt?$AAd?$AA?3?$AA?3?$AAv?$AAe?$AAc?$AAt?$AAo?$AAr?$AA?$DM?$AAs?$AAt?$AAr?$AAu?$AAc?$AAt?$AA?5?$AAD?$AAX?$AAU?$AAT?$AAC?$AAa?$AAc?$AAh?$AAe?$AA_?$AAT?$AAe?$AAx@
CONST	SEGMENT
??_C@_1MG@PMHOEKDO@?$AAs?$AAt?$AAd?$AA?3?$AA?3?$AAv?$AAe?$AAc?$AAt?$AAo?$AAr?$AA?$DM?$AAs?$AAt?$AAr?$AAu?$AAc?$AAt?$AA?5?$AAD?$AAX?$AAU?$AAT?$AAC?$AAa?$AAc?$AAh?$AAe?$AA_?$AAT?$AAe?$AAx@ DB 's'
	DB	00H, 't', 00H, 'd', 00H, ':', 00H, ':', 00H, 'v', 00H, 'e', 00H
	DB	'c', 00H, 't', 00H, 'o', 00H, 'r', 00H, '<', 00H, 's', 00H, 't'
	DB	00H, 'r', 00H, 'u', 00H, 'c', 00H, 't', 00H, ' ', 00H, 'D', 00H
	DB	'X', 00H, 'U', 00H, 'T', 00H, 'C', 00H, 'a', 00H, 'c', 00H, 'h'
	DB	00H, 'e', 00H, '_', 00H, 'T', 00H, 'e', 00H, 'x', 00H, 't', 00H
	DB	'u', 00H, 'r', 00H, 'e', 00H, ',', 00H, 'c', 00H, 'l', 00H, 'a'
	DB	00H, 's', 00H, 's', 00H, ' ', 00H, 's', 00H, 't', 00H, 'd', 00H
	DB	':', 00H, ':', 00H, 'a', 00H, 'l', 00H, 'l', 00H, 'o', 00H, 'c'
	DB	00H, 'a', 00H, 't', 00H, 'o', 00H, 'r', 00H, '<', 00H, 's', 00H
	DB	't', 00H, 'r', 00H, 'u', 00H, 'c', 00H, 't', 00H, ' ', 00H, 'D'
	DB	00H, 'X', 00H, 'U', 00H, 'T', 00H, 'C', 00H, 'a', 00H, 'c', 00H
	DB	'h', 00H, 'e', 00H, '_', 00H, 'T', 00H, 'e', 00H, 'x', 00H, 't'
	DB	00H, 'u', 00H, 'r', 00H, 'e', 00H, '>', 00H, ' ', 00H, '>', 00H
	DB	':', 00H, ':', 00H, 'o', 00H, 'p', 00H, 'e', 00H, 'r', 00H, 'a'
	DB	00H, 't', 00H, 'o', 00H, 'r', 00H, ' ', 00H, '[', 00H, ']', 00H
	DB	00H, 00H					; `string'
CONST	ENDS
;	COMDAT ??_C@_1FG@IBPIFFN@?$AA?$CC?$AAS?$AAt?$AAa?$AAn?$AAd?$AAa?$AAr?$AAd?$AA?5?$AAC?$AA?$CL?$AA?$CL?$AA?5?$AAL?$AAi?$AAb?$AAr?$AAa?$AAr?$AAi?$AAe?$AAs?$AA?5?$AAO?$AAu?$AAt?$AA?5?$AAo?$AAf?$AA?5?$AAR@
CONST	SEGMENT
??_C@_1FG@IBPIFFN@?$AA?$CC?$AAS?$AAt?$AAa?$AAn?$AAd?$AAa?$AAr?$AAd?$AA?5?$AAC?$AA?$CL?$AA?$CL?$AA?5?$AAL?$AAi?$AAb?$AAr?$AAa?$AAr?$AAi?$AAe?$AAs?$AA?5?$AAO?$AAu?$AAt?$AA?5?$AAo?$AAf?$AA?5?$AAR@ DB '"'
	DB	00H, 'S', 00H, 't', 00H, 'a', 00H, 'n', 00H, 'd', 00H, 'a', 00H
	DB	'r', 00H, 'd', 00H, ' ', 00H, 'C', 00H, '+', 00H, '+', 00H, ' '
	DB	00H, 'L', 00H, 'i', 00H, 'b', 00H, 'r', 00H, 'a', 00H, 'r', 00H
	DB	'i', 00H, 'e', 00H, 's', 00H, ' ', 00H, 'O', 00H, 'u', 00H, 't'
	DB	00H, ' ', 00H, 'o', 00H, 'f', 00H, ' ', 00H, 'R', 00H, 'a', 00H
	DB	'n', 00H, 'g', 00H, 'e', 00H, '"', 00H, ' ', 00H, '&', 00H, '&'
	DB	00H, ' ', 00H, '0', 00H, 00H, 00H		; `string'
CONST	ENDS
;	COMDAT ??_C@_0CE@OFMIGAMM@Standard?5C?$CL?$CL?5Libraries?5Out?5of?5Ra@
CONST	SEGMENT
??_C@_0CE@OFMIGAMM@Standard?5C?$CL?$CL?5Libraries?5Out?5of?5Ra@ DB 'Stand'
	DB	'ard C++ Libraries Out of Range', 00H	; `string'
CONST	ENDS
;	COMDAT ??_C@_1DM@LHGCHCBA@?$AAv?$AAe?$AAc?$AAt?$AAo?$AAr?$AA?5?$AAs?$AAu?$AAb?$AAs?$AAc?$AAr?$AAi?$AAp?$AAt?$AA?5?$AAo?$AAu?$AAt?$AA?5?$AAo?$AAf?$AA?5?$AAr?$AAa?$AAn?$AAg?$AAe?$AA?$AA@
CONST	SEGMENT
??_C@_1DM@LHGCHCBA@?$AAv?$AAe?$AAc?$AAt?$AAo?$AAr?$AA?5?$AAs?$AAu?$AAb?$AAs?$AAc?$AAr?$AAi?$AAp?$AAt?$AA?5?$AAo?$AAu?$AAt?$AA?5?$AAo?$AAf?$AA?5?$AAr?$AAa?$AAn?$AAg?$AAe?$AA?$AA@ DB 'v'
	DB	00H, 'e', 00H, 'c', 00H, 't', 00H, 'o', 00H, 'r', 00H, ' ', 00H
	DB	's', 00H, 'u', 00H, 'b', 00H, 's', 00H, 'c', 00H, 'r', 00H, 'i'
	DB	00H, 'p', 00H, 't', 00H, ' ', 00H, 'o', 00H, 'u', 00H, 't', 00H
	DB	' ', 00H, 'o', 00H, 'f', 00H, ' ', 00H, 'r', 00H, 'a', 00H, 'n'
	DB	00H, 'g', 00H, 'e', 00H, 00H, 00H		; `string'
CONST	ENDS
;	COMDAT ??_C@_1IM@EINEHPHE@?$AAC?$AA?3?$AA?2?$AAP?$AAr?$AAo?$AAg?$AAr?$AAa?$AAm?$AA?5?$AAF?$AAi?$AAl?$AAe?$AAs?$AA?5?$AA?$CI?$AAx?$AA8?$AA6?$AA?$CJ?$AA?2?$AAM?$AAi?$AAc?$AAr?$AAo?$AAs?$AAo?$AAf?$AAt@
CONST	SEGMENT
??_C@_1IM@EINEHPHE@?$AAC?$AA?3?$AA?2?$AAP?$AAr?$AAo?$AAg?$AAr?$AAa?$AAm?$AA?5?$AAF?$AAi?$AAl?$AAe?$AAs?$AA?5?$AA?$CI?$AAx?$AA8?$AA6?$AA?$CJ?$AA?2?$AAM?$AAi?$AAc?$AAr?$AAo?$AAs?$AAo?$AAf?$AAt@ DB 'C'
	DB	00H, ':', 00H, '\', 00H, 'P', 00H, 'r', 00H, 'o', 00H, 'g', 00H
	DB	'r', 00H, 'a', 00H, 'm', 00H, ' ', 00H, 'F', 00H, 'i', 00H, 'l'
	DB	00H, 'e', 00H, 's', 00H, ' ', 00H, '(', 00H, 'x', 00H, '8', 00H
	DB	'6', 00H, ')', 00H, '\', 00H, 'M', 00H, 'i', 00H, 'c', 00H, 'r'
	DB	00H, 'o', 00H, 's', 00H, 'o', 00H, 'f', 00H, 't', 00H, ' ', 00H
	DB	'V', 00H, 'i', 00H, 's', 00H, 'u', 00H, 'a', 00H, 'l', 00H, ' '
	DB	00H, 'S', 00H, 't', 00H, 'u', 00H, 'd', 00H, 'i', 00H, 'o', 00H
	DB	' ', 00H, '1', 00H, '2', 00H, '.', 00H, '0', 00H, '\', 00H, 'V'
	DB	00H, 'C', 00H, '\', 00H, 'i', 00H, 'n', 00H, 'c', 00H, 'l', 00H
	DB	'u', 00H, 'd', 00H, 'e', 00H, '\', 00H, 'v', 00H, 'e', 00H, 'c'
	DB	00H, 't', 00H, 'o', 00H, 'r', 00H, 00H, 00H	; `string'
CONST	ENDS
;	COMDAT ?s_vUpDir@?1??DXUTGetCubeMapViewMatrix@@YG?AUXMMATRIX@DirectX@@K@Z@4QBUXMVECTORF32@3@B
CONST	SEGMENT
?s_vUpDir@?1??DXUTGetCubeMapViewMatrix@@YG?AUXMMATRIX@DirectX@@K@Z@4QBUXMVECTORF32@3@B DD 000000000r ; 0 ; `DXUTGetCubeMapViewMatrix'::`2'::s_vUpDir
	DD	03f800000r			; 1
	DD	000000000r			; 0
	DD	000000000r			; 0
	DD	000000000r			; 0
	DD	03f800000r			; 1
	DD	000000000r			; 0
	DD	000000000r			; 0
	DD	000000000r			; 0
	DD	000000000r			; 0
	DD	0bf800000r			; -1
	DD	000000000r			; 0
	DD	000000000r			; 0
	DD	000000000r			; 0
	DD	03f800000r			; 1
	DD	000000000r			; 0
	DD	000000000r			; 0
	DD	03f800000r			; 1
	DD	000000000r			; 0
	DD	000000000r			; 0
	DD	000000000r			; 0
	DD	03f800000r			; 1
	DD	000000000r			; 0
	DD	000000000r			; 0
CONST	ENDS
;	COMDAT ?s_vLookDir@?1??DXUTGetCubeMapViewMatrix@@YG?AUXMMATRIX@DirectX@@K@Z@4QBUXMVECTORF32@3@B
CONST	SEGMENT
?s_vLookDir@?1??DXUTGetCubeMapViewMatrix@@YG?AUXMMATRIX@DirectX@@K@Z@4QBUXMVECTORF32@3@B DD 03f800000r ; 1 ; `DXUTGetCubeMapViewMatrix'::`2'::s_vLookDir
	DD	000000000r			; 0
	DD	000000000r			; 0
	DD	000000000r			; 0
	DD	0bf800000r			; -1
	DD	000000000r			; 0
	DD	000000000r			; 0
	DD	000000000r			; 0
	DD	000000000r			; 0
	DD	03f800000r			; 1
	DD	000000000r			; 0
	DD	000000000r			; 0
	DD	000000000r			; 0
	DD	0bf800000r			; -1
	DD	000000000r			; 0
	DD	000000000r			; 0
	DD	000000000r			; 0
	DD	000000000r			; 0
	DD	03f800000r			; 1
	DD	000000000r			; 0
	DD	000000000r			; 0
	DD	000000000r			; 0
	DD	0bf800000r			; -1
	DD	000000000r			; 0
CONST	ENDS
;	COMDAT ??_C@_1DC@POOIKBAO@?$AAI?$AAT?$AAE?$AAR?$AAA?$AAT?$AAO?$AAR?$AA?5?$AAL?$AAI?$AAS?$AAT?$AA?5?$AAC?$AAO?$AAR?$AAR?$AAU?$AAP?$AAT?$AAE?$AAD?$AA?$CB?$AA?$AA@
CONST	SEGMENT
??_C@_1DC@POOIKBAO@?$AAI?$AAT?$AAE?$AAR?$AAA?$AAT?$AAO?$AAR?$AA?5?$AAL?$AAI?$AAS?$AAT?$AA?5?$AAC?$AAO?$AAR?$AAR?$AAU?$AAP?$AAT?$AAE?$AAD?$AA?$CB?$AA?$AA@ DB 'I'
	DB	00H, 'T', 00H, 'E', 00H, 'R', 00H, 'A', 00H, 'T', 00H, 'O', 00H
	DB	'R', 00H, ' ', 00H, 'L', 00H, 'I', 00H, 'S', 00H, 'T', 00H, ' '
	DB	00H, 'C', 00H, 'O', 00H, 'R', 00H, 'R', 00H, 'U', 00H, 'P', 00H
	DB	'T', 00H, 'E', 00H, 'D', 00H, '!', 00H, 00H, 00H ; `string'
CONST	ENDS
;	COMDAT ??_C@_1JA@EADLBAJ@?$AAC?$AA?3?$AA?2?$AAP?$AAr?$AAo?$AAg?$AAr?$AAa?$AAm?$AA?5?$AAF?$AAi?$AAl?$AAe?$AAs?$AA?5?$AA?$CI?$AAx?$AA8?$AA6?$AA?$CJ?$AA?2?$AAM?$AAi?$AAc?$AAr?$AAo?$AAs?$AAo?$AAf?$AAt@
CONST	SEGMENT
??_C@_1JA@EADLBAJ@?$AAC?$AA?3?$AA?2?$AAP?$AAr?$AAo?$AAg?$AAr?$AAa?$AAm?$AA?5?$AAF?$AAi?$AAl?$AAe?$AAs?$AA?5?$AA?$CI?$AAx?$AA8?$AA6?$AA?$CJ?$AA?2?$AAM?$AAi?$AAc?$AAr?$AAo?$AAs?$AAo?$AAf?$AAt@ DB 'C'
	DB	00H, ':', 00H, '\', 00H, 'P', 00H, 'r', 00H, 'o', 00H, 'g', 00H
	DB	'r', 00H, 'a', 00H, 'm', 00H, ' ', 00H, 'F', 00H, 'i', 00H, 'l'
	DB	00H, 'e', 00H, 's', 00H, ' ', 00H, '(', 00H, 'x', 00H, '8', 00H
	DB	'6', 00H, ')', 00H, '\', 00H, 'M', 00H, 'i', 00H, 'c', 00H, 'r'
	DB	00H, 'o', 00H, 's', 00H, 'o', 00H, 'f', 00H, 't', 00H, ' ', 00H
	DB	'V', 00H, 'i', 00H, 's', 00H, 'u', 00H, 'a', 00H, 'l', 00H, ' '
	DB	00H, 'S', 00H, 't', 00H, 'u', 00H, 'd', 00H, 'i', 00H, 'o', 00H
	DB	' ', 00H, '1', 00H, '2', 00H, '.', 00H, '0', 00H, '\', 00H, 'V'
	DB	00H, 'C', 00H, '\', 00H, 'i', 00H, 'n', 00H, 'c', 00H, 'l', 00H
	DB	'u', 00H, 'd', 00H, 'e', 00H, '\', 00H, 'x', 00H, 'u', 00H, 't'
	DB	00H, 'i', 00H, 'l', 00H, 'i', 00H, 't', 00H, 'y', 00H, 00H, 00H ; `string'
CONST	ENDS
;	COMDAT ??_C@_1EE@JAOFAOOK@?$AA?$CB?$AAX?$AAM?$AAV?$AAe?$AAc?$AAt?$AAo?$AAr?$AA3?$AAI?$AAs?$AAI?$AAn?$AAf?$AAi?$AAn?$AAi?$AAt?$AAe?$AA?$CI?$AAU?$AAp?$AAD?$AAi?$AAr?$AAe?$AAc?$AAt?$AAi?$AAo?$AAn@
CONST	SEGMENT
??_C@_1EE@JAOFAOOK@?$AA?$CB?$AAX?$AAM?$AAV?$AAe?$AAc?$AAt?$AAo?$AAr?$AA3?$AAI?$AAs?$AAI?$AAn?$AAf?$AAi?$AAn?$AAi?$AAt?$AAe?$AA?$CI?$AAU?$AAp?$AAD?$AAi?$AAr?$AAe?$AAc?$AAt?$AAi?$AAo?$AAn@ DB '!'
	DB	00H, 'X', 00H, 'M', 00H, 'V', 00H, 'e', 00H, 'c', 00H, 't', 00H
	DB	'o', 00H, 'r', 00H, '3', 00H, 'I', 00H, 's', 00H, 'I', 00H, 'n'
	DB	00H, 'f', 00H, 'i', 00H, 'n', 00H, 'i', 00H, 't', 00H, 'e', 00H
	DB	'(', 00H, 'U', 00H, 'p', 00H, 'D', 00H, 'i', 00H, 'r', 00H, 'e'
	DB	00H, 'c', 00H, 't', 00H, 'i', 00H, 'o', 00H, 'n', 00H, ')', 00H
	DB	00H, 00H					; `string'
CONST	ENDS
;	COMDAT ??_C@_1FK@IBPGMKAB@?$AA?$CB?$AAX?$AAM?$AAV?$AAe?$AAc?$AAt?$AAo?$AAr?$AA3?$AAE?$AAq?$AAu?$AAa?$AAl?$AA?$CI?$AAU?$AAp?$AAD?$AAi?$AAr?$AAe?$AAc?$AAt?$AAi?$AAo?$AAn?$AA?0?$AA?5?$AAX?$AAM?$AAV@
CONST	SEGMENT
??_C@_1FK@IBPGMKAB@?$AA?$CB?$AAX?$AAM?$AAV?$AAe?$AAc?$AAt?$AAo?$AAr?$AA3?$AAE?$AAq?$AAu?$AAa?$AAl?$AA?$CI?$AAU?$AAp?$AAD?$AAi?$AAr?$AAe?$AAc?$AAt?$AAi?$AAo?$AAn?$AA?0?$AA?5?$AAX?$AAM?$AAV@ DB '!'
	DB	00H, 'X', 00H, 'M', 00H, 'V', 00H, 'e', 00H, 'c', 00H, 't', 00H
	DB	'o', 00H, 'r', 00H, '3', 00H, 'E', 00H, 'q', 00H, 'u', 00H, 'a'
	DB	00H, 'l', 00H, '(', 00H, 'U', 00H, 'p', 00H, 'D', 00H, 'i', 00H
	DB	'r', 00H, 'e', 00H, 'c', 00H, 't', 00H, 'i', 00H, 'o', 00H, 'n'
	DB	00H, ',', 00H, ' ', 00H, 'X', 00H, 'M', 00H, 'V', 00H, 'e', 00H
	DB	'c', 00H, 't', 00H, 'o', 00H, 'r', 00H, 'Z', 00H, 'e', 00H, 'r'
	DB	00H, 'o', 00H, '(', 00H, ')', 00H, ')', 00H, 00H, 00H ; `string'
CONST	ENDS
;	COMDAT ??_C@_1EG@DOFHPLOD@?$AA?$CB?$AAX?$AAM?$AAV?$AAe?$AAc?$AAt?$AAo?$AAr?$AA3?$AAI?$AAs?$AAI?$AAn?$AAf?$AAi?$AAn?$AAi?$AAt?$AAe?$AA?$CI?$AAE?$AAy?$AAe?$AAD?$AAi?$AAr?$AAe?$AAc?$AAt?$AAi?$AAo@
CONST	SEGMENT
??_C@_1EG@DOFHPLOD@?$AA?$CB?$AAX?$AAM?$AAV?$AAe?$AAc?$AAt?$AAo?$AAr?$AA3?$AAI?$AAs?$AAI?$AAn?$AAf?$AAi?$AAn?$AAi?$AAt?$AAe?$AA?$CI?$AAE?$AAy?$AAe?$AAD?$AAi?$AAr?$AAe?$AAc?$AAt?$AAi?$AAo@ DB '!'
	DB	00H, 'X', 00H, 'M', 00H, 'V', 00H, 'e', 00H, 'c', 00H, 't', 00H
	DB	'o', 00H, 'r', 00H, '3', 00H, 'I', 00H, 's', 00H, 'I', 00H, 'n'
	DB	00H, 'f', 00H, 'i', 00H, 'n', 00H, 'i', 00H, 't', 00H, 'e', 00H
	DB	'(', 00H, 'E', 00H, 'y', 00H, 'e', 00H, 'D', 00H, 'i', 00H, 'r'
	DB	00H, 'e', 00H, 'c', 00H, 't', 00H, 'i', 00H, 'o', 00H, 'n', 00H
	DB	')', 00H, 00H, 00H				; `string'
CONST	ENDS
;	COMDAT ??_C@_1FM@KOIPKFLA@?$AA?$CB?$AAX?$AAM?$AAV?$AAe?$AAc?$AAt?$AAo?$AAr?$AA3?$AAE?$AAq?$AAu?$AAa?$AAl?$AA?$CI?$AAE?$AAy?$AAe?$AAD?$AAi?$AAr?$AAe?$AAc?$AAt?$AAi?$AAo?$AAn?$AA?0?$AA?5?$AAX?$AAM@
CONST	SEGMENT
??_C@_1FM@KOIPKFLA@?$AA?$CB?$AAX?$AAM?$AAV?$AAe?$AAc?$AAt?$AAo?$AAr?$AA3?$AAE?$AAq?$AAu?$AAa?$AAl?$AA?$CI?$AAE?$AAy?$AAe?$AAD?$AAi?$AAr?$AAe?$AAc?$AAt?$AAi?$AAo?$AAn?$AA?0?$AA?5?$AAX?$AAM@ DB '!'
	DB	00H, 'X', 00H, 'M', 00H, 'V', 00H, 'e', 00H, 'c', 00H, 't', 00H
	DB	'o', 00H, 'r', 00H, '3', 00H, 'E', 00H, 'q', 00H, 'u', 00H, 'a'
	DB	00H, 'l', 00H, '(', 00H, 'E', 00H, 'y', 00H, 'e', 00H, 'D', 00H
	DB	'i', 00H, 'r', 00H, 'e', 00H, 'c', 00H, 't', 00H, 'i', 00H, 'o'
	DB	00H, 'n', 00H, ',', 00H, ' ', 00H, 'X', 00H, 'M', 00H, 'V', 00H
	DB	'e', 00H, 'c', 00H, 't', 00H, 'o', 00H, 'r', 00H, 'Z', 00H, 'e'
	DB	00H, 'r', 00H, 'o', 00H, '(', 00H, ')', 00H, ')', 00H, 00H, 00H ; `string'
CONST	ENDS
;	COMDAT ??_C@_1JC@FPIPICAN@?$AAc?$AA?3?$AA?2?$AAp?$AAr?$AAo?$AAg?$AAr?$AAa?$AAm?$AA?5?$AAf?$AAi?$AAl?$AAe?$AAs?$AA?5?$AA?$CI?$AAx?$AA8?$AA6?$AA?$CJ?$AA?2?$AAw?$AAi?$AAn?$AAd?$AAo?$AAw?$AAs?$AA?5?$AAk@
CONST	SEGMENT
??_C@_1JC@FPIPICAN@?$AAc?$AA?3?$AA?2?$AAp?$AAr?$AAo?$AAg?$AAr?$AAa?$AAm?$AA?5?$AAf?$AAi?$AAl?$AAe?$AAs?$AA?5?$AA?$CI?$AAx?$AA8?$AA6?$AA?$CJ?$AA?2?$AAw?$AAi?$AAn?$AAd?$AAo?$AAw?$AAs?$AA?5?$AAk@ DB 'c'
	DB	00H, ':', 00H, '\', 00H, 'p', 00H, 'r', 00H, 'o', 00H, 'g', 00H
	DB	'r', 00H, 'a', 00H, 'm', 00H, ' ', 00H, 'f', 00H, 'i', 00H, 'l'
	DB	00H, 'e', 00H, 's', 00H, ' ', 00H, '(', 00H, 'x', 00H, '8', 00H
	DB	'6', 00H, ')', 00H, '\', 00H, 'w', 00H, 'i', 00H, 'n', 00H, 'd'
	DB	00H, 'o', 00H, 'w', 00H, 's', 00H, ' ', 00H, 'k', 00H, 'i', 00H
	DB	't', 00H, 's', 00H, '\', 00H, '8', 00H, '.', 00H, '1', 00H, '\'
	DB	00H, 'i', 00H, 'n', 00H, 'c', 00H, 'l', 00H, 'u', 00H, 'd', 00H
	DB	'e', 00H, '\', 00H, 'u', 00H, 'm', 00H, '\', 00H, 'D', 00H, 'i'
	DB	00H, 'r', 00H, 'e', 00H, 'c', 00H, 't', 00H, 'X', 00H, 'M', 00H
	DB	'a', 00H, 't', 00H, 'h', 00H, 'M', 00H, 'a', 00H, 't', 00H, 'r'
	DB	00H, 'i', 00H, 'x', 00H, '.', 00H, 'i', 00H, 'n', 00H, 'l', 00H
	DB	00H, 00H					; `string'
CONST	ENDS
;	COMDAT ??_C@_15GANGMFKL@?$AA?$CF?$AAs?$AA?$AA@
CONST	SEGMENT
??_C@_15GANGMFKL@?$AA?$CF?$AAs?$AA?$AA@ DB '%', 00H, 's', 00H, 00H, 00H ; `string'
CONST	ENDS
;	COMDAT xdata$x
xdata$x	SEGMENT
__unwindtable$??$construct@UDXUTCache_Texture@@U1@@?$allocator@UDXUTCache_Texture@@@std@@QAEXPAUDXUTCache_Texture@@$$QAU2@@Z DD 0ffffffffH
	DD	FLAT:__unwindfunclet$??$construct@UDXUTCache_Texture@@U1@@?$allocator@UDXUTCache_Texture@@@std@@QAEXPAUDXUTCache_Texture@@$$QAU2@@Z$0
__ehfuncinfo$??$construct@UDXUTCache_Texture@@U1@@?$allocator@UDXUTCache_Texture@@@std@@QAEXPAUDXUTCache_Texture@@$$QAU2@@Z DD 019930522H
	DD	01H
	DD	FLAT:__unwindtable$??$construct@UDXUTCache_Texture@@U1@@?$allocator@UDXUTCache_Texture@@@std@@QAEXPAUDXUTCache_Texture@@$$QAU2@@Z
	DD	2 DUP(00H)
	DD	2 DUP(00H)
	DD	00H
	DD	01H
xdata$x	ENDS
;	COMDAT xdata$x
xdata$x	SEGMENT
__catchsym$??$_Uninit_move@PAUDXUTCache_Texture@@PAU1@V?$allocator@UDXUTCache_Texture@@@std@@U1@@std@@YAPAUDXUTCache_Texture@@PAU1@00AAU?$_Wrap_alloc@V?$allocator@UDXUTCache_Texture@@@std@@@0@0U_Nonscalar_ptr_iterator_tag@0@@Z$2 DD 040H
	DD	00H
	DD	00H
	DD	FLAT:__catch$??$_Uninit_move@PAUDXUTCache_Texture@@PAU1@V?$allocator@UDXUTCache_Texture@@@std@@U1@@std@@YAPAUDXUTCache_Texture@@PAU1@00AAU?$_Wrap_alloc@V?$allocator@UDXUTCache_Texture@@@std@@@0@0U_Nonscalar_ptr_iterator_tag@0@@Z$0
__unwindtable$??$_Uninit_move@PAUDXUTCache_Texture@@PAU1@V?$allocator@UDXUTCache_Texture@@@std@@U1@@std@@YAPAUDXUTCache_Texture@@PAU1@00AAU?$_Wrap_alloc@V?$allocator@UDXUTCache_Texture@@@std@@@0@0U_Nonscalar_ptr_iterator_tag@0@@Z DD 0ffffffffH
	DD	00H
	DD	0ffffffffH
	DD	00H
__tryblocktable$??$_Uninit_move@PAUDXUTCache_Texture@@PAU1@V?$allocator@UDXUTCache_Texture@@@std@@U1@@std@@YAPAUDXUTCache_Texture@@PAU1@00AAU?$_Wrap_alloc@V?$allocator@UDXUTCache_Texture@@@std@@@0@0U_Nonscalar_ptr_iterator_tag@0@@Z DD 00H
	DD	00H
	DD	01H
	DD	01H
	DD	FLAT:__catchsym$??$_Uninit_move@PAUDXUTCache_Texture@@PAU1@V?$allocator@UDXUTCache_Texture@@@std@@U1@@std@@YAPAUDXUTCache_Texture@@PAU1@00AAU?$_Wrap_alloc@V?$allocator@UDXUTCache_Texture@@@std@@@0@0U_Nonscalar_ptr_iterator_tag@0@@Z$2
__ehfuncinfo$??$_Uninit_move@PAUDXUTCache_Texture@@PAU1@V?$allocator@UDXUTCache_Texture@@@std@@U1@@std@@YAPAUDXUTCache_Texture@@PAU1@00AAU?$_Wrap_alloc@V?$allocator@UDXUTCache_Texture@@@std@@@0@0U_Nonscalar_ptr_iterator_tag@0@@Z DD 019930522H
	DD	02H
	DD	FLAT:__unwindtable$??$_Uninit_move@PAUDXUTCache_Texture@@PAU1@V?$allocator@UDXUTCache_Texture@@@std@@U1@@std@@YAPAUDXUTCache_Texture@@PAU1@00AAU?$_Wrap_alloc@V?$allocator@UDXUTCache_Texture@@@std@@@0@0U_Nonscalar_ptr_iterator_tag@0@@Z
	DD	01H
	DD	FLAT:__tryblocktable$??$_Uninit_move@PAUDXUTCache_Texture@@PAU1@V?$allocator@UDXUTCache_Texture@@@std@@U1@@std@@YAPAUDXUTCache_Texture@@PAU1@00AAU?$_Wrap_alloc@V?$allocator@UDXUTCache_Texture@@@std@@@0@0U_Nonscalar_ptr_iterator_tag@0@@Z
	DD	2 DUP(00H)
	DD	00H
	DD	01H
xdata$x	ENDS
;	COMDAT xdata$x
xdata$x	SEGMENT
__unwindtable$??$construct@UDXUTCache_Texture@@AAU1@@?$allocator@UDXUTCache_Texture@@@std@@QAEXPAUDXUTCache_Texture@@AAU2@@Z DD 0ffffffffH
	DD	FLAT:__unwindfunclet$??$construct@UDXUTCache_Texture@@AAU1@@?$allocator@UDXUTCache_Texture@@@std@@QAEXPAUDXUTCache_Texture@@AAU2@@Z$0
__ehfuncinfo$??$construct@UDXUTCache_Texture@@AAU1@@?$allocator@UDXUTCache_Texture@@@std@@QAEXPAUDXUTCache_Texture@@AAU2@@Z DD 019930522H
	DD	01H
	DD	FLAT:__unwindtable$??$construct@UDXUTCache_Texture@@AAU1@@?$allocator@UDXUTCache_Texture@@@std@@QAEXPAUDXUTCache_Texture@@AAU2@@Z
	DD	2 DUP(00H)
	DD	2 DUP(00H)
	DD	00H
	DD	01H
xdata$x	ENDS
;	COMDAT xdata$x
xdata$x	SEGMENT
__unwindtable$??0?$_Vector_const_iterator@V?$_Vector_val@U?$_Simple_types@UDXUTCache_Texture@@@std@@@std@@@std@@QAE@PAUDXUTCache_Texture@@PBU_Container_base12@1@@Z DD 0ffffffffH
	DD	FLAT:__unwindfunclet$??0?$_Vector_const_iterator@V?$_Vector_val@U?$_Simple_types@UDXUTCache_Texture@@@std@@@std@@@std@@QAE@PAUDXUTCache_Texture@@PBU_Container_base12@1@@Z$0
__ehfuncinfo$??0?$_Vector_const_iterator@V?$_Vector_val@U?$_Simple_types@UDXUTCache_Texture@@@std@@@std@@@std@@QAE@PAUDXUTCache_Texture@@PBU_Container_base12@1@@Z DD 019930522H
	DD	01H
	DD	FLAT:__unwindtable$??0?$_Vector_const_iterator@V?$_Vector_val@U?$_Simple_types@UDXUTCache_Texture@@@std@@@std@@@std@@QAE@PAUDXUTCache_Texture@@PBU_Container_base12@1@@Z
	DD	2 DUP(00H)
	DD	2 DUP(00H)
	DD	00H
	DD	01H
xdata$x	ENDS
;	COMDAT xdata$x
xdata$x	SEGMENT
__unwindtable$?_Orphan_range@?$vector@UDXUTCache_Texture@@V?$allocator@UDXUTCache_Texture@@@std@@@std@@IBEXPAUDXUTCache_Texture@@0@Z DD 0ffffffffH
	DD	FLAT:__unwindfunclet$?_Orphan_range@?$vector@UDXUTCache_Texture@@V?$allocator@UDXUTCache_Texture@@@std@@@std@@IBEXPAUDXUTCache_Texture@@0@Z$0
__ehfuncinfo$?_Orphan_range@?$vector@UDXUTCache_Texture@@V?$allocator@UDXUTCache_Texture@@@std@@@std@@IBEXPAUDXUTCache_Texture@@0@Z DD 019930522H
	DD	01H
	DD	FLAT:__unwindtable$?_Orphan_range@?$vector@UDXUTCache_Texture@@V?$allocator@UDXUTCache_Texture@@@std@@@std@@IBEXPAUDXUTCache_Texture@@0@Z
	DD	2 DUP(00H)
	DD	2 DUP(00H)
	DD	00H
	DD	01H
xdata$x	ENDS
;	COMDAT xdata$x
xdata$x	SEGMENT
__catchsym$?_Reallocate@?$vector@UDXUTCache_Texture@@V?$allocator@UDXUTCache_Texture@@@std@@@std@@IAEXI@Z$2 DD 040H
	DD	00H
	DD	00H
	DD	FLAT:__catch$?_Reallocate@?$vector@UDXUTCache_Texture@@V?$allocator@UDXUTCache_Texture@@@std@@@std@@IAEXI@Z$0
__unwindtable$?_Reallocate@?$vector@UDXUTCache_Texture@@V?$allocator@UDXUTCache_Texture@@@std@@@std@@IAEXI@Z DD 0ffffffffH
	DD	00H
	DD	0ffffffffH
	DD	00H
__tryblocktable$?_Reallocate@?$vector@UDXUTCache_Texture@@V?$allocator@UDXUTCache_Texture@@@std@@@std@@IAEXI@Z DD 00H
	DD	00H
	DD	01H
	DD	01H
	DD	FLAT:__catchsym$?_Reallocate@?$vector@UDXUTCache_Texture@@V?$allocator@UDXUTCache_Texture@@@std@@@std@@IAEXI@Z$2
__ehfuncinfo$?_Reallocate@?$vector@UDXUTCache_Texture@@V?$allocator@UDXUTCache_Texture@@@std@@@std@@IAEXI@Z DD 019930522H
	DD	02H
	DD	FLAT:__unwindtable$?_Reallocate@?$vector@UDXUTCache_Texture@@V?$allocator@UDXUTCache_Texture@@@std@@@std@@IAEXI@Z
	DD	01H
	DD	FLAT:__tryblocktable$?_Reallocate@?$vector@UDXUTCache_Texture@@V?$allocator@UDXUTCache_Texture@@@std@@@std@@IAEXI@Z
	DD	2 DUP(00H)
	DD	00H
	DD	01H
xdata$x	ENDS
;	COMDAT xdata$x
xdata$x	SEGMENT
__unwindtable$??0?$_Vector_alloc@$0A@U?$_Vec_base_types@UDXUTCache_Texture@@V?$allocator@UDXUTCache_Texture@@@std@@@std@@@std@@QAE@ABV?$allocator@UDXUTCache_Texture@@@1@@Z DD 0ffffffffH
	DD	FLAT:__unwindfunclet$??0?$_Vector_alloc@$0A@U?$_Vec_base_types@UDXUTCache_Texture@@V?$allocator@UDXUTCache_Texture@@@std@@@std@@@std@@QAE@ABV?$allocator@UDXUTCache_Texture@@@1@@Z$0
__ehfuncinfo$??0?$_Vector_alloc@$0A@U?$_Vec_base_types@UDXUTCache_Texture@@V?$allocator@UDXUTCache_Texture@@@std@@@std@@@std@@QAE@ABV?$allocator@UDXUTCache_Texture@@@1@@Z DD 019930522H
	DD	01H
	DD	FLAT:__unwindtable$??0?$_Vector_alloc@$0A@U?$_Vec_base_types@UDXUTCache_Texture@@V?$allocator@UDXUTCache_Texture@@@std@@@std@@@std@@QAE@ABV?$allocator@UDXUTCache_Texture@@@1@@Z
	DD	2 DUP(00H)
	DD	2 DUP(00H)
	DD	00H
	DD	01H
xdata$x	ENDS
xdata$x	SEGMENT
__unwindtable$?DXUTGetGlobalResourceCache@@YGAAVCDXUTResourceCache@@XZ DD 0ffffffffH
	DD	FLAT:__unwindfunclet$?DXUTGetGlobalResourceCache@@YGAAVCDXUTResourceCache@@XZ$0
__unwindtable$??1CDXUTResourceCache@@QAE@XZ DD 0ffffffffH
	DD	FLAT:__unwindfunclet$??1CDXUTResourceCache@@QAE@XZ$0
__unwindtable$?CreateTextureFromFile@CDXUTResourceCache@@QAEJPAUID3D11Device@@PAUID3D11DeviceContext@@PB_WPAPAUID3D11ShaderResourceView@@_N@Z DD 0ffffffffH
	DD	FLAT:__unwindfunclet$?CreateTextureFromFile@CDXUTResourceCache@@QAEJPAUID3D11Device@@PAUID3D11DeviceContext@@PB_WPAPAUID3D11ShaderResourceView@@_N@Z$0
	DD	00H
	DD	FLAT:__unwindfunclet$?CreateTextureFromFile@CDXUTResourceCache@@QAEJPAUID3D11Device@@PAUID3D11DeviceContext@@PB_WPAPAUID3D11ShaderResourceView@@_N@Z$1
__ehfuncinfo$?DXUTGetGlobalResourceCache@@YGAAVCDXUTResourceCache@@XZ DD 019930522H
	DD	01H
	DD	FLAT:__unwindtable$?DXUTGetGlobalResourceCache@@YGAAVCDXUTResourceCache@@XZ
	DD	2 DUP(00H)
	DD	2 DUP(00H)
	DD	00H
	DD	01H
__ehfuncinfo$?CreateTextureFromFile@CDXUTResourceCache@@QAEJPAUID3D11Device@@PAUID3D11DeviceContext@@PB_WPAPAUID3D11ShaderResourceView@@_N@Z DD 019930522H
	DD	02H
	DD	FLAT:__unwindtable$?CreateTextureFromFile@CDXUTResourceCache@@QAEJPAUID3D11Device@@PAUID3D11DeviceContext@@PB_WPAPAUID3D11ShaderResourceView@@_N@Z
	DD	2 DUP(00H)
	DD	2 DUP(00H)
	DD	00H
	DD	01H
__ehfuncinfo$??1CDXUTResourceCache@@QAE@XZ DD 019930522H
	DD	01H
	DD	FLAT:__unwindtable$??1CDXUTResourceCache@@QAE@XZ
	DD	2 DUP(00H)
	DD	2 DUP(00H)
	DD	00H
	DD	01H
xdata$x	ENDS
;	COMDAT xdata$x
xdata$x	SEGMENT
__unwindtable$??$construct@U_Container_proxy@std@@U12@@?$allocator@U_Container_proxy@std@@@std@@QAEXPAU_Container_proxy@1@$$QAU21@@Z DD 0ffffffffH
	DD	FLAT:__unwindfunclet$??$construct@U_Container_proxy@std@@U12@@?$allocator@U_Container_proxy@std@@@std@@QAEXPAU_Container_proxy@1@$$QAU21@@Z$0
__ehfuncinfo$??$construct@U_Container_proxy@std@@U12@@?$allocator@U_Container_proxy@std@@@std@@QAEXPAU_Container_proxy@1@$$QAU21@@Z DD 019930522H
	DD	01H
	DD	FLAT:__unwindtable$??$construct@U_Container_proxy@std@@U12@@?$allocator@U_Container_proxy@std@@@std@@QAEXPAU_Container_proxy@1@$$QAU21@@Z
	DD	2 DUP(00H)
	DD	2 DUP(00H)
	DD	00H
	DD	01H
xdata$x	ENDS
;	COMDAT xdata$x
xdata$x	SEGMENT
__unwindtable$?_Adopt@_Iterator_base12@std@@QAEXPBU_Container_base12@2@@Z DD 0ffffffffH
	DD	FLAT:__unwindfunclet$?_Adopt@_Iterator_base12@std@@QAEXPBU_Container_base12@2@@Z$0
	DD	0ffffffffH
	DD	FLAT:__unwindfunclet$?_Adopt@_Iterator_base12@std@@QAEXPBU_Container_base12@2@@Z$1
__ehfuncinfo$?_Adopt@_Iterator_base12@std@@QAEXPBU_Container_base12@2@@Z DD 019930522H
	DD	02H
	DD	FLAT:__unwindtable$?_Adopt@_Iterator_base12@std@@QAEXPBU_Container_base12@2@@Z
	DD	2 DUP(00H)
	DD	2 DUP(00H)
	DD	00H
	DD	01H
xdata$x	ENDS
CRT$XCU	SEGMENT
__Tuple_alloc$initializer$ DD FLAT:??__E_Tuple_alloc@std@@YAXXZ
CRT$XCU	ENDS
; Function compile flags: /Odtp /RTCsu
;	COMDAT ??$construct@UDXUTCache_Texture@@U1@@?$allocator@UDXUTCache_Texture@@@std@@QAEXPAUDXUTCache_Texture@@$$QAU2@@Z
_TEXT	SEGMENT
tv74 = -28						; size = 4
$T2 = -24						; size = 4
$T3 = -20						; size = 4
_this$ = -16						; size = 4
__$EHRec$ = -12						; size = 12
__Ptr$ = 8						; size = 4
_<_Args_0>$ = 12					; size = 4
??$construct@UDXUTCache_Texture@@U1@@?$allocator@UDXUTCache_Texture@@@std@@QAEXPAUDXUTCache_Texture@@$$QAU2@@Z PROC ; std::allocator<DXUTCache_Texture>::construct<DXUTCache_Texture,DXUTCache_Texture>, COMDAT
; _this$ = ecx
; File c:\program files (x86)\microsoft visual studio 12.0\vc\include\xmemory0
; Line 598
  00000	55		 push	 ebp
  00001	8b ec		 mov	 ebp, esp
  00003	6a ff		 push	 -1
  00005	68 00 00 00 00	 push	 __ehhandler$??$construct@UDXUTCache_Texture@@U1@@?$allocator@UDXUTCache_Texture@@@std@@QAEXPAUDXUTCache_Texture@@$$QAU2@@Z
  0000a	64 a1 00 00 00
	00		 mov	 eax, DWORD PTR fs:0
  00010	50		 push	 eax
  00011	83 ec 10	 sub	 esp, 16			; 00000010H
  00014	56		 push	 esi
  00015	57		 push	 edi
  00016	b8 cc cc cc cc	 mov	 eax, -858993460		; ccccccccH
  0001b	89 45 e4	 mov	 DWORD PTR [ebp-28], eax
  0001e	89 45 e8	 mov	 DWORD PTR [ebp-24], eax
  00021	89 45 ec	 mov	 DWORD PTR [ebp-20], eax
  00024	89 45 f0	 mov	 DWORD PTR [ebp-16], eax
  00027	a1 00 00 00 00	 mov	 eax, DWORD PTR ___security_cookie
  0002c	33 c5		 xor	 eax, ebp
  0002e	50		 push	 eax
  0002f	8d 45 f4	 lea	 eax, DWORD PTR __$EHRec$[ebp]
  00032	64 a3 00 00 00
	00		 mov	 DWORD PTR fs:0, eax
  00038	89 4d f0	 mov	 DWORD PTR _this$[ebp], ecx
; Line 600
  0003b	8b 45 08	 mov	 eax, DWORD PTR __Ptr$[ebp]
  0003e	50		 push	 eax
  0003f	68 10 02 00 00	 push	 528			; 00000210H
  00044	e8 00 00 00 00	 call	 ??2@YAPAXIPAX@Z		; operator new
  00049	83 c4 08	 add	 esp, 8
  0004c	89 45 e8	 mov	 DWORD PTR $T2[ebp], eax
  0004f	c7 45 fc 00 00
	00 00		 mov	 DWORD PTR __$EHRec$[ebp+8], 0
  00056	83 7d e8 00	 cmp	 DWORD PTR $T2[ebp], 0
  0005a	74 20		 je	 SHORT $LN3@construct
  0005c	8b 4d 0c	 mov	 ecx, DWORD PTR _<_Args_0>$[ebp]
  0005f	51		 push	 ecx
  00060	e8 00 00 00 00	 call	 ??$forward@UDXUTCache_Texture@@@std@@YA$$QAUDXUTCache_Texture@@AAU1@@Z ; std::forward<DXUTCache_Texture>
  00065	83 c4 04	 add	 esp, 4
  00068	b9 84 00 00 00	 mov	 ecx, 132		; 00000084H
  0006d	8b f0		 mov	 esi, eax
  0006f	8b 7d e8	 mov	 edi, DWORD PTR $T2[ebp]
  00072	f3 a5		 rep movsd
  00074	8b 55 e8	 mov	 edx, DWORD PTR $T2[ebp]
  00077	89 55 e4	 mov	 DWORD PTR tv74[ebp], edx
  0007a	eb 07		 jmp	 SHORT $LN4@construct
$LN3@construct:
  0007c	c7 45 e4 00 00
	00 00		 mov	 DWORD PTR tv74[ebp], 0
$LN4@construct:
  00083	8b 45 e4	 mov	 eax, DWORD PTR tv74[ebp]
  00086	89 45 ec	 mov	 DWORD PTR $T3[ebp], eax
  00089	c7 45 fc ff ff
	ff ff		 mov	 DWORD PTR __$EHRec$[ebp+8], -1
; Line 601
  00090	8b 4d f4	 mov	 ecx, DWORD PTR __$EHRec$[ebp]
  00093	64 89 0d 00 00
	00 00		 mov	 DWORD PTR fs:0, ecx
  0009a	59		 pop	 ecx
  0009b	5f		 pop	 edi
  0009c	5e		 pop	 esi
  0009d	83 c4 1c	 add	 esp, 28			; 0000001cH
  000a0	3b ec		 cmp	 ebp, esp
  000a2	e8 00 00 00 00	 call	 __RTC_CheckEsp
  000a7	8b e5		 mov	 esp, ebp
  000a9	5d		 pop	 ebp
  000aa	c2 08 00	 ret	 8
_TEXT	ENDS
;	COMDAT text$x
text$x	SEGMENT
__unwindfunclet$??$construct@UDXUTCache_Texture@@U1@@?$allocator@UDXUTCache_Texture@@@std@@QAEXPAUDXUTCache_Texture@@$$QAU2@@Z$0:
  00000	8b 45 08	 mov	 eax, DWORD PTR __Ptr$[ebp]
  00003	50		 push	 eax
  00004	8b 45 e8	 mov	 eax, DWORD PTR $T2[ebp]
  00007	50		 push	 eax
  00008	e8 00 00 00 00	 call	 ??3@YAXPAX0@Z		; operator delete
  0000d	83 c4 08	 add	 esp, 8
  00010	c3		 ret	 0
__ehhandler$??$construct@UDXUTCache_Texture@@U1@@?$allocator@UDXUTCache_Texture@@@std@@QAEXPAUDXUTCache_Texture@@$$QAU2@@Z:
  00011	8b 54 24 08	 mov	 edx, DWORD PTR [esp+8]
  00015	8d 42 0c	 lea	 eax, DWORD PTR [edx+12]
  00018	8b 4a e4	 mov	 ecx, DWORD PTR [edx-28]
  0001b	33 c8		 xor	 ecx, eax
  0001d	e8 00 00 00 00	 call	 @__security_check_cookie@4
  00022	b8 00 00 00 00	 mov	 eax, OFFSET __ehfuncinfo$??$construct@UDXUTCache_Texture@@U1@@?$allocator@UDXUTCache_Texture@@@std@@QAEXPAUDXUTCache_Texture@@$$QAU2@@Z
  00027	e9 00 00 00 00	 jmp	 ___CxxFrameHandler3
text$x	ENDS
??$construct@UDXUTCache_Texture@@U1@@?$allocator@UDXUTCache_Texture@@@std@@QAEXPAUDXUTCache_Texture@@$$QAU2@@Z ENDP ; std::allocator<DXUTCache_Texture>::construct<DXUTCache_Texture,DXUTCache_Texture>
; Function compile flags: /Odtp /RTCsu
;	COMDAT ??$construct@UDXUTCache_Texture@@U1@@?$allocator_traits@V?$allocator@UDXUTCache_Texture@@@std@@@std@@SAXAAV?$allocator@UDXUTCache_Texture@@@1@PAUDXUTCache_Texture@@$$QAU3@@Z
_TEXT	SEGMENT
__Al$ = 8						; size = 4
__Ptr$ = 12						; size = 4
_<_Args_0>$ = 16					; size = 4
??$construct@UDXUTCache_Texture@@U1@@?$allocator_traits@V?$allocator@UDXUTCache_Texture@@@std@@@std@@SAXAAV?$allocator@UDXUTCache_Texture@@@1@PAUDXUTCache_Texture@@$$QAU3@@Z PROC ; std::allocator_traits<std::allocator<DXUTCache_Texture> >::construct<DXUTCache_Texture,DXUTCache_Texture>, COMDAT
; File c:\program files (x86)\microsoft visual studio 12.0\vc\include\xmemory0
; Line 720
  00000	55		 push	 ebp
  00001	8b ec		 mov	 ebp, esp
; Line 723
  00003	8b 45 10	 mov	 eax, DWORD PTR _<_Args_0>$[ebp]
  00006	50		 push	 eax
  00007	e8 00 00 00 00	 call	 ??$forward@UDXUTCache_Texture@@@std@@YA$$QAUDXUTCache_Texture@@AAU1@@Z ; std::forward<DXUTCache_Texture>
  0000c	83 c4 04	 add	 esp, 4
  0000f	50		 push	 eax
  00010	8b 4d 0c	 mov	 ecx, DWORD PTR __Ptr$[ebp]
  00013	51		 push	 ecx
  00014	8b 4d 08	 mov	 ecx, DWORD PTR __Al$[ebp]
  00017	e8 00 00 00 00	 call	 ??$construct@UDXUTCache_Texture@@U1@@?$allocator@UDXUTCache_Texture@@@std@@QAEXPAUDXUTCache_Texture@@$$QAU2@@Z ; std::allocator<DXUTCache_Texture>::construct<DXUTCache_Texture,DXUTCache_Texture>
; Line 724
  0001c	3b ec		 cmp	 ebp, esp
  0001e	e8 00 00 00 00	 call	 __RTC_CheckEsp
  00023	5d		 pop	 ebp
  00024	c3		 ret	 0
??$construct@UDXUTCache_Texture@@U1@@?$allocator_traits@V?$allocator@UDXUTCache_Texture@@@std@@@std@@SAXAAV?$allocator@UDXUTCache_Texture@@@1@PAUDXUTCache_Texture@@$$QAU3@@Z ENDP ; std::allocator_traits<std::allocator<DXUTCache_Texture> >::construct<DXUTCache_Texture,DXUTCache_Texture>
_TEXT	ENDS
; Function compile flags: /Odtp /RTCsu
;	COMDAT ??$forward@UDXUTCache_Texture@@@std@@YA$$QAUDXUTCache_Texture@@AAU1@@Z
_TEXT	SEGMENT
__Arg$ = 8						; size = 4
??$forward@UDXUTCache_Texture@@@std@@YA$$QAUDXUTCache_Texture@@AAU1@@Z PROC ; std::forward<DXUTCache_Texture>, COMDAT
; File c:\program files (x86)\microsoft visual studio 12.0\vc\include\type_traits
; Line 1504
  00000	55		 push	 ebp
  00001	8b ec		 mov	 ebp, esp
; Line 1505
  00003	8b 45 08	 mov	 eax, DWORD PTR __Arg$[ebp]
; Line 1506
  00006	5d		 pop	 ebp
  00007	c3		 ret	 0
??$forward@UDXUTCache_Texture@@@std@@YA$$QAUDXUTCache_Texture@@AAU1@@Z ENDP ; std::forward<DXUTCache_Texture>
_TEXT	ENDS
; Function compile flags: /Odtp /RTCsu
;	COMDAT ??$_Debug_range2@PAUDXUTCache_Texture@@@std@@YAXPAUDXUTCache_Texture@@0PB_WIUrandom_access_iterator_tag@0@@Z
_TEXT	SEGMENT
__First$ = 8						; size = 4
__Last$ = 12						; size = 4
__File$ = 16						; size = 4
__Line$ = 20						; size = 4
___formal$ = 24						; size = 1
??$_Debug_range2@PAUDXUTCache_Texture@@@std@@YAXPAUDXUTCache_Texture@@0PB_WIUrandom_access_iterator_tag@0@@Z PROC ; std::_Debug_range2<DXUTCache_Texture *>, COMDAT
; File c:\program files (x86)\microsoft visual studio 12.0\vc\include\xutility
; Line 570
  00000	55		 push	 ebp
  00001	8b ec		 mov	 ebp, esp
  00003	56		 push	 esi
; Line 571
  00004	8b 45 08	 mov	 eax, DWORD PTR __First$[ebp]
  00007	3b 45 0c	 cmp	 eax, DWORD PTR __Last$[ebp]
  0000a	74 4f		 je	 SHORT $LN3@Debug_rang
; Line 573
  0000c	8b 4d 14	 mov	 ecx, DWORD PTR __Line$[ebp]
  0000f	51		 push	 ecx
  00010	8b 55 10	 mov	 edx, DWORD PTR __File$[ebp]
  00013	52		 push	 edx
  00014	8b 45 08	 mov	 eax, DWORD PTR __First$[ebp]
  00017	50		 push	 eax
  00018	e8 00 00 00 00	 call	 ??$_Debug_pointer@UDXUTCache_Texture@@@std@@YAXPAUDXUTCache_Texture@@PB_WI@Z ; std::_Debug_pointer<DXUTCache_Texture>
  0001d	83 c4 0c	 add	 esp, 12			; 0000000cH
; Line 574
  00020	8b 4d 14	 mov	 ecx, DWORD PTR __Line$[ebp]
  00023	51		 push	 ecx
  00024	8b 55 10	 mov	 edx, DWORD PTR __File$[ebp]
  00027	52		 push	 edx
  00028	8b 45 0c	 mov	 eax, DWORD PTR __Last$[ebp]
  0002b	50		 push	 eax
  0002c	e8 00 00 00 00	 call	 ??$_Debug_pointer@UDXUTCache_Texture@@@std@@YAXPAUDXUTCache_Texture@@PB_WI@Z ; std::_Debug_pointer<DXUTCache_Texture>
  00031	83 c4 0c	 add	 esp, 12			; 0000000cH
; Line 575
  00034	8b 4d 0c	 mov	 ecx, DWORD PTR __Last$[ebp]
  00037	3b 4d 08	 cmp	 ecx, DWORD PTR __First$[ebp]
  0003a	73 1f		 jae	 SHORT $LN3@Debug_rang
; Line 576
  0003c	8b f4		 mov	 esi, esp
  0003e	8b 55 14	 mov	 edx, DWORD PTR __Line$[ebp]
  00041	52		 push	 edx
  00042	8b 45 10	 mov	 eax, DWORD PTR __File$[ebp]
  00045	50		 push	 eax
  00046	68 00 00 00 00	 push	 OFFSET ??_C@_1CO@DGLIKNHI@?$AAi?$AAn?$AAv?$AAa?$AAl?$AAi?$AAd?$AA?5?$AAi?$AAt?$AAe?$AAr?$AAa?$AAt?$AAo?$AAr?$AA?5?$AAr?$AAa?$AAn?$AAg?$AAe?$AA?$AA@
  0004b	ff 15 00 00 00
	00		 call	 DWORD PTR __imp_?_Debug_message@std@@YAXPB_W0I@Z
  00051	83 c4 0c	 add	 esp, 12			; 0000000cH
  00054	3b f4		 cmp	 esi, esp
  00056	e8 00 00 00 00	 call	 __RTC_CheckEsp
$LN3@Debug_rang:
; Line 578
  0005b	5e		 pop	 esi
  0005c	3b ec		 cmp	 ebp, esp
  0005e	e8 00 00 00 00	 call	 __RTC_CheckEsp
  00063	5d		 pop	 ebp
  00064	c3		 ret	 0
??$_Debug_range2@PAUDXUTCache_Texture@@@std@@YAXPAUDXUTCache_Texture@@0PB_WIUrandom_access_iterator_tag@0@@Z ENDP ; std::_Debug_range2<DXUTCache_Texture *>
_TEXT	ENDS
; Function compile flags: /Odtp /RTCsu
;	COMDAT ??$_Iter_cat@PAUDXUTCache_Texture@@@std@@YA?AUrandom_access_iterator_tag@0@ABQAUDXUTCache_Texture@@@Z
_TEXT	SEGMENT
__Cat$ = -5						; size = 1
___$ReturnUdt$ = 8					; size = 4
___formal$ = 12						; size = 4
??$_Iter_cat@PAUDXUTCache_Texture@@@std@@YA?AUrandom_access_iterator_tag@0@ABQAUDXUTCache_Texture@@@Z PROC ; std::_Iter_cat<DXUTCache_Texture *>, COMDAT
; File c:\program files (x86)\microsoft visual studio 12.0\vc\include\xutility
; Line 405
  00000	55		 push	 ebp
  00001	8b ec		 mov	 ebp, esp
  00003	83 ec 0c	 sub	 esp, 12			; 0000000cH
  00006	c7 45 f4 cc cc
	cc cc		 mov	 DWORD PTR [ebp-12], -858993460 ; ccccccccH
  0000d	c7 45 f8 cc cc
	cc cc		 mov	 DWORD PTR [ebp-8], -858993460 ; ccccccccH
  00014	c7 45 fc cc cc
	cc cc		 mov	 DWORD PTR [ebp-4], -858993460 ; ccccccccH
; Line 407
  0001b	8b 45 08	 mov	 eax, DWORD PTR ___$ReturnUdt$[ebp]
  0001e	8a 4d fb	 mov	 cl, BYTE PTR __Cat$[ebp]
  00021	88 08		 mov	 BYTE PTR [eax], cl
  00023	8b 45 08	 mov	 eax, DWORD PTR ___$ReturnUdt$[ebp]
; Line 408
  00026	52		 push	 edx
  00027	8b cd		 mov	 ecx, ebp
  00029	50		 push	 eax
  0002a	8d 15 00 00 00
	00		 lea	 edx, DWORD PTR $LN5@Iter_cat
  00030	e8 00 00 00 00	 call	 @_RTC_CheckStackVars@8
  00035	58		 pop	 eax
  00036	5a		 pop	 edx
  00037	8b e5		 mov	 esp, ebp
  00039	5d		 pop	 ebp
  0003a	c3		 ret	 0
  0003b	90		 npad	 1
$LN5@Iter_cat:
  0003c	01 00 00 00	 DD	 1
  00040	00 00 00 00	 DD	 $LN4@Iter_cat
$LN4@Iter_cat:
  00044	fb ff ff ff	 DD	 -5			; fffffffbH
  00048	01 00 00 00	 DD	 1
  0004c	00 00 00 00	 DD	 $LN3@Iter_cat
$LN3@Iter_cat:
  00050	5f		 DB	 95			; 0000005fH
  00051	43		 DB	 67			; 00000043H
  00052	61		 DB	 97			; 00000061H
  00053	74		 DB	 116			; 00000074H
  00054	00		 DB	 0
??$_Iter_cat@PAUDXUTCache_Texture@@@std@@YA?AUrandom_access_iterator_tag@0@ABQAUDXUTCache_Texture@@@Z ENDP ; std::_Iter_cat<DXUTCache_Texture *>
_TEXT	ENDS
; Function compile flags: /Odtp /RTCsu
;	COMDAT ??$construct@UDXUTCache_Texture@@U1@@?$_Wrap_alloc@V?$allocator@UDXUTCache_Texture@@@std@@@std@@QAEXPAUDXUTCache_Texture@@$$QAU2@@Z
_TEXT	SEGMENT
_this$ = -4						; size = 4
__Ptr$ = 8						; size = 4
_<_Args_0>$ = 12					; size = 4
??$construct@UDXUTCache_Texture@@U1@@?$_Wrap_alloc@V?$allocator@UDXUTCache_Texture@@@std@@@std@@QAEXPAUDXUTCache_Texture@@$$QAU2@@Z PROC ; std::_Wrap_alloc<std::allocator<DXUTCache_Texture> >::construct<DXUTCache_Texture,DXUTCache_Texture>, COMDAT
; _this$ = ecx
; File c:\program files (x86)\microsoft visual studio 12.0\vc\include\xmemory0
; Line 868
  00000	55		 push	 ebp
  00001	8b ec		 mov	 ebp, esp
  00003	51		 push	 ecx
  00004	c7 45 fc cc cc
	cc cc		 mov	 DWORD PTR [ebp-4], -858993460 ; ccccccccH
  0000b	89 4d fc	 mov	 DWORD PTR _this$[ebp], ecx
; Line 872
  0000e	8b 45 0c	 mov	 eax, DWORD PTR _<_Args_0>$[ebp]
  00011	50		 push	 eax
  00012	e8 00 00 00 00	 call	 ??$forward@UDXUTCache_Texture@@@std@@YA$$QAUDXUTCache_Texture@@AAU1@@Z ; std::forward<DXUTCache_Texture>
  00017	83 c4 04	 add	 esp, 4
  0001a	50		 push	 eax
  0001b	8b 4d 08	 mov	 ecx, DWORD PTR __Ptr$[ebp]
  0001e	51		 push	 ecx
  0001f	8b 55 fc	 mov	 edx, DWORD PTR _this$[ebp]
  00022	52		 push	 edx
  00023	e8 00 00 00 00	 call	 ??$construct@UDXUTCache_Texture@@U1@@?$allocator_traits@V?$allocator@UDXUTCache_Texture@@@std@@@std@@SAXAAV?$allocator@UDXUTCache_Texture@@@1@PAUDXUTCache_Texture@@$$QAU3@@Z ; std::allocator_traits<std::allocator<DXUTCache_Texture> >::construct<DXUTCache_Texture,DXUTCache_Texture>
  00028	83 c4 0c	 add	 esp, 12			; 0000000cH
; Line 873
  0002b	83 c4 04	 add	 esp, 4
  0002e	3b ec		 cmp	 ebp, esp
  00030	e8 00 00 00 00	 call	 __RTC_CheckEsp
  00035	8b e5		 mov	 esp, ebp
  00037	5d		 pop	 ebp
  00038	c2 08 00	 ret	 8
??$construct@UDXUTCache_Texture@@U1@@?$_Wrap_alloc@V?$allocator@UDXUTCache_Texture@@@std@@@std@@QAEXPAUDXUTCache_Texture@@$$QAU2@@Z ENDP ; std::_Wrap_alloc<std::allocator<DXUTCache_Texture> >::construct<DXUTCache_Texture,DXUTCache_Texture>
_TEXT	ENDS
; Function compile flags: /Odtp /RTCsu
;	COMDAT ??$_Debug_pointer@UDXUTCache_Texture@@@std@@YAXPAUDXUTCache_Texture@@PB_WI@Z
_TEXT	SEGMENT
__First$ = 8						; size = 4
__File$ = 12						; size = 4
__Line$ = 16						; size = 4
??$_Debug_pointer@UDXUTCache_Texture@@@std@@YAXPAUDXUTCache_Texture@@PB_WI@Z PROC ; std::_Debug_pointer<DXUTCache_Texture>, COMDAT
; File c:\program files (x86)\microsoft visual studio 12.0\vc\include\xutility
; Line 552
  00000	55		 push	 ebp
  00001	8b ec		 mov	 ebp, esp
  00003	56		 push	 esi
; Line 553
  00004	83 7d 08 00	 cmp	 DWORD PTR __First$[ebp], 0
  00008	75 1f		 jne	 SHORT $LN2@Debug_poin
; Line 554
  0000a	8b f4		 mov	 esi, esp
  0000c	8b 45 10	 mov	 eax, DWORD PTR __Line$[ebp]
  0000f	50		 push	 eax
  00010	8b 4d 0c	 mov	 ecx, DWORD PTR __File$[ebp]
  00013	51		 push	 ecx
  00014	68 00 00 00 00	 push	 OFFSET ??_C@_1CK@EOPGIILJ@?$AAi?$AAn?$AAv?$AAa?$AAl?$AAi?$AAd?$AA?5?$AAn?$AAu?$AAl?$AAl?$AA?5?$AAp?$AAo?$AAi?$AAn?$AAt?$AAe?$AAr?$AA?$AA@
  00019	ff 15 00 00 00
	00		 call	 DWORD PTR __imp_?_Debug_message@std@@YAXPB_W0I@Z
  0001f	83 c4 0c	 add	 esp, 12			; 0000000cH
  00022	3b f4		 cmp	 esi, esp
  00024	e8 00 00 00 00	 call	 __RTC_CheckEsp
$LN2@Debug_poin:
; Line 555
  00029	5e		 pop	 esi
  0002a	3b ec		 cmp	 ebp, esp
  0002c	e8 00 00 00 00	 call	 __RTC_CheckEsp
  00031	5d		 pop	 ebp
  00032	c3		 ret	 0
??$_Debug_pointer@UDXUTCache_Texture@@@std@@YAXPAUDXUTCache_Texture@@PB_WI@Z ENDP ; std::_Debug_pointer<DXUTCache_Texture>
_TEXT	ENDS
; Function compile flags: /Odtp /RTCsu
;	COMDAT ??$_Debug_range@PAUDXUTCache_Texture@@@std@@YAXPAUDXUTCache_Texture@@0PB_WI@Z
_TEXT	SEGMENT
$T1 = -1						; size = 1
__First$ = 8						; size = 4
__Last$ = 12						; size = 4
__File$ = 16						; size = 4
__Line$ = 20						; size = 4
??$_Debug_range@PAUDXUTCache_Texture@@@std@@YAXPAUDXUTCache_Texture@@0PB_WI@Z PROC ; std::_Debug_range<DXUTCache_Texture *>, COMDAT
; File c:\program files (x86)\microsoft visual studio 12.0\vc\include\xutility
; Line 583
  00000	55		 push	 ebp
  00001	8b ec		 mov	 ebp, esp
  00003	51		 push	 ecx
  00004	c7 45 fc cc cc
	cc cc		 mov	 DWORD PTR [ebp-4], -858993460 ; ccccccccH
; Line 584
  0000b	8d 45 08	 lea	 eax, DWORD PTR __First$[ebp]
  0000e	50		 push	 eax
  0000f	8d 4d ff	 lea	 ecx, DWORD PTR $T1[ebp]
  00012	51		 push	 ecx
  00013	e8 00 00 00 00	 call	 ??$_Iter_cat@PAUDXUTCache_Texture@@@std@@YA?AUrandom_access_iterator_tag@0@ABQAUDXUTCache_Texture@@@Z ; std::_Iter_cat<DXUTCache_Texture *>
  00018	83 c4 08	 add	 esp, 8
  0001b	8a 10		 mov	 dl, BYTE PTR [eax]
  0001d	0f b6 c2	 movzx	 eax, dl
  00020	50		 push	 eax
  00021	8b 4d 14	 mov	 ecx, DWORD PTR __Line$[ebp]
  00024	51		 push	 ecx
  00025	8b 55 10	 mov	 edx, DWORD PTR __File$[ebp]
  00028	52		 push	 edx
  00029	8b 45 0c	 mov	 eax, DWORD PTR __Last$[ebp]
  0002c	50		 push	 eax
  0002d	8b 4d 08	 mov	 ecx, DWORD PTR __First$[ebp]
  00030	51		 push	 ecx
  00031	e8 00 00 00 00	 call	 ??$_Debug_range2@PAUDXUTCache_Texture@@@std@@YAXPAUDXUTCache_Texture@@0PB_WIUrandom_access_iterator_tag@0@@Z ; std::_Debug_range2<DXUTCache_Texture *>
  00036	83 c4 14	 add	 esp, 20			; 00000014H
; Line 585
  00039	83 c4 04	 add	 esp, 4
  0003c	3b ec		 cmp	 ebp, esp
  0003e	e8 00 00 00 00	 call	 __RTC_CheckEsp
  00043	8b e5		 mov	 esp, ebp
  00045	5d		 pop	 ebp
  00046	c3		 ret	 0
??$_Debug_range@PAUDXUTCache_Texture@@@std@@YAXPAUDXUTCache_Texture@@0PB_WI@Z ENDP ; std::_Debug_range<DXUTCache_Texture *>
_TEXT	ENDS
; Function compile flags: /Odtp /RTCsu
;	COMDAT ??$destroy@UDXUTCache_Texture@@@?$allocator@UDXUTCache_Texture@@@std@@QAEXPAUDXUTCache_Texture@@@Z
_TEXT	SEGMENT
_this$ = -4						; size = 4
__Ptr$ = 8						; size = 4
??$destroy@UDXUTCache_Texture@@@?$allocator@UDXUTCache_Texture@@@std@@QAEXPAUDXUTCache_Texture@@@Z PROC ; std::allocator<DXUTCache_Texture>::destroy<DXUTCache_Texture>, COMDAT
; _this$ = ecx
; File c:\program files (x86)\microsoft visual studio 12.0\vc\include\xmemory0
; Line 605
  00000	55		 push	 ebp
  00001	8b ec		 mov	 ebp, esp
  00003	51		 push	 ecx
  00004	c7 45 fc cc cc
	cc cc		 mov	 DWORD PTR [ebp-4], -858993460 ; ccccccccH
  0000b	89 4d fc	 mov	 DWORD PTR _this$[ebp], ecx
; Line 608
  0000e	8b e5		 mov	 esp, ebp
  00010	5d		 pop	 ebp
  00011	c2 04 00	 ret	 4
??$destroy@UDXUTCache_Texture@@@?$allocator@UDXUTCache_Texture@@@std@@QAEXPAUDXUTCache_Texture@@@Z ENDP ; std::allocator<DXUTCache_Texture>::destroy<DXUTCache_Texture>
_TEXT	ENDS
; Function compile flags: /Odtp /RTCsu
;	COMDAT ??$_Uninit_move@PAUDXUTCache_Texture@@PAU1@V?$allocator@UDXUTCache_Texture@@@std@@U1@@std@@YAPAUDXUTCache_Texture@@PAU1@00AAU?$_Wrap_alloc@V?$allocator@UDXUTCache_Texture@@@std@@@0@0U_Nonscalar_ptr_iterator_tag@0@@Z
_TEXT	SEGMENT
__Next$ = -20						; size = 4
__$EHRec$ = -16						; size = 16
__First$ = 8						; size = 4
__Last$ = 12						; size = 4
__Dest$ = 16						; size = 4
__Al$ = 20						; size = 4
___formal$ = 24						; size = 4
___formal$ = 28						; size = 1
??$_Uninit_move@PAUDXUTCache_Texture@@PAU1@V?$allocator@UDXUTCache_Texture@@@std@@U1@@std@@YAPAUDXUTCache_Texture@@PAU1@00AAU?$_Wrap_alloc@V?$allocator@UDXUTCache_Texture@@@std@@@0@0U_Nonscalar_ptr_iterator_tag@0@@Z PROC ; std::_Uninit_move<DXUTCache_Texture *,DXUTCache_Texture *,std::allocator<DXUTCache_Texture>,DXUTCache_Texture>, COMDAT
; File c:\program files (x86)\microsoft visual studio 12.0\vc\include\xmemory
; Line 437
  00000	55		 push	 ebp
  00001	8b ec		 mov	 ebp, esp
  00003	6a ff		 push	 -1
  00005	68 00 00 00 00	 push	 __ehhandler$??$_Uninit_move@PAUDXUTCache_Texture@@PAU1@V?$allocator@UDXUTCache_Texture@@@std@@U1@@std@@YAPAUDXUTCache_Texture@@PAU1@00AAU?$_Wrap_alloc@V?$allocator@UDXUTCache_Texture@@@std@@@0@0U_Nonscalar_ptr_iterator_tag@0@@Z
  0000a	64 a1 00 00 00
	00		 mov	 eax, DWORD PTR fs:0
  00010	50		 push	 eax
  00011	51		 push	 ecx
  00012	51		 push	 ecx
  00013	53		 push	 ebx
  00014	56		 push	 esi
  00015	57		 push	 edi
  00016	c7 45 ec cc cc
	cc cc		 mov	 DWORD PTR [ebp-20], -858993460 ; ccccccccH
  0001d	a1 00 00 00 00	 mov	 eax, DWORD PTR ___security_cookie
  00022	33 c5		 xor	 eax, ebp
  00024	50		 push	 eax
  00025	8d 45 f4	 lea	 eax, DWORD PTR __$EHRec$[ebp+4]
  00028	64 a3 00 00 00
	00		 mov	 DWORD PTR fs:0, eax
  0002e	89 65 f0	 mov	 DWORD PTR __$EHRec$[ebp], esp
; Line 438
  00031	68 b6 01 00 00	 push	 438			; 000001b6H
  00036	68 00 00 00 00	 push	 OFFSET ??_C@_1IO@LKIDJAMC@?$AAC?$AA?3?$AA?2?$AAP?$AAr?$AAo?$AAg?$AAr?$AAa?$AAm?$AA?5?$AAF?$AAi?$AAl?$AAe?$AAs?$AA?5?$AA?$CI?$AAx?$AA8?$AA6?$AA?$CJ?$AA?2?$AAM?$AAi?$AAc?$AAr?$AAo?$AAs?$AAo?$AAf?$AAt@
  0003b	8b 45 0c	 mov	 eax, DWORD PTR __Last$[ebp]
  0003e	50		 push	 eax
  0003f	8b 4d 08	 mov	 ecx, DWORD PTR __First$[ebp]
  00042	51		 push	 ecx
  00043	e8 00 00 00 00	 call	 ??$_Debug_range@PAUDXUTCache_Texture@@@std@@YAXPAUDXUTCache_Texture@@0PB_WI@Z ; std::_Debug_range<DXUTCache_Texture *>
  00048	83 c4 10	 add	 esp, 16			; 00000010H
; Line 439
  0004b	68 b7 01 00 00	 push	 439			; 000001b7H
  00050	68 00 00 00 00	 push	 OFFSET ??_C@_1IO@LKIDJAMC@?$AAC?$AA?3?$AA?2?$AAP?$AAr?$AAo?$AAg?$AAr?$AAa?$AAm?$AA?5?$AAF?$AAi?$AAl?$AAe?$AAs?$AA?5?$AA?$CI?$AAx?$AA8?$AA6?$AA?$CJ?$AA?2?$AAM?$AAi?$AAc?$AAr?$AAo?$AAs?$AAo?$AAf?$AAt@
  00055	8b 55 10	 mov	 edx, DWORD PTR __Dest$[ebp]
  00058	52		 push	 edx
  00059	e8 00 00 00 00	 call	 ??$_Debug_pointer@UDXUTCache_Texture@@@std@@YAXPAUDXUTCache_Texture@@PB_WI@Z ; std::_Debug_pointer<DXUTCache_Texture>
  0005e	83 c4 0c	 add	 esp, 12			; 0000000cH
; Line 440
  00061	8b 45 10	 mov	 eax, DWORD PTR __Dest$[ebp]
  00064	89 45 ec	 mov	 DWORD PTR __Next$[ebp], eax
; Line 442
  00067	c7 45 fc 00 00
	00 00		 mov	 DWORD PTR __$EHRec$[ebp+12], 0
; Line 443
  0006e	eb 18		 jmp	 SHORT $LN6@Uninit_mov
$LN5@Uninit_mov:
  00070	8b 4d 10	 mov	 ecx, DWORD PTR __Dest$[ebp]
  00073	81 c1 10 02 00
	00		 add	 ecx, 528		; 00000210H
  00079	89 4d 10	 mov	 DWORD PTR __Dest$[ebp], ecx
  0007c	8b 55 08	 mov	 edx, DWORD PTR __First$[ebp]
  0007f	81 c2 10 02 00
	00		 add	 edx, 528		; 00000210H
  00085	89 55 08	 mov	 DWORD PTR __First$[ebp], edx
$LN6@Uninit_mov:
  00088	8b 45 08	 mov	 eax, DWORD PTR __First$[ebp]
  0008b	3b 45 0c	 cmp	 eax, DWORD PTR __Last$[ebp]
  0008e	74 12		 je	 SHORT $LN4@Uninit_mov
; Line 444
  00090	8b 4d 08	 mov	 ecx, DWORD PTR __First$[ebp]
  00093	51		 push	 ecx
  00094	8b 55 10	 mov	 edx, DWORD PTR __Dest$[ebp]
  00097	52		 push	 edx
  00098	8b 4d 14	 mov	 ecx, DWORD PTR __Al$[ebp]
  0009b	e8 00 00 00 00	 call	 ??$construct@UDXUTCache_Texture@@U1@@?$_Wrap_alloc@V?$allocator@UDXUTCache_Texture@@@std@@@std@@QAEXPAUDXUTCache_Texture@@$$QAU2@@Z ; std::_Wrap_alloc<std::allocator<DXUTCache_Texture> >::construct<DXUTCache_Texture,DXUTCache_Texture>
  000a0	eb ce		 jmp	 SHORT $LN5@Uninit_mov
$LN4@Uninit_mov:
  000a2	eb 32		 jmp	 SHORT $LN10@Uninit_mov
__catch$??$_Uninit_move@PAUDXUTCache_Texture@@PAU1@V?$allocator@UDXUTCache_Texture@@@std@@U1@@std@@YAPAUDXUTCache_Texture@@PAU1@00AAU?$_Wrap_alloc@V?$allocator@UDXUTCache_Texture@@@std@@@0@0U_Nonscalar_ptr_iterator_tag@0@@Z$0:
; Line 446
  000a4	eb 0b		 jmp	 SHORT $LN3@Uninit_mov
$LN2@Uninit_mov:
  000a6	8b 45 ec	 mov	 eax, DWORD PTR __Next$[ebp]
  000a9	05 10 02 00 00	 add	 eax, 528		; 00000210H
  000ae	89 45 ec	 mov	 DWORD PTR __Next$[ebp], eax
$LN3@Uninit_mov:
  000b1	8b 4d ec	 mov	 ecx, DWORD PTR __Next$[ebp]
  000b4	3b 4d 10	 cmp	 ecx, DWORD PTR __Dest$[ebp]
  000b7	74 0e		 je	 SHORT $LN1@Uninit_mov
; Line 447
  000b9	8b 55 ec	 mov	 edx, DWORD PTR __Next$[ebp]
  000bc	52		 push	 edx
  000bd	8b 4d 14	 mov	 ecx, DWORD PTR __Al$[ebp]
  000c0	e8 00 00 00 00	 call	 ??$destroy@UDXUTCache_Texture@@@?$_Wrap_alloc@V?$allocator@UDXUTCache_Texture@@@std@@@std@@QAEXPAUDXUTCache_Texture@@@Z ; std::_Wrap_alloc<std::allocator<DXUTCache_Texture> >::destroy<DXUTCache_Texture>
  000c5	eb df		 jmp	 SHORT $LN2@Uninit_mov
$LN1@Uninit_mov:
; Line 448
  000c7	6a 00		 push	 0
  000c9	6a 00		 push	 0
  000cb	e8 00 00 00 00	 call	 __CxxThrowException@8
; Line 449
  000d0	b8 00 00 00 00	 mov	 eax, $LN13@Uninit_mov
  000d5	c3		 ret	 0
$LN10@Uninit_mov:
  000d6	c7 45 fc ff ff
	ff ff		 mov	 DWORD PTR __$EHRec$[ebp+12], -1
  000dd	eb 07		 jmp	 SHORT __tryend$??$_Uninit_move@PAUDXUTCache_Texture@@PAU1@V?$allocator@UDXUTCache_Texture@@@std@@U1@@std@@YAPAUDXUTCache_Texture@@PAU1@00AAU?$_Wrap_alloc@V?$allocator@UDXUTCache_Texture@@@std@@@0@0U_Nonscalar_ptr_iterator_tag@0@@Z$1
$LN13@Uninit_mov:
  000df	c7 45 fc ff ff
	ff ff		 mov	 DWORD PTR __$EHRec$[ebp+12], -1
__tryend$??$_Uninit_move@PAUDXUTCache_Texture@@PAU1@V?$allocator@UDXUTCache_Texture@@@std@@U1@@std@@YAPAUDXUTCache_Texture@@PAU1@00AAU?$_Wrap_alloc@V?$allocator@UDXUTCache_Texture@@@std@@@0@0U_Nonscalar_ptr_iterator_tag@0@@Z$1:
; Line 450
  000e6	8b 45 10	 mov	 eax, DWORD PTR __Dest$[ebp]
$LN9@Uninit_mov:
; Line 451
  000e9	8b 4d f4	 mov	 ecx, DWORD PTR __$EHRec$[ebp+4]
  000ec	64 89 0d 00 00
	00 00		 mov	 DWORD PTR fs:0, ecx
  000f3	59		 pop	 ecx
  000f4	5f		 pop	 edi
  000f5	5e		 pop	 esi
  000f6	5b		 pop	 ebx
  000f7	83 c4 14	 add	 esp, 20			; 00000014H
  000fa	3b ec		 cmp	 ebp, esp
  000fc	e8 00 00 00 00	 call	 __RTC_CheckEsp
  00101	8b e5		 mov	 esp, ebp
  00103	5d		 pop	 ebp
  00104	c3		 ret	 0
_TEXT	ENDS
;	COMDAT text$x
text$x	SEGMENT
__ehhandler$??$_Uninit_move@PAUDXUTCache_Texture@@PAU1@V?$allocator@UDXUTCache_Texture@@@std@@U1@@std@@YAPAUDXUTCache_Texture@@PAU1@00AAU?$_Wrap_alloc@V?$allocator@UDXUTCache_Texture@@@std@@@0@0U_Nonscalar_ptr_iterator_tag@0@@Z:
  00000	8b 54 24 08	 mov	 edx, DWORD PTR [esp+8]
  00004	8d 42 0c	 lea	 eax, DWORD PTR [edx+12]
  00007	8b 4a e8	 mov	 ecx, DWORD PTR [edx-24]
  0000a	33 c8		 xor	 ecx, eax
  0000c	e8 00 00 00 00	 call	 @__security_check_cookie@4
  00011	b8 00 00 00 00	 mov	 eax, OFFSET __ehfuncinfo$??$_Uninit_move@PAUDXUTCache_Texture@@PAU1@V?$allocator@UDXUTCache_Texture@@@std@@U1@@std@@YAPAUDXUTCache_Texture@@PAU1@00AAU?$_Wrap_alloc@V?$allocator@UDXUTCache_Texture@@@std@@@0@0U_Nonscalar_ptr_iterator_tag@0@@Z
  00016	e9 00 00 00 00	 jmp	 ___CxxFrameHandler3
text$x	ENDS
??$_Uninit_move@PAUDXUTCache_Texture@@PAU1@V?$allocator@UDXUTCache_Texture@@@std@@U1@@std@@YAPAUDXUTCache_Texture@@PAU1@00AAU?$_Wrap_alloc@V?$allocator@UDXUTCache_Texture@@@std@@@0@0U_Nonscalar_ptr_iterator_tag@0@@Z ENDP ; std::_Uninit_move<DXUTCache_Texture *,DXUTCache_Texture *,std::allocator<DXUTCache_Texture>,DXUTCache_Texture>
; Function compile flags: /Odtp /RTCsu
;	COMDAT ??$_Val_type@PAUDXUTCache_Texture@@@std@@YAPAUDXUTCache_Texture@@PAU1@@Z
_TEXT	SEGMENT
___formal$ = 8						; size = 4
??$_Val_type@PAUDXUTCache_Texture@@@std@@YAPAUDXUTCache_Texture@@PAU1@@Z PROC ; std::_Val_type<DXUTCache_Texture *>, COMDAT
; File c:\program files (x86)\microsoft visual studio 12.0\vc\include\xutility
; Line 645
  00000	55		 push	 ebp
  00001	8b ec		 mov	 ebp, esp
; Line 646
  00003	33 c0		 xor	 eax, eax
; Line 647
  00005	5d		 pop	 ebp
  00006	c3		 ret	 0
??$_Val_type@PAUDXUTCache_Texture@@@std@@YAPAUDXUTCache_Texture@@PAU1@@Z ENDP ; std::_Val_type<DXUTCache_Texture *>
_TEXT	ENDS
; Function compile flags: /Odtp /RTCsu
;	COMDAT ??$destroy@UDXUTCache_Texture@@@?$allocator_traits@V?$allocator@UDXUTCache_Texture@@@std@@@std@@SAXAAV?$allocator@UDXUTCache_Texture@@@1@PAUDXUTCache_Texture@@@Z
_TEXT	SEGMENT
__Al$ = 8						; size = 4
__Ptr$ = 12						; size = 4
??$destroy@UDXUTCache_Texture@@@?$allocator_traits@V?$allocator@UDXUTCache_Texture@@@std@@@std@@SAXAAV?$allocator@UDXUTCache_Texture@@@1@PAUDXUTCache_Texture@@@Z PROC ; std::allocator_traits<std::allocator<DXUTCache_Texture> >::destroy<DXUTCache_Texture>, COMDAT
; File c:\program files (x86)\microsoft visual studio 12.0\vc\include\xmemory0
; Line 728
  00000	55		 push	 ebp
  00001	8b ec		 mov	 ebp, esp
; Line 730
  00003	8b 45 0c	 mov	 eax, DWORD PTR __Ptr$[ebp]
  00006	50		 push	 eax
  00007	8b 4d 08	 mov	 ecx, DWORD PTR __Al$[ebp]
  0000a	e8 00 00 00 00	 call	 ??$destroy@UDXUTCache_Texture@@@?$allocator@UDXUTCache_Texture@@@std@@QAEXPAUDXUTCache_Texture@@@Z ; std::allocator<DXUTCache_Texture>::destroy<DXUTCache_Texture>
; Line 731
  0000f	3b ec		 cmp	 ebp, esp
  00011	e8 00 00 00 00	 call	 __RTC_CheckEsp
  00016	5d		 pop	 ebp
  00017	c3		 ret	 0
??$destroy@UDXUTCache_Texture@@@?$allocator_traits@V?$allocator@UDXUTCache_Texture@@@std@@@std@@SAXAAV?$allocator@UDXUTCache_Texture@@@1@PAUDXUTCache_Texture@@@Z ENDP ; std::allocator_traits<std::allocator<DXUTCache_Texture> >::destroy<DXUTCache_Texture>
_TEXT	ENDS
; Function compile flags: /Odtp /RTCsu
;	COMDAT ??$_Rechecked@PAUDXUTCache_Texture@@PAU1@@std@@YAAAPAUDXUTCache_Texture@@AAPAU1@PAU1@@Z
_TEXT	SEGMENT
__Dest$ = 8						; size = 4
__Src$ = 12						; size = 4
??$_Rechecked@PAUDXUTCache_Texture@@PAU1@@std@@YAAAPAUDXUTCache_Texture@@AAPAU1@PAU1@@Z PROC ; std::_Rechecked<DXUTCache_Texture *,DXUTCache_Texture *>, COMDAT
; File c:\program files (x86)\microsoft visual studio 12.0\vc\include\xutility
; Line 288
  00000	55		 push	 ebp
  00001	8b ec		 mov	 ebp, esp
; Line 289
  00003	8b 45 08	 mov	 eax, DWORD PTR __Dest$[ebp]
  00006	8b 4d 0c	 mov	 ecx, DWORD PTR __Src$[ebp]
  00009	89 08		 mov	 DWORD PTR [eax], ecx
; Line 290
  0000b	8b 45 08	 mov	 eax, DWORD PTR __Dest$[ebp]
; Line 291
  0000e	5d		 pop	 ebp
  0000f	c3		 ret	 0
??$_Rechecked@PAUDXUTCache_Texture@@PAU1@@std@@YAAAPAUDXUTCache_Texture@@AAPAU1@PAU1@@Z ENDP ; std::_Rechecked<DXUTCache_Texture *,DXUTCache_Texture *>
_TEXT	ENDS
; Function compile flags: /Odtp /RTCsu
;	COMDAT ??$_Uninit_move@PAUDXUTCache_Texture@@PAU1@U?$_Wrap_alloc@V?$allocator@UDXUTCache_Texture@@@std@@@std@@@std@@YAPAUDXUTCache_Texture@@PAU1@00AAU?$_Wrap_alloc@V?$allocator@UDXUTCache_Texture@@@std@@@0@@Z
_TEXT	SEGMENT
$T1 = -1						; size = 1
__First$ = 8						; size = 4
__Last$ = 12						; size = 4
__Dest$ = 16						; size = 4
__Al$ = 20						; size = 4
??$_Uninit_move@PAUDXUTCache_Texture@@PAU1@U?$_Wrap_alloc@V?$allocator@UDXUTCache_Texture@@@std@@@std@@@std@@YAPAUDXUTCache_Texture@@PAU1@00AAU?$_Wrap_alloc@V?$allocator@UDXUTCache_Texture@@@std@@@0@@Z PROC ; std::_Uninit_move<DXUTCache_Texture *,DXUTCache_Texture *,std::_Wrap_alloc<std::allocator<DXUTCache_Texture> > >, COMDAT
; File c:\program files (x86)\microsoft visual studio 12.0\vc\include\xmemory
; Line 482
  00000	55		 push	 ebp
  00001	8b ec		 mov	 ebp, esp
  00003	51		 push	 ecx
  00004	c7 45 fc cc cc
	cc cc		 mov	 DWORD PTR [ebp-4], -858993460 ; ccccccccH
; Line 484
  0000b	8b 45 10	 mov	 eax, DWORD PTR __Dest$[ebp]
  0000e	50		 push	 eax
  0000f	8b 4d 08	 mov	 ecx, DWORD PTR __First$[ebp]
  00012	51		 push	 ecx
  00013	e8 00 00 00 00	 call	 ??$_Ptr_cat@UDXUTCache_Texture@@U1@@std@@YA?AU_Nonscalar_ptr_iterator_tag@0@PAUDXUTCache_Texture@@0@Z ; std::_Ptr_cat<DXUTCache_Texture,DXUTCache_Texture>
  00018	83 c4 08	 add	 esp, 8
  0001b	88 45 ff	 mov	 BYTE PTR $T1[ebp], al
  0001e	0f b6 55 ff	 movzx	 edx, BYTE PTR $T1[ebp]
  00022	52		 push	 edx
  00023	8b 45 08	 mov	 eax, DWORD PTR __First$[ebp]
  00026	50		 push	 eax
  00027	e8 00 00 00 00	 call	 ??$_Val_type@PAUDXUTCache_Texture@@@std@@YAPAUDXUTCache_Texture@@PAU1@@Z ; std::_Val_type<DXUTCache_Texture *>
  0002c	83 c4 04	 add	 esp, 4
  0002f	50		 push	 eax
  00030	8b 4d 14	 mov	 ecx, DWORD PTR __Al$[ebp]
  00033	51		 push	 ecx
  00034	8b 55 10	 mov	 edx, DWORD PTR __Dest$[ebp]
  00037	52		 push	 edx
  00038	8b 45 0c	 mov	 eax, DWORD PTR __Last$[ebp]
  0003b	50		 push	 eax
  0003c	8b 4d 08	 mov	 ecx, DWORD PTR __First$[ebp]
  0003f	51		 push	 ecx
  00040	e8 00 00 00 00	 call	 ??$_Uninit_move@PAUDXUTCache_Texture@@PAU1@V?$allocator@UDXUTCache_Texture@@@std@@U1@@std@@YAPAUDXUTCache_Texture@@PAU1@00AAU?$_Wrap_alloc@V?$allocator@UDXUTCache_Texture@@@std@@@0@0U_Nonscalar_ptr_iterator_tag@0@@Z ; std::_Uninit_move<DXUTCache_Texture *,DXUTCache_Texture *,std::allocator<DXUTCache_Texture>,DXUTCache_Texture>
  00045	83 c4 18	 add	 esp, 24			; 00000018H
; Line 485
  00048	83 c4 04	 add	 esp, 4
  0004b	3b ec		 cmp	 ebp, esp
  0004d	e8 00 00 00 00	 call	 __RTC_CheckEsp
  00052	8b e5		 mov	 esp, ebp
  00054	5d		 pop	 ebp
  00055	c3		 ret	 0
??$_Uninit_move@PAUDXUTCache_Texture@@PAU1@U?$_Wrap_alloc@V?$allocator@UDXUTCache_Texture@@@std@@@std@@@std@@YAPAUDXUTCache_Texture@@PAU1@00AAU?$_Wrap_alloc@V?$allocator@UDXUTCache_Texture@@@std@@@0@@Z ENDP ; std::_Uninit_move<DXUTCache_Texture *,DXUTCache_Texture *,std::_Wrap_alloc<std::allocator<DXUTCache_Texture> > >
_TEXT	ENDS
; Function compile flags: /Odtp /RTCsu
;	COMDAT ??$_Unchecked@PAUDXUTCache_Texture@@@std@@YAPAUDXUTCache_Texture@@PAU1@@Z
_TEXT	SEGMENT
__Src$ = 8						; size = 4
??$_Unchecked@PAUDXUTCache_Texture@@@std@@YAPAUDXUTCache_Texture@@PAU1@@Z PROC ; std::_Unchecked<DXUTCache_Texture *>, COMDAT
; File c:\program files (x86)\microsoft visual studio 12.0\vc\include\xutility
; Line 280
  00000	55		 push	 ebp
  00001	8b ec		 mov	 ebp, esp
; Line 281
  00003	8b 45 08	 mov	 eax, DWORD PTR __Src$[ebp]
; Line 282
  00006	5d		 pop	 ebp
  00007	c3		 ret	 0
??$_Unchecked@PAUDXUTCache_Texture@@@std@@YAPAUDXUTCache_Texture@@PAU1@@Z ENDP ; std::_Unchecked<DXUTCache_Texture *>
_TEXT	ENDS
; Function compile flags: /Odtp /RTCsu
;	COMDAT ??$destroy@UDXUTCache_Texture@@@?$_Wrap_alloc@V?$allocator@UDXUTCache_Texture@@@std@@@std@@QAEXPAUDXUTCache_Texture@@@Z
_TEXT	SEGMENT
_this$ = -4						; size = 4
__Ptr$ = 8						; size = 4
??$destroy@UDXUTCache_Texture@@@?$_Wrap_alloc@V?$allocator@UDXUTCache_Texture@@@std@@@std@@QAEXPAUDXUTCache_Texture@@@Z PROC ; std::_Wrap_alloc<std::allocator<DXUTCache_Texture> >::destroy<DXUTCache_Texture>, COMDAT
; _this$ = ecx
; File c:\program files (x86)\microsoft visual studio 12.0\vc\include\xmemory0
; Line 877
  00000	55		 push	 ebp
  00001	8b ec		 mov	 ebp, esp
  00003	51		 push	 ecx
  00004	c7 45 fc cc cc
	cc cc		 mov	 DWORD PTR [ebp-4], -858993460 ; ccccccccH
  0000b	89 4d fc	 mov	 DWORD PTR _this$[ebp], ecx
; Line 879
  0000e	8b 45 08	 mov	 eax, DWORD PTR __Ptr$[ebp]
  00011	50		 push	 eax
  00012	8b 4d fc	 mov	 ecx, DWORD PTR _this$[ebp]
  00015	51		 push	 ecx
  00016	e8 00 00 00 00	 call	 ??$destroy@UDXUTCache_Texture@@@?$allocator_traits@V?$allocator@UDXUTCache_Texture@@@std@@@std@@SAXAAV?$allocator@UDXUTCache_Texture@@@1@PAUDXUTCache_Texture@@@Z ; std::allocator_traits<std::allocator<DXUTCache_Texture> >::destroy<DXUTCache_Texture>
  0001b	83 c4 08	 add	 esp, 8
; Line 880
  0001e	83 c4 04	 add	 esp, 4
  00021	3b ec		 cmp	 ebp, esp
  00023	e8 00 00 00 00	 call	 __RTC_CheckEsp
  00028	8b e5		 mov	 esp, ebp
  0002a	5d		 pop	 ebp
  0002b	c2 04 00	 ret	 4
??$destroy@UDXUTCache_Texture@@@?$_Wrap_alloc@V?$allocator@UDXUTCache_Texture@@@std@@@std@@QAEXPAUDXUTCache_Texture@@@Z ENDP ; std::_Wrap_alloc<std::allocator<DXUTCache_Texture> >::destroy<DXUTCache_Texture>
_TEXT	ENDS
; Function compile flags: /Odtp /RTCsu
;	COMDAT ??$construct@UDXUTCache_Texture@@AAU1@@?$allocator@UDXUTCache_Texture@@@std@@QAEXPAUDXUTCache_Texture@@AAU2@@Z
_TEXT	SEGMENT
tv74 = -28						; size = 4
$T2 = -24						; size = 4
$T3 = -20						; size = 4
_this$ = -16						; size = 4
__$EHRec$ = -12						; size = 12
__Ptr$ = 8						; size = 4
_<_Args_0>$ = 12					; size = 4
??$construct@UDXUTCache_Texture@@AAU1@@?$allocator@UDXUTCache_Texture@@@std@@QAEXPAUDXUTCache_Texture@@AAU2@@Z PROC ; std::allocator<DXUTCache_Texture>::construct<DXUTCache_Texture,DXUTCache_Texture &>, COMDAT
; _this$ = ecx
; File c:\program files (x86)\microsoft visual studio 12.0\vc\include\xmemory0
; Line 598
  00000	55		 push	 ebp
  00001	8b ec		 mov	 ebp, esp
  00003	6a ff		 push	 -1
  00005	68 00 00 00 00	 push	 __ehhandler$??$construct@UDXUTCache_Texture@@AAU1@@?$allocator@UDXUTCache_Texture@@@std@@QAEXPAUDXUTCache_Texture@@AAU2@@Z
  0000a	64 a1 00 00 00
	00		 mov	 eax, DWORD PTR fs:0
  00010	50		 push	 eax
  00011	83 ec 10	 sub	 esp, 16			; 00000010H
  00014	56		 push	 esi
  00015	57		 push	 edi
  00016	b8 cc cc cc cc	 mov	 eax, -858993460		; ccccccccH
  0001b	89 45 e4	 mov	 DWORD PTR [ebp-28], eax
  0001e	89 45 e8	 mov	 DWORD PTR [ebp-24], eax
  00021	89 45 ec	 mov	 DWORD PTR [ebp-20], eax
  00024	89 45 f0	 mov	 DWORD PTR [ebp-16], eax
  00027	a1 00 00 00 00	 mov	 eax, DWORD PTR ___security_cookie
  0002c	33 c5		 xor	 eax, ebp
  0002e	50		 push	 eax
  0002f	8d 45 f4	 lea	 eax, DWORD PTR __$EHRec$[ebp]
  00032	64 a3 00 00 00
	00		 mov	 DWORD PTR fs:0, eax
  00038	89 4d f0	 mov	 DWORD PTR _this$[ebp], ecx
; Line 600
  0003b	8b 45 08	 mov	 eax, DWORD PTR __Ptr$[ebp]
  0003e	50		 push	 eax
  0003f	68 10 02 00 00	 push	 528			; 00000210H
  00044	e8 00 00 00 00	 call	 ??2@YAPAXIPAX@Z		; operator new
  00049	83 c4 08	 add	 esp, 8
  0004c	89 45 e8	 mov	 DWORD PTR $T2[ebp], eax
  0004f	c7 45 fc 00 00
	00 00		 mov	 DWORD PTR __$EHRec$[ebp+8], 0
  00056	83 7d e8 00	 cmp	 DWORD PTR $T2[ebp], 0
  0005a	74 20		 je	 SHORT $LN3@construct
  0005c	8b 4d 0c	 mov	 ecx, DWORD PTR _<_Args_0>$[ebp]
  0005f	51		 push	 ecx
  00060	e8 00 00 00 00	 call	 ??$forward@AAUDXUTCache_Texture@@@std@@YAAAUDXUTCache_Texture@@AAU1@@Z ; std::forward<DXUTCache_Texture &>
  00065	83 c4 04	 add	 esp, 4
  00068	b9 84 00 00 00	 mov	 ecx, 132		; 00000084H
  0006d	8b f0		 mov	 esi, eax
  0006f	8b 7d e8	 mov	 edi, DWORD PTR $T2[ebp]
  00072	f3 a5		 rep movsd
  00074	8b 55 e8	 mov	 edx, DWORD PTR $T2[ebp]
  00077	89 55 e4	 mov	 DWORD PTR tv74[ebp], edx
  0007a	eb 07		 jmp	 SHORT $LN4@construct
$LN3@construct:
  0007c	c7 45 e4 00 00
	00 00		 mov	 DWORD PTR tv74[ebp], 0
$LN4@construct:
  00083	8b 45 e4	 mov	 eax, DWORD PTR tv74[ebp]
  00086	89 45 ec	 mov	 DWORD PTR $T3[ebp], eax
  00089	c7 45 fc ff ff
	ff ff		 mov	 DWORD PTR __$EHRec$[ebp+8], -1
; Line 601
  00090	8b 4d f4	 mov	 ecx, DWORD PTR __$EHRec$[ebp]
  00093	64 89 0d 00 00
	00 00		 mov	 DWORD PTR fs:0, ecx
  0009a	59		 pop	 ecx
  0009b	5f		 pop	 edi
  0009c	5e		 pop	 esi
  0009d	83 c4 1c	 add	 esp, 28			; 0000001cH
  000a0	3b ec		 cmp	 ebp, esp
  000a2	e8 00 00 00 00	 call	 __RTC_CheckEsp
  000a7	8b e5		 mov	 esp, ebp
  000a9	5d		 pop	 ebp
  000aa	c2 08 00	 ret	 8
_TEXT	ENDS
;	COMDAT text$x
text$x	SEGMENT
__unwindfunclet$??$construct@UDXUTCache_Texture@@AAU1@@?$allocator@UDXUTCache_Texture@@@std@@QAEXPAUDXUTCache_Texture@@AAU2@@Z$0:
  00000	8b 45 08	 mov	 eax, DWORD PTR __Ptr$[ebp]
  00003	50		 push	 eax
  00004	8b 45 e8	 mov	 eax, DWORD PTR $T2[ebp]
  00007	50		 push	 eax
  00008	e8 00 00 00 00	 call	 ??3@YAXPAX0@Z		; operator delete
  0000d	83 c4 08	 add	 esp, 8
  00010	c3		 ret	 0
__ehhandler$??$construct@UDXUTCache_Texture@@AAU1@@?$allocator@UDXUTCache_Texture@@@std@@QAEXPAUDXUTCache_Texture@@AAU2@@Z:
  00011	8b 54 24 08	 mov	 edx, DWORD PTR [esp+8]
  00015	8d 42 0c	 lea	 eax, DWORD PTR [edx+12]
  00018	8b 4a e4	 mov	 ecx, DWORD PTR [edx-28]
  0001b	33 c8		 xor	 ecx, eax
  0001d	e8 00 00 00 00	 call	 @__security_check_cookie@4
  00022	b8 00 00 00 00	 mov	 eax, OFFSET __ehfuncinfo$??$construct@UDXUTCache_Texture@@AAU1@@?$allocator@UDXUTCache_Texture@@@std@@QAEXPAUDXUTCache_Texture@@AAU2@@Z
  00027	e9 00 00 00 00	 jmp	 ___CxxFrameHandler3
text$x	ENDS
??$construct@UDXUTCache_Texture@@AAU1@@?$allocator@UDXUTCache_Texture@@@std@@QAEXPAUDXUTCache_Texture@@AAU2@@Z ENDP ; std::allocator<DXUTCache_Texture>::construct<DXUTCache_Texture,DXUTCache_Texture &>
; Function compile flags: /Odtp /RTCsu
;	COMDAT ??$_Uninitialized_move@PAUDXUTCache_Texture@@PAU1@U?$_Wrap_alloc@V?$allocator@UDXUTCache_Texture@@@std@@@std@@@std@@YAPAUDXUTCache_Texture@@PAU1@00AAU?$_Wrap_alloc@V?$allocator@UDXUTCache_Texture@@@std@@@0@@Z
_TEXT	SEGMENT
__First$ = 8						; size = 4
__Last$ = 12						; size = 4
__Dest$ = 16						; size = 4
__Al$ = 20						; size = 4
??$_Uninitialized_move@PAUDXUTCache_Texture@@PAU1@U?$_Wrap_alloc@V?$allocator@UDXUTCache_Texture@@@std@@@std@@@std@@YAPAUDXUTCache_Texture@@PAU1@00AAU?$_Wrap_alloc@V?$allocator@UDXUTCache_Texture@@@std@@@0@@Z PROC ; std::_Uninitialized_move<DXUTCache_Texture *,DXUTCache_Texture *,std::_Wrap_alloc<std::allocator<DXUTCache_Texture> > >, COMDAT
; File c:\program files (x86)\microsoft visual studio 12.0\vc\include\xmemory
; Line 492
  00000	55		 push	 ebp
  00001	8b ec		 mov	 ebp, esp
; Line 495
  00003	8b 45 14	 mov	 eax, DWORD PTR __Al$[ebp]
  00006	50		 push	 eax
  00007	8b 4d 10	 mov	 ecx, DWORD PTR __Dest$[ebp]
  0000a	51		 push	 ecx
  0000b	e8 00 00 00 00	 call	 ??$_Unchecked@PAUDXUTCache_Texture@@@std@@YAPAUDXUTCache_Texture@@PAU1@@Z ; std::_Unchecked<DXUTCache_Texture *>
  00010	83 c4 04	 add	 esp, 4
  00013	50		 push	 eax
  00014	8b 55 0c	 mov	 edx, DWORD PTR __Last$[ebp]
  00017	52		 push	 edx
  00018	e8 00 00 00 00	 call	 ??$_Unchecked@PAUDXUTCache_Texture@@@std@@YAPAUDXUTCache_Texture@@PAU1@@Z ; std::_Unchecked<DXUTCache_Texture *>
  0001d	83 c4 04	 add	 esp, 4
  00020	50		 push	 eax
  00021	8b 45 08	 mov	 eax, DWORD PTR __First$[ebp]
  00024	50		 push	 eax
  00025	e8 00 00 00 00	 call	 ??$_Unchecked@PAUDXUTCache_Texture@@@std@@YAPAUDXUTCache_Texture@@PAU1@@Z ; std::_Unchecked<DXUTCache_Texture *>
  0002a	83 c4 04	 add	 esp, 4
  0002d	50		 push	 eax
  0002e	e8 00 00 00 00	 call	 ??$_Uninit_move@PAUDXUTCache_Texture@@PAU1@U?$_Wrap_alloc@V?$allocator@UDXUTCache_Texture@@@std@@@std@@@std@@YAPAUDXUTCache_Texture@@PAU1@00AAU?$_Wrap_alloc@V?$allocator@UDXUTCache_Texture@@@std@@@0@@Z ; std::_Uninit_move<DXUTCache_Texture *,DXUTCache_Texture *,std::_Wrap_alloc<std::allocator<DXUTCache_Texture> > >
  00033	83 c4 10	 add	 esp, 16			; 00000010H
  00036	50		 push	 eax
  00037	8d 4d 10	 lea	 ecx, DWORD PTR __Dest$[ebp]
  0003a	51		 push	 ecx
  0003b	e8 00 00 00 00	 call	 ??$_Rechecked@PAUDXUTCache_Texture@@PAU1@@std@@YAAAPAUDXUTCache_Texture@@AAPAU1@PAU1@@Z ; std::_Rechecked<DXUTCache_Texture *,DXUTCache_Texture *>
  00040	83 c4 08	 add	 esp, 8
  00043	8b 00		 mov	 eax, DWORD PTR [eax]
; Line 496
  00045	3b ec		 cmp	 ebp, esp
  00047	e8 00 00 00 00	 call	 __RTC_CheckEsp
  0004c	5d		 pop	 ebp
  0004d	c3		 ret	 0
??$_Uninitialized_move@PAUDXUTCache_Texture@@PAU1@U?$_Wrap_alloc@V?$allocator@UDXUTCache_Texture@@@std@@@std@@@std@@YAPAUDXUTCache_Texture@@PAU1@00AAU?$_Wrap_alloc@V?$allocator@UDXUTCache_Texture@@@std@@@0@@Z ENDP ; std::_Uninitialized_move<DXUTCache_Texture *,DXUTCache_Texture *,std::_Wrap_alloc<std::allocator<DXUTCache_Texture> > >
_TEXT	ENDS
; Function compile flags: /Odtp /RTCsu
;	COMDAT ??$_Destroy_range@U?$_Wrap_alloc@V?$allocator@UDXUTCache_Texture@@@std@@@std@@@std@@YAXPAUDXUTCache_Texture@@0AAU?$_Wrap_alloc@V?$allocator@UDXUTCache_Texture@@@std@@@0@U_Nonscalar_ptr_iterator_tag@0@@Z
_TEXT	SEGMENT
__First$ = 8						; size = 4
__Last$ = 12						; size = 4
__Al$ = 16						; size = 4
___formal$ = 20						; size = 1
??$_Destroy_range@U?$_Wrap_alloc@V?$allocator@UDXUTCache_Texture@@@std@@@std@@@std@@YAXPAUDXUTCache_Texture@@0AAU?$_Wrap_alloc@V?$allocator@UDXUTCache_Texture@@@std@@@0@U_Nonscalar_ptr_iterator_tag@0@@Z PROC ; std::_Destroy_range<std::_Wrap_alloc<std::allocator<DXUTCache_Texture> > >, COMDAT
; File c:\program files (x86)\microsoft visual studio 12.0\vc\include\xmemory0
; Line 80
  00000	55		 push	 ebp
  00001	8b ec		 mov	 ebp, esp
; Line 81
  00003	eb 0b		 jmp	 SHORT $LN3@Destroy_ra
$LN2@Destroy_ra:
  00005	8b 45 08	 mov	 eax, DWORD PTR __First$[ebp]
  00008	05 10 02 00 00	 add	 eax, 528		; 00000210H
  0000d	89 45 08	 mov	 DWORD PTR __First$[ebp], eax
$LN3@Destroy_ra:
  00010	8b 4d 08	 mov	 ecx, DWORD PTR __First$[ebp]
  00013	3b 4d 0c	 cmp	 ecx, DWORD PTR __Last$[ebp]
  00016	74 0e		 je	 SHORT $LN4@Destroy_ra
; Line 82
  00018	8b 55 08	 mov	 edx, DWORD PTR __First$[ebp]
  0001b	52		 push	 edx
  0001c	8b 4d 10	 mov	 ecx, DWORD PTR __Al$[ebp]
  0001f	e8 00 00 00 00	 call	 ??$destroy@UDXUTCache_Texture@@@?$_Wrap_alloc@V?$allocator@UDXUTCache_Texture@@@std@@@std@@QAEXPAUDXUTCache_Texture@@@Z ; std::_Wrap_alloc<std::allocator<DXUTCache_Texture> >::destroy<DXUTCache_Texture>
  00024	eb df		 jmp	 SHORT $LN2@Destroy_ra
$LN4@Destroy_ra:
; Line 83
  00026	3b ec		 cmp	 ebp, esp
  00028	e8 00 00 00 00	 call	 __RTC_CheckEsp
  0002d	5d		 pop	 ebp
  0002e	c3		 ret	 0
??$_Destroy_range@U?$_Wrap_alloc@V?$allocator@UDXUTCache_Texture@@@std@@@std@@@std@@YAXPAUDXUTCache_Texture@@0AAU?$_Wrap_alloc@V?$allocator@UDXUTCache_Texture@@@std@@@0@U_Nonscalar_ptr_iterator_tag@0@@Z ENDP ; std::_Destroy_range<std::_Wrap_alloc<std::allocator<DXUTCache_Texture> > >
_TEXT	ENDS
; Function compile flags: /Odtp /RTCsu
;	COMDAT ??$_Ptr_cat@UDXUTCache_Texture@@U1@@std@@YA?AU_Nonscalar_ptr_iterator_tag@0@PAUDXUTCache_Texture@@0@Z
_TEXT	SEGMENT
__Cat$ = -5						; size = 1
___formal$ = 8						; size = 4
___formal$ = 12						; size = 4
??$_Ptr_cat@UDXUTCache_Texture@@U1@@std@@YA?AU_Nonscalar_ptr_iterator_tag@0@PAUDXUTCache_Texture@@0@Z PROC ; std::_Ptr_cat<DXUTCache_Texture,DXUTCache_Texture>, COMDAT
; File c:\program files (x86)\microsoft visual studio 12.0\vc\include\xutility
; Line 444
  00000	55		 push	 ebp
  00001	8b ec		 mov	 ebp, esp
  00003	83 ec 0c	 sub	 esp, 12			; 0000000cH
  00006	c7 45 f4 cc cc
	cc cc		 mov	 DWORD PTR [ebp-12], -858993460 ; ccccccccH
  0000d	c7 45 f8 cc cc
	cc cc		 mov	 DWORD PTR [ebp-8], -858993460 ; ccccccccH
  00014	c7 45 fc cc cc
	cc cc		 mov	 DWORD PTR [ebp-4], -858993460 ; ccccccccH
; Line 446
  0001b	8a 45 fb	 mov	 al, BYTE PTR __Cat$[ebp]
; Line 447
  0001e	52		 push	 edx
  0001f	8b cd		 mov	 ecx, ebp
  00021	50		 push	 eax
  00022	8d 15 00 00 00
	00		 lea	 edx, DWORD PTR $LN5@Ptr_cat
  00028	e8 00 00 00 00	 call	 @_RTC_CheckStackVars@8
  0002d	58		 pop	 eax
  0002e	5a		 pop	 edx
  0002f	8b e5		 mov	 esp, ebp
  00031	5d		 pop	 ebp
  00032	c3		 ret	 0
  00033	90		 npad	 1
$LN5@Ptr_cat:
  00034	01 00 00 00	 DD	 1
  00038	00 00 00 00	 DD	 $LN4@Ptr_cat
$LN4@Ptr_cat:
  0003c	fb ff ff ff	 DD	 -5			; fffffffbH
  00040	01 00 00 00	 DD	 1
  00044	00 00 00 00	 DD	 $LN3@Ptr_cat
$LN3@Ptr_cat:
  00048	5f		 DB	 95			; 0000005fH
  00049	43		 DB	 67			; 00000043H
  0004a	61		 DB	 97			; 00000061H
  0004b	74		 DB	 116			; 00000074H
  0004c	00		 DB	 0
??$_Ptr_cat@UDXUTCache_Texture@@U1@@std@@YA?AU_Nonscalar_ptr_iterator_tag@0@PAUDXUTCache_Texture@@0@Z ENDP ; std::_Ptr_cat<DXUTCache_Texture,DXUTCache_Texture>
_TEXT	ENDS
; Function compile flags: /Odtp /RTCsu
;	COMDAT ??$construct@UDXUTCache_Texture@@ABU1@@?$allocator_traits@V?$allocator@UDXUTCache_Texture@@@std@@@std@@SAXAAV?$allocator@UDXUTCache_Texture@@@1@PAUDXUTCache_Texture@@ABU3@@Z
_TEXT	SEGMENT
__Al$ = 8						; size = 4
__Ptr$ = 12						; size = 4
_<_Args_0>$ = 16					; size = 4
??$construct@UDXUTCache_Texture@@ABU1@@?$allocator_traits@V?$allocator@UDXUTCache_Texture@@@std@@@std@@SAXAAV?$allocator@UDXUTCache_Texture@@@1@PAUDXUTCache_Texture@@ABU3@@Z PROC ; std::allocator_traits<std::allocator<DXUTCache_Texture> >::construct<DXUTCache_Texture,DXUTCache_Texture const &>, COMDAT
; File c:\program files (x86)\microsoft visual studio 12.0\vc\include\xmemory0
; Line 720
  00000	55		 push	 ebp
  00001	8b ec		 mov	 ebp, esp
; Line 723
  00003	8b 45 10	 mov	 eax, DWORD PTR _<_Args_0>$[ebp]
  00006	50		 push	 eax
  00007	e8 00 00 00 00	 call	 ??$forward@ABUDXUTCache_Texture@@@std@@YAABUDXUTCache_Texture@@ABU1@@Z ; std::forward<DXUTCache_Texture const &>
  0000c	83 c4 04	 add	 esp, 4
  0000f	50		 push	 eax
  00010	8b 4d 0c	 mov	 ecx, DWORD PTR __Ptr$[ebp]
  00013	51		 push	 ecx
  00014	8b 4d 08	 mov	 ecx, DWORD PTR __Al$[ebp]
  00017	e8 00 00 00 00	 call	 ?construct@?$allocator@UDXUTCache_Texture@@@std@@QAEXPAUDXUTCache_Texture@@ABU3@@Z ; std::allocator<DXUTCache_Texture>::construct
; Line 724
  0001c	3b ec		 cmp	 ebp, esp
  0001e	e8 00 00 00 00	 call	 __RTC_CheckEsp
  00023	5d		 pop	 ebp
  00024	c3		 ret	 0
??$construct@UDXUTCache_Texture@@ABU1@@?$allocator_traits@V?$allocator@UDXUTCache_Texture@@@std@@@std@@SAXAAV?$allocator@UDXUTCache_Texture@@@1@PAUDXUTCache_Texture@@ABU3@@Z ENDP ; std::allocator_traits<std::allocator<DXUTCache_Texture> >::construct<DXUTCache_Texture,DXUTCache_Texture const &>
_TEXT	ENDS
; Function compile flags: /Odtp /RTCsu
;	COMDAT ??$forward@ABUDXUTCache_Texture@@@std@@YAABUDXUTCache_Texture@@ABU1@@Z
_TEXT	SEGMENT
__Arg$ = 8						; size = 4
??$forward@ABUDXUTCache_Texture@@@std@@YAABUDXUTCache_Texture@@ABU1@@Z PROC ; std::forward<DXUTCache_Texture const &>, COMDAT
; File c:\program files (x86)\microsoft visual studio 12.0\vc\include\type_traits
; Line 1504
  00000	55		 push	 ebp
  00001	8b ec		 mov	 ebp, esp
; Line 1505
  00003	8b 45 08	 mov	 eax, DWORD PTR __Arg$[ebp]
; Line 1506
  00006	5d		 pop	 ebp
  00007	c3		 ret	 0
??$forward@ABUDXUTCache_Texture@@@std@@YAABUDXUTCache_Texture@@ABU1@@Z ENDP ; std::forward<DXUTCache_Texture const &>
_TEXT	ENDS
; Function compile flags: /Odtp /RTCsu
;	COMDAT ??$construct@UDXUTCache_Texture@@AAU1@@?$allocator_traits@V?$allocator@UDXUTCache_Texture@@@std@@@std@@SAXAAV?$allocator@UDXUTCache_Texture@@@1@PAUDXUTCache_Texture@@AAU3@@Z
_TEXT	SEGMENT
__Al$ = 8						; size = 4
__Ptr$ = 12						; size = 4
_<_Args_0>$ = 16					; size = 4
??$construct@UDXUTCache_Texture@@AAU1@@?$allocator_traits@V?$allocator@UDXUTCache_Texture@@@std@@@std@@SAXAAV?$allocator@UDXUTCache_Texture@@@1@PAUDXUTCache_Texture@@AAU3@@Z PROC ; std::allocator_traits<std::allocator<DXUTCache_Texture> >::construct<DXUTCache_Texture,DXUTCache_Texture &>, COMDAT
; File c:\program files (x86)\microsoft visual studio 12.0\vc\include\xmemory0
; Line 720
  00000	55		 push	 ebp
  00001	8b ec		 mov	 ebp, esp
; Line 723
  00003	8b 45 10	 mov	 eax, DWORD PTR _<_Args_0>$[ebp]
  00006	50		 push	 eax
  00007	e8 00 00 00 00	 call	 ??$forward@AAUDXUTCache_Texture@@@std@@YAAAUDXUTCache_Texture@@AAU1@@Z ; std::forward<DXUTCache_Texture &>
  0000c	83 c4 04	 add	 esp, 4
  0000f	50		 push	 eax
  00010	8b 4d 0c	 mov	 ecx, DWORD PTR __Ptr$[ebp]
  00013	51		 push	 ecx
  00014	8b 4d 08	 mov	 ecx, DWORD PTR __Al$[ebp]
  00017	e8 00 00 00 00	 call	 ??$construct@UDXUTCache_Texture@@AAU1@@?$allocator@UDXUTCache_Texture@@@std@@QAEXPAUDXUTCache_Texture@@AAU2@@Z ; std::allocator<DXUTCache_Texture>::construct<DXUTCache_Texture,DXUTCache_Texture &>
; Line 724
  0001c	3b ec		 cmp	 ebp, esp
  0001e	e8 00 00 00 00	 call	 __RTC_CheckEsp
  00023	5d		 pop	 ebp
  00024	c3		 ret	 0
??$construct@UDXUTCache_Texture@@AAU1@@?$allocator_traits@V?$allocator@UDXUTCache_Texture@@@std@@@std@@SAXAAV?$allocator@UDXUTCache_Texture@@@1@PAUDXUTCache_Texture@@AAU3@@Z ENDP ; std::allocator_traits<std::allocator<DXUTCache_Texture> >::construct<DXUTCache_Texture,DXUTCache_Texture &>
_TEXT	ENDS
; Function compile flags: /Odtp /RTCsu
;	COMDAT ??$forward@AAUDXUTCache_Texture@@@std@@YAAAUDXUTCache_Texture@@AAU1@@Z
_TEXT	SEGMENT
__Arg$ = 8						; size = 4
??$forward@AAUDXUTCache_Texture@@@std@@YAAAUDXUTCache_Texture@@AAU1@@Z PROC ; std::forward<DXUTCache_Texture &>, COMDAT
; File c:\program files (x86)\microsoft visual studio 12.0\vc\include\type_traits
; Line 1504
  00000	55		 push	 ebp
  00001	8b ec		 mov	 ebp, esp
; Line 1505
  00003	8b 45 08	 mov	 eax, DWORD PTR __Arg$[ebp]
; Line 1506
  00006	5d		 pop	 ebp
  00007	c3		 ret	 0
??$forward@AAUDXUTCache_Texture@@@std@@YAAAUDXUTCache_Texture@@AAU1@@Z ENDP ; std::forward<DXUTCache_Texture &>
_TEXT	ENDS
; Function compile flags: /Odtp /RTCsu
;	COMDAT ??$_Allocate@UDXUTCache_Texture@@@std@@YAPAUDXUTCache_Texture@@IPAU1@@Z
_TEXT	SEGMENT
__Ptr$ = -4						; size = 4
__Count$ = 8						; size = 4
___formal$ = 12						; size = 4
??$_Allocate@UDXUTCache_Texture@@@std@@YAPAUDXUTCache_Texture@@IPAU1@@Z PROC ; std::_Allocate<DXUTCache_Texture>, COMDAT
; File c:\program files (x86)\microsoft visual studio 12.0\vc\include\xmemory0
; Line 22
  00000	55		 push	 ebp
  00001	8b ec		 mov	 ebp, esp
  00003	51		 push	 ecx
  00004	56		 push	 esi
  00005	c7 45 fc cc cc
	cc cc		 mov	 DWORD PTR [ebp-4], -858993460 ; ccccccccH
; Line 23
  0000c	c7 45 fc 00 00
	00 00		 mov	 DWORD PTR __Ptr$[ebp], 0
; Line 25
  00013	83 7d 08 00	 cmp	 DWORD PTR __Count$[ebp], 0
  00017	75 02		 jne	 SHORT $LN4@Allocate
; Line 27
  00019	eb 31		 jmp	 SHORT $LN3@Allocate
$LN4@Allocate:
; Line 28
  0001b	81 7d 08 07 1f
	7c 00		 cmp	 DWORD PTR __Count$[ebp], 8134407 ; 007c1f07H
  00022	77 19		 ja	 SHORT $LN1@Allocate
  00024	69 45 08 10 02
	00 00		 imul	 eax, DWORD PTR __Count$[ebp], 528
  0002b	50		 push	 eax
  0002c	e8 00 00 00 00	 call	 ??2@YAPAXI@Z		; operator new
  00031	83 c4 04	 add	 esp, 4
  00034	89 45 fc	 mov	 DWORD PTR __Ptr$[ebp], eax
  00037	83 7d fc 00	 cmp	 DWORD PTR __Ptr$[ebp], 0
  0003b	75 0f		 jne	 SHORT $LN3@Allocate
$LN1@Allocate:
; Line 29
  0003d	8b f4		 mov	 esi, esp
  0003f	ff 15 00 00 00
	00		 call	 DWORD PTR __imp_?_Xbad_alloc@std@@YAXXZ
  00045	3b f4		 cmp	 esi, esp
  00047	e8 00 00 00 00	 call	 __RTC_CheckEsp
$LN3@Allocate:
; Line 31
  0004c	8b 45 fc	 mov	 eax, DWORD PTR __Ptr$[ebp]
$LN6@Allocate:
; Line 32
  0004f	5e		 pop	 esi
  00050	83 c4 04	 add	 esp, 4
  00053	3b ec		 cmp	 ebp, esp
  00055	e8 00 00 00 00	 call	 __RTC_CheckEsp
  0005a	8b e5		 mov	 esp, ebp
  0005c	5d		 pop	 ebp
  0005d	c3		 ret	 0
??$_Allocate@UDXUTCache_Texture@@@std@@YAPAUDXUTCache_Texture@@IPAU1@@Z ENDP ; std::_Allocate<DXUTCache_Texture>
_TEXT	ENDS
; Function compile flags: /Odtp /RTCsu
;	COMDAT ??$_Umove@PAUDXUTCache_Texture@@@?$vector@UDXUTCache_Texture@@V?$allocator@UDXUTCache_Texture@@@std@@@std@@IAEPAUDXUTCache_Texture@@PAU2@00@Z
_TEXT	SEGMENT
__Alval$ = -9						; size = 1
_this$ = -4						; size = 4
__First$ = 8						; size = 4
__Last$ = 12						; size = 4
__Ptr$ = 16						; size = 4
??$_Umove@PAUDXUTCache_Texture@@@?$vector@UDXUTCache_Texture@@V?$allocator@UDXUTCache_Texture@@@std@@@std@@IAEPAUDXUTCache_Texture@@PAU2@00@Z PROC ; std::vector<DXUTCache_Texture,std::allocator<DXUTCache_Texture> >::_Umove<DXUTCache_Texture *>, COMDAT
; _this$ = ecx
; File c:\program files (x86)\microsoft visual studio 12.0\vc\include\vector
; Line 1644
  00000	55		 push	 ebp
  00001	8b ec		 mov	 ebp, esp
  00003	83 ec 10	 sub	 esp, 16			; 00000010H
  00006	b8 cc cc cc cc	 mov	 eax, -858993460		; ccccccccH
  0000b	89 45 f0	 mov	 DWORD PTR [ebp-16], eax
  0000e	89 45 f4	 mov	 DWORD PTR [ebp-12], eax
  00011	89 45 f8	 mov	 DWORD PTR [ebp-8], eax
  00014	89 45 fc	 mov	 DWORD PTR [ebp-4], eax
  00017	89 4d fc	 mov	 DWORD PTR _this$[ebp], ecx
; Line 1646
  0001a	8d 45 f7	 lea	 eax, DWORD PTR __Alval$[ebp]
  0001d	50		 push	 eax
  0001e	8b 4d fc	 mov	 ecx, DWORD PTR _this$[ebp]
  00021	e8 00 00 00 00	 call	 ?_Getal@?$_Vector_alloc@$0A@U?$_Vec_base_types@UDXUTCache_Texture@@V?$allocator@UDXUTCache_Texture@@@std@@@std@@@std@@QBE?AU?$_Wrap_alloc@V?$allocator@UDXUTCache_Texture@@@std@@@2@XZ ; std::_Vector_alloc<0,std::_Vec_base_types<DXUTCache_Texture,std::allocator<DXUTCache_Texture> > >::_Getal
; Line 1648
  00026	8d 4d f7	 lea	 ecx, DWORD PTR __Alval$[ebp]
  00029	51		 push	 ecx
  0002a	8b 55 10	 mov	 edx, DWORD PTR __Ptr$[ebp]
  0002d	52		 push	 edx
  0002e	8b 45 0c	 mov	 eax, DWORD PTR __Last$[ebp]
  00031	50		 push	 eax
  00032	8b 4d 08	 mov	 ecx, DWORD PTR __First$[ebp]
  00035	51		 push	 ecx
  00036	e8 00 00 00 00	 call	 ??$_Uninitialized_move@PAUDXUTCache_Texture@@PAU1@U?$_Wrap_alloc@V?$allocator@UDXUTCache_Texture@@@std@@@std@@@std@@YAPAUDXUTCache_Texture@@PAU1@00AAU?$_Wrap_alloc@V?$allocator@UDXUTCache_Texture@@@std@@@0@@Z ; std::_Uninitialized_move<DXUTCache_Texture *,DXUTCache_Texture *,std::_Wrap_alloc<std::allocator<DXUTCache_Texture> > >
  0003b	83 c4 10	 add	 esp, 16			; 00000010H
; Line 1649
  0003e	52		 push	 edx
  0003f	8b cd		 mov	 ecx, ebp
  00041	50		 push	 eax
  00042	8d 15 00 00 00
	00		 lea	 edx, DWORD PTR $LN5@Umove
  00048	e8 00 00 00 00	 call	 @_RTC_CheckStackVars@8
  0004d	58		 pop	 eax
  0004e	5a		 pop	 edx
  0004f	83 c4 10	 add	 esp, 16			; 00000010H
  00052	3b ec		 cmp	 ebp, esp
  00054	e8 00 00 00 00	 call	 __RTC_CheckEsp
  00059	8b e5		 mov	 esp, ebp
  0005b	5d		 pop	 ebp
  0005c	c2 0c 00	 ret	 12			; 0000000cH
  0005f	90		 npad	 1
$LN5@Umove:
  00060	01 00 00 00	 DD	 1
  00064	00 00 00 00	 DD	 $LN4@Umove
$LN4@Umove:
  00068	f7 ff ff ff	 DD	 -9			; fffffff7H
  0006c	01 00 00 00	 DD	 1
  00070	00 00 00 00	 DD	 $LN3@Umove
$LN3@Umove:
  00074	5f		 DB	 95			; 0000005fH
  00075	41		 DB	 65			; 00000041H
  00076	6c		 DB	 108			; 0000006cH
  00077	76		 DB	 118			; 00000076H
  00078	61		 DB	 97			; 00000061H
  00079	6c		 DB	 108			; 0000006cH
  0007a	00		 DB	 0
??$_Umove@PAUDXUTCache_Texture@@@?$vector@UDXUTCache_Texture@@V?$allocator@UDXUTCache_Texture@@@std@@@std@@IAEPAUDXUTCache_Texture@@PAU2@00@Z ENDP ; std::vector<DXUTCache_Texture,std::allocator<DXUTCache_Texture> >::_Umove<DXUTCache_Texture *>
_TEXT	ENDS
; Function compile flags: /Odtp /RTCsu
;	COMDAT ??$_Destroy_range@U?$_Wrap_alloc@V?$allocator@UDXUTCache_Texture@@@std@@@std@@@std@@YAXPAUDXUTCache_Texture@@0AAU?$_Wrap_alloc@V?$allocator@UDXUTCache_Texture@@@std@@@0@@Z
_TEXT	SEGMENT
$T1 = -1						; size = 1
__First$ = 8						; size = 4
__Last$ = 12						; size = 4
__Al$ = 16						; size = 4
??$_Destroy_range@U?$_Wrap_alloc@V?$allocator@UDXUTCache_Texture@@@std@@@std@@@std@@YAXPAUDXUTCache_Texture@@0AAU?$_Wrap_alloc@V?$allocator@UDXUTCache_Texture@@@std@@@0@@Z PROC ; std::_Destroy_range<std::_Wrap_alloc<std::allocator<DXUTCache_Texture> > >, COMDAT
; File c:\program files (x86)\microsoft visual studio 12.0\vc\include\xmemory0
; Line 95
  00000	55		 push	 ebp
  00001	8b ec		 mov	 ebp, esp
  00003	51		 push	 ecx
  00004	c7 45 fc cc cc
	cc cc		 mov	 DWORD PTR [ebp-4], -858993460 ; ccccccccH
; Line 96
  0000b	8b 45 0c	 mov	 eax, DWORD PTR __Last$[ebp]
  0000e	50		 push	 eax
  0000f	8b 4d 08	 mov	 ecx, DWORD PTR __First$[ebp]
  00012	51		 push	 ecx
  00013	e8 00 00 00 00	 call	 ??$_Ptr_cat@UDXUTCache_Texture@@U1@@std@@YA?AU_Nonscalar_ptr_iterator_tag@0@PAUDXUTCache_Texture@@0@Z ; std::_Ptr_cat<DXUTCache_Texture,DXUTCache_Texture>
  00018	83 c4 08	 add	 esp, 8
  0001b	88 45 ff	 mov	 BYTE PTR $T1[ebp], al
  0001e	0f b6 55 ff	 movzx	 edx, BYTE PTR $T1[ebp]
  00022	52		 push	 edx
  00023	8b 45 10	 mov	 eax, DWORD PTR __Al$[ebp]
  00026	50		 push	 eax
  00027	8b 4d 0c	 mov	 ecx, DWORD PTR __Last$[ebp]
  0002a	51		 push	 ecx
  0002b	8b 55 08	 mov	 edx, DWORD PTR __First$[ebp]
  0002e	52		 push	 edx
  0002f	e8 00 00 00 00	 call	 ??$_Destroy_range@U?$_Wrap_alloc@V?$allocator@UDXUTCache_Texture@@@std@@@std@@@std@@YAXPAUDXUTCache_Texture@@0AAU?$_Wrap_alloc@V?$allocator@UDXUTCache_Texture@@@std@@@0@U_Nonscalar_ptr_iterator_tag@0@@Z ; std::_Destroy_range<std::_Wrap_alloc<std::allocator<DXUTCache_Texture> > >
  00034	83 c4 10	 add	 esp, 16			; 00000010H
; Line 97
  00037	83 c4 04	 add	 esp, 4
  0003a	3b ec		 cmp	 ebp, esp
  0003c	e8 00 00 00 00	 call	 __RTC_CheckEsp
  00041	8b e5		 mov	 esp, ebp
  00043	5d		 pop	 ebp
  00044	c3		 ret	 0
??$_Destroy_range@U?$_Wrap_alloc@V?$allocator@UDXUTCache_Texture@@@std@@@std@@@std@@YAXPAUDXUTCache_Texture@@0AAU?$_Wrap_alloc@V?$allocator@UDXUTCache_Texture@@@std@@@0@@Z ENDP ; std::_Destroy_range<std::_Wrap_alloc<std::allocator<DXUTCache_Texture> > >
_TEXT	ENDS
; Function compile flags: /Odtp /RTCsu
;	COMDAT ?pointer_to@?$pointer_traits@PBUDXUTCache_Texture@@@std@@SAPBUDXUTCache_Texture@@ABU3@@Z
_TEXT	SEGMENT
__Val$ = 8						; size = 4
?pointer_to@?$pointer_traits@PBUDXUTCache_Texture@@@std@@SAPBUDXUTCache_Texture@@ABU3@@Z PROC ; std::pointer_traits<DXUTCache_Texture const *>::pointer_to, COMDAT
; File c:\program files (x86)\microsoft visual studio 12.0\vc\include\xmemory0
; Line 233
  00000	55		 push	 ebp
  00001	8b ec		 mov	 ebp, esp
; Line 234
  00003	8b 45 08	 mov	 eax, DWORD PTR __Val$[ebp]
  00006	50		 push	 eax
  00007	e8 00 00 00 00	 call	 ??$addressof@$$CBUDXUTCache_Texture@@@std@@YAPBUDXUTCache_Texture@@ABU1@@Z ; std::addressof<DXUTCache_Texture const >
  0000c	83 c4 04	 add	 esp, 4
; Line 235
  0000f	3b ec		 cmp	 ebp, esp
  00011	e8 00 00 00 00	 call	 __RTC_CheckEsp
  00016	5d		 pop	 ebp
  00017	c3		 ret	 0
?pointer_to@?$pointer_traits@PBUDXUTCache_Texture@@@std@@SAPBUDXUTCache_Texture@@ABU3@@Z ENDP ; std::pointer_traits<DXUTCache_Texture const *>::pointer_to
_TEXT	ENDS
; Function compile flags: /Odtp /RTCsu
;	COMDAT ??$construct@UDXUTCache_Texture@@ABU1@@?$_Wrap_alloc@V?$allocator@UDXUTCache_Texture@@@std@@@std@@QAEXPAUDXUTCache_Texture@@ABU2@@Z
_TEXT	SEGMENT
_this$ = -4						; size = 4
__Ptr$ = 8						; size = 4
_<_Args_0>$ = 12					; size = 4
??$construct@UDXUTCache_Texture@@ABU1@@?$_Wrap_alloc@V?$allocator@UDXUTCache_Texture@@@std@@@std@@QAEXPAUDXUTCache_Texture@@ABU2@@Z PROC ; std::_Wrap_alloc<std::allocator<DXUTCache_Texture> >::construct<DXUTCache_Texture,DXUTCache_Texture const &>, COMDAT
; _this$ = ecx
; File c:\program files (x86)\microsoft visual studio 12.0\vc\include\xmemory0
; Line 868
  00000	55		 push	 ebp
  00001	8b ec		 mov	 ebp, esp
  00003	51		 push	 ecx
  00004	c7 45 fc cc cc
	cc cc		 mov	 DWORD PTR [ebp-4], -858993460 ; ccccccccH
  0000b	89 4d fc	 mov	 DWORD PTR _this$[ebp], ecx
; Line 872
  0000e	8b 45 0c	 mov	 eax, DWORD PTR _<_Args_0>$[ebp]
  00011	50		 push	 eax
  00012	e8 00 00 00 00	 call	 ??$forward@ABUDXUTCache_Texture@@@std@@YAABUDXUTCache_Texture@@ABU1@@Z ; std::forward<DXUTCache_Texture const &>
  00017	83 c4 04	 add	 esp, 4
  0001a	50		 push	 eax
  0001b	8b 4d 08	 mov	 ecx, DWORD PTR __Ptr$[ebp]
  0001e	51		 push	 ecx
  0001f	8b 55 fc	 mov	 edx, DWORD PTR _this$[ebp]
  00022	52		 push	 edx
  00023	e8 00 00 00 00	 call	 ??$construct@UDXUTCache_Texture@@ABU1@@?$allocator_traits@V?$allocator@UDXUTCache_Texture@@@std@@@std@@SAXAAV?$allocator@UDXUTCache_Texture@@@1@PAUDXUTCache_Texture@@ABU3@@Z ; std::allocator_traits<std::allocator<DXUTCache_Texture> >::construct<DXUTCache_Texture,DXUTCache_Texture const &>
  00028	83 c4 0c	 add	 esp, 12			; 0000000cH
; Line 873
  0002b	83 c4 04	 add	 esp, 4
  0002e	3b ec		 cmp	 ebp, esp
  00030	e8 00 00 00 00	 call	 __RTC_CheckEsp
  00035	8b e5		 mov	 esp, ebp
  00037	5d		 pop	 ebp
  00038	c2 08 00	 ret	 8
??$construct@UDXUTCache_Texture@@ABU1@@?$_Wrap_alloc@V?$allocator@UDXUTCache_Texture@@@std@@@std@@QAEXPAUDXUTCache_Texture@@ABU2@@Z ENDP ; std::_Wrap_alloc<std::allocator<DXUTCache_Texture> >::construct<DXUTCache_Texture,DXUTCache_Texture const &>
_TEXT	ENDS
; Function compile flags: /Odtp /RTCsu
;	COMDAT ??$construct@UDXUTCache_Texture@@AAU1@@?$_Wrap_alloc@V?$allocator@UDXUTCache_Texture@@@std@@@std@@QAEXPAUDXUTCache_Texture@@AAU2@@Z
_TEXT	SEGMENT
_this$ = -4						; size = 4
__Ptr$ = 8						; size = 4
_<_Args_0>$ = 12					; size = 4
??$construct@UDXUTCache_Texture@@AAU1@@?$_Wrap_alloc@V?$allocator@UDXUTCache_Texture@@@std@@@std@@QAEXPAUDXUTCache_Texture@@AAU2@@Z PROC ; std::_Wrap_alloc<std::allocator<DXUTCache_Texture> >::construct<DXUTCache_Texture,DXUTCache_Texture &>, COMDAT
; _this$ = ecx
; File c:\program files (x86)\microsoft visual studio 12.0\vc\include\xmemory0
; Line 868
  00000	55		 push	 ebp
  00001	8b ec		 mov	 ebp, esp
  00003	51		 push	 ecx
  00004	c7 45 fc cc cc
	cc cc		 mov	 DWORD PTR [ebp-4], -858993460 ; ccccccccH
  0000b	89 4d fc	 mov	 DWORD PTR _this$[ebp], ecx
; Line 872
  0000e	8b 45 0c	 mov	 eax, DWORD PTR _<_Args_0>$[ebp]
  00011	50		 push	 eax
  00012	e8 00 00 00 00	 call	 ??$forward@AAUDXUTCache_Texture@@@std@@YAAAUDXUTCache_Texture@@AAU1@@Z ; std::forward<DXUTCache_Texture &>
  00017	83 c4 04	 add	 esp, 4
  0001a	50		 push	 eax
  0001b	8b 4d 08	 mov	 ecx, DWORD PTR __Ptr$[ebp]
  0001e	51		 push	 ecx
  0001f	8b 55 fc	 mov	 edx, DWORD PTR _this$[ebp]
  00022	52		 push	 edx
  00023	e8 00 00 00 00	 call	 ??$construct@UDXUTCache_Texture@@AAU1@@?$allocator_traits@V?$allocator@UDXUTCache_Texture@@@std@@@std@@SAXAAV?$allocator@UDXUTCache_Texture@@@1@PAUDXUTCache_Texture@@AAU3@@Z ; std::allocator_traits<std::allocator<DXUTCache_Texture> >::construct<DXUTCache_Texture,DXUTCache_Texture &>
  00028	83 c4 0c	 add	 esp, 12			; 0000000cH
; Line 873
  0002b	83 c4 04	 add	 esp, 4
  0002e	3b ec		 cmp	 ebp, esp
  00030	e8 00 00 00 00	 call	 __RTC_CheckEsp
  00035	8b e5		 mov	 esp, ebp
  00037	5d		 pop	 ebp
  00038	c2 08 00	 ret	 8
??$construct@UDXUTCache_Texture@@AAU1@@?$_Wrap_alloc@V?$allocator@UDXUTCache_Texture@@@std@@@std@@QAEXPAUDXUTCache_Texture@@AAU2@@Z ENDP ; std::_Wrap_alloc<std::allocator<DXUTCache_Texture> >::construct<DXUTCache_Texture,DXUTCache_Texture &>
_TEXT	ENDS
; Function compile flags: /Odtp /RTCsu
;	COMDAT ??$addressof@$$CBUDXUTCache_Texture@@@std@@YAPBUDXUTCache_Texture@@ABU1@@Z
_TEXT	SEGMENT
__Val$ = 8						; size = 4
??$addressof@$$CBUDXUTCache_Texture@@@std@@YAPBUDXUTCache_Texture@@ABU1@@Z PROC ; std::addressof<DXUTCache_Texture const >, COMDAT
; File c:\program files (x86)\microsoft visual studio 12.0\vc\include\xstddef
; Line 92
  00000	55		 push	 ebp
  00001	8b ec		 mov	 ebp, esp
; Line 95
  00003	8b 45 08	 mov	 eax, DWORD PTR __Val$[ebp]
; Line 96
  00006	5d		 pop	 ebp
  00007	c3		 ret	 0
??$addressof@$$CBUDXUTCache_Texture@@@std@@YAPBUDXUTCache_Texture@@ABU1@@Z ENDP ; std::addressof<DXUTCache_Texture const >
_TEXT	ENDS
; Function compile flags: /Odtp /RTCsu
;	COMDAT ??1?$_Vector_const_iterator@V?$_Vector_val@U?$_Simple_types@UDXUTCache_Texture@@@std@@@std@@@std@@QAE@XZ
_TEXT	SEGMENT
_this$ = -4						; size = 4
??1?$_Vector_const_iterator@V?$_Vector_val@U?$_Simple_types@UDXUTCache_Texture@@@std@@@std@@@std@@QAE@XZ PROC ; std::_Vector_const_iterator<std::_Vector_val<std::_Simple_types<DXUTCache_Texture> > >::~_Vector_const_iterator<std::_Vector_val<std::_Simple_types<DXUTCache_Texture> > >, COMDAT
; _this$ = ecx
  00000	55		 push	 ebp
  00001	8b ec		 mov	 ebp, esp
  00003	51		 push	 ecx
  00004	c7 45 fc cc cc
	cc cc		 mov	 DWORD PTR [ebp-4], -858993460 ; ccccccccH
  0000b	89 4d fc	 mov	 DWORD PTR _this$[ebp], ecx
  0000e	8b 4d fc	 mov	 ecx, DWORD PTR _this$[ebp]
  00011	e8 00 00 00 00	 call	 ??1?$_Iterator012@Urandom_access_iterator_tag@std@@UDXUTCache_Texture@@HPBU3@ABU3@U_Iterator_base12@2@@std@@QAE@XZ
  00016	83 c4 04	 add	 esp, 4
  00019	3b ec		 cmp	 ebp, esp
  0001b	e8 00 00 00 00	 call	 __RTC_CheckEsp
  00020	8b e5		 mov	 esp, ebp
  00022	5d		 pop	 ebp
  00023	c3		 ret	 0
??1?$_Vector_const_iterator@V?$_Vector_val@U?$_Simple_types@UDXUTCache_Texture@@@std@@@std@@@std@@QAE@XZ ENDP ; std::_Vector_const_iterator<std::_Vector_val<std::_Simple_types<DXUTCache_Texture> > >::~_Vector_const_iterator<std::_Vector_val<std::_Simple_types<DXUTCache_Texture> > >
_TEXT	ENDS
; Function compile flags: /Odtp /RTCsu
;	COMDAT ?_Compat@?$_Vector_const_iterator@V?$_Vector_val@U?$_Simple_types@UDXUTCache_Texture@@@std@@@std@@@std@@QBEXABV12@@Z
_TEXT	SEGMENT
_this$ = -4						; size = 4
__Right$ = 8						; size = 4
?_Compat@?$_Vector_const_iterator@V?$_Vector_val@U?$_Simple_types@UDXUTCache_Texture@@@std@@@std@@@std@@QBEXABV12@@Z PROC ; std::_Vector_const_iterator<std::_Vector_val<std::_Simple_types<DXUTCache_Texture> > >::_Compat, COMDAT
; _this$ = ecx
; File c:\program files (x86)\microsoft visual studio 12.0\vc\include\vector
; Line 236
  00000	55		 push	 ebp
  00001	8b ec		 mov	 ebp, esp
  00003	51		 push	 ecx
  00004	56		 push	 esi
  00005	c7 45 fc cc cc
	cc cc		 mov	 DWORD PTR [ebp-4], -858993460 ; ccccccccH
  0000c	89 4d fc	 mov	 DWORD PTR _this$[ebp], ecx
; Line 238
  0000f	8b 4d fc	 mov	 ecx, DWORD PTR _this$[ebp]
  00012	e8 00 00 00 00	 call	 ?_Getcont@_Iterator_base12@std@@QBEPBU_Container_base12@2@XZ ; std::_Iterator_base12::_Getcont
  00017	85 c0		 test	 eax, eax
  00019	74 1a		 je	 SHORT $LN1@Compat
  0001b	8b 4d fc	 mov	 ecx, DWORD PTR _this$[ebp]
  0001e	e8 00 00 00 00	 call	 ?_Getcont@_Iterator_base12@std@@QBEPBU_Container_base12@2@XZ ; std::_Iterator_base12::_Getcont
  00023	8b f0		 mov	 esi, eax
  00025	8b 4d 08	 mov	 ecx, DWORD PTR __Right$[ebp]
  00028	e8 00 00 00 00	 call	 ?_Getcont@_Iterator_base12@std@@QBEPBU_Container_base12@2@XZ ; std::_Iterator_base12::_Getcont
  0002d	3b f0		 cmp	 esi, eax
  0002f	0f 84 86 00 00
	00		 je	 $LN3@Compat
$LN1@Compat:
; Line 240
  00035	8b f4		 mov	 esi, esp
  00037	68 f0 00 00 00	 push	 240			; 000000f0H
  0003c	68 00 00 00 00	 push	 OFFSET ??_C@_1IM@EINEHPHE@?$AAC?$AA?3?$AA?2?$AAP?$AAr?$AAo?$AAg?$AAr?$AAa?$AAm?$AA?5?$AAF?$AAi?$AAl?$AAe?$AAs?$AA?5?$AA?$CI?$AAx?$AA8?$AA6?$AA?$CJ?$AA?2?$AAM?$AAi?$AAc?$AAr?$AAo?$AAs?$AAo?$AAf?$AAt@
  00041	68 00 00 00 00	 push	 OFFSET ??_C@_1DM@HINDPMBP@?$AAv?$AAe?$AAc?$AAt?$AAo?$AAr?$AA?5?$AAi?$AAt?$AAe?$AAr?$AAa?$AAt?$AAo?$AAr?$AAs?$AA?5?$AAi?$AAn?$AAc?$AAo?$AAm?$AAp?$AAa?$AAt?$AAi?$AAb?$AAl?$AAe?$AA?$AA@
  00046	ff 15 00 00 00
	00		 call	 DWORD PTR __imp_?_Debug_message@std@@YAXPB_W0I@Z
  0004c	83 c4 0c	 add	 esp, 12			; 0000000cH
  0004f	3b f4		 cmp	 esi, esp
  00051	e8 00 00 00 00	 call	 __RTC_CheckEsp
; Line 241
  00056	b8 00 00 00 00	 mov	 eax, OFFSET ??_C@_0CI@FNPHFCCM@Standard?5C?$CL?$CL?5Libraries?5Invalid?5A@
  0005b	85 c0		 test	 eax, eax
  0005d	74 04		 je	 SHORT $LN5@Compat
  0005f	33 c9		 xor	 ecx, ecx
  00061	75 30		 jne	 SHORT $LN6@Compat
$LN5@Compat:
  00063	8b f4		 mov	 esi, esp
  00065	68 00 00 00 00	 push	 OFFSET ??_C@_1FO@GJIHNDLM@?$AA?$CC?$AAS?$AAt?$AAa?$AAn?$AAd?$AAa?$AAr?$AAd?$AA?5?$AAC?$AA?$CL?$AA?$CL?$AA?5?$AAL?$AAi?$AAb?$AAr?$AAa?$AAr?$AAi?$AAe?$AAs?$AA?5?$AAI?$AAn?$AAv?$AAa?$AAl?$AAi?$AAd?$AA?5@
  0006a	68 00 00 00 00	 push	 OFFSET ??_C@_15GANGMFKL@?$AA?$CF?$AAs?$AA?$AA@
  0006f	6a 00		 push	 0
  00071	68 f1 00 00 00	 push	 241			; 000000f1H
  00076	68 00 00 00 00	 push	 OFFSET ??_C@_1IM@EINEHPHE@?$AAC?$AA?3?$AA?2?$AAP?$AAr?$AAo?$AAg?$AAr?$AAa?$AAm?$AA?5?$AAF?$AAi?$AAl?$AAe?$AAs?$AA?5?$AA?$CI?$AAx?$AA8?$AA6?$AA?$CJ?$AA?2?$AAM?$AAi?$AAc?$AAr?$AAo?$AAs?$AAo?$AAf?$AAt@
  0007b	6a 02		 push	 2
  0007d	ff 15 00 00 00
	00		 call	 DWORD PTR __imp___CrtDbgReportW
  00083	83 c4 18	 add	 esp, 24			; 00000018H
  00086	3b f4		 cmp	 esi, esp
  00088	e8 00 00 00 00	 call	 __RTC_CheckEsp
  0008d	83 f8 01	 cmp	 eax, 1
  00090	75 01		 jne	 SHORT $LN6@Compat
  00092	cc		 int	 3
$LN6@Compat:
  00093	8b f4		 mov	 esi, esp
  00095	6a 00		 push	 0
  00097	68 f1 00 00 00	 push	 241			; 000000f1H
  0009c	68 00 00 00 00	 push	 OFFSET ??_C@_1IM@EINEHPHE@?$AAC?$AA?3?$AA?2?$AAP?$AAr?$AAo?$AAg?$AAr?$AAa?$AAm?$AA?5?$AAF?$AAi?$AAl?$AAe?$AAs?$AA?5?$AA?$CI?$AAx?$AA8?$AA6?$AA?$CJ?$AA?2?$AAM?$AAi?$AAc?$AAr?$AAo?$AAs?$AAo?$AAf?$AAt@
  000a1	68 00 00 00 00	 push	 OFFSET ??_C@_1OI@HHLPKFIO@?$AAs?$AAt?$AAd?$AA?3?$AA?3?$AA_?$AAV?$AAe?$AAc?$AAt?$AAo?$AAr?$AA_?$AAc?$AAo?$AAn?$AAs?$AAt?$AA_?$AAi?$AAt?$AAe?$AAr?$AAa?$AAt?$AAo?$AAr?$AA?$DM?$AAc?$AAl?$AAa?$AAs@
  000a6	68 00 00 00 00	 push	 OFFSET ??_C@_1CG@JNLFBNGN@?$AA?$CC?$AAi?$AAn?$AAv?$AAa?$AAl?$AAi?$AAd?$AA?5?$AAa?$AAr?$AAg?$AAu?$AAm?$AAe?$AAn?$AAt?$AA?$CC?$AA?$AA@
  000ab	ff 15 00 00 00
	00		 call	 DWORD PTR __imp___invalid_parameter
  000b1	83 c4 14	 add	 esp, 20			; 00000014H
  000b4	3b f4		 cmp	 esi, esp
  000b6	e8 00 00 00 00	 call	 __RTC_CheckEsp
$LN3@Compat:
; Line 243
  000bb	5e		 pop	 esi
  000bc	83 c4 04	 add	 esp, 4
  000bf	3b ec		 cmp	 ebp, esp
  000c1	e8 00 00 00 00	 call	 __RTC_CheckEsp
  000c6	8b e5		 mov	 esp, ebp
  000c8	5d		 pop	 ebp
  000c9	c2 04 00	 ret	 4
?_Compat@?$_Vector_const_iterator@V?$_Vector_val@U?$_Simple_types@UDXUTCache_Texture@@@std@@@std@@@std@@QBEXABV12@@Z ENDP ; std::_Vector_const_iterator<std::_Vector_val<std::_Simple_types<DXUTCache_Texture> > >::_Compat
_TEXT	ENDS
; Function compile flags: /Odtp /RTCsu
;	COMDAT ??9?$_Vector_const_iterator@V?$_Vector_val@U?$_Simple_types@UDXUTCache_Texture@@@std@@@std@@@std@@QBE_NABV01@@Z
_TEXT	SEGMENT
tv69 = -8						; size = 4
_this$ = -4						; size = 4
__Right$ = 8						; size = 4
??9?$_Vector_const_iterator@V?$_Vector_val@U?$_Simple_types@UDXUTCache_Texture@@@std@@@std@@@std@@QBE_NABV01@@Z PROC ; std::_Vector_const_iterator<std::_Vector_val<std::_Simple_types<DXUTCache_Texture> > >::operator!=, COMDAT
; _this$ = ecx
; File c:\program files (x86)\microsoft visual studio 12.0\vc\include\vector
; Line 209
  00000	55		 push	 ebp
  00001	8b ec		 mov	 ebp, esp
  00003	83 ec 08	 sub	 esp, 8
  00006	c7 45 f8 cc cc
	cc cc		 mov	 DWORD PTR [ebp-8], -858993460 ; ccccccccH
  0000d	c7 45 fc cc cc
	cc cc		 mov	 DWORD PTR [ebp-4], -858993460 ; ccccccccH
  00014	89 4d fc	 mov	 DWORD PTR _this$[ebp], ecx
; Line 210
  00017	8b 45 08	 mov	 eax, DWORD PTR __Right$[ebp]
  0001a	50		 push	 eax
  0001b	8b 4d fc	 mov	 ecx, DWORD PTR _this$[ebp]
  0001e	e8 00 00 00 00	 call	 ??8?$_Vector_const_iterator@V?$_Vector_val@U?$_Simple_types@UDXUTCache_Texture@@@std@@@std@@@std@@QBE_NABV01@@Z ; std::_Vector_const_iterator<std::_Vector_val<std::_Simple_types<DXUTCache_Texture> > >::operator==
  00023	0f b6 c8	 movzx	 ecx, al
  00026	85 c9		 test	 ecx, ecx
  00028	75 09		 jne	 SHORT $LN3@operator
  0002a	c7 45 f8 01 00
	00 00		 mov	 DWORD PTR tv69[ebp], 1
  00031	eb 07		 jmp	 SHORT $LN4@operator
$LN3@operator:
  00033	c7 45 f8 00 00
	00 00		 mov	 DWORD PTR tv69[ebp], 0
$LN4@operator:
  0003a	8a 45 f8	 mov	 al, BYTE PTR tv69[ebp]
; Line 211
  0003d	83 c4 08	 add	 esp, 8
  00040	3b ec		 cmp	 ebp, esp
  00042	e8 00 00 00 00	 call	 __RTC_CheckEsp
  00047	8b e5		 mov	 esp, ebp
  00049	5d		 pop	 ebp
  0004a	c2 04 00	 ret	 4
??9?$_Vector_const_iterator@V?$_Vector_val@U?$_Simple_types@UDXUTCache_Texture@@@std@@@std@@@std@@QBE_NABV01@@Z ENDP ; std::_Vector_const_iterator<std::_Vector_val<std::_Simple_types<DXUTCache_Texture> > >::operator!=
_TEXT	ENDS
; Function compile flags: /Odtp /RTCsu
;	COMDAT ??8?$_Vector_const_iterator@V?$_Vector_val@U?$_Simple_types@UDXUTCache_Texture@@@std@@@std@@@std@@QBE_NABV01@@Z
_TEXT	SEGMENT
tv69 = -8						; size = 4
_this$ = -4						; size = 4
__Right$ = 8						; size = 4
??8?$_Vector_const_iterator@V?$_Vector_val@U?$_Simple_types@UDXUTCache_Texture@@@std@@@std@@@std@@QBE_NABV01@@Z PROC ; std::_Vector_const_iterator<std::_Vector_val<std::_Simple_types<DXUTCache_Texture> > >::operator==, COMDAT
; _this$ = ecx
; File c:\program files (x86)\microsoft visual studio 12.0\vc\include\vector
; Line 203
  00000	55		 push	 ebp
  00001	8b ec		 mov	 ebp, esp
  00003	83 ec 08	 sub	 esp, 8
  00006	c7 45 f8 cc cc
	cc cc		 mov	 DWORD PTR [ebp-8], -858993460 ; ccccccccH
  0000d	c7 45 fc cc cc
	cc cc		 mov	 DWORD PTR [ebp-4], -858993460 ; ccccccccH
  00014	89 4d fc	 mov	 DWORD PTR _this$[ebp], ecx
; Line 204
  00017	8b 45 08	 mov	 eax, DWORD PTR __Right$[ebp]
  0001a	50		 push	 eax
  0001b	8b 4d fc	 mov	 ecx, DWORD PTR _this$[ebp]
  0001e	e8 00 00 00 00	 call	 ?_Compat@?$_Vector_const_iterator@V?$_Vector_val@U?$_Simple_types@UDXUTCache_Texture@@@std@@@std@@@std@@QBEXABV12@@Z ; std::_Vector_const_iterator<std::_Vector_val<std::_Simple_types<DXUTCache_Texture> > >::_Compat
; Line 205
  00023	8b 4d fc	 mov	 ecx, DWORD PTR _this$[ebp]
  00026	8b 55 08	 mov	 edx, DWORD PTR __Right$[ebp]
  00029	8b 41 08	 mov	 eax, DWORD PTR [ecx+8]
  0002c	3b 42 08	 cmp	 eax, DWORD PTR [edx+8]
  0002f	75 09		 jne	 SHORT $LN3@operator
  00031	c7 45 f8 01 00
	00 00		 mov	 DWORD PTR tv69[ebp], 1
  00038	eb 07		 jmp	 SHORT $LN4@operator
$LN3@operator:
  0003a	c7 45 f8 00 00
	00 00		 mov	 DWORD PTR tv69[ebp], 0
$LN4@operator:
  00041	8a 45 f8	 mov	 al, BYTE PTR tv69[ebp]
; Line 206
  00044	83 c4 08	 add	 esp, 8
  00047	3b ec		 cmp	 ebp, esp
  00049	e8 00 00 00 00	 call	 __RTC_CheckEsp
  0004e	8b e5		 mov	 esp, ebp
  00050	5d		 pop	 ebp
  00051	c2 04 00	 ret	 4
??8?$_Vector_const_iterator@V?$_Vector_val@U?$_Simple_types@UDXUTCache_Texture@@@std@@@std@@@std@@QBE_NABV01@@Z ENDP ; std::_Vector_const_iterator<std::_Vector_val<std::_Simple_types<DXUTCache_Texture> > >::operator==
_TEXT	ENDS
; Function compile flags: /Odtp /RTCsu
;	COMDAT ??E?$_Vector_const_iterator@V?$_Vector_val@U?$_Simple_types@UDXUTCache_Texture@@@std@@@std@@@std@@QAEAAV01@XZ
_TEXT	SEGMENT
_this$ = -4						; size = 4
??E?$_Vector_const_iterator@V?$_Vector_val@U?$_Simple_types@UDXUTCache_Texture@@@std@@@std@@@std@@QAEAAV01@XZ PROC ; std::_Vector_const_iterator<std::_Vector_val<std::_Simple_types<DXUTCache_Texture> > >::operator++, COMDAT
; _this$ = ecx
; File c:\program files (x86)\microsoft visual studio 12.0\vc\include\vector
; Line 95
  00000	55		 push	 ebp
  00001	8b ec		 mov	 ebp, esp
  00003	51		 push	 ecx
  00004	56		 push	 esi
  00005	c7 45 fc cc cc
	cc cc		 mov	 DWORD PTR [ebp-4], -858993460 ; ccccccccH
  0000c	89 4d fc	 mov	 DWORD PTR _this$[ebp], ecx
; Line 99
  0000f	8b 4d fc	 mov	 ecx, DWORD PTR _this$[ebp]
  00012	e8 00 00 00 00	 call	 ?_Getcont@_Iterator_base12@std@@QBEPBU_Container_base12@2@XZ ; std::_Iterator_base12::_Getcont
  00017	85 c0		 test	 eax, eax
  00019	74 1c		 je	 SHORT $LN1@operator
  0001b	8b 45 fc	 mov	 eax, DWORD PTR _this$[ebp]
  0001e	83 78 08 00	 cmp	 DWORD PTR [eax+8], 0
  00022	74 13		 je	 SHORT $LN1@operator
  00024	8b 4d fc	 mov	 ecx, DWORD PTR _this$[ebp]
  00027	e8 00 00 00 00	 call	 ?_Getcont@_Iterator_base12@std@@QBEPBU_Container_base12@2@XZ ; std::_Iterator_base12::_Getcont
  0002c	8b 4d fc	 mov	 ecx, DWORD PTR _this$[ebp]
  0002f	8b 50 08	 mov	 edx, DWORD PTR [eax+8]
  00032	3b 51 08	 cmp	 edx, DWORD PTR [ecx+8]
  00035	77 7d		 ja	 SHORT $LN2@operator
$LN1@operator:
; Line 101
  00037	8b f4		 mov	 esi, esp
  00039	6a 65		 push	 101			; 00000065H
  0003b	68 00 00 00 00	 push	 OFFSET ??_C@_1IM@EINEHPHE@?$AAC?$AA?3?$AA?2?$AAP?$AAr?$AAo?$AAg?$AAr?$AAa?$AAm?$AA?5?$AAF?$AAi?$AAl?$AAe?$AAs?$AA?5?$AA?$CI?$AAx?$AA8?$AA6?$AA?$CJ?$AA?2?$AAM?$AAi?$AAc?$AAr?$AAo?$AAs?$AAo?$AAf?$AAt@
  00040	68 00 00 00 00	 push	 OFFSET ??_C@_1EE@EJDKCLKB@?$AAv?$AAe?$AAc?$AAt?$AAo?$AAr?$AA?5?$AAi?$AAt?$AAe?$AAr?$AAa?$AAt?$AAo?$AAr?$AA?5?$AAn?$AAo?$AAt?$AA?5?$AAi?$AAn?$AAc?$AAr?$AAe?$AAm?$AAe?$AAn?$AAt?$AAa?$AAb?$AAl@
  00045	ff 15 00 00 00
	00		 call	 DWORD PTR __imp_?_Debug_message@std@@YAXPB_W0I@Z
  0004b	83 c4 0c	 add	 esp, 12			; 0000000cH
  0004e	3b f4		 cmp	 esi, esp
  00050	e8 00 00 00 00	 call	 __RTC_CheckEsp
; Line 102
  00055	b8 00 00 00 00	 mov	 eax, OFFSET ??_C@_0CE@OFMIGAMM@Standard?5C?$CL?$CL?5Libraries?5Out?5of?5Ra@
  0005a	85 c0		 test	 eax, eax
  0005c	74 04		 je	 SHORT $LN5@operator
  0005e	33 c9		 xor	 ecx, ecx
  00060	75 2d		 jne	 SHORT $LN6@operator
$LN5@operator:
  00062	8b f4		 mov	 esi, esp
  00064	68 00 00 00 00	 push	 OFFSET ??_C@_1FG@IBPIFFN@?$AA?$CC?$AAS?$AAt?$AAa?$AAn?$AAd?$AAa?$AAr?$AAd?$AA?5?$AAC?$AA?$CL?$AA?$CL?$AA?5?$AAL?$AAi?$AAb?$AAr?$AAa?$AAr?$AAi?$AAe?$AAs?$AA?5?$AAO?$AAu?$AAt?$AA?5?$AAo?$AAf?$AA?5?$AAR@
  00069	68 00 00 00 00	 push	 OFFSET ??_C@_15GANGMFKL@?$AA?$CF?$AAs?$AA?$AA@
  0006e	6a 00		 push	 0
  00070	6a 66		 push	 102			; 00000066H
  00072	68 00 00 00 00	 push	 OFFSET ??_C@_1IM@EINEHPHE@?$AAC?$AA?3?$AA?2?$AAP?$AAr?$AAo?$AAg?$AAr?$AAa?$AAm?$AA?5?$AAF?$AAi?$AAl?$AAe?$AAs?$AA?5?$AA?$CI?$AAx?$AA8?$AA6?$AA?$CJ?$AA?2?$AAM?$AAi?$AAc?$AAr?$AAo?$AAs?$AAo?$AAf?$AAt@
  00077	6a 02		 push	 2
  00079	ff 15 00 00 00
	00		 call	 DWORD PTR __imp___CrtDbgReportW
  0007f	83 c4 18	 add	 esp, 24			; 00000018H
  00082	3b f4		 cmp	 esi, esp
  00084	e8 00 00 00 00	 call	 __RTC_CheckEsp
  00089	83 f8 01	 cmp	 eax, 1
  0008c	75 01		 jne	 SHORT $LN6@operator
  0008e	cc		 int	 3
$LN6@operator:
  0008f	8b f4		 mov	 esi, esp
  00091	6a 00		 push	 0
  00093	6a 66		 push	 102			; 00000066H
  00095	68 00 00 00 00	 push	 OFFSET ??_C@_1IM@EINEHPHE@?$AAC?$AA?3?$AA?2?$AAP?$AAr?$AAo?$AAg?$AAr?$AAa?$AAm?$AA?5?$AAF?$AAi?$AAl?$AAe?$AAs?$AA?5?$AA?$CI?$AAx?$AA8?$AA6?$AA?$CJ?$AA?2?$AAM?$AAi?$AAc?$AAr?$AAo?$AAs?$AAo?$AAf?$AAt@
  0009a	68 00 00 00 00	 push	 OFFSET ??_C@_1PA@CDGOAEFA@?$AAs?$AAt?$AAd?$AA?3?$AA?3?$AA_?$AAV?$AAe?$AAc?$AAt?$AAo?$AAr?$AA_?$AAc?$AAo?$AAn?$AAs?$AAt?$AA_?$AAi?$AAt?$AAe?$AAr?$AAa?$AAt?$AAo?$AAr?$AA?$DM?$AAc?$AAl?$AAa?$AAs@
  0009f	68 00 00 00 00	 push	 OFFSET ??_C@_1BO@MEPPHOO@?$AA?$CC?$AAo?$AAu?$AAt?$AA?5?$AAo?$AAf?$AA?5?$AAr?$AAa?$AAn?$AAg?$AAe?$AA?$CC?$AA?$AA@
  000a4	ff 15 00 00 00
	00		 call	 DWORD PTR __imp___invalid_parameter
  000aa	83 c4 14	 add	 esp, 20			; 00000014H
  000ad	3b f4		 cmp	 esi, esp
  000af	e8 00 00 00 00	 call	 __RTC_CheckEsp
$LN2@operator:
; Line 112
  000b4	8b 45 fc	 mov	 eax, DWORD PTR _this$[ebp]
  000b7	8b 48 08	 mov	 ecx, DWORD PTR [eax+8]
  000ba	81 c1 10 02 00
	00		 add	 ecx, 528		; 00000210H
  000c0	8b 55 fc	 mov	 edx, DWORD PTR _this$[ebp]
  000c3	89 4a 08	 mov	 DWORD PTR [edx+8], ecx
; Line 113
  000c6	8b 45 fc	 mov	 eax, DWORD PTR _this$[ebp]
; Line 114
  000c9	5e		 pop	 esi
  000ca	83 c4 04	 add	 esp, 4
  000cd	3b ec		 cmp	 ebp, esp
  000cf	e8 00 00 00 00	 call	 __RTC_CheckEsp
  000d4	8b e5		 mov	 esp, ebp
  000d6	5d		 pop	 ebp
  000d7	c3		 ret	 0
??E?$_Vector_const_iterator@V?$_Vector_val@U?$_Simple_types@UDXUTCache_Texture@@@std@@@std@@@std@@QAEAAV01@XZ ENDP ; std::_Vector_const_iterator<std::_Vector_val<std::_Simple_types<DXUTCache_Texture> > >::operator++
_TEXT	ENDS
; Function compile flags: /Odtp /RTCsu
;	COMDAT ??C?$_Vector_const_iterator@V?$_Vector_val@U?$_Simple_types@UDXUTCache_Texture@@@std@@@std@@@std@@QBEPBUDXUTCache_Texture@@XZ
_TEXT	SEGMENT
_this$ = -4						; size = 4
??C?$_Vector_const_iterator@V?$_Vector_val@U?$_Simple_types@UDXUTCache_Texture@@@std@@@std@@@std@@QBEPBUDXUTCache_Texture@@XZ PROC ; std::_Vector_const_iterator<std::_Vector_val<std::_Simple_types<DXUTCache_Texture> > >::operator->, COMDAT
; _this$ = ecx
; File c:\program files (x86)\microsoft visual studio 12.0\vc\include\vector
; Line 90
  00000	55		 push	 ebp
  00001	8b ec		 mov	 ebp, esp
  00003	51		 push	 ecx
  00004	c7 45 fc cc cc
	cc cc		 mov	 DWORD PTR [ebp-4], -858993460 ; ccccccccH
  0000b	89 4d fc	 mov	 DWORD PTR _this$[ebp], ecx
; Line 91
  0000e	8b 4d fc	 mov	 ecx, DWORD PTR _this$[ebp]
  00011	e8 00 00 00 00	 call	 ??D?$_Vector_const_iterator@V?$_Vector_val@U?$_Simple_types@UDXUTCache_Texture@@@std@@@std@@@std@@QBEABUDXUTCache_Texture@@XZ ; std::_Vector_const_iterator<std::_Vector_val<std::_Simple_types<DXUTCache_Texture> > >::operator*
  00016	50		 push	 eax
  00017	e8 00 00 00 00	 call	 ?pointer_to@?$pointer_traits@PBUDXUTCache_Texture@@@std@@SAPBUDXUTCache_Texture@@ABU3@@Z ; std::pointer_traits<DXUTCache_Texture const *>::pointer_to
  0001c	83 c4 04	 add	 esp, 4
; Line 92
  0001f	83 c4 04	 add	 esp, 4
  00022	3b ec		 cmp	 ebp, esp
  00024	e8 00 00 00 00	 call	 __RTC_CheckEsp
  00029	8b e5		 mov	 esp, ebp
  0002b	5d		 pop	 ebp
  0002c	c3		 ret	 0
??C?$_Vector_const_iterator@V?$_Vector_val@U?$_Simple_types@UDXUTCache_Texture@@@std@@@std@@@std@@QBEPBUDXUTCache_Texture@@XZ ENDP ; std::_Vector_const_iterator<std::_Vector_val<std::_Simple_types<DXUTCache_Texture> > >::operator->
_TEXT	ENDS
; Function compile flags: /Odtp /RTCsu
;	COMDAT ??D?$_Vector_const_iterator@V?$_Vector_val@U?$_Simple_types@UDXUTCache_Texture@@@std@@@std@@@std@@QBEABUDXUTCache_Texture@@XZ
_TEXT	SEGMENT
_this$ = -4						; size = 4
??D?$_Vector_const_iterator@V?$_Vector_val@U?$_Simple_types@UDXUTCache_Texture@@@std@@@std@@@std@@QBEABUDXUTCache_Texture@@XZ PROC ; std::_Vector_const_iterator<std::_Vector_val<std::_Simple_types<DXUTCache_Texture> > >::operator*, COMDAT
; _this$ = ecx
; File c:\program files (x86)\microsoft visual studio 12.0\vc\include\vector
; Line 65
  00000	55		 push	 ebp
  00001	8b ec		 mov	 ebp, esp
  00003	51		 push	 ecx
  00004	56		 push	 esi
  00005	c7 45 fc cc cc
	cc cc		 mov	 DWORD PTR [ebp-4], -858993460 ; ccccccccH
  0000c	89 4d fc	 mov	 DWORD PTR _this$[ebp], ecx
; Line 70
  0000f	8b 4d fc	 mov	 ecx, DWORD PTR _this$[ebp]
  00012	e8 00 00 00 00	 call	 ?_Getcont@_Iterator_base12@std@@QBEPBU_Container_base12@2@XZ ; std::_Iterator_base12::_Getcont
  00017	85 c0		 test	 eax, eax
  00019	74 2f		 je	 SHORT $LN1@operator
  0001b	8b 45 fc	 mov	 eax, DWORD PTR _this$[ebp]
  0001e	83 78 08 00	 cmp	 DWORD PTR [eax+8], 0
  00022	74 26		 je	 SHORT $LN1@operator
  00024	8b 4d fc	 mov	 ecx, DWORD PTR _this$[ebp]
  00027	e8 00 00 00 00	 call	 ?_Getcont@_Iterator_base12@std@@QBEPBU_Container_base12@2@XZ ; std::_Iterator_base12::_Getcont
  0002c	8b 4d fc	 mov	 ecx, DWORD PTR _this$[ebp]
  0002f	8b 51 08	 mov	 edx, DWORD PTR [ecx+8]
  00032	3b 50 04	 cmp	 edx, DWORD PTR [eax+4]
  00035	72 13		 jb	 SHORT $LN1@operator
  00037	8b 4d fc	 mov	 ecx, DWORD PTR _this$[ebp]
  0003a	e8 00 00 00 00	 call	 ?_Getcont@_Iterator_base12@std@@QBEPBU_Container_base12@2@XZ ; std::_Iterator_base12::_Getcont
  0003f	8b 4d fc	 mov	 ecx, DWORD PTR _this$[ebp]
  00042	8b 50 08	 mov	 edx, DWORD PTR [eax+8]
  00045	3b 51 08	 cmp	 edx, DWORD PTR [ecx+8]
  00048	77 7d		 ja	 SHORT $LN2@operator
$LN1@operator:
; Line 72
  0004a	8b f4		 mov	 esi, esp
  0004c	6a 48		 push	 72			; 00000048H
  0004e	68 00 00 00 00	 push	 OFFSET ??_C@_1IM@EINEHPHE@?$AAC?$AA?3?$AA?2?$AAP?$AAr?$AAo?$AAg?$AAr?$AAa?$AAm?$AA?5?$AAF?$AAi?$AAl?$AAe?$AAs?$AA?5?$AA?$CI?$AAx?$AA8?$AA6?$AA?$CJ?$AA?2?$AAM?$AAi?$AAc?$AAr?$AAo?$AAs?$AAo?$AAf?$AAt@
  00053	68 00 00 00 00	 push	 OFFSET ??_C@_1EG@FOHJJHAC@?$AAv?$AAe?$AAc?$AAt?$AAo?$AAr?$AA?5?$AAi?$AAt?$AAe?$AAr?$AAa?$AAt?$AAo?$AAr?$AA?5?$AAn?$AAo?$AAt?$AA?5?$AAd?$AAe?$AAr?$AAe?$AAf?$AAe?$AAr?$AAe?$AAn?$AAc?$AAa?$AAb@
  00058	ff 15 00 00 00
	00		 call	 DWORD PTR __imp_?_Debug_message@std@@YAXPB_W0I@Z
  0005e	83 c4 0c	 add	 esp, 12			; 0000000cH
  00061	3b f4		 cmp	 esi, esp
  00063	e8 00 00 00 00	 call	 __RTC_CheckEsp
; Line 73
  00068	b8 00 00 00 00	 mov	 eax, OFFSET ??_C@_0CE@OFMIGAMM@Standard?5C?$CL?$CL?5Libraries?5Out?5of?5Ra@
  0006d	85 c0		 test	 eax, eax
  0006f	74 04		 je	 SHORT $LN5@operator
  00071	33 c9		 xor	 ecx, ecx
  00073	75 2d		 jne	 SHORT $LN6@operator
$LN5@operator:
  00075	8b f4		 mov	 esi, esp
  00077	68 00 00 00 00	 push	 OFFSET ??_C@_1FG@IBPIFFN@?$AA?$CC?$AAS?$AAt?$AAa?$AAn?$AAd?$AAa?$AAr?$AAd?$AA?5?$AAC?$AA?$CL?$AA?$CL?$AA?5?$AAL?$AAi?$AAb?$AAr?$AAa?$AAr?$AAi?$AAe?$AAs?$AA?5?$AAO?$AAu?$AAt?$AA?5?$AAo?$AAf?$AA?5?$AAR@
  0007c	68 00 00 00 00	 push	 OFFSET ??_C@_15GANGMFKL@?$AA?$CF?$AAs?$AA?$AA@
  00081	6a 00		 push	 0
  00083	6a 49		 push	 73			; 00000049H
  00085	68 00 00 00 00	 push	 OFFSET ??_C@_1IM@EINEHPHE@?$AAC?$AA?3?$AA?2?$AAP?$AAr?$AAo?$AAg?$AAr?$AAa?$AAm?$AA?5?$AAF?$AAi?$AAl?$AAe?$AAs?$AA?5?$AA?$CI?$AAx?$AA8?$AA6?$AA?$CJ?$AA?2?$AAM?$AAi?$AAc?$AAr?$AAo?$AAs?$AAo?$AAf?$AAt@
  0008a	6a 02		 push	 2
  0008c	ff 15 00 00 00
	00		 call	 DWORD PTR __imp___CrtDbgReportW
  00092	83 c4 18	 add	 esp, 24			; 00000018H
  00095	3b f4		 cmp	 esi, esp
  00097	e8 00 00 00 00	 call	 __RTC_CheckEsp
  0009c	83 f8 01	 cmp	 eax, 1
  0009f	75 01		 jne	 SHORT $LN6@operator
  000a1	cc		 int	 3
$LN6@operator:
  000a2	8b f4		 mov	 esi, esp
  000a4	6a 00		 push	 0
  000a6	6a 49		 push	 73			; 00000049H
  000a8	68 00 00 00 00	 push	 OFFSET ??_C@_1IM@EINEHPHE@?$AAC?$AA?3?$AA?2?$AAP?$AAr?$AAo?$AAg?$AAr?$AAa?$AAm?$AA?5?$AAF?$AAi?$AAl?$AAe?$AAs?$AA?5?$AA?$CI?$AAx?$AA8?$AA6?$AA?$CJ?$AA?2?$AAM?$AAi?$AAc?$AAr?$AAo?$AAs?$AAo?$AAf?$AAt@
  000ad	68 00 00 00 00	 push	 OFFSET ??_C@_1OO@BAHPFGHC@?$AAs?$AAt?$AAd?$AA?3?$AA?3?$AA_?$AAV?$AAe?$AAc?$AAt?$AAo?$AAr?$AA_?$AAc?$AAo?$AAn?$AAs?$AAt?$AA_?$AAi?$AAt?$AAe?$AAr?$AAa?$AAt?$AAo?$AAr?$AA?$DM?$AAc?$AAl?$AAa?$AAs@
  000b2	68 00 00 00 00	 push	 OFFSET ??_C@_1BO@MEPPHOO@?$AA?$CC?$AAo?$AAu?$AAt?$AA?5?$AAo?$AAf?$AA?5?$AAr?$AAa?$AAn?$AAg?$AAe?$AA?$CC?$AA?$AA@
  000b7	ff 15 00 00 00
	00		 call	 DWORD PTR __imp___invalid_parameter
  000bd	83 c4 14	 add	 esp, 20			; 00000014H
  000c0	3b f4		 cmp	 esi, esp
  000c2	e8 00 00 00 00	 call	 __RTC_CheckEsp
$LN2@operator:
; Line 86
  000c7	8b 45 fc	 mov	 eax, DWORD PTR _this$[ebp]
  000ca	8b 40 08	 mov	 eax, DWORD PTR [eax+8]
; Line 87
  000cd	5e		 pop	 esi
  000ce	83 c4 04	 add	 esp, 4
  000d1	3b ec		 cmp	 ebp, esp
  000d3	e8 00 00 00 00	 call	 __RTC_CheckEsp
  000d8	8b e5		 mov	 esp, ebp
  000da	5d		 pop	 ebp
  000db	c3		 ret	 0
??D?$_Vector_const_iterator@V?$_Vector_val@U?$_Simple_types@UDXUTCache_Texture@@@std@@@std@@@std@@QBEABUDXUTCache_Texture@@XZ ENDP ; std::_Vector_const_iterator<std::_Vector_val<std::_Simple_types<DXUTCache_Texture> > >::operator*
_TEXT	ENDS
; Function compile flags: /Odtp /RTCsu
;	COMDAT ??0?$_Vector_const_iterator@V?$_Vector_val@U?$_Simple_types@UDXUTCache_Texture@@@std@@@std@@@std@@QAE@PAUDXUTCache_Texture@@PBU_Container_base12@1@@Z
_TEXT	SEGMENT
_this$ = -16						; size = 4
__$EHRec$ = -12						; size = 12
__Parg$ = 8						; size = 4
__Pvector$ = 12						; size = 4
??0?$_Vector_const_iterator@V?$_Vector_val@U?$_Simple_types@UDXUTCache_Texture@@@std@@@std@@@std@@QAE@PAUDXUTCache_Texture@@PBU_Container_base12@1@@Z PROC ; std::_Vector_const_iterator<std::_Vector_val<std::_Simple_types<DXUTCache_Texture> > >::_Vector_const_iterator<std::_Vector_val<std::_Simple_types<DXUTCache_Texture> > >, COMDAT
; _this$ = ecx
; File c:\program files (x86)\microsoft visual studio 12.0\vc\include\vector
; Line 47
  00000	55		 push	 ebp
  00001	8b ec		 mov	 ebp, esp
  00003	6a ff		 push	 -1
  00005	68 00 00 00 00	 push	 __ehhandler$??0?$_Vector_const_iterator@V?$_Vector_val@U?$_Simple_types@UDXUTCache_Texture@@@std@@@std@@@std@@QAE@PAUDXUTCache_Texture@@PBU_Container_base12@1@@Z
  0000a	64 a1 00 00 00
	00		 mov	 eax, DWORD PTR fs:0
  00010	50		 push	 eax
  00011	51		 push	 ecx
  00012	c7 45 f0 cc cc
	cc cc		 mov	 DWORD PTR [ebp-16], -858993460 ; ccccccccH
  00019	a1 00 00 00 00	 mov	 eax, DWORD PTR ___security_cookie
  0001e	33 c5		 xor	 eax, ebp
  00020	50		 push	 eax
  00021	8d 45 f4	 lea	 eax, DWORD PTR __$EHRec$[ebp]
  00024	64 a3 00 00 00
	00		 mov	 DWORD PTR fs:0, eax
  0002a	89 4d f0	 mov	 DWORD PTR _this$[ebp], ecx
  0002d	8b 4d f0	 mov	 ecx, DWORD PTR _this$[ebp]
  00030	e8 00 00 00 00	 call	 ??0?$_Iterator012@Urandom_access_iterator_tag@std@@UDXUTCache_Texture@@HPBU3@ABU3@U_Iterator_base12@2@@std@@QAE@XZ
  00035	c7 45 fc 00 00
	00 00		 mov	 DWORD PTR __$EHRec$[ebp+8], 0
  0003c	8b 45 f0	 mov	 eax, DWORD PTR _this$[ebp]
  0003f	8b 4d 08	 mov	 ecx, DWORD PTR __Parg$[ebp]
  00042	89 48 08	 mov	 DWORD PTR [eax+8], ecx
; Line 48
  00045	8b 55 0c	 mov	 edx, DWORD PTR __Pvector$[ebp]
  00048	52		 push	 edx
  00049	8b 4d f0	 mov	 ecx, DWORD PTR _this$[ebp]
  0004c	e8 00 00 00 00	 call	 ?_Adopt@_Iterator_base12@std@@QAEXPBU_Container_base12@2@@Z ; std::_Iterator_base12::_Adopt
; Line 49
  00051	c7 45 fc ff ff
	ff ff		 mov	 DWORD PTR __$EHRec$[ebp+8], -1
  00058	8b 45 f0	 mov	 eax, DWORD PTR _this$[ebp]
  0005b	8b 4d f4	 mov	 ecx, DWORD PTR __$EHRec$[ebp]
  0005e	64 89 0d 00 00
	00 00		 mov	 DWORD PTR fs:0, ecx
  00065	59		 pop	 ecx
  00066	83 c4 10	 add	 esp, 16			; 00000010H
  00069	3b ec		 cmp	 ebp, esp
  0006b	e8 00 00 00 00	 call	 __RTC_CheckEsp
  00070	8b e5		 mov	 esp, ebp
  00072	5d		 pop	 ebp
  00073	c2 08 00	 ret	 8
_TEXT	ENDS
;	COMDAT text$x
text$x	SEGMENT
__unwindfunclet$??0?$_Vector_const_iterator@V?$_Vector_val@U?$_Simple_types@UDXUTCache_Texture@@@std@@@std@@@std@@QAE@PAUDXUTCache_Texture@@PBU_Container_base12@1@@Z$0:
  00000	8b 4d f0	 mov	 ecx, DWORD PTR _this$[ebp]
  00003	e9 00 00 00 00	 jmp	 ??1?$_Iterator012@Urandom_access_iterator_tag@std@@UDXUTCache_Texture@@HPBU3@ABU3@U_Iterator_base12@2@@std@@QAE@XZ
__ehhandler$??0?$_Vector_const_iterator@V?$_Vector_val@U?$_Simple_types@UDXUTCache_Texture@@@std@@@std@@@std@@QAE@PAUDXUTCache_Texture@@PBU_Container_base12@1@@Z:
  00008	8b 54 24 08	 mov	 edx, DWORD PTR [esp+8]
  0000c	8d 42 0c	 lea	 eax, DWORD PTR [edx+12]
  0000f	8b 4a f8	 mov	 ecx, DWORD PTR [edx-8]
  00012	33 c8		 xor	 ecx, eax
  00014	e8 00 00 00 00	 call	 @__security_check_cookie@4
  00019	b8 00 00 00 00	 mov	 eax, OFFSET __ehfuncinfo$??0?$_Vector_const_iterator@V?$_Vector_val@U?$_Simple_types@UDXUTCache_Texture@@@std@@@std@@@std@@QAE@PAUDXUTCache_Texture@@PBU_Container_base12@1@@Z
  0001e	e9 00 00 00 00	 jmp	 ___CxxFrameHandler3
text$x	ENDS
??0?$_Vector_const_iterator@V?$_Vector_val@U?$_Simple_types@UDXUTCache_Texture@@@std@@@std@@@std@@QAE@PAUDXUTCache_Texture@@PBU_Container_base12@1@@Z ENDP ; std::_Vector_const_iterator<std::_Vector_val<std::_Simple_types<DXUTCache_Texture> > >::_Vector_const_iterator<std::_Vector_val<std::_Simple_types<DXUTCache_Texture> > >
; Function compile flags: /Odtp /RTCsu
;	COMDAT ??1?$_Iterator012@Urandom_access_iterator_tag@std@@UDXUTCache_Texture@@HPBU3@ABU3@U_Iterator_base12@2@@std@@QAE@XZ
_TEXT	SEGMENT
_this$ = -4						; size = 4
??1?$_Iterator012@Urandom_access_iterator_tag@std@@UDXUTCache_Texture@@HPBU3@ABU3@U_Iterator_base12@2@@std@@QAE@XZ PROC ; std::_Iterator012<std::random_access_iterator_tag,DXUTCache_Texture,int,DXUTCache_Texture const *,DXUTCache_Texture const &,std::_Iterator_base12>::~_Iterator012<std::random_access_iterator_tag,DXUTCache_Texture,int,DXUTCache_Texture const *,DXUTCache_Texture const &,std::_Iterator_base12>, COMDAT
; _this$ = ecx
  00000	55		 push	 ebp
  00001	8b ec		 mov	 ebp, esp
  00003	51		 push	 ecx
  00004	c7 45 fc cc cc
	cc cc		 mov	 DWORD PTR [ebp-4], -858993460 ; ccccccccH
  0000b	89 4d fc	 mov	 DWORD PTR _this$[ebp], ecx
  0000e	8b 4d fc	 mov	 ecx, DWORD PTR _this$[ebp]
  00011	e8 00 00 00 00	 call	 ??1_Iterator_base12@std@@QAE@XZ ; std::_Iterator_base12::~_Iterator_base12
  00016	83 c4 04	 add	 esp, 4
  00019	3b ec		 cmp	 ebp, esp
  0001b	e8 00 00 00 00	 call	 __RTC_CheckEsp
  00020	8b e5		 mov	 esp, ebp
  00022	5d		 pop	 ebp
  00023	c3		 ret	 0
??1?$_Iterator012@Urandom_access_iterator_tag@std@@UDXUTCache_Texture@@HPBU3@ABU3@U_Iterator_base12@2@@std@@QAE@XZ ENDP ; std::_Iterator012<std::random_access_iterator_tag,DXUTCache_Texture,int,DXUTCache_Texture const *,DXUTCache_Texture const &,std::_Iterator_base12>::~_Iterator012<std::random_access_iterator_tag,DXUTCache_Texture,int,DXUTCache_Texture const *,DXUTCache_Texture const &,std::_Iterator_base12>
_TEXT	ENDS
; Function compile flags: /Odtp /RTCsu
;	COMDAT ??0?$_Iterator012@Urandom_access_iterator_tag@std@@UDXUTCache_Texture@@HPBU3@ABU3@U_Iterator_base12@2@@std@@QAE@XZ
_TEXT	SEGMENT
_this$ = -4						; size = 4
??0?$_Iterator012@Urandom_access_iterator_tag@std@@UDXUTCache_Texture@@HPBU3@ABU3@U_Iterator_base12@2@@std@@QAE@XZ PROC ; std::_Iterator012<std::random_access_iterator_tag,DXUTCache_Texture,int,DXUTCache_Texture const *,DXUTCache_Texture const &,std::_Iterator_base12>::_Iterator012<std::random_access_iterator_tag,DXUTCache_Texture,int,DXUTCache_Texture const *,DXUTCache_Texture const &,std::_Iterator_base12>, COMDAT
; _this$ = ecx
  00000	55		 push	 ebp
  00001	8b ec		 mov	 ebp, esp
  00003	51		 push	 ecx
  00004	c7 45 fc cc cc
	cc cc		 mov	 DWORD PTR [ebp-4], -858993460 ; ccccccccH
  0000b	89 4d fc	 mov	 DWORD PTR _this$[ebp], ecx
  0000e	8b 4d fc	 mov	 ecx, DWORD PTR _this$[ebp]
  00011	e8 00 00 00 00	 call	 ??0_Iterator_base12@std@@QAE@XZ ; std::_Iterator_base12::_Iterator_base12
  00016	8b 45 fc	 mov	 eax, DWORD PTR _this$[ebp]
  00019	83 c4 04	 add	 esp, 4
  0001c	3b ec		 cmp	 ebp, esp
  0001e	e8 00 00 00 00	 call	 __RTC_CheckEsp
  00023	8b e5		 mov	 esp, ebp
  00025	5d		 pop	 ebp
  00026	c3		 ret	 0
??0?$_Iterator012@Urandom_access_iterator_tag@std@@UDXUTCache_Texture@@HPBU3@ABU3@U_Iterator_base12@2@@std@@QAE@XZ ENDP ; std::_Iterator012<std::random_access_iterator_tag,DXUTCache_Texture,int,DXUTCache_Texture const *,DXUTCache_Texture const &,std::_Iterator_base12>::_Iterator012<std::random_access_iterator_tag,DXUTCache_Texture,int,DXUTCache_Texture const *,DXUTCache_Texture const &,std::_Iterator_base12>
_TEXT	ENDS
; Function compile flags: /Odtp /RTCsu
_TEXT	SEGMENT
?DXUTMediaSearchPath@@YAPA_WXZ PROC			; DXUTMediaSearchPath
; File d:\engine class\assignment 1\new scratch\dxut\optional\sdkmisc.cpp
; Line 208
  00000	55		 push	 ebp
  00001	8b ec		 mov	 ebp, esp
; Line 213
  00003	b8 00 00 00 00	 mov	 eax, OFFSET ?s_strMediaSearchPath@?1??DXUTMediaSearchPath@@YAPA_WXZ@4PA_WA
; Line 215
  00008	5d		 pop	 ebp
  00009	c3		 ret	 0
?DXUTMediaSearchPath@@YAPA_WXZ ENDP			; DXUTMediaSearchPath
_TEXT	ENDS
; Function compile flags: /Odtp /RTCsu
_TEXT	SEGMENT
tv161 = -1060						; size = 4
tv154 = -1056						; size = 4
tv144 = -1052						; size = 4
tv136 = -1048						; size = 4
tv130 = -1044						; size = 4
tv64 = -1040						; size = 4
_sz$1 = -1032						; size = 1024
__$ArrayPad$ = -4					; size = 4
_hDlg$ = 8						; size = 4
_message$ = 12						; size = 4
_wParam$ = 16						; size = 4
_lParam$ = 20						; size = 4
?DisplaySwitchToREFWarningProc@@YGHPAUHWND__@@IIJ@Z PROC ; DisplaySwitchToREFWarningProc
; File d:\engine class\assignment 1\new scratch\dxut\optional\sdkmisc.cpp
; Line 165
  00000	55		 push	 ebp
  00001	8b ec		 mov	 ebp, esp
  00003	81 ec 24 04 00
	00		 sub	 esp, 1060		; 00000424H
  00009	56		 push	 esi
  0000a	57		 push	 edi
  0000b	8d bd dc fb ff
	ff		 lea	 edi, DWORD PTR [ebp-1060]
  00011	b9 09 01 00 00	 mov	 ecx, 265		; 00000109H
  00016	b8 cc cc cc cc	 mov	 eax, -858993460		; ccccccccH
  0001b	f3 ab		 rep stosd
  0001d	a1 00 00 00 00	 mov	 eax, DWORD PTR ___security_cookie
  00022	33 c5		 xor	 eax, ebp
  00024	89 45 fc	 mov	 DWORD PTR __$ArrayPad$[ebp], eax
; Line 166
  00027	8b 45 0c	 mov	 eax, DWORD PTR _message$[ebp]
  0002a	89 85 f0 fb ff
	ff		 mov	 DWORD PTR tv64[ebp], eax
  00030	81 bd f0 fb ff
	ff 10 01 00 00	 cmp	 DWORD PTR tv64[ebp], 272 ; 00000110H
  0003a	74 15		 je	 SHORT $LN7@DisplaySwi
  0003c	81 bd f0 fb ff
	ff 11 01 00 00	 cmp	 DWORD PTR tv64[ebp], 273 ; 00000111H
  00046	0f 84 01 01 00
	00		 je	 $LN6@DisplaySwi
  0004c	e9 86 02 00 00	 jmp	 $LN8@DisplaySwi
$LN7@DisplaySwi:
; Line 170
  00051	e8 00 00 00 00	 call	 ?DXUTGetWindowTitle@@YGPB_WXZ ; DXUTGetWindowTitle
  00056	8b f4		 mov	 esi, esp
  00058	50		 push	 eax
  00059	8b 4d 08	 mov	 ecx, DWORD PTR _hDlg$[ebp]
  0005c	51		 push	 ecx
  0005d	ff 15 00 00 00
	00		 call	 DWORD PTR __imp__SetWindowTextW@8
  00063	3b f4		 cmp	 esi, esp
  00065	e8 00 00 00 00	 call	 __RTC_CheckEsp
; Line 171
  0006a	8b f4		 mov	 esi, esp
  0006c	68 02 7f 00 00	 push	 32514			; 00007f02H
  00071	6a 00		 push	 0
  00073	ff 15 00 00 00
	00		 call	 DWORD PTR __imp__LoadIconW@8
  00079	3b f4		 cmp	 esi, esp
  0007b	e8 00 00 00 00	 call	 __RTC_CheckEsp
  00080	8b f4		 mov	 esi, esp
  00082	50		 push	 eax
  00083	6a 01		 push	 1
  00085	68 72 01 00 00	 push	 370			; 00000172H
  0008a	8b fc		 mov	 edi, esp
  0008c	68 00 01 00 00	 push	 256			; 00000100H
  00091	8b 55 08	 mov	 edx, DWORD PTR _hDlg$[ebp]
  00094	52		 push	 edx
  00095	ff 15 00 00 00
	00		 call	 DWORD PTR __imp__GetDlgItem@8
  0009b	3b fc		 cmp	 edi, esp
  0009d	e8 00 00 00 00	 call	 __RTC_CheckEsp
  000a2	50		 push	 eax
  000a3	ff 15 00 00 00
	00		 call	 DWORD PTR __imp__SendMessageW@16
  000a9	3b f4		 cmp	 esi, esp
  000ab	e8 00 00 00 00	 call	 __RTC_CheckEsp
; Line 174
  000b0	8b f4		 mov	 esi, esp
  000b2	8b 45 14	 mov	 eax, DWORD PTR _lParam$[ebp]
  000b5	50		 push	 eax
  000b6	8b 4d 14	 mov	 ecx, DWORD PTR _lParam$[ebp]
  000b9	51		 push	 ecx
  000ba	68 00 00 00 00	 push	 OFFSET $SG163499
  000bf	68 00 02 00 00	 push	 512			; 00000200H
  000c4	8d 95 f8 fb ff
	ff		 lea	 edx, DWORD PTR _sz$1[ebp]
  000ca	52		 push	 edx
  000cb	ff 15 00 00 00
	00		 call	 DWORD PTR __imp__swprintf_s
  000d1	83 c4 14	 add	 esp, 20			; 00000014H
  000d4	3b f4		 cmp	 esi, esp
  000d6	e8 00 00 00 00	 call	 __RTC_CheckEsp
; Line 175
  000db	8b f4		 mov	 esi, esp
  000dd	8d 85 f8 fb ff
	ff		 lea	 eax, DWORD PTR _sz$1[ebp]
  000e3	50		 push	 eax
  000e4	68 01 01 00 00	 push	 257			; 00000101H
  000e9	8b 4d 08	 mov	 ecx, DWORD PTR _hDlg$[ebp]
  000ec	51		 push	 ecx
  000ed	ff 15 00 00 00
	00		 call	 DWORD PTR __imp__SetDlgItemTextW@12
  000f3	3b f4		 cmp	 esi, esp
  000f5	e8 00 00 00 00	 call	 __RTC_CheckEsp
; Line 176
  000fa	8b f4		 mov	 esi, esp
  000fc	68 00 00 00 00	 push	 OFFSET $SG163500
  00101	6a 06		 push	 6
  00103	8b 55 08	 mov	 edx, DWORD PTR _hDlg$[ebp]
  00106	52		 push	 edx
  00107	ff 15 00 00 00
	00		 call	 DWORD PTR __imp__SetDlgItemTextW@12
  0010d	3b f4		 cmp	 esi, esp
  0010f	e8 00 00 00 00	 call	 __RTC_CheckEsp
; Line 177
  00114	8b f4		 mov	 esi, esp
  00116	68 00 00 00 00	 push	 OFFSET $SG163501
  0011b	6a 07		 push	 7
  0011d	8b 45 08	 mov	 eax, DWORD PTR _hDlg$[ebp]
  00120	50		 push	 eax
  00121	ff 15 00 00 00
	00		 call	 DWORD PTR __imp__SetDlgItemTextW@12
  00127	3b f4		 cmp	 esi, esp
  00129	e8 00 00 00 00	 call	 __RTC_CheckEsp
; Line 178
  0012e	8b f4		 mov	 esi, esp
  00130	68 00 00 00 00	 push	 OFFSET $SG163502
  00135	6a 05		 push	 5
  00137	8b 4d 08	 mov	 ecx, DWORD PTR _hDlg$[ebp]
  0013a	51		 push	 ecx
  0013b	ff 15 00 00 00
	00		 call	 DWORD PTR __imp__SetDlgItemTextW@12
  00141	3b f4		 cmp	 esi, esp
  00143	e8 00 00 00 00	 call	 __RTC_CheckEsp
; Line 179
  00148	e9 8a 01 00 00	 jmp	 $LN8@DisplaySwi
$LN6@DisplaySwi:
; Line 182
  0014d	8b 55 10	 mov	 edx, DWORD PTR _wParam$[ebp]
  00150	81 e2 ff ff 00
	00		 and	 edx, 65535		; 0000ffffH
  00156	0f b7 c2	 movzx	 eax, dx
  00159	89 85 ec fb ff
	ff		 mov	 DWORD PTR tv130[ebp], eax
  0015f	8b 8d ec fb ff
	ff		 mov	 ecx, DWORD PTR tv130[ebp]
  00165	83 e9 02	 sub	 ecx, 2
  00168	89 8d ec fb ff
	ff		 mov	 DWORD PTR tv130[ebp], ecx
  0016e	83 bd ec fb ff
	ff 05		 cmp	 DWORD PTR tv130[ebp], 5
  00175	0f 87 5c 01 00
	00		 ja	 $LN8@DisplaySwi
  0017b	8b 95 ec fb ff
	ff		 mov	 edx, DWORD PTR tv130[ebp]
  00181	ff 24 95 00 00
	00 00		 jmp	 DWORD PTR $LN23@DisplaySwi[edx*4]
$LN3@DisplaySwi:
; Line 187
  00188	8b f4		 mov	 esi, esp
  0018a	6a 05		 push	 5
  0018c	8b 45 08	 mov	 eax, DWORD PTR _hDlg$[ebp]
  0018f	50		 push	 eax
  00190	ff 15 00 00 00
	00		 call	 DWORD PTR __imp__IsDlgButtonChecked@8
  00196	3b f4		 cmp	 esi, esp
  00198	e8 00 00 00 00	 call	 __RTC_CheckEsp
  0019d	83 f8 01	 cmp	 eax, 1
  001a0	75 0c		 jne	 SHORT $LN12@DisplaySwi
  001a2	c7 85 e8 fb ff
	ff 00 00 00 00	 mov	 DWORD PTR tv136[ebp], 0
  001ac	eb 0a		 jmp	 SHORT $LN13@DisplaySwi
$LN12@DisplaySwi:
  001ae	c7 85 e8 fb ff
	ff 01 00 00 00	 mov	 DWORD PTR tv136[ebp], 1
$LN13@DisplaySwi:
  001b8	8b f4		 mov	 esi, esp
  001ba	8b 8d e8 fb ff
	ff		 mov	 ecx, DWORD PTR tv136[ebp]
  001c0	51		 push	 ecx
  001c1	6a 05		 push	 5
  001c3	8b 55 08	 mov	 edx, DWORD PTR _hDlg$[ebp]
  001c6	52		 push	 edx
  001c7	ff 15 00 00 00
	00		 call	 DWORD PTR __imp__CheckDlgButton@12
  001cd	3b f4		 cmp	 esi, esp
  001cf	e8 00 00 00 00	 call	 __RTC_CheckEsp
; Line 188
  001d4	8b f4		 mov	 esi, esp
  001d6	6a 05		 push	 5
  001d8	8b 45 08	 mov	 eax, DWORD PTR _hDlg$[ebp]
  001db	50		 push	 eax
  001dc	ff 15 00 00 00
	00		 call	 DWORD PTR __imp__IsDlgButtonChecked@8
  001e2	3b f4		 cmp	 esi, esp
  001e4	e8 00 00 00 00	 call	 __RTC_CheckEsp
  001e9	83 f8 01	 cmp	 eax, 1
  001ec	74 0c		 je	 SHORT $LN14@DisplaySwi
  001ee	c7 85 e4 fb ff
	ff 01 00 00 00	 mov	 DWORD PTR tv144[ebp], 1
  001f8	eb 0a		 jmp	 SHORT $LN15@DisplaySwi
$LN14@DisplaySwi:
  001fa	c7 85 e4 fb ff
	ff 00 00 00 00	 mov	 DWORD PTR tv144[ebp], 0
$LN15@DisplaySwi:
  00204	8b f4		 mov	 esi, esp
  00206	8b 8d e4 fb ff
	ff		 mov	 ecx, DWORD PTR tv144[ebp]
  0020c	51		 push	 ecx
  0020d	8b fc		 mov	 edi, esp
  0020f	6a 07		 push	 7
  00211	8b 55 08	 mov	 edx, DWORD PTR _hDlg$[ebp]
  00214	52		 push	 edx
  00215	ff 15 00 00 00
	00		 call	 DWORD PTR __imp__GetDlgItem@8
  0021b	3b fc		 cmp	 edi, esp
  0021d	e8 00 00 00 00	 call	 __RTC_CheckEsp
  00222	50		 push	 eax
  00223	ff 15 00 00 00
	00		 call	 DWORD PTR __imp__EnableWindow@8
  00229	3b f4		 cmp	 esi, esp
  0022b	e8 00 00 00 00	 call	 __RTC_CheckEsp
; Line 189
  00230	e9 a2 00 00 00	 jmp	 $LN8@DisplaySwi
$LN2@DisplaySwi:
; Line 192
  00235	8b f4		 mov	 esi, esp
  00237	6a 05		 push	 5
  00239	8b 45 08	 mov	 eax, DWORD PTR _hDlg$[ebp]
  0023c	50		 push	 eax
  0023d	ff 15 00 00 00
	00		 call	 DWORD PTR __imp__IsDlgButtonChecked@8
  00243	3b f4		 cmp	 esi, esp
  00245	e8 00 00 00 00	 call	 __RTC_CheckEsp
  0024a	83 f8 01	 cmp	 eax, 1
  0024d	75 0c		 jne	 SHORT $LN16@DisplaySwi
  0024f	c7 85 e0 fb ff
	ff 87 00 00 00	 mov	 DWORD PTR tv154[ebp], 135 ; 00000087H
  00259	eb 0a		 jmp	 SHORT $LN17@DisplaySwi
$LN16@DisplaySwi:
  0025b	c7 85 e0 fb ff
	ff 07 00 00 00	 mov	 DWORD PTR tv154[ebp], 7
$LN17@DisplaySwi:
  00265	8b f4		 mov	 esi, esp
  00267	8b 8d e0 fb ff
	ff		 mov	 ecx, DWORD PTR tv154[ebp]
  0026d	51		 push	 ecx
  0026e	8b 55 08	 mov	 edx, DWORD PTR _hDlg$[ebp]
  00271	52		 push	 edx
  00272	ff 15 00 00 00
	00		 call	 DWORD PTR __imp__EndDialog@8
  00278	3b f4		 cmp	 esi, esp
  0027a	e8 00 00 00 00	 call	 __RTC_CheckEsp
  0027f	b8 01 00 00 00	 mov	 eax, 1
  00284	eb 53		 jmp	 SHORT $LN10@DisplaySwi
$LN1@DisplaySwi:
; Line 196
  00286	8b f4		 mov	 esi, esp
  00288	6a 05		 push	 5
  0028a	8b 45 08	 mov	 eax, DWORD PTR _hDlg$[ebp]
  0028d	50		 push	 eax
  0028e	ff 15 00 00 00
	00		 call	 DWORD PTR __imp__IsDlgButtonChecked@8
  00294	3b f4		 cmp	 esi, esp
  00296	e8 00 00 00 00	 call	 __RTC_CheckEsp
  0029b	83 f8 01	 cmp	 eax, 1
  0029e	75 0c		 jne	 SHORT $LN18@DisplaySwi
  002a0	c7 85 dc fb ff
	ff 86 00 00 00	 mov	 DWORD PTR tv161[ebp], 134 ; 00000086H
  002aa	eb 0a		 jmp	 SHORT $LN19@DisplaySwi
$LN18@DisplaySwi:
  002ac	c7 85 dc fb ff
	ff 06 00 00 00	 mov	 DWORD PTR tv161[ebp], 6
$LN19@DisplaySwi:
  002b6	8b f4		 mov	 esi, esp
  002b8	8b 8d dc fb ff
	ff		 mov	 ecx, DWORD PTR tv161[ebp]
  002be	51		 push	 ecx
  002bf	8b 55 08	 mov	 edx, DWORD PTR _hDlg$[ebp]
  002c2	52		 push	 edx
  002c3	ff 15 00 00 00
	00		 call	 DWORD PTR __imp__EndDialog@8
  002c9	3b f4		 cmp	 esi, esp
  002cb	e8 00 00 00 00	 call	 __RTC_CheckEsp
  002d0	b8 01 00 00 00	 mov	 eax, 1
  002d5	eb 02		 jmp	 SHORT $LN10@DisplaySwi
$LN8@DisplaySwi:
; Line 200
  002d7	33 c0		 xor	 eax, eax
$LN10@DisplaySwi:
; Line 201
  002d9	52		 push	 edx
  002da	8b cd		 mov	 ecx, ebp
  002dc	50		 push	 eax
  002dd	8d 15 00 00 00
	00		 lea	 edx, DWORD PTR $LN22@DisplaySwi
  002e3	e8 00 00 00 00	 call	 @_RTC_CheckStackVars@8
  002e8	58		 pop	 eax
  002e9	5a		 pop	 edx
  002ea	5f		 pop	 edi
  002eb	5e		 pop	 esi
  002ec	8b 4d fc	 mov	 ecx, DWORD PTR __$ArrayPad$[ebp]
  002ef	33 cd		 xor	 ecx, ebp
  002f1	e8 00 00 00 00	 call	 @__security_check_cookie@4
  002f6	81 c4 24 04 00
	00		 add	 esp, 1060		; 00000424H
  002fc	3b ec		 cmp	 ebp, esp
  002fe	e8 00 00 00 00	 call	 __RTC_CheckEsp
  00303	8b e5		 mov	 esp, ebp
  00305	5d		 pop	 ebp
  00306	c2 10 00	 ret	 16			; 00000010H
  00309	8d 49 00	 npad	 3
$LN22@DisplaySwi:
  0030c	01 00 00 00	 DD	 1
  00310	00 00 00 00	 DD	 $LN21@DisplaySwi
$LN21@DisplaySwi:
  00314	f8 fb ff ff	 DD	 -1032			; fffffbf8H
  00318	00 04 00 00	 DD	 1024			; 00000400H
  0031c	00 00 00 00	 DD	 $LN20@DisplaySwi
$LN20@DisplaySwi:
  00320	73		 DB	 115			; 00000073H
  00321	7a		 DB	 122			; 0000007aH
  00322	00		 DB	 0
  00323	90		 npad	 1
$LN23@DisplaySwi:
  00324	00 00 00 00	 DD	 $LN1@DisplaySwi
  00328	00 00 00 00	 DD	 $LN8@DisplaySwi
  0032c	00 00 00 00	 DD	 $LN8@DisplaySwi
  00330	00 00 00 00	 DD	 $LN3@DisplaySwi
  00334	00 00 00 00	 DD	 $LN1@DisplaySwi
  00338	00 00 00 00	 DD	 $LN2@DisplaySwi
?DisplaySwitchToREFWarningProc@@YGHPAUHWND__@@IIJ@Z ENDP ; DisplaySwitchToREFWarningProc
_TEXT	ENDS
; Function compile flags: /Odtp /RTCsu
_TEXT	SEGMENT
_strFilePart$ = -1596					; size = 4
_strSearch$ = -1584					; size = 520
_strFullFileName$ = -1056				; size = 520
_strFullPath$ = -528					; size = 520
__$ArrayPad$ = -4					; size = 4
_strSearchPath$ = 8					; size = 4
_cchSearch$ = 12					; size = 4
_strStartAt$ = 16					; size = 4
_strLeafName$ = 20					; size = 4
?DXUTFindMediaSearchParentDirs@@YA_NPA_WHPB_W1@Z PROC	; DXUTFindMediaSearchParentDirs
; File d:\engine class\assignment 1\new scratch\dxut\optional\sdkmisc.cpp
; Line 427
  00000	55		 push	 ebp
  00001	8b ec		 mov	 ebp, esp
  00003	81 ec 40 06 00
	00		 sub	 esp, 1600		; 00000640H
  00009	56		 push	 esi
  0000a	57		 push	 edi
  0000b	8d bd c0 f9 ff
	ff		 lea	 edi, DWORD PTR [ebp-1600]
  00011	b9 90 01 00 00	 mov	 ecx, 400		; 00000190H
  00016	b8 cc cc cc cc	 mov	 eax, -858993460		; ccccccccH
  0001b	f3 ab		 rep stosd
  0001d	a1 00 00 00 00	 mov	 eax, DWORD PTR ___security_cookie
  00022	33 c5		 xor	 eax, ebp
  00024	89 45 fc	 mov	 DWORD PTR __$ArrayPad$[ebp], eax
; Line 431
  00027	33 c0		 xor	 eax, eax
  00029	66 89 85 f0 fd
	ff ff		 mov	 WORD PTR _strFullPath$[ebp], ax
  00030	68 06 02 00 00	 push	 518			; 00000206H
  00035	6a 00		 push	 0
  00037	8d 8d f2 fd ff
	ff		 lea	 ecx, DWORD PTR _strFullPath$[ebp+2]
  0003d	51		 push	 ecx
  0003e	e8 00 00 00 00	 call	 _memset
  00043	83 c4 0c	 add	 esp, 12			; 0000000cH
; Line 435
  00046	33 d2		 xor	 edx, edx
  00048	66 89 95 e0 fb
	ff ff		 mov	 WORD PTR _strFullFileName$[ebp], dx
  0004f	68 06 02 00 00	 push	 518			; 00000206H
  00054	6a 00		 push	 0
  00056	8d 85 e2 fb ff
	ff		 lea	 eax, DWORD PTR _strFullFileName$[ebp+2]
  0005c	50		 push	 eax
  0005d	e8 00 00 00 00	 call	 _memset
  00062	83 c4 0c	 add	 esp, 12			; 0000000cH
; Line 439
  00065	33 c9		 xor	 ecx, ecx
  00067	66 89 8d d0 f9
	ff ff		 mov	 WORD PTR _strSearch$[ebp], cx
  0006e	68 06 02 00 00	 push	 518			; 00000206H
  00073	6a 00		 push	 0
  00075	8d 95 d2 f9 ff
	ff		 lea	 edx, DWORD PTR _strSearch$[ebp+2]
  0007b	52		 push	 edx
  0007c	e8 00 00 00 00	 call	 _memset
  00081	83 c4 0c	 add	 esp, 12			; 0000000cH
; Line 440
  00084	c7 85 c4 f9 ff
	ff 00 00 00 00	 mov	 DWORD PTR _strFilePart$[ebp], 0
; Line 442
  0008e	8b f4		 mov	 esi, esp
  00090	8d 85 c4 f9 ff
	ff		 lea	 eax, DWORD PTR _strFilePart$[ebp]
  00096	50		 push	 eax
  00097	8d 8d f0 fd ff
	ff		 lea	 ecx, DWORD PTR _strFullPath$[ebp]
  0009d	51		 push	 ecx
  0009e	68 04 01 00 00	 push	 260			; 00000104H
  000a3	8b 55 10	 mov	 edx, DWORD PTR _strStartAt$[ebp]
  000a6	52		 push	 edx
  000a7	ff 15 00 00 00
	00		 call	 DWORD PTR __imp__GetFullPathNameW@16
  000ad	3b f4		 cmp	 esi, esp
  000af	e8 00 00 00 00	 call	 __RTC_CheckEsp
  000b4	85 c0		 test	 eax, eax
  000b6	75 07		 jne	 SHORT $LN4@DXUTFindMe
; Line 443
  000b8	32 c0		 xor	 al, al
  000ba	e9 ee 00 00 00	 jmp	 $LN6@DXUTFindMe
$LN4@DXUTFindMe:
; Line 446
  000bf	83 bd c4 f9 ff
	ff 00		 cmp	 DWORD PTR _strFilePart$[ebp], 0
  000c6	0f 84 df 00 00
	00		 je	 $LN3@DXUTFindMe
  000cc	8b 85 c4 f9 ff
	ff		 mov	 eax, DWORD PTR _strFilePart$[ebp]
  000d2	0f b7 08	 movzx	 ecx, WORD PTR [eax]
  000d5	85 c9		 test	 ecx, ecx
  000d7	0f 84 ce 00 00
	00		 je	 $LN3@DXUTFindMe
; Line 448
  000dd	8b f4		 mov	 esi, esp
  000df	8b 55 14	 mov	 edx, DWORD PTR _strLeafName$[ebp]
  000e2	52		 push	 edx
  000e3	8d 85 f0 fd ff
	ff		 lea	 eax, DWORD PTR _strFullPath$[ebp]
  000e9	50		 push	 eax
  000ea	68 00 00 00 00	 push	 OFFSET $SG163614
  000ef	68 04 01 00 00	 push	 260			; 00000104H
  000f4	8d 8d e0 fb ff
	ff		 lea	 ecx, DWORD PTR _strFullFileName$[ebp]
  000fa	51		 push	 ecx
  000fb	ff 15 00 00 00
	00		 call	 DWORD PTR __imp__swprintf_s
  00101	83 c4 14	 add	 esp, 20			; 00000014H
  00104	3b f4		 cmp	 esi, esp
  00106	e8 00 00 00 00	 call	 __RTC_CheckEsp
; Line 449
  0010b	8b f4		 mov	 esi, esp
  0010d	8d 95 e0 fb ff
	ff		 lea	 edx, DWORD PTR _strFullFileName$[ebp]
  00113	52		 push	 edx
  00114	ff 15 00 00 00
	00		 call	 DWORD PTR __imp__GetFileAttributesW@4
  0011a	3b f4		 cmp	 esi, esp
  0011c	e8 00 00 00 00	 call	 __RTC_CheckEsp
  00121	83 f8 ff	 cmp	 eax, -1
  00124	74 25		 je	 SHORT $LN2@DXUTFindMe
; Line 451
  00126	8b f4		 mov	 esi, esp
  00128	8d 85 e0 fb ff
	ff		 lea	 eax, DWORD PTR _strFullFileName$[ebp]
  0012e	50		 push	 eax
  0012f	8b 4d 0c	 mov	 ecx, DWORD PTR _cchSearch$[ebp]
  00132	51		 push	 ecx
  00133	8b 55 08	 mov	 edx, DWORD PTR _strSearchPath$[ebp]
  00136	52		 push	 edx
  00137	ff 15 00 00 00
	00		 call	 DWORD PTR __imp__wcscpy_s
  0013d	83 c4 0c	 add	 esp, 12			; 0000000cH
  00140	3b f4		 cmp	 esi, esp
  00142	e8 00 00 00 00	 call	 __RTC_CheckEsp
; Line 452
  00147	b0 01		 mov	 al, 1
  00149	eb 62		 jmp	 SHORT $LN6@DXUTFindMe
$LN2@DXUTFindMe:
; Line 455
  0014b	8b f4		 mov	 esi, esp
  0014d	8d 85 f0 fd ff
	ff		 lea	 eax, DWORD PTR _strFullPath$[ebp]
  00153	50		 push	 eax
  00154	68 00 00 00 00	 push	 OFFSET $SG163616
  00159	68 04 01 00 00	 push	 260			; 00000104H
  0015e	8d 8d d0 f9 ff
	ff		 lea	 ecx, DWORD PTR _strSearch$[ebp]
  00164	51		 push	 ecx
  00165	ff 15 00 00 00
	00		 call	 DWORD PTR __imp__swprintf_s
  0016b	83 c4 10	 add	 esp, 16			; 00000010H
  0016e	3b f4		 cmp	 esi, esp
  00170	e8 00 00 00 00	 call	 __RTC_CheckEsp
; Line 456
  00175	8b f4		 mov	 esi, esp
  00177	8d 95 c4 f9 ff
	ff		 lea	 edx, DWORD PTR _strFilePart$[ebp]
  0017d	52		 push	 edx
  0017e	8d 85 f0 fd ff
	ff		 lea	 eax, DWORD PTR _strFullPath$[ebp]
  00184	50		 push	 eax
  00185	68 04 01 00 00	 push	 260			; 00000104H
  0018a	8d 8d d0 f9 ff
	ff		 lea	 ecx, DWORD PTR _strSearch$[ebp]
  00190	51		 push	 ecx
  00191	ff 15 00 00 00
	00		 call	 DWORD PTR __imp__GetFullPathNameW@16
  00197	3b f4		 cmp	 esi, esp
  00199	e8 00 00 00 00	 call	 __RTC_CheckEsp
  0019e	85 c0		 test	 eax, eax
  001a0	75 04		 jne	 SHORT $LN1@DXUTFindMe
; Line 457
  001a2	32 c0		 xor	 al, al
  001a4	eb 07		 jmp	 SHORT $LN6@DXUTFindMe
$LN1@DXUTFindMe:
; Line 458
  001a6	e9 14 ff ff ff	 jmp	 $LN4@DXUTFindMe
$LN3@DXUTFindMe:
; Line 460
  001ab	32 c0		 xor	 al, al
$LN6@DXUTFindMe:
; Line 461
  001ad	52		 push	 edx
  001ae	8b cd		 mov	 ecx, ebp
  001b0	50		 push	 eax
  001b1	8d 15 00 00 00
	00		 lea	 edx, DWORD PTR $LN13@DXUTFindMe
  001b7	e8 00 00 00 00	 call	 @_RTC_CheckStackVars@8
  001bc	58		 pop	 eax
  001bd	5a		 pop	 edx
  001be	5f		 pop	 edi
  001bf	5e		 pop	 esi
  001c0	8b 4d fc	 mov	 ecx, DWORD PTR __$ArrayPad$[ebp]
  001c3	33 cd		 xor	 ecx, ebp
  001c5	e8 00 00 00 00	 call	 @__security_check_cookie@4
  001ca	81 c4 40 06 00
	00		 add	 esp, 1600		; 00000640H
  001d0	3b ec		 cmp	 ebp, esp
  001d2	e8 00 00 00 00	 call	 __RTC_CheckEsp
  001d7	8b e5		 mov	 esp, ebp
  001d9	5d		 pop	 ebp
  001da	c3		 ret	 0
  001db	90		 npad	 1
$LN13@DXUTFindMe:
  001dc	04 00 00 00	 DD	 4
  001e0	00 00 00 00	 DD	 $LN12@DXUTFindMe
$LN12@DXUTFindMe:
  001e4	f0 fd ff ff	 DD	 -528			; fffffdf0H
  001e8	08 02 00 00	 DD	 520			; 00000208H
  001ec	00 00 00 00	 DD	 $LN8@DXUTFindMe
  001f0	e0 fb ff ff	 DD	 -1056			; fffffbe0H
  001f4	08 02 00 00	 DD	 520			; 00000208H
  001f8	00 00 00 00	 DD	 $LN9@DXUTFindMe
  001fc	d0 f9 ff ff	 DD	 -1584			; fffff9d0H
  00200	08 02 00 00	 DD	 520			; 00000208H
  00204	00 00 00 00	 DD	 $LN10@DXUTFindMe
  00208	c4 f9 ff ff	 DD	 -1596			; fffff9c4H
  0020c	04 00 00 00	 DD	 4
  00210	00 00 00 00	 DD	 $LN11@DXUTFindMe
$LN11@DXUTFindMe:
  00214	73		 DB	 115			; 00000073H
  00215	74		 DB	 116			; 00000074H
  00216	72		 DB	 114			; 00000072H
  00217	46		 DB	 70			; 00000046H
  00218	69		 DB	 105			; 00000069H
  00219	6c		 DB	 108			; 0000006cH
  0021a	65		 DB	 101			; 00000065H
  0021b	50		 DB	 80			; 00000050H
  0021c	61		 DB	 97			; 00000061H
  0021d	72		 DB	 114			; 00000072H
  0021e	74		 DB	 116			; 00000074H
  0021f	00		 DB	 0
$LN10@DXUTFindMe:
  00220	73		 DB	 115			; 00000073H
  00221	74		 DB	 116			; 00000074H
  00222	72		 DB	 114			; 00000072H
  00223	53		 DB	 83			; 00000053H
  00224	65		 DB	 101			; 00000065H
  00225	61		 DB	 97			; 00000061H
  00226	72		 DB	 114			; 00000072H
  00227	63		 DB	 99			; 00000063H
  00228	68		 DB	 104			; 00000068H
  00229	00		 DB	 0
$LN9@DXUTFindMe:
  0022a	73		 DB	 115			; 00000073H
  0022b	74		 DB	 116			; 00000074H
  0022c	72		 DB	 114			; 00000072H
  0022d	46		 DB	 70			; 00000046H
  0022e	75		 DB	 117			; 00000075H
  0022f	6c		 DB	 108			; 0000006cH
  00230	6c		 DB	 108			; 0000006cH
  00231	46		 DB	 70			; 00000046H
  00232	69		 DB	 105			; 00000069H
  00233	6c		 DB	 108			; 0000006cH
  00234	65		 DB	 101			; 00000065H
  00235	4e		 DB	 78			; 0000004eH
  00236	61		 DB	 97			; 00000061H
  00237	6d		 DB	 109			; 0000006dH
  00238	65		 DB	 101			; 00000065H
  00239	00		 DB	 0
$LN8@DXUTFindMe:
  0023a	73		 DB	 115			; 00000073H
  0023b	74		 DB	 116			; 00000074H
  0023c	72		 DB	 114			; 00000072H
  0023d	46		 DB	 70			; 00000046H
  0023e	75		 DB	 117			; 00000075H
  0023f	6c		 DB	 108			; 0000006cH
  00240	6c		 DB	 108			; 0000006cH
  00241	50		 DB	 80			; 00000050H
  00242	61		 DB	 97			; 00000061H
  00243	74		 DB	 116			; 00000074H
  00244	68		 DB	 104			; 00000068H
  00245	00		 DB	 0
?DXUTFindMediaSearchParentDirs@@YA_NPA_WHPB_W1@Z ENDP	; DXUTFindMediaSearchParentDirs
_TEXT	ENDS
; Function compile flags: /Odtp /RTCsu
_TEXT	SEGMENT
_s_strSearchPath$ = -4					; size = 4
_strSearchPath$ = 8					; size = 4
_cchSearch$ = 12					; size = 4
_strLeaf$ = 16						; size = 4
_strExePath$ = 20					; size = 4
_strExeName$ = 24					; size = 4
?DXUTFindMediaSearchTypicalDirs@@YA_NPA_WHPB_W11@Z PROC	; DXUTFindMediaSearchTypicalDirs
; File d:\engine class\assignment 1\new scratch\dxut\optional\sdkmisc.cpp
; Line 350
  00000	55		 push	 ebp
  00001	8b ec		 mov	 ebp, esp
  00003	51		 push	 ecx
  00004	56		 push	 esi
  00005	c7 45 fc cc cc
	cc cc		 mov	 DWORD PTR [ebp-4], -858993460 ; ccccccccH
; Line 363
  0000c	8b f4		 mov	 esi, esp
  0000e	8b 45 10	 mov	 eax, DWORD PTR _strLeaf$[ebp]
  00011	50		 push	 eax
  00012	8b 4d 0c	 mov	 ecx, DWORD PTR _cchSearch$[ebp]
  00015	51		 push	 ecx
  00016	8b 55 08	 mov	 edx, DWORD PTR _strSearchPath$[ebp]
  00019	52		 push	 edx
  0001a	ff 15 00 00 00
	00		 call	 DWORD PTR __imp__wcscpy_s
  00020	83 c4 0c	 add	 esp, 12			; 0000000cH
  00023	3b f4		 cmp	 esi, esp
  00025	e8 00 00 00 00	 call	 __RTC_CheckEsp
; Line 364
  0002a	8b f4		 mov	 esi, esp
  0002c	8b 45 08	 mov	 eax, DWORD PTR _strSearchPath$[ebp]
  0002f	50		 push	 eax
  00030	ff 15 00 00 00
	00		 call	 DWORD PTR __imp__GetFileAttributesW@4
  00036	3b f4		 cmp	 esi, esp
  00038	e8 00 00 00 00	 call	 __RTC_CheckEsp
  0003d	83 f8 ff	 cmp	 eax, -1
  00040	74 07		 je	 SHORT $LN11@DXUTFindMe
; Line 365
  00042	b0 01		 mov	 al, 1
  00044	e9 89 02 00 00	 jmp	 $LN12@DXUTFindMe
$LN11@DXUTFindMe:
; Line 368
  00049	8b f4		 mov	 esi, esp
  0004b	8b 4d 10	 mov	 ecx, DWORD PTR _strLeaf$[ebp]
  0004e	51		 push	 ecx
  0004f	68 00 00 00 00	 push	 OFFSET $SG163580
  00054	8b 55 0c	 mov	 edx, DWORD PTR _cchSearch$[ebp]
  00057	52		 push	 edx
  00058	8b 45 08	 mov	 eax, DWORD PTR _strSearchPath$[ebp]
  0005b	50		 push	 eax
  0005c	ff 15 00 00 00
	00		 call	 DWORD PTR __imp__swprintf_s
  00062	83 c4 10	 add	 esp, 16			; 00000010H
  00065	3b f4		 cmp	 esi, esp
  00067	e8 00 00 00 00	 call	 __RTC_CheckEsp
; Line 369
  0006c	8b f4		 mov	 esi, esp
  0006e	8b 4d 08	 mov	 ecx, DWORD PTR _strSearchPath$[ebp]
  00071	51		 push	 ecx
  00072	ff 15 00 00 00
	00		 call	 DWORD PTR __imp__GetFileAttributesW@4
  00078	3b f4		 cmp	 esi, esp
  0007a	e8 00 00 00 00	 call	 __RTC_CheckEsp
  0007f	83 f8 ff	 cmp	 eax, -1
  00082	74 07		 je	 SHORT $LN10@DXUTFindMe
; Line 370
  00084	b0 01		 mov	 al, 1
  00086	e9 47 02 00 00	 jmp	 $LN12@DXUTFindMe
$LN10@DXUTFindMe:
; Line 373
  0008b	8b f4		 mov	 esi, esp
  0008d	8b 55 10	 mov	 edx, DWORD PTR _strLeaf$[ebp]
  00090	52		 push	 edx
  00091	68 00 00 00 00	 push	 OFFSET $SG163582
  00096	8b 45 0c	 mov	 eax, DWORD PTR _cchSearch$[ebp]
  00099	50		 push	 eax
  0009a	8b 4d 08	 mov	 ecx, DWORD PTR _strSearchPath$[ebp]
  0009d	51		 push	 ecx
  0009e	ff 15 00 00 00
	00		 call	 DWORD PTR __imp__swprintf_s
  000a4	83 c4 10	 add	 esp, 16			; 00000010H
  000a7	3b f4		 cmp	 esi, esp
  000a9	e8 00 00 00 00	 call	 __RTC_CheckEsp
; Line 374
  000ae	8b f4		 mov	 esi, esp
  000b0	8b 55 08	 mov	 edx, DWORD PTR _strSearchPath$[ebp]
  000b3	52		 push	 edx
  000b4	ff 15 00 00 00
	00		 call	 DWORD PTR __imp__GetFileAttributesW@4
  000ba	3b f4		 cmp	 esi, esp
  000bc	e8 00 00 00 00	 call	 __RTC_CheckEsp
  000c1	83 f8 ff	 cmp	 eax, -1
  000c4	74 07		 je	 SHORT $LN9@DXUTFindMe
; Line 375
  000c6	b0 01		 mov	 al, 1
  000c8	e9 05 02 00 00	 jmp	 $LN12@DXUTFindMe
$LN9@DXUTFindMe:
; Line 378
  000cd	8b f4		 mov	 esi, esp
  000cf	8b 45 10	 mov	 eax, DWORD PTR _strLeaf$[ebp]
  000d2	50		 push	 eax
  000d3	68 00 00 00 00	 push	 OFFSET $SG163584
  000d8	8b 4d 0c	 mov	 ecx, DWORD PTR _cchSearch$[ebp]
  000db	51		 push	 ecx
  000dc	8b 55 08	 mov	 edx, DWORD PTR _strSearchPath$[ebp]
  000df	52		 push	 edx
  000e0	ff 15 00 00 00
	00		 call	 DWORD PTR __imp__swprintf_s
  000e6	83 c4 10	 add	 esp, 16			; 00000010H
  000e9	3b f4		 cmp	 esi, esp
  000eb	e8 00 00 00 00	 call	 __RTC_CheckEsp
; Line 379
  000f0	8b f4		 mov	 esi, esp
  000f2	8b 45 08	 mov	 eax, DWORD PTR _strSearchPath$[ebp]
  000f5	50		 push	 eax
  000f6	ff 15 00 00 00
	00		 call	 DWORD PTR __imp__GetFileAttributesW@4
  000fc	3b f4		 cmp	 esi, esp
  000fe	e8 00 00 00 00	 call	 __RTC_CheckEsp
  00103	83 f8 ff	 cmp	 eax, -1
  00106	74 07		 je	 SHORT $LN8@DXUTFindMe
; Line 380
  00108	b0 01		 mov	 al, 1
  0010a	e9 c3 01 00 00	 jmp	 $LN12@DXUTFindMe
$LN8@DXUTFindMe:
; Line 383
  0010f	8b f4		 mov	 esi, esp
  00111	8b 4d 10	 mov	 ecx, DWORD PTR _strLeaf$[ebp]
  00114	51		 push	 ecx
  00115	8b 55 14	 mov	 edx, DWORD PTR _strExePath$[ebp]
  00118	52		 push	 edx
  00119	68 00 00 00 00	 push	 OFFSET $SG163586
  0011e	8b 45 0c	 mov	 eax, DWORD PTR _cchSearch$[ebp]
  00121	50		 push	 eax
  00122	8b 4d 08	 mov	 ecx, DWORD PTR _strSearchPath$[ebp]
  00125	51		 push	 ecx
  00126	ff 15 00 00 00
	00		 call	 DWORD PTR __imp__swprintf_s
  0012c	83 c4 14	 add	 esp, 20			; 00000014H
  0012f	3b f4		 cmp	 esi, esp
  00131	e8 00 00 00 00	 call	 __RTC_CheckEsp
; Line 384
  00136	8b f4		 mov	 esi, esp
  00138	8b 55 08	 mov	 edx, DWORD PTR _strSearchPath$[ebp]
  0013b	52		 push	 edx
  0013c	ff 15 00 00 00
	00		 call	 DWORD PTR __imp__GetFileAttributesW@4
  00142	3b f4		 cmp	 esi, esp
  00144	e8 00 00 00 00	 call	 __RTC_CheckEsp
  00149	83 f8 ff	 cmp	 eax, -1
  0014c	74 07		 je	 SHORT $LN7@DXUTFindMe
; Line 385
  0014e	b0 01		 mov	 al, 1
  00150	e9 7d 01 00 00	 jmp	 $LN12@DXUTFindMe
$LN7@DXUTFindMe:
; Line 388
  00155	8b f4		 mov	 esi, esp
  00157	8b 45 10	 mov	 eax, DWORD PTR _strLeaf$[ebp]
  0015a	50		 push	 eax
  0015b	8b 4d 14	 mov	 ecx, DWORD PTR _strExePath$[ebp]
  0015e	51		 push	 ecx
  0015f	68 00 00 00 00	 push	 OFFSET $SG163588
  00164	8b 55 0c	 mov	 edx, DWORD PTR _cchSearch$[ebp]
  00167	52		 push	 edx
  00168	8b 45 08	 mov	 eax, DWORD PTR _strSearchPath$[ebp]
  0016b	50		 push	 eax
  0016c	ff 15 00 00 00
	00		 call	 DWORD PTR __imp__swprintf_s
  00172	83 c4 14	 add	 esp, 20			; 00000014H
  00175	3b f4		 cmp	 esi, esp
  00177	e8 00 00 00 00	 call	 __RTC_CheckEsp
; Line 389
  0017c	8b f4		 mov	 esi, esp
  0017e	8b 4d 08	 mov	 ecx, DWORD PTR _strSearchPath$[ebp]
  00181	51		 push	 ecx
  00182	ff 15 00 00 00
	00		 call	 DWORD PTR __imp__GetFileAttributesW@4
  00188	3b f4		 cmp	 esi, esp
  0018a	e8 00 00 00 00	 call	 __RTC_CheckEsp
  0018f	83 f8 ff	 cmp	 eax, -1
  00192	74 07		 je	 SHORT $LN6@DXUTFindMe
; Line 390
  00194	b0 01		 mov	 al, 1
  00196	e9 37 01 00 00	 jmp	 $LN12@DXUTFindMe
$LN6@DXUTFindMe:
; Line 393
  0019b	8b f4		 mov	 esi, esp
  0019d	8b 55 10	 mov	 edx, DWORD PTR _strLeaf$[ebp]
  001a0	52		 push	 edx
  001a1	8b 45 14	 mov	 eax, DWORD PTR _strExePath$[ebp]
  001a4	50		 push	 eax
  001a5	68 00 00 00 00	 push	 OFFSET $SG163590
  001aa	8b 4d 0c	 mov	 ecx, DWORD PTR _cchSearch$[ebp]
  001ad	51		 push	 ecx
  001ae	8b 55 08	 mov	 edx, DWORD PTR _strSearchPath$[ebp]
  001b1	52		 push	 edx
  001b2	ff 15 00 00 00
	00		 call	 DWORD PTR __imp__swprintf_s
  001b8	83 c4 14	 add	 esp, 20			; 00000014H
  001bb	3b f4		 cmp	 esi, esp
  001bd	e8 00 00 00 00	 call	 __RTC_CheckEsp
; Line 394
  001c2	8b f4		 mov	 esi, esp
  001c4	8b 45 08	 mov	 eax, DWORD PTR _strSearchPath$[ebp]
  001c7	50		 push	 eax
  001c8	ff 15 00 00 00
	00		 call	 DWORD PTR __imp__GetFileAttributesW@4
  001ce	3b f4		 cmp	 esi, esp
  001d0	e8 00 00 00 00	 call	 __RTC_CheckEsp
  001d5	83 f8 ff	 cmp	 eax, -1
  001d8	74 07		 je	 SHORT $LN5@DXUTFindMe
; Line 395
  001da	b0 01		 mov	 al, 1
  001dc	e9 f1 00 00 00	 jmp	 $LN12@DXUTFindMe
$LN5@DXUTFindMe:
; Line 398
  001e1	8b f4		 mov	 esi, esp
  001e3	8b 4d 10	 mov	 ecx, DWORD PTR _strLeaf$[ebp]
  001e6	51		 push	 ecx
  001e7	8b 55 18	 mov	 edx, DWORD PTR _strExeName$[ebp]
  001ea	52		 push	 edx
  001eb	8b 45 14	 mov	 eax, DWORD PTR _strExePath$[ebp]
  001ee	50		 push	 eax
  001ef	68 00 00 00 00	 push	 OFFSET $SG163592
  001f4	8b 4d 0c	 mov	 ecx, DWORD PTR _cchSearch$[ebp]
  001f7	51		 push	 ecx
  001f8	8b 55 08	 mov	 edx, DWORD PTR _strSearchPath$[ebp]
  001fb	52		 push	 edx
  001fc	ff 15 00 00 00
	00		 call	 DWORD PTR __imp__swprintf_s
  00202	83 c4 18	 add	 esp, 24			; 00000018H
  00205	3b f4		 cmp	 esi, esp
  00207	e8 00 00 00 00	 call	 __RTC_CheckEsp
; Line 399
  0020c	8b f4		 mov	 esi, esp
  0020e	8b 45 08	 mov	 eax, DWORD PTR _strSearchPath$[ebp]
  00211	50		 push	 eax
  00212	ff 15 00 00 00
	00		 call	 DWORD PTR __imp__GetFileAttributesW@4
  00218	3b f4		 cmp	 esi, esp
  0021a	e8 00 00 00 00	 call	 __RTC_CheckEsp
  0021f	83 f8 ff	 cmp	 eax, -1
  00222	74 07		 je	 SHORT $LN4@DXUTFindMe
; Line 400
  00224	b0 01		 mov	 al, 1
  00226	e9 a7 00 00 00	 jmp	 $LN12@DXUTFindMe
$LN4@DXUTFindMe:
; Line 403
  0022b	8b f4		 mov	 esi, esp
  0022d	8b 4d 10	 mov	 ecx, DWORD PTR _strLeaf$[ebp]
  00230	51		 push	 ecx
  00231	8b 55 18	 mov	 edx, DWORD PTR _strExeName$[ebp]
  00234	52		 push	 edx
  00235	8b 45 14	 mov	 eax, DWORD PTR _strExePath$[ebp]
  00238	50		 push	 eax
  00239	68 00 00 00 00	 push	 OFFSET $SG163594
  0023e	8b 4d 0c	 mov	 ecx, DWORD PTR _cchSearch$[ebp]
  00241	51		 push	 ecx
  00242	8b 55 08	 mov	 edx, DWORD PTR _strSearchPath$[ebp]
  00245	52		 push	 edx
  00246	ff 15 00 00 00
	00		 call	 DWORD PTR __imp__swprintf_s
  0024c	83 c4 18	 add	 esp, 24			; 00000018H
  0024f	3b f4		 cmp	 esi, esp
  00251	e8 00 00 00 00	 call	 __RTC_CheckEsp
; Line 404
  00256	8b f4		 mov	 esi, esp
  00258	8b 45 08	 mov	 eax, DWORD PTR _strSearchPath$[ebp]
  0025b	50		 push	 eax
  0025c	ff 15 00 00 00
	00		 call	 DWORD PTR __imp__GetFileAttributesW@4
  00262	3b f4		 cmp	 esi, esp
  00264	e8 00 00 00 00	 call	 __RTC_CheckEsp
  00269	83 f8 ff	 cmp	 eax, -1
  0026c	74 04		 je	 SHORT $LN3@DXUTFindMe
; Line 405
  0026e	b0 01		 mov	 al, 1
  00270	eb 60		 jmp	 SHORT $LN12@DXUTFindMe
$LN3@DXUTFindMe:
; Line 408
  00272	e8 00 00 00 00	 call	 ?DXUTMediaSearchPath@@YAPA_WXZ ; DXUTMediaSearchPath
  00277	89 45 fc	 mov	 DWORD PTR _s_strSearchPath$[ebp], eax
; Line 409
  0027a	b9 02 00 00 00	 mov	 ecx, 2
  0027f	6b d1 00	 imul	 edx, ecx, 0
  00282	8b 45 fc	 mov	 eax, DWORD PTR _s_strSearchPath$[ebp]
  00285	0f b7 0c 10	 movzx	 ecx, WORD PTR [eax+edx]
  00289	85 c9		 test	 ecx, ecx
  0028b	74 43		 je	 SHORT $LN2@DXUTFindMe
; Line 411
  0028d	8b f4		 mov	 esi, esp
  0028f	8b 55 10	 mov	 edx, DWORD PTR _strLeaf$[ebp]
  00292	52		 push	 edx
  00293	8b 45 fc	 mov	 eax, DWORD PTR _s_strSearchPath$[ebp]
  00296	50		 push	 eax
  00297	68 00 00 00 00	 push	 OFFSET $SG163598
  0029c	8b 4d 0c	 mov	 ecx, DWORD PTR _cchSearch$[ebp]
  0029f	51		 push	 ecx
  002a0	8b 55 08	 mov	 edx, DWORD PTR _strSearchPath$[ebp]
  002a3	52		 push	 edx
  002a4	ff 15 00 00 00
	00		 call	 DWORD PTR __imp__swprintf_s
  002aa	83 c4 14	 add	 esp, 20			; 00000014H
  002ad	3b f4		 cmp	 esi, esp
  002af	e8 00 00 00 00	 call	 __RTC_CheckEsp
; Line 412
  002b4	8b f4		 mov	 esi, esp
  002b6	8b 45 08	 mov	 eax, DWORD PTR _strSearchPath$[ebp]
  002b9	50		 push	 eax
  002ba	ff 15 00 00 00
	00		 call	 DWORD PTR __imp__GetFileAttributesW@4
  002c0	3b f4		 cmp	 esi, esp
  002c2	e8 00 00 00 00	 call	 __RTC_CheckEsp
  002c7	83 f8 ff	 cmp	 eax, -1
  002ca	74 04		 je	 SHORT $LN2@DXUTFindMe
; Line 413
  002cc	b0 01		 mov	 al, 1
  002ce	eb 02		 jmp	 SHORT $LN12@DXUTFindMe
$LN2@DXUTFindMe:
; Line 416
  002d0	32 c0		 xor	 al, al
$LN12@DXUTFindMe:
; Line 417
  002d2	5e		 pop	 esi
  002d3	83 c4 04	 add	 esp, 4
  002d6	3b ec		 cmp	 ebp, esp
  002d8	e8 00 00 00 00	 call	 __RTC_CheckEsp
  002dd	8b e5		 mov	 esp, ebp
  002df	5d		 pop	 ebp
  002e0	c3		 ret	 0
?DXUTFindMediaSearchTypicalDirs@@YA_NPA_WHPB_W11@Z ENDP	; DXUTFindMediaSearchTypicalDirs
_TEXT	ENDS
; Function compile flags: /Odtp /RTCsu
;	COMDAT ??0?$function@$$A6AXPAUIPropertyBag2@@@Z@std@@QAE@$$T@Z
_TEXT	SEGMENT
_this$ = -4						; size = 4
___formal$ = 8						; size = 4
??0?$function@$$A6AXPAUIPropertyBag2@@@Z@std@@QAE@$$T@Z PROC ; std::function<void __cdecl(IPropertyBag2 *)>::function<void __cdecl(IPropertyBag2 *)>, COMDAT
; _this$ = ecx
; File c:\program files (x86)\microsoft visual studio 12.0\vc\include\functional
; Line 561
  00000	55		 push	 ebp
  00001	8b ec		 mov	 ebp, esp
  00003	51		 push	 ecx
  00004	c7 45 fc cc cc
	cc cc		 mov	 DWORD PTR [ebp-4], -858993460 ; ccccccccH
  0000b	89 4d fc	 mov	 DWORD PTR _this$[ebp], ecx
  0000e	8b 4d fc	 mov	 ecx, DWORD PTR _this$[ebp]
  00011	e8 00 00 00 00	 call	 ??0?$_Func_class@XPAUIPropertyBag2@@@std@@QAE@XZ ; std::_Func_class<void,IPropertyBag2 *>::_Func_class<void,IPropertyBag2 *>
; Line 563
  00016	8b 4d fc	 mov	 ecx, DWORD PTR _this$[ebp]
  00019	e8 00 00 00 00	 call	 ?_Reset@?$_Func_class@XPAUIPropertyBag2@@@std@@IAEXXZ ; std::_Func_class<void,IPropertyBag2 *>::_Reset
; Line 564
  0001e	8b 45 fc	 mov	 eax, DWORD PTR _this$[ebp]
  00021	83 c4 04	 add	 esp, 4
  00024	3b ec		 cmp	 ebp, esp
  00026	e8 00 00 00 00	 call	 __RTC_CheckEsp
  0002b	8b e5		 mov	 esp, ebp
  0002d	5d		 pop	 ebp
  0002e	c2 04 00	 ret	 4
??0?$function@$$A6AXPAUIPropertyBag2@@@Z@std@@QAE@$$T@Z ENDP ; std::function<void __cdecl(IPropertyBag2 *)>::function<void __cdecl(IPropertyBag2 *)>
_TEXT	ENDS
; Function compile flags: /Odtp /RTCsu
;	COMDAT ?_Set@?$_Func_class@XPAUIPropertyBag2@@@std@@AAEXPAV?$_Func_base@XPAUIPropertyBag2@@@2@@Z
_TEXT	SEGMENT
_this$ = -4						; size = 4
__Ptr$ = 8						; size = 4
?_Set@?$_Func_class@XPAUIPropertyBag2@@@std@@AAEXPAV?$_Func_base@XPAUIPropertyBag2@@@2@@Z PROC ; std::_Func_class<void,IPropertyBag2 *>::_Set, COMDAT
; _this$ = ecx
; File c:\program files (x86)\microsoft visual studio 12.0\vc\include\functional
; Line 510
  00000	55		 push	 ebp
  00001	8b ec		 mov	 ebp, esp
  00003	51		 push	 ecx
  00004	c7 45 fc cc cc
	cc cc		 mov	 DWORD PTR [ebp-4], -858993460 ; ccccccccH
  0000b	89 4d fc	 mov	 DWORD PTR _this$[ebp], ecx
; Line 511
  0000e	8b 45 fc	 mov	 eax, DWORD PTR _this$[ebp]
  00011	8b 4d 08	 mov	 ecx, DWORD PTR __Ptr$[ebp]
  00014	89 48 10	 mov	 DWORD PTR [eax+16], ecx
; Line 512
  00017	8b e5		 mov	 esp, ebp
  00019	5d		 pop	 ebp
  0001a	c2 04 00	 ret	 4
?_Set@?$_Func_class@XPAUIPropertyBag2@@@std@@AAEXPAV?$_Func_base@XPAUIPropertyBag2@@@2@@Z ENDP ; std::_Func_class<void,IPropertyBag2 *>::_Set
_TEXT	ENDS
; Function compile flags: /Odtp /RTCsu
;	COMDAT ?_Reset@?$_Func_class@XPAUIPropertyBag2@@@std@@IAEXXZ
_TEXT	SEGMENT
_this$ = -4						; size = 4
?_Reset@?$_Func_class@XPAUIPropertyBag2@@@std@@IAEXXZ PROC ; std::_Func_class<void,IPropertyBag2 *>::_Reset, COMDAT
; _this$ = ecx
; File c:\program files (x86)\microsoft visual studio 12.0\vc\include\functional
; Line 330
  00000	55		 push	 ebp
  00001	8b ec		 mov	 ebp, esp
  00003	51		 push	 ecx
  00004	c7 45 fc cc cc
	cc cc		 mov	 DWORD PTR [ebp-4], -858993460 ; ccccccccH
  0000b	89 4d fc	 mov	 DWORD PTR _this$[ebp], ecx
; Line 331
  0000e	6a 00		 push	 0
  00010	8b 4d fc	 mov	 ecx, DWORD PTR _this$[ebp]
  00013	e8 00 00 00 00	 call	 ?_Set@?$_Func_class@XPAUIPropertyBag2@@@std@@AAEXPAV?$_Func_base@XPAUIPropertyBag2@@@2@@Z ; std::_Func_class<void,IPropertyBag2 *>::_Set
; Line 332
  00018	83 c4 04	 add	 esp, 4
  0001b	3b ec		 cmp	 ebp, esp
  0001d	e8 00 00 00 00	 call	 __RTC_CheckEsp
  00022	8b e5		 mov	 esp, ebp
  00024	5d		 pop	 ebp
  00025	c3		 ret	 0
?_Reset@?$_Func_class@XPAUIPropertyBag2@@@std@@IAEXXZ ENDP ; std::_Func_class<void,IPropertyBag2 *>::_Reset
_TEXT	ENDS
; Function compile flags: /Odtp /RTCsu
;	COMDAT ??0?$_Func_class@XPAUIPropertyBag2@@@std@@QAE@XZ
_TEXT	SEGMENT
_this$ = -4						; size = 4
??0?$_Func_class@XPAUIPropertyBag2@@@std@@QAE@XZ PROC	; std::_Func_class<void,IPropertyBag2 *>::_Func_class<void,IPropertyBag2 *>, COMDAT
; _this$ = ecx
; File c:\program files (x86)\microsoft visual studio 12.0\vc\include\functional
; Line 308
  00000	55		 push	 ebp
  00001	8b ec		 mov	 ebp, esp
  00003	51		 push	 ecx
  00004	c7 45 fc cc cc
	cc cc		 mov	 DWORD PTR [ebp-4], -858993460 ; ccccccccH
  0000b	89 4d fc	 mov	 DWORD PTR _this$[ebp], ecx
  0000e	8b 45 fc	 mov	 eax, DWORD PTR _this$[ebp]
  00011	c7 40 10 00 00
	00 00		 mov	 DWORD PTR [eax+16], 0
; Line 309
  00018	8b 45 fc	 mov	 eax, DWORD PTR _this$[ebp]
  0001b	8b e5		 mov	 esp, ebp
  0001d	5d		 pop	 ebp
  0001e	c3		 ret	 0
??0?$_Func_class@XPAUIPropertyBag2@@@std@@QAE@XZ ENDP	; std::_Func_class<void,IPropertyBag2 *>::_Func_class<void,IPropertyBag2 *>
_TEXT	ENDS
; Function compile flags: /Odtp /RTCsu
;	COMDAT ??__E_Tuple_alloc@std@@YAXXZ
text$di	SEGMENT
$T1 = -1						; size = 1
??__E_Tuple_alloc@std@@YAXXZ PROC			; std::`dynamic initializer for '_Tuple_alloc'', COMDAT
; File c:\program files (x86)\microsoft visual studio 12.0\vc\include\tuple
; Line 66
  00000	55		 push	 ebp
  00001	8b ec		 mov	 ebp, esp
  00003	51		 push	 ecx
  00004	c7 45 fc cc cc
	cc cc		 mov	 DWORD PTR [ebp-4], -858993460 ; ccccccccH
  0000b	33 c0		 xor	 eax, eax
  0000d	88 45 ff	 mov	 BYTE PTR $T1[ebp], al
  00010	8b e5		 mov	 esp, ebp
  00012	5d		 pop	 ebp
  00013	c3		 ret	 0
??__E_Tuple_alloc@std@@YAXXZ ENDP			; std::`dynamic initializer for '_Tuple_alloc''
text$di	ENDS
; Function compile flags: /Odtp /RTCsu
;	COMDAT ??__Eignore@std@@YAXXZ
text$di	SEGMENT
??__Eignore@std@@YAXXZ PROC				; std::`dynamic initializer for 'ignore'', COMDAT
; File c:\program files (x86)\microsoft visual studio 12.0\vc\include\tuple
; Line 59
  00000	55		 push	 ebp
  00001	8b ec		 mov	 ebp, esp
  00003	b9 00 00 00 00	 mov	 ecx, OFFSET _ignore
  00008	e8 00 00 00 00	 call	 ??0_Ignore@std@@QAE@XZ	; std::_Ignore::_Ignore
  0000d	3b ec		 cmp	 ebp, esp
  0000f	e8 00 00 00 00	 call	 __RTC_CheckEsp
  00014	5d		 pop	 ebp
  00015	c3		 ret	 0
??__Eignore@std@@YAXXZ ENDP				; std::`dynamic initializer for 'ignore''
text$di	ENDS
; Function compile flags: /Odtp /RTCsu
;	COMDAT ??0_Ignore@std@@QAE@XZ
_TEXT	SEGMENT
_this$ = -4						; size = 4
??0_Ignore@std@@QAE@XZ PROC				; std::_Ignore::_Ignore, COMDAT
; _this$ = ecx
; File c:\program files (x86)\microsoft visual studio 12.0\vc\include\tuple
; Line 49
  00000	55		 push	 ebp
  00001	8b ec		 mov	 ebp, esp
  00003	51		 push	 ecx
  00004	c7 45 fc cc cc
	cc cc		 mov	 DWORD PTR [ebp-4], -858993460 ; ccccccccH
  0000b	89 4d fc	 mov	 DWORD PTR _this$[ebp], ecx
; Line 51
  0000e	8b 45 fc	 mov	 eax, DWORD PTR _this$[ebp]
  00011	8b e5		 mov	 esp, ebp
  00013	5d		 pop	 ebp
  00014	c3		 ret	 0
??0_Ignore@std@@QAE@XZ ENDP				; std::_Ignore::_Ignore
_TEXT	ENDS
; Function compile flags: /Odtp /RTCsu
_TEXT	SEGMENT
tv158 = -352						; size = 16
tv156 = -336						; size = 16
$T1 = -320						; size = 64
$T2 = -256						; size = 64
$T3 = -192						; size = 64
$T4 = -128						; size = 16
$T5 = -112						; size = 16
$T6 = -96						; size = 16
$T7 = -80						; size = 64
__$ArrayPad$ = -4					; size = 4
___$ReturnUdt$ = 8					; size = 4
_dwFace$ = 12						; size = 4
?DXUTGetCubeMapViewMatrix@@YG?AUXMMATRIX@DirectX@@K@Z PROC ; DXUTGetCubeMapViewMatrix
; File d:\engine class\assignment 1\new scratch\dxut\optional\sdkmisc.cpp
; Line 779
  00000	53		 push	 ebx
  00001	8b dc		 mov	 ebx, esp
  00003	83 ec 08	 sub	 esp, 8
  00006	83 e4 f0	 and	 esp, -16		; fffffff0H
  00009	83 c4 04	 add	 esp, 4
  0000c	55		 push	 ebp
  0000d	8b 6b 04	 mov	 ebp, DWORD PTR [ebx+4]
  00010	89 6c 24 04	 mov	 DWORD PTR [esp+4], ebp
  00014	8b ec		 mov	 ebp, esp
  00016	81 ec 68 01 00
	00		 sub	 esp, 360		; 00000168H
  0001c	56		 push	 esi
  0001d	57		 push	 edi
  0001e	8d bd 98 fe ff
	ff		 lea	 edi, DWORD PTR [ebp-360]
  00024	b9 5a 00 00 00	 mov	 ecx, 90			; 0000005aH
  00029	b8 cc cc cc cc	 mov	 eax, -858993460		; ccccccccH
  0002e	f3 ab		 rep stosd
  00030	a1 00 00 00 00	 mov	 eax, DWORD PTR ___security_cookie
  00035	33 c5		 xor	 eax, ebp
  00037	89 45 fc	 mov	 DWORD PTR __$ArrayPad$[ebp], eax
; Line 803
  0003a	83 7b 0c 06	 cmp	 DWORD PTR _dwFace$[ebx], 6
  0003e	73 06		 jae	 SHORT $LN1@DXUTGetCub
  00040	83 7b 0c 06	 cmp	 DWORD PTR _dwFace$[ebx], 6
  00044	72 46		 jb	 SHORT $LN2@DXUTGetCub
$LN1@DXUTGetCub:
; Line 804
  00046	e8 00 00 00 00	 call	 ?XMMatrixIdentity@DirectX@@YQ?AUXMMATRIX@1@XZ ; DirectX::XMMatrixIdentity
  0004b	0f 29 9d 30 ff
	ff ff		 movaps	 XMMWORD PTR $T2[ebp+48], xmm3
  00052	0f 29 95 20 ff
	ff ff		 movaps	 XMMWORD PTR $T2[ebp+32], xmm2
  00059	0f 29 8d 10 ff
	ff ff		 movaps	 XMMWORD PTR $T2[ebp+16], xmm1
  00060	0f 29 85 00 ff
	ff ff		 movaps	 XMMWORD PTR $T2[ebp], xmm0
  00067	b9 10 00 00 00	 mov	 ecx, 16			; 00000010H
  0006c	8d b5 00 ff ff
	ff		 lea	 esi, DWORD PTR $T2[ebp]
  00072	8d 7d b0	 lea	 edi, DWORD PTR $T7[ebp]
  00075	f3 a5		 rep movsd
  00077	b9 10 00 00 00	 mov	 ecx, 16			; 00000010H
  0007c	8d 75 b0	 lea	 esi, DWORD PTR $T7[ebp]
  0007f	8b 7b 08	 mov	 edi, DWORD PTR ___$ReturnUdt$[ebx]
  00082	f3 a5		 rep movsd
  00084	8b 43 08	 mov	 eax, DWORD PTR ___$ReturnUdt$[ebx]
  00087	e9 a4 00 00 00	 jmp	 $LN3@DXUTGetCub
$LN2@DXUTGetCub:
; Line 807
  0008c	8d 45 a0	 lea	 eax, DWORD PTR $T6[ebp]
  0008f	50		 push	 eax
  00090	8b 4b 0c	 mov	 ecx, DWORD PTR _dwFace$[ebx]
  00093	c1 e1 04	 shl	 ecx, 4
  00096	81 c1 00 00 00
	00		 add	 ecx, OFFSET ?s_vUpDir@?1??DXUTGetCubeMapViewMatrix@@YG?AUXMMATRIX@DirectX@@K@Z@4QBUXMVECTORF32@3@B
  0009c	e8 00 00 00 00	 call	 ??BXMVECTORF32@DirectX@@QBE?AT__m128@@XZ ; DirectX::XMVECTORF32::operator __m128
  000a1	0f 10 00	 movups	 xmm0, XMMWORD PTR [eax]
  000a4	8d 4d 90	 lea	 ecx, DWORD PTR $T5[ebp]
  000a7	51		 push	 ecx
  000a8	8b 4b 0c	 mov	 ecx, DWORD PTR _dwFace$[ebx]
  000ab	c1 e1 04	 shl	 ecx, 4
  000ae	81 c1 00 00 00
	00		 add	 ecx, OFFSET ?s_vLookDir@?1??DXUTGetCubeMapViewMatrix@@YG?AUXMMATRIX@DirectX@@K@Z@4QBUXMVECTORF32@3@B
  000b4	0f 29 85 b0 fe
	ff ff		 movaps	 XMMWORD PTR tv156[ebp], xmm0
  000bb	e8 00 00 00 00	 call	 ??BXMVECTORF32@DirectX@@QBE?AT__m128@@XZ ; DirectX::XMVECTORF32::operator __m128
  000c0	0f 10 00	 movups	 xmm0, XMMWORD PTR [eax]
  000c3	8d 55 80	 lea	 edx, DWORD PTR $T4[ebp]
  000c6	52		 push	 edx
  000c7	b9 00 00 00 00	 mov	 ecx, OFFSET ?g_XMZero@DirectX@@3UXMVECTORF32@1@B ; DirectX::g_XMZero
  000cc	0f 29 85 a0 fe
	ff ff		 movaps	 XMMWORD PTR tv158[ebp], xmm0
  000d3	e8 00 00 00 00	 call	 ??BXMVECTORF32@DirectX@@QBE?AT__m128@@XZ ; DirectX::XMVECTORF32::operator __m128
  000d8	0f 10 00	 movups	 xmm0, XMMWORD PTR [eax]
  000db	0f 28 8d a0 fe
	ff ff		 movaps	 xmm1, XMMWORD PTR tv158[ebp]
  000e2	0f 28 95 b0 fe
	ff ff		 movaps	 xmm2, XMMWORD PTR tv156[ebp]
  000e9	e8 00 00 00 00	 call	 ?XMMatrixLookAtLH@DirectX@@YQ?AUXMMATRIX@1@T__m128@@00@Z ; DirectX::XMMatrixLookAtLH
  000ee	0f 29 9d f0 fe
	ff ff		 movaps	 XMMWORD PTR $T1[ebp+48], xmm3
  000f5	0f 29 95 e0 fe
	ff ff		 movaps	 XMMWORD PTR $T1[ebp+32], xmm2
  000fc	0f 29 8d d0 fe
	ff ff		 movaps	 XMMWORD PTR $T1[ebp+16], xmm1
  00103	0f 29 85 c0 fe
	ff ff		 movaps	 XMMWORD PTR $T1[ebp], xmm0
  0010a	b9 10 00 00 00	 mov	 ecx, 16			; 00000010H
  0010f	8d b5 c0 fe ff
	ff		 lea	 esi, DWORD PTR $T1[ebp]
  00115	8d bd 40 ff ff
	ff		 lea	 edi, DWORD PTR $T3[ebp]
  0011b	f3 a5		 rep movsd
  0011d	b9 10 00 00 00	 mov	 ecx, 16			; 00000010H
  00122	8d b5 40 ff ff
	ff		 lea	 esi, DWORD PTR $T3[ebp]
  00128	8b 7b 08	 mov	 edi, DWORD PTR ___$ReturnUdt$[ebx]
  0012b	f3 a5		 rep movsd
  0012d	8b 43 08	 mov	 eax, DWORD PTR ___$ReturnUdt$[ebx]
$LN3@DXUTGetCub:
; Line 808
  00130	5f		 pop	 edi
  00131	5e		 pop	 esi
  00132	8b 4d fc	 mov	 ecx, DWORD PTR __$ArrayPad$[ebp]
  00135	33 cd		 xor	 ecx, ebp
  00137	e8 00 00 00 00	 call	 @__security_check_cookie@4
  0013c	8b e5		 mov	 esp, ebp
  0013e	5d		 pop	 ebp
  0013f	8b e3		 mov	 esp, ebx
  00141	5b		 pop	 ebx
  00142	c2 08 00	 ret	 8
?DXUTGetCubeMapViewMatrix@@YG?AUXMMATRIX@DirectX@@K@Z ENDP ; DXUTGetCubeMapViewMatrix
_TEXT	ENDS
; Function compile flags: /Odtp /RTCsu
_TEXT	SEGMENT
tv95 = -16						; size = 4
tv94 = -12						; size = 4
$T1 = -8						; size = 4
_hr$ = -4						; size = 4
_pContext$ = 8						; size = 4
_pSource$ = 12						; size = 4
_usedds$ = 16						; size = 1
_szFileName$ = 20					; size = 4
?DXUTSaveTextureToFile@@YGJPAUID3D11DeviceContext@@PAUID3D11Resource@@_NPB_W@Z PROC ; DXUTSaveTextureToFile
; File d:\engine class\assignment 1\new scratch\dxut\optional\sdkmisc.cpp
; Line 756
  00000	55		 push	 ebp
  00001	8b ec		 mov	 ebp, esp
  00003	83 ec 10	 sub	 esp, 16			; 00000010H
  00006	b8 cc cc cc cc	 mov	 eax, -858993460		; ccccccccH
  0000b	89 45 f0	 mov	 DWORD PTR [ebp-16], eax
  0000e	89 45 f4	 mov	 DWORD PTR [ebp-12], eax
  00011	89 45 f8	 mov	 DWORD PTR [ebp-8], eax
  00014	89 45 fc	 mov	 DWORD PTR [ebp-4], eax
; Line 757
  00017	83 7d 08 00	 cmp	 DWORD PTR _pContext$[ebp], 0
  0001b	74 0c		 je	 SHORT $LN3@DXUTSaveTe
  0001d	83 7d 0c 00	 cmp	 DWORD PTR _pSource$[ebp], 0
  00021	74 06		 je	 SHORT $LN3@DXUTSaveTe
  00023	83 7d 14 00	 cmp	 DWORD PTR _szFileName$[ebp], 0
  00027	75 07		 jne	 SHORT $LN4@DXUTSaveTe
$LN3@DXUTSaveTe:
; Line 758
  00029	b8 57 00 07 80	 mov	 eax, -2147024809	; 80070057H
  0002e	eb 5a		 jmp	 SHORT $LN5@DXUTSaveTe
$LN4@DXUTSaveTe:
; Line 762
  00030	0f b6 45 10	 movzx	 eax, BYTE PTR _usedds$[ebp]
  00034	85 c0		 test	 eax, eax
  00036	74 19		 je	 SHORT $LN2@DXUTSaveTe
; Line 764
  00038	8b 4d 14	 mov	 ecx, DWORD PTR _szFileName$[ebp]
  0003b	51		 push	 ecx
  0003c	8b 55 0c	 mov	 edx, DWORD PTR _pSource$[ebp]
  0003f	52		 push	 edx
  00040	8b 45 08	 mov	 eax, DWORD PTR _pContext$[ebp]
  00043	50		 push	 eax
  00044	e8 00 00 00 00	 call	 ?SaveDDSTextureToFile@DirectX@@YAJPAUID3D11DeviceContext@@PAUID3D11Resource@@PB_W@Z ; DirectX::SaveDDSTextureToFile
  00049	83 c4 0c	 add	 esp, 12			; 0000000cH
  0004c	89 45 fc	 mov	 DWORD PTR _hr$[ebp], eax
; Line 766
  0004f	eb 36		 jmp	 SHORT $LN1@DXUTSaveTe
$LN2@DXUTSaveTe:
; Line 768
  00051	83 ec 18	 sub	 esp, 24			; 00000018H
  00054	8b cc		 mov	 ecx, esp
  00056	89 65 f8	 mov	 DWORD PTR $T1[ebp], esp
  00059	6a 00		 push	 0
  0005b	e8 00 00 00 00	 call	 ??0?$function@$$A6AXPAUIPropertyBag2@@@Z@std@@QAE@$$T@Z ; std::function<void __cdecl(IPropertyBag2 *)>::function<void __cdecl(IPropertyBag2 *)>
  00060	89 45 f4	 mov	 DWORD PTR tv94[ebp], eax
  00063	6a 00		 push	 0
  00065	8b 4d 14	 mov	 ecx, DWORD PTR _szFileName$[ebp]
  00068	51		 push	 ecx
  00069	68 00 00 00 00	 push	 OFFSET _GUID_ContainerFormatBmp
  0006e	8b 55 0c	 mov	 edx, DWORD PTR _pSource$[ebp]
  00071	52		 push	 edx
  00072	8b 45 08	 mov	 eax, DWORD PTR _pContext$[ebp]
  00075	50		 push	 eax
  00076	e8 00 00 00 00	 call	 ?SaveWICTextureToFile@DirectX@@YAJPAUID3D11DeviceContext@@PAUID3D11Resource@@ABU_GUID@@PB_WPBU4@V?$function@$$A6AXPAUIPropertyBag2@@@Z@std@@@Z ; DirectX::SaveWICTextureToFile
  0007b	83 c4 2c	 add	 esp, 44			; 0000002cH
  0007e	89 45 f0	 mov	 DWORD PTR tv95[ebp], eax
  00081	8b 4d f0	 mov	 ecx, DWORD PTR tv95[ebp]
  00084	89 4d fc	 mov	 DWORD PTR _hr$[ebp], ecx
$LN1@DXUTSaveTe:
; Line 771
  00087	8b 45 fc	 mov	 eax, DWORD PTR _hr$[ebp]
$LN5@DXUTSaveTe:
; Line 772
  0008a	83 c4 10	 add	 esp, 16			; 00000010H
  0008d	3b ec		 cmp	 ebp, esp
  0008f	e8 00 00 00 00	 call	 __RTC_CheckEsp
  00094	8b e5		 mov	 esp, ebp
  00096	5d		 pop	 ebp
  00097	c2 10 00	 ret	 16			; 00000010H
?DXUTSaveTextureToFile@@YGJPAUID3D11DeviceContext@@PAUID3D11Resource@@_NPB_W@Z ENDP ; DXUTSaveTextureToFile
_TEXT	ENDS
; Function compile flags: /Odtp /RTCsu
_TEXT	SEGMENT
_ext$ = -1052						; size = 512
_hr$ = -536						; size = 4
_str$ = -528						; size = 520
__$ArrayPad$ = -4					; size = 4
_d3dDevice$ = 8						; size = 4
_szFileName$ = 12					; size = 4
_texture$ = 16						; size = 4
?DXUTCreateTextureFromFile@@YGJPAUID3D11Device@@PB_WPAPAUID3D11Resource@@@Z PROC ; DXUTCreateTextureFromFile
; File d:\engine class\assignment 1\new scratch\dxut\optional\sdkmisc.cpp
; Line 730
  00000	55		 push	 ebp
  00001	8b ec		 mov	 ebp, esp
  00003	81 ec 20 04 00
	00		 sub	 esp, 1056		; 00000420H
  00009	56		 push	 esi
  0000a	57		 push	 edi
  0000b	8d bd e0 fb ff
	ff		 lea	 edi, DWORD PTR [ebp-1056]
  00011	b9 08 01 00 00	 mov	 ecx, 264		; 00000108H
  00016	b8 cc cc cc cc	 mov	 eax, -858993460		; ccccccccH
  0001b	f3 ab		 rep stosd
  0001d	a1 00 00 00 00	 mov	 eax, DWORD PTR ___security_cookie
  00022	33 c5		 xor	 eax, ebp
  00024	89 45 fc	 mov	 DWORD PTR __$ArrayPad$[ebp], eax
; Line 731
  00027	83 7d 08 00	 cmp	 DWORD PTR _d3dDevice$[ebp], 0
  0002b	74 0c		 je	 SHORT $LN4@DXUTCreate
  0002d	83 7d 0c 00	 cmp	 DWORD PTR _szFileName$[ebp], 0
  00031	74 06		 je	 SHORT $LN4@DXUTCreate
  00033	83 7d 10 00	 cmp	 DWORD PTR _texture$[ebp], 0
  00037	75 0a		 jne	 SHORT $LN5@DXUTCreate
$LN4@DXUTCreate:
; Line 732
  00039	b8 57 00 07 80	 mov	 eax, -2147024809	; 80070057H
  0003e	e9 d0 00 00 00	 jmp	 $LN6@DXUTCreate
$LN5@DXUTCreate:
; Line 735
  00043	8b 45 0c	 mov	 eax, DWORD PTR _szFileName$[ebp]
  00046	50		 push	 eax
  00047	68 04 01 00 00	 push	 260			; 00000104H
  0004c	8d 8d f0 fd ff
	ff		 lea	 ecx, DWORD PTR _str$[ebp]
  00052	51		 push	 ecx
  00053	e8 00 00 00 00	 call	 ?DXUTFindDXSDKMediaFileCch@@YGJPA_WHPB_W@Z ; DXUTFindDXSDKMediaFileCch
  00058	89 85 e8 fd ff
	ff		 mov	 DWORD PTR _hr$[ebp], eax
; Line 736
  0005e	83 bd e8 fd ff
	ff 00		 cmp	 DWORD PTR _hr$[ebp], 0
  00065	7d 0b		 jge	 SHORT $LN3@DXUTCreate
; Line 737
  00067	8b 85 e8 fd ff
	ff		 mov	 eax, DWORD PTR _hr$[ebp]
  0006d	e9 a1 00 00 00	 jmp	 $LN6@DXUTCreate
$LN3@DXUTCreate:
; Line 740
  00072	8b f4		 mov	 esi, esp
  00074	68 00 01 00 00	 push	 256			; 00000100H
  00079	8d 95 e4 fb ff
	ff		 lea	 edx, DWORD PTR _ext$[ebp]
  0007f	52		 push	 edx
  00080	6a 00		 push	 0
  00082	6a 00		 push	 0
  00084	6a 00		 push	 0
  00086	6a 00		 push	 0
  00088	6a 00		 push	 0
  0008a	6a 00		 push	 0
  0008c	8d 85 f0 fd ff
	ff		 lea	 eax, DWORD PTR _str$[ebp]
  00092	50		 push	 eax
  00093	ff 15 00 00 00
	00		 call	 DWORD PTR __imp___wsplitpath_s
  00099	83 c4 24	 add	 esp, 36			; 00000024H
  0009c	3b f4		 cmp	 esi, esp
  0009e	e8 00 00 00 00	 call	 __RTC_CheckEsp
; Line 742
  000a3	8b f4		 mov	 esi, esp
  000a5	68 00 00 00 00	 push	 OFFSET $SG163669
  000aa	8d 8d e4 fb ff
	ff		 lea	 ecx, DWORD PTR _ext$[ebp]
  000b0	51		 push	 ecx
  000b1	ff 15 00 00 00
	00		 call	 DWORD PTR __imp___wcsicmp
  000b7	83 c4 08	 add	 esp, 8
  000ba	3b f4		 cmp	 esi, esp
  000bc	e8 00 00 00 00	 call	 __RTC_CheckEsp
  000c1	85 c0		 test	 eax, eax
  000c3	75 25		 jne	 SHORT $LN2@DXUTCreate
; Line 744
  000c5	6a 00		 push	 0
  000c7	6a 00		 push	 0
  000c9	6a 00		 push	 0
  000cb	8b 55 10	 mov	 edx, DWORD PTR _texture$[ebp]
  000ce	52		 push	 edx
  000cf	8d 85 f0 fd ff
	ff		 lea	 eax, DWORD PTR _str$[ebp]
  000d5	50		 push	 eax
  000d6	8b 4d 08	 mov	 ecx, DWORD PTR _d3dDevice$[ebp]
  000d9	51		 push	 ecx
  000da	e8 00 00 00 00	 call	 ?CreateDDSTextureFromFile@DirectX@@YAJPAUID3D11Device@@PB_WPAPAUID3D11Resource@@PAPAUID3D11ShaderResourceView@@IPAW4DDS_ALPHA_MODE@1@@Z ; DirectX::CreateDDSTextureFromFile
  000df	83 c4 18	 add	 esp, 24			; 00000018H
  000e2	89 85 e8 fd ff
	ff		 mov	 DWORD PTR _hr$[ebp], eax
; Line 746
  000e8	eb 23		 jmp	 SHORT $LN1@DXUTCreate
$LN2@DXUTCreate:
; Line 748
  000ea	6a 00		 push	 0
  000ec	6a 00		 push	 0
  000ee	8b 55 10	 mov	 edx, DWORD PTR _texture$[ebp]
  000f1	52		 push	 edx
  000f2	8d 85 f0 fd ff
	ff		 lea	 eax, DWORD PTR _str$[ebp]
  000f8	50		 push	 eax
  000f9	6a 00		 push	 0
  000fb	8b 4d 08	 mov	 ecx, DWORD PTR _d3dDevice$[ebp]
  000fe	51		 push	 ecx
  000ff	e8 00 00 00 00	 call	 ?CreateWICTextureFromFile@DirectX@@YAJPAUID3D11Device@@PAUID3D11DeviceContext@@PB_WPAPAUID3D11Resource@@PAPAUID3D11ShaderResourceView@@I@Z ; DirectX::CreateWICTextureFromFile
  00104	83 c4 18	 add	 esp, 24			; 00000018H
  00107	89 85 e8 fd ff
	ff		 mov	 DWORD PTR _hr$[ebp], eax
$LN1@DXUTCreate:
; Line 751
  0010d	8b 85 e8 fd ff
	ff		 mov	 eax, DWORD PTR _hr$[ebp]
$LN6@DXUTCreate:
; Line 752
  00113	52		 push	 edx
  00114	8b cd		 mov	 ecx, ebp
  00116	50		 push	 eax
  00117	8d 15 00 00 00
	00		 lea	 edx, DWORD PTR $LN11@DXUTCreate
  0011d	e8 00 00 00 00	 call	 @_RTC_CheckStackVars@8
  00122	58		 pop	 eax
  00123	5a		 pop	 edx
  00124	5f		 pop	 edi
  00125	5e		 pop	 esi
  00126	8b 4d fc	 mov	 ecx, DWORD PTR __$ArrayPad$[ebp]
  00129	33 cd		 xor	 ecx, ebp
  0012b	e8 00 00 00 00	 call	 @__security_check_cookie@4
  00130	81 c4 20 04 00
	00		 add	 esp, 1056		; 00000420H
  00136	3b ec		 cmp	 ebp, esp
  00138	e8 00 00 00 00	 call	 __RTC_CheckEsp
  0013d	8b e5		 mov	 esp, ebp
  0013f	5d		 pop	 ebp
  00140	c2 0c 00	 ret	 12			; 0000000cH
  00143	90		 npad	 1
$LN11@DXUTCreate:
  00144	02 00 00 00	 DD	 2
  00148	00 00 00 00	 DD	 $LN10@DXUTCreate
$LN10@DXUTCreate:
  0014c	f0 fd ff ff	 DD	 -528			; fffffdf0H
  00150	08 02 00 00	 DD	 520			; 00000208H
  00154	00 00 00 00	 DD	 $LN8@DXUTCreate
  00158	e4 fb ff ff	 DD	 -1052			; fffffbe4H
  0015c	00 02 00 00	 DD	 512			; 00000200H
  00160	00 00 00 00	 DD	 $LN9@DXUTCreate
$LN9@DXUTCreate:
  00164	65		 DB	 101			; 00000065H
  00165	78		 DB	 120			; 00000078H
  00166	74		 DB	 116			; 00000074H
  00167	00		 DB	 0
$LN8@DXUTCreate:
  00168	73		 DB	 115			; 00000073H
  00169	74		 DB	 116			; 00000074H
  0016a	72		 DB	 114			; 00000072H
  0016b	00		 DB	 0
?DXUTCreateTextureFromFile@@YGJPAUID3D11Device@@PB_WPAPAUID3D11Resource@@@Z ENDP ; DXUTCreateTextureFromFile
_TEXT	ENDS
; Function compile flags: /Odtp /RTCsu
_TEXT	SEGMENT
_ext$ = -1052						; size = 512
_hr$ = -536						; size = 4
_str$ = -528						; size = 520
__$ArrayPad$ = -4					; size = 4
_d3dDevice$ = 8						; size = 4
_szFileName$ = 12					; size = 4
_textureView$ = 16					; size = 4
?DXUTCreateShaderResourceViewFromFile@@YGJPAUID3D11Device@@PB_WPAPAUID3D11ShaderResourceView@@@Z PROC ; DXUTCreateShaderResourceViewFromFile
; File d:\engine class\assignment 1\new scratch\dxut\optional\sdkmisc.cpp
; Line 704
  00000	55		 push	 ebp
  00001	8b ec		 mov	 ebp, esp
  00003	81 ec 20 04 00
	00		 sub	 esp, 1056		; 00000420H
  00009	56		 push	 esi
  0000a	57		 push	 edi
  0000b	8d bd e0 fb ff
	ff		 lea	 edi, DWORD PTR [ebp-1056]
  00011	b9 08 01 00 00	 mov	 ecx, 264		; 00000108H
  00016	b8 cc cc cc cc	 mov	 eax, -858993460		; ccccccccH
  0001b	f3 ab		 rep stosd
  0001d	a1 00 00 00 00	 mov	 eax, DWORD PTR ___security_cookie
  00022	33 c5		 xor	 eax, ebp
  00024	89 45 fc	 mov	 DWORD PTR __$ArrayPad$[ebp], eax
; Line 705
  00027	83 7d 08 00	 cmp	 DWORD PTR _d3dDevice$[ebp], 0
  0002b	74 0c		 je	 SHORT $LN4@DXUTCreate
  0002d	83 7d 0c 00	 cmp	 DWORD PTR _szFileName$[ebp], 0
  00031	74 06		 je	 SHORT $LN4@DXUTCreate
  00033	83 7d 10 00	 cmp	 DWORD PTR _textureView$[ebp], 0
  00037	75 0a		 jne	 SHORT $LN5@DXUTCreate
$LN4@DXUTCreate:
; Line 706
  00039	b8 57 00 07 80	 mov	 eax, -2147024809	; 80070057H
  0003e	e9 d0 00 00 00	 jmp	 $LN6@DXUTCreate
$LN5@DXUTCreate:
; Line 709
  00043	8b 45 0c	 mov	 eax, DWORD PTR _szFileName$[ebp]
  00046	50		 push	 eax
  00047	68 04 01 00 00	 push	 260			; 00000104H
  0004c	8d 8d f0 fd ff
	ff		 lea	 ecx, DWORD PTR _str$[ebp]
  00052	51		 push	 ecx
  00053	e8 00 00 00 00	 call	 ?DXUTFindDXSDKMediaFileCch@@YGJPA_WHPB_W@Z ; DXUTFindDXSDKMediaFileCch
  00058	89 85 e8 fd ff
	ff		 mov	 DWORD PTR _hr$[ebp], eax
; Line 710
  0005e	83 bd e8 fd ff
	ff 00		 cmp	 DWORD PTR _hr$[ebp], 0
  00065	7d 0b		 jge	 SHORT $LN3@DXUTCreate
; Line 711
  00067	8b 85 e8 fd ff
	ff		 mov	 eax, DWORD PTR _hr$[ebp]
  0006d	e9 a1 00 00 00	 jmp	 $LN6@DXUTCreate
$LN3@DXUTCreate:
; Line 714
  00072	8b f4		 mov	 esi, esp
  00074	68 00 01 00 00	 push	 256			; 00000100H
  00079	8d 95 e4 fb ff
	ff		 lea	 edx, DWORD PTR _ext$[ebp]
  0007f	52		 push	 edx
  00080	6a 00		 push	 0
  00082	6a 00		 push	 0
  00084	6a 00		 push	 0
  00086	6a 00		 push	 0
  00088	6a 00		 push	 0
  0008a	6a 00		 push	 0
  0008c	8d 85 f0 fd ff
	ff		 lea	 eax, DWORD PTR _str$[ebp]
  00092	50		 push	 eax
  00093	ff 15 00 00 00
	00		 call	 DWORD PTR __imp___wsplitpath_s
  00099	83 c4 24	 add	 esp, 36			; 00000024H
  0009c	3b f4		 cmp	 esi, esp
  0009e	e8 00 00 00 00	 call	 __RTC_CheckEsp
; Line 716
  000a3	8b f4		 mov	 esi, esp
  000a5	68 00 00 00 00	 push	 OFFSET $SG163653
  000aa	8d 8d e4 fb ff
	ff		 lea	 ecx, DWORD PTR _ext$[ebp]
  000b0	51		 push	 ecx
  000b1	ff 15 00 00 00
	00		 call	 DWORD PTR __imp___wcsicmp
  000b7	83 c4 08	 add	 esp, 8
  000ba	3b f4		 cmp	 esi, esp
  000bc	e8 00 00 00 00	 call	 __RTC_CheckEsp
  000c1	85 c0		 test	 eax, eax
  000c3	75 25		 jne	 SHORT $LN2@DXUTCreate
; Line 718
  000c5	6a 00		 push	 0
  000c7	6a 00		 push	 0
  000c9	8b 55 10	 mov	 edx, DWORD PTR _textureView$[ebp]
  000cc	52		 push	 edx
  000cd	6a 00		 push	 0
  000cf	8d 85 f0 fd ff
	ff		 lea	 eax, DWORD PTR _str$[ebp]
  000d5	50		 push	 eax
  000d6	8b 4d 08	 mov	 ecx, DWORD PTR _d3dDevice$[ebp]
  000d9	51		 push	 ecx
  000da	e8 00 00 00 00	 call	 ?CreateDDSTextureFromFile@DirectX@@YAJPAUID3D11Device@@PB_WPAPAUID3D11Resource@@PAPAUID3D11ShaderResourceView@@IPAW4DDS_ALPHA_MODE@1@@Z ; DirectX::CreateDDSTextureFromFile
  000df	83 c4 18	 add	 esp, 24			; 00000018H
  000e2	89 85 e8 fd ff
	ff		 mov	 DWORD PTR _hr$[ebp], eax
; Line 720
  000e8	eb 23		 jmp	 SHORT $LN1@DXUTCreate
$LN2@DXUTCreate:
; Line 722
  000ea	6a 00		 push	 0
  000ec	8b 55 10	 mov	 edx, DWORD PTR _textureView$[ebp]
  000ef	52		 push	 edx
  000f0	6a 00		 push	 0
  000f2	8d 85 f0 fd ff
	ff		 lea	 eax, DWORD PTR _str$[ebp]
  000f8	50		 push	 eax
  000f9	6a 00		 push	 0
  000fb	8b 4d 08	 mov	 ecx, DWORD PTR _d3dDevice$[ebp]
  000fe	51		 push	 ecx
  000ff	e8 00 00 00 00	 call	 ?CreateWICTextureFromFile@DirectX@@YAJPAUID3D11Device@@PAUID3D11DeviceContext@@PB_WPAPAUID3D11Resource@@PAPAUID3D11ShaderResourceView@@I@Z ; DirectX::CreateWICTextureFromFile
  00104	83 c4 18	 add	 esp, 24			; 00000018H
  00107	89 85 e8 fd ff
	ff		 mov	 DWORD PTR _hr$[ebp], eax
$LN1@DXUTCreate:
; Line 725
  0010d	8b 85 e8 fd ff
	ff		 mov	 eax, DWORD PTR _hr$[ebp]
$LN6@DXUTCreate:
; Line 726
  00113	52		 push	 edx
  00114	8b cd		 mov	 ecx, ebp
  00116	50		 push	 eax
  00117	8d 15 00 00 00
	00		 lea	 edx, DWORD PTR $LN11@DXUTCreate
  0011d	e8 00 00 00 00	 call	 @_RTC_CheckStackVars@8
  00122	58		 pop	 eax
  00123	5a		 pop	 edx
  00124	5f		 pop	 edi
  00125	5e		 pop	 esi
  00126	8b 4d fc	 mov	 ecx, DWORD PTR __$ArrayPad$[ebp]
  00129	33 cd		 xor	 ecx, ebp
  0012b	e8 00 00 00 00	 call	 @__security_check_cookie@4
  00130	81 c4 20 04 00
	00		 add	 esp, 1056		; 00000420H
  00136	3b ec		 cmp	 ebp, esp
  00138	e8 00 00 00 00	 call	 __RTC_CheckEsp
  0013d	8b e5		 mov	 esp, ebp
  0013f	5d		 pop	 ebp
  00140	c2 0c 00	 ret	 12			; 0000000cH
  00143	90		 npad	 1
$LN11@DXUTCreate:
  00144	02 00 00 00	 DD	 2
  00148	00 00 00 00	 DD	 $LN10@DXUTCreate
$LN10@DXUTCreate:
  0014c	f0 fd ff ff	 DD	 -528			; fffffdf0H
  00150	08 02 00 00	 DD	 520			; 00000208H
  00154	00 00 00 00	 DD	 $LN8@DXUTCreate
  00158	e4 fb ff ff	 DD	 -1052			; fffffbe4H
  0015c	00 02 00 00	 DD	 512			; 00000200H
  00160	00 00 00 00	 DD	 $LN9@DXUTCreate
$LN9@DXUTCreate:
  00164	65		 DB	 101			; 00000065H
  00165	78		 DB	 120			; 00000078H
  00166	74		 DB	 116			; 00000074H
  00167	00		 DB	 0
$LN8@DXUTCreate:
  00168	73		 DB	 115			; 00000073H
  00169	74		 DB	 116			; 00000074H
  0016a	72		 DB	 114			; 00000072H
  0016b	00		 DB	 0
?DXUTCreateShaderResourceViewFromFile@@YGJPAUID3D11Device@@PB_WPAPAUID3D11ShaderResourceView@@@Z ENDP ; DXUTCreateShaderResourceViewFromFile
_TEXT	ENDS
; Function compile flags: /Odtp /RTCsu
_TEXT	SEGMENT
_pErrorBlob$ = -544					; size = 4
_str$ = -532						; size = 520
_hr$ = -8						; size = 4
__$ArrayPad$ = -4					; size = 4
_pFileName$ = 8						; size = 4
_pDefines$ = 12						; size = 4
_pEntrypoint$ = 16					; size = 4
_pTarget$ = 20						; size = 4
_Flags1$ = 24						; size = 4
_Flags2$ = 28						; size = 4
_ppCode$ = 32						; size = 4
?DXUTCompileFromFile@@YGJPB_WPBU_D3D_SHADER_MACRO@@PBD2IIPAPAUID3D10Blob@@@Z PROC ; DXUTCompileFromFile
; File d:\engine class\assignment 1\new scratch\dxut\optional\sdkmisc.cpp
; Line 604
  00000	55		 push	 ebp
  00001	8b ec		 mov	 ebp, esp
  00003	81 ec 24 02 00
	00		 sub	 esp, 548		; 00000224H
  00009	56		 push	 esi
  0000a	57		 push	 edi
  0000b	8d bd dc fd ff
	ff		 lea	 edi, DWORD PTR [ebp-548]
  00011	b9 89 00 00 00	 mov	 ecx, 137		; 00000089H
  00016	b8 cc cc cc cc	 mov	 eax, -858993460		; ccccccccH
  0001b	f3 ab		 rep stosd
  0001d	a1 00 00 00 00	 mov	 eax, DWORD PTR ___security_cookie
  00022	33 c5		 xor	 eax, ebp
  00024	89 45 fc	 mov	 DWORD PTR __$ArrayPad$[ebp], eax
; Line 607
  00027	8b 45 08	 mov	 eax, DWORD PTR _pFileName$[ebp]
  0002a	50		 push	 eax
  0002b	68 04 01 00 00	 push	 260			; 00000104H
  00030	8d 8d ec fd ff
	ff		 lea	 ecx, DWORD PTR _str$[ebp]
  00036	51		 push	 ecx
  00037	e8 00 00 00 00	 call	 ?DXUTFindDXSDKMediaFileCch@@YGJPA_WHPB_W@Z ; DXUTFindDXSDKMediaFileCch
  0003c	89 45 f8	 mov	 DWORD PTR _hr$[ebp], eax
  0003f	83 7d f8 00	 cmp	 DWORD PTR _hr$[ebp], 0
  00043	7d 1f		 jge	 SHORT $LN2@DXUTCompil
  00045	6a 01		 push	 1
  00047	68 00 00 00 00	 push	 OFFSET $SG163632
  0004c	8b 55 f8	 mov	 edx, DWORD PTR _hr$[ebp]
  0004f	52		 push	 edx
  00050	68 5f 02 00 00	 push	 607			; 0000025fH
  00055	68 00 00 00 00	 push	 OFFSET $SG163633
  0005a	e8 00 00 00 00	 call	 ?DXUTTrace@@YGJPBDKJPB_W_N@Z ; DXUTTrace
  0005f	e9 99 00 00 00	 jmp	 $LN3@DXUTCompil
$LN2@DXUTCompil:
; Line 614
  00064	8b 45 18	 mov	 eax, DWORD PTR _Flags1$[ebp]
  00067	83 c8 01	 or	 eax, 1
  0006a	89 45 18	 mov	 DWORD PTR _Flags1$[ebp], eax
; Line 617
  0006d	c7 85 e0 fd ff
	ff 00 00 00 00	 mov	 DWORD PTR _pErrorBlob$[ebp], 0
; Line 623
  00077	8d 8d e0 fd ff
	ff		 lea	 ecx, DWORD PTR _pErrorBlob$[ebp]
  0007d	51		 push	 ecx
  0007e	8b 55 20	 mov	 edx, DWORD PTR _ppCode$[ebp]
  00081	52		 push	 edx
  00082	8b 45 1c	 mov	 eax, DWORD PTR _Flags2$[ebp]
  00085	50		 push	 eax
  00086	8b 4d 18	 mov	 ecx, DWORD PTR _Flags1$[ebp]
  00089	51		 push	 ecx
  0008a	8b 55 14	 mov	 edx, DWORD PTR _pTarget$[ebp]
  0008d	52		 push	 edx
  0008e	8b 45 10	 mov	 eax, DWORD PTR _pEntrypoint$[ebp]
  00091	50		 push	 eax
  00092	6a 01		 push	 1
  00094	8b 4d 0c	 mov	 ecx, DWORD PTR _pDefines$[ebp]
  00097	51		 push	 ecx
  00098	8d 95 ec fd ff
	ff		 lea	 edx, DWORD PTR _str$[ebp]
  0009e	52		 push	 edx
  0009f	e8 00 00 00 00	 call	 _D3DCompileFromFile@36
  000a4	89 45 f8	 mov	 DWORD PTR _hr$[ebp], eax
; Line 688
  000a7	83 bd e0 fd ff
	ff 00		 cmp	 DWORD PTR _pErrorBlob$[ebp], 0
  000ae	74 4a		 je	 SHORT $LN1@DXUTCompil
; Line 690
  000b0	8b 85 e0 fd ff
	ff		 mov	 eax, DWORD PTR _pErrorBlob$[ebp]
  000b6	8b 08		 mov	 ecx, DWORD PTR [eax]
  000b8	8b f4		 mov	 esi, esp
  000ba	8b 95 e0 fd ff
	ff		 mov	 edx, DWORD PTR _pErrorBlob$[ebp]
  000c0	52		 push	 edx
  000c1	8b 41 0c	 mov	 eax, DWORD PTR [ecx+12]
  000c4	ff d0		 call	 eax
  000c6	3b f4		 cmp	 esi, esp
  000c8	e8 00 00 00 00	 call	 __RTC_CheckEsp
  000cd	8b f4		 mov	 esi, esp
  000cf	50		 push	 eax
  000d0	ff 15 00 00 00
	00		 call	 DWORD PTR __imp__OutputDebugStringA@4
  000d6	3b f4		 cmp	 esi, esp
  000d8	e8 00 00 00 00	 call	 __RTC_CheckEsp
; Line 691
  000dd	8b 8d e0 fd ff
	ff		 mov	 ecx, DWORD PTR _pErrorBlob$[ebp]
  000e3	8b 11		 mov	 edx, DWORD PTR [ecx]
  000e5	8b f4		 mov	 esi, esp
  000e7	8b 85 e0 fd ff
	ff		 mov	 eax, DWORD PTR _pErrorBlob$[ebp]
  000ed	50		 push	 eax
  000ee	8b 4a 08	 mov	 ecx, DWORD PTR [edx+8]
  000f1	ff d1		 call	 ecx
  000f3	3b f4		 cmp	 esi, esp
  000f5	e8 00 00 00 00	 call	 __RTC_CheckEsp
$LN1@DXUTCompil:
; Line 694
  000fa	8b 45 f8	 mov	 eax, DWORD PTR _hr$[ebp]
$LN3@DXUTCompil:
; Line 695
  000fd	52		 push	 edx
  000fe	8b cd		 mov	 ecx, ebp
  00100	50		 push	 eax
  00101	8d 15 00 00 00
	00		 lea	 edx, DWORD PTR $LN8@DXUTCompil
  00107	e8 00 00 00 00	 call	 @_RTC_CheckStackVars@8
  0010c	58		 pop	 eax
  0010d	5a		 pop	 edx
  0010e	5f		 pop	 edi
  0010f	5e		 pop	 esi
  00110	8b 4d fc	 mov	 ecx, DWORD PTR __$ArrayPad$[ebp]
  00113	33 cd		 xor	 ecx, ebp
  00115	e8 00 00 00 00	 call	 @__security_check_cookie@4
  0011a	81 c4 24 02 00
	00		 add	 esp, 548		; 00000224H
  00120	3b ec		 cmp	 ebp, esp
  00122	e8 00 00 00 00	 call	 __RTC_CheckEsp
  00127	8b e5		 mov	 esp, ebp
  00129	5d		 pop	 ebp
  0012a	c2 1c 00	 ret	 28			; 0000001cH
  0012d	8d 49 00	 npad	 3
$LN8@DXUTCompil:
  00130	02 00 00 00	 DD	 2
  00134	00 00 00 00	 DD	 $LN7@DXUTCompil
$LN7@DXUTCompil:
  00138	ec fd ff ff	 DD	 -532			; fffffdecH
  0013c	08 02 00 00	 DD	 520			; 00000208H
  00140	00 00 00 00	 DD	 $LN5@DXUTCompil
  00144	e0 fd ff ff	 DD	 -544			; fffffde0H
  00148	04 00 00 00	 DD	 4
  0014c	00 00 00 00	 DD	 $LN6@DXUTCompil
$LN6@DXUTCompil:
  00150	70		 DB	 112			; 00000070H
  00151	45		 DB	 69			; 00000045H
  00152	72		 DB	 114			; 00000072H
  00153	72		 DB	 114			; 00000072H
  00154	6f		 DB	 111			; 0000006fH
  00155	72		 DB	 114			; 00000072H
  00156	42		 DB	 66			; 00000042H
  00157	6c		 DB	 108			; 0000006cH
  00158	6f		 DB	 111			; 0000006fH
  00159	62		 DB	 98			; 00000062H
  0015a	00		 DB	 0
$LN5@DXUTCompil:
  0015b	73		 DB	 115			; 00000073H
  0015c	74		 DB	 116			; 00000074H
  0015d	72		 DB	 114			; 00000072H
  0015e	00		 DB	 0
?DXUTCompileFromFile@@YGJPB_WPBU_D3D_SHADER_MACRO@@PBD2IIPAPAUID3D10Blob@@@Z ENDP ; DXUTCompileFromFile
_TEXT	ENDS
; Function compile flags: /Odtp /RTCsu
_TEXT	SEGMENT
?DXUTGetMediaSearchPath@@YGPB_WXZ PROC			; DXUTGetMediaSearchPath
; File d:\engine class\assignment 1\new scratch\dxut\optional\sdkmisc.cpp
; Line 220
  00000	55		 push	 ebp
  00001	8b ec		 mov	 ebp, esp
; Line 221
  00003	e8 00 00 00 00	 call	 ?DXUTMediaSearchPath@@YAPA_WXZ ; DXUTMediaSearchPath
; Line 222
  00008	3b ec		 cmp	 ebp, esp
  0000a	e8 00 00 00 00	 call	 __RTC_CheckEsp
  0000f	5d		 pop	 ebp
  00010	c3		 ret	 0
?DXUTGetMediaSearchPath@@YGPB_WXZ ENDP			; DXUTGetMediaSearchPath
_TEXT	ENDS
; Function compile flags: /Odtp /RTCsu
_TEXT	SEGMENT
_ch$1 = -12						; size = 4
_s_strSearchPath$ = -8					; size = 4
_hr$ = -4						; size = 4
_strPath$ = 8						; size = 4
?DXUTSetMediaSearchPath@@YGJPB_W@Z PROC			; DXUTSetMediaSearchPath
; File d:\engine class\assignment 1\new scratch\dxut\optional\sdkmisc.cpp
; Line 227
  00000	55		 push	 ebp
  00001	8b ec		 mov	 ebp, esp
  00003	83 ec 0c	 sub	 esp, 12			; 0000000cH
  00006	56		 push	 esi
  00007	c7 45 f4 cc cc
	cc cc		 mov	 DWORD PTR [ebp-12], -858993460 ; ccccccccH
  0000e	c7 45 f8 cc cc
	cc cc		 mov	 DWORD PTR [ebp-8], -858993460 ; ccccccccH
  00015	c7 45 fc cc cc
	cc cc		 mov	 DWORD PTR [ebp-4], -858993460 ; ccccccccH
; Line 230
  0001c	e8 00 00 00 00	 call	 ?DXUTMediaSearchPath@@YAPA_WXZ ; DXUTMediaSearchPath
  00021	89 45 f8	 mov	 DWORD PTR _s_strSearchPath$[ebp], eax
; Line 232
  00024	8b f4		 mov	 esi, esp
  00026	8b 45 08	 mov	 eax, DWORD PTR _strPath$[ebp]
  00029	50		 push	 eax
  0002a	68 04 01 00 00	 push	 260			; 00000104H
  0002f	8b 4d f8	 mov	 ecx, DWORD PTR _s_strSearchPath$[ebp]
  00032	51		 push	 ecx
  00033	ff 15 00 00 00
	00		 call	 DWORD PTR __imp__wcscpy_s
  00039	83 c4 0c	 add	 esp, 12			; 0000000cH
  0003c	3b f4		 cmp	 esi, esp
  0003e	e8 00 00 00 00	 call	 __RTC_CheckEsp
  00043	89 45 fc	 mov	 DWORD PTR _hr$[ebp], eax
; Line 233
  00046	83 7d fc 00	 cmp	 DWORD PTR _hr$[ebp], 0
  0004a	7c 5e		 jl	 SHORT $LN2@DXUTSetMed
; Line 236
  0004c	c7 45 f4 00 00
	00 00		 mov	 DWORD PTR _ch$1[ebp], 0
; Line 237
  00053	8b f4		 mov	 esi, esp
  00055	68 04 01 00 00	 push	 260			; 00000104H
  0005a	8b 55 f8	 mov	 edx, DWORD PTR _s_strSearchPath$[ebp]
  0005d	52		 push	 edx
  0005e	ff 15 00 00 00
	00		 call	 DWORD PTR __imp__wcsnlen
  00064	83 c4 08	 add	 esp, 8
  00067	3b f4		 cmp	 esi, esp
  00069	e8 00 00 00 00	 call	 __RTC_CheckEsp
  0006e	89 45 f4	 mov	 DWORD PTR _ch$1[ebp], eax
; Line 238
  00071	83 7d fc 00	 cmp	 DWORD PTR _hr$[ebp], 0
  00075	7c 33		 jl	 SHORT $LN2@DXUTSetMed
  00077	8b 45 f4	 mov	 eax, DWORD PTR _ch$1[ebp]
  0007a	8b 4d f8	 mov	 ecx, DWORD PTR _s_strSearchPath$[ebp]
  0007d	0f b7 54 41 fe	 movzx	 edx, WORD PTR [ecx+eax*2-2]
  00082	83 fa 5c	 cmp	 edx, 92			; 0000005cH
  00085	74 23		 je	 SHORT $LN2@DXUTSetMed
; Line 240
  00087	8b f4		 mov	 esi, esp
  00089	68 00 00 00 00	 push	 OFFSET $SG163529
  0008e	68 04 01 00 00	 push	 260			; 00000104H
  00093	8b 45 f8	 mov	 eax, DWORD PTR _s_strSearchPath$[ebp]
  00096	50		 push	 eax
  00097	ff 15 00 00 00
	00		 call	 DWORD PTR __imp__wcscat_s
  0009d	83 c4 0c	 add	 esp, 12			; 0000000cH
  000a0	3b f4		 cmp	 esi, esp
  000a2	e8 00 00 00 00	 call	 __RTC_CheckEsp
  000a7	89 45 fc	 mov	 DWORD PTR _hr$[ebp], eax
$LN2@DXUTSetMed:
; Line 244
  000aa	8b 45 fc	 mov	 eax, DWORD PTR _hr$[ebp]
; Line 245
  000ad	5e		 pop	 esi
  000ae	83 c4 0c	 add	 esp, 12			; 0000000cH
  000b1	3b ec		 cmp	 ebp, esp
  000b3	e8 00 00 00 00	 call	 __RTC_CheckEsp
  000b8	8b e5		 mov	 esp, ebp
  000ba	5d		 pop	 ebp
  000bb	c2 04 00	 ret	 4
?DXUTSetMediaSearchPath@@YGJPB_W@Z ENDP			; DXUTSetMediaSearchPath
_TEXT	ENDS
; Function compile flags: /Odtp /RTCsu
_TEXT	SEGMENT
$T1 = -2128						; size = 4
_strLeafName$ = -2120					; size = 520
_strLastSlash$ = -1596					; size = 4
_strExeName$ = -1588					; size = 520
_strExePath$ = -1060					; size = 520
_strSearchFor$ = -532					; size = 520
_bFound$ = -5						; size = 1
__$ArrayPad$ = -4					; size = 4
_strDestPath$ = 8					; size = 4
_cchDest$ = 12						; size = 4
_strFilename$ = 16					; size = 4
?DXUTFindDXSDKMediaFileCch@@YGJPA_WHPB_W@Z PROC		; DXUTFindDXSDKMediaFileCch
; File d:\engine class\assignment 1\new scratch\dxut\optional\sdkmisc.cpp
; Line 256
  00000	55		 push	 ebp
  00001	8b ec		 mov	 ebp, esp
  00003	81 ec 50 08 00
	00		 sub	 esp, 2128		; 00000850H
  00009	56		 push	 esi
  0000a	57		 push	 edi
  0000b	8d bd b0 f7 ff
	ff		 lea	 edi, DWORD PTR [ebp-2128]
  00011	b9 14 02 00 00	 mov	 ecx, 532		; 00000214H
  00016	b8 cc cc cc cc	 mov	 eax, -858993460		; ccccccccH
  0001b	f3 ab		 rep stosd
  0001d	a1 00 00 00 00	 mov	 eax, DWORD PTR ___security_cookie
  00022	33 c5		 xor	 eax, ebp
  00024	89 45 fc	 mov	 DWORD PTR __$ArrayPad$[ebp], eax
; Line 260
  00027	83 7d 10 00	 cmp	 DWORD PTR _strFilename$[ebp], 0
  0002b	74 1f		 je	 SHORT $LN9@DXUTFindDX
  0002d	b8 02 00 00 00	 mov	 eax, 2
  00032	6b c8 00	 imul	 ecx, eax, 0
  00035	8b 55 10	 mov	 edx, DWORD PTR _strFilename$[ebp]
  00038	0f b7 04 0a	 movzx	 eax, WORD PTR [edx+ecx]
  0003c	85 c0		 test	 eax, eax
  0003e	74 0c		 je	 SHORT $LN9@DXUTFindDX
  00040	83 7d 08 00	 cmp	 DWORD PTR _strDestPath$[ebp], 0
  00044	74 06		 je	 SHORT $LN9@DXUTFindDX
  00046	83 7d 0c 0a	 cmp	 DWORD PTR _cchDest$[ebp], 10 ; 0000000aH
  0004a	7d 0a		 jge	 SHORT $LN10@DXUTFindDX
$LN9@DXUTFindDX:
; Line 261
  0004c	b8 57 00 07 80	 mov	 eax, -2147024809	; 80070057H
  00051	e9 ef 02 00 00	 jmp	 $LN12@DXUTFindDX
$LN10@DXUTFindDX:
; Line 267
  00056	33 c9		 xor	 ecx, ecx
  00058	66 89 8d dc fb
	ff ff		 mov	 WORD PTR _strExePath$[ebp], cx
  0005f	68 06 02 00 00	 push	 518			; 00000206H
  00064	6a 00		 push	 0
  00066	8d 95 de fb ff
	ff		 lea	 edx, DWORD PTR _strExePath$[ebp+2]
  0006c	52		 push	 edx
  0006d	e8 00 00 00 00	 call	 _memset
  00072	83 c4 0c	 add	 esp, 12			; 0000000cH
; Line 271
  00075	33 c0		 xor	 eax, eax
  00077	66 89 85 cc f9
	ff ff		 mov	 WORD PTR _strExeName$[ebp], ax
  0007e	68 06 02 00 00	 push	 518			; 00000206H
  00083	6a 00		 push	 0
  00085	8d 8d ce f9 ff
	ff		 lea	 ecx, DWORD PTR _strExeName$[ebp+2]
  0008b	51		 push	 ecx
  0008c	e8 00 00 00 00	 call	 _memset
  00091	83 c4 0c	 add	 esp, 12			; 0000000cH
; Line 272
  00094	c7 85 c4 f9 ff
	ff 00 00 00 00	 mov	 DWORD PTR _strLastSlash$[ebp], 0
; Line 273
  0009e	8b f4		 mov	 esi, esp
  000a0	68 04 01 00 00	 push	 260			; 00000104H
  000a5	8d 95 dc fb ff
	ff		 lea	 edx, DWORD PTR _strExePath$[ebp]
  000ab	52		 push	 edx
  000ac	6a 00		 push	 0
  000ae	ff 15 00 00 00
	00		 call	 DWORD PTR __imp__GetModuleFileNameW@12
  000b4	3b f4		 cmp	 esi, esp
  000b6	e8 00 00 00 00	 call	 __RTC_CheckEsp
; Line 274
  000bb	b8 02 00 00 00	 mov	 eax, 2
  000c0	69 c8 03 01 00
	00		 imul	 ecx, eax, 259
  000c6	89 8d b0 f7 ff
	ff		 mov	 DWORD PTR $T1[ebp], ecx
  000cc	81 bd b0 f7 ff
	ff 08 02 00 00	 cmp	 DWORD PTR $T1[ebp], 520	; 00000208H
  000d6	73 02		 jae	 SHORT $LN13@DXUTFindDX
  000d8	eb 05		 jmp	 SHORT $LN14@DXUTFindDX
$LN13@DXUTFindDX:
  000da	e8 00 00 00 00	 call	 ___report_rangecheckfailure
$LN14@DXUTFindDX:
  000df	33 d2		 xor	 edx, edx
  000e1	8b 85 b0 f7 ff
	ff		 mov	 eax, DWORD PTR $T1[ebp]
  000e7	66 89 94 05 dc
	fb ff ff	 mov	 WORD PTR _strExePath$[ebp+eax], dx
; Line 275
  000ef	6a 5c		 push	 92			; 0000005cH
  000f1	8d 8d dc fb ff
	ff		 lea	 ecx, DWORD PTR _strExePath$[ebp]
  000f7	51		 push	 ecx
  000f8	e8 00 00 00 00	 call	 ?wcsrchr@@YAPA_WPA_W_W@Z ; wcsrchr
  000fd	83 c4 08	 add	 esp, 8
  00100	89 85 c4 f9 ff
	ff		 mov	 DWORD PTR _strLastSlash$[ebp], eax
; Line 276
  00106	83 bd c4 f9 ff
	ff 00		 cmp	 DWORD PTR _strLastSlash$[ebp], 0
  0010d	74 63		 je	 SHORT $LN8@DXUTFindDX
; Line 278
  0010f	ba 02 00 00 00	 mov	 edx, 2
  00114	c1 e2 00	 shl	 edx, 0
  00117	03 95 c4 f9 ff
	ff		 add	 edx, DWORD PTR _strLastSlash$[ebp]
  0011d	8b f4		 mov	 esi, esp
  0011f	52		 push	 edx
  00120	68 04 01 00 00	 push	 260			; 00000104H
  00125	8d 85 cc f9 ff
	ff		 lea	 eax, DWORD PTR _strExeName$[ebp]
  0012b	50		 push	 eax
  0012c	ff 15 00 00 00
	00		 call	 DWORD PTR __imp__wcscpy_s
  00132	83 c4 0c	 add	 esp, 12			; 0000000cH
  00135	3b f4		 cmp	 esi, esp
  00137	e8 00 00 00 00	 call	 __RTC_CheckEsp
; Line 281
  0013c	33 c9		 xor	 ecx, ecx
  0013e	8b 95 c4 f9 ff
	ff		 mov	 edx, DWORD PTR _strLastSlash$[ebp]
  00144	66 89 0a	 mov	 WORD PTR [edx], cx
; Line 284
  00147	6a 2e		 push	 46			; 0000002eH
  00149	8d 85 cc f9 ff
	ff		 lea	 eax, DWORD PTR _strExeName$[ebp]
  0014f	50		 push	 eax
  00150	e8 00 00 00 00	 call	 ?wcsrchr@@YAPA_WPA_W_W@Z ; wcsrchr
  00155	83 c4 08	 add	 esp, 8
  00158	89 85 c4 f9 ff
	ff		 mov	 DWORD PTR _strLastSlash$[ebp], eax
; Line 285
  0015e	83 bd c4 f9 ff
	ff 00		 cmp	 DWORD PTR _strLastSlash$[ebp], 0
  00165	74 0b		 je	 SHORT $LN8@DXUTFindDX
; Line 286
  00167	33 c9		 xor	 ecx, ecx
  00169	8b 95 c4 f9 ff
	ff		 mov	 edx, DWORD PTR _strLastSlash$[ebp]
  0016f	66 89 0a	 mov	 WORD PTR [edx], cx
$LN8@DXUTFindDX:
; Line 300
  00172	8d 85 cc f9 ff
	ff		 lea	 eax, DWORD PTR _strExeName$[ebp]
  00178	50		 push	 eax
  00179	8d 8d dc fb ff
	ff		 lea	 ecx, DWORD PTR _strExePath$[ebp]
  0017f	51		 push	 ecx
  00180	8b 55 10	 mov	 edx, DWORD PTR _strFilename$[ebp]
  00183	52		 push	 edx
  00184	8b 45 0c	 mov	 eax, DWORD PTR _cchDest$[ebp]
  00187	50		 push	 eax
  00188	8b 4d 08	 mov	 ecx, DWORD PTR _strDestPath$[ebp]
  0018b	51		 push	 ecx
  0018c	e8 00 00 00 00	 call	 ?DXUTFindMediaSearchTypicalDirs@@YA_NPA_WHPB_W11@Z ; DXUTFindMediaSearchTypicalDirs
  00191	83 c4 14	 add	 esp, 20			; 00000014H
  00194	88 45 fb	 mov	 BYTE PTR _bFound$[ebp], al
; Line 301
  00197	0f b6 55 fb	 movzx	 edx, BYTE PTR _bFound$[ebp]
  0019b	85 d2		 test	 edx, edx
  0019d	74 07		 je	 SHORT $LN6@DXUTFindDX
; Line 302
  0019f	33 c0		 xor	 eax, eax
  001a1	e9 9f 01 00 00	 jmp	 $LN12@DXUTFindDX
$LN6@DXUTFindDX:
; Line 305
  001a6	8b f4		 mov	 esi, esp
  001a8	8b 45 10	 mov	 eax, DWORD PTR _strFilename$[ebp]
  001ab	50		 push	 eax
  001ac	68 00 00 00 00	 push	 OFFSET $SG163553
  001b1	68 04 01 00 00	 push	 260			; 00000104H
  001b6	8d 8d ec fd ff
	ff		 lea	 ecx, DWORD PTR _strSearchFor$[ebp]
  001bc	51		 push	 ecx
  001bd	ff 15 00 00 00
	00		 call	 DWORD PTR __imp__swprintf_s
  001c3	83 c4 10	 add	 esp, 16			; 00000010H
  001c6	3b f4		 cmp	 esi, esp
  001c8	e8 00 00 00 00	 call	 __RTC_CheckEsp
; Line 306
  001cd	8d 95 cc f9 ff
	ff		 lea	 edx, DWORD PTR _strExeName$[ebp]
  001d3	52		 push	 edx
  001d4	8d 85 dc fb ff
	ff		 lea	 eax, DWORD PTR _strExePath$[ebp]
  001da	50		 push	 eax
  001db	8d 8d ec fd ff
	ff		 lea	 ecx, DWORD PTR _strSearchFor$[ebp]
  001e1	51		 push	 ecx
  001e2	8b 55 0c	 mov	 edx, DWORD PTR _cchDest$[ebp]
  001e5	52		 push	 edx
  001e6	8b 45 08	 mov	 eax, DWORD PTR _strDestPath$[ebp]
  001e9	50		 push	 eax
  001ea	e8 00 00 00 00	 call	 ?DXUTFindMediaSearchTypicalDirs@@YA_NPA_WHPB_W11@Z ; DXUTFindMediaSearchTypicalDirs
  001ef	83 c4 14	 add	 esp, 20			; 00000014H
  001f2	88 45 fb	 mov	 BYTE PTR _bFound$[ebp], al
; Line 307
  001f5	0f b6 4d fb	 movzx	 ecx, BYTE PTR _bFound$[ebp]
  001f9	85 c9		 test	 ecx, ecx
  001fb	74 07		 je	 SHORT $LN5@DXUTFindDX
; Line 308
  001fd	33 c0		 xor	 eax, eax
  001ff	e9 41 01 00 00	 jmp	 $LN12@DXUTFindDX
$LN5@DXUTFindDX:
; Line 313
  00204	33 d2		 xor	 edx, edx
  00206	66 89 95 b8 f7
	ff ff		 mov	 WORD PTR _strLeafName$[ebp], dx
  0020d	68 06 02 00 00	 push	 518			; 00000206H
  00212	6a 00		 push	 0
  00214	8d 85 ba f7 ff
	ff		 lea	 eax, DWORD PTR _strLeafName$[ebp+2]
  0021a	50		 push	 eax
  0021b	e8 00 00 00 00	 call	 _memset
  00220	83 c4 0c	 add	 esp, 12			; 0000000cH
; Line 316
  00223	8b f4		 mov	 esi, esp
  00225	8b 4d 10	 mov	 ecx, DWORD PTR _strFilename$[ebp]
  00228	51		 push	 ecx
  00229	68 04 01 00 00	 push	 260			; 00000104H
  0022e	8d 95 b8 f7 ff
	ff		 lea	 edx, DWORD PTR _strLeafName$[ebp]
  00234	52		 push	 edx
  00235	ff 15 00 00 00
	00		 call	 DWORD PTR __imp__wcscpy_s
