; Listing generated by Microsoft (R) Optimizing Compiler Version 18.00.30501.0 

	TITLE	D:\Engine Class\Assignment 1\Scratch\DXSSE\DXUT\Core\DDSTextureLoader.cpp
	.686P
	.XMM
	include listing.inc
	.model	flat

INCLUDELIB MSVCRTD
INCLUDELIB OLDNAMES

PUBLIC	_WKPDID_D3DDebugObjectName
;	COMDAT _WKPDID_D3DDebugObjectName
CONST	SEGMENT
_WKPDID_D3DDebugObjectName DD 0429b8c22H
	DW	09188H
	DW	04b0cH
	DB	087H
	DB	042H
	DB	0acH
	DB	0b0H
	DB	0bfH
	DB	085H
	DB	0c2H
	DB	00H
CONST	ENDS
CONST	SEGMENT
$SG149803 DB	'D', 00H, 'D', 00H, 'S', 00H, 'T', 00H, 'e', 00H, 'x', 00H
	DB	't', 00H, 'u', 00H, 'r', 00H, 'e', 00H, 'L', 00H, 'o', 00H, 'a'
	DB	00H, 'd', 00H, 'e', 00H, 'r', 00H, '.', 00H, 'c', 00H, 'p', 00H
	DB	'p', 00H, 00H, 00H
	ORG $+2
$SG149804 DB	'i', 00H, 'n', 00H, 'd', 00H, 'e', 00H, 'x', 00H, ' ', 00H
	DB	'<', 00H, ' ', 00H, 'm', 00H, 'i', 00H, 'p', 00H, 'C', 00H, 'o'
	DB	00H, 'u', 00H, 'n', 00H, 't', 00H, ' ', 00H, '*', 00H, ' ', 00H
	DB	'a', 00H, 'r', 00H, 'r', 00H, 'a', 00H, 'y', 00H, 'S', 00H, 'i'
	DB	00H, 'z', 00H, 'e', 00H, 00H, 00H
	ORG $+2
$SG149866 DB	'DDSTextureLoader', 00H
	ORG $+3
$SG149892 DB	'DDSTextureLoader', 00H
	ORG $+3
$SG149908 DB	'DDSTextureLoader', 00H
	ORG $+3
$SG149976 DB	'D', 00H, 'D', 00H, 'S', 00H, 'T', 00H, 'e', 00H, 'x', 00H
	DB	't', 00H, 'u', 00H, 'r', 00H, 'e', 00H, 'L', 00H, 'o', 00H, 'a'
	DB	00H, 'd', 00H, 'e', 00H, 'r', 00H, '.', 00H, 'c', 00H, 'p', 00H
	DB	'p', 00H, 00H, 00H
	ORG $+2
$SG149977 DB	'B', 00H, 'i', 00H, 't', 00H, 's', 00H, 'P', 00H, 'e', 00H
	DB	'r', 00H, 'P', 00H, 'i', 00H, 'x', 00H, 'e', 00H, 'l', 00H, '('
	DB	00H, ' ', 00H, 'f', 00H, 'o', 00H, 'r', 00H, 'm', 00H, 'a', 00H
	DB	't', 00H, ' ', 00H, ')', 00H, ' ', 00H, '!', 00H, '=', 00H, ' '
	DB	00H, '0', 00H, 00H, 00H
$SG150434 DB	'DDSTextureLoader', 00H
	ORG $+3
$SG150436 DB	'DDSTextureLoader', 00H
CONST	ENDS
PUBLIC	?strrchr@@YAPADPADH@Z				; strrchr
PUBLIC	_HRESULT_FROM_WIN32
PUBLIC	?D3D11CalcSubresource@@YAIIII@Z			; D3D11CalcSubresource
PUBLIC	?CreateDDSTextureFromMemory@DirectX@@YAJPAUID3D11Device@@PBEIPAPAUID3D11Resource@@PAPAUID3D11ShaderResourceView@@IPAW4DDS_ALPHA_MODE@1@@Z ; DirectX::CreateDDSTextureFromMemory
PUBLIC	?CreateDDSTextureFromFile@DirectX@@YAJPAUID3D11Device@@PB_WPAPAUID3D11Resource@@PAPAUID3D11ShaderResourceView@@IPAW4DDS_ALPHA_MODE@1@@Z ; DirectX::CreateDDSTextureFromFile
PUBLIC	?CreateDDSTextureFromMemory@DirectX@@YAJPAUID3D11Device@@PAUID3D11DeviceContext@@PBEIPAPAUID3D11Resource@@PAPAUID3D11ShaderResourceView@@IPAW4DDS_ALPHA_MODE@1@@Z ; DirectX::CreateDDSTextureFromMemory
PUBLIC	?CreateDDSTextureFromFile@DirectX@@YAJPAUID3D11Device@@PAUID3D11DeviceContext@@PB_WPAPAUID3D11Resource@@PAPAUID3D11ShaderResourceView@@IPAW4DDS_ALPHA_MODE@1@@Z ; DirectX::CreateDDSTextureFromFile
PUBLIC	?CreateDDSTextureFromMemoryEx@DirectX@@YAJPAUID3D11Device@@PBEIIW4D3D11_USAGE@@III_NPAPAUID3D11Resource@@PAPAUID3D11ShaderResourceView@@PAW4DDS_ALPHA_MODE@1@@Z ; DirectX::CreateDDSTextureFromMemoryEx
PUBLIC	?CreateDDSTextureFromFileEx@DirectX@@YAJPAUID3D11Device@@PB_WIW4D3D11_USAGE@@III_NPAPAUID3D11Resource@@PAPAUID3D11ShaderResourceView@@PAW4DDS_ALPHA_MODE@1@@Z ; DirectX::CreateDDSTextureFromFileEx
PUBLIC	?CreateDDSTextureFromMemoryEx@DirectX@@YAJPAUID3D11Device@@PAUID3D11DeviceContext@@PBEIIW4D3D11_USAGE@@III_NPAPAUID3D11Resource@@PAPAUID3D11ShaderResourceView@@PAW4DDS_ALPHA_MODE@1@@Z ; DirectX::CreateDDSTextureFromMemoryEx
PUBLIC	?CreateDDSTextureFromFileEx@DirectX@@YAJPAUID3D11Device@@PAUID3D11DeviceContext@@PB_WIW4D3D11_USAGE@@III_NPAPAUID3D11Resource@@PAPAUID3D11ShaderResourceView@@PAW4DDS_ALPHA_MODE@1@@Z ; DirectX::CreateDDSTextureFromFileEx
PUBLIC	??Rhandle_closer@?A0xcec58e3e@@QAEXPAX@Z	; `anonymous namespace'::handle_closer::operator()
PUBLIC	?safe_handle@?A0xcec58e3e@@YAPAXPAX@Z		; `anonymous namespace'::safe_handle
PUBLIC	??0?$_Unique_ptr_base@XUhandle_closer@?A0xcec58e3e@@$00@std@@QAE@PAX@Z ; std::_Unique_ptr_base<void,`anonymous namespace'::handle_closer,1>::_Unique_ptr_base<void,`anonymous namespace'::handle_closer,1>
PUBLIC	?get_deleter@?$_Unique_ptr_base@XUhandle_closer@?A0xcec58e3e@@$00@std@@QAEAAUhandle_closer@?A0xcec58e3e@@XZ ; std::_Unique_ptr_base<void,`anonymous namespace'::handle_closer,1>::get_deleter
PUBLIC	??0?$unique_ptr@XUhandle_closer@?A0xcec58e3e@@@std@@QAE@PAX@Z ; std::unique_ptr<void,`anonymous namespace'::handle_closer>::unique_ptr<void,`anonymous namespace'::handle_closer>
PUBLIC	??1?$unique_ptr@XUhandle_closer@?A0xcec58e3e@@@std@@QAE@XZ ; std::unique_ptr<void,`anonymous namespace'::handle_closer>::~unique_ptr<void,`anonymous namespace'::handle_closer>
PUBLIC	?get@?$unique_ptr@XUhandle_closer@?A0xcec58e3e@@@std@@QBEPAXXZ ; std::unique_ptr<void,`anonymous namespace'::handle_closer>::get
PUBLIC	??B?$unique_ptr@XUhandle_closer@?A0xcec58e3e@@@std@@QBE_NXZ ; std::unique_ptr<void,`anonymous namespace'::handle_closer>::operator bool
PUBLIC	??0?$default_delete@$$BY0A@E@std@@QAE@XZ	; std::default_delete<unsigned char [0]>::default_delete<unsigned char [0]>
PUBLIC	??R?$default_delete@$$BY0A@E@std@@QBEXPAE@Z	; std::default_delete<unsigned char [0]>::operator()
PUBLIC	??0?$_Unique_ptr_base@EU?$default_delete@$$BY0A@E@std@@$00@std@@QAE@PAE@Z ; std::_Unique_ptr_base<unsigned char,std::default_delete<unsigned char [0]>,1>::_Unique_ptr_base<unsigned char,std::default_delete<unsigned char [0]>,1>
PUBLIC	?get_deleter@?$_Unique_ptr_base@EU?$default_delete@$$BY0A@E@std@@$00@std@@QAEAAU?$default_delete@$$BY0A@E@2@XZ ; std::_Unique_ptr_base<unsigned char,std::default_delete<unsigned char [0]>,1>::get_deleter
PUBLIC	??0?$unique_ptr@$$BY0A@EU?$default_delete@$$BY0A@E@std@@@std@@QAE@XZ ; std::unique_ptr<unsigned char [0],std::default_delete<unsigned char [0]> >::unique_ptr<unsigned char [0],std::default_delete<unsigned char [0]> >
PUBLIC	??1?$unique_ptr@$$BY0A@EU?$default_delete@$$BY0A@E@std@@@std@@QAE@XZ ; std::unique_ptr<unsigned char [0],std::default_delete<unsigned char [0]> >::~unique_ptr<unsigned char [0],std::default_delete<unsigned char [0]> >
PUBLIC	?get@?$unique_ptr@$$BY0A@EU?$default_delete@$$BY0A@E@std@@@std@@QBEPAEXZ ; std::unique_ptr<unsigned char [0],std::default_delete<unsigned char [0]> >::get
PUBLIC	??B?$unique_ptr@$$BY0A@EU?$default_delete@$$BY0A@E@std@@@std@@QBE_NXZ ; std::unique_ptr<unsigned char [0],std::default_delete<unsigned char [0]> >::operator bool
PUBLIC	?reset@?$unique_ptr@$$BY0A@EU?$default_delete@$$BY0A@E@std@@@std@@QAEXPAE@Z ; std::unique_ptr<unsigned char [0],std::default_delete<unsigned char [0]> >::reset
PUBLIC	?_Delete@?$unique_ptr@$$BY0A@EU?$default_delete@$$BY0A@E@std@@@std@@AAEXXZ ; std::unique_ptr<unsigned char [0],std::default_delete<unsigned char [0]> >::_Delete
PUBLIC	??$max@I@std@@YAABIABI0@Z			; std::max<unsigned int>
PUBLIC	??$SetDebugObjectName@$0BB@@?A0xcec58e3e@@YAXPAUID3D11DeviceChild@@AAY0BB@$$CBD@Z ; `anonymous namespace'::SetDebugObjectName<17>
PUBLIC	??0?$default_delete@$$BY0A@UD3D11_SUBRESOURCE_DATA@@@std@@QAE@XZ ; std::default_delete<D3D11_SUBRESOURCE_DATA [0]>::default_delete<D3D11_SUBRESOURCE_DATA [0]>
PUBLIC	??R?$default_delete@$$BY0A@UD3D11_SUBRESOURCE_DATA@@@std@@QBEXPAUD3D11_SUBRESOURCE_DATA@@@Z ; std::default_delete<D3D11_SUBRESOURCE_DATA [0]>::operator()
PUBLIC	??0?$_Unique_ptr_base@UD3D11_SUBRESOURCE_DATA@@U?$default_delete@$$BY0A@UD3D11_SUBRESOURCE_DATA@@@std@@$00@std@@QAE@PAUD3D11_SUBRESOURCE_DATA@@@Z ; std::_Unique_ptr_base<D3D11_SUBRESOURCE_DATA,std::default_delete<D3D11_SUBRESOURCE_DATA [0]>,1>::_Unique_ptr_base<D3D11_SUBRESOURCE_DATA,std::default_delete<D3D11_SUBRESOURCE_DATA [0]>,1>
PUBLIC	?get_deleter@?$_Unique_ptr_base@UD3D11_SUBRESOURCE_DATA@@U?$default_delete@$$BY0A@UD3D11_SUBRESOURCE_DATA@@@std@@$00@std@@QAEAAU?$default_delete@$$BY0A@UD3D11_SUBRESOURCE_DATA@@@2@XZ ; std::_Unique_ptr_base<D3D11_SUBRESOURCE_DATA,std::default_delete<D3D11_SUBRESOURCE_DATA [0]>,1>::get_deleter
PUBLIC	??0?$unique_ptr@$$BY0A@UD3D11_SUBRESOURCE_DATA@@U?$default_delete@$$BY0A@UD3D11_SUBRESOURCE_DATA@@@std@@@std@@QAE@PAUD3D11_SUBRESOURCE_DATA@@@Z ; std::unique_ptr<D3D11_SUBRESOURCE_DATA [0],std::default_delete<D3D11_SUBRESOURCE_DATA [0]> >::unique_ptr<D3D11_SUBRESOURCE_DATA [0],std::default_delete<D3D11_SUBRESOURCE_DATA [0]> >
PUBLIC	??1?$unique_ptr@$$BY0A@UD3D11_SUBRESOURCE_DATA@@U?$default_delete@$$BY0A@UD3D11_SUBRESOURCE_DATA@@@std@@@std@@QAE@XZ ; std::unique_ptr<D3D11_SUBRESOURCE_DATA [0],std::default_delete<D3D11_SUBRESOURCE_DATA [0]> >::~unique_ptr<D3D11_SUBRESOURCE_DATA [0],std::default_delete<D3D11_SUBRESOURCE_DATA [0]> >
PUBLIC	?get@?$unique_ptr@$$BY0A@UD3D11_SUBRESOURCE_DATA@@U?$default_delete@$$BY0A@UD3D11_SUBRESOURCE_DATA@@@std@@@std@@QBEPAUD3D11_SUBRESOURCE_DATA@@XZ ; std::unique_ptr<D3D11_SUBRESOURCE_DATA [0],std::default_delete<D3D11_SUBRESOURCE_DATA [0]> >::get
PUBLIC	??B?$unique_ptr@$$BY0A@UD3D11_SUBRESOURCE_DATA@@U?$default_delete@$$BY0A@UD3D11_SUBRESOURCE_DATA@@@std@@@std@@QBE_NXZ ; std::unique_ptr<D3D11_SUBRESOURCE_DATA [0],std::default_delete<D3D11_SUBRESOURCE_DATA [0]> >::operator bool
PUBLIC	?_Delete@?$unique_ptr@$$BY0A@UD3D11_SUBRESOURCE_DATA@@U?$default_delete@$$BY0A@UD3D11_SUBRESOURCE_DATA@@@std@@@std@@AAEXXZ ; std::unique_ptr<D3D11_SUBRESOURCE_DATA [0],std::default_delete<D3D11_SUBRESOURCE_DATA [0]> >::_Delete
PUBLIC	??$_Debug_lt@ABIABI@std@@YA_NABI0PB_WI@Z	; std::_Debug_lt<unsigned int const &,unsigned int const &>
PUBLIC	??$forward@ABI@std@@YAABIABI@Z			; std::forward<unsigned int const &>
PUBLIC	??$_Debug_lt_pred@U?$less@X@std@@ABIABI@std@@YA_NU?$less@X@0@ABI1PB_WI@Z ; std::_Debug_lt_pred<std::less<void>,unsigned int const &,unsigned int const &>
PUBLIC	??$?RABIABI@?$less@X@std@@QBE_NABI0@Z		; std::less<void>::operator()<unsigned int const &,unsigned int const &>
PUBLIC	??_C@_1JC@HALMDPKM@?$AAC?$AA?3?$AA?2?$AAP?$AAr?$AAo?$AAg?$AAr?$AAa?$AAm?$AA?5?$AAF?$AAi?$AAl?$AAe?$AAs?$AA?5?$AA?$CI?$AAx?$AA8?$AA6?$AA?$CJ?$AA?2?$AAM?$AAi?$AAc?$AAr?$AAo?$AAs?$AAo?$AAf?$AAt@ ; `string'
PUBLIC	??_C@_1CE@IGJMOCCK@?$AAi?$AAn?$AAv?$AAa?$AAl?$AAi?$AAd?$AA?5?$AAo?$AAp?$AAe?$AAr?$AAa?$AAt?$AAo?$AAr?$AA?$DM?$AA?$AA@ ; `string'
EXTRN	__imp__strnlen:PROC
EXTRN	__imp__strrchr:PROC
EXTRN	__imp__CreateFileW@28:PROC
EXTRN	__imp__ReadFile@20:PROC
EXTRN	__imp__CloseHandle@4:PROC
EXTRN	__imp__GetLastError@0:PROC
EXTRN	__imp__GetFileInformationByHandleEx@16:PROC
EXTRN	__imp__WideCharToMultiByte@32:PROC
EXTRN	__imp___wassert:PROC
EXTRN	??_U@YAPAXIABUnothrow_t@std@@@Z:PROC		; operator new[]
EXTRN	??_V@YAXPAX@Z:PROC				; operator delete[]
EXTRN	__imp_?_Debug_message@std@@YAXPB_W0I@Z:PROC
EXTRN	@_RTC_CheckStackVars@8:PROC
EXTRN	@__security_check_cookie@4:PROC
EXTRN	__RTC_CheckEsp:PROC
EXTRN	__RTC_InitBase:PROC
EXTRN	__RTC_Shutdown:PROC
EXTRN	___CxxFrameHandler3:PROC
EXTRN	?nothrow@std@@3Unothrow_t@1@B:BYTE		; std::nothrow
EXTRN	___security_cookie:DWORD
;	COMDAT rtc$TMZ
rtc$TMZ	SEGMENT
__RTC_Shutdown.rtc$TMZ DD FLAT:__RTC_Shutdown
rtc$TMZ	ENDS
;	COMDAT rtc$IMZ
rtc$IMZ	SEGMENT
__RTC_InitBase.rtc$IMZ DD FLAT:__RTC_InitBase
rtc$IMZ	ENDS
;	COMDAT ??_C@_1CE@IGJMOCCK@?$AAi?$AAn?$AAv?$AAa?$AAl?$AAi?$AAd?$AA?5?$AAo?$AAp?$AAe?$AAr?$AAa?$AAt?$AAo?$AAr?$AA?$DM?$AA?$AA@
CONST	SEGMENT
??_C@_1CE@IGJMOCCK@?$AAi?$AAn?$AAv?$AAa?$AAl?$AAi?$AAd?$AA?5?$AAo?$AAp?$AAe?$AAr?$AAa?$AAt?$AAo?$AAr?$AA?$DM?$AA?$AA@ DB 'i'
	DB	00H, 'n', 00H, 'v', 00H, 'a', 00H, 'l', 00H, 'i', 00H, 'd', 00H
	DB	' ', 00H, 'o', 00H, 'p', 00H, 'e', 00H, 'r', 00H, 'a', 00H, 't'
	DB	00H, 'o', 00H, 'r', 00H, '<', 00H, 00H, 00H	; `string'
CONST	ENDS
;	COMDAT ??_C@_1JC@HALMDPKM@?$AAC?$AA?3?$AA?2?$AAP?$AAr?$AAo?$AAg?$AAr?$AAa?$AAm?$AA?5?$AAF?$AAi?$AAl?$AAe?$AAs?$AA?5?$AA?$CI?$AAx?$AA8?$AA6?$AA?$CJ?$AA?2?$AAM?$AAi?$AAc?$AAr?$AAo?$AAs?$AAo?$AAf?$AAt@
CONST	SEGMENT
??_C@_1JC@HALMDPKM@?$AAC?$AA?3?$AA?2?$AAP?$AAr?$AAo?$AAg?$AAr?$AAa?$AAm?$AA?5?$AAF?$AAi?$AAl?$AAe?$AAs?$AA?5?$AA?$CI?$AAx?$AA8?$AA6?$AA?$CJ?$AA?2?$AAM?$AAi?$AAc?$AAr?$AAo?$AAs?$AAo?$AAf?$AAt@ DB 'C'
	DB	00H, ':', 00H, '\', 00H, 'P', 00H, 'r', 00H, 'o', 00H, 'g', 00H
	DB	'r', 00H, 'a', 00H, 'm', 00H, ' ', 00H, 'F', 00H, 'i', 00H, 'l'
	DB	00H, 'e', 00H, 's', 00H, ' ', 00H, '(', 00H, 'x', 00H, '8', 00H
	DB	'6', 00H, ')', 00H, '\', 00H, 'M', 00H, 'i', 00H, 'c', 00H, 'r'
	DB	00H, 'o', 00H, 's', 00H, 'o', 00H, 'f', 00H, 't', 00H, ' ', 00H
	DB	'V', 00H, 'i', 00H, 's', 00H, 'u', 00H, 'a', 00H, 'l', 00H, ' '
	DB	00H, 'S', 00H, 't', 00H, 'u', 00H, 'd', 00H, 'i', 00H, 'o', 00H
	DB	' ', 00H, '1', 00H, '2', 00H, '.', 00H, '0', 00H, '\', 00H, 'V'
	DB	00H, 'C', 00H, '\', 00H, 'i', 00H, 'n', 00H, 'c', 00H, 'l', 00H
	DB	'u', 00H, 'd', 00H, 'e', 00H, '\', 00H, 'a', 00H, 'l', 00H, 'g'
	DB	00H, 'o', 00H, 'r', 00H, 'i', 00H, 't', 00H, 'h', 00H, 'm', 00H
	DB	00H, 00H					; `string'
CONST	ENDS
xdata$x	SEGMENT
__unwindtable$?CreateTextureFromDDS@@YAJPAUID3D11Device@@PAUID3D11DeviceContext@@PBUDDS_HEADER@@PBEIIW4D3D11_USAGE@@III_NPAPAUID3D11Resource@@PAPAUID3D11ShaderResourceView@@@Z DD 0ffffffffH
	DD	FLAT:__unwindfunclet$?CreateTextureFromDDS@@YAJPAUID3D11Device@@PAUID3D11DeviceContext@@PBUDDS_HEADER@@PBEIIW4D3D11_USAGE@@III_NPAPAUID3D11Resource@@PAPAUID3D11ShaderResourceView@@@Z$0
__unwindtable$?CreateDDSTextureFromFileEx@DirectX@@YAJPAUID3D11Device@@PAUID3D11DeviceContext@@PB_WIW4D3D11_USAGE@@III_NPAPAUID3D11Resource@@PAPAUID3D11ShaderResourceView@@PAW4DDS_ALPHA_MODE@1@@Z DD 0ffffffffH
	DD	FLAT:__unwindfunclet$?CreateDDSTextureFromFileEx@DirectX@@YAJPAUID3D11Device@@PAUID3D11DeviceContext@@PB_WIW4D3D11_USAGE@@III_NPAPAUID3D11Resource@@PAPAUID3D11ShaderResourceView@@PAW4DDS_ALPHA_MODE@1@@Z$0
__ehfuncinfo$?CreateTextureFromDDS@@YAJPAUID3D11Device@@PAUID3D11DeviceContext@@PBUDDS_HEADER@@PBEIIW4D3D11_USAGE@@III_NPAPAUID3D11Resource@@PAPAUID3D11ShaderResourceView@@@Z DD 019930522H
	DD	01H
	DD	FLAT:__unwindtable$?CreateTextureFromDDS@@YAJPAUID3D11Device@@PAUID3D11DeviceContext@@PBUDDS_HEADER@@PBEIIW4D3D11_USAGE@@III_NPAPAUID3D11Resource@@PAPAUID3D11ShaderResourceView@@@Z
	DD	2 DUP(00H)
	DD	2 DUP(00H)
	DD	00H
	DD	01H
__ehfuncinfo$?CreateDDSTextureFromFileEx@DirectX@@YAJPAUID3D11Device@@PAUID3D11DeviceContext@@PB_WIW4D3D11_USAGE@@III_NPAPAUID3D11Resource@@PAPAUID3D11ShaderResourceView@@PAW4DDS_ALPHA_MODE@1@@Z DD 019930522H
	DD	01H
	DD	FLAT:__unwindtable$?CreateDDSTextureFromFileEx@DirectX@@YAJPAUID3D11Device@@PAUID3D11DeviceContext@@PB_WIW4D3D11_USAGE@@III_NPAPAUID3D11Resource@@PAPAUID3D11ShaderResourceView@@PAW4DDS_ALPHA_MODE@1@@Z
	DD	2 DUP(00H)
	DD	2 DUP(00H)
	DD	00H
	DD	01H
xdata$x	ENDS
; Function compile flags: /Odtp /RTCsu
;	COMDAT ??$?RABIABI@?$less@X@std@@QBE_NABI0@Z
_TEXT	SEGMENT
tv65 = -8						; size = 4
_this$ = -4						; size = 4
__Left$ = 8						; size = 4
__Right$ = 12						; size = 4
??$?RABIABI@?$less@X@std@@QBE_NABI0@Z PROC		; std::less<void>::operator()<unsigned int const &,unsigned int const &>, COMDAT
; _this$ = ecx
; File c:\program files (x86)\microsoft visual studio 12.0\vc\include\xstddef
; Line 263
	push	ebp
	mov	ebp, esp
	sub	esp, 8
	mov	DWORD PTR [ebp-8], -858993460		; ccccccccH
	mov	DWORD PTR [ebp-4], -858993460		; ccccccccH
	mov	DWORD PTR _this$[ebp], ecx
; Line 268
	mov	eax, DWORD PTR __Left$[ebp]
	mov	ecx, DWORD PTR __Right$[ebp]
	mov	edx, DWORD PTR [eax]
	cmp	edx, DWORD PTR [ecx]
	jae	SHORT $LN3@operator
	mov	DWORD PTR tv65[ebp], 1
	jmp	SHORT $LN4@operator
$LN3@operator:
	mov	DWORD PTR tv65[ebp], 0
$LN4@operator:
	mov	al, BYTE PTR tv65[ebp]
; Line 269
	mov	esp, ebp
	pop	ebp
	ret	8
??$?RABIABI@?$less@X@std@@QBE_NABI0@Z ENDP		; std::less<void>::operator()<unsigned int const &,unsigned int const &>
_TEXT	ENDS
; Function compile flags: /Odtp /RTCsu
;	COMDAT ??$_Debug_lt_pred@U?$less@X@std@@ABIABI@std@@YA_NU?$less@X@0@ABI1PB_WI@Z
_TEXT	SEGMENT
__Pred$ = 8						; size = 1
__Left$ = 12						; size = 4
__Right$ = 16						; size = 4
__File$ = 20						; size = 4
__Line$ = 24						; size = 4
??$_Debug_lt_pred@U?$less@X@std@@ABIABI@std@@YA_NU?$less@X@0@ABI1PB_WI@Z PROC ; std::_Debug_lt_pred<std::less<void>,unsigned int const &,unsigned int const &>, COMDAT
; File c:\program files (x86)\microsoft visual studio 12.0\vc\include\xutility
; Line 520
	push	ebp
	mov	ebp, esp
	push	esi
; Line 521
	mov	eax, DWORD PTR __Right$[ebp]
	push	eax
	call	??$forward@ABI@std@@YAABIABI@Z		; std::forward<unsigned int const &>
	add	esp, 4
	push	eax
	mov	ecx, DWORD PTR __Left$[ebp]
	push	ecx
	call	??$forward@ABI@std@@YAABIABI@Z		; std::forward<unsigned int const &>
	add	esp, 4
	push	eax
	lea	ecx, DWORD PTR __Pred$[ebp]
	call	??$?RABIABI@?$less@X@std@@QBE_NABI0@Z	; std::less<void>::operator()<unsigned int const &,unsigned int const &>
	movzx	edx, al
	test	edx, edx
	jne	SHORT $LN3@Debug_lt_p
; Line 522
	xor	al, al
	jmp	SHORT $LN4@Debug_lt_p
	jmp	SHORT $LN2@Debug_lt_p
$LN3@Debug_lt_p:
; Line 523
	mov	eax, DWORD PTR __Left$[ebp]
	push	eax
	call	??$forward@ABI@std@@YAABIABI@Z		; std::forward<unsigned int const &>
	add	esp, 4
	push	eax
	mov	ecx, DWORD PTR __Right$[ebp]
	push	ecx
	call	??$forward@ABI@std@@YAABIABI@Z		; std::forward<unsigned int const &>
	add	esp, 4
	push	eax
	lea	ecx, DWORD PTR __Pred$[ebp]
	call	??$?RABIABI@?$less@X@std@@QBE_NABI0@Z	; std::less<void>::operator()<unsigned int const &,unsigned int const &>
	movzx	edx, al
	test	edx, edx
	je	SHORT $LN2@Debug_lt_p
; Line 524
	mov	esi, esp
	mov	eax, DWORD PTR __Line$[ebp]
	push	eax
	mov	ecx, DWORD PTR __File$[ebp]
	push	ecx
	push	OFFSET ??_C@_1CE@IGJMOCCK@?$AAi?$AAn?$AAv?$AAa?$AAl?$AAi?$AAd?$AA?5?$AAo?$AAp?$AAe?$AAr?$AAa?$AAt?$AAo?$AAr?$AA?$DM?$AA?$AA@
	call	DWORD PTR __imp_?_Debug_message@std@@YAXPB_W0I@Z
	add	esp, 12					; 0000000cH
	cmp	esi, esp
	call	__RTC_CheckEsp
$LN2@Debug_lt_p:
; Line 525
	mov	al, 1
$LN4@Debug_lt_p:
; Line 526
	pop	esi
	cmp	ebp, esp
	call	__RTC_CheckEsp
	pop	ebp
	ret	0
??$_Debug_lt_pred@U?$less@X@std@@ABIABI@std@@YA_NU?$less@X@0@ABI1PB_WI@Z ENDP ; std::_Debug_lt_pred<std::less<void>,unsigned int const &,unsigned int const &>
_TEXT	ENDS
; Function compile flags: /Odtp /RTCsu
;	COMDAT ??$forward@ABI@std@@YAABIABI@Z
_TEXT	SEGMENT
__Arg$ = 8						; size = 4
??$forward@ABI@std@@YAABIABI@Z PROC			; std::forward<unsigned int const &>, COMDAT
; File c:\program files (x86)\microsoft visual studio 12.0\vc\include\type_traits
; Line 1504
	push	ebp
	mov	ebp, esp
; Line 1505
	mov	eax, DWORD PTR __Arg$[ebp]
; Line 1506
	pop	ebp
	ret	0
??$forward@ABI@std@@YAABIABI@Z ENDP			; std::forward<unsigned int const &>
_TEXT	ENDS
; Function compile flags: /Odtp /RTCsu
;	COMDAT ??$_Debug_lt@ABIABI@std@@YA_NABI0PB_WI@Z
_TEXT	SEGMENT
$T1 = -1						; size = 1
__Left$ = 8						; size = 4
__Right$ = 12						; size = 4
__File$ = 16						; size = 4
__Line$ = 20						; size = 4
??$_Debug_lt@ABIABI@std@@YA_NABI0PB_WI@Z PROC		; std::_Debug_lt<unsigned int const &,unsigned int const &>, COMDAT
; File c:\program files (x86)\microsoft visual studio 12.0\vc\include\xutility
; Line 532
	push	ebp
	mov	ebp, esp
	push	ecx
	mov	DWORD PTR [ebp-4], -858993460		; ccccccccH
; Line 534
	xor	eax, eax
	mov	BYTE PTR $T1[ebp], al
	mov	ecx, DWORD PTR __Line$[ebp]
	push	ecx
	mov	edx, DWORD PTR __File$[ebp]
	push	edx
	mov	eax, DWORD PTR __Right$[ebp]
	push	eax
	call	??$forward@ABI@std@@YAABIABI@Z		; std::forward<unsigned int const &>
	add	esp, 4
	push	eax
	mov	ecx, DWORD PTR __Left$[ebp]
	push	ecx
	call	??$forward@ABI@std@@YAABIABI@Z		; std::forward<unsigned int const &>
	add	esp, 4
	push	eax
	movzx	edx, BYTE PTR $T1[ebp]
	push	edx
	call	??$_Debug_lt_pred@U?$less@X@std@@ABIABI@std@@YA_NU?$less@X@0@ABI1PB_WI@Z ; std::_Debug_lt_pred<std::less<void>,unsigned int const &,unsigned int const &>
	add	esp, 20					; 00000014H
; Line 535
	add	esp, 4
	cmp	ebp, esp
	call	__RTC_CheckEsp
	mov	esp, ebp
	pop	ebp
	ret	0
??$_Debug_lt@ABIABI@std@@YA_NABI0PB_WI@Z ENDP		; std::_Debug_lt<unsigned int const &,unsigned int const &>
_TEXT	ENDS
; Function compile flags: /Odtp /RTCsu
_TEXT	SEGMENT
tv74 = -12						; size = 4
_mode$1 = -8						; size = 4
_d3d10ext$2 = -4					; size = 4
_header$ = 8						; size = 4
?GetAlphaMode@@YA?AW4DDS_ALPHA_MODE@DirectX@@PBUDDS_HEADER@@@Z PROC ; GetAlphaMode
; File d:\engine class\assignment 1\scratch\dxsse\dxut\core\ddstextureloader.cpp
; Line 1507
	push	ebp
	mov	ebp, esp
	sub	esp, 12					; 0000000cH
	mov	DWORD PTR [ebp-12], -858993460		; ccccccccH
	mov	DWORD PTR [ebp-8], -858993460		; ccccccccH
	mov	DWORD PTR [ebp-4], -858993460		; ccccccccH
; Line 1508
	mov	eax, DWORD PTR _header$[ebp]
	mov	ecx, DWORD PTR [eax+76]
	and	ecx, 4
	je	SHORT $LN8@GetAlphaMo
; Line 1510
	mov	edx, DWORD PTR _header$[ebp]
	cmp	DWORD PTR [edx+80], 808540228		; 30315844H
	jne	SHORT $LN7@GetAlphaMo
; Line 1512
	mov	eax, DWORD PTR _header$[ebp]
	add	eax, 124				; 0000007cH
	mov	DWORD PTR _d3d10ext$2[ebp], eax
; Line 1513
	mov	ecx, DWORD PTR _d3d10ext$2[ebp]
	mov	edx, DWORD PTR [ecx+16]
	and	edx, 7
	mov	DWORD PTR _mode$1[ebp], edx
; Line 1514
	mov	eax, DWORD PTR _mode$1[ebp]
	mov	DWORD PTR tv74[ebp], eax
	cmp	DWORD PTR tv74[ebp], 0
	jle	SHORT $LN5@GetAlphaMo
	cmp	DWORD PTR tv74[ebp], 4
	jle	SHORT $LN4@GetAlphaMo
	jmp	SHORT $LN5@GetAlphaMo
$LN4@GetAlphaMo:
; Line 1520
	mov	eax, DWORD PTR _mode$1[ebp]
	jmp	SHORT $LN9@GetAlphaMo
$LN5@GetAlphaMo:
; Line 1523
	jmp	SHORT $LN8@GetAlphaMo
$LN7@GetAlphaMo:
; Line 1524
	mov	ecx, DWORD PTR _header$[ebp]
	cmp	DWORD PTR [ecx+80], 844388420		; 32545844H
	je	SHORT $LN1@GetAlphaMo
	mov	edx, DWORD PTR _header$[ebp]
	cmp	DWORD PTR [edx+80], 877942852		; 34545844H
	jne	SHORT $LN8@GetAlphaMo
$LN1@GetAlphaMo:
; Line 1526
	mov	eax, 2
	jmp	SHORT $LN9@GetAlphaMo
$LN8@GetAlphaMo:
; Line 1530
	xor	eax, eax
$LN9@GetAlphaMo:
; Line 1531
	mov	esp, ebp
	pop	ebp
	ret	0
?GetAlphaMode@@YA?AW4DDS_ALPHA_MODE@DirectX@@PBUDDS_HEADER@@@Z ENDP ; GetAlphaMode
_TEXT	ENDS
; Function compile flags: /Odtp /RTCsu
;	COMDAT ?_Delete@?$unique_ptr@$$BY0A@UD3D11_SUBRESOURCE_DATA@@U?$default_delete@$$BY0A@UD3D11_SUBRESOURCE_DATA@@@std@@@std@@AAEXXZ
_TEXT	SEGMENT
_this$ = -4						; size = 4
?_Delete@?$unique_ptr@$$BY0A@UD3D11_SUBRESOURCE_DATA@@U?$default_delete@$$BY0A@UD3D11_SUBRESOURCE_DATA@@@std@@@std@@AAEXXZ PROC ; std::unique_ptr<D3D11_SUBRESOURCE_DATA [0],std::default_delete<D3D11_SUBRESOURCE_DATA [0]> >::_Delete, COMDAT
; _this$ = ecx
; File c:\program files (x86)\microsoft visual studio 12.0\vc\include\memory
; Line 1627
	push	ebp
	mov	ebp, esp
	push	ecx
	mov	DWORD PTR [ebp-4], -858993460		; ccccccccH
	mov	DWORD PTR _this$[ebp], ecx
; Line 1628
	mov	eax, DWORD PTR _this$[ebp]
	cmp	DWORD PTR [eax], 0
	je	SHORT $LN2@Delete
; Line 1629
	mov	ecx, DWORD PTR _this$[ebp]
	mov	edx, DWORD PTR [ecx]
	push	edx
	mov	ecx, DWORD PTR _this$[ebp]
	call	?get_deleter@?$_Unique_ptr_base@UD3D11_SUBRESOURCE_DATA@@U?$default_delete@$$BY0A@UD3D11_SUBRESOURCE_DATA@@@std@@$00@std@@QAEAAU?$default_delete@$$BY0A@UD3D11_SUBRESOURCE_DATA@@@2@XZ ; std::_Unique_ptr_base<D3D11_SUBRESOURCE_DATA,std::default_delete<D3D11_SUBRESOURCE_DATA [0]>,1>::get_deleter
	mov	ecx, eax
	call	??R?$default_delete@$$BY0A@UD3D11_SUBRESOURCE_DATA@@@std@@QBEXPAUD3D11_SUBRESOURCE_DATA@@@Z ; std::default_delete<D3D11_SUBRESOURCE_DATA [0]>::operator()
$LN2@Delete:
; Line 1630
	add	esp, 4
	cmp	ebp, esp
	call	__RTC_CheckEsp
	mov	esp, ebp
	pop	ebp
	ret	0
?_Delete@?$unique_ptr@$$BY0A@UD3D11_SUBRESOURCE_DATA@@U?$default_delete@$$BY0A@UD3D11_SUBRESOURCE_DATA@@@std@@@std@@AAEXXZ ENDP ; std::unique_ptr<D3D11_SUBRESOURCE_DATA [0],std::default_delete<D3D11_SUBRESOURCE_DATA [0]> >::_Delete
_TEXT	ENDS
; Function compile flags: /Odtp /RTCsu
;	COMDAT ??B?$unique_ptr@$$BY0A@UD3D11_SUBRESOURCE_DATA@@U?$default_delete@$$BY0A@UD3D11_SUBRESOURCE_DATA@@@std@@@std@@QBE_NXZ
_TEXT	SEGMENT
tv70 = -8						; size = 4
_this$ = -4						; size = 4
??B?$unique_ptr@$$BY0A@UD3D11_SUBRESOURCE_DATA@@U?$default_delete@$$BY0A@UD3D11_SUBRESOURCE_DATA@@@std@@@std@@QBE_NXZ PROC ; std::unique_ptr<D3D11_SUBRESOURCE_DATA [0],std::default_delete<D3D11_SUBRESOURCE_DATA [0]> >::operator bool, COMDAT
; _this$ = ecx
; File c:\program files (x86)\microsoft visual studio 12.0\vc\include\memory
; Line 1594
	push	ebp
	mov	ebp, esp
	sub	esp, 8
	mov	DWORD PTR [ebp-8], -858993460		; ccccccccH
	mov	DWORD PTR [ebp-4], -858993460		; ccccccccH
	mov	DWORD PTR _this$[ebp], ecx
; Line 1595
	mov	eax, DWORD PTR _this$[ebp]
	cmp	DWORD PTR [eax], 0
	je	SHORT $LN3@operator
	mov	DWORD PTR tv70[ebp], 1
	jmp	SHORT $LN4@operator
$LN3@operator:
	mov	DWORD PTR tv70[ebp], 0
$LN4@operator:
	mov	al, BYTE PTR tv70[ebp]
; Line 1596
	mov	esp, ebp
	pop	ebp
	ret	0
??B?$unique_ptr@$$BY0A@UD3D11_SUBRESOURCE_DATA@@U?$default_delete@$$BY0A@UD3D11_SUBRESOURCE_DATA@@@std@@@std@@QBE_NXZ ENDP ; std::unique_ptr<D3D11_SUBRESOURCE_DATA [0],std::default_delete<D3D11_SUBRESOURCE_DATA [0]> >::operator bool
_TEXT	ENDS
; Function compile flags: /Odtp /RTCsu
;	COMDAT ?get@?$unique_ptr@$$BY0A@UD3D11_SUBRESOURCE_DATA@@U?$default_delete@$$BY0A@UD3D11_SUBRESOURCE_DATA@@@std@@@std@@QBEPAUD3D11_SUBRESOURCE_DATA@@XZ
_TEXT	SEGMENT
_this$ = -4						; size = 4
?get@?$unique_ptr@$$BY0A@UD3D11_SUBRESOURCE_DATA@@U?$default_delete@$$BY0A@UD3D11_SUBRESOURCE_DATA@@@std@@@std@@QBEPAUD3D11_SUBRESOURCE_DATA@@XZ PROC ; std::unique_ptr<D3D11_SUBRESOURCE_DATA [0],std::default_delete<D3D11_SUBRESOURCE_DATA [0]> >::get, COMDAT
; _this$ = ecx
; File c:\program files (x86)\microsoft visual studio 12.0\vc\include\memory
; Line 1589
	push	ebp
	mov	ebp, esp
	push	ecx
	mov	DWORD PTR [ebp-4], -858993460		; ccccccccH
	mov	DWORD PTR _this$[ebp], ecx
; Line 1590
	mov	eax, DWORD PTR _this$[ebp]
	mov	eax, DWORD PTR [eax]
; Line 1591
	mov	esp, ebp
	pop	ebp
	ret	0
?get@?$unique_ptr@$$BY0A@UD3D11_SUBRESOURCE_DATA@@U?$default_delete@$$BY0A@UD3D11_SUBRESOURCE_DATA@@@std@@@std@@QBEPAUD3D11_SUBRESOURCE_DATA@@XZ ENDP ; std::unique_ptr<D3D11_SUBRESOURCE_DATA [0],std::default_delete<D3D11_SUBRESOURCE_DATA [0]> >::get
_TEXT	ENDS
; Function compile flags: /Odtp /RTCsu
;	COMDAT ??1?$unique_ptr@$$BY0A@UD3D11_SUBRESOURCE_DATA@@U?$default_delete@$$BY0A@UD3D11_SUBRESOURCE_DATA@@@std@@@std@@QAE@XZ
_TEXT	SEGMENT
_this$ = -4						; size = 4
??1?$unique_ptr@$$BY0A@UD3D11_SUBRESOURCE_DATA@@U?$default_delete@$$BY0A@UD3D11_SUBRESOURCE_DATA@@@std@@@std@@QAE@XZ PROC ; std::unique_ptr<D3D11_SUBRESOURCE_DATA [0],std::default_delete<D3D11_SUBRESOURCE_DATA [0]> >::~unique_ptr<D3D11_SUBRESOURCE_DATA [0],std::default_delete<D3D11_SUBRESOURCE_DATA [0]> >, COMDAT
; _this$ = ecx
; File c:\program files (x86)\microsoft visual studio 12.0\vc\include\memory
; Line 1579
	push	ebp
	mov	ebp, esp
	push	ecx
	mov	DWORD PTR [ebp-4], -858993460		; ccccccccH
	mov	DWORD PTR _this$[ebp], ecx
; Line 1580
	mov	ecx, DWORD PTR _this$[ebp]
	call	?_Delete@?$unique_ptr@$$BY0A@UD3D11_SUBRESOURCE_DATA@@U?$default_delete@$$BY0A@UD3D11_SUBRESOURCE_DATA@@@std@@@std@@AAEXXZ ; std::unique_ptr<D3D11_SUBRESOURCE_DATA [0],std::default_delete<D3D11_SUBRESOURCE_DATA [0]> >::_Delete
; Line 1581
	add	esp, 4
	cmp	ebp, esp
	call	__RTC_CheckEsp
	mov	esp, ebp
	pop	ebp
	ret	0
??1?$unique_ptr@$$BY0A@UD3D11_SUBRESOURCE_DATA@@U?$default_delete@$$BY0A@UD3D11_SUBRESOURCE_DATA@@@std@@@std@@QAE@XZ ENDP ; std::unique_ptr<D3D11_SUBRESOURCE_DATA [0],std::default_delete<D3D11_SUBRESOURCE_DATA [0]> >::~unique_ptr<D3D11_SUBRESOURCE_DATA [0],std::default_delete<D3D11_SUBRESOURCE_DATA [0]> >
_TEXT	ENDS
; Function compile flags: /Odtp /RTCsu
;	COMDAT ??0?$unique_ptr@$$BY0A@UD3D11_SUBRESOURCE_DATA@@U?$default_delete@$$BY0A@UD3D11_SUBRESOURCE_DATA@@@std@@@std@@QAE@PAUD3D11_SUBRESOURCE_DATA@@@Z
_TEXT	SEGMENT
_this$ = -4						; size = 4
__Ptr$ = 8						; size = 4
??0?$unique_ptr@$$BY0A@UD3D11_SUBRESOURCE_DATA@@U?$default_delete@$$BY0A@UD3D11_SUBRESOURCE_DATA@@@std@@@std@@QAE@PAUD3D11_SUBRESOURCE_DATA@@@Z PROC ; std::unique_ptr<D3D11_SUBRESOURCE_DATA [0],std::default_delete<D3D11_SUBRESOURCE_DATA [0]> >::unique_ptr<D3D11_SUBRESOURCE_DATA [0],std::default_delete<D3D11_SUBRESOURCE_DATA [0]> >, COMDAT
; _this$ = ecx
; File c:\program files (x86)\microsoft visual studio 12.0\vc\include\memory
; Line 1518
	push	ebp
	mov	ebp, esp
	push	ecx
	mov	DWORD PTR [ebp-4], -858993460		; ccccccccH
	mov	DWORD PTR _this$[ebp], ecx
	mov	eax, DWORD PTR __Ptr$[ebp]
	push	eax
	mov	ecx, DWORD PTR _this$[ebp]
	call	??0?$_Unique_ptr_base@UD3D11_SUBRESOURCE_DATA@@U?$default_delete@$$BY0A@UD3D11_SUBRESOURCE_DATA@@@std@@$00@std@@QAE@PAUD3D11_SUBRESOURCE_DATA@@@Z ; std::_Unique_ptr_base<D3D11_SUBRESOURCE_DATA,std::default_delete<D3D11_SUBRESOURCE_DATA [0]>,1>::_Unique_ptr_base<D3D11_SUBRESOURCE_DATA,std::default_delete<D3D11_SUBRESOURCE_DATA [0]>,1>
; Line 1521
	mov	eax, DWORD PTR _this$[ebp]
	add	esp, 4
	cmp	ebp, esp
	call	__RTC_CheckEsp
	mov	esp, ebp
	pop	ebp
	ret	4
??0?$unique_ptr@$$BY0A@UD3D11_SUBRESOURCE_DATA@@U?$default_delete@$$BY0A@UD3D11_SUBRESOURCE_DATA@@@std@@@std@@QAE@PAUD3D11_SUBRESOURCE_DATA@@@Z ENDP ; std::unique_ptr<D3D11_SUBRESOURCE_DATA [0],std::default_delete<D3D11_SUBRESOURCE_DATA [0]> >::unique_ptr<D3D11_SUBRESOURCE_DATA [0],std::default_delete<D3D11_SUBRESOURCE_DATA [0]> >
_TEXT	ENDS
; Function compile flags: /Odtp /RTCsu
;	COMDAT ?get_deleter@?$_Unique_ptr_base@UD3D11_SUBRESOURCE_DATA@@U?$default_delete@$$BY0A@UD3D11_SUBRESOURCE_DATA@@@std@@$00@std@@QAEAAU?$default_delete@$$BY0A@UD3D11_SUBRESOURCE_DATA@@@2@XZ
_TEXT	SEGMENT
_this$ = -4						; size = 4
?get_deleter@?$_Unique_ptr_base@UD3D11_SUBRESOURCE_DATA@@U?$default_delete@$$BY0A@UD3D11_SUBRESOURCE_DATA@@@std@@$00@std@@QAEAAU?$default_delete@$$BY0A@UD3D11_SUBRESOURCE_DATA@@@2@XZ PROC ; std::_Unique_ptr_base<D3D11_SUBRESOURCE_DATA,std::default_delete<D3D11_SUBRESOURCE_DATA [0]>,1>::get_deleter, COMDAT
; _this$ = ecx
; File c:\program files (x86)\microsoft visual studio 12.0\vc\include\memory
; Line 1312
	push	ebp
	mov	ebp, esp
	push	ecx
	mov	DWORD PTR [ebp-4], -858993460		; ccccccccH
	mov	DWORD PTR _this$[ebp], ecx
; Line 1313
	mov	eax, DWORD PTR _this$[ebp]
; Line 1314
	mov	esp, ebp
	pop	ebp
	ret	0
?get_deleter@?$_Unique_ptr_base@UD3D11_SUBRESOURCE_DATA@@U?$default_delete@$$BY0A@UD3D11_SUBRESOURCE_DATA@@@std@@$00@std@@QAEAAU?$default_delete@$$BY0A@UD3D11_SUBRESOURCE_DATA@@@2@XZ ENDP ; std::_Unique_ptr_base<D3D11_SUBRESOURCE_DATA,std::default_delete<D3D11_SUBRESOURCE_DATA [0]>,1>::get_deleter
_TEXT	ENDS
; Function compile flags: /Odtp /RTCsu
;	COMDAT ??0?$_Unique_ptr_base@UD3D11_SUBRESOURCE_DATA@@U?$default_delete@$$BY0A@UD3D11_SUBRESOURCE_DATA@@@std@@$00@std@@QAE@PAUD3D11_SUBRESOURCE_DATA@@@Z
_TEXT	SEGMENT
_this$ = -4						; size = 4
__Ptr$ = 8						; size = 4
??0?$_Unique_ptr_base@UD3D11_SUBRESOURCE_DATA@@U?$default_delete@$$BY0A@UD3D11_SUBRESOURCE_DATA@@@std@@$00@std@@QAE@PAUD3D11_SUBRESOURCE_DATA@@@Z PROC ; std::_Unique_ptr_base<D3D11_SUBRESOURCE_DATA,std::default_delete<D3D11_SUBRESOURCE_DATA [0]>,1>::_Unique_ptr_base<D3D11_SUBRESOURCE_DATA,std::default_delete<D3D11_SUBRESOURCE_DATA [0]>,1>, COMDAT
; _this$ = ecx
; File c:\program files (x86)\microsoft visual studio 12.0\vc\include\memory
; Line 1295
	push	ebp
	mov	ebp, esp
	push	ecx
	mov	DWORD PTR [ebp-4], -858993460		; ccccccccH
	mov	DWORD PTR _this$[ebp], ecx
	mov	ecx, DWORD PTR _this$[ebp]
	call	??0?$default_delete@$$BY0A@UD3D11_SUBRESOURCE_DATA@@@std@@QAE@XZ ; std::default_delete<D3D11_SUBRESOURCE_DATA [0]>::default_delete<D3D11_SUBRESOURCE_DATA [0]>
	mov	eax, DWORD PTR _this$[ebp]
	mov	ecx, DWORD PTR __Ptr$[ebp]
	mov	DWORD PTR [eax], ecx
; Line 1296
	mov	eax, DWORD PTR _this$[ebp]
	add	esp, 4
	cmp	ebp, esp
	call	__RTC_CheckEsp
	mov	esp, ebp
	pop	ebp
	ret	4
??0?$_Unique_ptr_base@UD3D11_SUBRESOURCE_DATA@@U?$default_delete@$$BY0A@UD3D11_SUBRESOURCE_DATA@@@std@@$00@std@@QAE@PAUD3D11_SUBRESOURCE_DATA@@@Z ENDP ; std::_Unique_ptr_base<D3D11_SUBRESOURCE_DATA,std::default_delete<D3D11_SUBRESOURCE_DATA [0]>,1>::_Unique_ptr_base<D3D11_SUBRESOURCE_DATA,std::default_delete<D3D11_SUBRESOURCE_DATA [0]>,1>
_TEXT	ENDS
; Function compile flags: /Odtp /RTCsu
;	COMDAT ??R?$default_delete@$$BY0A@UD3D11_SUBRESOURCE_DATA@@@std@@QBEXPAUD3D11_SUBRESOURCE_DATA@@@Z
_TEXT	SEGMENT
$T1 = -8						; size = 4
_this$ = -4						; size = 4
__Ptr$ = 8						; size = 4
??R?$default_delete@$$BY0A@UD3D11_SUBRESOURCE_DATA@@@std@@QBEXPAUD3D11_SUBRESOURCE_DATA@@@Z PROC ; std::default_delete<D3D11_SUBRESOURCE_DATA [0]>::operator(), COMDAT
; _this$ = ecx
; File c:\program files (x86)\microsoft visual studio 12.0\vc\include\memory
; Line 1217
	push	ebp
	mov	ebp, esp
	sub	esp, 8
	mov	DWORD PTR [ebp-8], -858993460		; ccccccccH
	mov	DWORD PTR [ebp-4], -858993460		; ccccccccH
	mov	DWORD PTR _this$[ebp], ecx
; Line 1220
	mov	eax, DWORD PTR __Ptr$[ebp]
	mov	DWORD PTR $T1[ebp], eax
	mov	ecx, DWORD PTR $T1[ebp]
	push	ecx
	call	??_V@YAXPAX@Z				; operator delete[]
	add	esp, 4
; Line 1221
	add	esp, 8
	cmp	ebp, esp
	call	__RTC_CheckEsp
	mov	esp, ebp
	pop	ebp
	ret	4
??R?$default_delete@$$BY0A@UD3D11_SUBRESOURCE_DATA@@@std@@QBEXPAUD3D11_SUBRESOURCE_DATA@@@Z ENDP ; std::default_delete<D3D11_SUBRESOURCE_DATA [0]>::operator()
_TEXT	ENDS
; Function compile flags: /Odtp /RTCsu
;	COMDAT ??0?$default_delete@$$BY0A@UD3D11_SUBRESOURCE_DATA@@@std@@QAE@XZ
_TEXT	SEGMENT
_this$ = -4						; size = 4
??0?$default_delete@$$BY0A@UD3D11_SUBRESOURCE_DATA@@@std@@QAE@XZ PROC ; std::default_delete<D3D11_SUBRESOURCE_DATA [0]>::default_delete<D3D11_SUBRESOURCE_DATA [0]>, COMDAT
; _this$ = ecx
; File c:\program files (x86)\microsoft visual studio 12.0\vc\include\memory
; Line 1209
	push	ebp
	mov	ebp, esp
	push	ecx
	mov	DWORD PTR [ebp-4], -858993460		; ccccccccH
	mov	DWORD PTR _this$[ebp], ecx
; Line 1211
	mov	eax, DWORD PTR _this$[ebp]
	mov	esp, ebp
	pop	ebp
	ret	0
??0?$default_delete@$$BY0A@UD3D11_SUBRESOURCE_DATA@@@std@@QAE@XZ ENDP ; std::default_delete<D3D11_SUBRESOURCE_DATA [0]>::default_delete<D3D11_SUBRESOURCE_DATA [0]>
_TEXT	ENDS
; Function compile flags: /Odtp /RTCsu
_TEXT	SEGMENT
tv458 = -256						; size = 4
tv456 = -252						; size = 4
tv454 = -248						; size = 4
tv450 = -244						; size = 4
tv278 = -240						; size = 4
tv179 = -236						; size = 4
tv95 = -232						; size = 4
tv82 = -228						; size = 4
$T2 = -224						; size = 4
$T3 = -220						; size = 4
_tdepth$4 = -212					; size = 4
_theight$5 = -200					; size = 4
_twidth$6 = -188					; size = 4
_skipMip$7 = -176					; size = 4
_initData$8 = -164					; size = 4
_res$9 = -156						; size = 4
_item$10 = -152						; size = 4
_pEndBits$11 = -148					; size = 4
_pSrcBits$12 = -144					; size = 4
_mipLevels$13 = -140					; size = 4
_desc$14 = -132						; size = 24
_rowBytes$15 = -100					; size = 4
_numBytes$16 = -88					; size = 4
_tex$17 = -76						; size = 4
_fmtSupport$18 = -64					; size = 4
_autogen$ = -53						; size = 1
_d3d10ext$19 = -52					; size = 4
_mipCount$ = -48					; size = 4
_isCubeMap$ = -41					; size = 1
_format$ = -40						; size = 4
_arraySize$ = -36					; size = 4
_resDim$ = -32						; size = 4
_depth$ = -28						; size = 4
_height$ = -24						; size = 4
_width$ = -20						; size = 4
_hr$ = -16						; size = 4
__$EHRec$ = -12						; size = 12
_d3dDevice$ = 8						; size = 4
_d3dContext$ = 12					; size = 4
_header$ = 16						; size = 4
_bitData$ = 20						; size = 4
_bitSize$ = 24						; size = 4
_maxsize$ = 28						; size = 4
_usage$ = 32						; size = 4
_bindFlags$ = 36					; size = 4
_cpuAccessFlags$ = 40					; size = 4
_miscFlags$ = 44					; size = 4
_forceSRGB$ = 48					; size = 1
_texture$ = 52						; size = 4
_textureView$ = 56					; size = 4
?CreateTextureFromDDS@@YAJPAUID3D11Device@@PAUID3D11DeviceContext@@PBUDDS_HEADER@@PBEIIW4D3D11_USAGE@@III_NPAPAUID3D11Resource@@PAPAUID3D11ShaderResourceView@@@Z PROC ; CreateTextureFromDDS
; File d:\engine class\assignment 1\scratch\dxsse\dxut\core\ddstextureloader.cpp
; Line 1172
	push	ebp
	mov	ebp, esp
	push	-1
	push	__ehhandler$?CreateTextureFromDDS@@YAJPAUID3D11Device@@PAUID3D11DeviceContext@@PBUDDS_HEADER@@PBEIIW4D3D11_USAGE@@III_NPAPAUID3D11Resource@@PAPAUID3D11ShaderResourceView@@@Z
	mov	eax, DWORD PTR fs:0
	push	eax
	sub	esp, 244				; 000000f4H
	push	esi
	push	edi
	lea	edi, DWORD PTR [ebp-256]
	mov	ecx, 61					; 0000003dH
	mov	eax, -858993460				; ccccccccH
	rep stosd
	mov	eax, DWORD PTR ___security_cookie
	xor	eax, ebp
	push	eax
	lea	eax, DWORD PTR __$EHRec$[ebp]
	mov	DWORD PTR fs:0, eax
; Line 1173
	mov	DWORD PTR _hr$[ebp], 0
; Line 1175
	mov	eax, DWORD PTR _header$[ebp]
	mov	ecx, DWORD PTR [eax+12]
	mov	DWORD PTR _width$[ebp], ecx
; Line 1176
	mov	edx, DWORD PTR _header$[ebp]
	mov	eax, DWORD PTR [edx+8]
	mov	DWORD PTR _height$[ebp], eax
; Line 1177
	mov	ecx, DWORD PTR _header$[ebp]
	mov	edx, DWORD PTR [ecx+20]
	mov	DWORD PTR _depth$[ebp], edx
; Line 1179
	mov	DWORD PTR _resDim$[ebp], 0
; Line 1180
	mov	DWORD PTR _arraySize$[ebp], 1
; Line 1181
	mov	DWORD PTR _format$[ebp], 0
; Line 1182
	mov	BYTE PTR _isCubeMap$[ebp], 0
; Line 1184
	mov	eax, DWORD PTR _header$[ebp]
	mov	ecx, DWORD PTR [eax+24]
	mov	DWORD PTR _mipCount$[ebp], ecx
; Line 1185
	cmp	DWORD PTR _mipCount$[ebp], 0
	jne	SHORT $LN76@CreateText
; Line 1187
	mov	DWORD PTR _mipCount$[ebp], 1
$LN76@CreateText:
; Line 1191
	mov	edx, DWORD PTR _header$[ebp]
	mov	eax, DWORD PTR [edx+76]
	and	eax, 4
	je	$LN75@CreateText
	mov	ecx, DWORD PTR _header$[ebp]
	cmp	DWORD PTR [ecx+80], 808540228		; 30315844H
	jne	$LN75@CreateText
; Line 1193
	mov	edx, DWORD PTR _header$[ebp]
	add	edx, 124				; 0000007cH
	mov	DWORD PTR _d3d10ext$19[ebp], edx
; Line 1195
	mov	eax, DWORD PTR _d3d10ext$19[ebp]
	mov	ecx, DWORD PTR [eax+12]
	mov	DWORD PTR _arraySize$[ebp], ecx
; Line 1196
	cmp	DWORD PTR _arraySize$[ebp], 0
	jne	SHORT $LN74@CreateText
; Line 1198
	push	13					; 0000000dH
	call	_HRESULT_FROM_WIN32
	add	esp, 4
	jmp	$LN77@CreateText
$LN74@CreateText:
; Line 1201
	mov	edx, DWORD PTR _d3d10ext$19[ebp]
	mov	eax, DWORD PTR [edx]
	mov	DWORD PTR tv82[ebp], eax
	cmp	DWORD PTR tv82[ebp], 111		; 0000006fH
	jl	SHORT $LN70@CreateText
	cmp	DWORD PTR tv82[ebp], 114		; 00000072H
	jle	SHORT $LN71@CreateText
	jmp	SHORT $LN70@CreateText
$LN71@CreateText:
; Line 1207
	push	50					; 00000032H
	call	_HRESULT_FROM_WIN32
	add	esp, 4
	jmp	$LN77@CreateText
$LN70@CreateText:
; Line 1210
	mov	ecx, DWORD PTR _d3d10ext$19[ebp]
	mov	edx, DWORD PTR [ecx]
	push	edx
	call	?BitsPerPixel@@YAIW4DXGI_FORMAT@@@Z	; BitsPerPixel
	add	esp, 4
	test	eax, eax
	jne	SHORT $LN72@CreateText
; Line 1212
	push	50					; 00000032H
	call	_HRESULT_FROM_WIN32
	add	esp, 4
	jmp	$LN77@CreateText
$LN72@CreateText:
; Line 1216
	mov	eax, DWORD PTR _d3d10ext$19[ebp]
	mov	ecx, DWORD PTR [eax]
	mov	DWORD PTR _format$[ebp], ecx
; Line 1218
	mov	edx, DWORD PTR _d3d10ext$19[ebp]
	mov	eax, DWORD PTR [edx+4]
	mov	DWORD PTR tv95[ebp], eax
	cmp	DWORD PTR tv95[ebp], 2
	je	SHORT $LN66@CreateText
	cmp	DWORD PTR tv95[ebp], 3
	je	SHORT $LN64@CreateText
	cmp	DWORD PTR tv95[ebp], 4
	je	SHORT $LN62@CreateText
	jmp	$LN59@CreateText
$LN66@CreateText:
; Line 1222
	mov	ecx, DWORD PTR _header$[ebp]
	mov	edx, DWORD PTR [ecx+4]
	and	edx, 2
	je	SHORT $LN65@CreateText
	cmp	DWORD PTR _height$[ebp], 1
	je	SHORT $LN65@CreateText
; Line 1224
	push	13					; 0000000dH
	call	_HRESULT_FROM_WIN32
	add	esp, 4
	jmp	$LN77@CreateText
$LN65@CreateText:
; Line 1226
	mov	DWORD PTR _depth$[ebp], 1
	mov	eax, DWORD PTR _depth$[ebp]
	mov	DWORD PTR _height$[ebp], eax
; Line 1227
	jmp	SHORT $LN67@CreateText
$LN64@CreateText:
; Line 1230
	mov	ecx, DWORD PTR _d3d10ext$19[ebp]
	mov	edx, DWORD PTR [ecx+8]
	and	edx, 4
	je	SHORT $LN63@CreateText
; Line 1232
	imul	eax, DWORD PTR _arraySize$[ebp], 6
	mov	DWORD PTR _arraySize$[ebp], eax
; Line 1233
	mov	BYTE PTR _isCubeMap$[ebp], 1
$LN63@CreateText:
; Line 1235
	mov	DWORD PTR _depth$[ebp], 1
; Line 1236
	jmp	SHORT $LN67@CreateText
$LN62@CreateText:
; Line 1239
	mov	ecx, DWORD PTR _header$[ebp]
	mov	edx, DWORD PTR [ecx+4]
	and	edx, 8388608				; 00800000H
	jne	SHORT $LN61@CreateText
; Line 1241
	push	13					; 0000000dH
	call	_HRESULT_FROM_WIN32
	add	esp, 4
	jmp	$LN77@CreateText
$LN61@CreateText:
; Line 1244
	cmp	DWORD PTR _arraySize$[ebp], 1
	jbe	SHORT $LN60@CreateText
; Line 1246
	push	50					; 00000032H
	call	_HRESULT_FROM_WIN32
	add	esp, 4
	jmp	$LN77@CreateText
$LN60@CreateText:
; Line 1248
	jmp	SHORT $LN67@CreateText
$LN59@CreateText:
; Line 1251
	push	50					; 00000032H
	call	_HRESULT_FROM_WIN32
	add	esp, 4
	jmp	$LN77@CreateText
$LN67@CreateText:
; Line 1254
	mov	eax, DWORD PTR _d3d10ext$19[ebp]
	mov	ecx, DWORD PTR [eax+4]
	mov	DWORD PTR _resDim$[ebp], ecx
; Line 1256
	jmp	$LN58@CreateText
$LN75@CreateText:
; Line 1258
	mov	edx, DWORD PTR _header$[ebp]
	add	edx, 72					; 00000048H
	push	edx
	call	?GetDXGIFormat@@YA?AW4DXGI_FORMAT@@ABUDDS_PIXELFORMAT@@@Z ; GetDXGIFormat
	add	esp, 4
	mov	DWORD PTR _format$[ebp], eax
; Line 1260
	cmp	DWORD PTR _format$[ebp], 0
	jne	SHORT $LN57@CreateText
; Line 1262
	push	50					; 00000032H
	call	_HRESULT_FROM_WIN32
	add	esp, 4
	jmp	$LN77@CreateText
$LN57@CreateText:
; Line 1265
	mov	eax, DWORD PTR _header$[ebp]
	mov	ecx, DWORD PTR [eax+4]
	and	ecx, 8388608				; 00800000H
	je	SHORT $LN56@CreateText
; Line 1267
	mov	DWORD PTR _resDim$[ebp], 4
; Line 1269
	jmp	SHORT $LN55@CreateText
$LN56@CreateText:
; Line 1271
	mov	edx, DWORD PTR _header$[ebp]
	mov	eax, DWORD PTR [edx+108]
	and	eax, 512				; 00000200H
	je	SHORT $LN54@CreateText
; Line 1274
	mov	ecx, DWORD PTR _header$[ebp]
	mov	edx, DWORD PTR [ecx+108]
	and	edx, 65024				; 0000fe00H
	cmp	edx, 65024				; 0000fe00H
	je	SHORT $LN53@CreateText
; Line 1276
	push	50					; 00000032H
	call	_HRESULT_FROM_WIN32
	add	esp, 4
	jmp	$LN77@CreateText
$LN53@CreateText:
; Line 1279
	mov	DWORD PTR _arraySize$[ebp], 6
; Line 1280
	mov	BYTE PTR _isCubeMap$[ebp], 1
$LN54@CreateText:
; Line 1283
	mov	DWORD PTR _depth$[ebp], 1
; Line 1284
	mov	DWORD PTR _resDim$[ebp], 3
$LN55@CreateText:
; Line 1289
	mov	eax, DWORD PTR _format$[ebp]
	push	eax
	call	?BitsPerPixel@@YAIW4DXGI_FORMAT@@@Z	; BitsPerPixel
	add	esp, 4
	test	eax, eax
	jne	SHORT $LN58@CreateText
	mov	esi, esp
	push	1289					; 00000509H
	push	OFFSET $SG149976
	push	OFFSET $SG149977
	call	DWORD PTR __imp___wassert
	add	esp, 12					; 0000000cH
	cmp	esi, esp
	call	__RTC_CheckEsp
$LN58@CreateText:
; Line 1293
	cmp	DWORD PTR _mipCount$[ebp], 15		; 0000000fH
	jbe	SHORT $LN52@CreateText
; Line 1295
	push	50					; 00000032H
	call	_HRESULT_FROM_WIN32
	add	esp, 4
	jmp	$LN77@CreateText
$LN52@CreateText:
; Line 1298
	mov	edx, DWORD PTR _resDim$[ebp]
	mov	DWORD PTR tv179[ebp], edx
	cmp	DWORD PTR tv179[ebp], 2
	je	SHORT $LN49@CreateText
	cmp	DWORD PTR tv179[ebp], 3
	je	SHORT $LN46@CreateText
	cmp	DWORD PTR tv179[ebp], 4
	je	$LN39@CreateText
	jmp	$LN50@CreateText
$LN49@CreateText:
; Line 1302
	cmp	DWORD PTR _arraySize$[ebp], 2048	; 00000800H
	ja	SHORT $LN47@CreateText
	cmp	DWORD PTR _width$[ebp], 16384		; 00004000H
	jbe	SHORT $LN48@CreateText
$LN47@CreateText:
; Line 1304
	push	50					; 00000032H
	call	_HRESULT_FROM_WIN32
	add	esp, 4
	jmp	$LN77@CreateText
$LN48@CreateText:
; Line 1306
	jmp	$LN50@CreateText
$LN46@CreateText:
; Line 1309
	movzx	eax, BYTE PTR _isCubeMap$[ebp]
	test	eax, eax
	je	SHORT $LN45@CreateText
; Line 1314
	cmp	DWORD PTR _arraySize$[ebp], 2048	; 00000800H
	ja	SHORT $LN43@CreateText
	cmp	DWORD PTR _width$[ebp], 16384		; 00004000H
	ja	SHORT $LN43@CreateText
	cmp	DWORD PTR _height$[ebp], 16384		; 00004000H
	jbe	SHORT $LN44@CreateText
$LN43@CreateText:
; Line 1316
	push	50					; 00000032H
	call	_HRESULT_FROM_WIN32
	add	esp, 4
	jmp	$LN77@CreateText
$LN44@CreateText:
; Line 1319
	jmp	SHORT $LN42@CreateText
$LN45@CreateText:
; Line 1321
	cmp	DWORD PTR _arraySize$[ebp], 2048	; 00000800H
	ja	SHORT $LN40@CreateText
	cmp	DWORD PTR _width$[ebp], 16384		; 00004000H
	ja	SHORT $LN40@CreateText
	cmp	DWORD PTR _height$[ebp], 16384		; 00004000H
	jbe	SHORT $LN42@CreateText
$LN40@CreateText:
; Line 1323
	push	50					; 00000032H
	call	_HRESULT_FROM_WIN32
	add	esp, 4
	jmp	$LN77@CreateText
$LN42@CreateText:
; Line 1325
	jmp	SHORT $LN50@CreateText
$LN39@CreateText:
; Line 1331
	cmp	DWORD PTR _arraySize$[ebp], 1
	ja	SHORT $LN37@CreateText
	cmp	DWORD PTR _width$[ebp], 2048		; 00000800H
	ja	SHORT $LN37@CreateText
	cmp	DWORD PTR _height$[ebp], 2048		; 00000800H
	ja	SHORT $LN37@CreateText
	cmp	DWORD PTR _depth$[ebp], 2048		; 00000800H
	jbe	SHORT $LN50@CreateText
$LN37@CreateText:
; Line 1333
	push	50					; 00000032H
	call	_HRESULT_FROM_WIN32
	add	esp, 4
	jmp	$LN77@CreateText
$LN50@CreateText:
; Line 1338
	mov	BYTE PTR _autogen$[ebp], 0
; Line 1339
	cmp	DWORD PTR _mipCount$[ebp], 1
	jne	SHORT $LN36@CreateText
	cmp	DWORD PTR _d3dContext$[ebp], 0
	je	SHORT $LN36@CreateText
	cmp	DWORD PTR _textureView$[ebp], 0
	je	SHORT $LN36@CreateText
; Line 1342
	mov	DWORD PTR _fmtSupport$18[ebp], 0
; Line 1343
	mov	esi, esp
	lea	ecx, DWORD PTR _fmtSupport$18[ebp]
	push	ecx
	mov	edx, DWORD PTR _format$[ebp]
	push	edx
	mov	eax, DWORD PTR _d3dDevice$[ebp]
	mov	ecx, DWORD PTR [eax]
	mov	edx, DWORD PTR _d3dDevice$[ebp]
	push	edx
	mov	eax, DWORD PTR [ecx+116]
	call	eax
	cmp	esi, esp
	call	__RTC_CheckEsp
	mov	DWORD PTR _hr$[ebp], eax
; Line 1344
	cmp	DWORD PTR _hr$[ebp], 0
	jl	SHORT $LN36@CreateText
	mov	ecx, DWORD PTR _fmtSupport$18[ebp]
	and	ecx, 8192				; 00002000H
	je	SHORT $LN36@CreateText
; Line 1348
	cmp	DWORD PTR _resDim$[ebp], 4
	jne	SHORT $LN33@CreateText
	mov	edx, DWORD PTR _d3dDevice$[ebp]
	mov	eax, DWORD PTR [edx]
	mov	esi, esp
	mov	ecx, DWORD PTR _d3dDevice$[ebp]
	push	ecx
	mov	edx, DWORD PTR [eax+148]
	call	edx
	cmp	esi, esp
	call	__RTC_CheckEsp
	cmp	eax, 40960				; 0000a000H
	jl	SHORT $LN36@CreateText
$LN33@CreateText:
; Line 1350
	mov	BYTE PTR _autogen$[ebp], 1
$LN36@CreateText:
; Line 1355
	movzx	eax, BYTE PTR _autogen$[ebp]
	test	eax, eax
	je	$LN32@CreateText
; Line 1358
	mov	DWORD PTR _tex$17[ebp], 0
; Line 1364
	mov	ecx, DWORD PTR _textureView$[ebp]
	push	ecx
	lea	edx, DWORD PTR _tex$17[ebp]
	push	edx
	push	0
	movzx	eax, BYTE PTR _isCubeMap$[ebp]
	push	eax
	movzx	ecx, BYTE PTR _forceSRGB$[ebp]
	push	ecx
	mov	edx, DWORD PTR _miscFlags$[ebp]
	or	edx, 1
	push	edx
	mov	eax, DWORD PTR _cpuAccessFlags$[ebp]
	push	eax
	mov	ecx, DWORD PTR _bindFlags$[ebp]
	or	ecx, 32					; 00000020H
	push	ecx
	mov	edx, DWORD PTR _usage$[ebp]
	push	edx
	mov	eax, DWORD PTR _format$[ebp]
	push	eax
	mov	ecx, DWORD PTR _arraySize$[ebp]
	push	ecx
	push	0
	mov	edx, DWORD PTR _depth$[ebp]
	push	edx
	mov	eax, DWORD PTR _height$[ebp]
	push	eax
	mov	ecx, DWORD PTR _width$[ebp]
	push	ecx
	mov	edx, DWORD PTR _resDim$[ebp]
	push	edx
	mov	eax, DWORD PTR _d3dDevice$[ebp]
	push	eax
	call	?CreateD3DResources@@YAJPAUID3D11Device@@IIIIIIW4DXGI_FORMAT@@W4D3D11_USAGE@@III_N3PAUD3D11_SUBRESOURCE_DATA@@PAPAUID3D11Resource@@PAPAUID3D11ShaderResourceView@@@Z ; CreateD3DResources
	add	esp, 68					; 00000044H
	mov	DWORD PTR _hr$[ebp], eax
; Line 1365
	cmp	DWORD PTR _hr$[ebp], 0
	jl	$LN31@CreateText
; Line 1367
	mov	DWORD PTR _numBytes$16[ebp], 0
; Line 1368
	mov	DWORD PTR _rowBytes$15[ebp], 0
; Line 1369
	push	0
	lea	ecx, DWORD PTR _rowBytes$15[ebp]
	push	ecx
	lea	edx, DWORD PTR _numBytes$16[ebp]
	push	edx
	mov	eax, DWORD PTR _format$[ebp]
	push	eax
	mov	ecx, DWORD PTR _height$[ebp]
	push	ecx
	mov	edx, DWORD PTR _width$[ebp]
	push	edx
	call	?GetSurfaceInfo@@YAXIIW4DXGI_FORMAT@@PAI11@Z ; GetSurfaceInfo
	add	esp, 24					; 00000018H
; Line 1371
	mov	eax, DWORD PTR _numBytes$16[ebp]
	cmp	eax, DWORD PTR _bitSize$[ebp]
	jbe	SHORT $LN30@CreateText
; Line 1373
	mov	ecx, DWORD PTR _textureView$[ebp]
	mov	edx, DWORD PTR [ecx]
	mov	eax, DWORD PTR _textureView$[ebp]
	mov	ecx, DWORD PTR [eax]
	mov	edx, DWORD PTR [edx]
	mov	esi, esp
	push	ecx
	mov	eax, DWORD PTR [edx+8]
	call	eax
	cmp	esi, esp
	call	__RTC_CheckEsp
; Line 1374
	mov	ecx, DWORD PTR _textureView$[ebp]
	mov	DWORD PTR [ecx], 0
; Line 1375
	mov	edx, DWORD PTR _tex$17[ebp]
	mov	eax, DWORD PTR [edx]
	mov	esi, esp
	mov	ecx, DWORD PTR _tex$17[ebp]
	push	ecx
	mov	edx, DWORD PTR [eax+8]
	call	edx
	cmp	esi, esp
	call	__RTC_CheckEsp
; Line 1376
	push	38					; 00000026H
	call	_HRESULT_FROM_WIN32
	add	esp, 4
	jmp	$LN77@CreateText
$LN30@CreateText:
; Line 1379
	cmp	DWORD PTR _arraySize$[ebp], 1
	jbe	$LN29@CreateText
; Line 1382
	mov	esi, esp
	lea	eax, DWORD PTR _desc$14[ebp]
	push	eax
	mov	ecx, DWORD PTR _textureView$[ebp]
	mov	edx, DWORD PTR [ecx]
	mov	eax, DWORD PTR _textureView$[ebp]
	mov	ecx, DWORD PTR [eax]
	mov	edx, DWORD PTR [edx]
	push	ecx
	mov	eax, DWORD PTR [edx+32]
	call	eax
	cmp	esi, esp
	call	__RTC_CheckEsp
; Line 1384
	mov	DWORD PTR _mipLevels$13[ebp], 1
; Line 1386
	mov	ecx, DWORD PTR _desc$14[ebp+4]
	mov	DWORD PTR tv278[ebp], ecx
	mov	edx, DWORD PTR tv278[ebp]
	sub	edx, 2
	mov	DWORD PTR tv278[ebp], edx
	cmp	DWORD PTR tv278[ebp], 8
	ja	SHORT $LN20@CreateText
	mov	eax, DWORD PTR tv278[ebp]
	jmp	DWORD PTR $LN100@CreateText[eax*4]
$LN26@CreateText:
; Line 1388
	mov	ecx, DWORD PTR _desc$14[ebp+12]
	mov	DWORD PTR _mipLevels$13[ebp], ecx
	jmp	SHORT $LN27@CreateText
$LN25@CreateText:
; Line 1389
	mov	edx, DWORD PTR _desc$14[ebp+12]
	mov	DWORD PTR _mipLevels$13[ebp], edx
	jmp	SHORT $LN27@CreateText
$LN24@CreateText:
; Line 1390
	mov	eax, DWORD PTR _desc$14[ebp+12]
	mov	DWORD PTR _mipLevels$13[ebp], eax
	jmp	SHORT $LN27@CreateText
$LN23@CreateText:
; Line 1391
	mov	ecx, DWORD PTR _desc$14[ebp+12]
	mov	DWORD PTR _mipLevels$13[ebp], ecx
	jmp	SHORT $LN27@CreateText
$LN22@CreateText:
; Line 1392
	mov	edx, DWORD PTR _desc$14[ebp+12]
	mov	DWORD PTR _mipLevels$13[ebp], edx
	jmp	SHORT $LN27@CreateText
$LN21@CreateText:
; Line 1393
	mov	eax, DWORD PTR _desc$14[ebp+12]
	mov	DWORD PTR _mipLevels$13[ebp], eax
	jmp	SHORT $LN27@CreateText
$LN20@CreateText:
; Line 1395
	mov	ecx, DWORD PTR _textureView$[ebp]
	mov	edx, DWORD PTR [ecx]
	mov	eax, DWORD PTR _textureView$[ebp]
	mov	ecx, DWORD PTR [eax]
	mov	edx, DWORD PTR [edx]
	mov	esi, esp
	push	ecx
	mov	eax, DWORD PTR [edx+8]
	call	eax
	cmp	esi, esp
	call	__RTC_CheckEsp
; Line 1396
	mov	ecx, DWORD PTR _textureView$[ebp]
	mov	DWORD PTR [ecx], 0
; Line 1397
	mov	edx, DWORD PTR _tex$17[ebp]
	mov	eax, DWORD PTR [edx]
	mov	esi, esp
	mov	ecx, DWORD PTR _tex$17[ebp]
	push	ecx
	mov	edx, DWORD PTR [eax+8]
	call	edx
	cmp	esi, esp
	call	__RTC_CheckEsp
; Line 1398
	mov	eax, -2147418113			; 8000ffffH
	jmp	$LN77@CreateText
$LN27@CreateText:
; Line 1401
	mov	eax, DWORD PTR _bitData$[ebp]
	mov	DWORD PTR _pSrcBits$12[ebp], eax
; Line 1402
	mov	ecx, DWORD PTR _bitData$[ebp]
	add	ecx, DWORD PTR _bitSize$[ebp]
	mov	DWORD PTR _pEndBits$11[ebp], ecx
; Line 1403
	mov	DWORD PTR _item$10[ebp], 0
	jmp	SHORT $LN19@CreateText
$LN18@CreateText:
	mov	edx, DWORD PTR _item$10[ebp]
	add	edx, 1
	mov	DWORD PTR _item$10[ebp], edx
$LN19@CreateText:
	mov	eax, DWORD PTR _item$10[ebp]
	cmp	eax, DWORD PTR _arraySize$[ebp]
	jae	$LN17@CreateText
; Line 1405
	mov	ecx, DWORD PTR _pSrcBits$12[ebp]
	add	ecx, DWORD PTR _numBytes$16[ebp]
	cmp	ecx, DWORD PTR _pEndBits$11[ebp]
	jbe	SHORT $LN16@CreateText
; Line 1407
	mov	edx, DWORD PTR _textureView$[ebp]
	mov	eax, DWORD PTR [edx]
	mov	ecx, DWORD PTR _textureView$[ebp]
	mov	edx, DWORD PTR [ecx]
	mov	eax, DWORD PTR [eax]
	mov	esi, esp
	push	edx
	mov	ecx, DWORD PTR [eax+8]
	call	ecx
	cmp	esi, esp
	call	__RTC_CheckEsp
; Line 1408
	mov	edx, DWORD PTR _textureView$[ebp]
	mov	DWORD PTR [edx], 0
; Line 1409
	mov	eax, DWORD PTR _tex$17[ebp]
	mov	ecx, DWORD PTR [eax]
	mov	esi, esp
	mov	edx, DWORD PTR _tex$17[ebp]
	push	edx
	mov	eax, DWORD PTR [ecx+8]
	call	eax
	cmp	esi, esp
	call	__RTC_CheckEsp
; Line 1410
	push	38					; 00000026H
	call	_HRESULT_FROM_WIN32
	add	esp, 4
	jmp	$LN77@CreateText
$LN16@CreateText:
; Line 1413
	mov	ecx, DWORD PTR _mipLevels$13[ebp]
	push	ecx
	mov	edx, DWORD PTR _item$10[ebp]
	push	edx
	push	0
	call	?D3D11CalcSubresource@@YAIIII@Z		; D3D11CalcSubresource
	add	esp, 12					; 0000000cH
	mov	DWORD PTR _res$9[ebp], eax
; Line 1414
	mov	esi, esp
	mov	eax, DWORD PTR _numBytes$16[ebp]
	push	eax
	mov	ecx, DWORD PTR _rowBytes$15[ebp]
	push	ecx
	mov	edx, DWORD PTR _pSrcBits$12[ebp]
	push	edx
	push	0
	mov	eax, DWORD PTR _res$9[ebp]
	push	eax
	mov	ecx, DWORD PTR _tex$17[ebp]
	push	ecx
	mov	edx, DWORD PTR _d3dContext$[ebp]
	mov	eax, DWORD PTR [edx]
	mov	ecx, DWORD PTR _d3dContext$[ebp]
	push	ecx
	mov	edx, DWORD PTR [eax+192]
	call	edx
	cmp	esi, esp
	call	__RTC_CheckEsp
; Line 1415
	mov	eax, DWORD PTR _pSrcBits$12[ebp]
	add	eax, DWORD PTR _numBytes$16[ebp]
	mov	DWORD PTR _pSrcBits$12[ebp], eax
; Line 1416
	jmp	$LN18@CreateText
$LN17@CreateText:
; Line 1418
	jmp	SHORT $LN15@CreateText
$LN29@CreateText:
; Line 1420
	mov	esi, esp
	mov	ecx, DWORD PTR _numBytes$16[ebp]
	push	ecx
	mov	edx, DWORD PTR _rowBytes$15[ebp]
	push	edx
	mov	eax, DWORD PTR _bitData$[ebp]
	push	eax
	push	0
	push	0
	mov	ecx, DWORD PTR _tex$17[ebp]
	push	ecx
	mov	edx, DWORD PTR _d3dContext$[ebp]
	mov	eax, DWORD PTR [edx]
	mov	ecx, DWORD PTR _d3dContext$[ebp]
	push	ecx
	mov	edx, DWORD PTR [eax+192]
	call	edx
	cmp	esi, esp
	call	__RTC_CheckEsp
$LN15@CreateText:
; Line 1423
	mov	esi, esp
	mov	eax, DWORD PTR _textureView$[ebp]
	mov	ecx, DWORD PTR [eax]
	push	ecx
	mov	edx, DWORD PTR _d3dContext$[ebp]
	mov	eax, DWORD PTR [edx]
	mov	ecx, DWORD PTR _d3dContext$[ebp]
	push	ecx
	mov	edx, DWORD PTR [eax+216]
	call	edx
	cmp	esi, esp
	call	__RTC_CheckEsp
; Line 1425
	cmp	DWORD PTR _texture$[ebp], 0
	je	SHORT $LN14@CreateText
; Line 1427
	mov	eax, DWORD PTR _texture$[ebp]
	mov	ecx, DWORD PTR _tex$17[ebp]
	mov	DWORD PTR [eax], ecx
; Line 1429
	jmp	SHORT $LN31@CreateText
$LN14@CreateText:
; Line 1431
	mov	edx, DWORD PTR _tex$17[ebp]
	mov	eax, DWORD PTR [edx]
	mov	esi, esp
	mov	ecx, DWORD PTR _tex$17[ebp]
	push	ecx
	mov	edx, DWORD PTR [eax+8]
	call	edx
	cmp	esi, esp
	call	__RTC_CheckEsp
$LN31@CreateText:
; Line 1435
	jmp	$LN12@CreateText
$LN32@CreateText:
; Line 1438
	push	OFFSET ?nothrow@std@@3Unothrow_t@1@B	; std::nothrow
	mov	eax, DWORD PTR _mipCount$[ebp]
	imul	eax, DWORD PTR _arraySize$[ebp]
	xor	ecx, ecx
	mov	edx, 12					; 0000000cH
	mul	edx
	seto	cl
	neg	ecx
	or	ecx, eax
	push	ecx
	call	??_U@YAPAXIABUnothrow_t@std@@@Z		; operator new[]
	add	esp, 8
	mov	DWORD PTR $T3[ebp], eax
	mov	eax, DWORD PTR $T3[ebp]
	push	eax
	lea	ecx, DWORD PTR _initData$8[ebp]
	call	??0?$unique_ptr@$$BY0A@UD3D11_SUBRESOURCE_DATA@@U?$default_delete@$$BY0A@UD3D11_SUBRESOURCE_DATA@@@std@@@std@@QAE@PAUD3D11_SUBRESOURCE_DATA@@@Z ; std::unique_ptr<D3D11_SUBRESOURCE_DATA [0],std::default_delete<D3D11_SUBRESOURCE_DATA [0]> >::unique_ptr<D3D11_SUBRESOURCE_DATA [0],std::default_delete<D3D11_SUBRESOURCE_DATA [0]> >
	mov	DWORD PTR __$EHRec$[ebp+8], 0
; Line 1439
	lea	ecx, DWORD PTR _initData$8[ebp]
	call	??B?$unique_ptr@$$BY0A@UD3D11_SUBRESOURCE_DATA@@U?$default_delete@$$BY0A@UD3D11_SUBRESOURCE_DATA@@@std@@@std@@QBE_NXZ ; std::unique_ptr<D3D11_SUBRESOURCE_DATA [0],std::default_delete<D3D11_SUBRESOURCE_DATA [0]> >::operator bool
	movzx	ecx, al
	test	ecx, ecx
	jne	SHORT $LN11@CreateText
; Line 1441
	mov	DWORD PTR $T2[ebp], -2147024882		; 8007000eH
	mov	DWORD PTR __$EHRec$[ebp+8], -1
	lea	ecx, DWORD PTR _initData$8[ebp]
	call	??1?$unique_ptr@$$BY0A@UD3D11_SUBRESOURCE_DATA@@U?$default_delete@$$BY0A@UD3D11_SUBRESOURCE_DATA@@@std@@@std@@QAE@XZ ; std::unique_ptr<D3D11_SUBRESOURCE_DATA [0],std::default_delete<D3D11_SUBRESOURCE_DATA [0]> >::~unique_ptr<D3D11_SUBRESOURCE_DATA [0],std::default_delete<D3D11_SUBRESOURCE_DATA [0]> >
	mov	eax, DWORD PTR $T2[ebp]
	jmp	$LN77@CreateText
$LN11@CreateText:
; Line 1444
	mov	DWORD PTR _skipMip$7[ebp], 0
; Line 1445
	mov	DWORD PTR _twidth$6[ebp], 0
; Line 1446
	mov	DWORD PTR _theight$5[ebp], 0
; Line 1447
	mov	DWORD PTR _tdepth$4[ebp], 0
; Line 1449
	lea	ecx, DWORD PTR _initData$8[ebp]
	call	?get@?$unique_ptr@$$BY0A@UD3D11_SUBRESOURCE_DATA@@U?$default_delete@$$BY0A@UD3D11_SUBRESOURCE_DATA@@@std@@@std@@QBEPAUD3D11_SUBRESOURCE_DATA@@XZ ; std::unique_ptr<D3D11_SUBRESOURCE_DATA [0],std::default_delete<D3D11_SUBRESOURCE_DATA [0]> >::get
	push	eax
	lea	edx, DWORD PTR _skipMip$7[ebp]
	push	edx
	lea	eax, DWORD PTR _tdepth$4[ebp]
	push	eax
	lea	ecx, DWORD PTR _theight$5[ebp]
	push	ecx
	lea	edx, DWORD PTR _twidth$6[ebp]
	push	edx
	mov	eax, DWORD PTR _bitData$[ebp]
	push	eax
	mov	ecx, DWORD PTR _bitSize$[ebp]
	push	ecx
	mov	edx, DWORD PTR _maxsize$[ebp]
	push	edx
	mov	eax, DWORD PTR _format$[ebp]
	push	eax
	mov	ecx, DWORD PTR _arraySize$[ebp]
	push	ecx
	mov	edx, DWORD PTR _mipCount$[ebp]
	push	edx
	mov	eax, DWORD PTR _depth$[ebp]
	push	eax
	mov	ecx, DWORD PTR _height$[ebp]
	push	ecx
	mov	edx, DWORD PTR _width$[ebp]
	push	edx
	call	?FillInitData@@YAJIIIIIW4DXGI_FORMAT@@IIPBEAAI222PAUD3D11_SUBRESOURCE_DATA@@@Z ; FillInitData
	add	esp, 56					; 00000038H
	mov	DWORD PTR _hr$[ebp], eax
; Line 1451
	cmp	DWORD PTR _hr$[ebp], 0
	jl	$LN10@CreateText
; Line 1455
	mov	eax, DWORD PTR _textureView$[ebp]
	push	eax
	mov	ecx, DWORD PTR _texture$[ebp]
	push	ecx
	lea	ecx, DWORD PTR _initData$8[ebp]
	call	?get@?$unique_ptr@$$BY0A@UD3D11_SUBRESOURCE_DATA@@U?$default_delete@$$BY0A@UD3D11_SUBRESOURCE_DATA@@@std@@@std@@QBEPAUD3D11_SUBRESOURCE_DATA@@XZ ; std::unique_ptr<D3D11_SUBRESOURCE_DATA [0],std::default_delete<D3D11_SUBRESOURCE_DATA [0]> >::get
	push	eax
	movzx	edx, BYTE PTR _isCubeMap$[ebp]
	push	edx
	movzx	eax, BYTE PTR _forceSRGB$[ebp]
	push	eax
	mov	ecx, DWORD PTR _miscFlags$[ebp]
	push	ecx
	mov	edx, DWORD PTR _cpuAccessFlags$[ebp]
	push	edx
	mov	eax, DWORD PTR _bindFlags$[ebp]
	push	eax
	mov	ecx, DWORD PTR _usage$[ebp]
	push	ecx
	mov	edx, DWORD PTR _format$[ebp]
	push	edx
	mov	eax, DWORD PTR _arraySize$[ebp]
	push	eax
	mov	ecx, DWORD PTR _mipCount$[ebp]
	sub	ecx, DWORD PTR _skipMip$7[ebp]
	push	ecx
	mov	edx, DWORD PTR _tdepth$4[ebp]
	push	edx
	mov	eax, DWORD PTR _theight$5[ebp]
	push	eax
	mov	ecx, DWORD PTR _twidth$6[ebp]
	push	ecx
	mov	edx, DWORD PTR _resDim$[ebp]
	push	edx
	mov	eax, DWORD PTR _d3dDevice$[ebp]
	push	eax
	call	?CreateD3DResources@@YAJPAUID3D11Device@@IIIIIIW4DXGI_FORMAT@@W4D3D11_USAGE@@III_N3PAUD3D11_SUBRESOURCE_DATA@@PAPAUID3D11Resource@@PAPAUID3D11ShaderResourceView@@@Z ; CreateD3DResources
	add	esp, 68					; 00000044H
	mov	DWORD PTR _hr$[ebp], eax
; Line 1457
	cmp	DWORD PTR _hr$[ebp], 0
	jge	$LN10@CreateText
	cmp	DWORD PTR _maxsize$[ebp], 0
	jne	$LN10@CreateText
	cmp	DWORD PTR _mipCount$[ebp], 1
	jbe	$LN10@CreateText
; Line 1460
	mov	ecx, DWORD PTR _d3dDevice$[ebp]
	mov	edx, DWORD PTR [ecx]
	mov	esi, esp
	mov	eax, DWORD PTR _d3dDevice$[ebp]
	push	eax
	mov	ecx, DWORD PTR [edx+148]
	call	ecx
	cmp	esi, esp
	call	__RTC_CheckEsp
	mov	DWORD PTR tv450[ebp], eax
	cmp	DWORD PTR tv450[ebp], 37120		; 00009100H
	je	SHORT $LN6@CreateText
	cmp	DWORD PTR tv450[ebp], 37376		; 00009200H
	je	SHORT $LN6@CreateText
	cmp	DWORD PTR tv450[ebp], 37632		; 00009300H
	je	SHORT $LN3@CreateText
	jmp	SHORT $LN2@CreateText
$LN6@CreateText:
; Line 1464
	movzx	edx, BYTE PTR _isCubeMap$[ebp]
	test	edx, edx
	je	SHORT $LN5@CreateText
; Line 1466
	mov	DWORD PTR _maxsize$[ebp], 512		; 00000200H
; Line 1468
	jmp	SHORT $LN4@CreateText
$LN5@CreateText:
; Line 1472
	cmp	DWORD PTR _resDim$[ebp], 4
	jne	SHORT $LN80@CreateText
	mov	DWORD PTR tv454[ebp], 256		; 00000100H
	jmp	SHORT $LN81@CreateText
$LN80@CreateText:
	mov	DWORD PTR tv454[ebp], 2048		; 00000800H
$LN81@CreateText:
	mov	eax, DWORD PTR tv454[ebp]
	mov	DWORD PTR _maxsize$[ebp], eax
$LN4@CreateText:
; Line 1474
	jmp	SHORT $LN7@CreateText
$LN3@CreateText:
; Line 1479
	cmp	DWORD PTR _resDim$[ebp], 4
	jne	SHORT $LN82@CreateText
	mov	DWORD PTR tv456[ebp], 256		; 00000100H
	jmp	SHORT $LN83@CreateText
$LN82@CreateText:
	mov	DWORD PTR tv456[ebp], 4096		; 00001000H
$LN83@CreateText:
	mov	ecx, DWORD PTR tv456[ebp]
	mov	DWORD PTR _maxsize$[ebp], ecx
; Line 1480
	jmp	SHORT $LN7@CreateText
$LN2@CreateText:
; Line 1485
	cmp	DWORD PTR _resDim$[ebp], 4
	jne	SHORT $LN84@CreateText
	mov	DWORD PTR tv458[ebp], 2048		; 00000800H
	jmp	SHORT $LN85@CreateText
$LN84@CreateText:
	mov	DWORD PTR tv458[ebp], 8192		; 00002000H
$LN85@CreateText:
	mov	edx, DWORD PTR tv458[ebp]
	mov	DWORD PTR _maxsize$[ebp], edx
$LN7@CreateText:
; Line 1490
	lea	ecx, DWORD PTR _initData$8[ebp]
	call	?get@?$unique_ptr@$$BY0A@UD3D11_SUBRESOURCE_DATA@@U?$default_delete@$$BY0A@UD3D11_SUBRESOURCE_DATA@@@std@@@std@@QBEPAUD3D11_SUBRESOURCE_DATA@@XZ ; std::unique_ptr<D3D11_SUBRESOURCE_DATA [0],std::default_delete<D3D11_SUBRESOURCE_DATA [0]> >::get
	push	eax
	lea	eax, DWORD PTR _skipMip$7[ebp]
	push	eax
	lea	ecx, DWORD PTR _tdepth$4[ebp]
	push	ecx
	lea	edx, DWORD PTR _theight$5[ebp]
	push	edx
	lea	eax, DWORD PTR _twidth$6[ebp]
	push	eax
	mov	ecx, DWORD PTR _bitData$[ebp]
	push	ecx
	mov	edx, DWORD PTR _bitSize$[ebp]
	push	edx
	mov	eax, DWORD PTR _maxsize$[ebp]
	push	eax
	mov	ecx, DWORD PTR _format$[ebp]
	push	ecx
	mov	edx, DWORD PTR _arraySize$[ebp]
	push	edx
	mov	eax, DWORD PTR _mipCount$[ebp]
	push	eax
	mov	ecx, DWORD PTR _depth$[ebp]
	push	ecx
	mov	edx, DWORD PTR _height$[ebp]
	push	edx
	mov	eax, DWORD PTR _width$[ebp]
	push	eax
	call	?FillInitData@@YAJIIIIIW4DXGI_FORMAT@@IIPBEAAI222PAUD3D11_SUBRESOURCE_DATA@@@Z ; FillInitData
	add	esp, 56					; 00000038H
	mov	DWORD PTR _hr$[ebp], eax
; Line 1491
	cmp	DWORD PTR _hr$[ebp], 0
	jl	SHORT $LN10@CreateText
; Line 1495
	mov	ecx, DWORD PTR _textureView$[ebp]
	push	ecx
	mov	edx, DWORD PTR _texture$[ebp]
	push	edx
	lea	ecx, DWORD PTR _initData$8[ebp]
	call	?get@?$unique_ptr@$$BY0A@UD3D11_SUBRESOURCE_DATA@@U?$default_delete@$$BY0A@UD3D11_SUBRESOURCE_DATA@@@std@@@std@@QBEPAUD3D11_SUBRESOURCE_DATA@@XZ ; std::unique_ptr<D3D11_SUBRESOURCE_DATA [0],std::default_delete<D3D11_SUBRESOURCE_DATA [0]> >::get
	push	eax
	movzx	eax, BYTE PTR _isCubeMap$[ebp]
	push	eax
	movzx	ecx, BYTE PTR _forceSRGB$[ebp]
	push	ecx
	mov	edx, DWORD PTR _miscFlags$[ebp]
	push	edx
	mov	eax, DWORD PTR _cpuAccessFlags$[ebp]
	push	eax
	mov	ecx, DWORD PTR _bindFlags$[ebp]
	push	ecx
	mov	edx, DWORD PTR _usage$[ebp]
	push	edx
	mov	eax, DWORD PTR _format$[ebp]
	push	eax
	mov	ecx, DWORD PTR _arraySize$[ebp]
	push	ecx
	mov	edx, DWORD PTR _mipCount$[ebp]
	sub	edx, DWORD PTR _skipMip$7[ebp]
	push	edx
	mov	eax, DWORD PTR _tdepth$4[ebp]
	push	eax
	mov	ecx, DWORD PTR _theight$5[ebp]
	push	ecx
	mov	edx, DWORD PTR _twidth$6[ebp]
	push	edx
	mov	eax, DWORD PTR _resDim$[ebp]
	push	eax
	mov	ecx, DWORD PTR _d3dDevice$[ebp]
	push	ecx
	call	?CreateD3DResources@@YAJPAUID3D11Device@@IIIIIIW4DXGI_FORMAT@@W4D3D11_USAGE@@III_N3PAUD3D11_SUBRESOURCE_DATA@@PAPAUID3D11Resource@@PAPAUID3D11ShaderResourceView@@@Z ; CreateD3DResources
	add	esp, 68					; 00000044H
	mov	DWORD PTR _hr$[ebp], eax
$LN10@CreateText:
; Line 1499
	mov	DWORD PTR __$EHRec$[ebp+8], -1
	lea	ecx, DWORD PTR _initData$8[ebp]
	call	??1?$unique_ptr@$$BY0A@UD3D11_SUBRESOURCE_DATA@@U?$default_delete@$$BY0A@UD3D11_SUBRESOURCE_DATA@@@std@@@std@@QAE@XZ ; std::unique_ptr<D3D11_SUBRESOURCE_DATA [0],std::default_delete<D3D11_SUBRESOURCE_DATA [0]> >::~unique_ptr<D3D11_SUBRESOURCE_DATA [0],std::default_delete<D3D11_SUBRESOURCE_DATA [0]> >
$LN12@CreateText:
; Line 1501
	mov	eax, DWORD PTR _hr$[ebp]
$LN77@CreateText:
; Line 1502
	push	edx
	mov	ecx, ebp
	push	eax
	lea	edx, DWORD PTR $LN99@CreateText
	call	@_RTC_CheckStackVars@8
	pop	eax
	pop	edx
	mov	ecx, DWORD PTR __$EHRec$[ebp]
	mov	DWORD PTR fs:0, ecx
	pop	ecx
	pop	edi
	pop	esi
	add	esp, 256				; 00000100H
	cmp	ebp, esp
	call	__RTC_CheckEsp
	mov	esp, ebp
	pop	ebp
	ret	0
	npad	2
$LN99@CreateText:
	DD	10					; 0000000aH
	DD	$LN98@CreateText
$LN98@CreateText:
	DD	-64					; ffffffc0H
	DD	4
	DD	$LN87@CreateText
	DD	-76					; ffffffb4H
	DD	4
	DD	$LN88@CreateText
	DD	-88					; ffffffa8H
	DD	4
	DD	$LN89@CreateText
	DD	-100					; ffffff9cH
	DD	4
	DD	$LN90@CreateText
	DD	-132					; ffffff7cH
	DD	24					; 00000018H
	DD	$LN91@CreateText
	DD	-164					; ffffff5cH
	DD	4
	DD	$LN92@CreateText
	DD	-176					; ffffff50H
	DD	4
	DD	$LN93@CreateText
	DD	-188					; ffffff44H
	DD	4
	DD	$LN94@CreateText
	DD	-200					; ffffff38H
	DD	4
	DD	$LN95@CreateText
	DD	-212					; ffffff2cH
	DD	4
	DD	$LN96@CreateText
$LN96@CreateText:
	DB	116					; 00000074H
	DB	100					; 00000064H
	DB	101					; 00000065H
	DB	112					; 00000070H
	DB	116					; 00000074H
	DB	104					; 00000068H
	DB	0
$LN95@CreateText:
	DB	116					; 00000074H
	DB	104					; 00000068H
	DB	101					; 00000065H
	DB	105					; 00000069H
	DB	103					; 00000067H
	DB	104					; 00000068H
	DB	116					; 00000074H
	DB	0
$LN94@CreateText:
	DB	116					; 00000074H
	DB	119					; 00000077H
	DB	105					; 00000069H
	DB	100					; 00000064H
	DB	116					; 00000074H
	DB	104					; 00000068H
	DB	0
$LN93@CreateText:
	DB	115					; 00000073H
	DB	107					; 0000006bH
	DB	105					; 00000069H
	DB	112					; 00000070H
	DB	77					; 0000004dH
	DB	105					; 00000069H
	DB	112					; 00000070H
	DB	0
$LN92@CreateText:
	DB	105					; 00000069H
	DB	110					; 0000006eH
	DB	105					; 00000069H
	DB	116					; 00000074H
	DB	68					; 00000044H
	DB	97					; 00000061H
	DB	116					; 00000074H
	DB	97					; 00000061H
	DB	0
$LN91@CreateText:
	DB	100					; 00000064H
	DB	101					; 00000065H
	DB	115					; 00000073H
	DB	99					; 00000063H
	DB	0
$LN90@CreateText:
	DB	114					; 00000072H
	DB	111					; 0000006fH
	DB	119					; 00000077H
	DB	66					; 00000042H
	DB	121					; 00000079H
	DB	116					; 00000074H
	DB	101					; 00000065H
	DB	115					; 00000073H
	DB	0
$LN89@CreateText:
	DB	110					; 0000006eH
	DB	117					; 00000075H
	DB	109					; 0000006dH
	DB	66					; 00000042H
	DB	121					; 00000079H
	DB	116					; 00000074H
	DB	101					; 00000065H
	DB	115					; 00000073H
	DB	0
$LN88@CreateText:
	DB	116					; 00000074H
	DB	101					; 00000065H
	DB	120					; 00000078H
	DB	0
$LN87@CreateText:
	DB	102					; 00000066H
	DB	109					; 0000006dH
	DB	116					; 00000074H
	DB	83					; 00000053H
	DB	117					; 00000075H
	DB	112					; 00000070H
	DB	112					; 00000070H
	DB	111					; 0000006fH
	DB	114					; 00000072H
	DB	116					; 00000074H
	DB	0
	npad	3
$LN100@CreateText:
	DD	$LN26@CreateText
	DD	$LN25@CreateText
	DD	$LN24@CreateText
	DD	$LN23@CreateText
	DD	$LN20@CreateText
	DD	$LN20@CreateText
	DD	$LN20@CreateText
	DD	$LN22@CreateText
	DD	$LN21@CreateText
_TEXT	ENDS
text$x	SEGMENT
__unwindfunclet$?CreateTextureFromDDS@@YAJPAUID3D11Device@@PAUID3D11DeviceContext@@PBUDDS_HEADER@@PBEIIW4D3D11_USAGE@@III_NPAPAUID3D11Resource@@PAPAUID3D11ShaderResourceView@@@Z$0:
	lea	ecx, DWORD PTR _initData$8[ebp]
	jmp	??1?$unique_ptr@$$BY0A@UD3D11_SUBRESOURCE_DATA@@U?$default_delete@$$BY0A@UD3D11_SUBRESOURCE_DATA@@@std@@@std@@QAE@XZ ; std::unique_ptr<D3D11_SUBRESOURCE_DATA [0],std::default_delete<D3D11_SUBRESOURCE_DATA [0]> >::~unique_ptr<D3D11_SUBRESOURCE_DATA [0],std::default_delete<D3D11_SUBRESOURCE_DATA [0]> >
__ehhandler$?CreateTextureFromDDS@@YAJPAUID3D11Device@@PAUID3D11DeviceContext@@PBUDDS_HEADER@@PBEIIW4D3D11_USAGE@@III_NPAPAUID3D11Resource@@PAPAUID3D11ShaderResourceView@@@Z:
	mov	edx, DWORD PTR [esp+8]
	lea	eax, DWORD PTR [edx+12]
	mov	ecx, DWORD PTR [edx-256]
	xor	ecx, eax
	call	@__security_check_cookie@4
	mov	eax, OFFSET __ehfuncinfo$?CreateTextureFromDDS@@YAJPAUID3D11Device@@PAUID3D11DeviceContext@@PBUDDS_HEADER@@PBEIIW4D3D11_USAGE@@III_NPAPAUID3D11Resource@@PAPAUID3D11ShaderResourceView@@@Z
	jmp	___CxxFrameHandler3
text$x	ENDS
?CreateTextureFromDDS@@YAJPAUID3D11Device@@PAUID3D11DeviceContext@@PBUDDS_HEADER@@PBEIIW4D3D11_USAGE@@III_NPAPAUID3D11Resource@@PAPAUID3D11ShaderResourceView@@@Z ENDP ; CreateTextureFromDDS
; Function compile flags: /Odtp /RTCsu
;	COMDAT ??$SetDebugObjectName@$0BB@@?A0xcec58e3e@@YAXPAUID3D11DeviceChild@@AAY0BB@$$CBD@Z
_TEXT	SEGMENT
_resource$ = 8						; size = 4
_name$ = 12						; size = 4
??$SetDebugObjectName@$0BB@@?A0xcec58e3e@@YAXPAUID3D11DeviceChild@@AAY0BB@$$CBD@Z PROC ; `anonymous namespace'::SetDebugObjectName<17>, COMDAT
; File d:\engine class\assignment 1\scratch\dxsse\dxut\core\ddstextureloader.cpp
; Line 134
	push	ebp
	mov	ebp, esp
	push	esi
; Line 136
	mov	esi, esp
	mov	eax, DWORD PTR _name$[ebp]
	push	eax
	push	16					; 00000010H
	push	OFFSET _WKPDID_D3DDebugObjectName
	mov	ecx, DWORD PTR _resource$[ebp]
	mov	edx, DWORD PTR [ecx]
	mov	eax, DWORD PTR _resource$[ebp]
	push	eax
	mov	ecx, DWORD PTR [edx+20]
	call	ecx
	cmp	esi, esp
	call	__RTC_CheckEsp
; Line 141
	pop	esi
	cmp	ebp, esp
	call	__RTC_CheckEsp
	pop	ebp
	ret	0
??$SetDebugObjectName@$0BB@@?A0xcec58e3e@@YAXPAUID3D11DeviceChild@@AAY0BB@$$CBD@Z ENDP ; `anonymous namespace'::SetDebugObjectName<17>
_TEXT	ENDS
; Function compile flags: /Odtp /RTCsu
_TEXT	SEGMENT
tv304 = -308						; size = 4
tv251 = -304						; size = 4
tv249 = -300						; size = 4
tv246 = -296						; size = 4
tv243 = -292						; size = 4
tv88 = -288						; size = 4
tv86 = -284						; size = 4
tv69 = -280						; size = 4
_SRVDesc$1 = -272					; size = 24
_tex$2 = -240						; size = 4
_desc$3 = -228						; size = 36
_SRVDesc$4 = -184					; size = 24
_tex$5 = -152						; size = 4
_desc$6 = -140						; size = 44
_SRVDesc$7 = -88					; size = 24
_tex$8 = -56						; size = 4
_desc$9 = -44						; size = 32
_hr$ = -8						; size = 4
__$ArrayPad$ = -4					; size = 4
_d3dDevice$ = 8						; size = 4
_resDim$ = 12						; size = 4
_width$ = 16						; size = 4
_height$ = 20						; size = 4
_depth$ = 24						; size = 4
_mipCount$ = 28						; size = 4
_arraySize$ = 32					; size = 4
_format$ = 36						; size = 4
_usage$ = 40						; size = 4
_bindFlags$ = 44					; size = 4
_cpuAccessFlags$ = 48					; size = 4
_miscFlags$ = 52					; size = 4
_forceSRGB$ = 56					; size = 1
_isCubeMap$ = 60					; size = 1
_initData$ = 64						; size = 4
_texture$ = 68						; size = 4
_textureView$ = 72					; size = 4
?CreateD3DResources@@YAJPAUID3D11Device@@IIIIIIW4DXGI_FORMAT@@W4D3D11_USAGE@@III_N3PAUD3D11_SUBRESOURCE_DATA@@PAPAUID3D11Resource@@PAPAUID3D11ShaderResourceView@@@Z PROC ; CreateD3DResources
; File d:\engine class\assignment 1\scratch\dxsse\dxut\core\ddstextureloader.cpp
; Line 939
	push	ebp
	mov	ebp, esp
	sub	esp, 308				; 00000134H
	push	esi
	push	edi
	lea	edi, DWORD PTR [ebp-308]
	mov	ecx, 77					; 0000004dH
	mov	eax, -858993460				; ccccccccH
	rep stosd
	mov	eax, DWORD PTR ___security_cookie
	xor	eax, ebp
	mov	DWORD PTR __$ArrayPad$[ebp], eax
; Line 940
	cmp	DWORD PTR _d3dDevice$[ebp], 0
	jne	SHORT $LN32@CreateD3DR
; Line 941
	mov	eax, -2147467261			; 80004003H
	jmp	$LN33@CreateD3DR
$LN32@CreateD3DR:
; Line 943
	mov	DWORD PTR _hr$[ebp], -2147467259	; 80004005H
; Line 945
	movzx	eax, BYTE PTR _forceSRGB$[ebp]
	test	eax, eax
	je	SHORT $LN31@CreateD3DR
; Line 947
	mov	ecx, DWORD PTR _format$[ebp]
	push	ecx
	call	?MakeSRGB@@YA?AW4DXGI_FORMAT@@W41@@Z	; MakeSRGB
	add	esp, 4
	mov	DWORD PTR _format$[ebp], eax
$LN31@CreateD3DR:
; Line 950
	mov	edx, DWORD PTR _resDim$[ebp]
	mov	DWORD PTR tv69[ebp], edx
	cmp	DWORD PTR tv69[ebp], 2
	je	SHORT $LN28@CreateD3DR
	cmp	DWORD PTR tv69[ebp], 3
	je	$LN20@CreateD3DR
	cmp	DWORD PTR tv69[ebp], 4
	je	$LN6@CreateD3DR
	jmp	$LN29@CreateD3DR
$LN28@CreateD3DR:
; Line 955
	mov	eax, DWORD PTR _width$[ebp]
	mov	DWORD PTR _desc$9[ebp], eax
; Line 956
	mov	ecx, DWORD PTR _mipCount$[ebp]
	mov	DWORD PTR _desc$9[ebp+4], ecx
; Line 957
	mov	edx, DWORD PTR _arraySize$[ebp]
	mov	DWORD PTR _desc$9[ebp+8], edx
; Line 958
	mov	eax, DWORD PTR _format$[ebp]
	mov	DWORD PTR _desc$9[ebp+12], eax
; Line 959
	mov	ecx, DWORD PTR _usage$[ebp]
	mov	DWORD PTR _desc$9[ebp+16], ecx
; Line 960
	mov	edx, DWORD PTR _bindFlags$[ebp]
	mov	DWORD PTR _desc$9[ebp+20], edx
; Line 961
	mov	eax, DWORD PTR _cpuAccessFlags$[ebp]
	mov	DWORD PTR _desc$9[ebp+24], eax
; Line 962
	mov	ecx, DWORD PTR _miscFlags$[ebp]
	and	ecx, -5					; fffffffbH
	mov	DWORD PTR _desc$9[ebp+28], ecx
; Line 964
	mov	DWORD PTR _tex$8[ebp], 0
; Line 968
	mov	esi, esp
	lea	edx, DWORD PTR _tex$8[ebp]
	push	edx
	mov	eax, DWORD PTR _initData$[ebp]
	push	eax
	lea	ecx, DWORD PTR _desc$9[ebp]
	push	ecx
	mov	edx, DWORD PTR _d3dDevice$[ebp]
	mov	eax, DWORD PTR [edx]
	mov	ecx, DWORD PTR _d3dDevice$[ebp]
	push	ecx
	mov	edx, DWORD PTR [eax+16]
	call	edx
	cmp	esi, esp
	call	__RTC_CheckEsp
	mov	DWORD PTR _hr$[ebp], eax
; Line 969
	cmp	DWORD PTR _hr$[ebp], 0
	jl	$LN27@CreateD3DR
	cmp	DWORD PTR _tex$8[ebp], 0
	je	$LN27@CreateD3DR
; Line 971
	cmp	DWORD PTR _textureView$[ebp], 0
	je	$LN26@CreateD3DR
; Line 974
	xor	eax, eax
	mov	DWORD PTR _SRVDesc$7[ebp], eax
	mov	DWORD PTR _SRVDesc$7[ebp+4], eax
	mov	DWORD PTR _SRVDesc$7[ebp+8], eax
	mov	DWORD PTR _SRVDesc$7[ebp+12], eax
	mov	DWORD PTR _SRVDesc$7[ebp+16], eax
	mov	DWORD PTR _SRVDesc$7[ebp+20], eax
; Line 975
	mov	ecx, DWORD PTR _format$[ebp]
	mov	DWORD PTR _SRVDesc$7[ebp], ecx
; Line 977
	cmp	DWORD PTR _arraySize$[ebp], 1
	jbe	SHORT $LN25@CreateD3DR
; Line 979
	mov	DWORD PTR _SRVDesc$7[ebp+4], 3
; Line 980
	cmp	DWORD PTR _mipCount$[ebp], 0
	jne	SHORT $LN35@CreateD3DR
	mov	DWORD PTR tv86[ebp], -1
	jmp	SHORT $LN36@CreateD3DR
$LN35@CreateD3DR:
	mov	edx, DWORD PTR _desc$9[ebp+4]
	mov	DWORD PTR tv86[ebp], edx
$LN36@CreateD3DR:
	mov	eax, DWORD PTR tv86[ebp]
	mov	DWORD PTR _SRVDesc$7[ebp+12], eax
; Line 981
	mov	ecx, DWORD PTR _arraySize$[ebp]
	mov	DWORD PTR _SRVDesc$7[ebp+20], ecx
; Line 983
	jmp	SHORT $LN24@CreateD3DR
$LN25@CreateD3DR:
; Line 985
	mov	DWORD PTR _SRVDesc$7[ebp+4], 2
; Line 986
	cmp	DWORD PTR _mipCount$[ebp], 0
	jne	SHORT $LN37@CreateD3DR
	mov	DWORD PTR tv88[ebp], -1
	jmp	SHORT $LN38@CreateD3DR
$LN37@CreateD3DR:
	mov	edx, DWORD PTR _desc$9[ebp+4]
	mov	DWORD PTR tv88[ebp], edx
$LN38@CreateD3DR:
	mov	eax, DWORD PTR tv88[ebp]
	mov	DWORD PTR _SRVDesc$7[ebp+12], eax
$LN24@CreateD3DR:
; Line 992
	mov	esi, esp
	mov	ecx, DWORD PTR _textureView$[ebp]
	push	ecx
	lea	edx, DWORD PTR _SRVDesc$7[ebp]
	push	edx
	mov	eax, DWORD PTR _tex$8[ebp]
	push	eax
	mov	ecx, DWORD PTR _d3dDevice$[ebp]
	mov	edx, DWORD PTR [ecx]
	mov	eax, DWORD PTR _d3dDevice$[ebp]
	push	eax
	mov	ecx, DWORD PTR [edx+28]
	call	ecx
	cmp	esi, esp
	call	__RTC_CheckEsp
	mov	DWORD PTR _hr$[ebp], eax
; Line 993
	cmp	DWORD PTR _hr$[ebp], 0
	jge	SHORT $LN26@CreateD3DR
; Line 995
	mov	edx, DWORD PTR _tex$8[ebp]
	mov	eax, DWORD PTR [edx]
	mov	esi, esp
	mov	ecx, DWORD PTR _tex$8[ebp]
	push	ecx
	mov	edx, DWORD PTR [eax+8]
	call	edx
	cmp	esi, esp
	call	__RTC_CheckEsp
; Line 996
	mov	eax, DWORD PTR _hr$[ebp]
	jmp	$LN33@CreateD3DR
$LN26@CreateD3DR:
; Line 1000
	cmp	DWORD PTR _texture$[ebp], 0
	je	SHORT $LN22@CreateD3DR
; Line 1002
	mov	eax, DWORD PTR _texture$[ebp]
	mov	ecx, DWORD PTR _tex$8[ebp]
	mov	DWORD PTR [eax], ecx
; Line 1004
	jmp	SHORT $LN27@CreateD3DR
$LN22@CreateD3DR:
; Line 1006
	push	OFFSET $SG149866
	mov	edx, DWORD PTR _tex$8[ebp]
	push	edx
	call	??$SetDebugObjectName@$0BB@@?A0xcec58e3e@@YAXPAUID3D11DeviceChild@@AAY0BB@$$CBD@Z ; `anonymous namespace'::SetDebugObjectName<17>
	add	esp, 8
; Line 1007
	mov	eax, DWORD PTR _tex$8[ebp]
	mov	ecx, DWORD PTR [eax]
	mov	esi, esp
	mov	edx, DWORD PTR _tex$8[ebp]
	push	edx
	mov	eax, DWORD PTR [ecx+8]
	call	eax
	cmp	esi, esp
	call	__RTC_CheckEsp
$LN27@CreateD3DR:
; Line 1011
	jmp	$LN29@CreateD3DR
$LN20@CreateD3DR:
; Line 1016
	mov	ecx, DWORD PTR _width$[ebp]
	mov	DWORD PTR _desc$6[ebp], ecx
; Line 1017
	mov	edx, DWORD PTR _height$[ebp]
	mov	DWORD PTR _desc$6[ebp+4], edx
; Line 1018
	mov	eax, DWORD PTR _mipCount$[ebp]
	mov	DWORD PTR _desc$6[ebp+8], eax
; Line 1019
	mov	ecx, DWORD PTR _arraySize$[ebp]
	mov	DWORD PTR _desc$6[ebp+12], ecx
; Line 1020
	mov	edx, DWORD PTR _format$[ebp]
	mov	DWORD PTR _desc$6[ebp+16], edx
; Line 1021
	mov	DWORD PTR _desc$6[ebp+20], 1
; Line 1022
	mov	DWORD PTR _desc$6[ebp+24], 0
; Line 1023
	mov	eax, DWORD PTR _usage$[ebp]
	mov	DWORD PTR _desc$6[ebp+28], eax
; Line 1024
	mov	ecx, DWORD PTR _bindFlags$[ebp]
	mov	DWORD PTR _desc$6[ebp+32], ecx
; Line 1025
	mov	edx, DWORD PTR _cpuAccessFlags$[ebp]
	mov	DWORD PTR _desc$6[ebp+36], edx
; Line 1026
	movzx	eax, BYTE PTR _isCubeMap$[ebp]
	test	eax, eax
	je	SHORT $LN19@CreateD3DR
; Line 1028
	mov	ecx, DWORD PTR _miscFlags$[ebp]
	or	ecx, 4
	mov	DWORD PTR _desc$6[ebp+40], ecx
; Line 1030
	jmp	SHORT $LN18@CreateD3DR
$LN19@CreateD3DR:
; Line 1032
	mov	edx, DWORD PTR _miscFlags$[ebp]
	and	edx, -5					; fffffffbH
	mov	DWORD PTR _desc$6[ebp+40], edx
$LN18@CreateD3DR:
; Line 1035
	mov	DWORD PTR _tex$5[ebp], 0
; Line 1039
	mov	esi, esp
	lea	eax, DWORD PTR _tex$5[ebp]
	push	eax
	mov	ecx, DWORD PTR _initData$[ebp]
	push	ecx
	lea	edx, DWORD PTR _desc$6[ebp]
	push	edx
	mov	eax, DWORD PTR _d3dDevice$[ebp]
	mov	ecx, DWORD PTR [eax]
	mov	edx, DWORD PTR _d3dDevice$[ebp]
	push	edx
	mov	eax, DWORD PTR [ecx+20]
	call	eax
	cmp	esi, esp
	call	__RTC_CheckEsp
	mov	DWORD PTR _hr$[ebp], eax
; Line 1040
	cmp	DWORD PTR _hr$[ebp], 0
	jl	$LN17@CreateD3DR
	cmp	DWORD PTR _tex$5[ebp], 0
	je	$LN17@CreateD3DR
; Line 1042
	cmp	DWORD PTR _textureView$[ebp], 0
	je	$LN16@CreateD3DR
; Line 1045
	xor	ecx, ecx
	mov	DWORD PTR _SRVDesc$4[ebp], ecx
	mov	DWORD PTR _SRVDesc$4[ebp+4], ecx
	mov	DWORD PTR _SRVDesc$4[ebp+8], ecx
	mov	DWORD PTR _SRVDesc$4[ebp+12], ecx
	mov	DWORD PTR _SRVDesc$4[ebp+16], ecx
	mov	DWORD PTR _SRVDesc$4[ebp+20], ecx
; Line 1046
	mov	edx, DWORD PTR _format$[ebp]
	mov	DWORD PTR _SRVDesc$4[ebp], edx
; Line 1048
	movzx	eax, BYTE PTR _isCubeMap$[ebp]
	test	eax, eax
	je	$LN15@CreateD3DR
; Line 1050
	cmp	DWORD PTR _arraySize$[ebp], 6
	jbe	SHORT $LN14@CreateD3DR
; Line 1052
	mov	DWORD PTR _SRVDesc$4[ebp+4], 10		; 0000000aH
; Line 1053
	cmp	DWORD PTR _mipCount$[ebp], 0
	jne	SHORT $LN39@CreateD3DR
	mov	DWORD PTR tv243[ebp], -1
	jmp	SHORT $LN40@CreateD3DR
$LN39@CreateD3DR:
	mov	ecx, DWORD PTR _desc$6[ebp+8]
	mov	DWORD PTR tv243[ebp], ecx
$LN40@CreateD3DR:
	mov	edx, DWORD PTR tv243[ebp]
	mov	DWORD PTR _SRVDesc$4[ebp+12], edx
; Line 1056
	mov	eax, DWORD PTR _arraySize$[ebp]
	xor	edx, edx
	mov	ecx, 6
	div	ecx
	mov	DWORD PTR _SRVDesc$4[ebp+20], eax
; Line 1058
	jmp	SHORT $LN13@CreateD3DR
$LN14@CreateD3DR:
; Line 1060
	mov	DWORD PTR _SRVDesc$4[ebp+4], 9
; Line 1061
	cmp	DWORD PTR _mipCount$[ebp], 0
	jne	SHORT $LN41@CreateD3DR
	mov	DWORD PTR tv246[ebp], -1
	jmp	SHORT $LN42@CreateD3DR
$LN41@CreateD3DR:
	mov	edx, DWORD PTR _desc$6[ebp+8]
	mov	DWORD PTR tv246[ebp], edx
$LN42@CreateD3DR:
	mov	eax, DWORD PTR tv246[ebp]
	mov	DWORD PTR _SRVDesc$4[ebp+12], eax
$LN13@CreateD3DR:
; Line 1062
	jmp	SHORT $LN12@CreateD3DR
$LN15@CreateD3DR:
; Line 1064
	cmp	DWORD PTR _arraySize$[ebp], 1
	jbe	SHORT $LN11@CreateD3DR
; Line 1066
	mov	DWORD PTR _SRVDesc$4[ebp+4], 5
; Line 1067
	cmp	DWORD PTR _mipCount$[ebp], 0
	jne	SHORT $LN43@CreateD3DR
	mov	DWORD PTR tv249[ebp], -1
	jmp	SHORT $LN44@CreateD3DR
$LN43@CreateD3DR:
	mov	ecx, DWORD PTR _desc$6[ebp+8]
	mov	DWORD PTR tv249[ebp], ecx
$LN44@CreateD3DR:
	mov	edx, DWORD PTR tv249[ebp]
	mov	DWORD PTR _SRVDesc$4[ebp+12], edx
; Line 1068
	mov	eax, DWORD PTR _arraySize$[ebp]
	mov	DWORD PTR _SRVDesc$4[ebp+20], eax
; Line 1070
	jmp	SHORT $LN12@CreateD3DR
$LN11@CreateD3DR:
; Line 1072
	mov	DWORD PTR _SRVDesc$4[ebp+4], 4
; Line 1073
	cmp	DWORD PTR _mipCount$[ebp], 0
	jne	SHORT $LN45@CreateD3DR
	mov	DWORD PTR tv251[ebp], -1
	jmp	SHORT $LN46@CreateD3DR
$LN45@CreateD3DR:
	mov	ecx, DWORD PTR _desc$6[ebp+8]
	mov	DWORD PTR tv251[ebp], ecx
$LN46@CreateD3DR:
	mov	edx, DWORD PTR tv251[ebp]
	mov	DWORD PTR _SRVDesc$4[ebp+12], edx
$LN12@CreateD3DR:
; Line 1079
	mov	esi, esp
	mov	eax, DWORD PTR _textureView$[ebp]
	push	eax
	lea	ecx, DWORD PTR _SRVDesc$4[ebp]
	push	ecx
	mov	edx, DWORD PTR _tex$5[ebp]
	push	edx
	mov	eax, DWORD PTR _d3dDevice$[ebp]
	mov	ecx, DWORD PTR [eax]
	mov	edx, DWORD PTR _d3dDevice$[ebp]
	push	edx
	mov	eax, DWORD PTR [ecx+28]
	call	eax
	cmp	esi, esp
	call	__RTC_CheckEsp
	mov	DWORD PTR _hr$[ebp], eax
; Line 1080
	cmp	DWORD PTR _hr$[ebp], 0
	jge	SHORT $LN16@CreateD3DR
; Line 1082
	mov	ecx, DWORD PTR _tex$5[ebp]
	mov	edx, DWORD PTR [ecx]
	mov	esi, esp
	mov	eax, DWORD PTR _tex$5[ebp]
	push	eax
	mov	ecx, DWORD PTR [edx+8]
	call	ecx
	cmp	esi, esp
	call	__RTC_CheckEsp
; Line 1083
	mov	eax, DWORD PTR _hr$[ebp]
	jmp	$LN33@CreateD3DR
$LN16@CreateD3DR:
; Line 1087
	cmp	DWORD PTR _texture$[ebp], 0
	je	SHORT $LN8@CreateD3DR
; Line 1089
	mov	edx, DWORD PTR _texture$[ebp]
	mov	eax, DWORD PTR _tex$5[ebp]
	mov	DWORD PTR [edx], eax
; Line 1091
	jmp	SHORT $LN17@CreateD3DR
$LN8@CreateD3DR:
; Line 1093
	push	OFFSET $SG149892
	mov	ecx, DWORD PTR _tex$5[ebp]
	push	ecx
	call	??$SetDebugObjectName@$0BB@@?A0xcec58e3e@@YAXPAUID3D11DeviceChild@@AAY0BB@$$CBD@Z ; `anonymous namespace'::SetDebugObjectName<17>
	add	esp, 8
; Line 1094
	mov	edx, DWORD PTR _tex$5[ebp]
	mov	eax, DWORD PTR [edx]
	mov	esi, esp
	mov	ecx, DWORD PTR _tex$5[ebp]
	push	ecx
	mov	edx, DWORD PTR [eax+8]
	call	edx
	cmp	esi, esp
	call	__RTC_CheckEsp
$LN17@CreateD3DR:
; Line 1098
	jmp	$LN29@CreateD3DR
$LN6@CreateD3DR:
; Line 1103
	mov	eax, DWORD PTR _width$[ebp]
	mov	DWORD PTR _desc$3[ebp], eax
; Line 1104
	mov	ecx, DWORD PTR _height$[ebp]
	mov	DWORD PTR _desc$3[ebp+4], ecx
; Line 1105
	mov	edx, DWORD PTR _depth$[ebp]
	mov	DWORD PTR _desc$3[ebp+8], edx
; Line 1106
	mov	eax, DWORD PTR _mipCount$[ebp]
	mov	DWORD PTR _desc$3[ebp+12], eax
; Line 1107
	mov	ecx, DWORD PTR _format$[ebp]
	mov	DWORD PTR _desc$3[ebp+16], ecx
; Line 1108
	mov	edx, DWORD PTR _usage$[ebp]
	mov	DWORD PTR _desc$3[ebp+20], edx
; Line 1109
	mov	eax, DWORD PTR _bindFlags$[ebp]
	mov	DWORD PTR _desc$3[ebp+24], eax
; Line 1110
	mov	ecx, DWORD PTR _cpuAccessFlags$[ebp]
	mov	DWORD PTR _desc$3[ebp+28], ecx
; Line 1111
	mov	edx, DWORD PTR _miscFlags$[ebp]
	and	edx, -5					; fffffffbH
	mov	DWORD PTR _desc$3[ebp+32], edx
; Line 1113
	mov	DWORD PTR _tex$2[ebp], 0
; Line 1117
	mov	esi, esp
	lea	eax, DWORD PTR _tex$2[ebp]
	push	eax
	mov	ecx, DWORD PTR _initData$[ebp]
	push	ecx
	lea	edx, DWORD PTR _desc$3[ebp]
	push	edx
	mov	eax, DWORD PTR _d3dDevice$[ebp]
	mov	ecx, DWORD PTR [eax]
	mov	edx, DWORD PTR _d3dDevice$[ebp]
	push	edx
	mov	eax, DWORD PTR [ecx+24]
	call	eax
	cmp	esi, esp
	call	__RTC_CheckEsp
	mov	DWORD PTR _hr$[ebp], eax
; Line 1118
	cmp	DWORD PTR _hr$[ebp], 0
	jl	$LN29@CreateD3DR
	cmp	DWORD PTR _tex$2[ebp], 0
	je	$LN29@CreateD3DR
; Line 1120
	cmp	DWORD PTR _textureView$[ebp], 0
	je	$LN4@CreateD3DR
; Line 1123
	xor	ecx, ecx
	mov	DWORD PTR _SRVDesc$1[ebp], ecx
	mov	DWORD PTR _SRVDesc$1[ebp+4], ecx
	mov	DWORD PTR _SRVDesc$1[ebp+8], ecx
	mov	DWORD PTR _SRVDesc$1[ebp+12], ecx
	mov	DWORD PTR _SRVDesc$1[ebp+16], ecx
	mov	DWORD PTR _SRVDesc$1[ebp+20], ecx
; Line 1124
	mov	edx, DWORD PTR _format$[ebp]
	mov	DWORD PTR _SRVDesc$1[ebp], edx
; Line 1126
	mov	DWORD PTR _SRVDesc$1[ebp+4], 8
; Line 1127
	cmp	DWORD PTR _mipCount$[ebp], 0
	jne	SHORT $LN47@CreateD3DR
	mov	DWORD PTR tv304[ebp], -1
	jmp	SHORT $LN48@CreateD3DR
$LN47@CreateD3DR:
	mov	eax, DWORD PTR _desc$3[ebp+12]
	mov	DWORD PTR tv304[ebp], eax
$LN48@CreateD3DR:
	mov	ecx, DWORD PTR tv304[ebp]
	mov	DWORD PTR _SRVDesc$1[ebp+12], ecx
; Line 1132
	mov	esi, esp
	mov	edx, DWORD PTR _textureView$[ebp]
	push	edx
	lea	eax, DWORD PTR _SRVDesc$1[ebp]
	push	eax
	mov	ecx, DWORD PTR _tex$2[ebp]
	push	ecx
	mov	edx, DWORD PTR _d3dDevice$[ebp]
	mov	eax, DWORD PTR [edx]
	mov	ecx, DWORD PTR _d3dDevice$[ebp]
	push	ecx
	mov	edx, DWORD PTR [eax+28]
	call	edx
	cmp	esi, esp
	call	__RTC_CheckEsp
	mov	DWORD PTR _hr$[ebp], eax
; Line 1133
	cmp	DWORD PTR _hr$[ebp], 0
	jge	SHORT $LN4@CreateD3DR
; Line 1135
	mov	eax, DWORD PTR _tex$2[ebp]
	mov	ecx, DWORD PTR [eax]
	mov	esi, esp
	mov	edx, DWORD PTR _tex$2[ebp]
	push	edx
	mov	eax, DWORD PTR [ecx+8]
	call	eax
	cmp	esi, esp
	call	__RTC_CheckEsp
; Line 1136
	mov	eax, DWORD PTR _hr$[ebp]
	jmp	SHORT $LN33@CreateD3DR
$LN4@CreateD3DR:
; Line 1140
	cmp	DWORD PTR _texture$[ebp], 0
	je	SHORT $LN2@CreateD3DR
; Line 1142
	mov	ecx, DWORD PTR _texture$[ebp]
	mov	edx, DWORD PTR _tex$2[ebp]
	mov	DWORD PTR [ecx], edx
; Line 1144
	jmp	SHORT $LN29@CreateD3DR
$LN2@CreateD3DR:
; Line 1146
	push	OFFSET $SG149908
	mov	eax, DWORD PTR _tex$2[ebp]
	push	eax
	call	??$SetDebugObjectName@$0BB@@?A0xcec58e3e@@YAXPAUID3D11DeviceChild@@AAY0BB@$$CBD@Z ; `anonymous namespace'::SetDebugObjectName<17>
	add	esp, 8
; Line 1147
	mov	ecx, DWORD PTR _tex$2[ebp]
	mov	edx, DWORD PTR [ecx]
	mov	esi, esp
	mov	eax, DWORD PTR _tex$2[ebp]
	push	eax
	mov	ecx, DWORD PTR [edx+8]
	call	ecx
	cmp	esi, esp
	call	__RTC_CheckEsp
$LN29@CreateD3DR:
; Line 1154
	mov	eax, DWORD PTR _hr$[ebp]
$LN33@CreateD3DR:
; Line 1155
	push	edx
	mov	ecx, ebp
	push	eax
	lea	edx, DWORD PTR $LN59@CreateD3DR
	call	@_RTC_CheckStackVars@8
	pop	eax
	pop	edx
	pop	edi
	pop	esi
	mov	ecx, DWORD PTR __$ArrayPad$[ebp]
	xor	ecx, ebp
	call	@__security_check_cookie@4
	add	esp, 308				; 00000134H
	cmp	ebp, esp
	call	__RTC_CheckEsp
	mov	esp, ebp
	pop	ebp
	ret	0
	npad	1
$LN59@CreateD3DR:
	DD	9
	DD	$LN58@CreateD3DR
$LN58@CreateD3DR:
	DD	-44					; ffffffd4H
	DD	32					; 00000020H
	DD	$LN49@CreateD3DR
	DD	-56					; ffffffc8H
	DD	4
	DD	$LN50@CreateD3DR
	DD	-88					; ffffffa8H
	DD	24					; 00000018H
	DD	$LN51@CreateD3DR
	DD	-140					; ffffff74H
	DD	44					; 0000002cH
	DD	$LN52@CreateD3DR
	DD	-152					; ffffff68H
	DD	4
	DD	$LN53@CreateD3DR
	DD	-184					; ffffff48H
	DD	24					; 00000018H
	DD	$LN54@CreateD3DR
	DD	-228					; ffffff1cH
	DD	36					; 00000024H
	DD	$LN55@CreateD3DR
	DD	-240					; ffffff10H
	DD	4
	DD	$LN56@CreateD3DR
	DD	-272					; fffffef0H
	DD	24					; 00000018H
	DD	$LN57@CreateD3DR
$LN57@CreateD3DR:
	DB	83					; 00000053H
	DB	82					; 00000052H
	DB	86					; 00000056H
	DB	68					; 00000044H
	DB	101					; 00000065H
	DB	115					; 00000073H
	DB	99					; 00000063H
	DB	0
$LN56@CreateD3DR:
	DB	116					; 00000074H
	DB	101					; 00000065H
	DB	120					; 00000078H
	DB	0
$LN55@CreateD3DR:
	DB	100					; 00000064H
	DB	101					; 00000065H
	DB	115					; 00000073H
	DB	99					; 00000063H
	DB	0
$LN54@CreateD3DR:
	DB	83					; 00000053H
	DB	82					; 00000052H
	DB	86					; 00000056H
	DB	68					; 00000044H
	DB	101					; 00000065H
	DB	115					; 00000073H
	DB	99					; 00000063H
	DB	0
$LN53@CreateD3DR:
	DB	116					; 00000074H
	DB	101					; 00000065H
	DB	120					; 00000078H
	DB	0
$LN52@CreateD3DR:
	DB	100					; 00000064H
	DB	101					; 00000065H
	DB	115					; 00000073H
	DB	99					; 00000063H
	DB	0
$LN51@CreateD3DR:
	DB	83					; 00000053H
	DB	82					; 00000052H
	DB	86					; 00000056H
	DB	68					; 00000044H
	DB	101					; 00000065H
	DB	115					; 00000073H
	DB	99					; 00000063H
	DB	0
$LN50@CreateD3DR:
	DB	116					; 00000074H
	DB	101					; 00000065H
	DB	120					; 00000078H
	DB	0
$LN49@CreateD3DR:
	DB	100					; 00000064H
	DB	101					; 00000065H
	DB	115					; 00000073H
	DB	99					; 00000063H
	DB	0
?CreateD3DResources@@YAJPAUID3D11Device@@IIIIIIW4DXGI_FORMAT@@W4D3D11_USAGE@@III_N3PAUD3D11_SUBRESOURCE_DATA@@PAPAUID3D11Resource@@PAPAUID3D11ShaderResourceView@@@Z ENDP ; CreateD3DResources
_TEXT	ENDS
; Function compile flags: /Odtp /RTCsu
_TEXT	SEGMENT
tv147 = -60						; size = 4
_i$1 = -56						; size = 4
_d$2 = -52						; size = 4
_h$3 = -48						; size = 4
_w$4 = -44						; size = 4
_j$5 = -40						; size = 4
_index$ = -36						; size = 4
_pEndBits$ = -32					; size = 4
_pSrcBits$ = -28					; size = 4
_RowBytes$ = -20					; size = 4
_NumBytes$ = -8						; size = 4
_width$ = 8						; size = 4
_height$ = 12						; size = 4
_depth$ = 16						; size = 4
_mipCount$ = 20						; size = 4
_arraySize$ = 24					; size = 4
_format$ = 28						; size = 4
_maxsize$ = 32						; size = 4
_bitSize$ = 36						; size = 4
_bitData$ = 40						; size = 4
_twidth$ = 44						; size = 4
_theight$ = 48						; size = 4
_tdepth$ = 52						; size = 4
_skipMip$ = 56						; size = 4
_initData$ = 60						; size = 4
?FillInitData@@YAJIIIIIW4DXGI_FORMAT@@IIPBEAAI222PAUD3D11_SUBRESOURCE_DATA@@@Z PROC ; FillInitData
; File d:\engine class\assignment 1\scratch\dxsse\dxut\core\ddstextureloader.cpp
; Line 838
	push	ebp
	mov	ebp, esp
	sub	esp, 60					; 0000003cH
	push	esi
	push	edi
	lea	edi, DWORD PTR [ebp-60]
	mov	ecx, 15					; 0000000fH
	mov	eax, -858993460				; ccccccccH
	rep stosd
; Line 839
	cmp	DWORD PTR _bitData$[ebp], 0
	je	SHORT $LN16@FillInitDa
	cmp	DWORD PTR _initData$[ebp], 0
	jne	SHORT $LN17@FillInitDa
$LN16@FillInitDa:
; Line 841
	mov	eax, -2147467261			; 80004003H
	jmp	$LN18@FillInitDa
$LN17@FillInitDa:
; Line 844
	mov	eax, DWORD PTR _skipMip$[ebp]
	mov	DWORD PTR [eax], 0
; Line 845
	mov	ecx, DWORD PTR _twidth$[ebp]
	mov	DWORD PTR [ecx], 0
; Line 846
	mov	edx, DWORD PTR _theight$[ebp]
	mov	DWORD PTR [edx], 0
; Line 847
	mov	eax, DWORD PTR _tdepth$[ebp]
	mov	DWORD PTR [eax], 0
; Line 849
	mov	DWORD PTR _NumBytes$[ebp], 0
; Line 850
	mov	DWORD PTR _RowBytes$[ebp], 0
; Line 851
	mov	ecx, DWORD PTR _bitData$[ebp]
	mov	DWORD PTR _pSrcBits$[ebp], ecx
; Line 852
	mov	edx, DWORD PTR _bitData$[ebp]
	add	edx, DWORD PTR _bitSize$[ebp]
	mov	DWORD PTR _pEndBits$[ebp], edx
; Line 854
	mov	DWORD PTR _index$[ebp], 0
; Line 855
	mov	DWORD PTR _j$5[ebp], 0
	jmp	SHORT $LN15@FillInitDa
$LN14@FillInitDa:
	mov	eax, DWORD PTR _j$5[ebp]
	add	eax, 1
	mov	DWORD PTR _j$5[ebp], eax
$LN15@FillInitDa:
	mov	ecx, DWORD PTR _j$5[ebp]
	cmp	ecx, DWORD PTR _arraySize$[ebp]
	jae	$LN13@FillInitDa
; Line 857
	mov	edx, DWORD PTR _width$[ebp]
	mov	DWORD PTR _w$4[ebp], edx
; Line 858
	mov	eax, DWORD PTR _height$[ebp]
	mov	DWORD PTR _h$3[ebp], eax
; Line 859
	mov	ecx, DWORD PTR _depth$[ebp]
	mov	DWORD PTR _d$2[ebp], ecx
; Line 860
	mov	DWORD PTR _i$1[ebp], 0
	jmp	SHORT $LN12@FillInitDa
$LN11@FillInitDa:
	mov	edx, DWORD PTR _i$1[ebp]
	add	edx, 1
	mov	DWORD PTR _i$1[ebp], edx
$LN12@FillInitDa:
	mov	eax, DWORD PTR _i$1[ebp]
	cmp	eax, DWORD PTR _mipCount$[ebp]
	jae	$LN10@FillInitDa
; Line 868
	push	0
	lea	ecx, DWORD PTR _RowBytes$[ebp]
	push	ecx
	lea	edx, DWORD PTR _NumBytes$[ebp]
	push	edx
	mov	eax, DWORD PTR _format$[ebp]
	push	eax
	mov	ecx, DWORD PTR _h$3[ebp]
	push	ecx
	mov	edx, DWORD PTR _w$4[ebp]
	push	edx
	call	?GetSurfaceInfo@@YAXIIW4DXGI_FORMAT@@PAI11@Z ; GetSurfaceInfo
	add	esp, 24					; 00000018H
; Line 870
	cmp	DWORD PTR _mipCount$[ebp], 1
	jbe	SHORT $LN8@FillInitDa
	cmp	DWORD PTR _maxsize$[ebp], 0
	je	SHORT $LN8@FillInitDa
	mov	eax, DWORD PTR _w$4[ebp]
	cmp	eax, DWORD PTR _maxsize$[ebp]
	ja	$LN9@FillInitDa
	mov	ecx, DWORD PTR _h$3[ebp]
	cmp	ecx, DWORD PTR _maxsize$[ebp]
	ja	$LN9@FillInitDa
	mov	edx, DWORD PTR _d$2[ebp]
	cmp	edx, DWORD PTR _maxsize$[ebp]
	ja	$LN9@FillInitDa
$LN8@FillInitDa:
; Line 872
	mov	eax, DWORD PTR _twidth$[ebp]
	cmp	DWORD PTR [eax], 0
	jne	SHORT $LN7@FillInitDa
; Line 874
	mov	ecx, DWORD PTR _twidth$[ebp]
	mov	edx, DWORD PTR _w$4[ebp]
	mov	DWORD PTR [ecx], edx
; Line 875
	mov	eax, DWORD PTR _theight$[ebp]
	mov	ecx, DWORD PTR _h$3[ebp]
	mov	DWORD PTR [eax], ecx
; Line 876
	mov	edx, DWORD PTR _tdepth$[ebp]
	mov	eax, DWORD PTR _d$2[ebp]
	mov	DWORD PTR [edx], eax
$LN7@FillInitDa:
; Line 879
	mov	ecx, DWORD PTR _mipCount$[ebp]
	imul	ecx, DWORD PTR _arraySize$[ebp]
	cmp	DWORD PTR _index$[ebp], ecx
	jb	SHORT $LN20@FillInitDa
	mov	esi, esp
	push	879					; 0000036fH
	push	OFFSET $SG149803
	push	OFFSET $SG149804
	call	DWORD PTR __imp___wassert
	add	esp, 12					; 0000000cH
	cmp	esi, esp
	call	__RTC_CheckEsp
$LN20@FillInitDa:
; Line 881
	imul	eax, DWORD PTR _index$[ebp], 12
	mov	ecx, DWORD PTR _initData$[ebp]
	mov	edx, DWORD PTR _pSrcBits$[ebp]
	mov	DWORD PTR [ecx+eax], edx
; Line 882
	imul	eax, DWORD PTR _index$[ebp], 12
	mov	ecx, DWORD PTR _initData$[ebp]
	mov	edx, DWORD PTR _RowBytes$[ebp]
	mov	DWORD PTR [ecx+eax+4], edx
; Line 883
	imul	eax, DWORD PTR _index$[ebp], 12
	mov	ecx, DWORD PTR _initData$[ebp]
	mov	edx, DWORD PTR _NumBytes$[ebp]
	mov	DWORD PTR [ecx+eax+8], edx
; Line 884
	mov	eax, DWORD PTR _index$[ebp]
	add	eax, 1
	mov	DWORD PTR _index$[ebp], eax
	jmp	SHORT $LN6@FillInitDa
$LN9@FillInitDa:
; Line 886
	cmp	DWORD PTR _j$5[ebp], 0
	jne	SHORT $LN6@FillInitDa
; Line 889
	mov	ecx, DWORD PTR _skipMip$[ebp]
	mov	edx, DWORD PTR [ecx]
	add	edx, 1
	mov	eax, DWORD PTR _skipMip$[ebp]
	mov	DWORD PTR [eax], edx
$LN6@FillInitDa:
; Line 892
	mov	ecx, DWORD PTR _NumBytes$[ebp]
	imul	ecx, DWORD PTR _d$2[ebp]
	add	ecx, DWORD PTR _pSrcBits$[ebp]
	cmp	ecx, DWORD PTR _pEndBits$[ebp]
	jbe	SHORT $LN4@FillInitDa
; Line 894
	push	38					; 00000026H
	call	_HRESULT_FROM_WIN32
	add	esp, 4
	jmp	SHORT $LN18@FillInitDa
$LN4@FillInitDa:
; Line 897
	mov	edx, DWORD PTR _NumBytes$[ebp]
	imul	edx, DWORD PTR _d$2[ebp]
	add	edx, DWORD PTR _pSrcBits$[ebp]
	mov	DWORD PTR _pSrcBits$[ebp], edx
; Line 899
	mov	eax, DWORD PTR _w$4[ebp]
	shr	eax, 1
	mov	DWORD PTR _w$4[ebp], eax
; Line 900
	mov	ecx, DWORD PTR _h$3[ebp]
	shr	ecx, 1
	mov	DWORD PTR _h$3[ebp], ecx
; Line 901
	mov	edx, DWORD PTR _d$2[ebp]
	shr	edx, 1
	mov	DWORD PTR _d$2[ebp], edx
; Line 902
	cmp	DWORD PTR _w$4[ebp], 0
	jne	SHORT $LN3@FillInitDa
; Line 904
	mov	DWORD PTR _w$4[ebp], 1
$LN3@FillInitDa:
; Line 906
	cmp	DWORD PTR _h$3[ebp], 0
	jne	SHORT $LN2@FillInitDa
; Line 908
	mov	DWORD PTR _h$3[ebp], 1
$LN2@FillInitDa:
; Line 910
	cmp	DWORD PTR _d$2[ebp], 0
	jne	SHORT $LN1@FillInitDa
; Line 912
	mov	DWORD PTR _d$2[ebp], 1
$LN1@FillInitDa:
; Line 914
	jmp	$LN11@FillInitDa
$LN10@FillInitDa:
; Line 915
	jmp	$LN14@FillInitDa
$LN13@FillInitDa:
; Line 917
	cmp	DWORD PTR _index$[ebp], 0
	jbe	SHORT $LN21@FillInitDa
	mov	DWORD PTR tv147[ebp], 0
	jmp	SHORT $LN22@FillInitDa
$LN21@FillInitDa:
	mov	DWORD PTR tv147[ebp], -2147467259	; 80004005H
$LN22@FillInitDa:
	mov	eax, DWORD PTR tv147[ebp]
$LN18@FillInitDa:
; Line 918
	push	edx
	mov	ecx, ebp
	push	eax
	lea	edx, DWORD PTR $LN26@FillInitDa
	call	@_RTC_CheckStackVars@8
	pop	eax
	pop	edx
	pop	edi
	pop	esi
	add	esp, 60					; 0000003cH
	cmp	ebp, esp
	call	__RTC_CheckEsp
	mov	esp, ebp
	pop	ebp
	ret	0
$LN26@FillInitDa:
	DD	2
	DD	$LN25@FillInitDa
$LN25@FillInitDa:
	DD	-8					; fffffff8H
	DD	4
	DD	$LN23@FillInitDa
	DD	-20					; ffffffecH
	DD	4
	DD	$LN24@FillInitDa
$LN24@FillInitDa:
	DB	82					; 00000052H
	DB	111					; 0000006fH
	DB	119					; 00000077H
	DB	66					; 00000042H
	DB	121					; 00000079H
	DB	116					; 00000074H
	DB	101					; 00000065H
	DB	115					; 00000073H
	DB	0
$LN23@FillInitDa:
	DB	78					; 0000004eH
	DB	117					; 00000075H
	DB	109					; 0000006dH
	DB	66					; 00000042H
	DB	121					; 00000079H
	DB	116					; 00000074H
	DB	101					; 00000065H
	DB	115					; 00000073H
	DB	0
?FillInitData@@YAJIIIIIW4DXGI_FORMAT@@IIPBEAAI222PAUD3D11_SUBRESOURCE_DATA@@@Z ENDP ; FillInitData
_TEXT	ENDS
; Function compile flags: /Odtp /RTCsu
_TEXT	SEGMENT
tv64 = -4						; size = 4
_format$ = 8						; size = 4
?MakeSRGB@@YA?AW4DXGI_FORMAT@@W41@@Z PROC		; MakeSRGB
; File d:\engine class\assignment 1\scratch\dxsse\dxut\core\ddstextureloader.cpp
; Line 793
	push	ebp
	mov	ebp, esp
	push	ecx
	mov	DWORD PTR [ebp-4], -858993460		; ccccccccH
; Line 794
	mov	eax, DWORD PTR _format$[ebp]
	mov	DWORD PTR tv64[ebp], eax
	mov	ecx, DWORD PTR tv64[ebp]
	sub	ecx, 28					; 0000001cH
	mov	DWORD PTR tv64[ebp], ecx
	cmp	DWORD PTR tv64[ebp], 70			; 00000046H
	ja	SHORT $LN1@MakeSRGB
	mov	edx, DWORD PTR tv64[ebp]
	movzx	eax, BYTE PTR $LN13@MakeSRGB[edx]
	jmp	DWORD PTR $LN14@MakeSRGB[eax*4]
$LN8@MakeSRGB:
; Line 797
	mov	eax, 29					; 0000001dH
	jmp	SHORT $LN11@MakeSRGB
$LN7@MakeSRGB:
; Line 800
	mov	eax, 72					; 00000048H
	jmp	SHORT $LN11@MakeSRGB
$LN6@MakeSRGB:
; Line 803
	mov	eax, 75					; 0000004bH
	jmp	SHORT $LN11@MakeSRGB
$LN5@MakeSRGB:
; Line 806
	mov	eax, 78					; 0000004eH
	jmp	SHORT $LN11@MakeSRGB
$LN4@MakeSRGB:
; Line 809
	mov	eax, 91					; 0000005bH
	jmp	SHORT $LN11@MakeSRGB
$LN3@MakeSRGB:
; Line 812
	mov	eax, 93					; 0000005dH
	jmp	SHORT $LN11@MakeSRGB
$LN2@MakeSRGB:
; Line 815
	mov	eax, 99					; 00000063H
	jmp	SHORT $LN11@MakeSRGB
$LN1@MakeSRGB:
; Line 818
	mov	eax, DWORD PTR _format$[ebp]
$LN11@MakeSRGB:
; Line 820
	mov	esp, ebp
	pop	ebp
	ret	0
	npad	3
$LN14@MakeSRGB:
	DD	$LN8@MakeSRGB
	DD	$LN7@MakeSRGB
	DD	$LN6@MakeSRGB
	DD	$LN5@MakeSRGB
	DD	$LN4@MakeSRGB
	DD	$LN3@MakeSRGB
	DD	$LN2@MakeSRGB
	DD	$LN1@MakeSRGB
$LN13@MakeSRGB:
	DB	0
	DB	7
	DB	7
	DB	7
	DB	7
	DB	7
	DB	7
	DB	7
	DB	7
	DB	7
	DB	7
	DB	7
	DB	7
	DB	7
	DB	7
	DB	7
	DB	7
	DB	7
	DB	7
	DB	7
	DB	7
	DB	7
	DB	7
	DB	7
	DB	7
	DB	7
	DB	7
	DB	7
	DB	7
	DB	7
	DB	7
	DB	7
	DB	7
	DB	7
	DB	7
	DB	7
	DB	7
	DB	7
	DB	7
	DB	7
	DB	7
	DB	7
	DB	7
	DB	1
	DB	7
	DB	7
	DB	2
	DB	7
	DB	7
	DB	3
	DB	7
	DB	7
	DB	7
	DB	7
	DB	7
	DB	7
	DB	7
	DB	7
	DB	7
	DB	4
	DB	5
	DB	7
	DB	7
	DB	7
	DB	7
	DB	7
	DB	7
	DB	7
	DB	7
	DB	7
	DB	6
?MakeSRGB@@YA?AW4DXGI_FORMAT@@W41@@Z ENDP		; MakeSRGB
_TEXT	ENDS
; Function compile flags: /Odtp /RTCsu
_TEXT	SEGMENT
tv243 = -8						; size = 4
tv68 = -4						; size = 4
_ddpf$ = 8						; size = 4
?GetDXGIFormat@@YA?AW4DXGI_FORMAT@@ABUDDS_PIXELFORMAT@@@Z PROC ; GetDXGIFormat
; File d:\engine class\assignment 1\scratch\dxsse\dxut\core\ddstextureloader.cpp
; Line 581
	push	ebp
	mov	ebp, esp
	sub	esp, 8
	mov	DWORD PTR [ebp-8], -858993460		; ccccccccH
	mov	DWORD PTR [ebp-4], -858993460		; ccccccccH
; Line 582
	mov	eax, DWORD PTR _ddpf$[ebp]
	mov	ecx, DWORD PTR [eax+4]
	and	ecx, 64					; 00000040H
	je	$LN51@GetDXGIFor
; Line 586
	mov	edx, DWORD PTR _ddpf$[ebp]
	mov	eax, DWORD PTR [edx+12]
	mov	DWORD PTR tv68[ebp], eax
	cmp	DWORD PTR tv68[ebp], 16			; 00000010H
	je	$LN40@GetDXGIFor
	cmp	DWORD PTR tv68[ebp], 32			; 00000020H
	je	SHORT $LN48@GetDXGIFor
	jmp	$LN49@GetDXGIFor
$LN48@GetDXGIFor:
; Line 589
	mov	ecx, DWORD PTR _ddpf$[ebp]
	cmp	DWORD PTR [ecx+16], 255			; 000000ffH
	jne	SHORT $LN47@GetDXGIFor
	mov	edx, DWORD PTR _ddpf$[ebp]
	cmp	DWORD PTR [edx+20], 65280		; 0000ff00H
	jne	SHORT $LN47@GetDXGIFor
	mov	eax, DWORD PTR _ddpf$[ebp]
	cmp	DWORD PTR [eax+24], 16711680		; 00ff0000H
	jne	SHORT $LN47@GetDXGIFor
	mov	ecx, DWORD PTR _ddpf$[ebp]
	cmp	DWORD PTR [ecx+28], -16777216		; ff000000H
	jne	SHORT $LN47@GetDXGIFor
; Line 591
	mov	eax, 28					; 0000001cH
	jmp	$LN52@GetDXGIFor
$LN47@GetDXGIFor:
; Line 594
	mov	edx, DWORD PTR _ddpf$[ebp]
	cmp	DWORD PTR [edx+16], 16711680		; 00ff0000H
	jne	SHORT $LN46@GetDXGIFor
	mov	eax, DWORD PTR _ddpf$[ebp]
	cmp	DWORD PTR [eax+20], 65280		; 0000ff00H
	jne	SHORT $LN46@GetDXGIFor
	mov	ecx, DWORD PTR _ddpf$[ebp]
	cmp	DWORD PTR [ecx+24], 255			; 000000ffH
	jne	SHORT $LN46@GetDXGIFor
	mov	edx, DWORD PTR _ddpf$[ebp]
	cmp	DWORD PTR [edx+28], -16777216		; ff000000H
	jne	SHORT $LN46@GetDXGIFor
; Line 596
	mov	eax, 87					; 00000057H
	jmp	$LN52@GetDXGIFor
$LN46@GetDXGIFor:
; Line 599
	mov	eax, DWORD PTR _ddpf$[ebp]
	cmp	DWORD PTR [eax+16], 16711680		; 00ff0000H
	jne	SHORT $LN45@GetDXGIFor
	mov	ecx, DWORD PTR _ddpf$[ebp]
	cmp	DWORD PTR [ecx+20], 65280		; 0000ff00H
	jne	SHORT $LN45@GetDXGIFor
	mov	edx, DWORD PTR _ddpf$[ebp]
	cmp	DWORD PTR [edx+24], 255			; 000000ffH
	jne	SHORT $LN45@GetDXGIFor
	mov	eax, DWORD PTR _ddpf$[ebp]
	cmp	DWORD PTR [eax+28], 0
	jne	SHORT $LN45@GetDXGIFor
; Line 601
	mov	eax, 88					; 00000058H
	jmp	$LN52@GetDXGIFor
$LN45@GetDXGIFor:
; Line 613
	mov	ecx, DWORD PTR _ddpf$[ebp]
	cmp	DWORD PTR [ecx+16], 1072693248		; 3ff00000H
	jne	SHORT $LN44@GetDXGIFor
	mov	edx, DWORD PTR _ddpf$[ebp]
	cmp	DWORD PTR [edx+20], 1047552		; 000ffc00H
	jne	SHORT $LN44@GetDXGIFor
	mov	eax, DWORD PTR _ddpf$[ebp]
	cmp	DWORD PTR [eax+24], 1023		; 000003ffH
	jne	SHORT $LN44@GetDXGIFor
	mov	ecx, DWORD PTR _ddpf$[ebp]
	cmp	DWORD PTR [ecx+28], -1073741824		; c0000000H
	jne	SHORT $LN44@GetDXGIFor
; Line 615
	mov	eax, 24					; 00000018H
	jmp	$LN52@GetDXGIFor
$LN44@GetDXGIFor:
; Line 620
	mov	edx, DWORD PTR _ddpf$[ebp]
	cmp	DWORD PTR [edx+16], 65535		; 0000ffffH
	jne	SHORT $LN43@GetDXGIFor
	mov	eax, DWORD PTR _ddpf$[ebp]
	cmp	DWORD PTR [eax+20], -65536		; ffff0000H
	jne	SHORT $LN43@GetDXGIFor
	mov	ecx, DWORD PTR _ddpf$[ebp]
	cmp	DWORD PTR [ecx+24], 0
	jne	SHORT $LN43@GetDXGIFor
	mov	edx, DWORD PTR _ddpf$[ebp]
	cmp	DWORD PTR [edx+28], 0
	jne	SHORT $LN43@GetDXGIFor
; Line 622
	mov	eax, 35					; 00000023H
	jmp	$LN52@GetDXGIFor
$LN43@GetDXGIFor:
; Line 625
	mov	eax, DWORD PTR _ddpf$[ebp]
	cmp	DWORD PTR [eax+16], -1
	jne	SHORT $LN42@GetDXGIFor
	mov	ecx, DWORD PTR _ddpf$[ebp]
	cmp	DWORD PTR [ecx+20], 0
	jne	SHORT $LN42@GetDXGIFor
	mov	edx, DWORD PTR _ddpf$[ebp]
	cmp	DWORD PTR [edx+24], 0
	jne	SHORT $LN42@GetDXGIFor
	mov	eax, DWORD PTR _ddpf$[ebp]
	cmp	DWORD PTR [eax+28], 0
	jne	SHORT $LN42@GetDXGIFor
; Line 628
	mov	eax, 41					; 00000029H
	jmp	$LN52@GetDXGIFor
$LN42@GetDXGIFor:
; Line 630
	jmp	$LN49@GetDXGIFor
; Line 634
	jmp	$LN49@GetDXGIFor
$LN40@GetDXGIFor:
; Line 637
	mov	ecx, DWORD PTR _ddpf$[ebp]
	cmp	DWORD PTR [ecx+16], 31744		; 00007c00H
	jne	SHORT $LN39@GetDXGIFor
	mov	edx, DWORD PTR _ddpf$[ebp]
	cmp	DWORD PTR [edx+20], 992			; 000003e0H
	jne	SHORT $LN39@GetDXGIFor
	mov	eax, DWORD PTR _ddpf$[ebp]
	cmp	DWORD PTR [eax+24], 31			; 0000001fH
	jne	SHORT $LN39@GetDXGIFor
	mov	ecx, DWORD PTR _ddpf$[ebp]
	cmp	DWORD PTR [ecx+28], 32768		; 00008000H
	jne	SHORT $LN39@GetDXGIFor
; Line 639
	mov	eax, 86					; 00000056H
	jmp	$LN52@GetDXGIFor
$LN39@GetDXGIFor:
; Line 641
	mov	edx, DWORD PTR _ddpf$[ebp]
	cmp	DWORD PTR [edx+16], 63488		; 0000f800H
	jne	SHORT $LN38@GetDXGIFor
	mov	eax, DWORD PTR _ddpf$[ebp]
	cmp	DWORD PTR [eax+20], 2016		; 000007e0H
	jne	SHORT $LN38@GetDXGIFor
	mov	ecx, DWORD PTR _ddpf$[ebp]
	cmp	DWORD PTR [ecx+24], 31			; 0000001fH
	jne	SHORT $LN38@GetDXGIFor
	mov	edx, DWORD PTR _ddpf$[ebp]
	cmp	DWORD PTR [edx+28], 0
	jne	SHORT $LN38@GetDXGIFor
; Line 643
	mov	eax, 85					; 00000055H
	jmp	$LN52@GetDXGIFor
$LN38@GetDXGIFor:
; Line 648
	mov	eax, DWORD PTR _ddpf$[ebp]
	cmp	DWORD PTR [eax+16], 3840		; 00000f00H
	jne	SHORT $LN49@GetDXGIFor
	mov	ecx, DWORD PTR _ddpf$[ebp]
	cmp	DWORD PTR [ecx+20], 240			; 000000f0H
	jne	SHORT $LN49@GetDXGIFor
	mov	edx, DWORD PTR _ddpf$[ebp]
	cmp	DWORD PTR [edx+24], 15			; 0000000fH
	jne	SHORT $LN49@GetDXGIFor
	mov	eax, DWORD PTR _ddpf$[ebp]
	cmp	DWORD PTR [eax+28], 61440		; 0000f000H
	jne	SHORT $LN49@GetDXGIFor
; Line 650
	mov	eax, 115				; 00000073H
	jmp	$LN52@GetDXGIFor
$LN49@GetDXGIFor:
; Line 659
	jmp	$LN36@GetDXGIFor
$LN51@GetDXGIFor:
	mov	ecx, DWORD PTR _ddpf$[ebp]
	mov	edx, DWORD PTR [ecx+4]
	and	edx, 131072				; 00020000H
	je	$LN35@GetDXGIFor
; Line 661
	mov	eax, DWORD PTR _ddpf$[ebp]
	cmp	DWORD PTR [eax+12], 8
	jne	SHORT $LN34@GetDXGIFor
; Line 663
	mov	ecx, DWORD PTR _ddpf$[ebp]
	cmp	DWORD PTR [ecx+16], 255			; 000000ffH
	jne	SHORT $LN34@GetDXGIFor
	mov	edx, DWORD PTR _ddpf$[ebp]
	cmp	DWORD PTR [edx+20], 0
	jne	SHORT $LN34@GetDXGIFor
	mov	eax, DWORD PTR _ddpf$[ebp]
	cmp	DWORD PTR [eax+24], 0
	jne	SHORT $LN34@GetDXGIFor
	mov	ecx, DWORD PTR _ddpf$[ebp]
	cmp	DWORD PTR [ecx+28], 0
	jne	SHORT $LN34@GetDXGIFor
; Line 665
	mov	eax, 61					; 0000003dH
	jmp	$LN52@GetDXGIFor
$LN34@GetDXGIFor:
; Line 671
	mov	edx, DWORD PTR _ddpf$[ebp]
	cmp	DWORD PTR [edx+12], 16			; 00000010H
	jne	SHORT $LN32@GetDXGIFor
; Line 673
	mov	eax, DWORD PTR _ddpf$[ebp]
	cmp	DWORD PTR [eax+16], 65535		; 0000ffffH
	jne	SHORT $LN31@GetDXGIFor
	mov	ecx, DWORD PTR _ddpf$[ebp]
	cmp	DWORD PTR [ecx+20], 0
	jne	SHORT $LN31@GetDXGIFor
	mov	edx, DWORD PTR _ddpf$[ebp]
	cmp	DWORD PTR [edx+24], 0
	jne	SHORT $LN31@GetDXGIFor
	mov	eax, DWORD PTR _ddpf$[ebp]
	cmp	DWORD PTR [eax+28], 0
	jne	SHORT $LN31@GetDXGIFor
; Line 675
	mov	eax, 56					; 00000038H
	jmp	$LN52@GetDXGIFor
$LN31@GetDXGIFor:
; Line 677
	mov	ecx, DWORD PTR _ddpf$[ebp]
	cmp	DWORD PTR [ecx+16], 255			; 000000ffH
	jne	SHORT $LN32@GetDXGIFor
	mov	edx, DWORD PTR _ddpf$[ebp]
	cmp	DWORD PTR [edx+20], 0
	jne	SHORT $LN32@GetDXGIFor
	mov	eax, DWORD PTR _ddpf$[ebp]
	cmp	DWORD PTR [eax+24], 0
	jne	SHORT $LN32@GetDXGIFor
	mov	ecx, DWORD PTR _ddpf$[ebp]
	cmp	DWORD PTR [ecx+28], 65280		; 0000ff00H
	jne	SHORT $LN32@GetDXGIFor
; Line 679
	mov	eax, 49					; 00000031H
	jmp	$LN52@GetDXGIFor
$LN32@GetDXGIFor:
; Line 682
	jmp	$LN36@GetDXGIFor
$LN35@GetDXGIFor:
; Line 683
	mov	edx, DWORD PTR _ddpf$[ebp]
	mov	eax, DWORD PTR [edx+4]
	and	eax, 2
	je	SHORT $LN28@GetDXGIFor
; Line 685
	mov	ecx, DWORD PTR _ddpf$[ebp]
	cmp	DWORD PTR [ecx+12], 8
	jne	SHORT $LN27@GetDXGIFor
; Line 687
	mov	eax, 65					; 00000041H
	jmp	$LN52@GetDXGIFor
$LN27@GetDXGIFor:
; Line 689
	jmp	$LN36@GetDXGIFor
$LN28@GetDXGIFor:
; Line 690
	mov	edx, DWORD PTR _ddpf$[ebp]
	mov	eax, DWORD PTR [edx+4]
	and	eax, 4
	je	$LN36@GetDXGIFor
; Line 692
	mov	ecx, DWORD PTR _ddpf$[ebp]
	cmp	DWORD PTR [ecx+8], 827611204		; 31545844H
	jne	SHORT $LN24@GetDXGIFor
; Line 694
	mov	eax, 71					; 00000047H
	jmp	$LN52@GetDXGIFor
$LN24@GetDXGIFor:
; Line 696
	mov	edx, DWORD PTR _ddpf$[ebp]
	cmp	DWORD PTR [edx+8], 861165636		; 33545844H
	jne	SHORT $LN23@GetDXGIFor
; Line 698
	mov	eax, 74					; 0000004aH
	jmp	$LN52@GetDXGIFor
$LN23@GetDXGIFor:
; Line 700
	mov	eax, DWORD PTR _ddpf$[ebp]
	cmp	DWORD PTR [eax+8], 894720068		; 35545844H
	jne	SHORT $LN22@GetDXGIFor
; Line 702
	mov	eax, 77					; 0000004dH
	jmp	$LN52@GetDXGIFor
$LN22@GetDXGIFor:
; Line 707
	mov	ecx, DWORD PTR _ddpf$[ebp]
	cmp	DWORD PTR [ecx+8], 844388420		; 32545844H
	jne	SHORT $LN21@GetDXGIFor
; Line 709
	mov	eax, 74					; 0000004aH
	jmp	$LN52@GetDXGIFor
$LN21@GetDXGIFor:
; Line 711
	mov	edx, DWORD PTR _ddpf$[ebp]
	cmp	DWORD PTR [edx+8], 877942852		; 34545844H
	jne	SHORT $LN20@GetDXGIFor
; Line 713
	mov	eax, 77					; 0000004dH
	jmp	$LN52@GetDXGIFor
$LN20@GetDXGIFor:
; Line 716
	mov	eax, DWORD PTR _ddpf$[ebp]
	cmp	DWORD PTR [eax+8], 826889281		; 31495441H
	jne	SHORT $LN19@GetDXGIFor
; Line 718
	mov	eax, 80					; 00000050H
	jmp	$LN52@GetDXGIFor
$LN19@GetDXGIFor:
; Line 720
	mov	ecx, DWORD PTR _ddpf$[ebp]
	cmp	DWORD PTR [ecx+8], 1429488450		; 55344342H
	jne	SHORT $LN18@GetDXGIFor
; Line 722
	mov	eax, 80					; 00000050H
	jmp	$LN52@GetDXGIFor
$LN18@GetDXGIFor:
; Line 724
	mov	edx, DWORD PTR _ddpf$[ebp]
	cmp	DWORD PTR [edx+8], 1395934018		; 53344342H
	jne	SHORT $LN17@GetDXGIFor
; Line 726
	mov	eax, 81					; 00000051H
	jmp	$LN52@GetDXGIFor
$LN17@GetDXGIFor:
; Line 729
	mov	eax, DWORD PTR _ddpf$[ebp]
	cmp	DWORD PTR [eax+8], 843666497		; 32495441H
	jne	SHORT $LN16@GetDXGIFor
; Line 731
	mov	eax, 83					; 00000053H
	jmp	$LN52@GetDXGIFor
$LN16@GetDXGIFor:
; Line 733
	mov	ecx, DWORD PTR _ddpf$[ebp]
	cmp	DWORD PTR [ecx+8], 1429553986		; 55354342H
	jne	SHORT $LN15@GetDXGIFor
; Line 735
	mov	eax, 83					; 00000053H
	jmp	$LN52@GetDXGIFor
$LN15@GetDXGIFor:
; Line 737
	mov	edx, DWORD PTR _ddpf$[ebp]
	cmp	DWORD PTR [edx+8], 1395999554		; 53354342H
	jne	SHORT $LN14@GetDXGIFor
; Line 739
	mov	eax, 84					; 00000054H
	jmp	$LN52@GetDXGIFor
$LN14@GetDXGIFor:
; Line 744
	mov	eax, DWORD PTR _ddpf$[ebp]
	cmp	DWORD PTR [eax+8], 1195525970		; 47424752H
	jne	SHORT $LN13@GetDXGIFor
; Line 746
	mov	eax, 68					; 00000044H
	jmp	$LN52@GetDXGIFor
$LN13@GetDXGIFor:
; Line 748
	mov	ecx, DWORD PTR _ddpf$[ebp]
	cmp	DWORD PTR [ecx+8], 1111970375		; 42475247H
	jne	SHORT $LN12@GetDXGIFor
; Line 750
	mov	eax, 69					; 00000045H
	jmp	SHORT $LN52@GetDXGIFor
$LN12@GetDXGIFor:
; Line 753
	mov	edx, DWORD PTR _ddpf$[ebp]
	cmp	DWORD PTR [edx+8], 844715353		; 32595559H
	jne	SHORT $LN11@GetDXGIFor
; Line 755
	mov	eax, 107				; 0000006bH
	jmp	SHORT $LN52@GetDXGIFor
$LN11@GetDXGIFor:
; Line 759
	mov	eax, DWORD PTR _ddpf$[ebp]
	mov	ecx, DWORD PTR [eax+8]
	mov	DWORD PTR tv243[ebp], ecx
	mov	edx, DWORD PTR tv243[ebp]
	sub	edx, 36					; 00000024H
	mov	DWORD PTR tv243[ebp], edx
	cmp	DWORD PTR tv243[ebp], 80		; 00000050H
	ja	SHORT $LN36@GetDXGIFor
	mov	eax, DWORD PTR tv243[ebp]
	movzx	ecx, BYTE PTR $LN54@GetDXGIFor[eax]
	jmp	DWORD PTR $LN55@GetDXGIFor[ecx*4]
$LN8@GetDXGIFor:
; Line 762
	mov	eax, 11					; 0000000bH
	jmp	SHORT $LN52@GetDXGIFor
$LN7@GetDXGIFor:
; Line 765
	mov	eax, 13					; 0000000dH
	jmp	SHORT $LN52@GetDXGIFor
$LN6@GetDXGIFor:
; Line 768
	mov	eax, 54					; 00000036H
	jmp	SHORT $LN52@GetDXGIFor
$LN5@GetDXGIFor:
; Line 771
	mov	eax, 34					; 00000022H
	jmp	SHORT $LN52@GetDXGIFor
$LN4@GetDXGIFor:
; Line 774
	mov	eax, 10					; 0000000aH
	jmp	SHORT $LN52@GetDXGIFor
$LN3@GetDXGIFor:
; Line 777
	mov	eax, 41					; 00000029H
	jmp	SHORT $LN52@GetDXGIFor
$LN2@GetDXGIFor:
; Line 780
	mov	eax, 16					; 00000010H
	jmp	SHORT $LN52@GetDXGIFor
$LN1@GetDXGIFor:
; Line 783
	mov	eax, 2
	jmp	SHORT $LN52@GetDXGIFor
$LN36@GetDXGIFor:
; Line 787
	xor	eax, eax
$LN52@GetDXGIFor:
; Line 788
	mov	esp, ebp
	pop	ebp
	ret	0
	npad	1
$LN55@GetDXGIFor:
	DD	$LN8@GetDXGIFor
	DD	$LN7@GetDXGIFor
	DD	$LN6@GetDXGIFor
	DD	$LN5@GetDXGIFor
	DD	$LN4@GetDXGIFor
	DD	$LN3@GetDXGIFor
	DD	$LN2@GetDXGIFor
	DD	$LN1@GetDXGIFor
	DD	$LN36@GetDXGIFor
$LN54@GetDXGIFor:
	DB	0
	DB	8
	DB	8
	DB	8
	DB	8
	DB	8
	DB	8
	DB	8
	DB	8
	DB	8
	DB	8
	DB	8
	DB	8
	DB	8
	DB	8
	DB	8
	DB	8
	DB	8
	DB	8
	DB	8
	DB	8
	DB	8
	DB	8
	DB	8
	DB	8
	DB	8
	DB	8
	DB	8
	DB	8
	DB	8
	DB	8
	DB	8
	DB	8
	DB	8
	DB	8
	DB	8
	DB	8
	DB	8
	DB	8
	DB	8
	DB	8
	DB	8
	DB	8
	DB	8
	DB	8
	DB	8
	DB	8
	DB	8
	DB	8
	DB	8
	DB	8
	DB	8
	DB	8
	DB	8
	DB	8
	DB	8
	DB	8
	DB	8
	DB	8
	DB	8
	DB	8
	DB	8
	DB	8
	DB	8
	DB	8
	DB	8
	DB	8
	DB	8
	DB	8
	DB	8
	DB	8
	DB	8
	DB	8
	DB	8
	DB	1
	DB	2
	DB	3
	DB	4
	DB	5
	DB	6
	DB	7
?GetDXGIFormat@@YA?AW4DXGI_FORMAT@@ABUDDS_PIXELFORMAT@@@Z ENDP ; GetDXGIFormat
_TEXT	ENDS
; Function compile flags: /Odtp /RTCsu
;	COMDAT ??$max@I@std@@YAABIABI0@Z
_TEXT	SEGMENT
tv71 = -8						; size = 4
$T1 = -4						; size = 4
__Left$ = 8						; size = 4
__Right$ = 12						; size = 4
??$max@I@std@@YAABIABI0@Z PROC				; std::max<unsigned int>, COMDAT
; File c:\program files (x86)\microsoft visual studio 12.0\vc\include\algorithm
; Line 4087
	push	ebp
	mov	ebp, esp
	sub	esp, 8
	mov	DWORD PTR [ebp-8], -858993460		; ccccccccH
	mov	DWORD PTR [ebp-4], -858993460		; ccccccccH
; Line 4088
	push	4088					; 00000ff8H
	push	OFFSET ??_C@_1JC@HALMDPKM@?$AAC?$AA?3?$AA?2?$AAP?$AAr?$AAo?$AAg?$AAr?$AAa?$AAm?$AA?5?$AAF?$AAi?$AAl?$AAe?$AAs?$AA?5?$AA?$CI?$AAx?$AA8?$AA6?$AA?$CJ?$AA?2?$AAM?$AAi?$AAc?$AAr?$AAo?$AAs?$AAo?$AAf?$AAt@
	mov	eax, DWORD PTR __Right$[ebp]
	push	eax
	mov	ecx, DWORD PTR __Left$[ebp]
	push	ecx
	call	??$_Debug_lt@ABIABI@std@@YA_NABI0PB_WI@Z ; std::_Debug_lt<unsigned int const &,unsigned int const &>
	add	esp, 16					; 00000010H
	movzx	edx, al
	test	edx, edx
	je	SHORT $LN3@max
	mov	eax, DWORD PTR __Right$[ebp]
	mov	DWORD PTR tv71[ebp], eax
	jmp	SHORT $LN4@max
$LN3@max:
	mov	ecx, DWORD PTR __Left$[ebp]
	mov	DWORD PTR tv71[ebp], ecx
$LN4@max:
	mov	edx, DWORD PTR tv71[ebp]
	mov	DWORD PTR $T1[ebp], edx
	mov	eax, DWORD PTR $T1[ebp]
; Line 4089
	add	esp, 8
	cmp	ebp, esp
	call	__RTC_CheckEsp
	mov	esp, ebp
	pop	ebp
	ret	0
??$max@I@std@@YAABIABI0@Z ENDP				; std::max<unsigned int>
_TEXT	ENDS
; Function compile flags: /Odtp /RTCsu
_TEXT	SEGMENT
tv64 = -52						; size = 4
$T1 = -48						; size = 4
$T2 = -44						; size = 4
$T3 = -40						; size = 4
$T4 = -36						; size = 4
_bpp$5 = -32						; size = 4
_numBlocksHigh$6 = -28					; size = 4
_numBlocksWide$7 = -24					; size = 4
_bpe$ = -20						; size = 4
_planar$ = -15						; size = 1
_packed$ = -14						; size = 1
_bc$ = -13						; size = 1
_numRows$ = -12						; size = 4
_rowBytes$ = -8						; size = 4
_numBytes$ = -4						; size = 4
_width$ = 8						; size = 4
_height$ = 12						; size = 4
_fmt$ = 16						; size = 4
_outNumBytes$ = 20					; size = 4
_outRowBytes$ = 24					; size = 4
_outNumRows$ = 28					; size = 4
?GetSurfaceInfo@@YAXIIW4DXGI_FORMAT@@PAI11@Z PROC	; GetSurfaceInfo
; File d:\engine class\assignment 1\scratch\dxsse\dxut\core\ddstextureloader.cpp
; Line 443
	push	ebp
	mov	ebp, esp
	sub	esp, 52					; 00000034H
	push	edi
	lea	edi, DWORD PTR [ebp-52]
	mov	ecx, 13					; 0000000dH
	mov	eax, -858993460				; ccccccccH
	rep stosd
; Line 444
	mov	DWORD PTR _numBytes$[ebp], 0
; Line 445
	mov	DWORD PTR _rowBytes$[ebp], 0
; Line 446
	mov	DWORD PTR _numRows$[ebp], 0
; Line 448
	mov	BYTE PTR _bc$[ebp], 0
; Line 449
	mov	BYTE PTR _packed$[ebp], 0
; Line 450
	mov	BYTE PTR _planar$[ebp], 0
; Line 451
	mov	DWORD PTR _bpe$[ebp], 0
; Line 452
	mov	eax, DWORD PTR _fmt$[ebp]
	mov	DWORD PTR tv64[ebp], eax
	mov	ecx, DWORD PTR tv64[ebp]
	sub	ecx, 68					; 00000044H
	mov	DWORD PTR tv64[ebp], ecx
	cmp	DWORD PTR tv64[ebp], 41			; 00000029H
	ja	SHORT $LN20@GetSurface
	mov	edx, DWORD PTR tv64[ebp]
	movzx	eax, BYTE PTR $LN24@GetSurface[edx]
	jmp	DWORD PTR $LN25@GetSurface[eax*4]
$LN19@GetSurface:
; Line 460
	mov	BYTE PTR _bc$[ebp], 1
; Line 461
	mov	DWORD PTR _bpe$[ebp], 8
; Line 462
	jmp	SHORT $LN20@GetSurface
$LN18@GetSurface:
; Line 479
	mov	BYTE PTR _bc$[ebp], 1
; Line 480
	mov	DWORD PTR _bpe$[ebp], 16		; 00000010H
; Line 481
	jmp	SHORT $LN20@GetSurface
$LN17@GetSurface:
; Line 486
	mov	BYTE PTR _packed$[ebp], 1
; Line 487
	mov	DWORD PTR _bpe$[ebp], 4
; Line 488
	jmp	SHORT $LN20@GetSurface
$LN16@GetSurface:
; Line 492
	mov	BYTE PTR _packed$[ebp], 1
; Line 493
	mov	DWORD PTR _bpe$[ebp], 8
; Line 494
	jmp	SHORT $LN20@GetSurface
$LN15@GetSurface:
; Line 498
	mov	BYTE PTR _planar$[ebp], 1
; Line 499
	mov	DWORD PTR _bpe$[ebp], 2
; Line 500
	jmp	SHORT $LN20@GetSurface
$LN14@GetSurface:
; Line 504
	mov	BYTE PTR _planar$[ebp], 1
; Line 505
	mov	DWORD PTR _bpe$[ebp], 4
$LN20@GetSurface:
; Line 520
	movzx	ecx, BYTE PTR _bc$[ebp]
	test	ecx, ecx
	je	$LN13@GetSurface
; Line 522
	mov	DWORD PTR _numBlocksWide$7[ebp], 0
; Line 523
	cmp	DWORD PTR _width$[ebp], 0
	jbe	SHORT $LN12@GetSurface
; Line 525
	mov	edx, DWORD PTR _width$[ebp]
	add	edx, 3
	shr	edx, 2
	mov	DWORD PTR $T4[ebp], edx
	mov	DWORD PTR $T3[ebp], 1
	lea	eax, DWORD PTR $T4[ebp]
	push	eax
	lea	ecx, DWORD PTR $T3[ebp]
	push	ecx
	call	??$max@I@std@@YAABIABI0@Z		; std::max<unsigned int>
	add	esp, 8
	mov	edx, DWORD PTR [eax]
	mov	DWORD PTR _numBlocksWide$7[ebp], edx
$LN12@GetSurface:
; Line 527
	mov	DWORD PTR _numBlocksHigh$6[ebp], 0
; Line 528
	cmp	DWORD PTR _height$[ebp], 0
	jbe	SHORT $LN11@GetSurface
; Line 530
	mov	eax, DWORD PTR _height$[ebp]
	add	eax, 3
	shr	eax, 2
	mov	DWORD PTR $T2[ebp], eax
	mov	DWORD PTR $T1[ebp], 1
	lea	ecx, DWORD PTR $T2[ebp]
	push	ecx
	lea	edx, DWORD PTR $T1[ebp]
	push	edx
	call	??$max@I@std@@YAABIABI0@Z		; std::max<unsigned int>
	add	esp, 8
	mov	eax, DWORD PTR [eax]
	mov	DWORD PTR _numBlocksHigh$6[ebp], eax
$LN11@GetSurface:
; Line 532
	mov	ecx, DWORD PTR _numBlocksWide$7[ebp]
	imul	ecx, DWORD PTR _bpe$[ebp]
	mov	DWORD PTR _rowBytes$[ebp], ecx
; Line 533
	mov	edx, DWORD PTR _numBlocksHigh$6[ebp]
	mov	DWORD PTR _numRows$[ebp], edx
; Line 534
	mov	eax, DWORD PTR _rowBytes$[ebp]
	imul	eax, DWORD PTR _numBlocksHigh$6[ebp]
	mov	DWORD PTR _numBytes$[ebp], eax
	jmp	$LN10@GetSurface
$LN13@GetSurface:
; Line 536
	movzx	ecx, BYTE PTR _packed$[ebp]
	test	ecx, ecx
	je	SHORT $LN9@GetSurface
; Line 538
	mov	edx, DWORD PTR _width$[ebp]
	add	edx, 1
	shr	edx, 1
	imul	edx, DWORD PTR _bpe$[ebp]
	mov	DWORD PTR _rowBytes$[ebp], edx
; Line 539
	mov	eax, DWORD PTR _height$[ebp]
	mov	DWORD PTR _numRows$[ebp], eax
; Line 540
	mov	ecx, DWORD PTR _rowBytes$[ebp]
	imul	ecx, DWORD PTR _height$[ebp]
	mov	DWORD PTR _numBytes$[ebp], ecx
	jmp	$LN10@GetSurface
$LN9@GetSurface:
; Line 542
	cmp	DWORD PTR _fmt$[ebp], 110		; 0000006eH
	jne	SHORT $LN7@GetSurface
; Line 544
	mov	edx, DWORD PTR _width$[ebp]
	add	edx, 3
	shr	edx, 2
	shl	edx, 2
	mov	DWORD PTR _rowBytes$[ebp], edx
; Line 545
	mov	eax, DWORD PTR _height$[ebp]
	shl	eax, 1
	mov	DWORD PTR _numRows$[ebp], eax
; Line 546
	mov	ecx, DWORD PTR _rowBytes$[ebp]
	imul	ecx, DWORD PTR _numRows$[ebp]
	mov	DWORD PTR _numBytes$[ebp], ecx
	jmp	SHORT $LN10@GetSurface
$LN7@GetSurface:
; Line 548
	movzx	edx, BYTE PTR _planar$[ebp]
	test	edx, edx
	je	SHORT $LN5@GetSurface
; Line 550
	mov	eax, DWORD PTR _width$[ebp]
	add	eax, 1
	shr	eax, 1
	imul	eax, DWORD PTR _bpe$[ebp]
	mov	DWORD PTR _rowBytes$[ebp], eax
; Line 551
	mov	ecx, DWORD PTR _rowBytes$[ebp]
	imul	ecx, DWORD PTR _height$[ebp]
	mov	edx, DWORD PTR _rowBytes$[ebp]
	imul	edx, DWORD PTR _height$[ebp]
	add	edx, 1
	shr	edx, 1
	add	ecx, edx
	mov	DWORD PTR _numBytes$[ebp], ecx
; Line 552
	mov	eax, DWORD PTR _height$[ebp]
	add	eax, 1
	shr	eax, 1
	add	eax, DWORD PTR _height$[ebp]
	mov	DWORD PTR _numRows$[ebp], eax
; Line 554
	jmp	SHORT $LN10@GetSurface
$LN5@GetSurface:
; Line 556
	mov	ecx, DWORD PTR _fmt$[ebp]
	push	ecx
	call	?BitsPerPixel@@YAIW4DXGI_FORMAT@@@Z	; BitsPerPixel
	add	esp, 4
	mov	DWORD PTR _bpp$5[ebp], eax
; Line 557
	mov	edx, DWORD PTR _width$[ebp]
	imul	edx, DWORD PTR _bpp$5[ebp]
	add	edx, 7
	shr	edx, 3
	mov	DWORD PTR _rowBytes$[ebp], edx
; Line 558
	mov	eax, DWORD PTR _height$[ebp]
	mov	DWORD PTR _numRows$[ebp], eax
; Line 559
	mov	ecx, DWORD PTR _rowBytes$[ebp]
	imul	ecx, DWORD PTR _height$[ebp]
	mov	DWORD PTR _numBytes$[ebp], ecx
$LN10@GetSurface:
; Line 562
	cmp	DWORD PTR _outNumBytes$[ebp], 0
	je	SHORT $LN3@GetSurface
; Line 564
	mov	edx, DWORD PTR _outNumBytes$[ebp]
	mov	eax, DWORD PTR _numBytes$[ebp]
	mov	DWORD PTR [edx], eax
$LN3@GetSurface:
; Line 566
	cmp	DWORD PTR _outRowBytes$[ebp], 0
	je	SHORT $LN2@GetSurface
; Line 568
	mov	ecx, DWORD PTR _outRowBytes$[ebp]
	mov	edx, DWORD PTR _rowBytes$[ebp]
	mov	DWORD PTR [ecx], edx
$LN2@GetSurface:
; Line 570
	cmp	DWORD PTR _outNumRows$[ebp], 0
	je	SHORT $LN22@GetSurface
; Line 572
	mov	eax, DWORD PTR _outNumRows$[ebp]
	mov	ecx, DWORD PTR _numRows$[ebp]
	mov	DWORD PTR [eax], ecx
$LN22@GetSurface:
; Line 574
	pop	edi
	add	esp, 52					; 00000034H
	cmp	ebp, esp
	call	__RTC_CheckEsp
	mov	esp, ebp
	pop	ebp
	ret	0
	npad	3
$LN25@GetSurface:
	DD	$LN17@GetSurface
	DD	$LN19@GetSurface
	DD	$LN18@GetSurface
	DD	$LN15@GetSurface
	DD	$LN14@GetSurface
	DD	$LN16@GetSurface
	DD	$LN20@GetSurface
$LN24@GetSurface:
	DB	0
	DB	0
	DB	1
	DB	1
	DB	1
	DB	2
	DB	2
	DB	2
	DB	2
	DB	2
	DB	2
	DB	1
	DB	1
	DB	1
	DB	2
	DB	2
	DB	2
	DB	6
	DB	6
	DB	6
	DB	6
	DB	6
	DB	6
	DB	6
	DB	6
	DB	6
	DB	2
	DB	2
	DB	2
	DB	2
	DB	2
	DB	2
	DB	6
	DB	6
	DB	6
	DB	3
	DB	4
	DB	4
	DB	3
	DB	0
	DB	5
	DB	5
?GetSurfaceInfo@@YAXIIW4DXGI_FORMAT@@PAI11@Z ENDP	; GetSurfaceInfo
_TEXT	ENDS
; Function compile flags: /Odtp /RTCsu
_TEXT	SEGMENT
tv64 = -4						; size = 4
_fmt$ = 8						; size = 4
?BitsPerPixel@@YAIW4DXGI_FORMAT@@@Z PROC		; BitsPerPixel
; File d:\engine class\assignment 1\scratch\dxsse\dxut\core\ddstextureloader.cpp
; Line 275
	push	ebp
	mov	ebp, esp
	push	ecx
	mov	DWORD PTR [ebp-4], -858993460		; ccccccccH
; Line 276
	mov	eax, DWORD PTR _fmt$[ebp]
	mov	DWORD PTR tv64[ebp], eax
	mov	ecx, DWORD PTR tv64[ebp]
	sub	ecx, 1
	mov	DWORD PTR tv64[ebp], ecx
	cmp	DWORD PTR tv64[ebp], 114		; 00000072H
	ja	SHORT $LN1@BitsPerPix
	mov	edx, DWORD PTR tv64[ebp]
	movzx	eax, BYTE PTR $LN17@BitsPerPix[edx]
	jmp	DWORD PTR $LN18@BitsPerPix[eax*4]
$LN12@BitsPerPix:
; Line 282
	mov	eax, 128				; 00000080H
	jmp	SHORT $LN15@BitsPerPix
$LN11@BitsPerPix:
; Line 288
	mov	eax, 96					; 00000060H
	jmp	SHORT $LN15@BitsPerPix
$LN10@BitsPerPix:
; Line 307
	mov	eax, 64					; 00000040H
	jmp	SHORT $LN15@BitsPerPix
$LN9@BitsPerPix:
; Line 347
	mov	eax, 32					; 00000020H
	jmp	SHORT $LN15@BitsPerPix
$LN8@BitsPerPix:
; Line 351
	mov	eax, 24					; 00000018H
	jmp	SHORT $LN15@BitsPerPix
$LN7@BitsPerPix:
; Line 369
	mov	eax, 16					; 00000010H
	jmp	SHORT $LN15@BitsPerPix
$LN6@BitsPerPix:
; Line 374
	mov	eax, 12					; 0000000cH
	jmp	SHORT $LN15@BitsPerPix
$LN5@BitsPerPix:
; Line 385
	mov	eax, 8
	jmp	SHORT $LN15@BitsPerPix
$LN4@BitsPerPix:
; Line 388
	mov	eax, 1
	jmp	SHORT $LN15@BitsPerPix
$LN3@BitsPerPix:
; Line 396
	mov	eax, 4
	jmp	SHORT $LN15@BitsPerPix
$LN2@BitsPerPix:
; Line 413
	mov	eax, 8
	jmp	SHORT $LN15@BitsPerPix
$LN1@BitsPerPix:
; Line 429
	xor	eax, eax
$LN15@BitsPerPix:
; Line 431
	mov	esp, ebp
	pop	ebp
	ret	0
$LN18@BitsPerPix:
	DD	$LN12@BitsPerPix
	DD	$LN11@BitsPerPix
	DD	$LN10@BitsPerPix
	DD	$LN9@BitsPerPix
	DD	$LN7@BitsPerPix
	DD	$LN5@BitsPerPix
	DD	$LN4@BitsPerPix
	DD	$LN3@BitsPerPix
	DD	$LN2@BitsPerPix
	DD	$LN6@BitsPerPix
	DD	$LN8@BitsPerPix
$LN17@BitsPerPix:
	DB	0
	DB	0
	DB	0
	DB	0
	DB	1
	DB	1
	DB	1
	DB	1
	DB	2
	DB	2
	DB	2
	DB	2
	DB	2
	DB	2
	DB	2
	DB	2
	DB	2
	DB	2
	DB	2
	DB	2
	DB	2
	DB	2
	DB	3
	DB	3
	DB	3
	DB	3
	DB	3
	DB	3
	DB	3
	DB	3
	DB	3
	DB	3
	DB	3
	DB	3
	DB	3
	DB	3
	DB	3
	DB	3
	DB	3
	DB	3
	DB	3
	DB	3
	DB	3
	DB	3
	DB	3
	DB	3
	DB	3
	DB	4
	DB	4
	DB	4
	DB	4
	DB	4
	DB	4
	DB	4
	DB	4
	DB	4
	DB	4
	DB	4
	DB	4
	DB	5
	DB	5
	DB	5
	DB	5
	DB	5
	DB	5
	DB	6
	DB	3
	DB	3
	DB	3
	DB	7
	DB	7
	DB	7
	DB	8
	DB	8
	DB	8
	DB	8
	DB	8
	DB	8
	DB	7
	DB	7
	DB	7
	DB	8
	DB	8
	DB	8
	DB	4
	DB	4
	DB	3
	DB	3
	DB	3
	DB	3
	DB	3
	DB	3
	DB	3
	DB	8
	DB	8
	DB	8
	DB	8
	DB	8
	DB	8
	DB	3
	DB	3
	DB	2
	DB	9
	DB	10					; 0000000aH
	DB	10					; 0000000aH
	DB	9
	DB	3
	DB	2
	DB	2
	DB	9
	DB	5
	DB	5
	DB	5
	DB	4
	DB	4
?BitsPerPixel@@YAIW4DXGI_FORMAT@@@Z ENDP		; BitsPerPixel
_TEXT	ENDS
; Function compile flags: /Odtp /RTCsu
;	COMDAT ?_Delete@?$unique_ptr@$$BY0A@EU?$default_delete@$$BY0A@E@std@@@std@@AAEXXZ
_TEXT	SEGMENT
_this$ = -4						; size = 4
?_Delete@?$unique_ptr@$$BY0A@EU?$default_delete@$$BY0A@E@std@@@std@@AAEXXZ PROC ; std::unique_ptr<unsigned char [0],std::default_delete<unsigned char [0]> >::_Delete, COMDAT
; _this$ = ecx
; File c:\program files (x86)\microsoft visual studio 12.0\vc\include\memory
; Line 1627
	push	ebp
	mov	ebp, esp
	push	ecx
	mov	DWORD PTR [ebp-4], -858993460		; ccccccccH
	mov	DWORD PTR _this$[ebp], ecx
; Line 1628
	mov	eax, DWORD PTR _this$[ebp]
	cmp	DWORD PTR [eax], 0
	je	SHORT $LN2@Delete
; Line 1629
	mov	ecx, DWORD PTR _this$[ebp]
	mov	edx, DWORD PTR [ecx]
	push	edx
	mov	ecx, DWORD PTR _this$[ebp]
	call	?get_deleter@?$_Unique_ptr_base@EU?$default_delete@$$BY0A@E@std@@$00@std@@QAEAAU?$default_delete@$$BY0A@E@2@XZ ; std::_Unique_ptr_base<unsigned char,std::default_delete<unsigned char [0]>,1>::get_deleter
	mov	ecx, eax
	call	??R?$default_delete@$$BY0A@E@std@@QBEXPAE@Z ; std::default_delete<unsigned char [0]>::operator()
$LN2@Delete:
; Line 1630
	add	esp, 4
	cmp	ebp, esp
	call	__RTC_CheckEsp
	mov	esp, ebp
	pop	ebp
	ret	0
?_Delete@?$unique_ptr@$$BY0A@EU?$default_delete@$$BY0A@E@std@@@std@@AAEXXZ ENDP ; std::unique_ptr<unsigned char [0],std::default_delete<unsigned char [0]> >::_Delete
_TEXT	ENDS
; Function compile flags: /Odtp /RTCsu
;	COMDAT ?reset@?$unique_ptr@$$BY0A@EU?$default_delete@$$BY0A@E@std@@@std@@QAEXPAE@Z
_TEXT	SEGMENT
_this$ = -4						; size = 4
__Ptr$ = 8						; size = 4
?reset@?$unique_ptr@$$BY0A@EU?$default_delete@$$BY0A@E@std@@@std@@QAEXPAE@Z PROC ; std::unique_ptr<unsigned char [0],std::default_delete<unsigned char [0]> >::reset, COMDAT
; _this$ = ecx
; File c:\program files (x86)\microsoft visual studio 12.0\vc\include\memory
; Line 1606
	push	ebp
	mov	ebp, esp
	push	ecx
	mov	DWORD PTR [ebp-4], -858993460		; ccccccccH
	mov	DWORD PTR _this$[ebp], ecx
; Line 1607
	mov	ecx, DWORD PTR _this$[ebp]
	call	?_Delete@?$unique_ptr@$$BY0A@EU?$default_delete@$$BY0A@E@std@@@std@@AAEXXZ ; std::unique_ptr<unsigned char [0],std::default_delete<unsigned char [0]> >::_Delete
; Line 1608
	mov	eax, DWORD PTR _this$[ebp]
	mov	ecx, DWORD PTR __Ptr$[ebp]
	mov	DWORD PTR [eax], ecx
; Line 1609
	add	esp, 4
	cmp	ebp, esp
	call	__RTC_CheckEsp
	mov	esp, ebp
	pop	ebp
	ret	4
?reset@?$unique_ptr@$$BY0A@EU?$default_delete@$$BY0A@E@std@@@std@@QAEXPAE@Z ENDP ; std::unique_ptr<unsigned char [0],std::default_delete<unsigned char [0]> >::reset
_TEXT	ENDS
; Function compile flags: /Odtp /RTCsu
;	COMDAT ??B?$unique_ptr@$$BY0A@EU?$default_delete@$$BY0A@E@std@@@std@@QBE_NXZ
_TEXT	SEGMENT
tv70 = -8						; size = 4
_this$ = -4						; size = 4
??B?$unique_ptr@$$BY0A@EU?$default_delete@$$BY0A@E@std@@@std@@QBE_NXZ PROC ; std::unique_ptr<unsigned char [0],std::default_delete<unsigned char [0]> >::operator bool, COMDAT
; _this$ = ecx
; File c:\program files (x86)\microsoft visual studio 12.0\vc\include\memory
; Line 1594
	push	ebp
	mov	ebp, esp
	sub	esp, 8
	mov	DWORD PTR [ebp-8], -858993460		; ccccccccH
	mov	DWORD PTR [ebp-4], -858993460		; ccccccccH
	mov	DWORD PTR _this$[ebp], ecx
; Line 1595
	mov	eax, DWORD PTR _this$[ebp]
	cmp	DWORD PTR [eax], 0
	je	SHORT $LN3@operator
	mov	DWORD PTR tv70[ebp], 1
	jmp	SHORT $LN4@operator
$LN3@operator:
	mov	DWORD PTR tv70[ebp], 0
$LN4@operator:
	mov	al, BYTE PTR tv70[ebp]
; Line 1596
	mov	esp, ebp
	pop	ebp
	ret	0
??B?$unique_ptr@$$BY0A@EU?$default_delete@$$BY0A@E@std@@@std@@QBE_NXZ ENDP ; std::unique_ptr<unsigned char [0],std::default_delete<unsigned char [0]> >::operator bool
_TEXT	ENDS
; Function compile flags: /Odtp /RTCsu
;	COMDAT ?get@?$unique_ptr@$$BY0A@EU?$default_delete@$$BY0A@E@std@@@std@@QBEPAEXZ
_TEXT	SEGMENT
_this$ = -4						; size = 4
?get@?$unique_ptr@$$BY0A@EU?$default_delete@$$BY0A@E@std@@@std@@QBEPAEXZ PROC ; std::unique_ptr<unsigned char [0],std::default_delete<unsigned char [0]> >::get, COMDAT
; _this$ = ecx
; File c:\program files (x86)\microsoft visual studio 12.0\vc\include\memory
; Line 1589
	push	ebp
	mov	ebp, esp
	push	ecx
	mov	DWORD PTR [ebp-4], -858993460		; ccccccccH
	mov	DWORD PTR _this$[ebp], ecx
; Line 1590
	mov	eax, DWORD PTR _this$[ebp]
	mov	eax, DWORD PTR [eax]
; Line 1591
	mov	esp, ebp
	pop	ebp
	ret	0
?get@?$unique_ptr@$$BY0A@EU?$default_delete@$$BY0A@E@std@@@std@@QBEPAEXZ ENDP ; std::unique_ptr<unsigned char [0],std::default_delete<unsigned char [0]> >::get
_TEXT	ENDS
; Function compile flags: /Odtp /RTCsu
;	COMDAT ??1?$unique_ptr@$$BY0A@EU?$default_delete@$$BY0A@E@std@@@std@@QAE@XZ
_TEXT	SEGMENT
_this$ = -4						; size = 4
??1?$unique_ptr@$$BY0A@EU?$default_delete@$$BY0A@E@std@@@std@@QAE@XZ PROC ; std::unique_ptr<unsigned char [0],std::default_delete<unsigned char [0]> >::~unique_ptr<unsigned char [0],std::default_delete<unsigned char [0]> >, COMDAT
; _this$ = ecx
; File c:\program files (x86)\microsoft visual studio 12.0\vc\include\memory
; Line 1579
	push	ebp
	mov	ebp, esp
	push	ecx
	mov	DWORD PTR [ebp-4], -858993460		; ccccccccH
	mov	DWORD PTR _this$[ebp], ecx
; Line 1580
	mov	ecx, DWORD PTR _this$[ebp]
	call	?_Delete@?$unique_ptr@$$BY0A@EU?$default_delete@$$BY0A@E@std@@@std@@AAEXXZ ; std::unique_ptr<unsigned char [0],std::default_delete<unsigned char [0]> >::_Delete
; Line 1581
	add	esp, 4
	cmp	ebp, esp
	call	__RTC_CheckEsp
	mov	esp, ebp
	pop	ebp
	ret	0
??1?$unique_ptr@$$BY0A@EU?$default_delete@$$BY0A@E@std@@@std@@QAE@XZ ENDP ; std::unique_ptr<unsigned char [0],std::default_delete<unsigned char [0]> >::~unique_ptr<unsigned char [0],std::default_delete<unsigned char [0]> >
_TEXT	ENDS
; Function compile flags: /Odtp /RTCsu
;	COMDAT ??0?$unique_ptr@$$BY0A@EU?$default_delete@$$BY0A@E@std@@@std@@QAE@XZ
_TEXT	SEGMENT
_this$ = -4						; size = 4
??0?$unique_ptr@$$BY0A@EU?$default_delete@$$BY0A@E@std@@@std@@QAE@XZ PROC ; std::unique_ptr<unsigned char [0],std::default_delete<unsigned char [0]> >::unique_ptr<unsigned char [0],std::default_delete<unsigned char [0]> >, COMDAT
; _this$ = ecx
; File c:\program files (x86)\microsoft visual studio 12.0\vc\include\memory
; Line 1511
	push	ebp
	mov	ebp, esp
	push	ecx
	mov	DWORD PTR [ebp-4], -858993460		; ccccccccH
	mov	DWORD PTR _this$[ebp], ecx
	push	0
	mov	ecx, DWORD PTR _this$[ebp]
	call	??0?$_Unique_ptr_base@EU?$default_delete@$$BY0A@E@std@@$00@std@@QAE@PAE@Z ; std::_Unique_ptr_base<unsigned char,std::default_delete<unsigned char [0]>,1>::_Unique_ptr_base<unsigned char,std::default_delete<unsigned char [0]>,1>
; Line 1514
	mov	eax, DWORD PTR _this$[ebp]
	add	esp, 4
	cmp	ebp, esp
	call	__RTC_CheckEsp
	mov	esp, ebp
	pop	ebp
	ret	0
??0?$unique_ptr@$$BY0A@EU?$default_delete@$$BY0A@E@std@@@std@@QAE@XZ ENDP ; std::unique_ptr<unsigned char [0],std::default_delete<unsigned char [0]> >::unique_ptr<unsigned char [0],std::default_delete<unsigned char [0]> >
_TEXT	ENDS
; Function compile flags: /Odtp /RTCsu
;	COMDAT ?get_deleter@?$_Unique_ptr_base@EU?$default_delete@$$BY0A@E@std@@$00@std@@QAEAAU?$default_delete@$$BY0A@E@2@XZ
_TEXT	SEGMENT
_this$ = -4						; size = 4
?get_deleter@?$_Unique_ptr_base@EU?$default_delete@$$BY0A@E@std@@$00@std@@QAEAAU?$default_delete@$$BY0A@E@2@XZ PROC ; std::_Unique_ptr_base<unsigned char,std::default_delete<unsigned char [0]>,1>::get_deleter, COMDAT
; _this$ = ecx
; File c:\program files (x86)\microsoft visual studio 12.0\vc\include\memory
; Line 1312
	push	ebp
	mov	ebp, esp
	push	ecx
	mov	DWORD PTR [ebp-4], -858993460		; ccccccccH
	mov	DWORD PTR _this$[ebp], ecx
; Line 1313
	mov	eax, DWORD PTR _this$[ebp]
; Line 1314
	mov	esp, ebp
	pop	ebp
	ret	0
?get_deleter@?$_Unique_ptr_base@EU?$default_delete@$$BY0A@E@std@@$00@std@@QAEAAU?$default_delete@$$BY0A@E@2@XZ ENDP ; std::_Unique_ptr_base<unsigned char,std::default_delete<unsigned char [0]>,1>::get_deleter
_TEXT	ENDS
; Function compile flags: /Odtp /RTCsu
;	COMDAT ??0?$_Unique_ptr_base@EU?$default_delete@$$BY0A@E@std@@$00@std@@QAE@PAE@Z
_TEXT	SEGMENT
_this$ = -4						; size = 4
__Ptr$ = 8						; size = 4
??0?$_Unique_ptr_base@EU?$default_delete@$$BY0A@E@std@@$00@std@@QAE@PAE@Z PROC ; std::_Unique_ptr_base<unsigned char,std::default_delete<unsigned char [0]>,1>::_Unique_ptr_base<unsigned char,std::default_delete<unsigned char [0]>,1>, COMDAT
; _this$ = ecx
; File c:\program files (x86)\microsoft visual studio 12.0\vc\include\memory
; Line 1295
	push	ebp
	mov	ebp, esp
	push	ecx
	mov	DWORD PTR [ebp-4], -858993460		; ccccccccH
	mov	DWORD PTR _this$[ebp], ecx
	mov	ecx, DWORD PTR _this$[ebp]
	call	??0?$default_delete@$$BY0A@E@std@@QAE@XZ ; std::default_delete<unsigned char [0]>::default_delete<unsigned char [0]>
	mov	eax, DWORD PTR _this$[ebp]
	mov	ecx, DWORD PTR __Ptr$[ebp]
	mov	DWORD PTR [eax], ecx
; Line 1296
	mov	eax, DWORD PTR _this$[ebp]
	add	esp, 4
	cmp	ebp, esp
	call	__RTC_CheckEsp
	mov	esp, ebp
	pop	ebp
	ret	4
??0?$_Unique_ptr_base@EU?$default_delete@$$BY0A@E@std@@$00@std@@QAE@PAE@Z ENDP ; std::_Unique_ptr_base<unsigned char,std::default_delete<unsigned char [0]>,1>::_Unique_ptr_base<unsigned char,std::default_delete<unsigned char [0]>,1>
_TEXT	ENDS
; Function compile flags: /Odtp /RTCsu
;	COMDAT ??R?$default_delete@$$BY0A@E@std@@QBEXPAE@Z
_TEXT	SEGMENT
$T1 = -8						; size = 4
_this$ = -4						; size = 4
__Ptr$ = 8						; size = 4
??R?$default_delete@$$BY0A@E@std@@QBEXPAE@Z PROC	; std::default_delete<unsigned char [0]>::operator(), COMDAT
; _this$ = ecx
; File c:\program files (x86)\microsoft visual studio 12.0\vc\include\memory
; Line 1217
	push	ebp
	mov	ebp, esp
	sub	esp, 8
	mov	DWORD PTR [ebp-8], -858993460		; ccccccccH
	mov	DWORD PTR [ebp-4], -858993460		; ccccccccH
	mov	DWORD PTR _this$[ebp], ecx
; Line 1220
	mov	eax, DWORD PTR __Ptr$[ebp]
	mov	DWORD PTR $T1[ebp], eax
	mov	ecx, DWORD PTR $T1[ebp]
	push	ecx
	call	??_V@YAXPAX@Z				; operator delete[]
	add	esp, 4
; Line 1221
	add	esp, 8
	cmp	ebp, esp
	call	__RTC_CheckEsp
	mov	esp, ebp
	pop	ebp
	ret	4
??R?$default_delete@$$BY0A@E@std@@QBEXPAE@Z ENDP	; std::default_delete<unsigned char [0]>::operator()
_TEXT	ENDS
; Function compile flags: /Odtp /RTCsu
;	COMDAT ??0?$default_delete@$$BY0A@E@std@@QAE@XZ
_TEXT	SEGMENT
_this$ = -4						; size = 4
??0?$default_delete@$$BY0A@E@std@@QAE@XZ PROC		; std::default_delete<unsigned char [0]>::default_delete<unsigned char [0]>, COMDAT
; _this$ = ecx
; File c:\program files (x86)\microsoft visual studio 12.0\vc\include\memory
; Line 1209
	push	ebp
	mov	ebp, esp
	push	ecx
	mov	DWORD PTR [ebp-4], -858993460		; ccccccccH
	mov	DWORD PTR _this$[ebp], ecx
; Line 1211
	mov	eax, DWORD PTR _this$[ebp]
	mov	esp, ebp
	pop	ebp
	ret	0
??0?$default_delete@$$BY0A@E@std@@QAE@XZ ENDP		; std::default_delete<unsigned char [0]>::default_delete<unsigned char [0]>
_TEXT	ENDS
; Function compile flags: /Odtp /RTCsu
;	COMDAT ??B?$unique_ptr@XUhandle_closer@?A0xcec58e3e@@@std@@QBE_NXZ
_TEXT	SEGMENT
tv70 = -8						; size = 4
_this$ = -4						; size = 4
??B?$unique_ptr@XUhandle_closer@?A0xcec58e3e@@@std@@QBE_NXZ PROC ; std::unique_ptr<void,`anonymous namespace'::handle_closer>::operator bool, COMDAT
; _this$ = ecx
; File c:\program files (x86)\microsoft visual studio 12.0\vc\include\memory
; Line 1467
	push	ebp
	mov	ebp, esp
	sub	esp, 8
	mov	DWORD PTR [ebp-8], -858993460		; ccccccccH
	mov	DWORD PTR [ebp-4], -858993460		; ccccccccH
	mov	DWORD PTR _this$[ebp], ecx
; Line 1468
	mov	eax, DWORD PTR _this$[ebp]
	cmp	DWORD PTR [eax], 0
	je	SHORT $LN3@operator
	mov	DWORD PTR tv70[ebp], 1
	jmp	SHORT $LN4@operator
$LN3@operator:
	mov	DWORD PTR tv70[ebp], 0
$LN4@operator:
	mov	al, BYTE PTR tv70[ebp]
; Line 1469
	mov	esp, ebp
	pop	ebp
	ret	0
??B?$unique_ptr@XUhandle_closer@?A0xcec58e3e@@@std@@QBE_NXZ ENDP ; std::unique_ptr<void,`anonymous namespace'::handle_closer>::operator bool
_TEXT	ENDS
; Function compile flags: /Odtp /RTCsu
;	COMDAT ?get@?$unique_ptr@XUhandle_closer@?A0xcec58e3e@@@std@@QBEPAXXZ
_TEXT	SEGMENT
_this$ = -4						; size = 4
?get@?$unique_ptr@XUhandle_closer@?A0xcec58e3e@@@std@@QBEPAXXZ PROC ; std::unique_ptr<void,`anonymous namespace'::handle_closer>::get, COMDAT
; _this$ = ecx
; File c:\program files (x86)\microsoft visual studio 12.0\vc\include\memory
; Line 1462
	push	ebp
	mov	ebp, esp
	push	ecx
	mov	DWORD PTR [ebp-4], -858993460		; ccccccccH
	mov	DWORD PTR _this$[ebp], ecx
; Line 1463
	mov	eax, DWORD PTR _this$[ebp]
	mov	eax, DWORD PTR [eax]
; Line 1464
	mov	esp, ebp
	pop	ebp
	ret	0
?get@?$unique_ptr@XUhandle_closer@?A0xcec58e3e@@@std@@QBEPAXXZ ENDP ; std::unique_ptr<void,`anonymous namespace'::handle_closer>::get
_TEXT	ENDS
; Function compile flags: /Odtp /RTCsu
;	COMDAT ??1?$unique_ptr@XUhandle_closer@?A0xcec58e3e@@@std@@QAE@XZ
_TEXT	SEGMENT
_this$ = -4						; size = 4
??1?$unique_ptr@XUhandle_closer@?A0xcec58e3e@@@std@@QAE@XZ PROC ; std::unique_ptr<void,`anonymous namespace'::handle_closer>::~unique_ptr<void,`anonymous namespace'::handle_closer>, COMDAT
; _this$ = ecx
; File c:\program files (x86)\microsoft visual studio 12.0\vc\include\memory
; Line 1446
	push	ebp
	mov	ebp, esp
	push	ecx
	mov	DWORD PTR [ebp-4], -858993460		; ccccccccH
	mov	DWORD PTR _this$[ebp], ecx
; Line 1447
	mov	eax, DWORD PTR _this$[ebp]
	cmp	DWORD PTR [eax], 0
	je	SHORT $LN2@unique_ptr
; Line 1448
	mov	ecx, DWORD PTR _this$[ebp]
	mov	edx, DWORD PTR [ecx]
	push	edx
	mov	ecx, DWORD PTR _this$[ebp]
	call	?get_deleter@?$_Unique_ptr_base@XUhandle_closer@?A0xcec58e3e@@$00@std@@QAEAAUhandle_closer@?A0xcec58e3e@@XZ ; std::_Unique_ptr_base<void,`anonymous namespace'::handle_closer,1>::get_deleter
	mov	ecx, eax
	call	??Rhandle_closer@?A0xcec58e3e@@QAEXPAX@Z ; `anonymous namespace'::handle_closer::operator()
$LN2@unique_ptr:
; Line 1449
	add	esp, 4
	cmp	ebp, esp
	call	__RTC_CheckEsp
	mov	esp, ebp
	pop	ebp
	ret	0
??1?$unique_ptr@XUhandle_closer@?A0xcec58e3e@@@std@@QAE@XZ ENDP ; std::unique_ptr<void,`anonymous namespace'::handle_closer>::~unique_ptr<void,`anonymous namespace'::handle_closer>
_TEXT	ENDS
; Function compile flags: /Odtp /RTCsu
;	COMDAT ??0?$unique_ptr@XUhandle_closer@?A0xcec58e3e@@@std@@QAE@PAX@Z
_TEXT	SEGMENT
_this$ = -4						; size = 4
__Ptr$ = 8						; size = 4
??0?$unique_ptr@XUhandle_closer@?A0xcec58e3e@@@std@@QAE@PAX@Z PROC ; std::unique_ptr<void,`anonymous namespace'::handle_closer>::unique_ptr<void,`anonymous namespace'::handle_closer>, COMDAT
; _this$ = ecx
; File c:\program files (x86)\microsoft visual studio 12.0\vc\include\memory
; Line 1365
	push	ebp
	mov	ebp, esp
	push	ecx
	mov	DWORD PTR [ebp-4], -858993460		; ccccccccH
	mov	DWORD PTR _this$[ebp], ecx
	mov	eax, DWORD PTR __Ptr$[ebp]
	push	eax
	mov	ecx, DWORD PTR _this$[ebp]
	call	??0?$_Unique_ptr_base@XUhandle_closer@?A0xcec58e3e@@$00@std@@QAE@PAX@Z ; std::_Unique_ptr_base<void,`anonymous namespace'::handle_closer,1>::_Unique_ptr_base<void,`anonymous namespace'::handle_closer,1>
; Line 1368
	mov	eax, DWORD PTR _this$[ebp]
	add	esp, 4
	cmp	ebp, esp
	call	__RTC_CheckEsp
	mov	esp, ebp
	pop	ebp
	ret	4
??0?$unique_ptr@XUhandle_closer@?A0xcec58e3e@@@std@@QAE@PAX@Z ENDP ; std::unique_ptr<void,`anonymous namespace'::handle_closer>::unique_ptr<void,`anonymous namespace'::handle_closer>
_TEXT	ENDS
; Function compile flags: /Odtp /RTCsu
;	COMDAT ?get_deleter@?$_Unique_ptr_base@XUhandle_closer@?A0xcec58e3e@@$00@std@@QAEAAUhandle_closer@?A0xcec58e3e@@XZ
_TEXT	SEGMENT
_this$ = -4						; size = 4
?get_deleter@?$_Unique_ptr_base@XUhandle_closer@?A0xcec58e3e@@$00@std@@QAEAAUhandle_closer@?A0xcec58e3e@@XZ PROC ; std::_Unique_ptr_base<void,`anonymous namespace'::handle_closer,1>::get_deleter, COMDAT
; _this$ = ecx
; File c:\program files (x86)\microsoft visual studio 12.0\vc\include\memory
; Line 1312
	push	ebp
	mov	ebp, esp
	push	ecx
	mov	DWORD PTR [ebp-4], -858993460		; ccccccccH
	mov	DWORD PTR _this$[ebp], ecx
; Line 1313
	mov	eax, DWORD PTR _this$[ebp]
; Line 1314
	mov	esp, ebp
	pop	ebp
	ret	0
?get_deleter@?$_Unique_ptr_base@XUhandle_closer@?A0xcec58e3e@@$00@std@@QAEAAUhandle_closer@?A0xcec58e3e@@XZ ENDP ; std::_Unique_ptr_base<void,`anonymous namespace'::handle_closer,1>::get_deleter
_TEXT	ENDS
; Function compile flags: /Odtp /RTCsu
;	COMDAT ??0?$_Unique_ptr_base@XUhandle_closer@?A0xcec58e3e@@$00@std@@QAE@PAX@Z
_TEXT	SEGMENT
_this$ = -4						; size = 4
__Ptr$ = 8						; size = 4
??0?$_Unique_ptr_base@XUhandle_closer@?A0xcec58e3e@@$00@std@@QAE@PAX@Z PROC ; std::_Unique_ptr_base<void,`anonymous namespace'::handle_closer,1>::_Unique_ptr_base<void,`anonymous namespace'::handle_closer,1>, COMDAT
; _this$ = ecx
; File c:\program files (x86)\microsoft visual studio 12.0\vc\include\memory
; Line 1295
	push	ebp
	mov	ebp, esp
	push	ecx
	mov	DWORD PTR [ebp-4], -858993460		; ccccccccH
	mov	DWORD PTR _this$[ebp], ecx
	mov	eax, DWORD PTR _this$[ebp]
	mov	ecx, DWORD PTR __Ptr$[ebp]
	mov	DWORD PTR [eax], ecx
; Line 1296
	mov	eax, DWORD PTR _this$[ebp]
	mov	esp, ebp
	pop	ebp
	ret	4
??0?$_Unique_ptr_base@XUhandle_closer@?A0xcec58e3e@@$00@std@@QAE@PAX@Z ENDP ; std::_Unique_ptr_base<void,`anonymous namespace'::handle_closer,1>::_Unique_ptr_base<void,`anonymous namespace'::handle_closer,1>
_TEXT	ENDS
; Function compile flags: /Odtp /RTCsu
_TEXT	SEGMENT
tv181 = -144						; size = 4
$T1 = -140						; size = 4
$T2 = -136						; size = 4
$T3 = -132						; size = 4
$T4 = -128						; size = 4
$T5 = -124						; size = 4
$T6 = -120						; size = 4
$T7 = -116						; size = 4
$T8 = -112						; size = 4
$T9 = -108						; size = 4
$T10 = -104						; size = 4
$T11 = -100						; size = 4
$T12 = -96						; size = 4
_offset$ = -92						; size = 4
_bDXT10Header$ = -85					; size = 1
_hdr$ = -84						; size = 4
_dwMagicNumber$ = -80					; size = 4
_BytesRead$ = -72					; size = 4
_fileInfo$ = -60					; size = 24
_FileSize$ = -28					; size = 8
_hFile$ = -12						; size = 4
__$ArrayPad$ = -4					; size = 4
_fileName$ = 8						; size = 4
_ddsData$ = 12						; size = 4
_header$ = 16						; size = 4
_bitData$ = 20						; size = 4
_bitSize$ = 24						; size = 4
?LoadTextureDataFromFile@@YAJPB_WAAV?$unique_ptr@$$BY0A@EU?$default_delete@$$BY0A@E@std@@@std@@PAPAUDDS_HEADER@@PAPAEPAI@Z PROC ; LoadTextureDataFromFile
; File d:\engine class\assignment 1\scratch\dxsse\dxut\core\ddstextureloader.cpp
; Line 152
	push	ebp
	mov	ebp, esp
	sub	esp, 144				; 00000090H
	push	esi
	push	edi
	lea	edi, DWORD PTR [ebp-144]
	mov	ecx, 36					; 00000024H
	mov	eax, -858993460				; ccccccccH
	rep stosd
	mov	eax, DWORD PTR ___security_cookie
	xor	eax, ebp
	mov	DWORD PTR __$ArrayPad$[ebp], eax
; Line 153
	cmp	DWORD PTR _header$[ebp], 0
	je	SHORT $LN13@LoadTextur
	cmp	DWORD PTR _bitData$[ebp], 0
	je	SHORT $LN13@LoadTextur
	cmp	DWORD PTR _bitSize$[ebp], 0
	jne	SHORT $LN14@LoadTextur
$LN13@LoadTextur:
; Line 155
	mov	eax, -2147467261			; 80004003H
	jmp	$LN15@LoadTextur
$LN14@LoadTextur:
; Line 172
	mov	esi, esp
	push	0
	push	128					; 00000080H
	push	3
	push	0
	push	1
	push	-2147483648				; 80000000H
	mov	eax, DWORD PTR _fileName$[ebp]
	push	eax
	call	DWORD PTR __imp__CreateFileW@28
	cmp	esi, esp
	call	__RTC_CheckEsp
	push	eax
	call	?safe_handle@?A0xcec58e3e@@YAPAXPAX@Z	; `anonymous namespace'::safe_handle
	add	esp, 4
	push	eax
	lea	ecx, DWORD PTR _hFile$[ebp]
	call	??0?$unique_ptr@XUhandle_closer@?A0xcec58e3e@@@std@@QAE@PAX@Z ; std::unique_ptr<void,`anonymous namespace'::handle_closer>::unique_ptr<void,`anonymous namespace'::handle_closer>
; Line 175
	lea	ecx, DWORD PTR _hFile$[ebp]
	call	??B?$unique_ptr@XUhandle_closer@?A0xcec58e3e@@@std@@QBE_NXZ ; std::unique_ptr<void,`anonymous namespace'::handle_closer>::operator bool
	movzx	ecx, al
	test	ecx, ecx
	jne	SHORT $LN12@LoadTextur
; Line 177
	mov	esi, esp
	call	DWORD PTR __imp__GetLastError@0
	cmp	esi, esp
	call	__RTC_CheckEsp
	push	eax
	call	_HRESULT_FROM_WIN32
	add	esp, 4
	mov	DWORD PTR $T12[ebp], eax
	lea	ecx, DWORD PTR _hFile$[ebp]
	call	??1?$unique_ptr@XUhandle_closer@?A0xcec58e3e@@@std@@QAE@XZ ; std::unique_ptr<void,`anonymous namespace'::handle_closer>::~unique_ptr<void,`anonymous namespace'::handle_closer>
	mov	eax, DWORD PTR $T12[ebp]
	jmp	$LN15@LoadTextur
$LN12@LoadTextur:
; Line 181
	mov	DWORD PTR _FileSize$[ebp], 0
	xor	edx, edx
	mov	DWORD PTR _FileSize$[ebp+4], edx
; Line 185
	mov	esi, esp
	push	24					; 00000018H
	lea	eax, DWORD PTR _fileInfo$[ebp]
	push	eax
	push	1
	lea	ecx, DWORD PTR _hFile$[ebp]
	call	?get@?$unique_ptr@XUhandle_closer@?A0xcec58e3e@@@std@@QBEPAXXZ ; std::unique_ptr<void,`anonymous namespace'::handle_closer>::get
	push	eax
	call	DWORD PTR __imp__GetFileInformationByHandleEx@16
	cmp	esi, esp
	call	__RTC_CheckEsp
	test	eax, eax
	jne	SHORT $LN11@LoadTextur
; Line 187
	mov	esi, esp
	call	DWORD PTR __imp__GetLastError@0
	cmp	esi, esp
	call	__RTC_CheckEsp
	push	eax
	call	_HRESULT_FROM_WIN32
	add	esp, 4
	mov	DWORD PTR $T11[ebp], eax
	lea	ecx, DWORD PTR _hFile$[ebp]
	call	??1?$unique_ptr@XUhandle_closer@?A0xcec58e3e@@@std@@QAE@XZ ; std::unique_ptr<void,`anonymous namespace'::handle_closer>::~unique_ptr<void,`anonymous namespace'::handle_closer>
	mov	eax, DWORD PTR $T11[ebp]
	jmp	$LN15@LoadTextur
$LN11@LoadTextur:
; Line 189
	mov	ecx, DWORD PTR _fileInfo$[ebp+8]
	mov	DWORD PTR _FileSize$[ebp], ecx
	mov	edx, DWORD PTR _fileInfo$[ebp+12]
	mov	DWORD PTR _FileSize$[ebp+4], edx
; Line 195
	cmp	DWORD PTR _FileSize$[ebp+4], 0
	jle	SHORT $LN10@LoadTextur
; Line 197
	mov	DWORD PTR $T10[ebp], -2147467259	; 80004005H
	lea	ecx, DWORD PTR _hFile$[ebp]
	call	??1?$unique_ptr@XUhandle_closer@?A0xcec58e3e@@@std@@QAE@XZ ; std::unique_ptr<void,`anonymous namespace'::handle_closer>::~unique_ptr<void,`anonymous namespace'::handle_closer>
	mov	eax, DWORD PTR $T10[ebp]
	jmp	$LN15@LoadTextur
$LN10@LoadTextur:
; Line 201
	cmp	DWORD PTR _FileSize$[ebp], 128		; 00000080H
	jae	SHORT $LN9@LoadTextur
; Line 203
	mov	DWORD PTR $T9[ebp], -2147467259		; 80004005H
	lea	ecx, DWORD PTR _hFile$[ebp]
	call	??1?$unique_ptr@XUhandle_closer@?A0xcec58e3e@@@std@@QAE@XZ ; std::unique_ptr<void,`anonymous namespace'::handle_closer>::~unique_ptr<void,`anonymous namespace'::handle_closer>
	mov	eax, DWORD PTR $T9[ebp]
	jmp	$LN15@LoadTextur
$LN9@LoadTextur:
; Line 207
	push	OFFSET ?nothrow@std@@3Unothrow_t@1@B	; std::nothrow
	mov	eax, DWORD PTR _FileSize$[ebp]
	push	eax
	call	??_U@YAPAXIABUnothrow_t@std@@@Z		; operator new[]
	add	esp, 8
	mov	DWORD PTR $T8[ebp], eax
	mov	ecx, DWORD PTR $T8[ebp]
	push	ecx
	mov	ecx, DWORD PTR _ddsData$[ebp]
	call	?reset@?$unique_ptr@$$BY0A@EU?$default_delete@$$BY0A@E@std@@@std@@QAEXPAE@Z ; std::unique_ptr<unsigned char [0],std::default_delete<unsigned char [0]> >::reset
; Line 208
	mov	ecx, DWORD PTR _ddsData$[ebp]
	call	??B?$unique_ptr@$$BY0A@EU?$default_delete@$$BY0A@E@std@@@std@@QBE_NXZ ; std::unique_ptr<unsigned char [0],std::default_delete<unsigned char [0]> >::operator bool
	movzx	edx, al
	test	edx, edx
	jne	SHORT $LN8@LoadTextur
; Line 210
	mov	DWORD PTR $T7[ebp], -2147024882		; 8007000eH
	lea	ecx, DWORD PTR _hFile$[ebp]
	call	??1?$unique_ptr@XUhandle_closer@?A0xcec58e3e@@@std@@QAE@XZ ; std::unique_ptr<void,`anonymous namespace'::handle_closer>::~unique_ptr<void,`anonymous namespace'::handle_closer>
	mov	eax, DWORD PTR $T7[ebp]
	jmp	$LN15@LoadTextur
$LN8@LoadTextur:
; Line 214
	mov	DWORD PTR _BytesRead$[ebp], 0
; Line 220
	mov	esi, esp
	push	0
	lea	eax, DWORD PTR _BytesRead$[ebp]
	push	eax
	mov	ecx, DWORD PTR _FileSize$[ebp]
	push	ecx
	mov	ecx, DWORD PTR _ddsData$[ebp]
	call	?get@?$unique_ptr@$$BY0A@EU?$default_delete@$$BY0A@E@std@@@std@@QBEPAEXZ ; std::unique_ptr<unsigned char [0],std::default_delete<unsigned char [0]> >::get
	push	eax
	lea	ecx, DWORD PTR _hFile$[ebp]
	call	?get@?$unique_ptr@XUhandle_closer@?A0xcec58e3e@@@std@@QBEPAXXZ ; std::unique_ptr<void,`anonymous namespace'::handle_closer>::get
	push	eax
	call	DWORD PTR __imp__ReadFile@20
	cmp	esi, esp
	call	__RTC_CheckEsp
	test	eax, eax
	jne	SHORT $LN7@LoadTextur
; Line 222
	mov	esi, esp
	call	DWORD PTR __imp__GetLastError@0
	cmp	esi, esp
	call	__RTC_CheckEsp
	push	eax
	call	_HRESULT_FROM_WIN32
	add	esp, 4
	mov	DWORD PTR $T6[ebp], eax
	lea	ecx, DWORD PTR _hFile$[ebp]
	call	??1?$unique_ptr@XUhandle_closer@?A0xcec58e3e@@@std@@QAE@XZ ; std::unique_ptr<void,`anonymous namespace'::handle_closer>::~unique_ptr<void,`anonymous namespace'::handle_closer>
	mov	eax, DWORD PTR $T6[ebp]
	jmp	$LN15@LoadTextur
$LN7@LoadTextur:
; Line 225
	mov	edx, DWORD PTR _BytesRead$[ebp]
	cmp	edx, DWORD PTR _FileSize$[ebp]
	jae	SHORT $LN6@LoadTextur
; Line 227
	mov	DWORD PTR $T5[ebp], -2147467259		; 80004005H
	lea	ecx, DWORD PTR _hFile$[ebp]
	call	??1?$unique_ptr@XUhandle_closer@?A0xcec58e3e@@@std@@QAE@XZ ; std::unique_ptr<void,`anonymous namespace'::handle_closer>::~unique_ptr<void,`anonymous namespace'::handle_closer>
	mov	eax, DWORD PTR $T5[ebp]
	jmp	$LN15@LoadTextur
$LN6@LoadTextur:
; Line 231
	mov	ecx, DWORD PTR _ddsData$[ebp]
	call	?get@?$unique_ptr@$$BY0A@EU?$default_delete@$$BY0A@E@std@@@std@@QBEPAEXZ ; std::unique_ptr<unsigned char [0],std::default_delete<unsigned char [0]> >::get
	mov	eax, DWORD PTR [eax]
	mov	DWORD PTR _dwMagicNumber$[ebp], eax
; Line 232
	cmp	DWORD PTR _dwMagicNumber$[ebp], 542327876 ; 20534444H
	je	SHORT $LN5@LoadTextur
; Line 234
	mov	DWORD PTR $T4[ebp], -2147467259		; 80004005H
	lea	ecx, DWORD PTR _hFile$[ebp]
	call	??1?$unique_ptr@XUhandle_closer@?A0xcec58e3e@@@std@@QAE@XZ ; std::unique_ptr<void,`anonymous namespace'::handle_closer>::~unique_ptr<void,`anonymous namespace'::handle_closer>
	mov	eax, DWORD PTR $T4[ebp]
	jmp	$LN15@LoadTextur
$LN5@LoadTextur:
; Line 237
	mov	ecx, DWORD PTR _ddsData$[ebp]
	call	?get@?$unique_ptr@$$BY0A@EU?$default_delete@$$BY0A@E@std@@@std@@QBEPAEXZ ; std::unique_ptr<unsigned char [0],std::default_delete<unsigned char [0]> >::get
	add	eax, 4
	mov	DWORD PTR _hdr$[ebp], eax
; Line 241
	mov	ecx, DWORD PTR _hdr$[ebp]
	cmp	DWORD PTR [ecx], 124			; 0000007cH
	jne	SHORT $LN3@LoadTextur
	mov	edx, DWORD PTR _hdr$[ebp]
	cmp	DWORD PTR [edx+72], 32			; 00000020H
	je	SHORT $LN4@LoadTextur
$LN3@LoadTextur:
; Line 243
	mov	DWORD PTR $T3[ebp], -2147467259		; 80004005H
	lea	ecx, DWORD PTR _hFile$[ebp]
	call	??1?$unique_ptr@XUhandle_closer@?A0xcec58e3e@@@std@@QAE@XZ ; std::unique_ptr<void,`anonymous namespace'::handle_closer>::~unique_ptr<void,`anonymous namespace'::handle_closer>
	mov	eax, DWORD PTR $T3[ebp]
	jmp	$LN15@LoadTextur
$LN4@LoadTextur:
; Line 247
	mov	BYTE PTR _bDXT10Header$[ebp], 0
; Line 249
	mov	eax, DWORD PTR _hdr$[ebp]
	mov	ecx, DWORD PTR [eax+76]
	and	ecx, 4
	je	SHORT $LN2@LoadTextur
	mov	edx, DWORD PTR _hdr$[ebp]
	cmp	DWORD PTR [edx+80], 808540228		; 30315844H
	jne	SHORT $LN2@LoadTextur
; Line 252
	cmp	DWORD PTR _FileSize$[ebp], 148		; 00000094H
	jae	SHORT $LN1@LoadTextur
; Line 254
	mov	DWORD PTR $T2[ebp], -2147467259		; 80004005H
	lea	ecx, DWORD PTR _hFile$[ebp]
	call	??1?$unique_ptr@XUhandle_closer@?A0xcec58e3e@@@std@@QAE@XZ ; std::unique_ptr<void,`anonymous namespace'::handle_closer>::~unique_ptr<void,`anonymous namespace'::handle_closer>
	mov	eax, DWORD PTR $T2[ebp]
	jmp	SHORT $LN15@LoadTextur
$LN1@LoadTextur:
; Line 257
	mov	BYTE PTR _bDXT10Header$[ebp], 1
$LN2@LoadTextur:
; Line 261
	mov	eax, DWORD PTR _header$[ebp]
	mov	ecx, DWORD PTR _hdr$[ebp]
	mov	DWORD PTR [eax], ecx
; Line 263
	movzx	edx, BYTE PTR _bDXT10Header$[ebp]
	test	edx, edx
	je	SHORT $LN17@LoadTextur
	mov	DWORD PTR tv181[ebp], 20		; 00000014H
	jmp	SHORT $LN18@LoadTextur
$LN17@LoadTextur:
	mov	DWORD PTR tv181[ebp], 0
$LN18@LoadTextur:
	mov	eax, DWORD PTR tv181[ebp]
	add	eax, 128				; 00000080H
	mov	DWORD PTR _offset$[ebp], eax
; Line 264
	mov	ecx, DWORD PTR _ddsData$[ebp]
	call	?get@?$unique_ptr@$$BY0A@EU?$default_delete@$$BY0A@E@std@@@std@@QBEPAEXZ ; std::unique_ptr<unsigned char [0],std::default_delete<unsigned char [0]> >::get
	add	eax, DWORD PTR _offset$[ebp]
	mov	ecx, DWORD PTR _bitData$[ebp]
	mov	DWORD PTR [ecx], eax
; Line 265
	mov	edx, DWORD PTR _FileSize$[ebp]
	sub	edx, DWORD PTR _offset$[ebp]
	mov	eax, DWORD PTR _bitSize$[ebp]
	mov	DWORD PTR [eax], edx
; Line 267
	mov	DWORD PTR $T1[ebp], 0
	lea	ecx, DWORD PTR _hFile$[ebp]
	call	??1?$unique_ptr@XUhandle_closer@?A0xcec58e3e@@@std@@QAE@XZ ; std::unique_ptr<void,`anonymous namespace'::handle_closer>::~unique_ptr<void,`anonymous namespace'::handle_closer>
	mov	eax, DWORD PTR $T1[ebp]
$LN15@LoadTextur:
; Line 268
	push	edx
	mov	ecx, ebp
	push	eax
	lea	edx, DWORD PTR $LN25@LoadTextur
	call	@_RTC_CheckStackVars@8
	pop	eax
	pop	edx
	pop	edi
	pop	esi
	mov	ecx, DWORD PTR __$ArrayPad$[ebp]
	xor	ecx, ebp
	call	@__security_check_cookie@4
	add	esp, 144				; 00000090H
	cmp	ebp, esp
	call	__RTC_CheckEsp
	mov	esp, ebp
	pop	ebp
	ret	0
	npad	2
$LN25@LoadTextur:
	DD	4
	DD	$LN24@LoadTextur
$LN24@LoadTextur:
	DD	-12					; fffffff4H
	DD	4
	DD	$LN20@LoadTextur
	DD	-28					; ffffffe4H
	DD	8
	DD	$LN21@LoadTextur
	DD	-60					; ffffffc4H
	DD	24					; 00000018H
	DD	$LN22@LoadTextur
	DD	-72					; ffffffb8H
	DD	4
	DD	$LN23@LoadTextur
$LN23@LoadTextur:
	DB	66					; 00000042H
	DB	121					; 00000079H
	DB	116					; 00000074H
	DB	101					; 00000065H
	DB	115					; 00000073H
	DB	82					; 00000052H
	DB	101					; 00000065H
	DB	97					; 00000061H
	DB	100					; 00000064H
	DB	0
$LN22@LoadTextur:
	DB	102					; 00000066H
	DB	105					; 00000069H
	DB	108					; 0000006cH
	DB	101					; 00000065H
	DB	73					; 00000049H
	DB	110					; 0000006eH
	DB	102					; 00000066H
	DB	111					; 0000006fH
	DB	0
$LN21@LoadTextur:
	DB	70					; 00000046H
	DB	105					; 00000069H
	DB	108					; 0000006cH
	DB	101					; 00000065H
	DB	83					; 00000053H
	DB	105					; 00000069H
	DB	122					; 0000007aH
	DB	101					; 00000065H
	DB	0
$LN20@LoadTextur:
	DB	104					; 00000068H
	DB	70					; 00000046H
	DB	105					; 00000069H
	DB	108					; 0000006cH
	DB	101					; 00000065H
	DB	0
?LoadTextureDataFromFile@@YAJPB_WAAV?$unique_ptr@$$BY0A@EU?$default_delete@$$BY0A@E@std@@@std@@PAPAUDDS_HEADER@@PAPAEPAI@Z ENDP ; LoadTextureDataFromFile
_TEXT	ENDS
; Function compile flags: /Odtp /RTCsu
;	COMDAT ?safe_handle@?A0xcec58e3e@@YAPAXPAX@Z
_TEXT	SEGMENT
tv65 = -4						; size = 4
_h$ = 8							; size = 4
?safe_handle@?A0xcec58e3e@@YAPAXPAX@Z PROC		; `anonymous namespace'::safe_handle, COMDAT
; File d:\engine class\assignment 1\scratch\dxsse\dxut\core\ddstextureloader.cpp
; Line 130
	push	ebp
	mov	ebp, esp
	push	ecx
	mov	DWORD PTR [ebp-4], -858993460		; ccccccccH
	cmp	DWORD PTR _h$[ebp], -1
	jne	SHORT $LN3@safe_handl
	mov	DWORD PTR tv65[ebp], 0
	jmp	SHORT $LN4@safe_handl
$LN3@safe_handl:
	mov	eax, DWORD PTR _h$[ebp]
	mov	DWORD PTR tv65[ebp], eax
$LN4@safe_handl:
	mov	eax, DWORD PTR tv65[ebp]
	mov	esp, ebp
	pop	ebp
	ret	0
?safe_handle@?A0xcec58e3e@@YAPAXPAX@Z ENDP		; `anonymous namespace'::safe_handle
_TEXT	ENDS
; Function compile flags: /Odtp /RTCsu
;	COMDAT ??Rhandle_closer@?A0xcec58e3e@@QAEXPAX@Z
_TEXT	SEGMENT
_this$ = -4						; size = 4
_h$ = 8							; size = 4
??Rhandle_closer@?A0xcec58e3e@@QAEXPAX@Z PROC		; `anonymous namespace'::handle_closer::operator(), COMDAT
; _this$ = ecx
; File d:\engine class\assignment 1\scratch\dxsse\dxut\core\ddstextureloader.cpp
; Line 126
	push	ebp
	mov	ebp, esp
	push	ecx
	push	esi
	mov	DWORD PTR [ebp-4], -858993460		; ccccccccH
	mov	DWORD PTR _this$[ebp], ecx
	cmp	DWORD PTR _h$[ebp], 0
	je	SHORT $LN2@operator
	mov	esi, esp
	mov	eax, DWORD PTR _h$[ebp]
	push	eax
	call	DWORD PTR __imp__CloseHandle@4
	cmp	esi, esp
	call	__RTC_CheckEsp
$LN2@operator:
	pop	esi
	add	esp, 4
	cmp	ebp, esp
	call	__RTC_CheckEsp
	mov	esp, ebp
	pop	ebp
	ret	4
??Rhandle_closer@?A0xcec58e3e@@QAEXPAX@Z ENDP		; `anonymous namespace'::handle_closer::operator()
_TEXT	ENDS
; Function compile flags: /Odtp /RTCsu
_TEXT	SEGMENT
$T2 = -352						; size = 4
$T3 = -348						; size = 4
_pstrName$4 = -344					; size = 4
_result$5 = -340					; size = 4
_strFileA$6 = -332					; size = 260
_hr$ = -68						; size = 4
_ddsData$ = -60						; size = 4
_bitSize$ = -48						; size = 4
_bitData$ = -36						; size = 4
_header$ = -24						; size = 4
__$ArrayPad$ = -16					; size = 4
__$EHRec$ = -12						; size = 12
_d3dDevice$ = 8						; size = 4
_d3dContext$ = 12					; size = 4
_fileName$ = 16						; size = 4
_maxsize$ = 20						; size = 4
_usage$ = 24						; size = 4
_bindFlags$ = 28					; size = 4
_cpuAccessFlags$ = 32					; size = 4
_miscFlags$ = 36					; size = 4
_forceSRGB$ = 40					; size = 1
_texture$ = 44						; size = 4
_textureView$ = 48					; size = 4
_alphaMode$ = 52					; size = 4
?CreateDDSTextureFromFileEx@DirectX@@YAJPAUID3D11Device@@PAUID3D11DeviceContext@@PB_WIW4D3D11_USAGE@@III_NPAPAUID3D11Resource@@PAPAUID3D11ShaderResourceView@@PAW4DDS_ALPHA_MODE@1@@Z PROC ; DirectX::CreateDDSTextureFromFileEx
; File d:\engine class\assignment 1\scratch\dxsse\dxut\core\ddstextureloader.cpp
; Line 1737
	push	ebp
	mov	ebp, esp
	push	-1
	push	__ehhandler$?CreateDDSTextureFromFileEx@DirectX@@YAJPAUID3D11Device@@PAUID3D11DeviceContext@@PB_WIW4D3D11_USAGE@@III_NPAPAUID3D11Resource@@PAPAUID3D11ShaderResourceView@@PAW4DDS_ALPHA_MODE@1@@Z
	mov	eax, DWORD PTR fs:0
	push	eax
	sub	esp, 340				; 00000154H
	push	esi
	push	edi
	lea	edi, DWORD PTR [ebp-352]
	mov	ecx, 85					; 00000055H
	mov	eax, -858993460				; ccccccccH
	rep stosd
	mov	eax, DWORD PTR ___security_cookie
	xor	eax, ebp
	mov	DWORD PTR __$ArrayPad$[ebp], eax
	push	eax
	lea	eax, DWORD PTR __$EHRec$[ebp]
	mov	DWORD PTR fs:0, eax
; Line 1738
	cmp	DWORD PTR _texture$[ebp], 0
	je	SHORT $LN15@CreateDDST
; Line 1740
	mov	eax, DWORD PTR _texture$[ebp]
	mov	DWORD PTR [eax], 0
$LN15@CreateDDST:
; Line 1742
	cmp	DWORD PTR _textureView$[ebp], 0
	je	SHORT $LN14@CreateDDST
; Line 1744
	mov	ecx, DWORD PTR _textureView$[ebp]
	mov	DWORD PTR [ecx], 0
$LN14@CreateDDST:
; Line 1746
	cmp	DWORD PTR _alphaMode$[ebp], 0
	je	SHORT $LN13@CreateDDST
; Line 1748
	mov	edx, DWORD PTR _alphaMode$[ebp]
	mov	DWORD PTR [edx], 0
$LN13@CreateDDST:
; Line 1751
	cmp	DWORD PTR _d3dDevice$[ebp], 0
	je	SHORT $LN11@CreateDDST
	cmp	DWORD PTR _fileName$[ebp], 0
	je	SHORT $LN11@CreateDDST
	cmp	DWORD PTR _texture$[ebp], 0
	jne	SHORT $LN12@CreateDDST
	cmp	DWORD PTR _textureView$[ebp], 0
	jne	SHORT $LN12@CreateDDST
$LN11@CreateDDST:
; Line 1753
	mov	eax, -2147024809			; 80070057H
	jmp	$LN16@CreateDDST
$LN12@CreateDDST:
; Line 1756
	mov	DWORD PTR _header$[ebp], 0
; Line 1757
	mov	DWORD PTR _bitData$[ebp], 0
; Line 1758
	mov	DWORD PTR _bitSize$[ebp], 0
; Line 1760
	lea	ecx, DWORD PTR _ddsData$[ebp]
	call	??0?$unique_ptr@$$BY0A@EU?$default_delete@$$BY0A@E@std@@@std@@QAE@XZ ; std::unique_ptr<unsigned char [0],std::default_delete<unsigned char [0]> >::unique_ptr<unsigned char [0],std::default_delete<unsigned char [0]> >
	mov	DWORD PTR __$EHRec$[ebp+8], 0
; Line 1766
	lea	eax, DWORD PTR _bitSize$[ebp]
	push	eax
	lea	ecx, DWORD PTR _bitData$[ebp]
	push	ecx
	lea	edx, DWORD PTR _header$[ebp]
	push	edx
	lea	eax, DWORD PTR _ddsData$[ebp]
	push	eax
	mov	ecx, DWORD PTR _fileName$[ebp]
	push	ecx
	call	?LoadTextureDataFromFile@@YAJPB_WAAV?$unique_ptr@$$BY0A@EU?$default_delete@$$BY0A@E@std@@@std@@PAPAUDDS_HEADER@@PAPAEPAI@Z ; LoadTextureDataFromFile
	add	esp, 20					; 00000014H
	mov	DWORD PTR _hr$[ebp], eax
; Line 1767
	cmp	DWORD PTR _hr$[ebp], 0
	jge	SHORT $LN10@CreateDDST
; Line 1769
	mov	edx, DWORD PTR _hr$[ebp]
	mov	DWORD PTR $T3[ebp], edx
	mov	DWORD PTR __$EHRec$[ebp+8], -1
	lea	ecx, DWORD PTR _ddsData$[ebp]
	call	??1?$unique_ptr@$$BY0A@EU?$default_delete@$$BY0A@E@std@@@std@@QAE@XZ ; std::unique_ptr<unsigned char [0],std::default_delete<unsigned char [0]> >::~unique_ptr<unsigned char [0],std::default_delete<unsigned char [0]> >
	mov	eax, DWORD PTR $T3[ebp]
	jmp	$LN16@CreateDDST
$LN10@CreateDDST:
; Line 1775
	mov	eax, DWORD PTR _textureView$[ebp]
	push	eax
	mov	ecx, DWORD PTR _texture$[ebp]
	push	ecx
	movzx	edx, BYTE PTR _forceSRGB$[ebp]
	push	edx
	mov	eax, DWORD PTR _miscFlags$[ebp]
	push	eax
	mov	ecx, DWORD PTR _cpuAccessFlags$[ebp]
	push	ecx
	mov	edx, DWORD PTR _bindFlags$[ebp]
	push	edx
	mov	eax, DWORD PTR _usage$[ebp]
	push	eax
	mov	ecx, DWORD PTR _maxsize$[ebp]
	push	ecx
	mov	edx, DWORD PTR _bitSize$[ebp]
	push	edx
	mov	eax, DWORD PTR _bitData$[ebp]
	push	eax
	mov	ecx, DWORD PTR _header$[ebp]
	push	ecx
	mov	edx, DWORD PTR _d3dContext$[ebp]
	push	edx
	mov	eax, DWORD PTR _d3dDevice$[ebp]
	push	eax
	call	?CreateTextureFromDDS@@YAJPAUID3D11Device@@PAUID3D11DeviceContext@@PBUDDS_HEADER@@PBEIIW4D3D11_USAGE@@III_NPAPAUID3D11Resource@@PAPAUID3D11ShaderResourceView@@@Z ; CreateTextureFromDDS
	add	esp, 52					; 00000034H
	mov	DWORD PTR _hr$[ebp], eax
; Line 1777
	cmp	DWORD PTR _hr$[ebp], 0
	jl	$LN9@CreateDDST
; Line 1780
	cmp	DWORD PTR _texture$[ebp], 0
	jne	SHORT $LN7@CreateDDST
	cmp	DWORD PTR _textureView$[ebp], 0
	je	$LN8@CreateDDST
$LN7@CreateDDST:
; Line 1791
	mov	esi, esp
	push	0
	push	0
	push	260					; 00000104H
	lea	ecx, DWORD PTR _strFileA$6[ebp]
	push	ecx
	push	-1
	mov	edx, DWORD PTR _fileName$[ebp]
	push	edx
	push	1024					; 00000400H
	push	0
	call	DWORD PTR __imp__WideCharToMultiByte@32
	cmp	esi, esp
	call	__RTC_CheckEsp
	mov	DWORD PTR _result$5[ebp], eax
; Line 1792
	cmp	DWORD PTR _result$5[ebp], 0
	jle	$LN8@CreateDDST
; Line 1794
	push	92					; 0000005cH
	lea	eax, DWORD PTR _strFileA$6[ebp]
	push	eax
	call	?strrchr@@YAPADPADH@Z			; strrchr
	add	esp, 8
	mov	DWORD PTR _pstrName$4[ebp], eax
; Line 1795
	cmp	DWORD PTR _pstrName$4[ebp], 0
	jne	SHORT $LN5@CreateDDST
; Line 1797
	lea	ecx, DWORD PTR _strFileA$6[ebp]
	mov	DWORD PTR _pstrName$4[ebp], ecx
; Line 1799
	jmp	SHORT $LN4@CreateDDST
$LN5@CreateDDST:
; Line 1801
	mov	edx, DWORD PTR _pstrName$4[ebp]
	add	edx, 1
	mov	DWORD PTR _pstrName$4[ebp], edx
$LN4@CreateDDST:
; Line 1804
	cmp	DWORD PTR _texture$[ebp], 0
	je	SHORT $LN3@CreateDDST
	mov	eax, DWORD PTR _texture$[ebp]
	cmp	DWORD PTR [eax], 0
	je	SHORT $LN3@CreateDDST
; Line 1809
	mov	esi, esp
	mov	ecx, DWORD PTR _pstrName$4[ebp]
	push	ecx
	push	260					; 00000104H
	mov	edx, DWORD PTR _pstrName$4[ebp]
	push	edx
	call	_strnlen_s
	add	esp, 8
	push	eax
	push	OFFSET _WKPDID_D3DDebugObjectName
	mov	eax, DWORD PTR _texture$[ebp]
	mov	ecx, DWORD PTR [eax]
	mov	edx, DWORD PTR _texture$[ebp]
	mov	eax, DWORD PTR [edx]
	mov	ecx, DWORD PTR [ecx]
	push	eax
	mov	edx, DWORD PTR [ecx+20]
	call	edx
	cmp	esi, esp
	call	__RTC_CheckEsp
$LN3@CreateDDST:
; Line 1812
	cmp	DWORD PTR _textureView$[ebp], 0
	je	SHORT $LN8@CreateDDST
	mov	eax, DWORD PTR _textureView$[ebp]
	cmp	DWORD PTR [eax], 0
	je	SHORT $LN8@CreateDDST
; Line 1817
	mov	esi, esp
	mov	ecx, DWORD PTR _pstrName$4[ebp]
	push	ecx
	push	260					; 00000104H
	mov	edx, DWORD PTR _pstrName$4[ebp]
	push	edx
	call	_strnlen_s
	add	esp, 8
	push	eax
	push	OFFSET _WKPDID_D3DDebugObjectName
	mov	eax, DWORD PTR _textureView$[ebp]
	mov	ecx, DWORD PTR [eax]
	mov	edx, DWORD PTR _textureView$[ebp]
	mov	eax, DWORD PTR [edx]
	mov	ecx, DWORD PTR [ecx]
	push	eax
	mov	edx, DWORD PTR [ecx+20]
	call	edx
	cmp	esi, esp
	call	__RTC_CheckEsp
$LN8@CreateDDST:
; Line 1823
	cmp	DWORD PTR _alphaMode$[ebp], 0
	je	SHORT $LN9@CreateDDST
; Line 1824
	mov	eax, DWORD PTR _header$[ebp]
	push	eax
	call	?GetAlphaMode@@YA?AW4DDS_ALPHA_MODE@DirectX@@PBUDDS_HEADER@@@Z ; GetAlphaMode
	add	esp, 4
	mov	ecx, DWORD PTR _alphaMode$[ebp]
	mov	DWORD PTR [ecx], eax
$LN9@CreateDDST:
; Line 1827
	mov	edx, DWORD PTR _hr$[ebp]
	mov	DWORD PTR $T2[ebp], edx
	mov	DWORD PTR __$EHRec$[ebp+8], -1
	lea	ecx, DWORD PTR _ddsData$[ebp]
	call	??1?$unique_ptr@$$BY0A@EU?$default_delete@$$BY0A@E@std@@@std@@QAE@XZ ; std::unique_ptr<unsigned char [0],std::default_delete<unsigned char [0]> >::~unique_ptr<unsigned char [0],std::default_delete<unsigned char [0]> >
	mov	eax, DWORD PTR $T2[ebp]
$LN16@CreateDDST:
; Line 1828
	push	edx
	mov	ecx, ebp
	push	eax
	lea	edx, DWORD PTR $LN26@CreateDDST
	call	@_RTC_CheckStackVars@8
	pop	eax
	pop	edx
	mov	ecx, DWORD PTR __$EHRec$[ebp]
	mov	DWORD PTR fs:0, ecx
	pop	ecx
	pop	edi
	pop	esi
	mov	ecx, DWORD PTR __$ArrayPad$[ebp]
	xor	ecx, ebp
	call	@__security_check_cookie@4
	add	esp, 352				; 00000160H
	cmp	ebp, esp
	call	__RTC_CheckEsp
	mov	esp, ebp
	pop	ebp
	ret	0
	npad	2
$LN26@CreateDDST:
	DD	5
	DD	$LN25@CreateDDST
$LN25@CreateDDST:
	DD	-24					; ffffffe8H
	DD	4
	DD	$LN19@CreateDDST
	DD	-36					; ffffffdcH
	DD	4
	DD	$LN20@CreateDDST
	DD	-48					; ffffffd0H
	DD	4
	DD	$LN21@CreateDDST
	DD	-60					; ffffffc4H
	DD	4
	DD	$LN22@CreateDDST
	DD	-332					; fffffeb4H
	DD	260					; 00000104H
	DD	$LN23@CreateDDST
$LN23@CreateDDST:
	DB	115					; 00000073H
	DB	116					; 00000074H
	DB	114					; 00000072H
	DB	70					; 00000046H
	DB	105					; 00000069H
	DB	108					; 0000006cH
	DB	101					; 00000065H
	DB	65					; 00000041H
	DB	0
$LN22@CreateDDST:
	DB	100					; 00000064H
	DB	100					; 00000064H
	DB	115					; 00000073H
	DB	68					; 00000044H
	DB	97					; 00000061H
	DB	116					; 00000074H
	DB	97					; 00000061H
	DB	0
$LN21@CreateDDST:
	DB	98					; 00000062H
	DB	105					; 00000069H
	DB	116					; 00000074H
	DB	83					; 00000053H
	DB	105					; 00000069H
	DB	122					; 0000007aH
	DB	101					; 00000065H
	DB	0
$LN20@CreateDDST:
	DB	98					; 00000062H
	DB	105					; 00000069H
	DB	116					; 00000074H
	DB	68					; 00000044H
	DB	97					; 00000061H
	DB	116					; 00000074H
	DB	97					; 00000061H
	DB	0
$LN19@CreateDDST:
	DB	104					; 00000068H
	DB	101					; 00000065H
	DB	97					; 00000061H
	DB	100					; 00000064H
	DB	101					; 00000065H
	DB	114					; 00000072H
	DB	0
_TEXT	ENDS
text$x	SEGMENT
__unwindfunclet$?CreateDDSTextureFromFileEx@DirectX@@YAJPAUID3D11Device@@PAUID3D11DeviceContext@@PB_WIW4D3D11_USAGE@@III_NPAPAUID3D11Resource@@PAPAUID3D11ShaderResourceView@@PAW4DDS_ALPHA_MODE@1@@Z$0:
	lea	ecx, DWORD PTR _ddsData$[ebp]
	jmp	??1?$unique_ptr@$$BY0A@EU?$default_delete@$$BY0A@E@std@@@std@@QAE@XZ ; std::unique_ptr<unsigned char [0],std::default_delete<unsigned char [0]> >::~unique_ptr<unsigned char [0],std::default_delete<unsigned char [0]> >
__ehhandler$?CreateDDSTextureFromFileEx@DirectX@@YAJPAUID3D11Device@@PAUID3D11DeviceContext@@PB_WIW4D3D11_USAGE@@III_NPAPAUID3D11Resource@@PAPAUID3D11ShaderResourceView@@PAW4DDS_ALPHA_MODE@1@@Z:
	mov	edx, DWORD PTR [esp+8]
	lea	eax, DWORD PTR [edx+12]
	mov	ecx, DWORD PTR [edx-352]
	xor	ecx, eax
	call	@__security_check_cookie@4
	mov	ecx, DWORD PTR [edx-4]
	xor	ecx, eax
	call	@__security_check_cookie@4
	mov	eax, OFFSET __ehfuncinfo$?CreateDDSTextureFromFileEx@DirectX@@YAJPAUID3D11Device@@PAUID3D11DeviceContext@@PB_WIW4D3D11_USAGE@@III_NPAPAUID3D11Resource@@PAPAUID3D11ShaderResourceView@@PAW4DDS_ALPHA_MODE@1@@Z
	jmp	___CxxFrameHandler3
text$x	ENDS
?CreateDDSTextureFromFileEx@DirectX@@YAJPAUID3D11Device@@PAUID3D11DeviceContext@@PB_WIW4D3D11_USAGE@@III_NPAPAUID3D11Resource@@PAPAUID3D11ShaderResourceView@@PAW4DDS_ALPHA_MODE@1@@Z ENDP ; DirectX::CreateDDSTextureFromFileEx
; Function compile flags: /Odtp /RTCsu
_TEXT	SEGMENT
tv89 = -24						; size = 4
_hr$ = -20						; size = 4
_offset$ = -16						; size = 4
_bDXT10Header$ = -9					; size = 1
_header$ = -8						; size = 4
_dwMagicNumber$ = -4					; size = 4
_d3dDevice$ = 8						; size = 4
_d3dContext$ = 12					; size = 4
_ddsData$ = 16						; size = 4
_ddsDataSize$ = 20					; size = 4
_maxsize$ = 24						; size = 4
_usage$ = 28						; size = 4
_bindFlags$ = 32					; size = 4
_cpuAccessFlags$ = 36					; size = 4
_miscFlags$ = 40					; size = 4
_forceSRGB$ = 44					; size = 1
_texture$ = 48						; size = 4
_textureView$ = 52					; size = 4
_alphaMode$ = 56					; size = 4
?CreateDDSTextureFromMemoryEx@DirectX@@YAJPAUID3D11Device@@PAUID3D11DeviceContext@@PBEIIW4D3D11_USAGE@@III_NPAPAUID3D11Resource@@PAPAUID3D11ShaderResourceView@@PAW4DDS_ALPHA_MODE@1@@Z PROC ; DirectX::CreateDDSTextureFromMemoryEx
; File d:\engine class\assignment 1\scratch\dxsse\dxut\core\ddstextureloader.cpp
; Line 1597
	push	ebp
	mov	ebp, esp
	sub	esp, 24					; 00000018H
	mov	eax, -858993460				; ccccccccH
	mov	DWORD PTR [ebp-24], eax
	mov	DWORD PTR [ebp-20], eax
	mov	DWORD PTR [ebp-16], eax
	mov	DWORD PTR [ebp-12], eax
	mov	DWORD PTR [ebp-8], eax
	mov	DWORD PTR [ebp-4], eax
; Line 1598
	cmp	DWORD PTR _texture$[ebp], 0
	je	SHORT $LN15@CreateDDST
; Line 1600
	mov	eax, DWORD PTR _texture$[ebp]
	mov	DWORD PTR [eax], 0
$LN15@CreateDDST:
; Line 1602
	cmp	DWORD PTR _textureView$[ebp], 0
	je	SHORT $LN14@CreateDDST
; Line 1604
	mov	ecx, DWORD PTR _textureView$[ebp]
	mov	DWORD PTR [ecx], 0
$LN14@CreateDDST:
; Line 1606
	cmp	DWORD PTR _alphaMode$[ebp], 0
	je	SHORT $LN13@CreateDDST
; Line 1608
	mov	edx, DWORD PTR _alphaMode$[ebp]
	mov	DWORD PTR [edx], 0
$LN13@CreateDDST:
; Line 1611
	cmp	DWORD PTR _d3dDevice$[ebp], 0
	je	SHORT $LN11@CreateDDST
	cmp	DWORD PTR _ddsData$[ebp], 0
	je	SHORT $LN11@CreateDDST
	cmp	DWORD PTR _texture$[ebp], 0
	jne	SHORT $LN12@CreateDDST
	cmp	DWORD PTR _textureView$[ebp], 0
	jne	SHORT $LN12@CreateDDST
$LN11@CreateDDST:
; Line 1613
	mov	eax, -2147024809			; 80070057H
	jmp	$LN16@CreateDDST
$LN12@CreateDDST:
; Line 1617
	cmp	DWORD PTR _ddsDataSize$[ebp], 128	; 00000080H
	jae	SHORT $LN10@CreateDDST
; Line 1619
	mov	eax, -2147467259			; 80004005H
	jmp	$LN16@CreateDDST
$LN10@CreateDDST:
; Line 1622
	mov	eax, DWORD PTR _ddsData$[ebp]
	mov	ecx, DWORD PTR [eax]
	mov	DWORD PTR _dwMagicNumber$[ebp], ecx
; Line 1623
	cmp	DWORD PTR _dwMagicNumber$[ebp], 542327876 ; 20534444H
	je	SHORT $LN9@CreateDDST
; Line 1625
	mov	eax, -2147467259			; 80004005H
	jmp	$LN16@CreateDDST
$LN9@CreateDDST:
; Line 1628
	mov	edx, DWORD PTR _ddsData$[ebp]
	add	edx, 4
	mov	DWORD PTR _header$[ebp], edx
; Line 1632
	mov	eax, DWORD PTR _header$[ebp]
	cmp	DWORD PTR [eax], 124			; 0000007cH
	jne	SHORT $LN7@CreateDDST
	mov	ecx, DWORD PTR _header$[ebp]
	cmp	DWORD PTR [ecx+72], 32			; 00000020H
	je	SHORT $LN8@CreateDDST
$LN7@CreateDDST:
; Line 1634
	mov	eax, -2147467259			; 80004005H
	jmp	$LN16@CreateDDST
$LN8@CreateDDST:
; Line 1638
	mov	BYTE PTR _bDXT10Header$[ebp], 0
; Line 1640
	mov	edx, DWORD PTR _header$[ebp]
	mov	eax, DWORD PTR [edx+76]
	and	eax, 4
	je	SHORT $LN6@CreateDDST
	mov	ecx, DWORD PTR _header$[ebp]
	cmp	DWORD PTR [ecx+80], 808540228		; 30315844H
	jne	SHORT $LN6@CreateDDST
; Line 1643
	cmp	DWORD PTR _ddsDataSize$[ebp], 148	; 00000094H
	jae	SHORT $LN5@CreateDDST
; Line 1645
	mov	eax, -2147467259			; 80004005H
	jmp	$LN16@CreateDDST
$LN5@CreateDDST:
; Line 1648
	mov	BYTE PTR _bDXT10Header$[ebp], 1
$LN6@CreateDDST:
; Line 1653
	movzx	edx, BYTE PTR _bDXT10Header$[ebp]
	test	edx, edx
	je	SHORT $LN18@CreateDDST
	mov	DWORD PTR tv89[ebp], 20			; 00000014H
	jmp	SHORT $LN19@CreateDDST
$LN18@CreateDDST:
	mov	DWORD PTR tv89[ebp], 0
$LN19@CreateDDST:
	mov	eax, DWORD PTR tv89[ebp]
	add	eax, 128				; 00000080H
	mov	DWORD PTR _offset$[ebp], eax
; Line 1658
	mov	ecx, DWORD PTR _textureView$[ebp]
	push	ecx
	mov	edx, DWORD PTR _texture$[ebp]
	push	edx
	movzx	eax, BYTE PTR _forceSRGB$[ebp]
	push	eax
	mov	ecx, DWORD PTR _miscFlags$[ebp]
	push	ecx
	mov	edx, DWORD PTR _cpuAccessFlags$[ebp]
	push	edx
	mov	eax, DWORD PTR _bindFlags$[ebp]
	push	eax
	mov	ecx, DWORD PTR _usage$[ebp]
	push	ecx
	mov	edx, DWORD PTR _maxsize$[ebp]
	push	edx
	mov	eax, DWORD PTR _ddsDataSize$[ebp]
	sub	eax, DWORD PTR _offset$[ebp]
	push	eax
	mov	ecx, DWORD PTR _ddsData$[ebp]
	add	ecx, DWORD PTR _offset$[ebp]
	push	ecx
	mov	edx, DWORD PTR _header$[ebp]
	push	edx
	mov	eax, DWORD PTR _d3dContext$[ebp]
	push	eax
	mov	ecx, DWORD PTR _d3dDevice$[ebp]
	push	ecx
	call	?CreateTextureFromDDS@@YAJPAUID3D11Device@@PAUID3D11DeviceContext@@PBUDDS_HEADER@@PBEIIW4D3D11_USAGE@@III_NPAPAUID3D11Resource@@PAPAUID3D11ShaderResourceView@@@Z ; CreateTextureFromDDS
	add	esp, 52					; 00000034H
	mov	DWORD PTR _hr$[ebp], eax
; Line 1659
	cmp	DWORD PTR _hr$[ebp], 0
	jl	SHORT $LN4@CreateDDST
; Line 1661
	cmp	DWORD PTR _texture$[ebp], 0
	je	SHORT $LN3@CreateDDST
	mov	edx, DWORD PTR _texture$[ebp]
	cmp	DWORD PTR [edx], 0
	je	SHORT $LN3@CreateDDST
; Line 1663
	push	OFFSET $SG150434
	mov	eax, DWORD PTR _texture$[ebp]
	mov	ecx, DWORD PTR [eax]
	push	ecx
	call	??$SetDebugObjectName@$0BB@@?A0xcec58e3e@@YAXPAUID3D11DeviceChild@@AAY0BB@$$CBD@Z ; `anonymous namespace'::SetDebugObjectName<17>
	add	esp, 8
$LN3@CreateDDST:
; Line 1666
	cmp	DWORD PTR _textureView$[ebp], 0
	je	SHORT $LN2@CreateDDST
	mov	edx, DWORD PTR _textureView$[ebp]
	cmp	DWORD PTR [edx], 0
	je	SHORT $LN2@CreateDDST
; Line 1668
	push	OFFSET $SG150436
	mov	eax, DWORD PTR _textureView$[ebp]
	mov	ecx, DWORD PTR [eax]
	push	ecx
	call	??$SetDebugObjectName@$0BB@@?A0xcec58e3e@@YAXPAUID3D11DeviceChild@@AAY0BB@$$CBD@Z ; `anonymous namespace'::SetDebugObjectName<17>
	add	esp, 8
$LN2@CreateDDST:
; Line 1671
	cmp	DWORD PTR _alphaMode$[ebp], 0
	je	SHORT $LN4@CreateDDST
; Line 1672
	mov	edx, DWORD PTR _header$[ebp]
	push	edx
	call	?GetAlphaMode@@YA?AW4DDS_ALPHA_MODE@DirectX@@PBUDDS_HEADER@@@Z ; GetAlphaMode
	add	esp, 4
	mov	ecx, DWORD PTR _alphaMode$[ebp]
	mov	DWORD PTR [ecx], eax
$LN4@CreateDDST:
; Line 1675
	mov	eax, DWORD PTR _hr$[ebp]
$LN16@CreateDDST:
; Line 1676
	add	esp, 24					; 00000018H
	cmp	ebp, esp
	call	__RTC_CheckEsp
	mov	esp, ebp
	pop	ebp
	ret	0
?CreateDDSTextureFromMemoryEx@DirectX@@YAJPAUID3D11Device@@PAUID3D11DeviceContext@@PBEIIW4D3D11_USAGE@@III_NPAPAUID3D11Resource@@PAPAUID3D11ShaderResourceView@@PAW4DDS_ALPHA_MODE@1@@Z ENDP ; DirectX::CreateDDSTextureFromMemoryEx
_TEXT	ENDS
; Function compile flags: /Odtp /RTCsu
_TEXT	SEGMENT
_d3dDevice$ = 8						; size = 4
_fileName$ = 12						; size = 4
_maxsize$ = 16						; size = 4
_usage$ = 20						; size = 4
_bindFlags$ = 24					; size = 4
_cpuAccessFlags$ = 28					; size = 4
_miscFlags$ = 32					; size = 4
_forceSRGB$ = 36					; size = 1
_texture$ = 40						; size = 4
_textureView$ = 44					; size = 4
_alphaMode$ = 48					; size = 4
?CreateDDSTextureFromFileEx@DirectX@@YAJPAUID3D11Device@@PB_WIW4D3D11_USAGE@@III_NPAPAUID3D11Resource@@PAPAUID3D11ShaderResourceView@@PAW4DDS_ALPHA_MODE@1@@Z PROC ; DirectX::CreateDDSTextureFromFileEx
; File d:\engine class\assignment 1\scratch\dxsse\dxut\core\ddstextureloader.cpp
; Line 1718
	push	ebp
	mov	ebp, esp
; Line 1721
	mov	eax, DWORD PTR _alphaMode$[ebp]
	push	eax
	mov	ecx, DWORD PTR _textureView$[ebp]
	push	ecx
	mov	edx, DWORD PTR _texture$[ebp]
	push	edx
	movzx	eax, BYTE PTR _forceSRGB$[ebp]
	push	eax
	mov	ecx, DWORD PTR _miscFlags$[ebp]
	push	ecx
	mov	edx, DWORD PTR _cpuAccessFlags$[ebp]
	push	edx
	mov	eax, DWORD PTR _bindFlags$[ebp]
	push	eax
	mov	ecx, DWORD PTR _usage$[ebp]
	push	ecx
	mov	edx, DWORD PTR _maxsize$[ebp]
	push	edx
	mov	eax, DWORD PTR _fileName$[ebp]
	push	eax
	push	0
	mov	ecx, DWORD PTR _d3dDevice$[ebp]
	push	ecx
	call	?CreateDDSTextureFromFileEx@DirectX@@YAJPAUID3D11Device@@PAUID3D11DeviceContext@@PB_WIW4D3D11_USAGE@@III_NPAPAUID3D11Resource@@PAPAUID3D11ShaderResourceView@@PAW4DDS_ALPHA_MODE@1@@Z ; DirectX::CreateDDSTextureFromFileEx
	add	esp, 48					; 00000030H
; Line 1722
	cmp	ebp, esp
	call	__RTC_CheckEsp
	pop	ebp
	ret	0
?CreateDDSTextureFromFileEx@DirectX@@YAJPAUID3D11Device@@PB_WIW4D3D11_USAGE@@III_NPAPAUID3D11Resource@@PAPAUID3D11ShaderResourceView@@PAW4DDS_ALPHA_MODE@1@@Z ENDP ; DirectX::CreateDDSTextureFromFileEx
_TEXT	ENDS
; Function compile flags: /Odtp /RTCsu
_TEXT	SEGMENT
_d3dDevice$ = 8						; size = 4
_ddsData$ = 12						; size = 4
_ddsDataSize$ = 16					; size = 4
_maxsize$ = 20						; size = 4
_usage$ = 24						; size = 4
_bindFlags$ = 28					; size = 4
_cpuAccessFlags$ = 32					; size = 4
_miscFlags$ = 36					; size = 4
_forceSRGB$ = 40					; size = 1
_texture$ = 44						; size = 4
_textureView$ = 48					; size = 4
_alphaMode$ = 52					; size = 4
?CreateDDSTextureFromMemoryEx@DirectX@@YAJPAUID3D11Device@@PBEIIW4D3D11_USAGE@@III_NPAPAUID3D11Resource@@PAPAUID3D11ShaderResourceView@@PAW4DDS_ALPHA_MODE@1@@Z PROC ; DirectX::CreateDDSTextureFromMemoryEx
; File d:\engine class\assignment 1\scratch\dxsse\dxut\core\ddstextureloader.cpp
; Line 1577
	push	ebp
	mov	ebp, esp
; Line 1580
	mov	eax, DWORD PTR _alphaMode$[ebp]
	push	eax
	mov	ecx, DWORD PTR _textureView$[ebp]
	push	ecx
	mov	edx, DWORD PTR _texture$[ebp]
	push	edx
	movzx	eax, BYTE PTR _forceSRGB$[ebp]
	push	eax
	mov	ecx, DWORD PTR _miscFlags$[ebp]
	push	ecx
	mov	edx, DWORD PTR _cpuAccessFlags$[ebp]
	push	edx
	mov	eax, DWORD PTR _bindFlags$[ebp]
	push	eax
	mov	ecx, DWORD PTR _usage$[ebp]
	push	ecx
	mov	edx, DWORD PTR _maxsize$[ebp]
	push	edx
	mov	eax, DWORD PTR _ddsDataSize$[ebp]
	push	eax
	mov	ecx, DWORD PTR _ddsData$[ebp]
	push	ecx
	push	0
	mov	edx, DWORD PTR _d3dDevice$[ebp]
	push	edx
	call	?CreateDDSTextureFromMemoryEx@DirectX@@YAJPAUID3D11Device@@PAUID3D11DeviceContext@@PBEIIW4D3D11_USAGE@@III_NPAPAUID3D11Resource@@PAPAUID3D11ShaderResourceView@@PAW4DDS_ALPHA_MODE@1@@Z ; DirectX::CreateDDSTextureFromMemoryEx
	add	esp, 52					; 00000034H
; Line 1581
	cmp	ebp, esp
	call	__RTC_CheckEsp
	pop	ebp
	ret	0
?CreateDDSTextureFromMemoryEx@DirectX@@YAJPAUID3D11Device@@PBEIIW4D3D11_USAGE@@III_NPAPAUID3D11Resource@@PAPAUID3D11ShaderResourceView@@PAW4DDS_ALPHA_MODE@1@@Z ENDP ; DirectX::CreateDDSTextureFromMemoryEx
_TEXT	ENDS
; Function compile flags: /Odtp /RTCsu
_TEXT	SEGMENT
_d3dDevice$ = 8						; size = 4
_d3dContext$ = 12					; size = 4
_fileName$ = 16						; size = 4
_texture$ = 20						; size = 4
_textureView$ = 24					; size = 4
_maxsize$ = 28						; size = 4
_alphaMode$ = 32					; size = 4
?CreateDDSTextureFromFile@DirectX@@YAJPAUID3D11Device@@PAUID3D11DeviceContext@@PB_WPAPAUID3D11Resource@@PAPAUID3D11ShaderResourceView@@IPAW4DDS_ALPHA_MODE@1@@Z PROC ; DirectX::CreateDDSTextureFromFile
; File d:\engine class\assignment 1\scratch\dxsse\dxut\core\ddstextureloader.cpp
; Line 1700
	push	ebp
	mov	ebp, esp
; Line 1703
	mov	eax, DWORD PTR _alphaMode$[ebp]
	push	eax
	mov	ecx, DWORD PTR _textureView$[ebp]
	push	ecx
	mov	edx, DWORD PTR _texture$[ebp]
	push	edx
	push	0
	push	0
	push	0
	push	8
	push	0
	mov	eax, DWORD PTR _maxsize$[ebp]
	push	eax
	mov	ecx, DWORD PTR _fileName$[ebp]
	push	ecx
	mov	edx, DWORD PTR _d3dContext$[ebp]
	push	edx
	mov	eax, DWORD PTR _d3dDevice$[ebp]
	push	eax
	call	?CreateDDSTextureFromFileEx@DirectX@@YAJPAUID3D11Device@@PAUID3D11DeviceContext@@PB_WIW4D3D11_USAGE@@III_NPAPAUID3D11Resource@@PAPAUID3D11ShaderResourceView@@PAW4DDS_ALPHA_MODE@1@@Z ; DirectX::CreateDDSTextureFromFileEx
	add	esp, 48					; 00000030H
; Line 1704
	cmp	ebp, esp
	call	__RTC_CheckEsp
	pop	ebp
	ret	0
?CreateDDSTextureFromFile@DirectX@@YAJPAUID3D11Device@@PAUID3D11DeviceContext@@PB_WPAPAUID3D11Resource@@PAPAUID3D11ShaderResourceView@@IPAW4DDS_ALPHA_MODE@1@@Z ENDP ; DirectX::CreateDDSTextureFromFile
_TEXT	ENDS
; Function compile flags: /Odtp /RTCsu
_TEXT	SEGMENT
_d3dDevice$ = 8						; size = 4
_d3dContext$ = 12					; size = 4
_ddsData$ = 16						; size = 4
_ddsDataSize$ = 20					; size = 4
_texture$ = 24						; size = 4
_textureView$ = 28					; size = 4
_maxsize$ = 32						; size = 4
_alphaMode$ = 36					; size = 4
?CreateDDSTextureFromMemory@DirectX@@YAJPAUID3D11Device@@PAUID3D11DeviceContext@@PBEIPAPAUID3D11Resource@@PAPAUID3D11ShaderResourceView@@IPAW4DDS_ALPHA_MODE@1@@Z PROC ; DirectX::CreateDDSTextureFromMemory
; File d:\engine class\assignment 1\scratch\dxsse\dxut\core\ddstextureloader.cpp
; Line 1558
	push	ebp
	mov	ebp, esp
; Line 1561
	mov	eax, DWORD PTR _alphaMode$[ebp]
	push	eax
	mov	ecx, DWORD PTR _textureView$[ebp]
	push	ecx
	mov	edx, DWORD PTR _texture$[ebp]
	push	edx
	push	0
	push	0
	push	0
	push	8
	push	0
	mov	eax, DWORD PTR _maxsize$[ebp]
	push	eax
	mov	ecx, DWORD PTR _ddsDataSize$[ebp]
	push	ecx
	mov	edx, DWORD PTR _ddsData$[ebp]
	push	edx
	mov	eax, DWORD PTR _d3dContext$[ebp]
	push	eax
	mov	ecx, DWORD PTR _d3dDevice$[ebp]
	push	ecx
	call	?CreateDDSTextureFromMemoryEx@DirectX@@YAJPAUID3D11Device@@PAUID3D11DeviceContext@@PBEIIW4D3D11_USAGE@@III_NPAPAUID3D11Resource@@PAPAUID3D11ShaderResourceView@@PAW4DDS_ALPHA_MODE@1@@Z ; DirectX::CreateDDSTextureFromMemoryEx
	add	esp, 52					; 00000034H
; Line 1562
	cmp	ebp, esp
	call	__RTC_CheckEsp
	pop	ebp
	ret	0
?CreateDDSTextureFromMemory@DirectX@@YAJPAUID3D11Device@@PAUID3D11DeviceContext@@PBEIPAPAUID3D11Resource@@PAPAUID3D11ShaderResourceView@@IPAW4DDS_ALPHA_MODE@1@@Z ENDP ; DirectX::CreateDDSTextureFromMemory
_TEXT	ENDS
; Function compile flags: /Odtp /RTCsu
_TEXT	SEGMENT
_d3dDevice$ = 8						; size = 4
_fileName$ = 12						; size = 4
_texture$ = 16						; size = 4
_textureView$ = 20					; size = 4
_maxsize$ = 24						; size = 4
_alphaMode$ = 28					; size = 4
?CreateDDSTextureFromFile@DirectX@@YAJPAUID3D11Device@@PB_WPAPAUID3D11Resource@@PAPAUID3D11ShaderResourceView@@IPAW4DDS_ALPHA_MODE@1@@Z PROC ; DirectX::CreateDDSTextureFromFile
; File d:\engine class\assignment 1\scratch\dxsse\dxut\core\ddstextureloader.cpp
; Line 1686
	push	ebp
	mov	ebp, esp
; Line 1689
	mov	eax, DWORD PTR _alphaMode$[ebp]
	push	eax
	mov	ecx, DWORD PTR _textureView$[ebp]
	push	ecx
	mov	edx, DWORD PTR _texture$[ebp]
	push	edx
	push	0
	push	0
	push	0
	push	8
	push	0
	mov	eax, DWORD PTR _maxsize$[ebp]
	push	eax
	mov	ecx, DWORD PTR _fileName$[ebp]
	push	ecx
	push	0
	mov	edx, DWORD PTR _d3dDevice$[ebp]
	push	edx
	call	?CreateDDSTextureFromFileEx@DirectX@@YAJPAUID3D11Device@@PAUID3D11DeviceContext@@PB_WIW4D3D11_USAGE@@III_NPAPAUID3D11Resource@@PAPAUID3D11ShaderResourceView@@PAW4DDS_ALPHA_MODE@1@@Z ; DirectX::CreateDDSTextureFromFileEx
	add	esp, 48					; 00000030H
; Line 1690
	cmp	ebp, esp
	call	__RTC_CheckEsp
	pop	ebp
	ret	0
?CreateDDSTextureFromFile@DirectX@@YAJPAUID3D11Device@@PB_WPAPAUID3D11Resource@@PAPAUID3D11ShaderResourceView@@IPAW4DDS_ALPHA_MODE@1@@Z ENDP ; DirectX::CreateDDSTextureFromFile
_TEXT	ENDS
; Function compile flags: /Odtp /RTCsu
_TEXT	SEGMENT
_d3dDevice$ = 8						; size = 4
_ddsData$ = 12						; size = 4
_ddsDataSize$ = 16					; size = 4
_texture$ = 20						; size = 4
_textureView$ = 24					; size = 4
_maxsize$ = 28						; size = 4
_alphaMode$ = 32					; size = 4
?CreateDDSTextureFromMemory@DirectX@@YAJPAUID3D11Device@@PBEIPAPAUID3D11Resource@@PAPAUID3D11ShaderResourceView@@IPAW4DDS_ALPHA_MODE@1@@Z PROC ; DirectX::CreateDDSTextureFromMemory
; File d:\engine class\assignment 1\scratch\dxsse\dxut\core\ddstextureloader.cpp
; Line 1543
	push	ebp
	mov	ebp, esp
; Line 1546
	mov	eax, DWORD PTR _alphaMode$[ebp]
	push	eax
	mov	ecx, DWORD PTR _textureView$[ebp]
	push	ecx
	mov	edx, DWORD PTR _texture$[ebp]
	push	edx
	push	0
	push	0
	push	0
	push	8
	push	0
	mov	eax, DWORD PTR _maxsize$[ebp]
	push	eax
	mov	ecx, DWORD PTR _ddsDataSize$[ebp]
	push	ecx
	mov	edx, DWORD PTR _ddsData$[ebp]
	push	edx
	push	0
	mov	eax, DWORD PTR _d3dDevice$[ebp]
	push	eax
	call	?CreateDDSTextureFromMemoryEx@DirectX@@YAJPAUID3D11Device@@PAUID3D11DeviceContext@@PBEIIW4D3D11_USAGE@@III_NPAPAUID3D11Resource@@PAPAUID3D11ShaderResourceView@@PAW4DDS_ALPHA_MODE@1@@Z ; DirectX::CreateDDSTextureFromMemoryEx
	add	esp, 52					; 00000034H
; Line 1547
	cmp	ebp, esp
	call	__RTC_CheckEsp
	pop	ebp
	ret	0
?CreateDDSTextureFromMemory@DirectX@@YAJPAUID3D11Device@@PBEIPAPAUID3D11Resource@@PAPAUID3D11ShaderResourceView@@IPAW4DDS_ALPHA_MODE@1@@Z ENDP ; DirectX::CreateDDSTextureFromMemory
_TEXT	ENDS
; Function compile flags: /Odtp /RTCsu
;	COMDAT ?D3D11CalcSubresource@@YAIIII@Z
_TEXT	SEGMENT
_MipSlice$ = 8						; size = 4
_ArraySlice$ = 12					; size = 4
_MipLevels$ = 16					; size = 4
?D3D11CalcSubresource@@YAIIII@Z PROC			; D3D11CalcSubresource, COMDAT
; File c:\program files (x86)\windows kits\8.1\include\um\d3d11.h
; Line 2165
	push	ebp
	mov	ebp, esp
	mov	eax, DWORD PTR _ArraySlice$[ebp]
	imul	eax, DWORD PTR _MipLevels$[ebp]
	add	eax, DWORD PTR _MipSlice$[ebp]
	pop	ebp
	ret	0
?D3D11CalcSubresource@@YAIIII@Z ENDP			; D3D11CalcSubresource
_TEXT	ENDS
; Function compile flags: /Odtp /RTCsu
;	COMDAT _HRESULT_FROM_WIN32
_TEXT	SEGMENT
tv68 = -4						; size = 4
_x$ = 8							; size = 4
_HRESULT_FROM_WIN32 PROC				; COMDAT
; File c:\program files (x86)\windows kits\8.1\include\shared\winerror.h
; Line 26297
	push	ebp
	mov	ebp, esp
	push	ecx
	mov	DWORD PTR [ebp-4], -858993460		; ccccccccH
	cmp	DWORD PTR _x$[ebp], 0
	jg	SHORT $LN3@HRESULT_FR
	mov	eax, DWORD PTR _x$[ebp]
	mov	DWORD PTR tv68[ebp], eax
	jmp	SHORT $LN4@HRESULT_FR
$LN3@HRESULT_FR:
	mov	ecx, DWORD PTR _x$[ebp]
	and	ecx, 65535				; 0000ffffH
	or	ecx, 458752				; 00070000H
	or	ecx, -2147483648			; 80000000H
	mov	DWORD PTR tv68[ebp], ecx
$LN4@HRESULT_FR:
	mov	eax, DWORD PTR tv68[ebp]
	mov	esp, ebp
	pop	ebp
	ret	0
_HRESULT_FROM_WIN32 ENDP
_TEXT	ENDS
; Function compile flags: /Odtp /RTCsu
;	COMDAT ?strrchr@@YAPADPADH@Z
_TEXT	SEGMENT
__Str$ = 8						; size = 4
__Ch$ = 12						; size = 4
?strrchr@@YAPADPADH@Z PROC				; strrchr, COMDAT
; File c:\program files (x86)\microsoft visual studio 12.0\vc\include\string.h
; Line 226
	push	ebp
	mov	ebp, esp
	push	esi
	mov	esi, esp
	mov	eax, DWORD PTR __Ch$[ebp]
	push	eax
	mov	ecx, DWORD PTR __Str$[ebp]
	push	ecx
	call	DWORD PTR __imp__strrchr
	add	esp, 8
	cmp	esi, esp
	call	__RTC_CheckEsp
	pop	esi
	cmp	ebp, esp
	call	__RTC_CheckEsp
	pop	ebp
	ret	0
?strrchr@@YAPADPADH@Z ENDP				; strrchr
_TEXT	ENDS
; Function compile flags: /Odtp /RTCsu
_TEXT	SEGMENT
tv68 = -4						; size = 4
__Str$ = 8						; size = 4
__MaxCount$ = 12					; size = 4
_strnlen_s PROC
; File c:\program files (x86)\microsoft visual studio 12.0\vc\include\string.h
; Line 131
	push	ebp
	mov	ebp, esp
	push	ecx
	push	esi
	mov	DWORD PTR [ebp-4], -858993460		; ccccccccH
; Line 132
	cmp	DWORD PTR __Str$[ebp], 0
	jne	SHORT $LN3@strnlen_s
	mov	DWORD PTR tv68[ebp], 0
	jmp	SHORT $LN4@strnlen_s
$LN3@strnlen_s:
	mov	esi, esp
	mov	eax, DWORD PTR __MaxCount$[ebp]
	push	eax
	mov	ecx, DWORD PTR __Str$[ebp]
	push	ecx
	call	DWORD PTR __imp__strnlen
	add	esp, 8
	cmp	esi, esp
	call	__RTC_CheckEsp
	mov	DWORD PTR tv68[ebp], eax
$LN4@strnlen_s:
	mov	eax, DWORD PTR tv68[ebp]
; Line 133
	pop	esi
	add	esp, 4
	cmp	ebp, esp
	call	__RTC_CheckEsp
	mov	esp, ebp
	pop	ebp
	ret	0
_strnlen_s ENDP
_TEXT	ENDS
END
