; Listing generated by Microsoft (R) Optimizing Compiler Version 18.00.30501.0 

	TITLE	D:\Engine Class\Assignment 1\Scratch\DXSSE\DXUT\Core\DXErr.cpp
	.686P
	.XMM
	include listing.inc
	.model	flat

INCLUDELIB MSVCRTD
INCLUDELIB OLDNAMES

PUBLIC	_CLSID_DirectDraw
PUBLIC	_CLSID_DirectDraw7
PUBLIC	_CLSID_DirectDrawClipper
PUBLIC	_IID_IDirectDraw
PUBLIC	_IID_IDirectDraw2
PUBLIC	_IID_IDirectDraw4
PUBLIC	_IID_IDirectDraw7
PUBLIC	_IID_IDirectDrawSurface
PUBLIC	_IID_IDirectDrawSurface2
PUBLIC	_IID_IDirectDrawSurface3
PUBLIC	_IID_IDirectDrawSurface4
PUBLIC	_IID_IDirectDrawSurface7
PUBLIC	_IID_IDirectDrawPalette
PUBLIC	_IID_IDirectDrawClipper
PUBLIC	_IID_IDirectDrawColorControl
PUBLIC	_IID_IDirectDrawGammaControl
PUBLIC	?sc_redShift@ColorF@D2D1@@0IB			; D2D1::ColorF::sc_redShift
PUBLIC	?sc_greenShift@ColorF@D2D1@@0IB			; D2D1::ColorF::sc_greenShift
PUBLIC	?sc_blueShift@ColorF@D2D1@@0IB			; D2D1::ColorF::sc_blueShift
PUBLIC	?sc_redMask@ColorF@D2D1@@0IB			; D2D1::ColorF::sc_redMask
PUBLIC	?sc_greenMask@ColorF@D2D1@@0IB			; D2D1::ColorF::sc_greenMask
PUBLIC	?sc_blueMask@ColorF@D2D1@@0IB			; D2D1::ColorF::sc_blueMask
;	COMDAT ?sc_blueMask@ColorF@D2D1@@0IB
CONST	SEGMENT
?sc_blueMask@ColorF@D2D1@@0IB DD 0ffH			; D2D1::ColorF::sc_blueMask
CONST	ENDS
;	COMDAT ?sc_greenMask@ColorF@D2D1@@0IB
CONST	SEGMENT
?sc_greenMask@ColorF@D2D1@@0IB DD 0ff00H		; D2D1::ColorF::sc_greenMask
CONST	ENDS
;	COMDAT ?sc_redMask@ColorF@D2D1@@0IB
CONST	SEGMENT
?sc_redMask@ColorF@D2D1@@0IB DD 0ff0000H		; D2D1::ColorF::sc_redMask
CONST	ENDS
;	COMDAT ?sc_blueShift@ColorF@D2D1@@0IB
CONST	SEGMENT
?sc_blueShift@ColorF@D2D1@@0IB DD 00H			; D2D1::ColorF::sc_blueShift
CONST	ENDS
;	COMDAT ?sc_greenShift@ColorF@D2D1@@0IB
CONST	SEGMENT
?sc_greenShift@ColorF@D2D1@@0IB DD 08H			; D2D1::ColorF::sc_greenShift
CONST	ENDS
;	COMDAT ?sc_redShift@ColorF@D2D1@@0IB
CONST	SEGMENT
?sc_redShift@ColorF@D2D1@@0IB DD 010H			; D2D1::ColorF::sc_redShift
CONST	ENDS
;	COMDAT _IID_IDirectDrawGammaControl
CONST	SEGMENT
_IID_IDirectDrawGammaControl DD 069c11c3eH
	DW	0b46bH
	DW	011d1H
	DB	0adH
	DB	07aH
	DB	00H
	DB	0c0H
	DB	04fH
	DB	0c2H
	DB	09bH
	DB	04eH
CONST	ENDS
;	COMDAT _IID_IDirectDrawColorControl
CONST	SEGMENT
_IID_IDirectDrawColorControl DD 04b9f0ee0H
	DW	0d7eH
	DW	011d0H
	DB	09bH
	DB	06H
	DB	00H
	DB	0a0H
	DB	0c9H
	DB	03H
	DB	0a3H
	DB	0b8H
CONST	ENDS
;	COMDAT _IID_IDirectDrawClipper
CONST	SEGMENT
_IID_IDirectDrawClipper DD 06c14db85H
	DW	0a733H
	DW	011ceH
	DB	0a5H
	DB	021H
	DB	00H
	DB	020H
	DB	0afH
	DB	0bH
	DB	0e5H
	DB	060H
CONST	ENDS
;	COMDAT _IID_IDirectDrawPalette
CONST	SEGMENT
_IID_IDirectDrawPalette DD 06c14db84H
	DW	0a733H
	DW	011ceH
	DB	0a5H
	DB	021H
	DB	00H
	DB	020H
	DB	0afH
	DB	0bH
	DB	0e5H
	DB	060H
CONST	ENDS
;	COMDAT _IID_IDirectDrawSurface7
CONST	SEGMENT
_IID_IDirectDrawSurface7 DD 06675a80H
	DW	03b9bH
	DW	011d2H
	DB	0b9H
	DB	02fH
	DB	00H
	DB	060H
	DB	097H
	DB	097H
	DB	0eaH
	DB	05bH
CONST	ENDS
;	COMDAT _IID_IDirectDrawSurface4
CONST	SEGMENT
_IID_IDirectDrawSurface4 DD 0b2b8630H
	DW	0ad35H
	DW	011d0H
	DB	08eH
	DB	0a6H
	DB	00H
	DB	060H
	DB	097H
	DB	097H
	DB	0eaH
	DB	05bH
CONST	ENDS
;	COMDAT _IID_IDirectDrawSurface3
CONST	SEGMENT
_IID_IDirectDrawSurface3 DD 0da044e00H
	DW	069b2H
	DW	011d0H
	DB	0a1H
	DB	0d5H
	DB	00H
	DB	0aaH
	DB	00H
	DB	0b8H
	DB	0dfH
	DB	0bbH
CONST	ENDS
;	COMDAT _IID_IDirectDrawSurface2
CONST	SEGMENT
_IID_IDirectDrawSurface2 DD 057805885H
	DW	06eecH
	DW	011cfH
	DB	094H
	DB	041H
	DB	0a8H
	DB	023H
	DB	03H
	DB	0c1H
	DB	0eH
	DB	027H
CONST	ENDS
;	COMDAT _IID_IDirectDrawSurface
CONST	SEGMENT
_IID_IDirectDrawSurface DD 06c14db81H
	DW	0a733H
	DW	011ceH
	DB	0a5H
	DB	021H
	DB	00H
	DB	020H
	DB	0afH
	DB	0bH
	DB	0e5H
	DB	060H
CONST	ENDS
;	COMDAT _IID_IDirectDraw7
CONST	SEGMENT
_IID_IDirectDraw7 DD 015e65ec0H
	DW	03b9cH
	DW	011d2H
	DB	0b9H
	DB	02fH
	DB	00H
	DB	060H
	DB	097H
	DB	097H
	DB	0eaH
	DB	05bH
CONST	ENDS
;	COMDAT _IID_IDirectDraw4
CONST	SEGMENT
_IID_IDirectDraw4 DD 09c59509aH
	DW	039bdH
	DW	011d1H
	DB	08cH
	DB	04aH
	DB	00H
	DB	0c0H
	DB	04fH
	DB	0d9H
	DB	030H
	DB	0c5H
CONST	ENDS
;	COMDAT _IID_IDirectDraw2
CONST	SEGMENT
_IID_IDirectDraw2 DD 0b3a6f3e0H
	DW	02b43H
	DW	011cfH
	DB	0a2H
	DB	0deH
	DB	00H
	DB	0aaH
	DB	00H
	DB	0b9H
	DB	033H
	DB	056H
CONST	ENDS
;	COMDAT _IID_IDirectDraw
CONST	SEGMENT
_IID_IDirectDraw DD 06c14db80H
	DW	0a733H
	DW	011ceH
	DB	0a5H
	DB	021H
	DB	00H
	DB	020H
	DB	0afH
	DB	0bH
	DB	0e5H
	DB	060H
CONST	ENDS
;	COMDAT _CLSID_DirectDrawClipper
CONST	SEGMENT
_CLSID_DirectDrawClipper DD 0593817a0H
	DW	07db3H
	DW	011cfH
	DB	0a2H
	DB	0deH
	DB	00H
	DB	0aaH
	DB	00H
	DB	0b9H
	DB	033H
	DB	056H
CONST	ENDS
;	COMDAT _CLSID_DirectDraw7
CONST	SEGMENT
_CLSID_DirectDraw7 DD 03c305196H
	DW	050dbH
	DW	011d3H
	DB	09cH
	DB	0feH
	DB	00H
	DB	0c0H
	DB	04fH
	DB	0d9H
	DB	030H
	DB	0c5H
CONST	ENDS
;	COMDAT _CLSID_DirectDraw
CONST	SEGMENT
_CLSID_DirectDraw DD 0d7b70ee0H
	DW	04340H
	DW	011cfH
	DB	0b0H
	DB	063H
	DB	00H
	DB	020H
	DB	0afH
	DB	0c2H
	DB	0cdH
	DB	035H
CONST	ENDS
CONST	SEGMENT
$SG168960 DB	'T', 00H, 'h', 00H, 'e', 00H, ' ', 00H, 'd', 00H, 'a', 00H
	DB	't', 00H, 'a', 00H, ' ', 00H, 'h', 00H, 'a', 00H, 's', 00H, ' '
	DB	00H, 'e', 00H, 'x', 00H, 'p', 00H, 'i', 00H, 'r', 00H, 'e', 00H
	DB	'd', 00H, ' ', 00H, 'a', 00H, 'n', 00H, 'd', 00H, ' ', 00H, 'i'
	DB	00H, 's', 00H, ' ', 00H, 't', 00H, 'h', 00H, 'e', 00H, 'r', 00H
	DB	'e', 00H, 'f', 00H, 'o', 00H, 'r', 00H, 'e', 00H, ' ', 00H, 'n'
	DB	00H, 'o', 00H, ' ', 00H, 'l', 00H, 'o', 00H, 'n', 00H, 'g', 00H
	DB	'e', 00H, 'r', 00H, ' ', 00H, 'v', 00H, 'a', 00H, 'l', 00H, 'i'
	DB	00H, 'd', 00H, '.', 00H, 00H, 00H
	ORG $+2
$SG165888 DB	'E', 00H, 'R', 00H, 'R', 00H, 'O', 00H, 'R', 00H, '_', 00H
	DB	'D', 00H, 'S', 00H, '_', 00H, 'S', 00H, 'R', 00H, 'C', 00H, '_'
	DB	00H, 'A', 00H, 'N', 00H, 'D', 00H, '_', 00H, 'D', 00H, 'S', 00H
	DB	'T', 00H, '_', 00H, 'O', 00H, 'B', 00H, 'J', 00H, 'E', 00H, 'C'
	DB	00H, 'T', 00H, '_', 00H, 'C', 00H, 'L', 00H, 'A', 00H, 'S', 00H
	DB	'S', 00H, '_', 00H, 'M', 00H, 'I', 00H, 'S', 00H, 'M', 00H, 'A'
	DB	00H, 'T', 00H, 'C', 00H, 'H', 00H, 00H, 00H
	ORG $+2
$SG161792 DB	'E', 00H, 'R', 00H, 'R', 00H, 'O', 00H, 'R', 00H, '_', 00H
	DB	'D', 00H, 'S', 00H, '_', 00H, 'M', 00H, 'E', 00H, 'M', 00H, 'B'
	DB	00H, 'E', 00H, 'R', 00H, 'S', 00H, 'H', 00H, 'I', 00H, 'P', 00H
	DB	'_', 00H, 'E', 00H, 'V', 00H, 'A', 00H, 'L', 00H, 'U', 00H, 'A'
	DB	00H, 'T', 00H, 'E', 00H, 'D', 00H, '_', 00H, 'L', 00H, 'O', 00H
	DB	'C', 00H, 'A', 00H, 'L', 00H, 'L', 00H, 'Y', 00H, 00H, 00H
$SG156672 DB	'C', 00H, 'R', 00H, 'Y', 00H, 'P', 00H, 'T', 00H, '_', 00H
	DB	'E', 00H, '_', 00H, 'F', 00H, 'I', 00H, 'L', 00H, 'E', 00H, 'R'
	DB	00H, 'E', 00H, 'S', 00H, 'I', 00H, 'Z', 00H, 'E', 00H, 'D', 00H
	DB	00H, 00H
$SG166913 DB	'E', 00H, 'R', 00H, 'R', 00H, 'O', 00H, 'R', 00H, '_', 00H
	DB	'I', 00H, 'P', 00H, 'S', 00H, 'E', 00H, 'C', 00H, '_', 00H, 'I'
	DB	00H, 'K', 00H, 'E', 00H, '_', 00H, 'M', 00H, 'M', 00H, '_', 00H
	DB	'D', 00H, 'E', 00H, 'L', 00H, 'A', 00H, 'Y', 00H, '_', 00H, 'D'
	DB	00H, 'R', 00H, 'O', 00H, 'P', 00H, 00H, 00H
$SG162817 DB	'E', 00H, 'R', 00H, 'R', 00H, 'O', 00H, 'R', 00H, '_', 00H
	DB	'D', 00H, 'S', 00H, '_', 00H, 'D', 00H, 'R', 00H, 'A', 00H, '_'
	DB	00H, 'R', 00H, 'E', 00H, 'F', 00H, '_', 00H, 'N', 00H, 'O', 00H
	DB	'T', 00H, '_', 00H, 'F', 00H, 'O', 00H, 'U', 00H, 'N', 00H, 'D'
	DB	00H, 00H, 00H
	ORG $+2
$SG167938 DB	'D', 00H, 'X', 00H, 'G', 00H, 'I', 00H, '_', 00H, 'S', 00H
	DB	'T', 00H, 'A', 00H, 'T', 00H, 'U', 00H, 'S', 00H, '_', 00H, 'C'
	DB	00H, 'L', 00H, 'I', 00H, 'P', 00H, 'P', 00H, 'E', 00H, 'D', 00H
	DB	00H, 00H
$SG163842 DB	'C', 00H, 'O', 00H, '_', 00H, 'E', 00H, '_', 00H, 'T', 00H
	DB	'H', 00H, 'R', 00H, 'E', 00H, 'A', 00H, 'D', 00H, 'I', 00H, 'N'
	DB	00H, 'G', 00H, 'M', 00H, 'O', 00H, 'D', 00H, 'E', 00H, 'L', 00H
	DB	'_', 00H, 'C', 00H, 'H', 00H, 'A', 00H, 'N', 00H, 'G', 00H, 'E'
	DB	00H, 'D', 00H, 00H, 00H
$SG158722 DB	'E', 00H, 'R', 00H, 'R', 00H, 'O', 00H, 'R', 00H, '_', 00H
	DB	'M', 00H, 'A', 00H, 'P', 00H, 'P', 00H, 'E', 00H, 'D', 00H, '_'
	DB	00H, 'A', 00H, 'L', 00H, 'I', 00H, 'G', 00H, 'N', 00H, 'M', 00H
	DB	'E', 00H, 'N', 00H, 'T', 00H, 00H, 00H
	ORG $+2
$SG157698 DB	'E', 00H, 'R', 00H, 'R', 00H, 'O', 00H, 'R', 00H, '_', 00H
	DB	'B', 00H, 'U', 00H, 'F', 00H, 'F', 00H, 'E', 00H, 'R', 00H, '_'
	DB	00H, 'O', 00H, 'V', 00H, 'E', 00H, 'R', 00H, 'F', 00H, 'L', 00H
	DB	'O', 00H, 'W', 00H, 00H, 00H
$SG155650 DB	'C', 00H, 'S', 00H, '_', 00H, 'E', 00H, '_', 00H, 'A', 00H
	DB	'D', 00H, 'M', 00H, 'I', 00H, 'N', 00H, '_', 00H, 'L', 00H, 'I'
	DB	00H, 'M', 00H, 'I', 00H, 'T', 00H, '_', 00H, 'E', 00H, 'X', 00H
	DB	'C', 00H, 'E', 00H, 'E', 00H, 'D', 00H, 'E', 00H, 'D', 00H, 00H
	DB	00H
$SG159747 DB	'E', 00H, 'R', 00H, 'R', 00H, 'O', 00H, 'R', 00H, '_', 00H
	DB	'I', 00H, 'N', 00H, 'V', 00H, 'A', 00H, 'L', 00H, 'I', 00H, 'D'
	DB	00H, '_', 00H, 'C', 00H, 'O', 00H, 'M', 00H, 'B', 00H, 'O', 00H
	DB	'B', 00H, 'O', 00H, 'X', 00H, '_', 00H, 'M', 00H, 'E', 00H, 'S'
	DB	00H, 'S', 00H, 'A', 00H, 'G', 00H, 'E', 00H, 00H, 00H
	ORG $+2
$SG156675 DB	'C', 00H, 'R', 00H, 'Y', 00H, 'P', 00H, 'T', 00H, '_', 00H
	DB	'E', 00H, '_', 00H, 'S', 00H, 'E', 00H, 'C', 00H, 'U', 00H, 'R'
	DB	00H, 'I', 00H, 'T', 00H, 'Y', 00H, '_', 00H, 'S', 00H, 'E', 00H
	DB	'T', 00H, 'T', 00H, 'I', 00H, 'N', 00H, 'G', 00H, 'S', 00H, 00H
	DB	00H
$SG160772 DB	'R', 00H, 'P', 00H, 'C', 00H, '_', 00H, 'S', 00H, '_', 00H
	DB	'I', 00H, 'N', 00H, 'V', 00H, 'A', 00H, 'L', 00H, 'I', 00H, 'D'
	DB	00H, '_', 00H, 'A', 00H, 'S', 00H, 'Y', 00H, 'N', 00H, 'C', 00H
	DB	'_', 00H, 'C', 00H, 'A', 00H, 'L', 00H, 'L', 00H, 00H, 00H
	ORG $+2
$SG164868 DB	'E', 00H, 'R', 00H, 'R', 00H, 'O', 00H, 'R', 00H, '_', 00H
	DB	'S', 00H, 'M', 00H, 'A', 00H, 'R', 00H, 'T', 00H, 'C', 00H, 'A'
	DB	00H, 'R', 00H, 'D', 00H, '_', 00H, 'S', 00H, 'U', 00H, 'B', 00H
	DB	'S', 00H, 'Y', 00H, 'S', 00H, 'T', 00H, 'E', 00H, 'M', 00H, '_'
	DB	00H, 'F', 00H, 'A', 00H, 'I', 00H, 'L', 00H, 'U', 00H, 'R', 00H
	DB	'E', 00H, 00H, 00H
$SG167941 DB	'D', 00H, 'X', 00H, 'G', 00H, 'I', 00H, '_', 00H, 'S', 00H
	DB	'T', 00H, 'A', 00H, 'T', 00H, 'U', 00H, 'S', 00H, '_', 00H, 'N'
	DB	00H, 'O', 00H, '_', 00H, 'R', 00H, 'E', 00H, 'D', 00H, 'I', 00H
	DB	'R', 00H, 'E', 00H, 'C', 00H, 'T', 00H, 'I', 00H, 'O', 00H, 'N'
	DB	00H, 00H, 00H
	ORG $+2
$SG165893 DB	'E', 00H, 'R', 00H, 'R', 00H, 'O', 00H, 'R', 00H, '_', 00H
	DB	'S', 00H, 'A', 00H, 'M', 00H, '_', 00H, 'I', 00H, 'N', 00H, 'I'
	DB	00H, 'T', 00H, '_', 00H, 'F', 00H, 'A', 00H, 'I', 00H, 'L', 00H
	DB	'U', 00H, 'R', 00H, 'E', 00H, 00H, 00H
	ORG $+2
$SG163845 DB	'C', 00H, 'O', 00H, '_', 00H, 'E', 00H, '_', 00H, 'N', 00H
	DB	'O', 00H, 'I', 00H, 'I', 00H, 'S', 00H, 'I', 00H, 'N', 00H, 'T'
	DB	00H, 'R', 00H, 'I', 00H, 'N', 00H, 'S', 00H, 'I', 00H, 'C', 00H
	DB	'S', 00H, 00H, 00H
	ORG $+2
$SG161797 DB	'E', 00H, 'R', 00H, 'R', 00H, 'O', 00H, 'R', 00H, '_', 00H
	DB	'D', 00H, 'S', 00H, '_', 00H, 'N', 00H, 'O', 00H, '_', 00H, 'A'
	DB	00H, 'T', 00H, 'T', 00H, 'R', 00H, 'I', 00H, 'B', 00H, 'U', 00H
	DB	'T', 00H, 'E', 00H, '_', 00H, 'O', 00H, 'R', 00H, '_', 00H, 'V'
	DB	00H, 'A', 00H, 'L', 00H, 'U', 00H, 'E', 00H, 00H, 00H
	ORG $+2
$SG155653 DB	'C', 00H, 'S', 00H, '_', 00H, 'E', 00H, '_', 00H, 'S', 00H
	DB	'C', 00H, 'H', 00H, 'E', 00H, 'M', 00H, 'A', 00H, '_', 00H, 'M'
	DB	00H, 'I', 00H, 'S', 00H, 'M', 00H, 'A', 00H, 'T', 00H, 'C', 00H
	DB	'H', 00H, 00H, 00H
	ORG $+2
$SG166918 DB	'E', 00H, 'R', 00H, 'R', 00H, 'O', 00H, 'R', 00H, '_', 00H
	DB	'I', 00H, 'P', 00H, 'S', 00H, 'E', 00H, 'C', 00H, '_', 00H, 'I'
	DB	00H, 'K', 00H, 'E', 00H, '_', 00H, 'Q', 00H, 'M', 00H, '_', 00H
	DB	'D', 00H, 'E', 00H, 'L', 00H, 'A', 00H, 'Y', 00H, '_', 00H, 'D'
	DB	00H, 'R', 00H, 'O', 00H, 'P', 00H, 00H, 00H
$SG168966 DB	'T', 00H, 'h', 00H, 'e', 00H, ' ', 00H, 'm', 00H, 'o', 00H
	DB	'd', 00H, 'e', 00H, ' ', 00H, 't', 00H, 'e', 00H, 's', 00H, 't'
	DB	00H, ' ', 00H, 'h', 00H, 'a', 00H, 's', 00H, ' ', 00H, 'f', 00H
	DB	'i', 00H, 'n', 00H, 'i', 00H, 's', 00H, 'h', 00H, 'e', 00H, 'd'
	DB	00H, ' ', 00H, 'e', 00H, 'x', 00H, 'e', 00H, 'c', 00H, 'u', 00H
	DB	't', 00H, 'i', 00H, 'n', 00H, 'g', 00H, '.', 00H, 00H, 00H
$SG162822 DB	'E', 00H, 'R', 00H, 'R', 00H, 'O', 00H, 'R', 00H, '_', 00H
	DB	'D', 00H, 'S', 00H, '_', 00H, 'D', 00H, 'R', 00H, 'A', 00H, '_'
	DB	00H, 'O', 00H, 'B', 00H, 'J', 00H, '_', 00H, 'I', 00H, 'S', 00H
	DB	'_', 00H, 'R', 00H, 'E', 00H, 'P', 00H, '_', 00H, 'S', 00H, 'O'
	DB	00H, 'U', 00H, 'R', 00H, 'C', 00H, 'E', 00H, 00H, 00H
	ORG $+2
$SG156678 DB	'C', 00H, 'R', 00H, 'Y', 00H, 'P', 00H, 'T', 00H, '_', 00H
	DB	'E', 00H, '_', 00H, 'N', 00H, 'O', 00H, '_', 00H, 'V', 00H, 'E'
	DB	00H, 'R', 00H, 'I', 00H, 'F', 00H, 'Y', 00H, '_', 00H, 'U', 00H
	DB	'S', 00H, 'A', 00H, 'G', 00H, 'E', 00H, '_', 00H, 'D', 00H, 'L'
	DB	00H, 'L', 00H, 00H, 00H
$SG158727 DB	'E', 00H, 'R', 00H, 'R', 00H, 'O', 00H, 'R', 00H, '_', 00H
	DB	'S', 00H, 'E', 00H, 'T', 00H, '_', 00H, 'P', 00H, 'O', 00H, 'W'
	DB	00H, 'E', 00H, 'R', 00H, '_', 00H, 'S', 00H, 'T', 00H, 'A', 00H
	DB	'T', 00H, 'E', 00H, '_', 00H, 'V', 00H, 'E', 00H, 'T', 00H, 'O'
	DB	00H, 'E', 00H, 'D', 00H, 00H, 00H
	ORG $+2
$SG157703 DB	'E', 00H, 'R', 00H, 'R', 00H, 'O', 00H, 'R', 00H, '_', 00H
	DB	'D', 00H, 'I', 00H, 'S', 00H, 'K', 00H, '_', 00H, 'F', 00H, 'U'
	DB	00H, 'L', 00H, 'L', 00H, 00H, 00H
$SG155655 DB	'C', 00H, 'A', 00H, 'C', 00H, 'H', 00H, 'E', 00H, '_', 00H
	DB	'E', 00H, '_', 00H, 'F', 00H, 'I', 00H, 'R', 00H, 'S', 00H, 'T'
	DB	00H, 00H, 00H
$SG167944 DB	'D', 00H, 'X', 00H, 'G', 00H, 'I', 00H, '_', 00H, 'S', 00H
	DB	'T', 00H, 'A', 00H, 'T', 00H, 'U', 00H, 'S', 00H, '_', 00H, 'N'
	DB	00H, 'O', 00H, '_', 00H, 'D', 00H, 'E', 00H, 'S', 00H, 'K', 00H
	DB	'T', 00H, 'O', 00H, 'P', 00H, '_', 00H, 'A', 00H, 'C', 00H, 'C'
	DB	00H, 'E', 00H, 'S', 00H, 'S', 00H, 00H, 00H
$SG163848 DB	'C', 00H, 'O', 00H, '_', 00H, 'E', 00H, '_', 00H, 'N', 00H
	DB	'O', 00H, 'C', 00H, 'O', 00H, 'O', 00H, 'K', 00H, 'I', 00H, 'E'
	DB	00H, 'S', 00H, 00H, 00H
	ORG $+2
$SG159752 DB	'E', 00H, 'R', 00H, 'R', 00H, 'O', 00H, 'R', 00H, '_', 00H
	DB	'W', 00H, 'I', 00H, 'N', 00H, 'D', 00H, 'O', 00H, 'W', 00H, '_'
	DB	00H, 'N', 00H, 'O', 00H, 'T', 00H, '_', 00H, 'C', 00H, 'O', 00H
	DB	'M', 00H, 'B', 00H, 'O', 00H, 'B', 00H, 'O', 00H, 'X', 00H, 00H
	DB	00H
$SG164873 DB	'E', 00H, 'R', 00H, 'R', 00H, 'O', 00H, 'R', 00H, '_', 00H
	DB	'D', 00H, 'O', 00H, 'W', 00H, 'N', 00H, 'G', 00H, 'R', 00H, 'A'
	DB	00H, 'D', 00H, 'E', 00H, '_', 00H, 'D', 00H, 'E', 00H, 'T', 00H
	DB	'E', 00H, 'C', 00H, 'T', 00H, 'E', 00H, 'D', 00H, 00H, 00H
	ORG $+2
$SG160777 DB	'R', 00H, 'P', 00H, 'C', 00H, '_', 00H, 'X', 00H, '_', 00H
	DB	'P', 00H, 'I', 00H, 'P', 00H, 'E', 00H, '_', 00H, 'C', 00H, 'L'
	DB	00H, 'O', 00H, 'S', 00H, 'E', 00H, 'D', 00H, 00H, 00H
$SG156681 DB	'C', 00H, 'R', 00H, 'Y', 00H, 'P', 00H, 'T', 00H, '_', 00H
	DB	'E', 00H, '_', 00H, 'N', 00H, 'O', 00H, '_', 00H, 'V', 00H, 'E'
	DB	00H, 'R', 00H, 'I', 00H, 'F', 00H, 'Y', 00H, '_', 00H, 'U', 00H
	DB	'S', 00H, 'A', 00H, 'G', 00H, 'E', 00H, '_', 00H, 'C', 00H, 'H'
	DB	00H, 'E', 00H, 'C', 00H, 'K', 00H, 00H, 00H
$SG155657 DB	'C', 00H, 'A', 00H, 'C', 00H, 'H', 00H, 'E', 00H, '_', 00H
	DB	'E', 00H, '_', 00H, 'L', 00H, 'A', 00H, 'S', 00H, 'T', 00H, 00H
	DB	00H
	ORG $+2
$SG165898 DB	'E', 00H, 'R', 00H, 'R', 00H, 'O', 00H, 'R', 00H, '_', 00H
	DB	'D', 00H, 'S', 00H, '_', 00H, 'D', 00H, 'R', 00H, 'A', 00H, '_'
	DB	00H, 'S', 00H, 'C', 00H, 'H', 00H, 'E', 00H, 'M', 00H, 'A', 00H
	DB	'_', 00H, 'I', 00H, 'N', 00H, 'F', 00H, 'O', 00H, '_', 00H, 'S'
	DB	00H, 'H', 00H, 'I', 00H, 'P', 00H, 00H, 00H
$SG161802 DB	'E', 00H, 'R', 00H, 'R', 00H, 'O', 00H, 'R', 00H, '_', 00H
	DB	'D', 00H, 'S', 00H, '_', 00H, 'I', 00H, 'N', 00H, 'V', 00H, 'A'
	DB	00H, 'L', 00H, 'I', 00H, 'D', 00H, '_', 00H, 'A', 00H, 'T', 00H
	DB	'T', 00H, 'R', 00H, 'I', 00H, 'B', 00H, 'U', 00H, 'T', 00H, 'E'
	DB	00H, '_', 00H, 'S', 00H, 'Y', 00H, 'N', 00H, 'T', 00H, 'A', 00H
	DB	'X', 00H, 00H, 00H
$SG166923 DB	'E', 00H, 'R', 00H, 'R', 00H, 'O', 00H, 'R', 00H, '_', 00H
	DB	'I', 00H, 'P', 00H, 'S', 00H, 'E', 00H, 'C', 00H, '_', 00H, 'I'
	DB	00H, 'K', 00H, 'E', 00H, '_', 00H, 'E', 00H, 'R', 00H, 'R', 00H
	DB	'O', 00H, 'R', 00H, 00H, 00H
$SG167947 DB	'D', 00H, 'X', 00H, 'G', 00H, 'I', 00H, '_', 00H, 'S', 00H
	DB	'T', 00H, 'A', 00H, 'T', 00H, 'U', 00H, 'S', 00H, '_', 00H, 'G'
	DB	00H, 'R', 00H, 'A', 00H, 'P', 00H, 'H', 00H, 'I', 00H, 'C', 00H
	DB	'S', 00H, '_', 00H, 'V', 00H, 'I', 00H, 'D', 00H, 'P', 00H, 'N'
	DB	00H, '_', 00H, 'S', 00H, 'O', 00H, 'U', 00H, 'R', 00H, 'C', 00H
	DB	'E', 00H, '_', 00H, 'I', 00H, 'N', 00H, '_', 00H, 'U', 00H, 'S'
	DB	00H, 'E', 00H, 00H, 00H
	ORG $+2
$SG163851 DB	'C', 00H, 'O', 00H, '_', 00H, 'E', 00H, '_', 00H, 'D', 00H
	DB	'B', 00H, 'E', 00H, 'R', 00H, 'R', 00H, 'O', 00H, 'R', 00H, 00H
	DB	00H
	ORG $+2
$SG162827 DB	'E', 00H, 'R', 00H, 'R', 00H, 'O', 00H, 'R', 00H, '_', 00H
	DB	'D', 00H, 'S', 00H, '_', 00H, 'D', 00H, 'R', 00H, 'A', 00H, '_'
	DB	00H, 'D', 00H, 'B', 00H, '_', 00H, 'E', 00H, 'R', 00H, 'R', 00H
	DB	'O', 00H, 'R', 00H, 00H, 00H
$SG155659 DB	'C', 00H, 'A', 00H, 'C', 00H, 'H', 00H, 'E', 00H, '_', 00H
	DB	'S', 00H, '_', 00H, 'F', 00H, 'I', 00H, 'R', 00H, 'S', 00H, 'T'
	DB	00H, 00H, 00H
$SG168972 DB	'T', 00H, 'h', 00H, 'e', 00H, ' ', 00H, 'm', 00H, 'o', 00H
	DB	'd', 00H, 'e', 00H, ' ', 00H, 't', 00H, 'e', 00H, 's', 00H, 't'
	DB	00H, ' ', 00H, 'h', 00H, 'a', 00H, 's', 00H, ' ', 00H, 's', 00H
	DB	'w', 00H, 'i', 00H, 't', 00H, 'c', 00H, 'h', 00H, 'e', 00H, 'd'
	DB	00H, ' ', 00H, 't', 00H, 'o', 00H, ' ', 00H, 'a', 00H, ' ', 00H
	DB	'n', 00H, 'e', 00H, 'w', 00H, ' ', 00H, 'm', 00H, 'o', 00H, 'd'
	DB	00H, 'e', 00H, '.', 00H, 00H, 00H
$SG158732 DB	'E', 00H, 'R', 00H, 'R', 00H, 'O', 00H, 'R', 00H, '_', 00H
	DB	'S', 00H, 'E', 00H, 'T', 00H, '_', 00H, 'P', 00H, 'O', 00H, 'W'
	DB	00H, 'E', 00H, 'R', 00H, '_', 00H, 'S', 00H, 'T', 00H, 'A', 00H
	DB	'T', 00H, 'E', 00H, '_', 00H, 'F', 00H, 'A', 00H, 'I', 00H, 'L'
	DB	00H, 'E', 00H, 'D', 00H, 00H, 00H
	ORG $+2
$SG157708 DB	'E', 00H, 'R', 00H, 'R', 00H, 'O', 00H, 'R', 00H, '_', 00H
	DB	'N', 00H, 'O', 00H, '_', 00H, 'M', 00H, 'O', 00H, 'R', 00H, 'E'
	DB	00H, '_', 00H, 'S', 00H, 'E', 00H, 'A', 00H, 'R', 00H, 'C', 00H
	DB	'H', 00H, '_', 00H, 'H', 00H, 'A', 00H, 'N', 00H, 'D', 00H, 'L'
	DB	00H, 'E', 00H, 'S', 00H, 00H, 00H
	ORG $+2
$SG156684 DB	'C', 00H, 'R', 00H, 'Y', 00H, 'P', 00H, 'T', 00H, '_', 00H
	DB	'E', 00H, '_', 00H, 'V', 00H, 'E', 00H, 'R', 00H, 'I', 00H, 'F'
	DB	00H, 'Y', 00H, '_', 00H, 'U', 00H, 'S', 00H, 'A', 00H, 'G', 00H
	DB	'E', 00H, '_', 00H, 'O', 00H, 'F', 00H, 'F', 00H, 'L', 00H, 'I'
	DB	00H, 'N', 00H, 'E', 00H, 00H, 00H
	ORG $+2
$SG159757 DB	'E', 00H, 'R', 00H, 'R', 00H, 'O', 00H, 'R', 00H, '_', 00H
	DB	'I', 00H, 'N', 00H, 'V', 00H, 'A', 00H, 'L', 00H, 'I', 00H, 'D'
	DB	00H, '_', 00H, 'E', 00H, 'D', 00H, 'I', 00H, 'T', 00H, '_', 00H
	DB	'H', 00H, 'E', 00H, 'I', 00H, 'G', 00H, 'H', 00H, 'T', 00H, 00H
	DB	00H
$SG155661 DB	'C', 00H, 'A', 00H, 'C', 00H, 'H', 00H, 'E', 00H, '_', 00H
	DB	'S', 00H, '_', 00H, 'L', 00H, 'A', 00H, 'S', 00H, 'T', 00H, 00H
	DB	00H
	ORG $+2
$SG167950 DB	'D', 00H, 'X', 00H, 'G', 00H, 'I', 00H, '_', 00H, 'S', 00H
	DB	'T', 00H, 'A', 00H, 'T', 00H, 'U', 00H, 'S', 00H, '_', 00H, 'M'
	DB	00H, 'O', 00H, 'D', 00H, 'E', 00H, '_', 00H, 'C', 00H, 'H', 00H
	DB	'A', 00H, 'N', 00H, 'G', 00H, 'E', 00H, 'D', 00H, 00H, 00H
	ORG $+2
$SG164878 DB	'E', 00H, 'R', 00H, 'R', 00H, 'O', 00H, 'R', 00H, '_', 00H
	DB	'M', 00H, 'A', 00H, 'C', 00H, 'H', 00H, 'I', 00H, 'N', 00H, 'E'
	DB	00H, '_', 00H, 'L', 00H, 'O', 00H, 'C', 00H, 'K', 00H, 'E', 00H
	DB	'D', 00H, 00H, 00H
	ORG $+2
$SG163854 DB	'C', 00H, 'O', 00H, '_', 00H, 'E', 00H, '_', 00H, 'N', 00H
	DB	'O', 00H, 'T', 00H, 'P', 00H, 'O', 00H, 'O', 00H, 'L', 00H, 'E'
	DB	00H, 'D', 00H, 00H, 00H
	ORG $+2
$SG160782 DB	'R', 00H, 'P', 00H, 'C', 00H, '_', 00H, 'X', 00H, '_', 00H
	DB	'P', 00H, 'I', 00H, 'P', 00H, 'E', 00H, '_', 00H, 'D', 00H, 'I'
	DB	00H, 'S', 00H, 'C', 00H, 'I', 00H, 'P', 00H, 'L', 00H, 'I', 00H
	DB	'N', 00H, 'E', 00H, '_', 00H, 'E', 00H, 'R', 00H, 'R', 00H, 'O'
	DB	00H, 'R', 00H, 00H, 00H
$SG165903 DB	'E', 00H, 'R', 00H, 'R', 00H, 'O', 00H, 'R', 00H, '_', 00H
	DB	'D', 00H, 'S', 00H, '_', 00H, 'D', 00H, 'R', 00H, 'A', 00H, '_'
	DB	00H, 'S', 00H, 'C', 00H, 'H', 00H, 'E', 00H, 'M', 00H, 'A', 00H
	DB	'_', 00H, 'C', 00H, 'O', 00H, 'N', 00H, 'F', 00H, 'L', 00H, 'I'
	DB	00H, 'C', 00H, 'T', 00H, 00H, 00H
	ORG $+2
$SG162832 DB	'E', 00H, 'R', 00H, 'R', 00H, 'O', 00H, 'R', 00H, '_', 00H
	DB	'D', 00H, 'S', 00H, '_', 00H, 'D', 00H, 'R', 00H, 'A', 00H, '_'
	DB	00H, 'N', 00H, 'O', 00H, '_', 00H, 'R', 00H, 'E', 00H, 'P', 00H
	DB	'L', 00H, 'I', 00H, 'C', 00H, 'A', 00H, 00H, 00H
$SG158737 DB	'E', 00H, 'R', 00H, 'R', 00H, 'O', 00H, 'R', 00H, '_', 00H
	DB	'T', 00H, 'O', 00H, 'O', 00H, '_', 00H, 'M', 00H, 'A', 00H, 'N'
	DB	00H, 'Y', 00H, '_', 00H, 'L', 00H, 'I', 00H, 'N', 00H, 'K', 00H
	DB	'S', 00H, 00H, 00H
	ORG $+2
$SG161807 DB	'E', 00H, 'R', 00H, 'R', 00H, 'O', 00H, 'R', 00H, '_', 00H
	DB	'D', 00H, 'S', 00H, '_', 00H, 'A', 00H, 'T', 00H, 'T', 00H, 'R'
	DB	00H, 'I', 00H, 'B', 00H, 'U', 00H, 'T', 00H, 'E', 00H, '_', 00H
	DB	'T', 00H, 'Y', 00H, 'P', 00H, 'E', 00H, '_', 00H, 'U', 00H, 'N'
	DB	00H, 'D', 00H, 'E', 00H, 'F', 00H, 'I', 00H, 'N', 00H, 'E', 00H
	DB	'D', 00H, 00H, 00H
$SG156687 DB	'C', 00H, 'R', 00H, 'Y', 00H, 'P', 00H, 'T', 00H, '_', 00H
	DB	'E', 00H, '_', 00H, 'N', 00H, 'O', 00H, 'T', 00H, '_', 00H, 'I'
	DB	00H, 'N', 00H, '_', 00H, 'C', 00H, 'T', 00H, 'L', 00H, 00H, 00H
	ORG $+2
$SG155663 DB	'O', 00H, 'L', 00H, 'E', 00H, 'O', 00H, 'B', 00H, 'J', 00H
	DB	'_', 00H, 'E', 00H, '_', 00H, 'F', 00H, 'I', 00H, 'R', 00H, 'S'
	DB	00H, 'T', 00H, 00H, 00H
	ORG $+2
$SG166928 DB	'E', 00H, 'R', 00H, 'R', 00H, 'O', 00H, 'R', 00H, '_', 00H
	DB	'I', 00H, 'P', 00H, 'S', 00H, 'E', 00H, 'C', 00H, '_', 00H, 'I'
	DB	00H, 'K', 00H, 'E', 00H, '_', 00H, 'C', 00H, 'R', 00H, 'L', 00H
	DB	'_', 00H, 'F', 00H, 'A', 00H, 'I', 00H, 'L', 00H, 'E', 00H, 'D'
	DB	00H, 00H, 00H
	ORG $+2
$SG163857 DB	'C', 00H, 'O', 00H, '_', 00H, 'E', 00H, '_', 00H, 'N', 00H
	DB	'O', 00H, 'T', 00H, 'C', 00H, 'O', 00H, 'N', 00H, 'S', 00H, 'T'
	DB	00H, 'R', 00H, 'U', 00H, 'C', 00H, 'T', 00H, 'E', 00H, 'D', 00H
	DB	00H, 00H
$SG155665 DB	'O', 00H, 'L', 00H, 'E', 00H, 'O', 00H, 'B', 00H, 'J', 00H
	DB	'_', 00H, 'E', 00H, '_', 00H, 'L', 00H, 'A', 00H, 'S', 00H, 'T'
	DB	00H, 00H, 00H
$SG167953 DB	'D', 00H, 'X', 00H, 'G', 00H, 'I', 00H, '_', 00H, 'S', 00H
	DB	'T', 00H, 'A', 00H, 'T', 00H, 'U', 00H, 'S', 00H, '_', 00H, 'M'
	DB	00H, 'O', 00H, 'D', 00H, 'E', 00H, '_', 00H, 'C', 00H, 'H', 00H
	DB	'A', 00H, 'N', 00H, 'G', 00H, 'E', 00H, '_', 00H, 'I', 00H, 'N'
	DB	00H, '_', 00H, 'P', 00H, 'R', 00H, 'O', 00H, 'G', 00H, 'R', 00H
	DB	'E', 00H, 'S', 00H, 'S', 00H, 00H, 00H
$SG157713 DB	'E', 00H, 'R', 00H, 'R', 00H, 'O', 00H, 'R', 00H, '_', 00H
	DB	'I', 00H, 'N', 00H, 'V', 00H, 'A', 00H, 'L', 00H, 'I', 00H, 'D'
	DB	00H, '_', 00H, 'T', 00H, 'A', 00H, 'R', 00H, 'G', 00H, 'E', 00H
	DB	'T', 00H, '_', 00H, 'H', 00H, 'A', 00H, 'N', 00H, 'D', 00H, 'L'
	DB	00H, 'E', 00H, 00H, 00H
$SG168978 DB	'D', 00H, '3', 00H, 'D', 00H, ' ', 00H, 'h', 00H, 'a', 00H
	DB	's', 00H, ' ', 00H, 'n', 00H, 'o', 00H, 't', 00H, ' ', 00H, 'y'
	DB	00H, 'e', 00H, 't', 00H, ' ', 00H, 'b', 00H, 'e', 00H, 'e', 00H
	DB	'n', 00H, ' ', 00H, 'i', 00H, 'n', 00H, 'i', 00H, 't', 00H, 'i'
	DB	00H, 'a', 00H, 'l', 00H, 'i', 00H, 'z', 00H, 'e', 00H, 'd', 00H
	DB	'.', 00H, 00H, 00H
$SG159762 DB	'E', 00H, 'R', 00H, 'R', 00H, 'O', 00H, 'R', 00H, '_', 00H
	DB	'D', 00H, 'C', 00H, '_', 00H, 'N', 00H, 'O', 00H, 'T', 00H, '_'
	DB	00H, 'F', 00H, 'O', 00H, 'U', 00H, 'N', 00H, 'D', 00H, 00H, 00H
	ORG $+2
$SG156690 DB	'C', 00H, 'R', 00H, 'Y', 00H, 'P', 00H, 'T', 00H, '_', 00H
	DB	'E', 00H, '_', 00H, 'N', 00H, 'O', 00H, '_', 00H, 'T', 00H, 'R'
	DB	00H, 'U', 00H, 'S', 00H, 'T', 00H, 'E', 00H, 'D', 00H, '_', 00H
	DB	'S', 00H, 'I', 00H, 'G', 00H, 'N', 00H, 'E', 00H, 'R', 00H, 00H
	DB	00H
$SG164883 DB	'E', 00H, 'R', 00H, 'R', 00H, 'O', 00H, 'R', 00H, '_', 00H
	DB	'C', 00H, 'A', 00H, 'L', 00H, 'L', 00H, 'B', 00H, 'A', 00H, 'C'
	DB	00H, 'K', 00H, '_', 00H, 'S', 00H, 'U', 00H, 'P', 00H, 'P', 00H
	DB	'L', 00H, 'I', 00H, 'E', 00H, 'D', 00H, '_', 00H, 'I', 00H, 'N'
	DB	00H, 'V', 00H, 'A', 00H, 'L', 00H, 'I', 00H, 'D', 00H, '_', 00H
	DB	'D', 00H, 'A', 00H, 'T', 00H, 'A', 00H, 00H, 00H
	ORG $+2
$SG160787 DB	'R', 00H, 'P', 00H, 'C', 00H, '_', 00H, 'X', 00H, '_', 00H
	DB	'P', 00H, 'I', 00H, 'P', 00H, 'E', 00H, '_', 00H, 'E', 00H, 'M'
	DB	00H, 'P', 00H, 'T', 00H, 'Y', 00H, 00H, 00H
	ORG $+2
$SG155667 DB	'O', 00H, 'L', 00H, 'E', 00H, 'O', 00H, 'B', 00H, 'J', 00H
	DB	'_', 00H, 'S', 00H, '_', 00H, 'F', 00H, 'I', 00H, 'R', 00H, 'S'
	DB	00H, 'T', 00H, 00H, 00H
	ORG $+2
$SG167956 DB	'D', 00H, 'X', 00H, 'G', 00H, 'I', 00H, '_', 00H, 'E', 00H
	DB	'R', 00H, 'R', 00H, 'O', 00H, 'R', 00H, '_', 00H, 'I', 00H, 'N'
	DB	00H, 'V', 00H, 'A', 00H, 'L', 00H, 'I', 00H, 'D', 00H, '_', 00H
	DB	'C', 00H, 'A', 00H, 'L', 00H, 'L', 00H, 00H, 00H
$SG165908 DB	'E', 00H, 'R', 00H, 'R', 00H, 'O', 00H, 'R', 00H, '_', 00H
	DB	'D', 00H, 'S', 00H, '_', 00H, 'D', 00H, 'R', 00H, 'A', 00H, '_'
	DB	00H, 'E', 00H, 'A', 00H, 'R', 00H, 'L', 00H, 'I', 00H, 'E', 00H
	DB	'R', 00H, '_', 00H, 'S', 00H, 'C', 00H, 'H', 00H, 'E', 00H, 'M'
	DB	00H, 'A', 00H, '_', 00H, 'C', 00H, 'O', 00H, 'N', 00H, 'F', 00H
	DB	'L', 00H, 'I', 00H, 'C', 00H, 'T', 00H, 00H, 00H
	ORG $+2
$SG163860 DB	'C', 00H, 'O', 00H, '_', 00H, 'E', 00H, '_', 00H, 'N', 00H
	DB	'O', 00H, 'S', 00H, 'Y', 00H, 'N', 00H, 'C', 00H, 'H', 00H, 'R'
	DB	00H, 'O', 00H, 'N', 00H, 'I', 00H, 'Z', 00H, 'A', 00H, 'T', 00H
	DB	'I', 00H, 'O', 00H, 'N', 00H, 00H, 00H
	ORG $+2
$SG156693 DB	'C', 00H, 'R', 00H, 'Y', 00H, 'P', 00H, 'T', 00H, '_', 00H
	DB	'E', 00H, '_', 00H, 'O', 00H, 'S', 00H, 'S', 00H, '_', 00H, 'E'
	DB	00H, 'R', 00H, 'R', 00H, 'O', 00H, 'R', 00H, 00H, 00H
$SG161812 DB	'E', 00H, 'R', 00H, 'R', 00H, 'O', 00H, 'R', 00H, '_', 00H
	DB	'D', 00H, 'S', 00H, '_', 00H, 'A', 00H, 'T', 00H, 'T', 00H, 'R'
	DB	00H, 'I', 00H, 'B', 00H, 'U', 00H, 'T', 00H, 'E', 00H, '_', 00H
	DB	'O', 00H, 'R', 00H, '_', 00H, 'V', 00H, 'A', 00H, 'L', 00H, 'U'
	DB	00H, 'E', 00H, '_', 00H, 'E', 00H, 'X', 00H, 'I', 00H, 'S', 00H
	DB	'T', 00H, 'S', 00H, 00H, 00H
	ORG $+2
$SG166933 DB	'E', 00H, 'R', 00H, 'R', 00H, 'O', 00H, 'R', 00H, '_', 00H
	DB	'I', 00H, 'P', 00H, 'S', 00H, 'E', 00H, 'C', 00H, '_', 00H, 'I'
	DB	00H, 'K', 00H, 'E', 00H, '_', 00H, 'I', 00H, 'N', 00H, 'V', 00H
	DB	'A', 00H, 'L', 00H, 'I', 00H, 'D', 00H, '_', 00H, 'K', 00H, 'E'
	DB	00H, 'Y', 00H, '_', 00H, 'U', 00H, 'S', 00H, 'A', 00H, 'G', 00H
	DB	'E', 00H, 00H, 00H
$SG162837 DB	'E', 00H, 'R', 00H, 'R', 00H, 'O', 00H, 'R', 00H, '_', 00H
	DB	'D', 00H, 'S', 00H, '_', 00H, 'D', 00H, 'R', 00H, 'A', 00H, '_'
	DB	00H, 'A', 00H, 'C', 00H, 'C', 00H, 'E', 00H, 'S', 00H, 'S', 00H
	DB	'_', 00H, 'D', 00H, 'E', 00H, 'N', 00H, 'I', 00H, 'E', 00H, 'D'
	DB	00H, 00H, 00H
	ORG $+2
$SG155669 DB	'O', 00H, 'L', 00H, 'E', 00H, 'O', 00H, 'B', 00H, 'J', 00H
	DB	'_', 00H, 'S', 00H, '_', 00H, 'L', 00H, 'A', 00H, 'S', 00H, 'T'
	DB	00H, 00H, 00H
$SG158742 DB	'E', 00H, 'R', 00H, 'R', 00H, 'O', 00H, 'R', 00H, '_', 00H
	DB	'O', 00H, 'L', 00H, 'D', 00H, '_', 00H, 'W', 00H, 'I', 00H, 'N'
	DB	00H, '_', 00H, 'V', 00H, 'E', 00H, 'R', 00H, 'S', 00H, 'I', 00H
	DB	'O', 00H, 'N', 00H, 00H, 00H
$SG157718 DB	'E', 00H, 'R', 00H, 'R', 00H, 'O', 00H, 'R', 00H, '_', 00H
	DB	'I', 00H, 'N', 00H, 'V', 00H, 'A', 00H, 'L', 00H, 'I', 00H, 'D'
	DB	00H, '_', 00H, 'C', 00H, 'A', 00H, 'T', 00H, 'E', 00H, 'G', 00H
	DB	'O', 00H, 'R', 00H, 'Y', 00H, 00H, 00H
	ORG $+2
$SG167959 DB	'D', 00H, 'X', 00H, 'G', 00H, 'I', 00H, '_', 00H, 'E', 00H
	DB	'R', 00H, 'R', 00H, 'O', 00H, 'R', 00H, '_', 00H, 'N', 00H, 'O'
	DB	00H, 'T', 00H, '_', 00H, 'F', 00H, 'O', 00H, 'U', 00H, 'N', 00H
	DB	'D', 00H, 00H, 00H
	ORG $+2
$SG163863 DB	'S', 00H, 'C', 00H, 'H', 00H, 'E', 00H, 'D', 00H, '_', 00H
	DB	'S', 00H, '_', 00H, 'T', 00H, 'A', 00H, 'S', 00H, 'K', 00H, '_'
	DB	00H, 'R', 00H, 'E', 00H, 'A', 00H, 'D', 00H, 'Y', 00H, 00H, 00H
	ORG $+2
$SG159767 DB	'E', 00H, 'R', 00H, 'R', 00H, 'O', 00H, 'R', 00H, '_', 00H
	DB	'I', 00H, 'N', 00H, 'V', 00H, 'A', 00H, 'L', 00H, 'I', 00H, 'D'
	DB	00H, '_', 00H, 'H', 00H, 'O', 00H, 'O', 00H, 'K', 00H, '_', 00H
	DB	'F', 00H, 'I', 00H, 'L', 00H, 'T', 00H, 'E', 00H, 'R', 00H, 00H
	DB	00H
$SG168984 DB	'T', 00H, 'h', 00H, 'e', 00H, ' ', 00H, 'v', 00H, 'i', 00H
	DB	'd', 00H, 'e', 00H, 'o', 00H, ' ', 00H, 'p', 00H, 'o', 00H, 'r'
	DB	00H, 't', 00H, ' ', 00H, 'i', 00H, 's', 00H, ' ', 00H, 'n', 00H
	DB	'o', 00H, 't', 00H, ' ', 00H, 'a', 00H, 'c', 00H, 't', 00H, 'i'
	DB	00H, 'v', 00H, 'e', 00H, 00H, 00H
	ORG $+2
$SG164888 DB	'E', 00H, 'R', 00H, 'R', 00H, 'O', 00H, 'R', 00H, '_', 00H
	DB	'S', 00H, 'Y', 00H, 'N', 00H, 'C', 00H, '_', 00H, 'F', 00H, 'O'
	DB	00H, 'R', 00H, 'E', 00H, 'G', 00H, 'R', 00H, 'O', 00H, 'U', 00H
	DB	'N', 00H, 'D', 00H, '_', 00H, 'R', 00H, 'E', 00H, 'F', 00H, 'R'
	DB	00H, 'E', 00H, 'S', 00H, 'H', 00H, '_', 00H, 'R', 00H, 'E', 00H
	DB	'Q', 00H, 'U', 00H, 'I', 00H, 'R', 00H, 'E', 00H, 'D', 00H, 00H
	DB	00H
	ORG $+2
$SG160792 DB	'E', 00H, 'R', 00H, 'R', 00H, 'O', 00H, 'R', 00H, '_', 00H
	DB	'N', 00H, 'O', 00H, '_', 00H, 'S', 00H, 'I', 00H, 'T', 00H, 'E'
	DB	00H, 'N', 00H, 'A', 00H, 'M', 00H, 'E', 00H, 00H, 00H
$SG156696 DB	'O', 00H, 'S', 00H, 'S', 00H, '_', 00H, 'M', 00H, 'O', 00H
	DB	'R', 00H, 'E', 00H, '_', 00H, 'B', 00H, 'U', 00H, 'F', 00H, 00H
	DB	00H
	ORG $+2
$SG155672 DB	'O', 00H, 'L', 00H, 'E', 00H, 'O', 00H, 'B', 00H, 'J', 00H
	DB	'_', 00H, 'E', 00H, '_', 00H, 'I', 00H, 'N', 00H, 'V', 00H, 'A'
	DB	00H, 'L', 00H, 'I', 00H, 'D', 00H, 'V', 00H, 'E', 00H, 'R', 00H
	DB	'B', 00H, 00H, 00H
	ORG $+2
$SG165913 DB	'E', 00H, 'R', 00H, 'R', 00H, 'O', 00H, 'R', 00H, '_', 00H
	DB	'D', 00H, 'S', 00H, '_', 00H, 'D', 00H, 'R', 00H, 'A', 00H, '_'
	DB	00H, 'O', 00H, 'B', 00H, 'J', 00H, '_', 00H, 'N', 00H, 'C', 00H
	DB	'_', 00H, 'M', 00H, 'I', 00H, 'S', 00H, 'M', 00H, 'A', 00H, 'T'
	DB	00H, 'C', 00H, 'H', 00H, 00H, 00H
	ORG $+2
$SG161817 DB	'E', 00H, 'R', 00H, 'R', 00H, 'O', 00H, 'R', 00H, '_', 00H
	DB	'D', 00H, 'S', 00H, '_', 00H, 'B', 00H, 'U', 00H, 'S', 00H, 'Y'
	DB	00H, 00H, 00H
$SG167962 DB	'D', 00H, 'X', 00H, 'G', 00H, 'I', 00H, '_', 00H, 'E', 00H
	DB	'R', 00H, 'R', 00H, 'O', 00H, 'R', 00H, '_', 00H, 'M', 00H, 'O'
	DB	00H, 'R', 00H, 'E', 00H, '_', 00H, 'D', 00H, 'A', 00H, 'T', 00H
	DB	'A', 00H, 00H, 00H
	ORG $+2
$SG166938 DB	'E', 00H, 'R', 00H, 'R', 00H, 'O', 00H, 'R', 00H, '_', 00H
	DB	'I', 00H, 'P', 00H, 'S', 00H, 'E', 00H, 'C', 00H, '_', 00H, 'I'
	DB	00H, 'K', 00H, 'E', 00H, '_', 00H, 'I', 00H, 'N', 00H, 'V', 00H
	DB	'A', 00H, 'L', 00H, 'I', 00H, 'D', 00H, '_', 00H, 'C', 00H, 'E'
	DB	00H, 'R', 00H, 'T', 00H, '_', 00H, 'T', 00H, 'Y', 00H, 'P', 00H
	DB	'E', 00H, 00H, 00H
$SG163866 DB	'S', 00H, 'C', 00H, 'H', 00H, 'E', 00H, 'D', 00H, '_', 00H
	DB	'S', 00H, '_', 00H, 'T', 00H, 'A', 00H, 'S', 00H, 'K', 00H, '_'
	DB	00H, 'R', 00H, 'U', 00H, 'N', 00H, 'N', 00H, 'I', 00H, 'N', 00H
	DB	'G', 00H, 00H, 00H
	ORG $+2
$SG162842 DB	'E', 00H, 'R', 00H, 'R', 00H, 'O', 00H, 'R', 00H, '_', 00H
	DB	'D', 00H, 'S', 00H, '_', 00H, 'D', 00H, 'R', 00H, 'A', 00H, '_'
	DB	00H, 'N', 00H, 'O', 00H, 'T', 00H, '_', 00H, 'S', 00H, 'U', 00H
	DB	'P', 00H, 'P', 00H, 'O', 00H, 'R', 00H, 'T', 00H, 'E', 00H, 'D'
	DB	00H, 00H, 00H
	ORG $+2
$SG155674 DB	'C', 00H, 'L', 00H, 'I', 00H, 'E', 00H, 'N', 00H, 'T', 00H
	DB	'S', 00H, 'I', 00H, 'T', 00H, 'E', 00H, '_', 00H, 'E', 00H, '_'
	DB	00H, 'F', 00H, 'I', 00H, 'R', 00H, 'S', 00H, 'T', 00H, 00H, 00H
	ORG $+2
$SG158747 DB	'E', 00H, 'R', 00H, 'R', 00H, 'O', 00H, 'R', 00H, '_', 00H
	DB	'A', 00H, 'P', 00H, 'P', 00H, '_', 00H, 'W', 00H, 'R', 00H, 'O'
	DB	00H, 'N', 00H, 'G', 00H, '_', 00H, 'O', 00H, 'S', 00H, 00H, 00H
	ORG $+2
$SG157723 DB	'E', 00H, 'R', 00H, 'R', 00H, 'O', 00H, 'R', 00H, '_', 00H
	DB	'I', 00H, 'N', 00H, 'V', 00H, 'A', 00H, 'L', 00H, 'I', 00H, 'D'
	DB	00H, '_', 00H, 'V', 00H, 'E', 00H, 'R', 00H, 'I', 00H, 'F', 00H
	DB	'Y', 00H, '_', 00H, 'S', 00H, 'W', 00H, 'I', 00H, 'T', 00H, 'C'
	DB	00H, 'H', 00H, 00H, 00H
$SG156699 DB	'O', 00H, 'S', 00H, 'S', 00H, '_', 00H, 'N', 00H, 'E', 00H
	DB	'G', 00H, 'A', 00H, 'T', 00H, 'I', 00H, 'V', 00H, 'E', 00H, '_'
	DB	00H, 'U', 00H, 'I', 00H, 'N', 00H, 'T', 00H, 'E', 00H, 'G', 00H
	DB	'E', 00H, 'R', 00H, 00H, 00H
$SG159772 DB	'E', 00H, 'R', 00H, 'R', 00H, 'O', 00H, 'R', 00H, '_', 00H
	DB	'I', 00H, 'N', 00H, 'V', 00H, 'A', 00H, 'L', 00H, 'I', 00H, 'D'
	DB	00H, '_', 00H, 'F', 00H, 'I', 00H, 'L', 00H, 'T', 00H, 'E', 00H
	DB	'R', 00H, '_', 00H, 'P', 00H, 'R', 00H, 'O', 00H, 'C', 00H, 00H
	DB	00H
$SG155676 DB	'C', 00H, 'L', 00H, 'I', 00H, 'E', 00H, 'N', 00H, 'T', 00H
	DB	'S', 00H, 'I', 00H, 'T', 00H, 'E', 00H, '_', 00H, 'E', 00H, '_'
	DB	00H, 'L', 00H, 'A', 00H, 'S', 00H, 'T', 00H, 00H, 00H
$SG167965 DB	'D', 00H, 'X', 00H, 'G', 00H, 'I', 00H, '_', 00H, 'E', 00H
	DB	'R', 00H, 'R', 00H, 'O', 00H, 'R', 00H, '_', 00H, 'U', 00H, 'N'
	DB	00H, 'S', 00H, 'U', 00H, 'P', 00H, 'P', 00H, 'O', 00H, 'R', 00H
	DB	'T', 00H, 'E', 00H, 'D', 00H, 00H, 00H
	ORG $+2
$SG164893 DB	'E', 00H, 'R', 00H, 'R', 00H, 'O', 00H, 'R', 00H, '_', 00H
	DB	'D', 00H, 'R', 00H, 'I', 00H, 'V', 00H, 'E', 00H, 'R', 00H, '_'
	DB	00H, 'B', 00H, 'L', 00H, 'O', 00H, 'C', 00H, 'K', 00H, 'E', 00H
	DB	'D', 00H, 00H, 00H
	ORG $+2
$SG163869 DB	'S', 00H, 'C', 00H, 'H', 00H, 'E', 00H, 'D', 00H, '_', 00H
	DB	'S', 00H, '_', 00H, 'T', 00H, 'A', 00H, 'S', 00H, 'K', 00H, '_'
	DB	00H, 'D', 00H, 'I', 00H, 'S', 00H, 'A', 00H, 'B', 00H, 'L', 00H
	DB	'E', 00H, 'D', 00H, 00H, 00H
$SG160797 DB	'E', 00H, 'R', 00H, 'R', 00H, 'O', 00H, 'R', 00H, '_', 00H
	DB	'C', 00H, 'A', 00H, 'N', 00H, 'T', 00H, '_', 00H, 'A', 00H, 'C'
	DB	00H, 'C', 00H, 'E', 00H, 'S', 00H, 'S', 00H, '_', 00H, 'F', 00H
	DB	'I', 00H, 'L', 00H, 'E', 00H, 00H, 00H
	ORG $+2
$SG161822 DB	'E', 00H, 'R', 00H, 'R', 00H, 'O', 00H, 'R', 00H, '_', 00H
	DB	'D', 00H, 'S', 00H, '_', 00H, 'U', 00H, 'N', 00H, 'A', 00H, 'V'
	DB	00H, 'A', 00H, 'I', 00H, 'L', 00H, 'A', 00H, 'B', 00H, 'L', 00H
	DB	'E', 00H, 00H, 00H
	ORG $+2
$SG168990 DB	'T', 00H, 'h', 00H, 'e', 00H, ' ', 00H, 'm', 00H, 'o', 00H
	DB	'n', 00H, 'i', 00H, 't', 00H, 'o', 00H, 'r', 00H, ' ', 00H, 'd'
	DB	00H, 'o', 00H, 'e', 00H, 's', 00H, ' ', 00H, 'n', 00H, 'o', 00H
	DB	't', 00H, ' ', 00H, 'h', 00H, 'a', 00H, 'v', 00H, 'e', 00H, ' '
	DB	00H, 'E', 00H, 'D', 00H, 'I', 00H, 'D', 00H, ' ', 00H, 'd', 00H
	DB	'a', 00H, 't', 00H, 'a', 00H, '.', 00H, 00H, 00H
	ORG $+2
$SG165918 DB	'E', 00H, 'R', 00H, 'R', 00H, 'O', 00H, 'R', 00H, '_', 00H
	DB	'D', 00H, 'S', 00H, '_', 00H, 'N', 00H, 'C', 00H, '_', 00H, 'S'
	DB	00H, 'T', 00H, 'I', 00H, 'L', 00H, 'L', 00H, '_', 00H, 'H', 00H
	DB	'A', 00H, 'S', 00H, '_', 00H, 'D', 00H, 'S', 00H, 'A', 00H, 'S'
	DB	00H, 00H, 00H
	ORG $+2
$SG156702 DB	'O', 00H, 'S', 00H, 'S', 00H, '_', 00H, 'P', 00H, 'D', 00H
	DB	'U', 00H, '_', 00H, 'R', 00H, 'A', 00H, 'N', 00H, 'G', 00H, 'E'
	DB	00H, 00H, 00H
$SG155678 DB	'C', 00H, 'L', 00H, 'I', 00H, 'E', 00H, 'N', 00H, 'T', 00H
	DB	'S', 00H, 'I', 00H, 'T', 00H, 'E', 00H, '_', 00H, 'S', 00H, '_'
	DB	00H, 'F', 00H, 'I', 00H, 'R', 00H, 'S', 00H, 'T', 00H, 00H, 00H
	ORG $+2
$SG166943 DB	'E', 00H, 'R', 00H, 'R', 00H, 'O', 00H, 'R', 00H, '_', 00H
	DB	'I', 00H, 'P', 00H, 'S', 00H, 'E', 00H, 'C', 00H, '_', 00H, 'I'
	DB	00H, 'K', 00H, 'E', 00H, '_', 00H, 'N', 00H, 'O', 00H, '_', 00H
	DB	'P', 00H, 'R', 00H, 'I', 00H, 'V', 00H, 'A', 00H, 'T', 00H, 'E'
	DB	00H, '_', 00H, 'K', 00H, 'E', 00H, 'Y', 00H, 00H, 00H
	ORG $+2
$SG162847 DB	'E', 00H, 'R', 00H, 'R', 00H, 'O', 00H, 'R', 00H, '_', 00H
	DB	'D', 00H, 'S', 00H, '_', 00H, 'D', 00H, 'R', 00H, 'A', 00H, '_'
	DB	00H, 'R', 00H, 'P', 00H, 'C', 00H, '_', 00H, 'C', 00H, 'A', 00H
	DB	'N', 00H, 'C', 00H, 'E', 00H, 'L', 00H, 'L', 00H, 'E', 00H, 'D'
	DB	00H, 00H, 00H
	ORG $+2
$SG167968 DB	'D', 00H, 'X', 00H, 'G', 00H, 'I', 00H, '_', 00H, 'E', 00H
	DB	'R', 00H, 'R', 00H, 'O', 00H, 'R', 00H, '_', 00H, 'D', 00H, 'E'
	DB	00H, 'V', 00H, 'I', 00H, 'C', 00H, 'E', 00H, '_', 00H, 'R', 00H
	DB	'E', 00H, 'M', 00H, 'O', 00H, 'V', 00H, 'E', 00H, 'D', 00H, 00H
	DB	00H
$SG163872 DB	'S', 00H, 'C', 00H, 'H', 00H, 'E', 00H, 'D', 00H, '_', 00H
	DB	'S', 00H, '_', 00H, 'T', 00H, 'A', 00H, 'S', 00H, 'K', 00H, '_'
	DB	00H, 'H', 00H, 'A', 00H, 'S', 00H, '_', 00H, 'N', 00H, 'O', 00H
	DB	'T', 00H, '_', 00H, 'R', 00H, 'U', 00H, 'N', 00H, 00H, 00H
	ORG $+2
$SG158752 DB	'E', 00H, 'R', 00H, 'R', 00H, 'O', 00H, 'R', 00H, '_', 00H
	DB	'S', 00H, 'I', 00H, 'N', 00H, 'G', 00H, 'L', 00H, 'E', 00H, '_'
	DB	00H, 'I', 00H, 'N', 00H, 'S', 00H, 'T', 00H, 'A', 00H, 'N', 00H
	DB	'C', 00H, 'E', 00H, '_', 00H, 'A', 00H, 'P', 00H, 'P', 00H, 00H
	DB	00H
$SG157728 DB	'E', 00H, 'R', 00H, 'R', 00H, 'O', 00H, 'R', 00H, '_', 00H
	DB	'B', 00H, 'A', 00H, 'D', 00H, '_', 00H, 'D', 00H, 'R', 00H, 'I'
	DB	00H, 'V', 00H, 'E', 00H, 'R', 00H, '_', 00H, 'L', 00H, 'E', 00H
	DB	'V', 00H, 'E', 00H, 'L', 00H, 00H, 00H
	ORG $+2
$SG155680 DB	'C', 00H, 'L', 00H, 'I', 00H, 'E', 00H, 'N', 00H, 'T', 00H
	DB	'S', 00H, 'I', 00H, 'T', 00H, 'E', 00H, '_', 00H, 'S', 00H, '_'
	DB	00H, 'L', 00H, 'A', 00H, 'S', 00H, 'T', 00H, 00H, 00H
$SG159777 DB	'E', 00H, 'R', 00H, 'R', 00H, 'O', 00H, 'R', 00H, '_', 00H
	DB	'H', 00H, 'O', 00H, 'O', 00H, 'K', 00H, '_', 00H, 'N', 00H, 'E'
	DB	00H, 'E', 00H, 'D', 00H, 'S', 00H, '_', 00H, 'H', 00H, 'M', 00H
	DB	'O', 00H, 'D', 00H, 00H, 00H
$SG156705 DB	'O', 00H, 'S', 00H, 'S', 00H, '_', 00H, 'M', 00H, 'O', 00H
	DB	'R', 00H, 'E', 00H, '_', 00H, 'I', 00H, 'N', 00H, 'P', 00H, 'U'
	DB	00H, 'T', 00H, 00H, 00H
	ORG $+2
$SG160802 DB	'E', 00H, 'R', 00H, 'R', 00H, 'O', 00H, 'R', 00H, '_', 00H
	DB	'C', 00H, 'A', 00H, 'N', 00H, 'T', 00H, '_', 00H, 'R', 00H, 'E'
	DB	00H, 'S', 00H, 'O', 00H, 'L', 00H, 'V', 00H, 'E', 00H, '_', 00H
	DB	'F', 00H, 'I', 00H, 'L', 00H, 'E', 00H, 'N', 00H, 'A', 00H, 'M'
	DB	00H, 'E', 00H, 00H, 00H
$SG165923 DB	'E', 00H, 'R', 00H, 'R', 00H, 'O', 00H, 'R', 00H, '_', 00H
	DB	'D', 00H, 'S', 00H, '_', 00H, 'G', 00H, 'C', 00H, '_', 00H, 'R'
	DB	00H, 'E', 00H, 'Q', 00H, 'U', 00H, 'I', 00H, 'R', 00H, 'E', 00H
	DB	'D', 00H, 00H, 00H
	ORG $+2
$SG164898 DB	'E', 00H, 'R', 00H, 'R', 00H, 'O', 00H, 'R', 00H, '_', 00H
	DB	'I', 00H, 'N', 00H, 'V', 00H, 'A', 00H, 'L', 00H, 'I', 00H, 'D'
	DB	00H, '_', 00H, 'I', 00H, 'M', 00H, 'P', 00H, 'O', 00H, 'R', 00H
	DB	'T', 00H, '_', 00H, 'O', 00H, 'F', 00H, '_', 00H, 'N', 00H, 'O'
	DB	00H, 'N', 00H, '_', 00H, 'D', 00H, 'L', 00H, 'L', 00H, 00H, 00H
$SG167971 DB	'D', 00H, 'X', 00H, 'G', 00H, 'I', 00H, '_', 00H, 'E', 00H
	DB	'R', 00H, 'R', 00H, 'O', 00H, 'R', 00H, '_', 00H, 'D', 00H, 'E'
	DB	00H, 'V', 00H, 'I', 00H, 'C', 00H, 'E', 00H, '_', 00H, 'H', 00H
	DB	'U', 00H, 'N', 00H, 'G', 00H, 00H, 00H
	ORG $+2
$SG163875 DB	'S', 00H, 'C', 00H, 'H', 00H, 'E', 00H, 'D', 00H, '_', 00H
	DB	'S', 00H, '_', 00H, 'T', 00H, 'A', 00H, 'S', 00H, 'K', 00H, '_'
	DB	00H, 'N', 00H, 'O', 00H, '_', 00H, 'M', 00H, 'O', 00H, 'R', 00H
	DB	'E', 00H, '_', 00H, 'R', 00H, 'U', 00H, 'N', 00H, 'S', 00H, 00H
	DB	00H
$SG161827 DB	'E', 00H, 'R', 00H, 'R', 00H, 'O', 00H, 'R', 00H, '_', 00H
	DB	'D', 00H, 'S', 00H, '_', 00H, 'N', 00H, 'O', 00H, '_', 00H, 'R'
	DB	00H, 'I', 00H, 'D', 00H, 'S', 00H, '_', 00H, 'A', 00H, 'L', 00H
	DB	'L', 00H, 'O', 00H, 'C', 00H, 'A', 00H, 'T', 00H, 'E', 00H, 'D'
	DB	00H, 00H, 00H
	ORG $+2
$SG155683 DB	'I', 00H, 'N', 00H, 'P', 00H, 'L', 00H, 'A', 00H, 'C', 00H
	DB	'E', 00H, '_', 00H, 'E', 00H, '_', 00H, 'N', 00H, 'O', 00H, 'T'
	DB	00H, 'U', 00H, 'N', 00H, 'D', 00H, 'O', 00H, 'A', 00H, 'B', 00H
	DB	'L', 00H, 'E', 00H, 00H, 00H
$SG168996 DB	'T', 00H, 'h', 00H, 'e', 00H, ' ', 00H, 'd', 00H, 'r', 00H
	DB	'i', 00H, 'v', 00H, 'e', 00H, 'r', 00H, ' ', 00H, 'd', 00H, 'o'
	DB	00H, 'e', 00H, 's', 00H, ' ', 00H, 'n', 00H, 'o', 00H, 't', 00H
	DB	' ', 00H, 'e', 00H, 'n', 00H, 'u', 00H, 'm', 00H, 'e', 00H, 'r'
	DB	00H, 'a', 00H, 't', 00H, 'e', 00H, ' ', 00H, 'd', 00H, 'i', 00H
	DB	's', 00H, 'p', 00H, 'l', 00H, 'a', 00H, 'y', 00H, ' ', 00H, 'm'
	DB	00H, 'o', 00H, 'd', 00H, 'e', 00H, ' ', 00H, 'r', 00H, 'e', 00H
	DB	'f', 00H, 'r', 00H, 'e', 00H, 's', 00H, 'h', 00H, ' ', 00H, 'r'
	DB	00H, 'a', 00H, 't', 00H, 'e', 00H, 's', 00H, '.', 00H, 00H, 00H
$SG166948 DB	'E', 00H, 'R', 00H, 'R', 00H, 'O', 00H, 'R', 00H, '_', 00H
	DB	'I', 00H, 'P', 00H, 'S', 00H, 'E', 00H, 'C', 00H, '_', 00H, 'I'
	DB	00H, 'K', 00H, 'E', 00H, '_', 00H, 'D', 00H, 'H', 00H, '_', 00H
	DB	'F', 00H, 'A', 00H, 'I', 00H, 'L', 00H, 00H, 00H
$SG162852 DB	'E', 00H, 'R', 00H, 'R', 00H, 'O', 00H, 'R', 00H, '_', 00H
	DB	'D', 00H, 'S', 00H, '_', 00H, 'D', 00H, 'R', 00H, 'A', 00H, '_'
	DB	00H, 'S', 00H, 'O', 00H, 'U', 00H, 'R', 00H, 'C', 00H, 'E', 00H
	DB	'_', 00H, 'D', 00H, 'I', 00H, 'S', 00H, 'A', 00H, 'B', 00H, 'L'
	DB	00H, 'E', 00H, 'D', 00H, 00H, 00H
	ORG $+2
$SG156708 DB	'O', 00H, 'S', 00H, 'S', 00H, '_', 00H, 'D', 00H, 'A', 00H
	DB	'T', 00H, 'A', 00H, '_', 00H, 'E', 00H, 'R', 00H, 'R', 00H, 'O'
	DB	00H, 'R', 00H, 00H, 00H
	ORG $+2
$SG158757 DB	'E', 00H, 'R', 00H, 'R', 00H, 'O', 00H, 'R', 00H, '_', 00H
	DB	'R', 00H, 'M', 00H, 'O', 00H, 'D', 00H, 'E', 00H, '_', 00H, 'A'
	DB	00H, 'P', 00H, 'P', 00H, 00H, 00H
$SG157733 DB	'E', 00H, 'R', 00H, 'R', 00H, 'O', 00H, 'R', 00H, '_', 00H
	DB	'C', 00H, 'A', 00H, 'L', 00H, 'L', 00H, '_', 00H, 'N', 00H, 'O'
	DB	00H, 'T', 00H, '_', 00H, 'I', 00H, 'M', 00H, 'P', 00H, 'L', 00H
	DB	'E', 00H, 'M', 00H, 'E', 00H, 'N', 00H, 'T', 00H, 'E', 00H, 'D'
	DB	00H, 00H, 00H
	ORG $+2
$SG167974 DB	'D', 00H, 'X', 00H, 'G', 00H, 'I', 00H, '_', 00H, 'E', 00H
	DB	'R', 00H, 'R', 00H, 'O', 00H, 'R', 00H, '_', 00H, 'D', 00H, 'E'
	DB	00H, 'V', 00H, 'I', 00H, 'C', 00H, 'E', 00H, '_', 00H, 'R', 00H
	DB	'E', 00H, 'S', 00H, 'E', 00H, 'T', 00H, 00H, 00H
$SG163878 DB	'S', 00H, 'C', 00H, 'H', 00H, 'E', 00H, 'D', 00H, '_', 00H
	DB	'S', 00H, '_', 00H, 'T', 00H, 'A', 00H, 'S', 00H, 'K', 00H, '_'
	DB	00H, 'N', 00H, 'O', 00H, 'T', 00H, '_', 00H, 'S', 00H, 'C', 00H
	DB	'H', 00H, 'E', 00H, 'D', 00H, 'U', 00H, 'L', 00H, 'E', 00H, 'D'
	DB	00H, 00H, 00H
	ORG $+2
$SG159782 DB	'E', 00H, 'R', 00H, 'R', 00H, 'O', 00H, 'R', 00H, '_', 00H
	DB	'G', 00H, 'L', 00H, 'O', 00H, 'B', 00H, 'A', 00H, 'L', 00H, '_'
	DB	00H, 'O', 00H, 'N', 00H, 'L', 00H, 'Y', 00H, '_', 00H, 'H', 00H
	DB	'O', 00H, 'O', 00H, 'K', 00H, 00H, 00H
	ORG $+2
$SG155686 DB	'I', 00H, 'N', 00H, 'P', 00H, 'L', 00H, 'A', 00H, 'C', 00H
	DB	'E', 00H, '_', 00H, 'E', 00H, '_', 00H, 'N', 00H, 'O', 00H, 'T'
	DB	00H, 'O', 00H, 'O', 00H, 'L', 00H, 'S', 00H, 'P', 00H, 'A', 00H
	DB	'C', 00H, 'E', 00H, 00H, 00H
$SG161832 DB	'E', 00H, 'R', 00H, 'R', 00H, 'O', 00H, 'R', 00H, '_', 00H
	DB	'D', 00H, 'S', 00H, '_', 00H, 'N', 00H, 'O', 00H, '_', 00H, 'M'
	DB	00H, 'O', 00H, 'R', 00H, 'E', 00H, '_', 00H, 'R', 00H, 'I', 00H
	DB	'D', 00H, 'S', 00H, 00H, 00H
$SG164903 DB	'E', 00H, 'R', 00H, 'R', 00H, 'O', 00H, 'R', 00H, '_', 00H
	DB	'C', 00H, 'U', 00H, 'R', 00H, 'R', 00H, 'E', 00H, 'N', 00H, 'T'
	DB	00H, '_', 00H, 'D', 00H, 'O', 00H, 'M', 00H, 'A', 00H, 'I', 00H
	DB	'N', 00H, '_', 00H, 'N', 00H, 'O', 00H, 'T', 00H, '_', 00H, 'A'
	DB	00H, 'L', 00H, 'L', 00H, 'O', 00H, 'W', 00H, 'E', 00H, 'D', 00H
	DB	00H, 00H
	ORG $+2
$SG160807 DB	'E', 00H, 'R', 00H, 'R', 00H, 'O', 00H, 'R', 00H, '_', 00H
	DB	'I', 00H, 'N', 00H, 'V', 00H, 'A', 00H, 'L', 00H, 'I', 00H, 'D'
	DB	00H, '_', 00H, 'P', 00H, 'I', 00H, 'X', 00H, 'E', 00H, 'L', 00H
	DB	'_', 00H, 'F', 00H, 'O', 00H, 'R', 00H, 'M', 00H, 'A', 00H, 'T'
	DB	00H, 00H, 00H
	ORG $+2
$SG156711 DB	'O', 00H, 'S', 00H, 'S', 00H, '_', 00H, 'B', 00H, 'A', 00H
	DB	'D', 00H, '_', 00H, 'A', 00H, 'R', 00H, 'G', 00H, 00H, 00H
$SG167977 DB	'D', 00H, 'X', 00H, 'G', 00H, 'I', 00H, '_', 00H, 'E', 00H
	DB	'R', 00H, 'R', 00H, 'O', 00H, 'R', 00H, '_', 00H, 'W', 00H, 'A'
	DB	00H, 'S', 00H, '_', 00H, 'S', 00H, 'T', 00H, 'I', 00H, 'L', 00H
	DB	'L', 00H, '_', 00H, 'D', 00H, 'R', 00H, 'A', 00H, 'W', 00H, 'I'
	DB	00H, 'N', 00H, 'G', 00H, 00H, 00H
	ORG $+2
$SG165928 DB	'E', 00H, 'R', 00H, 'R', 00H, 'O', 00H, 'R', 00H, '_', 00H
	DB	'D', 00H, 'S', 00H, '_', 00H, 'L', 00H, 'O', 00H, 'C', 00H, 'A'
	DB	00H, 'L', 00H, '_', 00H, 'M', 00H, 'E', 00H, 'M', 00H, 'B', 00H
	DB	'E', 00H, 'R', 00H, '_', 00H, 'O', 00H, 'F', 00H, '_', 00H, 'L'
	DB	00H, 'O', 00H, 'C', 00H, 'A', 00H, 'L', 00H, '_', 00H, 'O', 00H
	DB	'N', 00H, 'L', 00H, 'Y', 00H, 00H, 00H
$SG155688 DB	'I', 00H, 'N', 00H, 'P', 00H, 'L', 00H, 'A', 00H, 'C', 00H
	DB	'E', 00H, '_', 00H, 'E', 00H, '_', 00H, 'L', 00H, 'A', 00H, 'S'
	DB	00H, 'T', 00H, 00H, 00H
	ORG $+2
$SG166953 DB	'E', 00H, 'R', 00H, 'R', 00H, 'O', 00H, 'R', 00H, '_', 00H
	DB	'I', 00H, 'P', 00H, 'S', 00H, 'E', 00H, 'C', 00H, '_', 00H, 'I'
	DB	00H, 'K', 00H, 'E', 00H, '_', 00H, 'I', 00H, 'N', 00H, 'V', 00H
	DB	'A', 00H, 'L', 00H, 'I', 00H, 'D', 00H, '_', 00H, 'H', 00H, 'E'
	DB	00H, 'A', 00H, 'D', 00H, 'E', 00H, 'R', 00H, 00H, 00H
	ORG $+2
$SG163881 DB	'S', 00H, 'C', 00H, 'H', 00H, 'E', 00H, 'D', 00H, '_', 00H
	DB	'S', 00H, '_', 00H, 'T', 00H, 'A', 00H, 'S', 00H, 'K', 00H, '_'
	DB	00H, 'T', 00H, 'E', 00H, 'R', 00H, 'M', 00H, 'I', 00H, 'N', 00H
	DB	'A', 00H, 'T', 00H, 'E', 00H, 'D', 00H, 00H, 00H
$SG162857 DB	'E', 00H, 'R', 00H, 'R', 00H, 'O', 00H, 'R', 00H, '_', 00H
	DB	'D', 00H, 'S', 00H, '_', 00H, 'D', 00H, 'R', 00H, 'A', 00H, '_'
	DB	00H, 'S', 00H, 'I', 00H, 'N', 00H, 'K', 00H, '_', 00H, 'D', 00H
	DB	'I', 00H, 'S', 00H, 'A', 00H, 'B', 00H, 'L', 00H, 'E', 00H, 'D'
	DB	00H, 00H, 00H
	ORG $+2
$SG169002 DB	'S', 00H, 'u', 00H, 'r', 00H, 'f', 00H, 'a', 00H, 'c', 00H
	DB	'e', 00H, 's', 00H, ' ', 00H, 'c', 00H, 'r', 00H, 'e', 00H, 'a'
	DB	00H, 't', 00H, 'e', 00H, 'd', 00H, ' ', 00H, 'b', 00H, 'y', 00H
	DB	' ', 00H, 'o', 00H, 'n', 00H, 'e', 00H, ' ', 00H, 'd', 00H, 'i'
	DB	00H, 'r', 00H, 'e', 00H, 'c', 00H, 't', 00H, ' ', 00H, 'd', 00H
	DB	'r', 00H, 'a', 00H, 'w', 00H, ' ', 00H, 'd', 00H, 'e', 00H, 'v'
	DB	00H, 'i', 00H, 'c', 00H, 'e', 00H, ' ', 00H, 'c', 00H, 'a', 00H
	DB	'n', 00H, 'n', 00H, 'o', 00H, 't', 00H, ' ', 00H, 'b', 00H, 'e'
	DB	00H, ' ', 00H, 'u', 00H, 's', 00H, 'e', 00H, 'd', 00H, ' ', 00H
	DB	'd', 00H, 'i', 00H, 'r', 00H, 'e', 00H, 'c', 00H, 't', 00H, 'l'
	DB	00H, 'y', 00H, ' ', 00H, 'b', 00H, 'y', 00H, ' ', 00H, 'a', 00H
	DB	'n', 00H, 'o', 00H, 't', 00H, 'h', 00H, 'e', 00H, 'r', 00H, ' '
	DB	00H, 'd', 00H, 'i', 00H, 'r', 00H, 'e', 00H, 'c', 00H, 't', 00H
	DB	' ', 00H, 'd', 00H, 'r', 00H, 'a', 00H, 'w', 00H, ' ', 00H, 'd'
	DB	00H, 'e', 00H, 'v', 00H, 'i', 00H, 'c', 00H, 'e', 00H, '.', 00H
	DB	00H, 00H
$SG158762 DB	'E', 00H, 'R', 00H, 'R', 00H, 'O', 00H, 'R', 00H, '_', 00H
	DB	'I', 00H, 'N', 00H, 'V', 00H, 'A', 00H, 'L', 00H, 'I', 00H, 'D'
	DB	00H, '_', 00H, 'D', 00H, 'L', 00H, 'L', 00H, 00H, 00H
$SG157738 DB	'E', 00H, 'R', 00H, 'R', 00H, 'O', 00H, 'R', 00H, '_', 00H
	DB	'S', 00H, 'E', 00H, 'M', 00H, '_', 00H, 'T', 00H, 'I', 00H, 'M'
	DB	00H, 'E', 00H, 'O', 00H, 'U', 00H, 'T', 00H, 00H, 00H
$SG156714 DB	'O', 00H, 'S', 00H, 'S', 00H, '_', 00H, 'B', 00H, 'A', 00H
	DB	'D', 00H, '_', 00H, 'V', 00H, 'E', 00H, 'R', 00H, 'S', 00H, 'I'
	DB	00H, 'O', 00H, 'N', 00H, 00H, 00H
$SG155690 DB	'I', 00H, 'N', 00H, 'P', 00H, 'L', 00H, 'A', 00H, 'C', 00H
	DB	'E', 00H, '_', 00H, 'S', 00H, '_', 00H, 'F', 00H, 'I', 00H, 'R'
	DB	00H, 'S', 00H, 'T', 00H, 00H, 00H
$SG159787 DB	'E', 00H, 'R', 00H, 'R', 00H, 'O', 00H, 'R', 00H, '_', 00H
	DB	'J', 00H, 'O', 00H, 'U', 00H, 'R', 00H, 'N', 00H, 'A', 00H, 'L'
	DB	00H, '_', 00H, 'H', 00H, 'O', 00H, 'O', 00H, 'K', 00H, '_', 00H
	DB	'S', 00H, 'E', 00H, 'T', 00H, 00H, 00H
	ORG $+2
$SG164908 DB	'E', 00H, 'R', 00H, 'R', 00H, 'O', 00H, 'R', 00H, '_', 00H
	DB	'I', 00H, 'N', 00H, 'S', 00H, 'T', 00H, 'A', 00H, 'L', 00H, 'L'
	DB	00H, '_', 00H, 'S', 00H, 'E', 00H, 'R', 00H, 'V', 00H, 'I', 00H
	DB	'C', 00H, 'E', 00H, '_', 00H, 'F', 00H, 'A', 00H, 'I', 00H, 'L'
	DB	00H, 'U', 00H, 'R', 00H, 'E', 00H, 00H, 00H
$SG167980 DB	'D', 00H, 'X', 00H, 'G', 00H, 'I', 00H, '_', 00H, 'E', 00H
	DB	'R', 00H, 'R', 00H, 'O', 00H, 'R', 00H, '_', 00H, 'F', 00H, 'R'
	DB	00H, 'A', 00H, 'M', 00H, 'E', 00H, '_', 00H, 'S', 00H, 'T', 00H
	DB	'A', 00H, 'T', 00H, 'I', 00H, 'S', 00H, 'T', 00H, 'I', 00H, 'C'
	DB	00H, 'S', 00H, '_', 00H, 'D', 00H, 'I', 00H, 'S', 00H, 'J', 00H
	DB	'O', 00H, 'I', 00H, 'N', 00H, 'T', 00H, 00H, 00H
	ORG $+2
$SG163884 DB	'S', 00H, 'C', 00H, 'H', 00H, 'E', 00H, 'D', 00H, '_', 00H
	DB	'S', 00H, '_', 00H, 'T', 00H, 'A', 00H, 'S', 00H, 'K', 00H, '_'
	DB	00H, 'N', 00H, 'O', 00H, '_', 00H, 'V', 00H, 'A', 00H, 'L', 00H
	DB	'I', 00H, 'D', 00H, '_', 00H, 'T', 00H, 'R', 00H, 'I', 00H, 'G'
	DB	00H, 'G', 00H, 'E', 00H, 'R', 00H, 'S', 00H, 00H, 00H
	ORG $+2
$SG160812 DB	'E', 00H, 'R', 00H, 'R', 00H, 'O', 00H, 'R', 00H, '_', 00H
	DB	'B', 00H, 'A', 00H, 'D', 00H, '_', 00H, 'D', 00H, 'R', 00H, 'I'
	DB	00H, 'V', 00H, 'E', 00H, 'R', 00H, 00H, 00H
	ORG $+2
$SG155692 DB	'I', 00H, 'N', 00H, 'P', 00H, 'L', 00H, 'A', 00H, 'C', 00H
	DB	'E', 00H, '_', 00H, 'S', 00H, '_', 00H, 'L', 00H, 'A', 00H, 'S'
	DB	00H, 'T', 00H, 00H, 00H
	ORG $+2
$SG169005 DB	'T', 00H, 'h', 00H, 'e', 00H, 'r', 00H, 'e', 00H, ' ', 00H
	DB	'a', 00H, 'r', 00H, 'e', 00H, ' ', 00H, 't', 00H, 'o', 00H, 'o'
	DB	00H, ' ', 00H, 'm', 00H, 'a', 00H, 'n', 00H, 'y', 00H, ' ', 00H
	DB	'u', 00H, 'n', 00H, 'i', 00H, 'q', 00H, 'u', 00H, 'e', 00H, ' '
	DB	00H, 's', 00H, 't', 00H, 'a', 00H, 't', 00H, 'e', 00H, ' ', 00H
	DB	'o', 00H, 'b', 00H, 'j', 00H, 'e', 00H, 'c', 00H, 't', 00H, 's'
	DB	00H, '.', 00H, 00H, 00H
	ORG $+2
$SG161837 DB	'E', 00H, 'R', 00H, 'R', 00H, 'O', 00H, 'R', 00H, '_', 00H
	DB	'D', 00H, 'S', 00H, '_', 00H, 'I', 00H, 'N', 00H, 'C', 00H, 'O'
	DB	00H, 'R', 00H, 'R', 00H, 'E', 00H, 'C', 00H, 'T', 00H, '_', 00H
	DB	'R', 00H, 'O', 00H, 'L', 00H, 'E', 00H, '_', 00H, 'O', 00H, 'W'
	DB	00H, 'N', 00H, 'E', 00H, 'R', 00H, 00H, 00H
$SG165933 DB	'E', 00H, 'R', 00H, 'R', 00H, 'O', 00H, 'R', 00H, '_', 00H
	DB	'D', 00H, 'S', 00H, '_', 00H, 'N', 00H, 'O', 00H, '_', 00H, 'F'
	DB	00H, 'P', 00H, 'O', 00H, '_', 00H, 'I', 00H, 'N', 00H, '_', 00H
	DB	'U', 00H, 'N', 00H, 'I', 00H, 'V', 00H, 'E', 00H, 'R', 00H, 'S'
	DB	00H, 'A', 00H, 'L', 00H, '_', 00H, 'G', 00H, 'R', 00H, 'O', 00H
	DB	'U', 00H, 'P', 00H, 'S', 00H, 00H, 00H
$SG156717 DB	'O', 00H, 'S', 00H, 'S', 00H, '_', 00H, 'O', 00H, 'U', 00H
	DB	'T', 00H, '_', 00H, 'M', 00H, 'E', 00H, 'M', 00H, 'O', 00H, 'R'
	DB	00H, 'Y', 00H, 00H, 00H
	ORG $+2
$SG166958 DB	'E', 00H, 'R', 00H, 'R', 00H, 'O', 00H, 'R', 00H, '_', 00H
	DB	'I', 00H, 'P', 00H, 'S', 00H, 'E', 00H, 'C', 00H, '_', 00H, 'I'
	DB	00H, 'K', 00H, 'E', 00H, '_', 00H, 'N', 00H, 'O', 00H, '_', 00H
	DB	'P', 00H, 'O', 00H, 'L', 00H, 'I', 00H, 'C', 00H, 'Y', 00H, 00H
	DB	00H
$SG162862 DB	'E', 00H, 'R', 00H, 'R', 00H, 'O', 00H, 'R', 00H, '_', 00H
	DB	'D', 00H, 'S', 00H, '_', 00H, 'D', 00H, 'R', 00H, 'A', 00H, '_'
	DB	00H, 'N', 00H, 'A', 00H, 'M', 00H, 'E', 00H, '_', 00H, 'C', 00H
	DB	'O', 00H, 'L', 00H, 'L', 00H, 'I', 00H, 'S', 00H, 'I', 00H, 'O'
	DB	00H, 'N', 00H, 00H, 00H
$SG155694 DB	'E', 00H, 'N', 00H, 'U', 00H, 'M', 00H, '_', 00H, 'E', 00H
	DB	'_', 00H, 'F', 00H, 'I', 00H, 'R', 00H, 'S', 00H, 'T', 00H, 00H
	DB	00H
	ORG $+2
$SG167983 DB	'D', 00H, 'X', 00H, 'G', 00H, 'I', 00H, '_', 00H, 'E', 00H
	DB	'R', 00H, 'R', 00H, 'O', 00H, 'R', 00H, '_', 00H, 'G', 00H, 'R'
	DB	00H, 'A', 00H, 'P', 00H, 'H', 00H, 'I', 00H, 'C', 00H, 'S', 00H
	DB	'_', 00H, 'V', 00H, 'I', 00H, 'D', 00H, 'P', 00H, 'N', 00H, '_'
	DB	00H, 'S', 00H, 'O', 00H, 'U', 00H, 'R', 00H, 'C', 00H, 'E', 00H
	DB	'_', 00H, 'I', 00H, 'N', 00H, '_', 00H, 'U', 00H, 'S', 00H, 'E'
	DB	00H, 00H, 00H
$SG163887 DB	'S', 00H, 'C', 00H, 'H', 00H, 'E', 00H, 'D', 00H, '_', 00H
	DB	'S', 00H, '_', 00H, 'E', 00H, 'V', 00H, 'E', 00H, 'N', 00H, 'T'
	DB	00H, '_', 00H, 'T', 00H, 'R', 00H, 'I', 00H, 'G', 00H, 'G', 00H
	DB	'E', 00H, 'R', 00H, 00H, 00H
$SG158767 DB	'E', 00H, 'R', 00H, 'R', 00H, 'O', 00H, 'R', 00H, '_', 00H
	DB	'N', 00H, 'O', 00H, '_', 00H, 'A', 00H, 'S', 00H, 'S', 00H, 'O'
	DB	00H, 'C', 00H, 'I', 00H, 'A', 00H, 'T', 00H, 'I', 00H, 'O', 00H
	DB	'N', 00H, 00H, 00H
	ORG $+2
$SG157743 DB	'E', 00H, 'R', 00H, 'R', 00H, 'O', 00H, 'R', 00H, '_', 00H
	DB	'I', 00H, 'N', 00H, 'S', 00H, 'U', 00H, 'F', 00H, 'F', 00H, 'I'
	DB	00H, 'C', 00H, 'I', 00H, 'E', 00H, 'N', 00H, 'T', 00H, '_', 00H
	DB	'B', 00H, 'U', 00H, 'F', 00H, 'F', 00H, 'E', 00H, 'R', 00H, 00H
	DB	00H
$SG169008 DB	'F', 00H, 'i', 00H, 'l', 00H, 'e', 00H, ' ', 00H, 'n', 00H
	DB	'o', 00H, 't', 00H, ' ', 00H, 'f', 00H, 'o', 00H, 'u', 00H, 'n'
	DB	00H, 'd', 00H, 00H, 00H
	ORG $+2
$SG159792 DB	'E', 00H, 'R', 00H, 'R', 00H, 'O', 00H, 'R', 00H, '_', 00H
	DB	'H', 00H, 'O', 00H, 'O', 00H, 'K', 00H, '_', 00H, 'N', 00H, 'O'
	DB	00H, 'T', 00H, '_', 00H, 'I', 00H, 'N', 00H, 'S', 00H, 'T', 00H
	DB	'A', 00H, 'L', 00H, 'L', 00H, 'E', 00H, 'D', 00H, 00H, 00H
	ORG $+2
$SG156720 DB	'O', 00H, 'S', 00H, 'S', 00H, '_', 00H, 'P', 00H, 'D', 00H
	DB	'U', 00H, '_', 00H, 'M', 00H, 'I', 00H, 'S', 00H, 'M', 00H, 'A'
	DB	00H, 'T', 00H, 'C', 00H, 'H', 00H, 00H, 00H
	ORG $+2
$SG155696 DB	'E', 00H, 'N', 00H, 'U', 00H, 'M', 00H, '_', 00H, 'E', 00H
	DB	'_', 00H, 'L', 00H, 'A', 00H, 'S', 00H, 'T', 00H, 00H, 00H
$SG164913 DB	'E', 00H, 'R', 00H, 'R', 00H, 'O', 00H, 'R', 00H, '_', 00H
	DB	'I', 00H, 'N', 00H, 'S', 00H, 'T', 00H, 'A', 00H, 'L', 00H, 'L'
	DB	00H, '_', 00H, 'P', 00H, 'A', 00H, 'C', 00H, 'K', 00H, 'A', 00H
	DB	'G', 00H, 'E', 00H, '_', 00H, 'V', 00H, 'E', 00H, 'R', 00H, 'S'
	DB	00H, 'I', 00H, 'O', 00H, 'N', 00H, 00H, 00H
$SG160817 DB	'E', 00H, 'R', 00H, 'R', 00H, 'O', 00H, 'R', 00H, '_', 00H
	DB	'I', 00H, 'N', 00H, 'V', 00H, 'A', 00H, 'L', 00H, 'I', 00H, 'D'
	DB	00H, '_', 00H, 'W', 00H, 'I', 00H, 'N', 00H, 'D', 00H, 'O', 00H
	DB	'W', 00H, '_', 00H, 'S', 00H, 'T', 00H, 'Y', 00H, 'L', 00H, 'E'
	DB	00H, 00H, 00H
	ORG $+2
$SG167986 DB	'D', 00H, 'X', 00H, 'G', 00H, 'I', 00H, '_', 00H, 'E', 00H
	DB	'R', 00H, 'R', 00H, 'O', 00H, 'R', 00H, '_', 00H, 'D', 00H, 'R'
	DB	00H, 'I', 00H, 'V', 00H, 'E', 00H, 'R', 00H, '_', 00H, 'I', 00H
	DB	'N', 00H, 'T', 00H, 'E', 00H, 'R', 00H, 'N', 00H, 'A', 00H, 'L'
	DB	00H, '_', 00H, 'E', 00H, 'R', 00H, 'R', 00H, 'O', 00H, 'R', 00H
	DB	00H, 00H
	ORG $+2
$SG165938 DB	'E', 00H, 'R', 00H, 'R', 00H, 'O', 00H, 'R', 00H, '_', 00H
	DB	'D', 00H, 'S', 00H, '_', 00H, 'C', 00H, 'A', 00H, 'N', 00H, 'T'
	DB	00H, '_', 00H, 'A', 00H, 'D', 00H, 'D', 00H, '_', 00H, 'T', 00H
	DB	'O', 00H, '_', 00H, 'G', 00H, 'C', 00H, 00H, 00H
$SG163890 DB	'S', 00H, 'C', 00H, 'H', 00H, 'E', 00H, 'D', 00H, '_', 00H
	DB	'E', 00H, '_', 00H, 'T', 00H, 'R', 00H, 'I', 00H, 'G', 00H, 'G'
	DB	00H, 'E', 00H, 'R', 00H, '_', 00H, 'N', 00H, 'O', 00H, 'T', 00H
	DB	'_', 00H, 'F', 00H, 'O', 00H, 'U', 00H, 'N', 00H, 'D', 00H, 00H
	DB	00H
$SG161842 DB	'E', 00H, 'R', 00H, 'R', 00H, 'O', 00H, 'R', 00H, '_', 00H
	DB	'D', 00H, 'S', 00H, '_', 00H, 'R', 00H, 'I', 00H, 'D', 00H, 'M'
	DB	00H, 'G', 00H, 'R', 00H, '_', 00H, 'I', 00H, 'N', 00H, 'I', 00H
	DB	'T', 00H, '_', 00H, 'E', 00H, 'R', 00H, 'R', 00H, 'O', 00H, 'R'
	DB	00H, 00H, 00H
	ORG $+2
$SG155698 DB	'E', 00H, 'N', 00H, 'U', 00H, 'M', 00H, '_', 00H, 'S', 00H
	DB	'_', 00H, 'F', 00H, 'I', 00H, 'R', 00H, 'S', 00H, 'T', 00H, 00H
	DB	00H
	ORG $+2
$SG156723 DB	'O', 00H, 'S', 00H, 'S', 00H, '_', 00H, 'L', 00H, 'I', 00H
	DB	'M', 00H, 'I', 00H, 'T', 00H, 'E', 00H, 'D', 00H, 00H, 00H
$SG159797 DB	'E', 00H, 'R', 00H, 'R', 00H, 'O', 00H, 'R', 00H, '_', 00H
	DB	'I', 00H, 'N', 00H, 'V', 00H, 'A', 00H, 'L', 00H, 'I', 00H, 'D'
	DB	00H, '_', 00H, 'L', 00H, 'B', 00H, '_', 00H, 'M', 00H, 'E', 00H
	DB	'S', 00H, 'S', 00H, 'A', 00H, 'G', 00H, 'E', 00H, 00H, 00H
	ORG $+2
$SG169011 DB	'T', 00H, 'h', 00H, 'e', 00H, ' ', 00H, 't', 00H, 'a', 00H
	DB	'r', 00H, 'g', 00H, 'e', 00H, 't', 00H, ' ', 00H, 'w', 00H, 'i'
	DB	00H, 'n', 00H, 'd', 00H, 'o', 00H, 'w', 00H, ' ', 00H, 'o', 00H
	DB	'r', 00H, ' ', 00H, 'o', 00H, 'u', 00H, 't', 00H, 'p', 00H, 'u'
	DB	00H, 't', 00H, ' ', 00H, 'h', 00H, 'a', 00H, 's', 00H, ' ', 00H
	DB	'b', 00H, 'e', 00H, 'e', 00H, 'n', 00H, ' ', 00H, 'o', 00H, 'c'
	DB	00H, 'c', 00H, 'l', 00H, 'u', 00H, 'd', 00H, 'e', 00H, 'd', 00H
	DB	'.', 00H, ' ', 00H, 'T', 00H, 'h', 00H, 'e', 00H, ' ', 00H, 'a'
	DB	00H, 'p', 00H, 'p', 00H, 'l', 00H, 'i', 00H, 'c', 00H, 'a', 00H
	DB	't', 00H, 'i', 00H, 'o', 00H, 'n', 00H, ' ', 00H, 's', 00H, 'h'
	DB	00H, 'o', 00H, 'u', 00H, 'l', 00H, 'd', 00H, ' ', 00H, 's', 00H
	DB	'u', 00H, 's', 00H, 'p', 00H, 'e', 00H, 'n', 00H, 'd', 00H, ' '
	DB	00H, 'r', 00H, 'e', 00H, 'n', 00H, 'd', 00H, 'e', 00H, 'r', 00H
	DB	'i', 00H, 'n', 00H, 'g', 00H, ' ', 00H, 'o', 00H, 'p', 00H, 'e'
	DB	00H, 'r', 00H, 'a', 00H, 't', 00H, 'i', 00H, 'o', 00H, 'n', 00H
	DB	's', 00H, ' ', 00H, 'i', 00H, 'f', 00H, ' ', 00H, 'p', 00H, 'o'
	DB	00H, 's', 00H, 's', 00H, 'i', 00H, 'b', 00H, 'l', 00H, 'e', 00H
	DB	'.', 00H, 00H, 00H
$SG166963 DB	'E', 00H, 'R', 00H, 'R', 00H, 'O', 00H, 'R', 00H, '_', 00H
	DB	'I', 00H, 'P', 00H, 'S', 00H, 'E', 00H, 'C', 00H, '_', 00H, 'I'
	DB	00H, 'K', 00H, 'E', 00H, '_', 00H, 'I', 00H, 'N', 00H, 'V', 00H
	DB	'A', 00H, 'L', 00H, 'I', 00H, 'D', 00H, '_', 00H, 'S', 00H, 'I'
	DB	00H, 'G', 00H, 'N', 00H, 'A', 00H, 'T', 00H, 'U', 00H, 'R', 00H
	DB	'E', 00H, 00H, 00H
$SG169014 DB	'T', 00H, 'a', 00H, 'r', 00H, 'g', 00H, 'e', 00H, 't', 00H
	DB	' ', 00H, 'w', 00H, 'i', 00H, 'n', 00H, 'd', 00H, 'o', 00H, 'w'
	DB	00H, ' ', 00H, 'i', 00H, 's', 00H, ' ', 00H, 'c', 00H, 'l', 00H
	DB	'i', 00H, 'p', 00H, 'p', 00H, 'e', 00H, 'd', 00H, '.', 00H, 00H
	DB	00H
$SG162867 DB	'E', 00H, 'R', 00H, 'R', 00H, 'O', 00H, 'R', 00H, '_', 00H
	DB	'D', 00H, 'S', 00H, '_', 00H, 'D', 00H, 'R', 00H, 'A', 00H, '_'
	DB	00H, 'S', 00H, 'O', 00H, 'U', 00H, 'R', 00H, 'C', 00H, 'E', 00H
	DB	'_', 00H, 'R', 00H, 'E', 00H, 'I', 00H, 'N', 00H, 'S', 00H, 'T'
	DB	00H, 'A', 00H, 'L', 00H, 'L', 00H, 'E', 00H, 'D', 00H, 00H, 00H
$SG158772 DB	'E', 00H, 'R', 00H, 'R', 00H, 'O', 00H, 'R', 00H, '_', 00H
	DB	'D', 00H, 'D', 00H, 'E', 00H, '_', 00H, 'F', 00H, 'A', 00H, 'I'
	DB	00H, 'L', 00H, 00H, 00H
	ORG $+2
$SG157748 DB	'E', 00H, 'R', 00H, 'R', 00H, 'O', 00H, 'R', 00H, '_', 00H
	DB	'I', 00H, 'N', 00H, 'V', 00H, 'A', 00H, 'L', 00H, 'I', 00H, 'D'
	DB	00H, '_', 00H, 'N', 00H, 'A', 00H, 'M', 00H, 'E', 00H, 00H, 00H
	ORG $+2
$SG155700 DB	'E', 00H, 'N', 00H, 'U', 00H, 'M', 00H, '_', 00H, 'S', 00H
	DB	'_', 00H, 'L', 00H, 'A', 00H, 'S', 00H, 'T', 00H, 00H, 00H
$SG167989 DB	'D', 00H, 'X', 00H, 'G', 00H, 'I', 00H, '_', 00H, 'E', 00H
	DB	'R', 00H, 'R', 00H, 'O', 00H, 'R', 00H, '_', 00H, 'N', 00H, 'O'
	DB	00H, 'N', 00H, 'E', 00H, 'X', 00H, 'C', 00H, 'L', 00H, 'U', 00H
	DB	'S', 00H, 'I', 00H, 'V', 00H, 'E', 00H, 00H, 00H
$SG163893 DB	'S', 00H, 'C', 00H, 'H', 00H, 'E', 00H, 'D', 00H, '_', 00H
	DB	'E', 00H, '_', 00H, 'T', 00H, 'A', 00H, 'S', 00H, 'K', 00H, '_'
	DB	00H, 'N', 00H, 'O', 00H, 'T', 00H, '_', 00H, 'R', 00H, 'E', 00H
	DB	'A', 00H, 'D', 00H, 'Y', 00H, 00H, 00H
	ORG $+2
$SG164918 DB	'E', 00H, 'R', 00H, 'R', 00H, 'O', 00H, 'R', 00H, '_', 00H
	DB	'I', 00H, 'N', 00H, 'S', 00H, 'T', 00H, 'A', 00H, 'L', 00H, 'L'
	DB	00H, '_', 00H, 'A', 00H, 'L', 00H, 'R', 00H, 'E', 00H, 'A', 00H
	DB	'D', 00H, 'Y', 00H, '_', 00H, 'R', 00H, 'U', 00H, 'N', 00H, 'N'
	DB	00H, 'I', 00H, 'N', 00H, 'G', 00H, 00H, 00H
$SG160822 DB	'E', 00H, 'R', 00H, 'R', 00H, 'O', 00H, 'R', 00H, '_', 00H
	DB	'M', 00H, 'E', 00H, 'T', 00H, 'A', 00H, 'F', 00H, 'I', 00H, 'L'
	DB	00H, 'E', 00H, '_', 00H, 'N', 00H, 'O', 00H, 'T', 00H, '_', 00H
	DB	'S', 00H, 'U', 00H, 'P', 00H, 'P', 00H, 'O', 00H, 'R', 00H, 'T'
	DB	00H, 'E', 00H, 'D', 00H, 00H, 00H
	ORG $+2
$SG156726 DB	'O', 00H, 'S', 00H, 'S', 00H, '_', 00H, 'B', 00H, 'A', 00H
	DB	'D', 00H, '_', 00H, 'P', 00H, 'T', 00H, 'R', 00H, 00H, 00H
$SG155702 DB	'C', 00H, 'O', 00H, 'N', 00H, 'V', 00H, 'E', 00H, 'R', 00H
	DB	'T', 00H, '1', 00H, '0', 00H, '_', 00H, 'E', 00H, '_', 00H, 'F'
	DB	00H, 'I', 00H, 'R', 00H, 'S', 00H, 'T', 00H, 00H, 00H
$SG161847 DB	'E', 00H, 'R', 00H, 'R', 00H, 'O', 00H, 'R', 00H, '_', 00H
	DB	'D', 00H, 'S', 00H, '_', 00H, 'O', 00H, 'B', 00H, 'J', 00H, '_'
	DB	00H, 'C', 00H, 'L', 00H, 'A', 00H, 'S', 00H, 'S', 00H, '_', 00H
	DB	'V', 00H, 'I', 00H, 'O', 00H, 'L', 00H, 'A', 00H, 'T', 00H, 'I'
	DB	00H, 'O', 00H, 'N', 00H, 00H, 00H
	ORG $+2
$SG165943 DB	'E', 00H, 'R', 00H, 'R', 00H, 'O', 00H, 'R', 00H, '_', 00H
	DB	'D', 00H, 'S', 00H, '_', 00H, 'N', 00H, 'O', 00H, '_', 00H, 'C'
	DB	00H, 'H', 00H, 'E', 00H, 'C', 00H, 'K', 00H, 'P', 00H, 'O', 00H
	DB	'I', 00H, 'N', 00H, 'T', 00H, '_', 00H, 'W', 00H, 'I', 00H, 'T'
	DB	00H, 'H', 00H, '_', 00H, 'P', 00H, 'D', 00H, 'C', 00H, 00H, 00H
$SG167992 DB	'D', 00H, 'X', 00H, 'G', 00H, 'I', 00H, '_', 00H, 'E', 00H
	DB	'R', 00H, 'R', 00H, 'O', 00H, 'R', 00H, '_', 00H, 'N', 00H, 'O'
	DB	00H, 'T', 00H, '_', 00H, 'C', 00H, 'U', 00H, 'R', 00H, 'R', 00H
	DB	'E', 00H, 'N', 00H, 'T', 00H, 'L', 00H, 'Y', 00H, '_', 00H, 'A'
	DB	00H, 'V', 00H, 'A', 00H, 'I', 00H, 'L', 00H, 'A', 00H, 'B', 00H
	DB	'L', 00H, 'E', 00H, 00H, 00H
	ORG $+2
$SG166968 DB	'E', 00H, 'R', 00H, 'R', 00H, 'O', 00H, 'R', 00H, '_', 00H
	DB	'I', 00H, 'P', 00H, 'S', 00H, 'E', 00H, 'C', 00H, '_', 00H, 'I'
	DB	00H, 'K', 00H, 'E', 00H, '_', 00H, 'K', 00H, 'E', 00H, 'R', 00H
	DB	'B', 00H, 'E', 00H, 'R', 00H, 'O', 00H, 'S', 00H, '_', 00H, 'E'
	DB	00H, 'R', 00H, 'R', 00H, 'O', 00H, 'R', 00H, 00H, 00H
	ORG $+2
$SG163896 DB	'S', 00H, 'C', 00H, 'H', 00H, 'E', 00H, 'D', 00H, '_', 00H
	DB	'E', 00H, '_', 00H, 'T', 00H, 'A', 00H, 'S', 00H, 'K', 00H, '_'
	DB	00H, 'N', 00H, 'O', 00H, 'T', 00H, '_', 00H, 'R', 00H, 'U', 00H
	DB	'N', 00H, 'N', 00H, 'I', 00H, 'N', 00H, 'G', 00H, 00H, 00H
	ORG $+2
$SG162872 DB	'E', 00H, 'R', 00H, 'R', 00H, 'O', 00H, 'R', 00H, '_', 00H
	DB	'D', 00H, 'S', 00H, '_', 00H, 'D', 00H, 'R', 00H, 'A', 00H, '_'
	DB	00H, 'M', 00H, 'I', 00H, 'S', 00H, 'S', 00H, 'I', 00H, 'N', 00H
	DB	'G', 00H, '_', 00H, 'P', 00H, 'A', 00H, 'R', 00H, 'E', 00H, 'N'
	DB	00H, 'T', 00H, 00H, 00H
$SG155704 DB	'C', 00H, 'O', 00H, 'N', 00H, 'V', 00H, 'E', 00H, 'R', 00H
	DB	'T', 00H, '1', 00H, '0', 00H, '_', 00H, 'E', 00H, '_', 00H, 'L'
	DB	00H, 'A', 00H, 'S', 00H, 'T', 00H, 00H, 00H
	ORG $+2
$SG169017 DB	00H, 00H
	ORG $+2
$SG158777 DB	'E', 00H, 'R', 00H, 'R', 00H, 'O', 00H, 'R', 00H, '_', 00H
	DB	'D', 00H, 'L', 00H, 'L', 00H, '_', 00H, 'N', 00H, 'O', 00H, 'T'
	DB	00H, '_', 00H, 'F', 00H, 'O', 00H, 'U', 00H, 'N', 00H, 'D', 00H
	DB	00H, 00H
$SG157753 DB	'E', 00H, 'R', 00H, 'R', 00H, 'O', 00H, 'R', 00H, '_', 00H
	DB	'I', 00H, 'N', 00H, 'V', 00H, 'A', 00H, 'L', 00H, 'I', 00H, 'D'
	DB	00H, '_', 00H, 'L', 00H, 'E', 00H, 'V', 00H, 'E', 00H, 'L', 00H
	DB	00H, 00H
$SG156729 DB	'O', 00H, 'S', 00H, 'S', 00H, '_', 00H, 'B', 00H, 'A', 00H
	DB	'D', 00H, '_', 00H, 'T', 00H, 'I', 00H, 'M', 00H, 'E', 00H, 00H
	DB	00H
	ORG $+2
$SG159802 DB	'E', 00H, 'R', 00H, 'R', 00H, 'O', 00H, 'R', 00H, '_', 00H
	DB	'S', 00H, 'E', 00H, 'T', 00H, 'C', 00H, 'O', 00H, 'U', 00H, 'N'
	DB	00H, 'T', 00H, '_', 00H, 'O', 00H, 'N', 00H, '_', 00H, 'B', 00H
	DB	'A', 00H, 'D', 00H, '_', 00H, 'L', 00H, 'B', 00H, 00H, 00H
	ORG $+2
$SG155706 DB	'C', 00H, 'O', 00H, 'N', 00H, 'V', 00H, 'E', 00H, 'R', 00H
	DB	'T', 00H, '1', 00H, '0', 00H, '_', 00H, 'S', 00H, '_', 00H, 'F'
	DB	00H, 'I', 00H, 'R', 00H, 'S', 00H, 'T', 00H, 00H, 00H
$SG167995 DB	'D', 00H, 'X', 00H, 'G', 00H, 'I', 00H, '_', 00H, 'E', 00H
	DB	'R', 00H, 'R', 00H, 'O', 00H, 'R', 00H, '_', 00H, 'R', 00H, 'E'
	DB	00H, 'M', 00H, 'O', 00H, 'T', 00H, 'E', 00H, '_', 00H, 'C', 00H
	DB	'L', 00H, 'I', 00H, 'E', 00H, 'N', 00H, 'T', 00H, '_', 00H, 'D'
	DB	00H, 'I', 00H, 'S', 00H, 'C', 00H, 'O', 00H, 'N', 00H, 'N', 00H
	DB	'E', 00H, 'C', 00H, 'T', 00H, 'E', 00H, 'D', 00H, 00H, 00H
$SG163899 DB	'S', 00H, 'C', 00H, 'H', 00H, 'E', 00H, 'D', 00H, '_', 00H
	DB	'E', 00H, '_', 00H, 'S', 00H, 'E', 00H, 'R', 00H, 'V', 00H, 'I'
	DB	00H, 'C', 00H, 'E', 00H, '_', 00H, 'N', 00H, 'O', 00H, 'T', 00H
	DB	'_', 00H, 'I', 00H, 'N', 00H, 'S', 00H, 'T', 00H, 'A', 00H, 'L'
	DB	00H, 'L', 00H, 'E', 00H, 'D', 00H, 00H, 00H
$SG164923 DB	'E', 00H, 'R', 00H, 'R', 00H, 'O', 00H, 'R', 00H, '_', 00H
	DB	'I', 00H, 'N', 00H, 'S', 00H, 'T', 00H, 'A', 00H, 'L', 00H, 'L'
	DB	00H, '_', 00H, 'P', 00H, 'A', 00H, 'C', 00H, 'K', 00H, 'A', 00H
	DB	'G', 00H, 'E', 00H, '_', 00H, 'O', 00H, 'P', 00H, 'E', 00H, 'N'
	DB	00H, '_', 00H, 'F', 00H, 'A', 00H, 'I', 00H, 'L', 00H, 'E', 00H
	DB	'D', 00H, 00H, 00H
$SG160827 DB	'E', 00H, 'R', 00H, 'R', 00H, 'O', 00H, 'R', 00H, '_', 00H
	DB	'T', 00H, 'R', 00H, 'A', 00H, 'N', 00H, 'S', 00H, 'F', 00H, 'O'
	DB	00H, 'R', 00H, 'M', 00H, '_', 00H, 'N', 00H, 'O', 00H, 'T', 00H
	DB	'_', 00H, 'S', 00H, 'U', 00H, 'P', 00H, 'P', 00H, 'O', 00H, 'R'
	DB	00H, 'T', 00H, 'E', 00H, 'D', 00H, 00H, 00H
$SG169020 DB	'N', 00H, 'o', 00H, ' ', 00H, 'a', 00H, 'c', 00H, 'c', 00H
	DB	'e', 00H, 's', 00H, 's', 00H, ' ', 00H, 't', 00H, 'o', 00H, ' '
	DB	00H, 'd', 00H, 'e', 00H, 's', 00H, 'k', 00H, 't', 00H, 'o', 00H
	DB	'p', 00H, '.', 00H, 00H, 00H
$SG161852 DB	'E', 00H, 'R', 00H, 'R', 00H, 'O', 00H, 'R', 00H, '_', 00H
	DB	'D', 00H, 'S', 00H, '_', 00H, 'C', 00H, 'A', 00H, 'N', 00H, 'T'
	DB	00H, '_', 00H, 'O', 00H, 'N', 00H, '_', 00H, 'N', 00H, 'O', 00H
	DB	'N', 00H, '_', 00H, 'L', 00H, 'E', 00H, 'A', 00H, 'F', 00H, 00H
	DB	00H
$SG165948 DB	'E', 00H, 'R', 00H, 'R', 00H, 'O', 00H, 'R', 00H, '_', 00H
	DB	'D', 00H, 'S', 00H, '_', 00H, 'S', 00H, 'O', 00H, 'U', 00H, 'R'
	DB	00H, 'C', 00H, 'E', 00H, '_', 00H, 'A', 00H, 'U', 00H, 'D', 00H
	DB	'I', 00H, 'T', 00H, 'I', 00H, 'N', 00H, 'G', 00H, '_', 00H, 'N'
	DB	00H, 'O', 00H, 'T', 00H, '_', 00H, 'E', 00H, 'N', 00H, 'A', 00H
	DB	'B', 00H, 'L', 00H, 'E', 00H, 'D', 00H, 00H, 00H
	ORG $+2
$SG156732 DB	'O', 00H, 'S', 00H, 'S', 00H, '_', 00H, 'I', 00H, 'N', 00H
	DB	'D', 00H, 'E', 00H, 'F', 00H, 'I', 00H, 'N', 00H, 'I', 00H, 'T'
	DB	00H, 'E', 00H, '_', 00H, 'N', 00H, 'O', 00H, 'T', 00H, '_', 00H
	DB	'S', 00H, 'U', 00H, 'P', 00H, 'P', 00H, 'O', 00H, 'R', 00H, 'T'
	DB	00H, 'E', 00H, 'D', 00H, 00H, 00H
	ORG $+2
$SG155708 DB	'C', 00H, 'O', 00H, 'N', 00H, 'V', 00H, 'E', 00H, 'R', 00H
	DB	'T', 00H, '1', 00H, '0', 00H, '_', 00H, 'S', 00H, '_', 00H, 'L'
	DB	00H, 'A', 00H, 'S', 00H, 'T', 00H, 00H, 00H
	ORG $+2
$SG166973 DB	'E', 00H, 'R', 00H, 'R', 00H, 'O', 00H, 'R', 00H, '_', 00H
	DB	'I', 00H, 'P', 00H, 'S', 00H, 'E', 00H, 'C', 00H, '_', 00H, 'I'
	DB	00H, 'K', 00H, 'E', 00H, '_', 00H, 'N', 00H, 'O', 00H, '_', 00H
	DB	'P', 00H, 'U', 00H, 'B', 00H, 'L', 00H, 'I', 00H, 'C', 00H, '_'
	DB	00H, 'K', 00H, 'E', 00H, 'Y', 00H, 00H, 00H
$SG162877 DB	'E', 00H, 'R', 00H, 'R', 00H, 'O', 00H, 'R', 00H, '_', 00H
	DB	'D', 00H, 'S', 00H, '_', 00H, 'D', 00H, 'R', 00H, 'A', 00H, '_'
	DB	00H, 'P', 00H, 'R', 00H, 'E', 00H, 'E', 00H, 'M', 00H, 'P', 00H
	DB	'T', 00H, 'E', 00H, 'D', 00H, 00H, 00H
	ORG $+2
$SG167998 DB	'D', 00H, 'X', 00H, 'G', 00H, 'I', 00H, '_', 00H, 'E', 00H
	DB	'R', 00H, 'R', 00H, 'O', 00H, 'R', 00H, '_', 00H, 'R', 00H, 'E'
	DB	00H, 'M', 00H, 'O', 00H, 'T', 00H, 'E', 00H, '_', 00H, 'O', 00H
	DB	'U', 00H, 'T', 00H, 'O', 00H, 'F', 00H, 'M', 00H, 'E', 00H, 'M'
	DB	00H, 'O', 00H, 'R', 00H, 'Y', 00H, 00H, 00H
$SG163902 DB	'S', 00H, 'C', 00H, 'H', 00H, 'E', 00H, 'D', 00H, '_', 00H
	DB	'E', 00H, '_', 00H, 'C', 00H, 'A', 00H, 'N', 00H, 'N', 00H, 'O'
	DB	00H, 'T', 00H, '_', 00H, 'O', 00H, 'P', 00H, 'E', 00H, 'N', 00H
	DB	'_', 00H, 'T', 00H, 'A', 00H, 'S', 00H, 'K', 00H, 00H, 00H
	ORG $+2
$SG158782 DB	'E', 00H, 'R', 00H, 'R', 00H, 'O', 00H, 'R', 00H, '_', 00H
	DB	'N', 00H, 'O', 00H, '_', 00H, 'M', 00H, 'O', 00H, 'R', 00H, 'E'
	DB	00H, '_', 00H, 'U', 00H, 'S', 00H, 'E', 00H, 'R', 00H, '_', 00H
	DB	'H', 00H, 'A', 00H, 'N', 00H, 'D', 00H, 'L', 00H, 'E', 00H, 'S'
	DB	00H, 00H, 00H
	ORG $+2
$SG157758 DB	'E', 00H, 'R', 00H, 'R', 00H, 'O', 00H, 'R', 00H, '_', 00H
	DB	'N', 00H, 'O', 00H, '_', 00H, 'V', 00H, 'O', 00H, 'L', 00H, 'U'
	DB	00H, 'M', 00H, 'E', 00H, '_', 00H, 'L', 00H, 'A', 00H, 'B', 00H
	DB	'E', 00H, 'L', 00H, 00H, 00H
$SG169023 DB	00H, 00H
	ORG $+2
$SG159807 DB	'E', 00H, 'R', 00H, 'R', 00H, 'O', 00H, 'R', 00H, '_', 00H
	DB	'L', 00H, 'B', 00H, '_', 00H, 'W', 00H, 'I', 00H, 'T', 00H, 'H'
	DB	00H, 'O', 00H, 'U', 00H, 'T', 00H, '_', 00H, 'T', 00H, 'A', 00H
	DB	'B', 00H, 'S', 00H, 'T', 00H, 'O', 00H, 'P', 00H, 'S', 00H, 00H
	DB	00H
$SG156735 DB	'O', 00H, 'S', 00H, 'S', 00H, '_', 00H, 'M', 00H, 'E', 00H
	DB	'M', 00H, '_', 00H, 'E', 00H, 'R', 00H, 'R', 00H, 'O', 00H, 'R'
	DB	00H, 00H, 00H
$SG155711 DB	'C', 00H, 'O', 00H, 'N', 00H, 'V', 00H, 'E', 00H, 'R', 00H
	DB	'T', 00H, '1', 00H, '0', 00H, '_', 00H, 'E', 00H, '_', 00H, 'O'
	DB	00H, 'L', 00H, 'E', 00H, 'S', 00H, 'T', 00H, 'R', 00H, 'E', 00H
	DB	'A', 00H, 'M', 00H, '_', 00H, 'P', 00H, 'U', 00H, 'T', 00H, 00H
	DB	00H
$SG164928 DB	'E', 00H, 'R', 00H, 'R', 00H, 'O', 00H, 'R', 00H, '_', 00H
	DB	'I', 00H, 'N', 00H, 'S', 00H, 'T', 00H, 'A', 00H, 'L', 00H, 'L'
	DB	00H, '_', 00H, 'P', 00H, 'A', 00H, 'C', 00H, 'K', 00H, 'A', 00H
	DB	'G', 00H, 'E', 00H, '_', 00H, 'I', 00H, 'N', 00H, 'V', 00H, 'A'
	DB	00H, 'L', 00H, 'I', 00H, 'D', 00H, 00H, 00H
$SG160832 DB	'E', 00H, 'R', 00H, 'R', 00H, 'O', 00H, 'R', 00H, '_', 00H
	DB	'C', 00H, 'L', 00H, 'I', 00H, 'P', 00H, 'P', 00H, 'I', 00H, 'N'
	DB	00H, 'G', 00H, '_', 00H, 'N', 00H, 'O', 00H, 'T', 00H, '_', 00H
	DB	'S', 00H, 'U', 00H, 'P', 00H, 'P', 00H, 'O', 00H, 'R', 00H, 'T'
	DB	00H, 'E', 00H, 'D', 00H, 00H, 00H
	ORG $+2
$SG163905 DB	'S', 00H, 'C', 00H, 'H', 00H, 'E', 00H, 'D', 00H, '_', 00H
	DB	'E', 00H, '_', 00H, 'I', 00H, 'N', 00H, 'V', 00H, 'A', 00H, 'L'
	DB	00H, 'I', 00H, 'D', 00H, '_', 00H, 'T', 00H, 'A', 00H, 'S', 00H
	DB	'K', 00H, 00H, 00H
	ORG $+2
$SG168001 DB	'D', 00H, '3', 00H, 'D', 00H, '1', 00H, '1', 00H, '_', 00H
	DB	'E', 00H, 'R', 00H, 'R', 00H, 'O', 00H, 'R', 00H, '_', 00H, 'T'
	DB	00H, 'O', 00H, 'O', 00H, '_', 00H, 'M', 00H, 'A', 00H, 'N', 00H
	DB	'Y', 00H, '_', 00H, 'U', 00H, 'N', 00H, 'I', 00H, 'Q', 00H, 'U'
	DB	00H, 'E', 00H, '_', 00H, 'S', 00H, 'T', 00H, 'A', 00H, 'T', 00H
	DB	'E', 00H, '_', 00H, 'O', 00H, 'B', 00H, 'J', 00H, 'E', 00H, 'C'
	DB	00H, 'T', 00H, 'S', 00H, 00H, 00H
$SG161857 DB	'E', 00H, 'R', 00H, 'R', 00H, 'O', 00H, 'R', 00H, '_', 00H
	DB	'D', 00H, 'S', 00H, '_', 00H, 'C', 00H, 'A', 00H, 'N', 00H, 'T'
	DB	00H, '_', 00H, 'O', 00H, 'N', 00H, '_', 00H, 'R', 00H, 'D', 00H
	DB	'N', 00H, 00H, 00H
	ORG $+2
$SG165953 DB	'E', 00H, 'R', 00H, 'R', 00H, 'O', 00H, 'R', 00H, '_', 00H
	DB	'D', 00H, 'S', 00H, '_', 00H, 'C', 00H, 'A', 00H, 'N', 00H, 'T'
	DB	00H, '_', 00H, 'C', 00H, 'R', 00H, 'E', 00H, 'A', 00H, 'T', 00H
	DB	'E', 00H, '_', 00H, 'I', 00H, 'N', 00H, '_', 00H, 'N', 00H, 'O'
	DB	00H, 'N', 00H, 'D', 00H, 'O', 00H, 'M', 00H, 'A', 00H, 'I', 00H
	DB	'N', 00H, '_', 00H, 'N', 00H, 'C', 00H, 00H, 00H
	ORG $+2
$SG169026 DB	'D', 00H, 'i', 00H, 's', 00H, 'p', 00H, 'l', 00H, 'a', 00H
	DB	'y', 00H, ' ', 00H, 'm', 00H, 'o', 00H, 'd', 00H, 'e', 00H, ' '
	DB	00H, 'h', 00H, 'a', 00H, 's', 00H, ' ', 00H, 'c', 00H, 'h', 00H
	DB	'a', 00H, 'n', 00H, 'g', 00H, 'e', 00H, 'd', 00H, 00H, 00H
	ORG $+2
$SG166978 DB	'E', 00H, 'R', 00H, 'R', 00H, 'O', 00H, 'R', 00H, '_', 00H
	DB	'I', 00H, 'P', 00H, 'S', 00H, 'E', 00H, 'C', 00H, '_', 00H, 'I'
	DB	00H, 'K', 00H, 'E', 00H, '_', 00H, 'P', 00H, 'R', 00H, 'O', 00H
	DB	'C', 00H, 'E', 00H, 'S', 00H, 'S', 00H, '_', 00H, 'E', 00H, 'R'
	DB	00H, 'R', 00H, 00H, 00H
$SG162882 DB	'E', 00H, 'R', 00H, 'R', 00H, 'O', 00H, 'R', 00H, '_', 00H
	DB	'D', 00H, 'S', 00H, '_', 00H, 'D', 00H, 'R', 00H, 'A', 00H, '_'
	DB	00H, 'A', 00H, 'B', 00H, 'A', 00H, 'N', 00H, 'D', 00H, 'O', 00H
	DB	'N', 00H, '_', 00H, 'S', 00H, 'Y', 00H, 'N', 00H, 'C', 00H, 00H
	DB	00H
$SG156738 DB	'O', 00H, 'S', 00H, 'S', 00H, '_', 00H, 'B', 00H, 'A', 00H
	DB	'D', 00H, '_', 00H, 'T', 00H, 'A', 00H, 'B', 00H, 'L', 00H, 'E'
	DB	00H, 00H, 00H
$SG155714 DB	'C', 00H, 'O', 00H, 'N', 00H, 'V', 00H, 'E', 00H, 'R', 00H
	DB	'T', 00H, '1', 00H, '0', 00H, '_', 00H, 'E', 00H, '_', 00H, 'O'
	DB	00H, 'L', 00H, 'E', 00H, 'S', 00H, 'T', 00H, 'R', 00H, 'E', 00H
	DB	'A', 00H, 'M', 00H, '_', 00H, 'F', 00H, 'M', 00H, 'T', 00H, 00H
	DB	00H
$SG158787 DB	'E', 00H, 'R', 00H, 'R', 00H, 'O', 00H, 'R', 00H, '_', 00H
	DB	'M', 00H, 'E', 00H, 'S', 00H, 'S', 00H, 'A', 00H, 'G', 00H, 'E'
	DB	00H, '_', 00H, 'S', 00H, 'Y', 00H, 'N', 00H, 'C', 00H, '_', 00H
	DB	'O', 00H, 'N', 00H, 'L', 00H, 'Y', 00H, 00H, 00H
$SG157763 DB	'E', 00H, 'R', 00H, 'R', 00H, 'O', 00H, 'R', 00H, '_', 00H
	DB	'M', 00H, 'O', 00H, 'D', 00H, '_', 00H, 'N', 00H, 'O', 00H, 'T'
	DB	00H, '_', 00H, 'F', 00H, 'O', 00H, 'U', 00H, 'N', 00H, 'D', 00H
	DB	00H, 00H
$SG168004 DB	'D', 00H, '3', 00H, 'D', 00H, '1', 00H, '1', 00H, '_', 00H
	DB	'E', 00H, 'R', 00H, 'R', 00H, 'O', 00H, 'R', 00H, '_', 00H, 'F'
	DB	00H, 'I', 00H, 'L', 00H, 'E', 00H, '_', 00H, 'N', 00H, 'O', 00H
	DB	'T', 00H, '_', 00H, 'F', 00H, 'O', 00H, 'U', 00H, 'N', 00H, 'D'
	DB	00H, 00H, 00H
	ORG $+2
$SG169029 DB	'D', 00H, 'i', 00H, 's', 00H, 'p', 00H, 'l', 00H, 'a', 00H
	DB	'y', 00H, ' ', 00H, 'm', 00H, 'o', 00H, 'd', 00H, 'e', 00H, ' '
	DB	00H, 'i', 00H, 's', 00H, ' ', 00H, 'c', 00H, 'h', 00H, 'a', 00H
	DB	'n', 00H, 'g', 00H, 'i', 00H, 'n', 00H, 'g', 00H, 00H, 00H
	ORG $+2
$SG163908 DB	'S', 00H, 'C', 00H, 'H', 00H, 'E', 00H, 'D', 00H, '_', 00H
	DB	'E', 00H, '_', 00H, 'A', 00H, 'C', 00H, 'C', 00H, 'O', 00H, 'U'
	DB	00H, 'N', 00H, 'T', 00H, '_', 00H, 'I', 00H, 'N', 00H, 'F', 00H
	DB	'O', 00H, 'R', 00H, 'M', 00H, 'A', 00H, 'T', 00H, 'I', 00H, 'O'
	DB	00H, 'N', 00H, '_', 00H, 'N', 00H, 'O', 00H, 'T', 00H, '_', 00H
	DB	'S', 00H, 'E', 00H, 'T', 00H, 00H, 00H
$SG159812 DB	'E', 00H, 'R', 00H, 'R', 00H, 'O', 00H, 'R', 00H, '_', 00H
	DB	'D', 00H, 'E', 00H, 'S', 00H, 'T', 00H, 'R', 00H, 'O', 00H, 'Y'
	DB	00H, '_', 00H, 'O', 00H, 'B', 00H, 'J', 00H, 'E', 00H, 'C', 00H
	DB	'T', 00H, '_', 00H, 'O', 00H, 'F', 00H, '_', 00H, 'O', 00H, 'T'
	DB	00H, 'H', 00H, 'E', 00H, 'R', 00H, '_', 00H, 'T', 00H, 'H', 00H
	DB	'R', 00H, 'E', 00H, 'A', 00H, 'D', 00H, 00H, 00H
	ORG $+2
$SG164933 DB	'E', 00H, 'R', 00H, 'R', 00H, 'O', 00H, 'R', 00H, '_', 00H
	DB	'I', 00H, 'N', 00H, 'S', 00H, 'T', 00H, 'A', 00H, 'L', 00H, 'L'
	DB	00H, '_', 00H, 'U', 00H, 'I', 00H, '_', 00H, 'F', 00H, 'A', 00H
	DB	'I', 00H, 'L', 00H, 'U', 00H, 'R', 00H, 'E', 00H, 00H, 00H
	ORG $+2
$SG160837 DB	'E', 00H, 'R', 00H, 'R', 00H, 'O', 00H, 'R', 00H, '_', 00H
	DB	'I', 00H, 'N', 00H, 'V', 00H, 'A', 00H, 'L', 00H, 'I', 00H, 'D'
	DB	00H, '_', 00H, 'C', 00H, 'M', 00H, 'M', 00H, 00H, 00H
$SG156741 DB	'O', 00H, 'S', 00H, 'S', 00H, '_', 00H, 'T', 00H, 'O', 00H
	DB	'O', 00H, '_', 00H, 'L', 00H, 'O', 00H, 'N', 00H, 'G', 00H, 00H
	DB	00H
	ORG $+2
$SG155717 DB	'C', 00H, 'O', 00H, 'N', 00H, 'V', 00H, 'E', 00H, 'R', 00H
	DB	'T', 00H, '1', 00H, '0', 00H, '_', 00H, 'E', 00H, '_', 00H, 'O'
	DB	00H, 'L', 00H, 'E', 00H, 'S', 00H, 'T', 00H, 'R', 00H, 'E', 00H
	DB	'A', 00H, 'M', 00H, '_', 00H, 'B', 00H, 'I', 00H, 'T', 00H, 'M'
	DB	00H, 'A', 00H, 'P', 00H, '_', 00H, 'T', 00H, 'O', 00H, '_', 00H
	DB	'D', 00H, 'I', 00H, 'B', 00H, 00H, 00H
$SG165958 DB	'E', 00H, 'R', 00H, 'R', 00H, 'O', 00H, 'R', 00H, '_', 00H
	DB	'D', 00H, 'S', 00H, '_', 00H, 'I', 00H, 'N', 00H, 'V', 00H, 'A'
	DB	00H, 'L', 00H, 'I', 00H, 'D', 00H, '_', 00H, 'N', 00H, 'A', 00H
	DB	'M', 00H, 'E', 00H, '_', 00H, 'F', 00H, 'O', 00H, 'R', 00H, '_'
	DB	00H, 'S', 00H, 'P', 00H, 'N', 00H, 00H, 00H
$SG161862 DB	'E', 00H, 'R', 00H, 'R', 00H, 'O', 00H, 'R', 00H, '_', 00H
	DB	'D', 00H, 'S', 00H, '_', 00H, 'C', 00H, 'A', 00H, 'N', 00H, 'T'
	DB	00H, '_', 00H, 'M', 00H, 'O', 00H, 'D', 00H, '_', 00H, 'O', 00H
	DB	'B', 00H, 'J', 00H, '_', 00H, 'C', 00H, 'L', 00H, 'A', 00H, 'S'
	DB	00H, 'S', 00H, 00H, 00H
$SG162887 DB	'E', 00H, 'R', 00H, 'R', 00H, 'O', 00H, 'R', 00H, '_', 00H
	DB	'D', 00H, 'S', 00H, '_', 00H, 'D', 00H, 'R', 00H, 'A', 00H, '_'
	DB	00H, 'S', 00H, 'H', 00H, 'U', 00H, 'T', 00H, 'D', 00H, 'O', 00H
	DB	'W', 00H, 'N', 00H, 00H, 00H
$SG168007 DB	'D', 00H, '3', 00H, 'D', 00H, '1', 00H, '1', 00H, '_', 00H
	DB	'E', 00H, 'R', 00H, 'R', 00H, 'O', 00H, 'R', 00H, '_', 00H, 'T'
	DB	00H, 'O', 00H, 'O', 00H, '_', 00H, 'M', 00H, 'A', 00H, 'N', 00H
	DB	'Y', 00H, '_', 00H, 'U', 00H, 'N', 00H, 'I', 00H, 'Q', 00H, 'U'
	DB	00H, 'E', 00H, '_', 00H, 'V', 00H, 'I', 00H, 'E', 00H, 'W', 00H
	DB	'_', 00H, 'O', 00H, 'B', 00H, 'J', 00H, 'E', 00H, 'C', 00H, 'T'
	DB	00H, 'S', 00H, 00H, 00H
	ORG $+2
$SG166983 DB	'E', 00H, 'R', 00H, 'R', 00H, 'O', 00H, 'R', 00H, '_', 00H
	DB	'I', 00H, 'P', 00H, 'S', 00H, 'E', 00H, 'C', 00H, '_', 00H, 'I'
	DB	00H, 'K', 00H, 'E', 00H, '_', 00H, 'P', 00H, 'R', 00H, 'O', 00H
	DB	'C', 00H, 'E', 00H, 'S', 00H, 'S', 00H, '_', 00H, 'E', 00H, 'R'
	DB	00H, 'R', 00H, '_', 00H, 'S', 00H, 'A', 00H, 00H, 00H
	ORG $+2
$SG163911 DB	'S', 00H, 'C', 00H, 'H', 00H, 'E', 00H, 'D', 00H, '_', 00H
	DB	'E', 00H, '_', 00H, 'A', 00H, 'C', 00H, 'C', 00H, 'O', 00H, 'U'
	DB	00H, 'N', 00H, 'T', 00H, '_', 00H, 'N', 00H, 'A', 00H, 'M', 00H
	DB	'E', 00H, '_', 00H, 'N', 00H, 'O', 00H, 'T', 00H, '_', 00H, 'F'
	DB	00H, 'O', 00H, 'U', 00H, 'N', 00H, 'D', 00H, 00H, 00H
	ORG $+2
$SG157768 DB	'E', 00H, 'R', 00H, 'R', 00H, 'O', 00H, 'R', 00H, '_', 00H
	DB	'P', 00H, 'R', 00H, 'O', 00H, 'C', 00H, '_', 00H, 'N', 00H, 'O'
	DB	00H, 'T', 00H, '_', 00H, 'F', 00H, 'O', 00H, 'U', 00H, 'N', 00H
	DB	'D', 00H, 00H, 00H
	ORG $+2
$SG169032 DB	'T', 00H, 'h', 00H, 'e', 00H, ' ', 00H, 'a', 00H, 'p', 00H
	DB	'p', 00H, 'l', 00H, 'i', 00H, 'c', 00H, 'a', 00H, 't', 00H, 'i'
	DB	00H, 'o', 00H, 'n', 00H, ' ', 00H, 'h', 00H, 'a', 00H, 's', 00H
	DB	' ', 00H, 'm', 00H, 'a', 00H, 'd', 00H, 'e', 00H, ' ', 00H, 'a'
	DB	00H, 'n', 00H, ' ', 00H, 'e', 00H, 'r', 00H, 'r', 00H, 'o', 00H
	DB	'n', 00H, 'e', 00H, 'o', 00H, 'u', 00H, 's', 00H, ' ', 00H, 'A'
	DB	00H, 'P', 00H, 'I', 00H, ' ', 00H, 'c', 00H, 'a', 00H, 'l', 00H
	DB	'l', 00H, ' ', 00H, 't', 00H, 'h', 00H, 'a', 00H, 't', 00H, ' '
	DB	00H, 'i', 00H, 't', 00H, ' ', 00H, 'h', 00H, 'a', 00H, 'd', 00H
	DB	' ', 00H, 'e', 00H, 'n', 00H, 'o', 00H, 'u', 00H, 'g', 00H, 'h'
	DB	00H, ' ', 00H, 'i', 00H, 'n', 00H, 'f', 00H, 'o', 00H, 'r', 00H
	DB	'm', 00H, 'a', 00H, 't', 00H, 'i', 00H, 'o', 00H, 'n', 00H, ' '
	DB	00H, 't', 00H, 'o', 00H, ' ', 00H, 'a', 00H, 'v', 00H, 'o', 00H
	DB	'i', 00H, 'd', 00H, '.', 00H, ' ', 00H, 'T', 00H, 'h', 00H, 'i'
	DB	00H, 's', 00H, ' ', 00H, 'e', 00H, 'r', 00H, 'r', 00H, 'o', 00H
	DB	'r', 00H, ' ', 00H, 'i', 00H, 's', 00H, ' ', 00H, 'i', 00H, 'n'
	DB	00H, 't', 00H, 'e', 00H, 'n', 00H, 'd', 00H, 'e', 00H, 'd', 00H
	DB	' ', 00H, 't', 00H, 'o', 00H, ' ', 00H, 'd', 00H, 'e', 00H, 'n'
	DB	00H, 'o', 00H, 't', 00H, 'e', 00H, ' ', 00H, 't', 00H, 'h', 00H
	DB	'a', 00H, 't', 00H, ' ', 00H, 't', 00H, 'h', 00H, 'e', 00H, ' '
	DB	00H, 'a', 00H, 'p', 00H, 'p', 00H, 'l', 00H, 'i', 00H, 'c', 00H
	DB	'a', 00H, 't', 00H, 'i', 00H, 'o', 00H, 'n', 00H, ' ', 00H, 's'
	DB	00H, 'h', 00H, 'o', 00H, 'u', 00H, 'l', 00H, 'd', 00H, ' ', 00H
	DB	'b', 00H, 'e', 00H, ' ', 00H, 'a', 00H, 'l', 00H, 't', 00H, 'e'
	DB	00H, 'r', 00H, 'e', 00H, 'd', 00H, ' ', 00H, 't', 00H, 'o', 00H
	DB	' ', 00H, 'a', 00H, 'v', 00H, 'o', 00H, 'i', 00H, 'd', 00H, ' '
	DB	00H, 't', 00H, 'h', 00H, 'e', 00H, ' ', 00H, 'e', 00H, 'r', 00H
	DB	'r', 00H, 'o', 00H, 'r', 00H, '.', 00H, ' ', 00H, 'U', 00H, 's'
	DB	00H, 'e', 00H, ' ', 00H, 'o', 00H, 'f', 00H, ' ', 00H, 't', 00H
	DB	'h', 00H, 'e', 00H, ' ', 00H, 'd', 00H, 'e', 00H, 'b', 00H, 'u'
	DB	00H, 'g', 00H, ' ', 00H, 'v', 00H, 'e', 00H, 'r', 00H, 's', 00H
	DB	'i', 00H, 'o', 00H, 'n', 00H, ' ', 00H, 'o', 00H, 'f', 00H, ' '
	DB	00H, 't', 00H, 'h', 00H, 'e', 00H, ' ', 00H, 'D', 00H, 'X', 00H
	DB	'G', 00H, 'I', 00H, '.', 00H, 'D', 00H, 'L', 00H, 'L', 00H, ' '
	DB	00H, 'w', 00H, 'i', 00H, 'l', 00H, 'l', 00H, ' ', 00H, 'p', 00H
	DB	'r', 00H, 'o', 00H, 'v', 00H, 'i', 00H, 'd', 00H, 'e', 00H, ' '
	DB	00H, 'r', 00H, 'u', 00H, 'n', 00H, '-', 00H, 't', 00H, 'i', 00H
	DB	'm', 00H, 'e', 00H, ' ', 00H, 'd', 00H, 'e', 00H, 'b', 00H, 'u'
	DB	00H, 'g', 00H, ' ', 00H, 'o', 00H, 'u', 00H, 't', 00H, 'p', 00H
	DB	'u', 00H, 't', 00H, ' ', 00H, 'w', 00H, 'i', 00H, 't', 00H, 'h'
	DB	00H, ' ', 00H, 'f', 00H, 'u', 00H, 'r', 00H, 't', 00H, 'h', 00H
	DB	'e', 00H, 'r', 00H, ' ', 00H, 'i', 00H, 'n', 00H, 'f', 00H, 'o'
	DB	00H, 'r', 00H, 'm', 00H, 'a', 00H, 't', 00H, 'i', 00H, 'o', 00H
	DB	'n', 00H, '.', 00H, 00H, 00H
$SG158792 DB	'E', 00H, 'R', 00H, 'R', 00H, 'O', 00H, 'R', 00H, '_', 00H
	DB	'S', 00H, 'O', 00H, 'U', 00H, 'R', 00H, 'C', 00H, 'E', 00H, '_'
	DB	00H, 'E', 00H, 'L', 00H, 'E', 00H, 'M', 00H, 'E', 00H, 'N', 00H
	DB	'T', 00H, '_', 00H, 'E', 00H, 'M', 00H, 'P', 00H, 'T', 00H, 'Y'
	DB	00H, 00H, 00H
	ORG $+2
$SG156744 DB	'O', 00H, 'S', 00H, 'S', 00H, '_', 00H, 'C', 00H, 'O', 00H
	DB	'N', 00H, 'S', 00H, 'T', 00H, 'R', 00H, 'A', 00H, 'I', 00H, 'N'
	DB	00H, 'T', 00H, '_', 00H, 'V', 00H, 'I', 00H, 'O', 00H, 'L', 00H
	DB	'A', 00H, 'T', 00H, 'E', 00H, 'D', 00H, 00H, 00H
$SG155720 DB	'C', 00H, 'O', 00H, 'N', 00H, 'V', 00H, 'E', 00H, 'R', 00H
	DB	'T', 00H, '1', 00H, '0', 00H, '_', 00H, 'E', 00H, '_', 00H, 'S'
	DB	00H, 'T', 00H, 'G', 00H, '_', 00H, 'F', 00H, 'M', 00H, 'T', 00H
	DB	00H, 00H
$SG159817 DB	'E', 00H, 'R', 00H, 'R', 00H, 'O', 00H, 'R', 00H, '_', 00H
	DB	'C', 00H, 'H', 00H, 'I', 00H, 'L', 00H, 'D', 00H, '_', 00H, 'W'
	DB	00H, 'I', 00H, 'N', 00H, 'D', 00H, 'O', 00H, 'W', 00H, '_', 00H
	DB	'M', 00H, 'E', 00H, 'N', 00H, 'U', 00H, 00H, 00H
$SG164938 DB	'E', 00H, 'R', 00H, 'R', 00H, 'O', 00H, 'R', 00H, '_', 00H
	DB	'I', 00H, 'N', 00H, 'S', 00H, 'T', 00H, 'A', 00H, 'L', 00H, 'L'
	DB	00H, '_', 00H, 'L', 00H, 'O', 00H, 'G', 00H, '_', 00H, 'F', 00H
	DB	'A', 00H, 'I', 00H, 'L', 00H, 'U', 00H, 'R', 00H, 'E', 00H, 00H
	DB	00H
$SG168010 DB	'D', 00H, '3', 00H, 'D', 00H, '1', 00H, '1', 00H, '_', 00H
	DB	'E', 00H, 'R', 00H, 'R', 00H, 'O', 00H, 'R', 00H, '_', 00H, 'D'
	DB	00H, 'E', 00H, 'F', 00H, 'E', 00H, 'R', 00H, 'R', 00H, 'E', 00H
	DB	'D', 00H, '_', 00H, 'C', 00H, 'O', 00H, 'N', 00H, 'T', 00H, 'E'
	DB	00H, 'X', 00H, 'T', 00H, '_', 00H, 'M', 00H, 'A', 00H, 'P', 00H
	DB	'_', 00H, 'W', 00H, 'I', 00H, 'T', 00H, 'H', 00H, 'O', 00H, 'U'
	DB	00H, 'T', 00H, '_', 00H, 'I', 00H, 'N', 00H, 'I', 00H, 'T', 00H
	DB	'I', 00H, 'A', 00H, 'L', 00H, '_', 00H, 'D', 00H, 'I', 00H, 'S'
	DB	00H, 'C', 00H, 'A', 00H, 'R', 00H, 'D', 00H, 00H, 00H
	ORG $+2
$SG163914 DB	'S', 00H, 'C', 00H, 'H', 00H, 'E', 00H, 'D', 00H, '_', 00H
	DB	'E', 00H, '_', 00H, 'A', 00H, 'C', 00H, 'C', 00H, 'O', 00H, 'U'
	DB	00H, 'N', 00H, 'T', 00H, '_', 00H, 'D', 00H, 'B', 00H, 'A', 00H
	DB	'S', 00H, 'E', 00H, '_', 00H, 'C', 00H, 'O', 00H, 'R', 00H, 'R'
	DB	00H, 'U', 00H, 'P', 00H, 'T', 00H, 00H, 00H
$SG160842 DB	'E', 00H, 'R', 00H, 'R', 00H, 'O', 00H, 'R', 00H, '_', 00H
	DB	'I', 00H, 'N', 00H, 'V', 00H, 'A', 00H, 'L', 00H, 'I', 00H, 'D'
	DB	00H, '_', 00H, 'P', 00H, 'R', 00H, 'O', 00H, 'F', 00H, 'I', 00H
	DB	'L', 00H, 'E', 00H, 00H, 00H
$SG161867 DB	'E', 00H, 'R', 00H, 'R', 00H, 'O', 00H, 'R', 00H, '_', 00H
	DB	'D', 00H, 'S', 00H, '_', 00H, 'C', 00H, 'R', 00H, 'O', 00H, 'S'
	DB	00H, 'S', 00H, '_', 00H, 'D', 00H, 'O', 00H, 'M', 00H, '_', 00H
	DB	'M', 00H, 'O', 00H, 'V', 00H, 'E', 00H, '_', 00H, 'E', 00H, 'R'
	DB	00H, 'R', 00H, 'O', 00H, 'R', 00H, 00H, 00H
$SG169035 DB	'T', 00H, 'h', 00H, 'e', 00H, ' ', 00H, 'i', 00H, 't', 00H
	DB	'e', 00H, 'm', 00H, ' ', 00H, 'r', 00H, 'e', 00H, 'q', 00H, 'u'
	DB	00H, 'e', 00H, 's', 00H, 't', 00H, 'e', 00H, 'd', 00H, ' ', 00H
	DB	'w', 00H, 'a', 00H, 's', 00H, ' ', 00H, 'n', 00H, 'o', 00H, 't'
	DB	00H, ' ', 00H, 'f', 00H, 'o', 00H, 'u', 00H, 'n', 00H, 'd', 00H
	DB	'.', 00H, ' ', 00H, 'F', 00H, 'o', 00H, 'r', 00H, ' ', 00H, 'G'
	DB	00H, 'e', 00H, 't', 00H, 'P', 00H, 'r', 00H, 'i', 00H, 'v', 00H
	DB	'a', 00H, 't', 00H, 'e', 00H, 'D', 00H, 'a', 00H, 't', 00H, 'a'
	DB	00H, ' ', 00H, 'c', 00H, 'a', 00H, 'l', 00H, 'l', 00H, 's', 00H
	DB	',', 00H, ' ', 00H, 't', 00H, 'h', 00H, 'i', 00H, 's', 00H, ' '
	DB	00H, 'm', 00H, 'e', 00H, 'a', 00H, 'n', 00H, 's', 00H, ' ', 00H
	DB	't', 00H, 'h', 00H, 'a', 00H, 't', 00H, ' ', 00H, 't', 00H, 'h'
	DB	00H, 'e', 00H, ' ', 00H, 's', 00H, 'p', 00H, 'e', 00H, 'c', 00H
	DB	'i', 00H, 'f', 00H, 'i', 00H, 'e', 00H, 'd', 00H, ' ', 00H, 'G'
	DB	00H, 'U', 00H, 'I', 00H, 'D', 00H, ' ', 00H, 'h', 00H, 'a', 00H
	DB	'd', 00H, ' ', 00H, 'n', 00H, 'o', 00H, 't', 00H, ' ', 00H, 'b'
	DB	00H, 'e', 00H, 'e', 00H, 'n', 00H, ' ', 00H, 'p', 00H, 'r', 00H
	DB	'e', 00H, 'v', 00H, 'i', 00H, 'o', 00H, 'u', 00H, 's', 00H, 'l'
	DB	00H, 'y', 00H, ' ', 00H, 'a', 00H, 's', 00H, 's', 00H, 'o', 00H
	DB	'c', 00H, 'i', 00H, 'a', 00H, 't', 00H, 'e', 00H, 'd', 00H, ' '
	DB	00H, 'w', 00H, 'i', 00H, 't', 00H, 'h', 00H, ' ', 00H, 't', 00H
	DB	'h', 00H, 'e', 00H, ' ', 00H, 'o', 00H, 'b', 00H, 'j', 00H, 'e'
	DB	00H, 'c', 00H, 't', 00H, '.', 00H, 00H, 00H
	ORG $+2
$SG165963 DB	'E', 00H, 'R', 00H, 'R', 00H, 'O', 00H, 'R', 00H, '_', 00H
	DB	'D', 00H, 'S', 00H, '_', 00H, 'F', 00H, 'I', 00H, 'L', 00H, 'T'
	DB	00H, 'E', 00H, 'R', 00H, '_', 00H, 'U', 00H, 'S', 00H, 'E', 00H
	DB	'S', 00H, '_', 00H, 'C', 00H, 'O', 00H, 'N', 00H, 'T', 00H, 'R'
	DB	00H, 'U', 00H, 'C', 00H, 'T', 00H, 'E', 00H, 'D', 00H, '_', 00H
	DB	'A', 00H, 'T', 00H, 'T', 00H, 'R', 00H, 'S', 00H, 00H, 00H
$SG156747 DB	'O', 00H, 'S', 00H, 'S', 00H, '_', 00H, 'F', 00H, 'A', 00H
	DB	'T', 00H, 'A', 00H, 'L', 00H, '_', 00H, 'E', 00H, 'R', 00H, 'R'
	DB	00H, 'O', 00H, 'R', 00H, 00H, 00H
$SG155723 DB	'C', 00H, 'O', 00H, 'N', 00H, 'V', 00H, 'E', 00H, 'R', 00H
	DB	'T', 00H, '1', 00H, '0', 00H, '_', 00H, 'E', 00H, '_', 00H, 'S'
	DB	00H, 'T', 00H, 'G', 00H, '_', 00H, 'N', 00H, 'O', 00H, '_', 00H
	DB	'S', 00H, 'T', 00H, 'D', 00H, '_', 00H, 'S', 00H, 'T', 00H, 'R'
	DB	00H, 'E', 00H, 'A', 00H, 'M', 00H, 00H, 00H
$SG166988 DB	'E', 00H, 'R', 00H, 'R', 00H, 'O', 00H, 'R', 00H, '_', 00H
	DB	'I', 00H, 'P', 00H, 'S', 00H, 'E', 00H, 'C', 00H, '_', 00H, 'I'
	DB	00H, 'K', 00H, 'E', 00H, '_', 00H, 'P', 00H, 'R', 00H, 'O', 00H
	DB	'C', 00H, 'E', 00H, 'S', 00H, 'S', 00H, '_', 00H, 'E', 00H, 'R'
	DB	00H, 'R', 00H, '_', 00H, 'P', 00H, 'R', 00H, 'O', 00H, 'P', 00H
	DB	00H, 00H
	ORG $+2
$SG163917 DB	'S', 00H, 'C', 00H, 'H', 00H, 'E', 00H, 'D', 00H, '_', 00H
	DB	'E', 00H, '_', 00H, 'N', 00H, 'O', 00H, '_', 00H, 'S', 00H, 'E'
	DB	00H, 'C', 00H, 'U', 00H, 'R', 00H, 'I', 00H, 'T', 00H, 'Y', 00H
	DB	'_', 00H, 'S', 00H, 'E', 00H, 'R', 00H, 'V', 00H, 'I', 00H, 'C'
	DB	00H, 'E', 00H, 'S', 00H, 00H, 00H
	ORG $+2
$SG162892 DB	'E', 00H, 'R', 00H, 'R', 00H, 'O', 00H, 'R', 00H, '_', 00H
	DB	'D', 00H, 'S', 00H, '_', 00H, 'D', 00H, 'R', 00H, 'A', 00H, '_'
	DB	00H, 'I', 00H, 'N', 00H, 'C', 00H, 'O', 00H, 'M', 00H, 'P', 00H
	DB	'A', 00H, 'T', 00H, 'I', 00H, 'B', 00H, 'L', 00H, 'E', 00H, '_'
	DB	00H, 'P', 00H, 'A', 00H, 'R', 00H, 'T', 00H, 'I', 00H, 'A', 00H
	DB	'L', 00H, '_', 00H, 'S', 00H, 'E', 00H, 'T', 00H, 00H, 00H
$SG159822 DB	'E', 00H, 'R', 00H, 'R', 00H, 'O', 00H, 'R', 00H, '_', 00H
	DB	'N', 00H, 'O', 00H, '_', 00H, 'S', 00H, 'Y', 00H, 'S', 00H, 'T'
	DB	00H, 'E', 00H, 'M', 00H, '_', 00H, 'M', 00H, 'E', 00H, 'N', 00H
	DB	'U', 00H, 00H, 00H
	ORG $+2
$SG168013 DB	'D', 00H, '2', 00H, 'D', 00H, 'E', 00H, 'R', 00H, 'R', 00H
	DB	'_', 00H, 'U', 00H, 'N', 00H, 'S', 00H, 'U', 00H, 'P', 00H, 'P'
	DB	00H, 'O', 00H, 'R', 00H, 'T', 00H, 'E', 00H, 'D', 00H, '_', 00H
	DB	'P', 00H, 'I', 00H, 'X', 00H, 'E', 00H, 'L', 00H, '_', 00H, 'F'
	DB	00H, 'O', 00H, 'R', 00H, 'M', 00H, 'A', 00H, 'T', 00H, 00H, 00H
$SG158797 DB	'E', 00H, 'R', 00H, 'R', 00H, 'O', 00H, 'R', 00H, '_', 00H
	DB	'D', 00H, 'E', 00H, 'S', 00H, 'T', 00H, 'I', 00H, 'N', 00H, 'A'
	DB	00H, 'T', 00H, 'I', 00H, 'O', 00H, 'N', 00H, '_', 00H, 'E', 00H
	DB	'L', 00H, 'E', 00H, 'M', 00H, 'E', 00H, 'N', 00H, 'T', 00H, '_'
	DB	00H, 'F', 00H, 'U', 00H, 'L', 00H, 'L', 00H, 00H, 00H
	ORG $+2
$SG157773 DB	'E', 00H, 'R', 00H, 'R', 00H, 'O', 00H, 'R', 00H, '_', 00H
	DB	'W', 00H, 'A', 00H, 'I', 00H, 'T', 00H, '_', 00H, 'N', 00H, 'O'
	DB	00H, '_', 00H, 'C', 00H, 'H', 00H, 'I', 00H, 'L', 00H, 'D', 00H
	DB	'R', 00H, 'E', 00H, 'N', 00H, 00H, 00H
	ORG $+2
$SG169038 DB	'T', 00H, 'h', 00H, 'e', 00H, ' ', 00H, 's', 00H, 'p', 00H
	DB	'e', 00H, 'c', 00H, 'i', 00H, 'f', 00H, 'i', 00H, 'e', 00H, 'd'
	DB	00H, ' ', 00H, 's', 00H, 'i', 00H, 'z', 00H, 'e', 00H, ' ', 00H
	DB	'o', 00H, 'f', 00H, ' ', 00H, 't', 00H, 'h', 00H, 'e', 00H, ' '
	DB	00H, 'd', 00H, 'e', 00H, 's', 00H, 't', 00H, 'i', 00H, 'n', 00H
	DB	'a', 00H, 't', 00H, 'i', 00H, 'o', 00H, 'n', 00H, ' ', 00H, 'b'
	DB	00H, 'u', 00H, 'f', 00H, 'f', 00H, 'e', 00H, 'r', 00H, ' ', 00H
	DB	'i', 00H, 's', 00H, ' ', 00H, 't', 00H, 'o', 00H, 'o', 00H, ' '
	DB	00H, 's', 00H, 'm', 00H, 'a', 00H, 'l', 00H, 'l', 00H, ' ', 00H
	DB	't', 00H, 'o', 00H, ' ', 00H, 'h', 00H, 'o', 00H, 'l', 00H, 'd'
	DB	00H, ' ', 00H, 't', 00H, 'h', 00H, 'e', 00H, ' ', 00H, 'r', 00H
	DB	'e', 00H, 'q', 00H, 'u', 00H, 'e', 00H, 's', 00H, 't', 00H, 'e'
	DB	00H, 'd', 00H, ' ', 00H, 'd', 00H, 'a', 00H, 't', 00H, 'a', 00H
	DB	'.', 00H, 00H, 00H
$SG156750 DB	'O', 00H, 'S', 00H, 'S', 00H, '_', 00H, 'A', 00H, 'C', 00H
	DB	'C', 00H, 'E', 00H, 'S', 00H, 'S', 00H, '_', 00H, 'S', 00H, 'E'
	DB	00H, 'R', 00H, 'I', 00H, 'A', 00H, 'L', 00H, 'I', 00H, 'Z', 00H
	DB	'A', 00H, 'T', 00H, 'I', 00H, 'O', 00H, 'N', 00H, '_', 00H, 'E'
	DB	00H, 'R', 00H, 'R', 00H, 'O', 00H, 'R', 00H, 00H, 00H
	ORG $+2
$SG155726 DB	'C', 00H, 'O', 00H, 'N', 00H, 'V', 00H, 'E', 00H, 'R', 00H
	DB	'T', 00H, '1', 00H, '0', 00H, '_', 00H, 'E', 00H, '_', 00H, 'S'
	DB	00H, 'T', 00H, 'G', 00H, '_', 00H, 'D', 00H, 'I', 00H, 'B', 00H
	DB	'_', 00H, 'T', 00H, 'O', 00H, '_', 00H, 'B', 00H, 'I', 00H, 'T'
	DB	00H, 'M', 00H, 'A', 00H, 'P', 00H, 00H, 00H
$SG164943 DB	'E', 00H, 'R', 00H, 'R', 00H, 'O', 00H, 'R', 00H, '_', 00H
	DB	'I', 00H, 'N', 00H, 'S', 00H, 'T', 00H, 'A', 00H, 'L', 00H, 'L'
	DB	00H, '_', 00H, 'L', 00H, 'A', 00H, 'N', 00H, 'G', 00H, 'U', 00H
	DB	'A', 00H, 'G', 00H, 'E', 00H, '_', 00H, 'U', 00H, 'N', 00H, 'S'
	DB	00H, 'U', 00H, 'P', 00H, 'P', 00H, 'O', 00H, 'R', 00H, 'T', 00H
	DB	'E', 00H, 'D', 00H, 00H, 00H
	ORG $+2
$SG160847 DB	'E', 00H, 'R', 00H, 'R', 00H, 'O', 00H, 'R', 00H, '_', 00H
	DB	'T', 00H, 'A', 00H, 'G', 00H, '_', 00H, 'N', 00H, 'O', 00H, 'T'
	DB	00H, '_', 00H, 'F', 00H, 'O', 00H, 'U', 00H, 'N', 00H, 'D', 00H
	DB	00H, 00H
$SG168016 DB	'D', 00H, '2', 00H, 'D', 00H, 'E', 00H, 'R', 00H, 'R', 00H
	DB	'_', 00H, 'W', 00H, 'R', 00H, 'O', 00H, 'N', 00H, 'G', 00H, '_'
	DB	00H, 'S', 00H, 'T', 00H, 'A', 00H, 'T', 00H, 'E', 00H, 00H, 00H
	ORG $+2
$SG165968 DB	'E', 00H, 'R', 00H, 'R', 00H, 'O', 00H, 'R', 00H, '_', 00H
	DB	'D', 00H, 'S', 00H, '_', 00H, 'U', 00H, 'N', 00H, 'I', 00H, 'C'
	DB	00H, 'O', 00H, 'D', 00H, 'E', 00H, 'P', 00H, 'W', 00H, 'D', 00H
	DB	'_', 00H, 'N', 00H, 'O', 00H, 'T', 00H, '_', 00H, 'I', 00H, 'N'
	DB	00H, '_', 00H, 'Q', 00H, 'U', 00H, 'O', 00H, 'T', 00H, 'E', 00H
	DB	'S', 00H, 00H, 00H
$SG163920 DB	'S', 00H, 'C', 00H, 'H', 00H, 'E', 00H, 'D', 00H, '_', 00H
	DB	'E', 00H, '_', 00H, 'U', 00H, 'N', 00H, 'K', 00H, 'N', 00H, 'O'
	DB	00H, 'W', 00H, 'N', 00H, '_', 00H, 'O', 00H, 'B', 00H, 'J', 00H
	DB	'E', 00H, 'C', 00H, 'T', 00H, '_', 00H, 'V', 00H, 'E', 00H, 'R'
	DB	00H, 'S', 00H, 'I', 00H, 'O', 00H, 'N', 00H, 00H, 00H
	ORG $+2
$SG161872 DB	'E', 00H, 'R', 00H, 'R', 00H, 'O', 00H, 'R', 00H, '_', 00H
	DB	'D', 00H, 'S', 00H, '_', 00H, 'G', 00H, 'C', 00H, '_', 00H, 'N'
	DB	00H, 'O', 00H, 'T', 00H, '_', 00H, 'A', 00H, 'V', 00H, 'A', 00H
	DB	'I', 00H, 'L', 00H, 'A', 00H, 'B', 00H, 'L', 00H, 'E', 00H, 00H
	DB	00H
$SG155728 DB	'C', 00H, 'L', 00H, 'I', 00H, 'P', 00H, 'B', 00H, 'R', 00H
	DB	'D', 00H, '_', 00H, 'E', 00H, '_', 00H, 'F', 00H, 'I', 00H, 'R'
	DB	00H, 'S', 00H, 'T', 00H, 00H, 00H
$SG169041 DB	'U', 00H, 'n', 00H, 's', 00H, 'u', 00H, 'p', 00H, 'p', 00H
	DB	'o', 00H, 'r', 00H, 't', 00H, 'e', 00H, 'd', 00H, '.', 00H, 00H
	DB	00H
	ORG $+2
$SG156753 DB	'O', 00H, 'S', 00H, 'S', 00H, '_', 00H, 'N', 00H, 'U', 00H
	DB	'L', 00H, 'L', 00H, '_', 00H, 'T', 00H, 'B', 00H, 'L', 00H, 00H
	DB	00H
	ORG $+2
$SG166993 DB	'E', 00H, 'R', 00H, 'R', 00H, 'O', 00H, 'R', 00H, '_', 00H
	DB	'I', 00H, 'P', 00H, 'S', 00H, 'E', 00H, 'C', 00H, '_', 00H, 'I'
	DB	00H, 'K', 00H, 'E', 00H, '_', 00H, 'P', 00H, 'R', 00H, 'O', 00H
	DB	'C', 00H, 'E', 00H, 'S', 00H, 'S', 00H, '_', 00H, 'E', 00H, 'R'
	DB	00H, 'R', 00H, '_', 00H, 'T', 00H, 'R', 00H, 'A', 00H, 'N', 00H
	DB	'S', 00H, 00H, 00H
$SG158802 DB	'E', 00H, 'R', 00H, 'R', 00H, 'O', 00H, 'R', 00H, '_', 00H
	DB	'I', 00H, 'L', 00H, 'L', 00H, 'E', 00H, 'G', 00H, 'A', 00H, 'L'
	DB	00H, '_', 00H, 'E', 00H, 'L', 00H, 'E', 00H, 'M', 00H, 'E', 00H
	DB	'N', 00H, 'T', 00H, '_', 00H, 'A', 00H, 'D', 00H, 'D', 00H, 'R'
	DB	00H, 'E', 00H, 'S', 00H, 'S', 00H, 00H, 00H
$SG162897 DB	'E', 00H, 'R', 00H, 'R', 00H, 'O', 00H, 'R', 00H, '_', 00H
	DB	'D', 00H, 'S', 00H, '_', 00H, 'D', 00H, 'R', 00H, 'A', 00H, '_'
	DB	00H, 'S', 00H, 'O', 00H, 'U', 00H, 'R', 00H, 'C', 00H, 'E', 00H
	DB	'_', 00H, 'I', 00H, 'S', 00H, '_', 00H, 'P', 00H, 'A', 00H, 'R'
	DB	00H, 'T', 00H, 'I', 00H, 'A', 00H, 'L', 00H, '_', 00H, 'R', 00H
	DB	'E', 00H, 'P', 00H, 'L', 00H, 'I', 00H, 'C', 00H, 'A', 00H, 00H
	DB	00H
	ORG $+2
$SG157778 DB	'E', 00H, 'R', 00H, 'R', 00H, 'O', 00H, 'R', 00H, '_', 00H
	DB	'C', 00H, 'H', 00H, 'I', 00H, 'L', 00H, 'D', 00H, '_', 00H, 'N'
	DB	00H, 'O', 00H, 'T', 00H, '_', 00H, 'C', 00H, 'O', 00H, 'M', 00H
	DB	'P', 00H, 'L', 00H, 'E', 00H, 'T', 00H, 'E', 00H, 00H, 00H
	ORG $+2
$SG155730 DB	'C', 00H, 'L', 00H, 'I', 00H, 'P', 00H, 'B', 00H, 'R', 00H
	DB	'D', 00H, '_', 00H, 'E', 00H, '_', 00H, 'L', 00H, 'A', 00H, 'S'
	DB	00H, 'T', 00H, 00H, 00H
	ORG $+2
$SG168019 DB	'D', 00H, '2', 00H, 'D', 00H, 'E', 00H, 'R', 00H, 'R', 00H
	DB	'_', 00H, 'N', 00H, 'O', 00H, 'T', 00H, '_', 00H, 'I', 00H, 'N'
	DB	00H, 'I', 00H, 'T', 00H, 'I', 00H, 'A', 00H, 'L', 00H, 'I', 00H
	DB	'Z', 00H, 'E', 00H, 'D', 00H, 00H, 00H
	ORG $+2
$SG169044 DB	'H', 00H, 'a', 00H, 'r', 00H, 'd', 00H, 'w', 00H, 'a', 00H
	DB	'r', 00H, 'e', 00H, ' ', 00H, 'd', 00H, 'e', 00H, 'v', 00H, 'i'
	DB	00H, 'c', 00H, 'e', 00H, ' ', 00H, 'r', 00H, 'e', 00H, 'm', 00H
	DB	'o', 00H, 'v', 00H, 'e', 00H, 'd', 00H, '.', 00H, 00H, 00H
	ORG $+2
$SG163923 DB	'S', 00H, 'C', 00H, 'H', 00H, 'E', 00H, 'D', 00H, '_', 00H
	DB	'E', 00H, '_', 00H, 'U', 00H, 'N', 00H, 'S', 00H, 'U', 00H, 'P'
	DB	00H, 'P', 00H, 'O', 00H, 'R', 00H, 'T', 00H, 'E', 00H, 'D', 00H
	DB	'_', 00H, 'A', 00H, 'C', 00H, 'C', 00H, 'O', 00H, 'U', 00H, 'N'
	DB	00H, 'T', 00H, '_', 00H, 'O', 00H, 'P', 00H, 'T', 00H, 'I', 00H
	DB	'O', 00H, 'N', 00H, 00H, 00H
	ORG $+2
$SG159827 DB	'E', 00H, 'R', 00H, 'R', 00H, 'O', 00H, 'R', 00H, '_', 00H
	DB	'I', 00H, 'N', 00H, 'V', 00H, 'A', 00H, 'L', 00H, 'I', 00H, 'D'
	DB	00H, '_', 00H, 'M', 00H, 'S', 00H, 'G', 00H, 'B', 00H, 'O', 00H
	DB	'X', 00H, '_', 00H, 'S', 00H, 'T', 00H, 'Y', 00H, 'L', 00H, 'E'
	DB	00H, 00H, 00H
	ORG $+2
$SG164948 DB	'E', 00H, 'R', 00H, 'R', 00H, 'O', 00H, 'R', 00H, '_', 00H
	DB	'I', 00H, 'N', 00H, 'S', 00H, 'T', 00H, 'A', 00H, 'L', 00H, 'L'
	DB	00H, '_', 00H, 'T', 00H, 'R', 00H, 'A', 00H, 'N', 00H, 'S', 00H
	DB	'F', 00H, 'O', 00H, 'R', 00H, 'M', 00H, '_', 00H, 'F', 00H, 'A'
	DB	00H, 'I', 00H, 'L', 00H, 'U', 00H, 'R', 00H, 'E', 00H, 00H, 00H
$SG160852 DB	'E', 00H, 'R', 00H, 'R', 00H, 'O', 00H, 'R', 00H, '_', 00H
	DB	'T', 00H, 'A', 00H, 'G', 00H, '_', 00H, 'N', 00H, 'O', 00H, 'T'
	DB	00H, '_', 00H, 'P', 00H, 'R', 00H, 'E', 00H, 'S', 00H, 'E', 00H
	DB	'N', 00H, 'T', 00H, 00H, 00H
$SG156756 DB	'O', 00H, 'S', 00H, 'S', 00H, '_', 00H, 'N', 00H, 'U', 00H
	DB	'L', 00H, 'L', 00H, '_', 00H, 'F', 00H, 'C', 00H, 'N', 00H, 00H
	DB	00H
	ORG $+2
$SG155732 DB	'C', 00H, 'L', 00H, 'I', 00H, 'P', 00H, 'B', 00H, 'R', 00H
	DB	'D', 00H, '_', 00H, 'S', 00H, '_', 00H, 'F', 00H, 'I', 00H, 'R'
	DB	00H, 'S', 00H, 'T', 00H, 00H, 00H
$SG165973 DB	'E', 00H, 'R', 00H, 'R', 00H, 'O', 00H, 'R', 00H, '_', 00H
	DB	'D', 00H, 'S', 00H, '_', 00H, 'M', 00H, 'A', 00H, 'C', 00H, 'H'
	DB	00H, 'I', 00H, 'N', 00H, 'E', 00H, '_', 00H, 'A', 00H, 'C', 00H
	DB	'C', 00H, 'O', 00H, 'U', 00H, 'N', 00H, 'T', 00H, '_', 00H, 'Q'
	DB	00H, 'U', 00H, 'O', 00H, 'T', 00H, 'A', 00H, '_', 00H, 'E', 00H
	DB	'X', 00H, 'C', 00H, 'E', 00H, 'E', 00H, 'D', 00H, 'E', 00H, 'D'
	DB	00H, 00H, 00H
$SG161877 DB	'E', 00H, 'R', 00H, 'R', 00H, 'O', 00H, 'R', 00H, '_', 00H
	DB	'S', 00H, 'H', 00H, 'A', 00H, 'R', 00H, 'E', 00H, 'D', 00H, '_'
	DB	00H, 'P', 00H, 'O', 00H, 'L', 00H, 'I', 00H, 'C', 00H, 'Y', 00H
	DB	00H, 00H
$SG168022 DB	'D', 00H, '2', 00H, 'D', 00H, 'E', 00H, 'R', 00H, 'R', 00H
	DB	'_', 00H, 'U', 00H, 'N', 00H, 'S', 00H, 'U', 00H, 'P', 00H, 'P'
	DB	00H, 'O', 00H, 'R', 00H, 'T', 00H, 'E', 00H, 'D', 00H, '_', 00H
	DB	'O', 00H, 'P', 00H, 'E', 00H, 'R', 00H, 'A', 00H, 'T', 00H, 'I'
	DB	00H, 'O', 00H, 'N', 00H, 00H, 00H
	ORG $+2
$SG166998 DB	'E', 00H, 'R', 00H, 'R', 00H, 'O', 00H, 'R', 00H, '_', 00H
	DB	'I', 00H, 'P', 00H, 'S', 00H, 'E', 00H, 'C', 00H, '_', 00H, 'I'
	DB	00H, 'K', 00H, 'E', 00H, '_', 00H, 'P', 00H, 'R', 00H, 'O', 00H
	DB	'C', 00H, 'E', 00H, 'S', 00H, 'S', 00H, '_', 00H, 'E', 00H, 'R'
	DB	00H, 'R', 00H, '_', 00H, 'K', 00H, 'E', 00H, 00H, 00H
	ORG $+2
$SG163926 DB	'S', 00H, 'C', 00H, 'H', 00H, 'E', 00H, 'D', 00H, '_', 00H
	DB	'E', 00H, '_', 00H, 'S', 00H, 'E', 00H, 'R', 00H, 'V', 00H, 'I'
	DB	00H, 'C', 00H, 'E', 00H, '_', 00H, 'N', 00H, 'O', 00H, 'T', 00H
	DB	'_', 00H, 'R', 00H, 'U', 00H, 'N', 00H, 'N', 00H, 'I', 00H, 'N'
	DB	00H, 'G', 00H, 00H, 00H
$SG156759 DB	'O', 00H, 'S', 00H, 'S', 00H, '_', 00H, 'B', 00H, 'A', 00H
	DB	'D', 00H, '_', 00H, 'E', 00H, 'N', 00H, 'C', 00H, 'R', 00H, 'U'
	DB	00H, 'L', 00H, 'E', 00H, 'S', 00H, 00H, 00H
	ORG $+2
$SG162902 DB	'E', 00H, 'R', 00H, 'R', 00H, 'O', 00H, 'R', 00H, '_', 00H
	DB	'D', 00H, 'S', 00H, '_', 00H, 'D', 00H, 'R', 00H, 'A', 00H, '_'
	DB	00H, 'E', 00H, 'X', 00H, 'T', 00H, 'N', 00H, '_', 00H, 'C', 00H
	DB	'O', 00H, 'N', 00H, 'N', 00H, 'E', 00H, 'C', 00H, 'T', 00H, 'I'
	DB	00H, 'O', 00H, 'N', 00H, '_', 00H, 'F', 00H, 'A', 00H, 'I', 00H
	DB	'L', 00H, 'E', 00H, 'D', 00H, 00H, 00H
$SG155734 DB	'C', 00H, 'L', 00H, 'I', 00H, 'P', 00H, 'B', 00H, 'R', 00H
	DB	'D', 00H, '_', 00H, 'S', 00H, '_', 00H, 'L', 00H, 'A', 00H, 'S'
	DB	00H, 'T', 00H, 00H, 00H
	ORG $+2
$SG169047 DB	'D', 00H, 'e', 00H, 'v', 00H, 'i', 00H, 'c', 00H, 'e', 00H
	DB	' ', 00H, 'h', 00H, 'u', 00H, 'n', 00H, 'g', 00H, ' ', 00H, 'd'
	DB	00H, 'u', 00H, 'e', 00H, ' ', 00H, 't', 00H, 'o', 00H, ' ', 00H
	DB	'b', 00H, 'a', 00H, 'd', 00H, 'l', 00H, 'y', 00H, ' ', 00H, 'f'
	DB	00H, 'o', 00H, 'r', 00H, 'm', 00H, 'e', 00H, 'd', 00H, ' ', 00H
	DB	'c', 00H, 'o', 00H, 'm', 00H, 'm', 00H, 'a', 00H, 'n', 00H, 'd'
	DB	00H, 's', 00H, '.', 00H, 00H, 00H
$SG158807 DB	'E', 00H, 'R', 00H, 'R', 00H, 'O', 00H, 'R', 00H, '_', 00H
	DB	'M', 00H, 'A', 00H, 'G', 00H, 'A', 00H, 'Z', 00H, 'I', 00H, 'N'
	DB	00H, 'E', 00H, '_', 00H, 'N', 00H, 'O', 00H, 'T', 00H, '_', 00H
	DB	'P', 00H, 'R', 00H, 'E', 00H, 'S', 00H, 'E', 00H, 'N', 00H, 'T'
	DB	00H, 00H, 00H
	ORG $+2
$SG157783 DB	'E', 00H, 'R', 00H, 'R', 00H, 'O', 00H, 'R', 00H, '_', 00H
	DB	'D', 00H, 'I', 00H, 'R', 00H, 'E', 00H, 'C', 00H, 'T', 00H, '_'
	DB	00H, 'A', 00H, 'C', 00H, 'C', 00H, 'E', 00H, 'S', 00H, 'S', 00H
	DB	'_', 00H, 'H', 00H, 'A', 00H, 'N', 00H, 'D', 00H, 'L', 00H, 'E'
	DB	00H, 00H, 00H
	ORG $+2
$SG159832 DB	'E', 00H, 'R', 00H, 'R', 00H, 'O', 00H, 'R', 00H, '_', 00H
	DB	'I', 00H, 'N', 00H, 'V', 00H, 'A', 00H, 'L', 00H, 'I', 00H, 'D'
	DB	00H, '_', 00H, 'S', 00H, 'P', 00H, 'I', 00H, '_', 00H, 'V', 00H
	DB	'A', 00H, 'L', 00H, 'U', 00H, 'E', 00H, 00H, 00H
$SG168025 DB	'D', 00H, '2', 00H, 'D', 00H, 'E', 00H, 'R', 00H, 'R', 00H
	DB	'_', 00H, 'S', 00H, 'C', 00H, 'A', 00H, 'N', 00H, 'N', 00H, 'E'
	DB	00H, 'R', 00H, '_', 00H, 'F', 00H, 'A', 00H, 'I', 00H, 'L', 00H
	DB	'E', 00H, 'D', 00H, 00H, 00H
$SG164953 DB	'E', 00H, 'R', 00H, 'R', 00H, 'O', 00H, 'R', 00H, '_', 00H
	DB	'I', 00H, 'N', 00H, 'S', 00H, 'T', 00H, 'A', 00H, 'L', 00H, 'L'
	DB	00H, '_', 00H, 'P', 00H, 'A', 00H, 'C', 00H, 'K', 00H, 'A', 00H
	DB	'G', 00H, 'E', 00H, '_', 00H, 'R', 00H, 'E', 00H, 'J', 00H, 'E'
	DB	00H, 'C', 00H, 'T', 00H, 'E', 00H, 'D', 00H, 00H, 00H
	ORG $+2
$SG163929 DB	'C', 00H, 'O', 00H, '_', 00H, 'S', 00H, '_', 00H, 'M', 00H
	DB	'A', 00H, 'C', 00H, 'H', 00H, 'I', 00H, 'N', 00H, 'E', 00H, 'N'
	DB	00H, 'A', 00H, 'M', 00H, 'E', 00H, 'N', 00H, 'O', 00H, 'T', 00H
	DB	'F', 00H, 'O', 00H, 'U', 00H, 'N', 00H, 'D', 00H, 00H, 00H
	ORG $+2
$SG160857 DB	'E', 00H, 'R', 00H, 'R', 00H, 'O', 00H, 'R', 00H, '_', 00H
	DB	'D', 00H, 'U', 00H, 'P', 00H, 'L', 00H, 'I', 00H, 'C', 00H, 'A'
	DB	00H, 'T', 00H, 'E', 00H, '_', 00H, 'T', 00H, 'A', 00H, 'G', 00H
	DB	00H, 00H
$SG155737 DB	'C', 00H, 'L', 00H, 'I', 00H, 'P', 00H, 'B', 00H, 'R', 00H
	DB	'D', 00H, '_', 00H, 'E', 00H, '_', 00H, 'C', 00H, 'A', 00H, 'N'
	DB	00H, 'T', 00H, '_', 00H, 'E', 00H, 'M', 00H, 'P', 00H, 'T', 00H
	DB	'Y', 00H, 00H, 00H
	ORG $+2
$SG169050 DB	'D', 00H, 'e', 00H, 'v', 00H, 'i', 00H, 'c', 00H, 'e', 00H
	DB	' ', 00H, 'r', 00H, 'e', 00H, 's', 00H, 'e', 00H, 't', 00H, ' '
	DB	00H, 'd', 00H, 'u', 00H, 'e', 00H, ' ', 00H, 't', 00H, 'o', 00H
	DB	' ', 00H, 'a', 00H, ' ', 00H, 'b', 00H, 'a', 00H, 'd', 00H, 'l'
	DB	00H, 'y', 00H, ' ', 00H, 'f', 00H, 'o', 00H, 'r', 00H, 'm', 00H
	DB	'e', 00H, 'd', 00H, ' ', 00H, 'c', 00H, 'o', 00H, 'm', 00H, 'm'
	DB	00H, 'a', 00H, 'n', 00H, 't', 00H, '.', 00H, 00H, 00H
$SG165978 DB	'E', 00H, 'R', 00H, 'R', 00H, 'O', 00H, 'R', 00H, '_', 00H
	DB	'D', 00H, 'S', 00H, '_', 00H, 'M', 00H, 'U', 00H, 'S', 00H, 'T'
	DB	00H, '_', 00H, 'B', 00H, 'E', 00H, '_', 00H, 'R', 00H, 'U', 00H
	DB	'N', 00H, '_', 00H, 'O', 00H, 'N', 00H, '_', 00H, 'D', 00H, 'S'
	DB	00H, 'T', 00H, '_', 00H, 'D', 00H, 'C', 00H, 00H, 00H
	ORG $+2
$SG161882 DB	'E', 00H, 'R', 00H, 'R', 00H, 'O', 00H, 'R', 00H, '_', 00H
	DB	'P', 00H, 'O', 00H, 'L', 00H, 'I', 00H, 'C', 00H, 'Y', 00H, '_'
	DB	00H, 'O', 00H, 'B', 00H, 'J', 00H, 'E', 00H, 'C', 00H, 'T', 00H
	DB	'_', 00H, 'N', 00H, 'O', 00H, 'T', 00H, '_', 00H, 'F', 00H, 'O'
	DB	00H, 'U', 00H, 'N', 00H, 'D', 00H, 00H, 00H
$SG156762 DB	'O', 00H, 'S', 00H, 'S', 00H, '_', 00H, 'U', 00H, 'N', 00H
	DB	'A', 00H, 'V', 00H, 'A', 00H, 'I', 00H, 'L', 00H, '_', 00H, 'E'
	DB	00H, 'N', 00H, 'C', 00H, 'R', 00H, 'U', 00H, 'L', 00H, 'E', 00H
	DB	'S', 00H, 00H, 00H
	ORG $+2
$SG167003 DB	'E', 00H, 'R', 00H, 'R', 00H, 'O', 00H, 'R', 00H, '_', 00H
	DB	'I', 00H, 'P', 00H, 'S', 00H, 'E', 00H, 'C', 00H, '_', 00H, 'I'
	DB	00H, 'K', 00H, 'E', 00H, '_', 00H, 'P', 00H, 'R', 00H, 'O', 00H
	DB	'C', 00H, 'E', 00H, 'S', 00H, 'S', 00H, '_', 00H, 'E', 00H, 'R'
	DB	00H, 'R', 00H, '_', 00H, 'I', 00H, 'D', 00H, 00H, 00H
	ORG $+2
$SG162907 DB	'E', 00H, 'R', 00H, 'R', 00H, 'O', 00H, 'R', 00H, '_', 00H
	DB	'D', 00H, 'S', 00H, '_', 00H, 'I', 00H, 'N', 00H, 'S', 00H, 'T'
	DB	00H, 'A', 00H, 'L', 00H, 'L', 00H, '_', 00H, 'S', 00H, 'C', 00H
	DB	'H', 00H, 'E', 00H, 'M', 00H, 'A', 00H, '_', 00H, 'M', 00H, 'I'
	DB	00H, 'S', 00H, 'M', 00H, 'A', 00H, 'T', 00H, 'C', 00H, 'H', 00H
	DB	00H, 00H
	ORG $+2
$SG168028 DB	'D', 00H, '2', 00H, 'D', 00H, 'E', 00H, 'R', 00H, 'R', 00H
	DB	'_', 00H, 'S', 00H, 'C', 00H, 'R', 00H, 'E', 00H, 'E', 00H, 'N'
	DB	00H, '_', 00H, 'A', 00H, 'C', 00H, 'C', 00H, 'E', 00H, 'S', 00H
	DB	'S', 00H, '_', 00H, 'D', 00H, 'E', 00H, 'N', 00H, 'I', 00H, 'E'
	DB	00H, 'D', 00H, 00H, 00H
$SG164958 DB	'E', 00H, 'R', 00H, 'R', 00H, 'O', 00H, 'R', 00H, '_', 00H
	DB	'F', 00H, 'U', 00H, 'N', 00H, 'C', 00H, 'T', 00H, 'I', 00H, 'O'
	DB	00H, 'N', 00H, '_', 00H, 'N', 00H, 'O', 00H, 'T', 00H, '_', 00H
	DB	'C', 00H, 'A', 00H, 'L', 00H, 'L', 00H, 'E', 00H, 'D', 00H, 00H
	DB	00H
$SG163932 DB	'S', 00H, 'T', 00H, 'G', 00H, '_', 00H, 'E', 00H, '_', 00H
	DB	'S', 00H, 'T', 00H, 'A', 00H, 'T', 00H, 'U', 00H, 'S', 00H, '_'
	DB	00H, 'C', 00H, 'O', 00H, 'P', 00H, 'Y', 00H, '_', 00H, 'P', 00H
	DB	'R', 00H, 'O', 00H, 'T', 00H, 'E', 00H, 'C', 00H, 'T', 00H, 'I'
	DB	00H, 'O', 00H, 'N', 00H, '_', 00H, 'F', 00H, 'A', 00H, 'I', 00H
	DB	'L', 00H, 'U', 00H, 'R', 00H, 'E', 00H, 00H, 00H
	ORG $+2
$SG157788 DB	'E', 00H, 'R', 00H, 'R', 00H, 'O', 00H, 'R', 00H, '_', 00H
	DB	'N', 00H, 'E', 00H, 'G', 00H, 'A', 00H, 'T', 00H, 'I', 00H, 'V'
	DB	00H, 'E', 00H, '_', 00H, 'S', 00H, 'E', 00H, 'E', 00H, 'K', 00H
	DB	00H, 00H
$SG168031 DB	'D', 00H, '2', 00H, 'D', 00H, 'E', 00H, 'R', 00H, 'R', 00H
	DB	'_', 00H, 'D', 00H, 'I', 00H, 'S', 00H, 'P', 00H, 'L', 00H, 'A'
	DB	00H, 'Y', 00H, '_', 00H, 'S', 00H, 'T', 00H, 'A', 00H, 'T', 00H
	DB	'E', 00H, '_', 00H, 'I', 00H, 'N', 00H, 'V', 00H, 'A', 00H, 'L'
	DB	00H, 'I', 00H, 'D', 00H, 00H, 00H
	ORG $+2
$SG158812 DB	'E', 00H, 'R', 00H, 'R', 00H, 'O', 00H, 'R', 00H, '_', 00H
	DB	'D', 00H, 'E', 00H, 'V', 00H, 'I', 00H, 'C', 00H, 'E', 00H, '_'
	DB	00H, 'R', 00H, 'E', 00H, 'I', 00H, 'N', 00H, 'I', 00H, 'T', 00H
	DB	'I', 00H, 'A', 00H, 'L', 00H, 'I', 00H, 'Z', 00H, 'A', 00H, 'T'
	DB	00H, 'I', 00H, 'O', 00H, 'N', 00H, '_', 00H, 'N', 00H, 'E', 00H
	DB	'E', 00H, 'D', 00H, 'E', 00H, 'D', 00H, 00H, 00H
	ORG $+2
$SG155740 DB	'C', 00H, 'L', 00H, 'I', 00H, 'P', 00H, 'B', 00H, 'R', 00H
	DB	'D', 00H, '_', 00H, 'E', 00H, '_', 00H, 'C', 00H, 'A', 00H, 'N'
	DB	00H, 'T', 00H, '_', 00H, 'S', 00H, 'E', 00H, 'T', 00H, 00H, 00H
	ORG $+2
$SG169053 DB	'W', 00H, 'a', 00H, 's', 00H, ' ', 00H, 's', 00H, 't', 00H
	DB	'i', 00H, 'l', 00H, 'l', 00H, ' ', 00H, 'd', 00H, 'r', 00H, 'a'
	DB	00H, 'w', 00H, 'i', 00H, 'n', 00H, 'g', 00H, '.', 00H, 00H, 00H
	ORG $+2
$SG159837 DB	'E', 00H, 'R', 00H, 'R', 00H, 'O', 00H, 'R', 00H, '_', 00H
	DB	'S', 00H, 'C', 00H, 'R', 00H, 'E', 00H, 'E', 00H, 'N', 00H, '_'
	DB	00H, 'A', 00H, 'L', 00H, 'R', 00H, 'E', 00H, 'A', 00H, 'D', 00H
	DB	'Y', 00H, '_', 00H, 'L', 00H, 'O', 00H, 'C', 00H, 'K', 00H, 'E'
	DB	00H, 'D', 00H, 00H, 00H
$SG156765 DB	'O', 00H, 'S', 00H, 'S', 00H, '_', 00H, 'C', 00H, 'A', 00H
	DB	'N', 00H, 'T', 00H, '_', 00H, 'O', 00H, 'P', 00H, 'E', 00H, 'N'
	DB	00H, '_', 00H, 'T', 00H, 'R', 00H, 'A', 00H, 'C', 00H, 'E', 00H
	DB	'_', 00H, 'W', 00H, 'I', 00H, 'N', 00H, 'D', 00H, 'O', 00H, 'W'
	DB	00H, 00H, 00H
	ORG $+2
$SG161887 DB	'E', 00H, 'R', 00H, 'R', 00H, 'O', 00H, 'R', 00H, '_', 00H
	DB	'P', 00H, 'O', 00H, 'L', 00H, 'I', 00H, 'C', 00H, 'Y', 00H, '_'
	DB	00H, 'O', 00H, 'N', 00H, 'L', 00H, 'Y', 00H, '_', 00H, 'I', 00H
	DB	'N', 00H, '_', 00H, 'D', 00H, 'S', 00H, 00H, 00H
$SG162912 DB	'E', 00H, 'R', 00H, 'R', 00H, 'O', 00H, 'R', 00H, '_', 00H
	DB	'D', 00H, 'S', 00H, '_', 00H, 'D', 00H, 'U', 00H, 'P', 00H, '_'
	DB	00H, 'L', 00H, 'I', 00H, 'N', 00H, 'K', 00H, '_', 00H, 'I', 00H
	DB	'D', 00H, 00H, 00H
	ORG $+2
$SG160862 DB	'E', 00H, 'R', 00H, 'R', 00H, 'O', 00H, 'R', 00H, '_', 00H
	DB	'P', 00H, 'R', 00H, 'O', 00H, 'F', 00H, 'I', 00H, 'L', 00H, 'E'
	DB	00H, '_', 00H, 'N', 00H, 'O', 00H, 'T', 00H, '_', 00H, 'A', 00H
	DB	'S', 00H, 'S', 00H, 'O', 00H, 'C', 00H, 'I', 00H, 'A', 00H, 'T'
	DB	00H, 'E', 00H, 'D', 00H, '_', 00H, 'W', 00H, 'I', 00H, 'T', 00H
	DB	'H', 00H, '_', 00H, 'D', 00H, 'E', 00H, 'V', 00H, 'I', 00H, 'C'
	DB	00H, 'E', 00H, 00H, 00H
	ORG $+2
$SG156768 DB	'O', 00H, 'S', 00H, 'S', 00H, '_', 00H, 'U', 00H, 'N', 00H
	DB	'I', 00H, 'M', 00H, 'P', 00H, 'L', 00H, 'E', 00H, 'M', 00H, 'E'
	DB	00H, 'N', 00H, 'T', 00H, 'E', 00H, 'D', 00H, 00H, 00H
$SG165983 DB	'E', 00H, 'R', 00H, 'R', 00H, 'O', 00H, 'R', 00H, '_', 00H
	DB	'D', 00H, 'S', 00H, '_', 00H, 'S', 00H, 'R', 00H, 'C', 00H, '_'
	DB	00H, 'D', 00H, 'C', 00H, '_', 00H, 'M', 00H, 'U', 00H, 'S', 00H
	DB	'T', 00H, '_', 00H, 'B', 00H, 'E', 00H, '_', 00H, 'S', 00H, 'P'
	DB	00H, '4', 00H, '_', 00H, 'O', 00H, 'R', 00H, '_', 00H, 'G', 00H
	DB	'R', 00H, 'E', 00H, 'A', 00H, 'T', 00H, 'E', 00H, 'R', 00H, 00H
	DB	00H
	ORG $+2
$SG163935 DB	'S', 00H, 'T', 00H, 'G', 00H, '_', 00H, 'E', 00H, '_', 00H
	DB	'C', 00H, 'S', 00H, 'S', 00H, '_', 00H, 'A', 00H, 'U', 00H, 'T'
	DB	00H, 'H', 00H, 'E', 00H, 'N', 00H, 'T', 00H, 'I', 00H, 'C', 00H
	DB	'A', 00H, 'T', 00H, 'I', 00H, 'O', 00H, 'N', 00H, '_', 00H, 'F'
	DB	00H, 'A', 00H, 'I', 00H, 'L', 00H, 'U', 00H, 'R', 00H, 'E', 00H
	DB	00H, 00H
	ORG $+2
$SG155743 DB	'C', 00H, 'L', 00H, 'I', 00H, 'P', 00H, 'B', 00H, 'R', 00H
	DB	'D', 00H, '_', 00H, 'E', 00H, '_', 00H, 'B', 00H, 'A', 00H, 'D'
	DB	00H, '_', 00H, 'D', 00H, 'A', 00H, 'T', 00H, 'A', 00H, 00H, 00H
	ORG $+2
$SG157793 DB	'E', 00H, 'R', 00H, 'R', 00H, 'O', 00H, 'R', 00H, '_', 00H
	DB	'S', 00H, 'E', 00H, 'E', 00H, 'K', 00H, '_', 00H, 'O', 00H, 'N'
	DB	00H, '_', 00H, 'D', 00H, 'E', 00H, 'V', 00H, 'I', 00H, 'C', 00H
	DB	'E', 00H, 00H, 00H
	ORG $+2
$SG169056 DB	'T', 00H, 'h', 00H, 'e', 00H, ' ', 00H, 'r', 00H, 'e', 00H
	DB	'q', 00H, 'u', 00H, 'e', 00H, 's', 00H, 't', 00H, 'e', 00H, 'd'
	DB	00H, ' ', 00H, 'f', 00H, 'u', 00H, 'n', 00H, 'c', 00H, 't', 00H
	DB	'i', 00H, 'o', 00H, 'n', 00H, 'a', 00H, 'l', 00H, 'i', 00H, 't'
	DB	00H, 'y', 00H, ' ', 00H, 'i', 00H, 's', 00H, ' ', 00H, 'n', 00H
	DB	'o', 00H, 't', 00H, ' ', 00H, 's', 00H, 'u', 00H, 'p', 00H, 'p'
	DB	00H, 'o', 00H, 'r', 00H, 't', 00H, 'e', 00H, 'd', 00H, ' ', 00H
	DB	'b', 00H, 'y', 00H, ' ', 00H, 't', 00H, 'h', 00H, 'e', 00H, ' '
	DB	00H, 'd', 00H, 'e', 00H, 'v', 00H, 'i', 00H, 'c', 00H, 'e', 00H
	DB	' ', 00H, 'o', 00H, 'r', 00H, ' ', 00H, 't', 00H, 'h', 00H, 'e'
	DB	00H, ' ', 00H, 'd', 00H, 'r', 00H, 'i', 00H, 'v', 00H, 'e', 00H
	DB	'r', 00H, '.', 00H, 00H, 00H
$SG163938 DB	'S', 00H, 'T', 00H, 'G', 00H, '_', 00H, 'E', 00H, '_', 00H
	DB	'C', 00H, 'S', 00H, 'S', 00H, '_', 00H, 'K', 00H, 'E', 00H, 'Y'
	DB	00H, '_', 00H, 'N', 00H, 'O', 00H, 'T', 00H, '_', 00H, 'P', 00H
	DB	'R', 00H, 'E', 00H, 'S', 00H, 'E', 00H, 'N', 00H, 'T', 00H, 00H
	DB	00H
$SG167008 DB	'E', 00H, 'R', 00H, 'R', 00H, 'O', 00H, 'R', 00H, '_', 00H
	DB	'I', 00H, 'P', 00H, 'S', 00H, 'E', 00H, 'C', 00H, '_', 00H, 'I'
	DB	00H, 'K', 00H, 'E', 00H, '_', 00H, 'P', 00H, 'R', 00H, 'O', 00H
	DB	'C', 00H, 'E', 00H, 'S', 00H, 'S', 00H, '_', 00H, 'E', 00H, 'R'
	DB	00H, 'R', 00H, '_', 00H, 'C', 00H, 'E', 00H, 'R', 00H, 'T', 00H
	DB	00H, 00H
	ORG $+2
$SG158817 DB	'E', 00H, 'R', 00H, 'R', 00H, 'O', 00H, 'R', 00H, '_', 00H
	DB	'D', 00H, 'E', 00H, 'V', 00H, 'I', 00H, 'C', 00H, 'E', 00H, '_'
	DB	00H, 'R', 00H, 'E', 00H, 'Q', 00H, 'U', 00H, 'I', 00H, 'R', 00H
	DB	'E', 00H, 'S', 00H, '_', 00H, 'C', 00H, 'L', 00H, 'E', 00H, 'A'
	DB	00H, 'N', 00H, 'I', 00H, 'N', 00H, 'G', 00H, 00H, 00H
	ORG $+2
$SG168034 DB	'D', 00H, '2', 00H, 'D', 00H, 'E', 00H, 'R', 00H, 'R', 00H
	DB	'_', 00H, 'Z', 00H, 'E', 00H, 'R', 00H, 'O', 00H, '_', 00H, 'V'
	DB	00H, 'E', 00H, 'C', 00H, 'T', 00H, 'O', 00H, 'R', 00H, 00H, 00H
	ORG $+2
$SG159842 DB	'E', 00H, 'R', 00H, 'R', 00H, 'O', 00H, 'R', 00H, '_', 00H
	DB	'H', 00H, 'W', 00H, 'N', 00H, 'D', 00H, 'S', 00H, '_', 00H, 'H'
	DB	00H, 'A', 00H, 'V', 00H, 'E', 00H, '_', 00H, 'D', 00H, 'I', 00H
	DB	'F', 00H, 'F', 00H, '_', 00H, 'P', 00H, 'A', 00H, 'R', 00H, 'E'
	DB	00H, 'N', 00H, 'T', 00H, 00H, 00H
	ORG $+2
$SG155746 DB	'C', 00H, 'L', 00H, 'I', 00H, 'P', 00H, 'B', 00H, 'R', 00H
	DB	'D', 00H, '_', 00H, 'E', 00H, '_', 00H, 'C', 00H, 'A', 00H, 'N'
	DB	00H, 'T', 00H, '_', 00H, 'C', 00H, 'L', 00H, 'O', 00H, 'S', 00H
	DB	'E', 00H, 00H, 00H
	ORG $+2
$SG164963 DB	'E', 00H, 'R', 00H, 'R', 00H, 'O', 00H, 'R', 00H, '_', 00H
	DB	'F', 00H, 'U', 00H, 'N', 00H, 'C', 00H, 'T', 00H, 'I', 00H, 'O'
	DB	00H, 'N', 00H, '_', 00H, 'F', 00H, 'A', 00H, 'I', 00H, 'L', 00H
	DB	'E', 00H, 'D', 00H, 00H, 00H
$SG169059 DB	'T', 00H, 'h', 00H, 'e', 00H, ' ', 00H, 'r', 00H, 'e', 00H
	DB	'q', 00H, 'u', 00H, 'e', 00H, 's', 00H, 't', 00H, 'e', 00H, 'd'
	DB	00H, ' ', 00H, 'f', 00H, 'u', 00H, 'n', 00H, 'c', 00H, 't', 00H
	DB	'i', 00H, 'o', 00H, 'n', 00H, 'a', 00H, 'l', 00H, 'i', 00H, 't'
	DB	00H, 'y', 00H, ' ', 00H, 'i', 00H, 's', 00H, ' ', 00H, 'n', 00H
	DB	'o', 00H, 't', 00H, ' ', 00H, 's', 00H, 'u', 00H, 'p', 00H, 'p'
	DB	00H, 'o', 00H, 'r', 00H, 't', 00H, 'e', 00H, 'd', 00H, ' ', 00H
	DB	'b', 00H, 'y', 00H, ' ', 00H, 't', 00H, 'h', 00H, 'e', 00H, ' '
	DB	00H, 'd', 00H, 'e', 00H, 'v', 00H, 'i', 00H, 'c', 00H, 'e', 00H
	DB	' ', 00H, 'o', 00H, 'r', 00H, ' ', 00H, 't', 00H, 'h', 00H, 'e'
	DB	00H, ' ', 00H, 'd', 00H, 'r', 00H, 'i', 00H, 'v', 00H, 'e', 00H
	DB	'r', 00H, '.', 00H, 00H, 00H
$SG160867 DB	'E', 00H, 'R', 00H, 'R', 00H, 'O', 00H, 'R', 00H, '_', 00H
	DB	'P', 00H, 'R', 00H, 'O', 00H, 'F', 00H, 'I', 00H, 'L', 00H, 'E'
	DB	00H, '_', 00H, 'N', 00H, 'O', 00H, 'T', 00H, '_', 00H, 'F', 00H
	DB	'O', 00H, 'U', 00H, 'N', 00H, 'D', 00H, 00H, 00H
$SG156771 DB	'O', 00H, 'S', 00H, 'S', 00H, '_', 00H, 'O', 00H, 'I', 00H
	DB	'D', 00H, '_', 00H, 'D', 00H, 'L', 00H, 'L', 00H, '_', 00H, 'N'
	DB	00H, 'O', 00H, 'T', 00H, '_', 00H, 'L', 00H, 'I', 00H, 'N', 00H
	DB	'K', 00H, 'E', 00H, 'D', 00H, 00H, 00H
	ORG $+2
$SG168037 DB	'D', 00H, '2', 00H, 'D', 00H, 'E', 00H, 'R', 00H, 'R', 00H
	DB	'_', 00H, 'I', 00H, 'N', 00H, 'T', 00H, 'E', 00H, 'R', 00H, 'N'
	DB	00H, 'A', 00H, 'L', 00H, '_', 00H, 'E', 00H, 'R', 00H, 'R', 00H
	DB	'O', 00H, 'R', 00H, 00H, 00H
$SG165988 DB	'E', 00H, 'R', 00H, 'R', 00H, 'O', 00H, 'R', 00H, '_', 00H
	DB	'D', 00H, 'S', 00H, '_', 00H, 'C', 00H, 'A', 00H, 'N', 00H, 'T'
	DB	00H, '_', 00H, 'T', 00H, 'R', 00H, 'E', 00H, 'E', 00H, '_', 00H
	DB	'D', 00H, 'E', 00H, 'L', 00H, 'E', 00H, 'T', 00H, 'E', 00H, '_'
	DB	00H, 'C', 00H, 'R', 00H, 'I', 00H, 'T', 00H, 'I', 00H, 'C', 00H
	DB	'A', 00H, 'L', 00H, '_', 00H, 'O', 00H, 'B', 00H, 'J', 00H, 00H
	DB	00H
	ORG $+2
$SG161892 DB	'E', 00H, 'R', 00H, 'R', 00H, 'O', 00H, 'R', 00H, '_', 00H
	DB	'P', 00H, 'R', 00H, 'O', 00H, 'M', 00H, 'O', 00H, 'T', 00H, 'I'
	DB	00H, 'O', 00H, 'N', 00H, '_', 00H, 'A', 00H, 'C', 00H, 'T', 00H
	DB	'I', 00H, 'V', 00H, 'E', 00H, 00H, 00H
	ORG $+2
$SG155748 DB	'M', 00H, 'K', 00H, '_', 00H, 'E', 00H, '_', 00H, 'F', 00H
	DB	'I', 00H, 'R', 00H, 'S', 00H, 'T', 00H, 00H, 00H
	ORG $+2
$SG167013 DB	'E', 00H, 'R', 00H, 'R', 00H, 'O', 00H, 'R', 00H, '_', 00H
	DB	'I', 00H, 'P', 00H, 'S', 00H, 'E', 00H, 'C', 00H, '_', 00H, 'I'
	DB	00H, 'K', 00H, 'E', 00H, '_', 00H, 'P', 00H, 'R', 00H, 'O', 00H
	DB	'C', 00H, 'E', 00H, 'S', 00H, 'S', 00H, '_', 00H, 'E', 00H, 'R'
	DB	00H, 'R', 00H, '_', 00H, 'C', 00H, 'E', 00H, 'R', 00H, 'T', 00H
	DB	'_', 00H, 'R', 00H, 'E', 00H, 'Q', 00H, 00H, 00H
	ORG $+2
$SG163941 DB	'S', 00H, 'T', 00H, 'G', 00H, '_', 00H, 'E', 00H, '_', 00H
	DB	'C', 00H, 'S', 00H, 'S', 00H, '_', 00H, 'K', 00H, 'E', 00H, 'Y'
	DB	00H, '_', 00H, 'N', 00H, 'O', 00H, 'T', 00H, '_', 00H, 'E', 00H
	DB	'S', 00H, 'T', 00H, 'A', 00H, 'B', 00H, 'L', 00H, 'I', 00H, 'S'
	DB	00H, 'H', 00H, 'E', 00H, 'D', 00H, 00H, 00H
$SG162917 DB	'E', 00H, 'R', 00H, 'R', 00H, 'O', 00H, 'R', 00H, '_', 00H
	DB	'D', 00H, 'S', 00H, '_', 00H, 'N', 00H, 'A', 00H, 'M', 00H, 'E'
	DB	00H, '_', 00H, 'E', 00H, 'R', 00H, 'R', 00H, 'O', 00H, 'R', 00H
	DB	'_', 00H, 'R', 00H, 'E', 00H, 'S', 00H, 'O', 00H, 'L', 00H, 'V'
	DB	00H, 'I', 00H, 'N', 00H, 'G', 00H, 00H, 00H
$SG157798 DB	'E', 00H, 'R', 00H, 'R', 00H, 'O', 00H, 'R', 00H, '_', 00H
	DB	'I', 00H, 'S', 00H, '_', 00H, 'J', 00H, 'O', 00H, 'I', 00H, 'N'
	DB	00H, '_', 00H, 'T', 00H, 'A', 00H, 'R', 00H, 'G', 00H, 'E', 00H
	DB	'T', 00H, 00H, 00H
	ORG $+2
$SG169062 DB	'A', 00H, 'n', 00H, ' ', 00H, 'i', 00H, 'n', 00H, 't', 00H
	DB	'e', 00H, 'r', 00H, 'n', 00H, 'a', 00H, 'l', 00H, ' ', 00H, 'd'
	DB	00H, 'r', 00H, 'i', 00H, 'v', 00H, 'e', 00H, 'r', 00H, ' ', 00H
	DB	'e', 00H, 'r', 00H, 'r', 00H, 'o', 00H, 'r', 00H, ' ', 00H, 'o'
	DB	00H, 'c', 00H, 'c', 00H, 'u', 00H, 'r', 00H, 'r', 00H, 'e', 00H
	DB	'd', 00H, '.', 00H, 00H, 00H
	ORG $+2
$SG158822 DB	'E', 00H, 'R', 00H, 'R', 00H, 'O', 00H, 'R', 00H, '_', 00H
	DB	'D', 00H, 'E', 00H, 'V', 00H, 'I', 00H, 'C', 00H, 'E', 00H, '_'
	DB	00H, 'D', 00H, 'O', 00H, 'O', 00H, 'R', 00H, '_', 00H, 'O', 00H
	DB	'P', 00H, 'E', 00H, 'N', 00H, 00H, 00H
	ORG $+2
$SG156774 DB	'O', 00H, 'S', 00H, 'S', 00H, '_', 00H, 'C', 00H, 'A', 00H
	DB	'N', 00H, 'T', 00H, '_', 00H, 'O', 00H, 'P', 00H, 'E', 00H, 'N'
	DB	00H, '_', 00H, 'T', 00H, 'R', 00H, 'A', 00H, 'C', 00H, 'E', 00H
	DB	'_', 00H, 'F', 00H, 'I', 00H, 'L', 00H, 'E', 00H, 00H, 00H
	ORG $+2
$SG155750 DB	'M', 00H, 'K', 00H, '_', 00H, 'E', 00H, '_', 00H, 'L', 00H
	DB	'A', 00H, 'S', 00H, 'T', 00H, 00H, 00H
$SG159847 DB	'E', 00H, 'R', 00H, 'R', 00H, 'O', 00H, 'R', 00H, '_', 00H
	DB	'N', 00H, 'O', 00H, 'T', 00H, '_', 00H, 'C', 00H, 'H', 00H, 'I'
	DB	00H, 'L', 00H, 'D', 00H, '_', 00H, 'W', 00H, 'I', 00H, 'N', 00H
	DB	'D', 00H, 'O', 00H, 'W', 00H, 00H, 00H
	ORG $+2
$SG168040 DB	'D', 00H, '2', 00H, 'D', 00H, 'E', 00H, 'R', 00H, 'R', 00H
	DB	'_', 00H, 'D', 00H, 'I', 00H, 'S', 00H, 'P', 00H, 'L', 00H, 'A'
	DB	00H, 'Y', 00H, '_', 00H, 'F', 00H, 'O', 00H, 'R', 00H, 'M', 00H
	DB	'A', 00H, 'T', 00H, '_', 00H, 'N', 00H, 'O', 00H, 'T', 00H, '_'
	DB	00H, 'S', 00H, 'U', 00H, 'P', 00H, 'P', 00H, 'O', 00H, 'R', 00H
	DB	'T', 00H, 'E', 00H, 'D', 00H, 00H, 00H
$SG164968 DB	'E', 00H, 'R', 00H, 'R', 00H, 'O', 00H, 'R', 00H, '_', 00H
	DB	'I', 00H, 'N', 00H, 'V', 00H, 'A', 00H, 'L', 00H, 'I', 00H, 'D'
	DB	00H, '_', 00H, 'T', 00H, 'A', 00H, 'B', 00H, 'L', 00H, 'E', 00H
	DB	00H, 00H
$SG163944 DB	'S', 00H, 'T', 00H, 'G', 00H, '_', 00H, 'E', 00H, '_', 00H
	DB	'C', 00H, 'S', 00H, 'S', 00H, '_', 00H, 'S', 00H, 'C', 00H, 'R'
	DB	00H, 'A', 00H, 'M', 00H, 'B', 00H, 'L', 00H, 'E', 00H, 'D', 00H
	DB	'_', 00H, 'S', 00H, 'E', 00H, 'C', 00H, 'T', 00H, 'O', 00H, 'R'
	DB	00H, 00H, 00H
	ORG $+2
$SG160872 DB	'E', 00H, 'R', 00H, 'R', 00H, 'O', 00H, 'R', 00H, '_', 00H
	DB	'I', 00H, 'N', 00H, 'V', 00H, 'A', 00H, 'L', 00H, 'I', 00H, 'D'
	DB	00H, '_', 00H, 'C', 00H, 'O', 00H, 'L', 00H, 'O', 00H, 'R', 00H
	DB	'S', 00H, 'P', 00H, 'A', 00H, 'C', 00H, 'E', 00H, 00H, 00H
	ORG $+2
$SG155752 DB	'M', 00H, 'K', 00H, '_', 00H, 'S', 00H, '_', 00H, 'F', 00H
	DB	'I', 00H, 'R', 00H, 'S', 00H, 'T', 00H, 00H, 00H
	ORG $+2
$SG165993 DB	'E', 00H, 'R', 00H, 'R', 00H, 'O', 00H, 'R', 00H, '_', 00H
	DB	'D', 00H, 'S', 00H, '_', 00H, 'I', 00H, 'N', 00H, 'I', 00H, 'T'
	DB	00H, '_', 00H, 'F', 00H, 'A', 00H, 'I', 00H, 'L', 00H, 'U', 00H
	DB	'R', 00H, 'E', 00H, '_', 00H, 'C', 00H, 'O', 00H, 'N', 00H, 'S'
	DB	00H, 'O', 00H, 'L', 00H, 'E', 00H, 00H, 00H
$SG169065 DB	'T', 00H, 'h', 00H, 'e', 00H, ' ', 00H, 'a', 00H, 'p', 00H
	DB	'p', 00H, 'l', 00H, 'i', 00H, 'c', 00H, 'a', 00H, 't', 00H, 'i'
	DB	00H, 'o', 00H, 'n', 00H, ' ', 00H, 'a', 00H, 't', 00H, 't', 00H
	DB	'e', 00H, 'm', 00H, 'p', 00H, 't', 00H, 'e', 00H, 'd', 00H, ' '
	DB	00H, 't', 00H, 'o', 00H, ' ', 00H, 'p', 00H, 'e', 00H, 'r', 00H
	DB	'f', 00H, 'o', 00H, 'r', 00H, 'm', 00H, ' ', 00H, 'a', 00H, 'n'
	DB	00H, ' ', 00H, 'o', 00H, 'p', 00H, 'e', 00H, 'r', 00H, 'a', 00H
	DB	't', 00H, 'i', 00H, 'o', 00H, 'n', 00H, ' ', 00H, 'o', 00H, 'n'
	DB	00H, ' ', 00H, 'a', 00H, 'n', 00H, ' ', 00H, 'D', 00H, 'X', 00H
	DB	'G', 00H, 'I', 00H, ' ', 00H, 'o', 00H, 'u', 00H, 't', 00H, 'p'
	DB	00H, 'u', 00H, 't', 00H, ' ', 00H, 't', 00H, 'h', 00H, 'a', 00H
	DB	't', 00H, ' ', 00H, 'i', 00H, 's', 00H, ' ', 00H, 'o', 00H, 'n'
	DB	00H, 'l', 00H, 'y', 00H, ' ', 00H, 'l', 00H, 'e', 00H, 'g', 00H
	DB	'a', 00H, 'l', 00H, ' ', 00H, 'a', 00H, 'f', 00H, 't', 00H, 'e'
	DB	00H, 'r', 00H, ' ', 00H, 't', 00H, 'h', 00H, 'e', 00H, ' ', 00H
	DB	'o', 00H, 'u', 00H, 't', 00H, 'p', 00H, 'u', 00H, 't', 00H, ' '
	DB	00H, 'h', 00H, 'a', 00H, 's', 00H, ' ', 00H, 'b', 00H, 'e', 00H
	DB	'e', 00H, 'n', 00H, ' ', 00H, 'c', 00H, 'l', 00H, 'a', 00H, 'i'
	DB	00H, 'm', 00H, 'e', 00H, 'd', 00H, ' ', 00H, 'f', 00H, 'o', 00H
	DB	'r', 00H, ' ', 00H, 'e', 00H, 'x', 00H, 'c', 00H, 'l', 00H, 'u'
	DB	00H, 's', 00H, 'i', 00H, 'v', 00H, 'e', 00H, ' ', 00H, 'o', 00H
	DB	'w', 00H, 'e', 00H, 'n', 00H, 'e', 00H, 'r', 00H, 's', 00H, 'h'
	DB	00H, 'i', 00H, 'p', 00H, '.', 00H, 00H, 00H
	ORG $+2
$SG161897 DB	'E', 00H, 'R', 00H, 'R', 00H, 'O', 00H, 'R', 00H, '_', 00H
	DB	'N', 00H, 'O', 00H, '_', 00H, 'P', 00H, 'R', 00H, 'O', 00H, 'M'
	DB	00H, 'O', 00H, 'T', 00H, 'I', 00H, 'O', 00H, 'N', 00H, '_', 00H
	DB	'A', 00H, 'C', 00H, 'T', 00H, 'I', 00H, 'V', 00H, 'E', 00H, 00H
	DB	00H
$SG156777 DB	'O', 00H, 'S', 00H, 'S', 00H, '_', 00H, 'T', 00H, 'R', 00H
	DB	'A', 00H, 'C', 00H, 'E', 00H, '_', 00H, 'F', 00H, 'I', 00H, 'L'
	DB	00H, 'E', 00H, '_', 00H, 'A', 00H, 'L', 00H, 'R', 00H, 'E', 00H
	DB	'A', 00H, 'D', 00H, 'Y', 00H, '_', 00H, 'O', 00H, 'P', 00H, 'E'
	DB	00H, 'N', 00H, 00H, 00H
$SG162922 DB	'E', 00H, 'R', 00H, 'R', 00H, 'O', 00H, 'R', 00H, '_', 00H
	DB	'D', 00H, 'S', 00H, '_', 00H, 'N', 00H, 'A', 00H, 'M', 00H, 'E'
	DB	00H, '_', 00H, 'E', 00H, 'R', 00H, 'R', 00H, 'O', 00H, 'R', 00H
	DB	'_', 00H, 'N', 00H, 'O', 00H, 'T', 00H, '_', 00H, 'F', 00H, 'O'
	DB	00H, 'U', 00H, 'N', 00H, 'D', 00H, 00H, 00H
$SG167018 DB	'E', 00H, 'R', 00H, 'R', 00H, 'O', 00H, 'R', 00H, '_', 00H
	DB	'I', 00H, 'P', 00H, 'S', 00H, 'E', 00H, 'C', 00H, '_', 00H, 'I'
	DB	00H, 'K', 00H, 'E', 00H, '_', 00H, 'P', 00H, 'R', 00H, 'O', 00H
	DB	'C', 00H, 'E', 00H, 'S', 00H, 'S', 00H, '_', 00H, 'E', 00H, 'R'
	DB	00H, 'R', 00H, '_', 00H, 'H', 00H, 'A', 00H, 'S', 00H, 'H', 00H
	DB	00H, 00H
	ORG $+2
$SG155754 DB	'M', 00H, 'K', 00H, '_', 00H, 'S', 00H, '_', 00H, 'L', 00H
	DB	'A', 00H, 'S', 00H, 'T', 00H, 00H, 00H
$SG168043 DB	'D', 00H, '2', 00H, 'D', 00H, 'E', 00H, 'R', 00H, 'R', 00H
	DB	'_', 00H, 'I', 00H, 'N', 00H, 'V', 00H, 'A', 00H, 'L', 00H, 'I'
	DB	00H, 'D', 00H, '_', 00H, 'C', 00H, 'A', 00H, 'L', 00H, 'L', 00H
	DB	00H, 00H
$SG163947 DB	'S', 00H, 'T', 00H, 'G', 00H, '_', 00H, 'E', 00H, '_', 00H
	DB	'C', 00H, 'S', 00H, 'S', 00H, '_', 00H, 'R', 00H, 'E', 00H, 'G'
	DB	00H, 'I', 00H, 'O', 00H, 'N', 00H, '_', 00H, 'M', 00H, 'I', 00H
	DB	'S', 00H, 'M', 00H, 'A', 00H, 'T', 00H, 'C', 00H, 'H', 00H, 00H
	DB	00H
$SG158827 DB	'E', 00H, 'R', 00H, 'R', 00H, 'O', 00H, 'R', 00H, '_', 00H
	DB	'D', 00H, 'E', 00H, 'V', 00H, 'I', 00H, 'C', 00H, 'E', 00H, '_'
	DB	00H, 'N', 00H, 'O', 00H, 'T', 00H, '_', 00H, 'C', 00H, 'O', 00H
	DB	'N', 00H, 'N', 00H, 'E', 00H, 'C', 00H, 'T', 00H, 'E', 00H, 'D'
	DB	00H, 00H, 00H
	ORG $+2
$SG157803 DB	'E', 00H, 'R', 00H, 'R', 00H, 'O', 00H, 'R', 00H, '_', 00H
	DB	'I', 00H, 'S', 00H, '_', 00H, 'J', 00H, 'O', 00H, 'I', 00H, 'N'
	DB	00H, 'E', 00H, 'D', 00H, 00H, 00H
$SG159852 DB	'E', 00H, 'R', 00H, 'R', 00H, 'O', 00H, 'R', 00H, '_', 00H
	DB	'I', 00H, 'N', 00H, 'V', 00H, 'A', 00H, 'L', 00H, 'I', 00H, 'D'
	DB	00H, '_', 00H, 'G', 00H, 'W', 00H, '_', 00H, 'C', 00H, 'O', 00H
	DB	'M', 00H, 'M', 00H, 'A', 00H, 'N', 00H, 'D', 00H, 00H, 00H
	ORG $+2
$SG169068 DB	'T', 00H, 'h', 00H, 'e', 00H, ' ', 00H, 'r', 00H, 'e', 00H
	DB	'q', 00H, 'u', 00H, 'e', 00H, 's', 00H, 't', 00H, 'e', 00H, 'd'
	DB	00H, ' ', 00H, 'f', 00H, 'u', 00H, 'n', 00H, 'c', 00H, 't', 00H
	DB	'i', 00H, 'o', 00H, 'n', 00H, 'a', 00H, 'l', 00H, 'i', 00H, 't'
	DB	00H, 'y', 00H, ' ', 00H, 'i', 00H, 's', 00H, ' ', 00H, 'n', 00H
	DB	'o', 00H, 't', 00H, ' ', 00H, 's', 00H, 'u', 00H, 'p', 00H, 'p'
	DB	00H, 'o', 00H, 'r', 00H, 't', 00H, 'e', 00H, 'd', 00H, ' ', 00H
	DB	'b', 00H, 'y', 00H, ' ', 00H, 't', 00H, 'h', 00H, 'e', 00H, ' '
	DB	00H, 'd', 00H, 'e', 00H, 'v', 00H, 'i', 00H, 'c', 00H, 'e', 00H
	DB	' ', 00H, 'o', 00H, 'r', 00H, ' ', 00H, 't', 00H, 'h', 00H, 'e'
	DB	00H, ' ', 00H, 'd', 00H, 'r', 00H, 'i', 00H, 'v', 00H, 'e', 00H
	DB	'r', 00H, '.', 00H, 00H, 00H
$SG156780 DB	'O', 00H, 'S', 00H, 'S', 00H, '_', 00H, 'T', 00H, 'A', 00H
	DB	'B', 00H, 'L', 00H, 'E', 00H, '_', 00H, 'M', 00H, 'I', 00H, 'S'
	DB	00H, 'M', 00H, 'A', 00H, 'T', 00H, 'C', 00H, 'H', 00H, 00H, 00H
	ORG $+2
$SG164973 DB	'E', 00H, 'R', 00H, 'R', 00H, 'O', 00H, 'R', 00H, '_', 00H
	DB	'D', 00H, 'A', 00H, 'T', 00H, 'A', 00H, 'T', 00H, 'Y', 00H, 'P'
	DB	00H, 'E', 00H, '_', 00H, 'M', 00H, 'I', 00H, 'S', 00H, 'M', 00H
	DB	'A', 00H, 'T', 00H, 'C', 00H, 'H', 00H, 00H, 00H
$SG160877 DB	'E', 00H, 'R', 00H, 'R', 00H, 'O', 00H, 'R', 00H, '_', 00H
	DB	'I', 00H, 'C', 00H, 'M', 00H, '_', 00H, 'N', 00H, 'O', 00H, 'T'
	DB	00H, '_', 00H, 'E', 00H, 'N', 00H, 'A', 00H, 'B', 00H, 'L', 00H
	DB	'E', 00H, 'D', 00H, 00H, 00H
$SG155757 DB	'M', 00H, 'K', 00H, '_', 00H, 'E', 00H, '_', 00H, 'E', 00H
	DB	'X', 00H, 'C', 00H, 'E', 00H, 'E', 00H, 'D', 00H, 'E', 00H, 'D'
	DB	00H, 'D', 00H, 'E', 00H, 'A', 00H, 'D', 00H, 'L', 00H, 'I', 00H
	DB	'N', 00H, 'E', 00H, 00H, 00H
$SG168046 DB	'D', 00H, '2', 00H, 'D', 00H, 'E', 00H, 'R', 00H, 'R', 00H
	DB	'_', 00H, 'N', 00H, 'O', 00H, '_', 00H, 'H', 00H, 'A', 00H, 'R'
	DB	00H, 'D', 00H, 'W', 00H, 'A', 00H, 'R', 00H, 'E', 00H, '_', 00H
	DB	'D', 00H, 'E', 00H, 'V', 00H, 'I', 00H, 'C', 00H, 'E', 00H, 00H
	DB	00H
$SG165998 DB	'E', 00H, 'R', 00H, 'R', 00H, 'O', 00H, 'R', 00H, '_', 00H
	DB	'D', 00H, 'S', 00H, '_', 00H, 'S', 00H, 'A', 00H, 'M', 00H, '_'
	DB	00H, 'I', 00H, 'N', 00H, 'I', 00H, 'T', 00H, '_', 00H, 'F', 00H
	DB	'A', 00H, 'I', 00H, 'L', 00H, 'U', 00H, 'R', 00H, 'E', 00H, '_'
	DB	00H, 'C', 00H, 'O', 00H, 'N', 00H, 'S', 00H, 'O', 00H, 'L', 00H
	DB	'E', 00H, 00H, 00H
$SG163950 DB	'S', 00H, 'T', 00H, 'G', 00H, '_', 00H, 'E', 00H, '_', 00H
	DB	'R', 00H, 'E', 00H, 'S', 00H, 'E', 00H, 'T', 00H, 'S', 00H, '_'
	DB	00H, 'E', 00H, 'X', 00H, 'H', 00H, 'A', 00H, 'U', 00H, 'S', 00H
	DB	'T', 00H, 'E', 00H, 'D', 00H, 00H, 00H
	ORG $+2
$SG161902 DB	'E', 00H, 'R', 00H, 'R', 00H, 'O', 00H, 'R', 00H, '_', 00H
	DB	'D', 00H, 'S', 00H, '_', 00H, 'O', 00H, 'P', 00H, 'E', 00H, 'R'
	DB	00H, 'A', 00H, 'T', 00H, 'I', 00H, 'O', 00H, 'N', 00H, 'S', 00H
	DB	'_', 00H, 'E', 00H, 'R', 00H, 'R', 00H, 'O', 00H, 'R', 00H, 00H
	DB	00H
$SG169071 DB	'R', 00H, 'e', 00H, 'm', 00H, 'o', 00H, 't', 00H, 'e', 00H
	DB	' ', 00H, 'd', 00H, 'e', 00H, 's', 00H, 'k', 00H, 't', 00H, 'o'
	DB	00H, 'p', 00H, ' ', 00H, 'c', 00H, 'l', 00H, 'i', 00H, 'e', 00H
	DB	'n', 00H, 't', 00H, ' ', 00H, 'd', 00H, 'i', 00H, 's', 00H, 'c'
	DB	00H, 'o', 00H, 'n', 00H, 'n', 00H, 'e', 00H, 'c', 00H, 't', 00H
	DB	'e', 00H, 'd', 00H, '.', 00H, 00H, 00H
$SG167023 DB	'E', 00H, 'R', 00H, 'R', 00H, 'O', 00H, 'R', 00H, '_', 00H
	DB	'I', 00H, 'P', 00H, 'S', 00H, 'E', 00H, 'C', 00H, '_', 00H, 'I'
	DB	00H, 'K', 00H, 'E', 00H, '_', 00H, 'P', 00H, 'R', 00H, 'O', 00H
	DB	'C', 00H, 'E', 00H, 'S', 00H, 'S', 00H, '_', 00H, 'E', 00H, 'R'
	DB	00H, 'R', 00H, '_', 00H, 'S', 00H, 'I', 00H, 'G', 00H, 00H, 00H
$SG162927 DB	'E', 00H, 'R', 00H, 'R', 00H, 'O', 00H, 'R', 00H, '_', 00H
	DB	'D', 00H, 'S', 00H, '_', 00H, 'N', 00H, 'A', 00H, 'M', 00H, 'E'
	DB	00H, '_', 00H, 'E', 00H, 'R', 00H, 'R', 00H, 'O', 00H, 'R', 00H
	DB	'_', 00H, 'N', 00H, 'O', 00H, 'T', 00H, '_', 00H, 'U', 00H, 'N'
	DB	00H, 'I', 00H, 'Q', 00H, 'U', 00H, 'E', 00H, 00H, 00H
	ORG $+2
$SG156783 DB	'O', 00H, 'S', 00H, 'S', 00H, '_', 00H, 'T', 00H, 'Y', 00H
	DB	'P', 00H, 'E', 00H, '_', 00H, 'N', 00H, 'O', 00H, 'T', 00H, '_'
	DB	00H, 'S', 00H, 'U', 00H, 'P', 00H, 'P', 00H, 'O', 00H, 'R', 00H
	DB	'T', 00H, 'E', 00H, 'D', 00H, 00H, 00H
	ORG $+2
$SG158832 DB	'E', 00H, 'R', 00H, 'R', 00H, 'O', 00H, 'R', 00H, '_', 00H
	DB	'N', 00H, 'O', 00H, 'T', 00H, '_', 00H, 'F', 00H, 'O', 00H, 'U'
	DB	00H, 'N', 00H, 'D', 00H, 00H, 00H
$SG157808 DB	'E', 00H, 'R', 00H, 'R', 00H, 'O', 00H, 'R', 00H, '_', 00H
	DB	'I', 00H, 'S', 00H, '_', 00H, 'S', 00H, 'U', 00H, 'B', 00H, 'S'
	DB	00H, 'T', 00H, 'E', 00H, 'D', 00H, 00H, 00H
	ORG $+2
$SG155760 DB	'M', 00H, 'K', 00H, '_', 00H, 'E', 00H, '_', 00H, 'N', 00H
	DB	'E', 00H, 'E', 00H, 'D', 00H, 'G', 00H, 'E', 00H, 'N', 00H, 'E'
	DB	00H, 'R', 00H, 'I', 00H, 'C', 00H, 00H, 00H
	ORG $+2
$SG168049 DB	'D', 00H, '2', 00H, 'D', 00H, 'E', 00H, 'R', 00H, 'R', 00H
	DB	'_', 00H, 'R', 00H, 'E', 00H, 'C', 00H, 'R', 00H, 'E', 00H, 'A'
	DB	00H, 'T', 00H, 'E', 00H, '_', 00H, 'T', 00H, 'A', 00H, 'R', 00H
	DB	'G', 00H, 'E', 00H, 'T', 00H, 00H, 00H
	ORG $+2
$SG163953 DB	'C', 00H, 'O', 00H, '_', 00H, 'E', 00H, '_', 00H, 'C', 00H
	DB	'A', 00H, 'N', 00H, 'C', 00H, 'E', 00H, 'L', 00H, '_', 00H, 'D'
	DB	00H, 'I', 00H, 'S', 00H, 'A', 00H, 'B', 00H, 'L', 00H, 'E', 00H
	DB	'D', 00H, 00H, 00H
	ORG $+2
$SG159857 DB	'E', 00H, 'R', 00H, 'R', 00H, 'O', 00H, 'R', 00H, '_', 00H
	DB	'I', 00H, 'N', 00H, 'V', 00H, 'A', 00H, 'L', 00H, 'I', 00H, 'D'
	DB	00H, '_', 00H, 'T', 00H, 'H', 00H, 'R', 00H, 'E', 00H, 'A', 00H
	DB	'D', 00H, '_', 00H, 'I', 00H, 'D', 00H, 00H, 00H
$SG160882 DB	'E', 00H, 'R', 00H, 'R', 00H, 'O', 00H, 'R', 00H, '_', 00H
	DB	'D', 00H, 'E', 00H, 'L', 00H, 'E', 00H, 'T', 00H, 'I', 00H, 'N'
	DB	00H, 'G', 00H, '_', 00H, 'I', 00H, 'C', 00H, 'M', 00H, '_', 00H
	DB	'X', 00H, 'F', 00H, 'O', 00H, 'R', 00H, 'M', 00H, 00H, 00H
	ORG $+2
$SG169074 DB	'R', 00H, 'e', 00H, 'm', 00H, 'o', 00H, 't', 00H, 'e', 00H
	DB	' ', 00H, 'd', 00H, 'e', 00H, 's', 00H, 'k', 00H, 't', 00H, 'o'
	DB	00H, 'p', 00H, ' ', 00H, 'c', 00H, 'l', 00H, 'i', 00H, 'e', 00H
	DB	'n', 00H, 't', 00H, ' ', 00H, 'i', 00H, 's', 00H, ' ', 00H, 'o'
	DB	00H, 'u', 00H, 't', 00H, ' ', 00H, 'o', 00H, 'f', 00H, ' ', 00H
	DB	'm', 00H, 'e', 00H, 'm', 00H, 'o', 00H, 'r', 00H, 'y', 00H, '.'
	DB	00H, 00H, 00H
$SG164978 DB	'E', 00H, 'R', 00H, 'R', 00H, 'O', 00H, 'R', 00H, '_', 00H
	DB	'U', 00H, 'N', 00H, 'S', 00H, 'U', 00H, 'P', 00H, 'P', 00H, 'O'
	DB	00H, 'R', 00H, 'T', 00H, 'E', 00H, 'D', 00H, '_', 00H, 'T', 00H
	DB	'Y', 00H, 'P', 00H, 'E', 00H, 00H, 00H
	ORG $+2
$SG156786 DB	'O', 00H, 'S', 00H, 'S', 00H, '_', 00H, 'R', 00H, 'E', 00H
	DB	'A', 00H, 'L', 00H, '_', 00H, 'D', 00H, 'L', 00H, 'L', 00H, '_'
	DB	00H, 'N', 00H, 'O', 00H, 'T', 00H, '_', 00H, 'L', 00H, 'I', 00H
	DB	'N', 00H, 'K', 00H, 'E', 00H, 'D', 00H, 00H, 00H
$SG166003 DB	'E', 00H, 'R', 00H, 'R', 00H, 'O', 00H, 'R', 00H, '_', 00H
	DB	'D', 00H, 'S', 00H, '_', 00H, 'F', 00H, 'O', 00H, 'R', 00H, 'E'
	DB	00H, 'S', 00H, 'T', 00H, '_', 00H, 'V', 00H, 'E', 00H, 'R', 00H
	DB	'S', 00H, 'I', 00H, 'O', 00H, 'N', 00H, '_', 00H, 'T', 00H, 'O'
	DB	00H, 'O', 00H, '_', 00H, 'H', 00H, 'I', 00H, 'G', 00H, 'H', 00H
	DB	00H, 00H
	ORG $+2
$SG161907 DB	'E', 00H, 'R', 00H, 'R', 00H, 'O', 00H, 'R', 00H, '_', 00H
	DB	'D', 00H, 'S', 00H, '_', 00H, 'P', 00H, 'R', 00H, 'O', 00H, 'T'
	DB	00H, 'O', 00H, 'C', 00H, 'O', 00H, 'L', 00H, '_', 00H, 'E', 00H
	DB	'R', 00H, 'R', 00H, 'O', 00H, 'R', 00H, 00H, 00H
$SG155763 DB	'M', 00H, 'K', 00H, '_', 00H, 'E', 00H, '_', 00H, 'U', 00H
	DB	'N', 00H, 'A', 00H, 'V', 00H, 'A', 00H, 'I', 00H, 'L', 00H, 'A'
	DB	00H, 'B', 00H, 'L', 00H, 'E', 00H, 00H, 00H
	ORG $+2
$SG168052 DB	'D', 00H, '2', 00H, 'D', 00H, 'E', 00H, 'R', 00H, 'R', 00H
	DB	'_', 00H, 'T', 00H, 'O', 00H, 'O', 00H, '_', 00H, 'M', 00H, 'A'
	DB	00H, 'N', 00H, 'Y', 00H, '_', 00H, 'S', 00H, 'H', 00H, 'A', 00H
	DB	'D', 00H, 'E', 00H, 'R', 00H, '_', 00H, 'E', 00H, 'L', 00H, 'E'
	DB	00H, 'M', 00H, 'E', 00H, 'N', 00H, 'T', 00H, 'S', 00H, 00H, 00H
$SG167028 DB	'E', 00H, 'R', 00H, 'R', 00H, 'O', 00H, 'R', 00H, '_', 00H
	DB	'I', 00H, 'P', 00H, 'S', 00H, 'E', 00H, 'C', 00H, '_', 00H, 'I'
	DB	00H, 'K', 00H, 'E', 00H, '_', 00H, 'P', 00H, 'R', 00H, 'O', 00H
	DB	'C', 00H, 'E', 00H, 'S', 00H, 'S', 00H, '_', 00H, 'E', 00H, 'R'
	DB	00H, 'R', 00H, '_', 00H, 'N', 00H, 'O', 00H, 'N', 00H, 'C', 00H
	DB	'E', 00H, 00H, 00H
$SG163956 DB	'E', 00H, 'R', 00H, 'R', 00H, 'O', 00H, 'R', 00H, '_', 00H
	DB	'A', 00H, 'U', 00H, 'D', 00H, 'I', 00H, 'T', 00H, 'I', 00H, 'N'
	DB	00H, 'G', 00H, '_', 00H, 'D', 00H, 'I', 00H, 'S', 00H, 'A', 00H
	DB	'B', 00H, 'L', 00H, 'E', 00H, 'D', 00H, 00H, 00H
$SG162932 DB	'E', 00H, 'R', 00H, 'R', 00H, 'O', 00H, 'R', 00H, '_', 00H
	DB	'D', 00H, 'S', 00H, '_', 00H, 'N', 00H, 'A', 00H, 'M', 00H, 'E'
	DB	00H, '_', 00H, 'E', 00H, 'R', 00H, 'R', 00H, 'O', 00H, 'R', 00H
	DB	'_', 00H, 'N', 00H, 'O', 00H, '_', 00H, 'M', 00H, 'A', 00H, 'P'
	DB	00H, 'P', 00H, 'I', 00H, 'N', 00H, 'G', 00H, 00H, 00H
	ORG $+2
$SG157813 DB	'E', 00H, 'R', 00H, 'R', 00H, 'O', 00H, 'R', 00H, '_', 00H
	DB	'N', 00H, 'O', 00H, 'T', 00H, '_', 00H, 'J', 00H, 'O', 00H, 'I'
	DB	00H, 'N', 00H, 'E', 00H, 'D', 00H, 00H, 00H
	ORG $+2
$SG169077 DB	'T', 00H, 'h', 00H, 'e', 00H, 'r', 00H, 'e', 00H, ' ', 00H
	DB	'a', 00H, 'r', 00H, 'e', 00H, ' ', 00H, 't', 00H, 'o', 00H, 'o'
	DB	00H, ' ', 00H, 'm', 00H, 'a', 00H, 'n', 00H, 'y', 00H, ' ', 00H
	DB	'u', 00H, 'n', 00H, 'i', 00H, 'q', 00H, 'u', 00H, 'e', 00H, ' '
	DB	00H, 's', 00H, 't', 00H, 'a', 00H, 't', 00H, 'e', 00H, ' ', 00H
	DB	'o', 00H, 'b', 00H, 'j', 00H, 'e', 00H, 'c', 00H, 't', 00H, 's'
	DB	00H, '.', 00H, 00H, 00H
	ORG $+2
$SG158837 DB	'E', 00H, 'R', 00H, 'R', 00H, 'O', 00H, 'R', 00H, '_', 00H
	DB	'N', 00H, 'O', 00H, '_', 00H, 'M', 00H, 'A', 00H, 'T', 00H, 'C'
	DB	00H, 'H', 00H, 00H, 00H
	ORG $+2
$SG156789 DB	'O', 00H, 'S', 00H, 'S', 00H, '_', 00H, 'R', 00H, 'E', 00H
	DB	'A', 00H, 'L', 00H, '_', 00H, 'C', 00H, 'O', 00H, 'D', 00H, 'E'
	DB	00H, '_', 00H, 'N', 00H, 'O', 00H, 'T', 00H, '_', 00H, 'L', 00H
	DB	'I', 00H, 'N', 00H, 'K', 00H, 'E', 00H, 'D', 00H, 00H, 00H
	ORG $+2
$SG159862 DB	'E', 00H, 'R', 00H, 'R', 00H, 'O', 00H, 'R', 00H, '_', 00H
	DB	'N', 00H, 'O', 00H, 'N', 00H, '_', 00H, 'M', 00H, 'D', 00H, 'I'
	DB	00H, 'C', 00H, 'H', 00H, 'I', 00H, 'L', 00H, 'D', 00H, '_', 00H
	DB	'W', 00H, 'I', 00H, 'N', 00H, 'D', 00H, 'O', 00H, 'W', 00H, 00H
	DB	00H
$SG155766 DB	'M', 00H, 'K', 00H, '_', 00H, 'E', 00H, '_', 00H, 'S', 00H
	DB	'Y', 00H, 'N', 00H, 'T', 00H, 'A', 00H, 'X', 00H, 00H, 00H
$SG168055 DB	'D', 00H, '2', 00H, 'D', 00H, 'E', 00H, 'R', 00H, 'R', 00H
	DB	'_', 00H, 'S', 00H, 'H', 00H, 'A', 00H, 'D', 00H, 'E', 00H, 'R'
	DB	00H, '_', 00H, 'C', 00H, 'O', 00H, 'M', 00H, 'P', 00H, 'I', 00H
	DB	'L', 00H, 'E', 00H, '_', 00H, 'F', 00H, 'A', 00H, 'I', 00H, 'L'
	DB	00H, 'E', 00H, 'D', 00H, 00H, 00H
	ORG $+2
$SG164983 DB	'E', 00H, 'R', 00H, 'R', 00H, 'O', 00H, 'R', 00H, '_', 00H
	DB	'C', 00H, 'R', 00H, 'E', 00H, 'A', 00H, 'T', 00H, 'E', 00H, '_'
	DB	00H, 'F', 00H, 'A', 00H, 'I', 00H, 'L', 00H, 'E', 00H, 'D', 00H
	DB	00H, 00H
$SG163959 DB	'E', 00H, 'R', 00H, 'R', 00H, 'O', 00H, 'R', 00H, '_', 00H
	DB	'A', 00H, 'L', 00H, 'L', 00H, '_', 00H, 'S', 00H, 'I', 00H, 'D'
	DB	00H, 'S', 00H, '_', 00H, 'F', 00H, 'I', 00H, 'L', 00H, 'T', 00H
	DB	'E', 00H, 'R', 00H, 'E', 00H, 'D', 00H, 00H, 00H
$SG160887 DB	'E', 00H, 'R', 00H, 'R', 00H, 'O', 00H, 'R', 00H, '_', 00H
	DB	'I', 00H, 'N', 00H, 'V', 00H, 'A', 00H, 'L', 00H, 'I', 00H, 'D'
	DB	00H, '_', 00H, 'T', 00H, 'R', 00H, 'A', 00H, 'N', 00H, 'S', 00H
	DB	'F', 00H, 'O', 00H, 'R', 00H, 'M', 00H, 00H, 00H
$SG169080 DB	'F', 00H, 'i', 00H, 'l', 00H, 'e', 00H, ' ', 00H, 'n', 00H
	DB	'o', 00H, 't', 00H, ' ', 00H, 'f', 00H, 'o', 00H, 'u', 00H, 'n'
	DB	00H, 'd', 00H, 00H, 00H
	ORG $+2
$SG166008 DB	'E', 00H, 'R', 00H, 'R', 00H, 'O', 00H, 'R', 00H, '_', 00H
	DB	'D', 00H, 'S', 00H, '_', 00H, 'D', 00H, 'O', 00H, 'M', 00H, 'A'
	DB	00H, 'I', 00H, 'N', 00H, '_', 00H, 'V', 00H, 'E', 00H, 'R', 00H
	DB	'S', 00H, 'I', 00H, 'O', 00H, 'N', 00H, '_', 00H, 'T', 00H, 'O'
	DB	00H, 'O', 00H, '_', 00H, 'H', 00H, 'I', 00H, 'G', 00H, 'H', 00H
	DB	00H, 00H
	ORG $+2
$SG161912 DB	'E', 00H, 'R', 00H, 'R', 00H, 'O', 00H, 'R', 00H, '_', 00H
	DB	'D', 00H, 'S', 00H, '_', 00H, 'T', 00H, 'I', 00H, 'M', 00H, 'E'
	DB	00H, 'L', 00H, 'I', 00H, 'M', 00H, 'I', 00H, 'T', 00H, '_', 00H
	DB	'E', 00H, 'X', 00H, 'C', 00H, 'E', 00H, 'E', 00H, 'D', 00H, 'E'
	DB	00H, 'D', 00H, 00H, 00H
$SG156792 DB	'O', 00H, 'S', 00H, 'S', 00H, '_', 00H, 'O', 00H, 'U', 00H
	DB	'T', 00H, '_', 00H, 'O', 00H, 'F', 00H, '_', 00H, 'R', 00H, 'A'
	DB	00H, 'N', 00H, 'G', 00H, 'E', 00H, 00H, 00H
	ORG $+2
$SG167033 DB	'E', 00H, 'R', 00H, 'R', 00H, 'O', 00H, 'R', 00H, '_', 00H
	DB	'I', 00H, 'P', 00H, 'S', 00H, 'E', 00H, 'C', 00H, '_', 00H, 'I'
	DB	00H, 'K', 00H, 'E', 00H, '_', 00H, 'P', 00H, 'R', 00H, 'O', 00H
	DB	'C', 00H, 'E', 00H, 'S', 00H, 'S', 00H, '_', 00H, 'E', 00H, 'R'
	DB	00H, 'R', 00H, '_', 00H, 'N', 00H, 'O', 00H, 'T', 00H, 'I', 00H
	DB	'F', 00H, 'Y', 00H, 00H, 00H
	ORG $+2
$SG162937 DB	'E', 00H, 'R', 00H, 'R', 00H, 'O', 00H, 'R', 00H, '_', 00H
	DB	'D', 00H, 'S', 00H, '_', 00H, 'N', 00H, 'A', 00H, 'M', 00H, 'E'
	DB	00H, '_', 00H, 'E', 00H, 'R', 00H, 'R', 00H, 'O', 00H, 'R', 00H
	DB	'_', 00H, 'D', 00H, 'O', 00H, 'M', 00H, 'A', 00H, 'I', 00H, 'N'
	DB	00H, '_', 00H, 'O', 00H, 'N', 00H, 'L', 00H, 'Y', 00H, 00H, 00H
$SG155769 DB	'M', 00H, 'K', 00H, '_', 00H, 'E', 00H, '_', 00H, 'N', 00H
	DB	'O', 00H, 'O', 00H, 'B', 00H, 'J', 00H, 'E', 00H, 'C', 00H, 'T'
	DB	00H, 00H, 00H
$SG163962 DB	'N', 00H, 'T', 00H, 'E', 00H, '_', 00H, 'T', 00H, 'E', 00H
	DB	'M', 00H, 'P', 00H, 'O', 00H, 'R', 00H, 'A', 00H, 'R', 00H, 'Y'
	DB	00H, '_', 00H, 'P', 00H, 'R', 00H, 'O', 00H, 'F', 00H, 'I', 00H
	DB	'L', 00H, 'E', 00H, 00H, 00H
$SG168058 DB	'D', 00H, '2', 00H, 'D', 00H, 'E', 00H, 'R', 00H, 'R', 00H
	DB	'_', 00H, 'M', 00H, 'A', 00H, 'X', 00H, '_', 00H, 'T', 00H, 'E'
	DB	00H, 'X', 00H, 'T', 00H, 'U', 00H, 'R', 00H, 'E', 00H, '_', 00H
	DB	'S', 00H, 'I', 00H, 'Z', 00H, 'E', 00H, '_', 00H, 'E', 00H, 'X'
	DB	00H, 'C', 00H, 'E', 00H, 'E', 00H, 'D', 00H, 'E', 00H, 'D', 00H
	DB	00H, 00H
	ORG $+2
$SG158842 DB	'E', 00H, 'R', 00H, 'R', 00H, 'O', 00H, 'R', 00H, '_', 00H
	DB	'S', 00H, 'E', 00H, 'T', 00H, '_', 00H, 'N', 00H, 'O', 00H, 'T'
	DB	00H, '_', 00H, 'F', 00H, 'O', 00H, 'U', 00H, 'N', 00H, 'D', 00H
	DB	00H, 00H
$SG157818 DB	'E', 00H, 'R', 00H, 'R', 00H, 'O', 00H, 'R', 00H, '_', 00H
	DB	'N', 00H, 'O', 00H, 'T', 00H, '_', 00H, 'S', 00H, 'U', 00H, 'B'
	DB	00H, 'S', 00H, 'T', 00H, 'E', 00H, 'D', 00H, 00H, 00H
$SG169083 DB	'T', 00H, 'h', 00H, 'e', 00H, 'r', 00H, 'e', 00H, 'a', 00H
	DB	' ', 00H, 'a', 00H, 'r', 00H, 'e', 00H, ' ', 00H, 't', 00H, 'o'
	DB	00H, 'o', 00H, ' ', 00H, 'm', 00H, 'a', 00H, 'n', 00H, 'y', 00H
	DB	' ', 00H, 'u', 00H, 'n', 00H, 'i', 00H, 'q', 00H, 'u', 00H, 'e'
	DB	00H, ' ', 00H, 'v', 00H, 'i', 00H, 'e', 00H, 'w', 00H, ' ', 00H
	DB	'o', 00H, 'b', 00H, 'j', 00H, 'e', 00H, 'c', 00H, 't', 00H, 's'
	DB	00H, '.', 00H, 00H, 00H
	ORG $+2
$SG159867 DB	'E', 00H, 'R', 00H, 'R', 00H, 'O', 00H, 'R', 00H, '_', 00H
	DB	'P', 00H, 'O', 00H, 'P', 00H, 'U', 00H, 'P', 00H, '_', 00H, 'A'
	DB	00H, 'L', 00H, 'R', 00H, 'E', 00H, 'A', 00H, 'D', 00H, 'Y', 00H
	DB	'_', 00H, 'A', 00H, 'C', 00H, 'T', 00H, 'I', 00H, 'V', 00H, 'E'
	DB	00H, 00H, 00H
	ORG $+2
$SG156795 DB	'O', 00H, 'S', 00H, 'S', 00H, '_', 00H, 'C', 00H, 'O', 00H
	DB	'P', 00H, 'I', 00H, 'E', 00H, 'R', 00H, '_', 00H, 'D', 00H, 'L'
	DB	00H, 'L', 00H, '_', 00H, 'N', 00H, 'O', 00H, 'T', 00H, '_', 00H
	DB	'L', 00H, 'I', 00H, 'N', 00H, 'K', 00H, 'E', 00H, 'D', 00H, 00H
	DB	00H
$SG164988 DB	'E', 00H, 'R', 00H, 'R', 00H, 'O', 00H, 'R', 00H, '_', 00H
	DB	'I', 00H, 'N', 00H, 'S', 00H, 'T', 00H, 'A', 00H, 'L', 00H, 'L'
	DB	00H, '_', 00H, 'T', 00H, 'E', 00H, 'M', 00H, 'P', 00H, '_', 00H
	DB	'U', 00H, 'N', 00H, 'W', 00H, 'R', 00H, 'I', 00H, 'T', 00H, 'A'
	DB	00H, 'B', 00H, 'L', 00H, 'E', 00H, 00H, 00H
$SG160892 DB	'E', 00H, 'R', 00H, 'R', 00H, 'O', 00H, 'R', 00H, '_', 00H
	DB	'C', 00H, 'O', 00H, 'L', 00H, 'O', 00H, 'R', 00H, 'S', 00H, 'P'
	DB	00H, 'A', 00H, 'C', 00H, 'E', 00H, '_', 00H, 'M', 00H, 'I', 00H
	DB	'S', 00H, 'M', 00H, 'A', 00H, 'T', 00H, 'C', 00H, 'H', 00H, 00H
	DB	00H
$SG155772 DB	'M', 00H, 'K', 00H, '_', 00H, 'E', 00H, '_', 00H, 'I', 00H
	DB	'N', 00H, 'V', 00H, 'A', 00H, 'L', 00H, 'I', 00H, 'D', 00H, 'E'
	DB	00H, 'X', 00H, 'T', 00H, 'E', 00H, 'N', 00H, 'S', 00H, 'I', 00H
	DB	'O', 00H, 'N', 00H, 00H, 00H
$SG168061 DB	'D', 00H, '2', 00H, 'D', 00H, 'E', 00H, 'R', 00H, 'R', 00H
	DB	'_', 00H, 'U', 00H, 'N', 00H, 'S', 00H, 'U', 00H, 'P', 00H, 'P'
	DB	00H, 'O', 00H, 'R', 00H, 'T', 00H, 'E', 00H, 'D', 00H, '_', 00H
	DB	'V', 00H, 'E', 00H, 'R', 00H, 'S', 00H, 'I', 00H, 'O', 00H, 'N'
	DB	00H, 00H, 00H
	ORG $+2
$SG161917 DB	'E', 00H, 'R', 00H, 'R', 00H, 'O', 00H, 'R', 00H, '_', 00H
	DB	'D', 00H, 'S', 00H, '_', 00H, 'S', 00H, 'I', 00H, 'Z', 00H, 'E'
	DB	00H, 'L', 00H, 'I', 00H, 'M', 00H, 'I', 00H, 'T', 00H, '_', 00H
	DB	'E', 00H, 'X', 00H, 'C', 00H, 'E', 00H, 'E', 00H, 'D', 00H, 'E'
	DB	00H, 'D', 00H, 00H, 00H
$SG156798 DB	'O', 00H, 'S', 00H, 'S', 00H, '_', 00H, 'C', 00H, 'O', 00H
	DB	'N', 00H, 'S', 00H, 'T', 00H, 'R', 00H, 'A', 00H, 'I', 00H, 'N'
	DB	00H, 'T', 00H, '_', 00H, 'D', 00H, 'L', 00H, 'L', 00H, '_', 00H
	DB	'N', 00H, 'O', 00H, 'T', 00H, '_', 00H, 'L', 00H, 'I', 00H, 'N'
	DB	00H, 'K', 00H, 'E', 00H, 'D', 00H, 00H, 00H
$SG166013 DB	'E', 00H, 'R', 00H, 'R', 00H, 'O', 00H, 'R', 00H, '_', 00H
	DB	'D', 00H, 'S', 00H, '_', 00H, 'F', 00H, 'O', 00H, 'R', 00H, 'E'
	DB	00H, 'S', 00H, 'T', 00H, '_', 00H, 'V', 00H, 'E', 00H, 'R', 00H
	DB	'S', 00H, 'I', 00H, 'O', 00H, 'N', 00H, '_', 00H, 'T', 00H, 'O'
	DB	00H, 'O', 00H, '_', 00H, 'L', 00H, 'O', 00H, 'W', 00H, 00H, 00H
$SG163965 DB	'N', 00H, 'T', 00H, 'E', 00H, '_', 00H, 'F', 00H, 'I', 00H
	DB	'X', 00H, 'E', 00H, 'D', 00H, 'P', 00H, 'A', 00H, 'R', 00H, 'A'
	DB	00H, 'M', 00H, 'E', 00H, 'T', 00H, 'E', 00H, 'R', 00H, 00H, 00H
	ORG $+2
$SG169086 DB	'D', 00H, 'e', 00H, 'f', 00H, 'e', 00H, 'r', 00H, 'r', 00H
	DB	'e', 00H, 'd', 00H, ' ', 00H, 'c', 00H, 'o', 00H, 'n', 00H, 't'
	DB	00H, 'e', 00H, 'x', 00H, 't', 00H, ' ', 00H, 'r', 00H, 'e', 00H
	DB	'q', 00H, 'u', 00H, 'i', 00H, 'r', 00H, 'e', 00H, 's', 00H, ' '
	DB	00H, 'M', 00H, 'a', 00H, 'p', 00H, '-', 00H, 'D', 00H, 'i', 00H
	DB	's', 00H, 'c', 00H, 'a', 00H, 'r', 00H, 'd', 00H, ' ', 00H, 'u'
	DB	00H, 's', 00H, 'a', 00H, 'g', 00H, 'e', 00H, ' ', 00H, 'p', 00H
	DB	'a', 00H, 't', 00H, 't', 00H, 'e', 00H, 'r', 00H, 'n', 00H, 00H
	DB	00H
$SG167038 DB	'E', 00H, 'R', 00H, 'R', 00H, 'O', 00H, 'R', 00H, '_', 00H
	DB	'I', 00H, 'P', 00H, 'S', 00H, 'E', 00H, 'C', 00H, '_', 00H, 'I'
	DB	00H, 'K', 00H, 'E', 00H, '_', 00H, 'P', 00H, 'R', 00H, 'O', 00H
	DB	'C', 00H, 'E', 00H, 'S', 00H, 'S', 00H, '_', 00H, 'E', 00H, 'R'
	DB	00H, 'R', 00H, '_', 00H, 'D', 00H, 'E', 00H, 'L', 00H, 'E', 00H
	DB	'T', 00H, 'E', 00H, 00H, 00H
	ORG $+2
$SG162942 DB	'E', 00H, 'R', 00H, 'R', 00H, 'O', 00H, 'R', 00H, '_', 00H
	DB	'D', 00H, 'S', 00H, '_', 00H, 'N', 00H, 'A', 00H, 'M', 00H, 'E'
	DB	00H, '_', 00H, 'E', 00H, 'R', 00H, 'R', 00H, 'O', 00H, 'R', 00H
	DB	'_', 00H, 'N', 00H, 'O', 00H, '_', 00H, 'S', 00H, 'Y', 00H, 'N'
	DB	00H, 'T', 00H, 'A', 00H, 'C', 00H, 'T', 00H, 'I', 00H, 'C', 00H
	DB	'A', 00H, 'L', 00H, '_', 00H, 'M', 00H, 'A', 00H, 'P', 00H, 'P'
	DB	00H, 'I', 00H, 'N', 00H, 'G', 00H, 00H, 00H
	ORG $+2
$SG158847 DB	'E', 00H, 'R', 00H, 'R', 00H, 'O', 00H, 'R', 00H, '_', 00H
	DB	'P', 00H, 'O', 00H, 'I', 00H, 'N', 00H, 'T', 00H, '_', 00H, 'N'
	DB	00H, 'O', 00H, 'T', 00H, '_', 00H, 'F', 00H, 'O', 00H, 'U', 00H
	DB	'N', 00H, 'D', 00H, 00H, 00H
$SG157823 DB	'E', 00H, 'R', 00H, 'R', 00H, 'O', 00H, 'R', 00H, '_', 00H
	DB	'J', 00H, 'O', 00H, 'I', 00H, 'N', 00H, '_', 00H, 'T', 00H, 'O'
	DB	00H, '_', 00H, 'J', 00H, 'O', 00H, 'I', 00H, 'N', 00H, 00H, 00H
	ORG $+2
$SG168064 DB	'D', 00H, '2', 00H, 'D', 00H, 'E', 00H, 'R', 00H, 'R', 00H
	DB	'_', 00H, 'B', 00H, 'A', 00H, 'D', 00H, '_', 00H, 'N', 00H, 'U'
	DB	00H, 'M', 00H, 'B', 00H, 'E', 00H, 'R', 00H, 00H, 00H
$SG155775 DB	'M', 00H, 'K', 00H, '_', 00H, 'E', 00H, '_', 00H, 'I', 00H
	DB	'N', 00H, 'T', 00H, 'E', 00H, 'R', 00H, 'M', 00H, 'E', 00H, 'D'
	DB	00H, 'I', 00H, 'A', 00H, 'T', 00H, 'E', 00H, 'I', 00H, 'N', 00H
	DB	'T', 00H, 'E', 00H, 'R', 00H, 'F', 00H, 'A', 00H, 'C', 00H, 'E'
	DB	00H, 'N', 00H, 'O', 00H, 'T', 00H, 'S', 00H, 'U', 00H, 'P', 00H
	DB	'P', 00H, 'O', 00H, 'R', 00H, 'T', 00H, 'E', 00H, 'D', 00H, 00H
	DB	00H
	ORG $+2
$SG163968 DB	'S', 00H, 'E', 00H, 'C', 00H, '_', 00H, 'E', 00H, '_', 00H
	DB	'I', 00H, 'N', 00H, 'S', 00H, 'U', 00H, 'F', 00H, 'F', 00H, 'I'
	DB	00H, 'C', 00H, 'I', 00H, 'E', 00H, 'N', 00H, 'T', 00H, '_', 00H
	DB	'M', 00H, 'E', 00H, 'M', 00H, 'O', 00H, 'R', 00H, 'Y', 00H, 00H
	DB	00H
$SG159872 DB	'E', 00H, 'R', 00H, 'R', 00H, 'O', 00H, 'R', 00H, '_', 00H
	DB	'N', 00H, 'O', 00H, '_', 00H, 'S', 00H, 'C', 00H, 'R', 00H, 'O'
	DB	00H, 'L', 00H, 'L', 00H, 'B', 00H, 'A', 00H, 'R', 00H, 'S', 00H
	DB	00H, 00H
$SG160897 DB	'E', 00H, 'R', 00H, 'R', 00H, 'O', 00H, 'R', 00H, '_', 00H
	DB	'I', 00H, 'N', 00H, 'V', 00H, 'A', 00H, 'L', 00H, 'I', 00H, 'D'
	DB	00H, '_', 00H, 'C', 00H, 'O', 00H, 'L', 00H, 'O', 00H, 'R', 00H
	DB	'I', 00H, 'N', 00H, 'D', 00H, 'E', 00H, 'X', 00H, 00H, 00H
	ORG $+2
$SG169089 DB	'T', 00H, 'h', 00H, 'e', 00H, ' ', 00H, 'p', 00H, 'i', 00H
	DB	'x', 00H, 'e', 00H, 'l', 00H, ' ', 00H, 'f', 00H, 'o', 00H, 'r'
	DB	00H, 'm', 00H, 'a', 00H, 't', 00H, ' ', 00H, 'i', 00H, 's', 00H
	DB	' ', 00H, 'n', 00H, 'o', 00H, 't', 00H, ' ', 00H, 's', 00H, 'u'
	DB	00H, 'p', 00H, 'p', 00H, 'o', 00H, 'r', 00H, 't', 00H, 'e', 00H
	DB	'd', 00H, '.', 00H, 00H, 00H
	ORG $+2
$SG164993 DB	'E', 00H, 'R', 00H, 'R', 00H, 'O', 00H, 'R', 00H, '_', 00H
	DB	'I', 00H, 'N', 00H, 'S', 00H, 'T', 00H, 'A', 00H, 'L', 00H, 'L'
	DB	00H, '_', 00H, 'P', 00H, 'L', 00H, 'A', 00H, 'T', 00H, 'F', 00H
	DB	'O', 00H, 'R', 00H, 'M', 00H, '_', 00H, 'U', 00H, 'N', 00H, 'S'
	DB	00H, 'U', 00H, 'P', 00H, 'P', 00H, 'O', 00H, 'R', 00H, 'T', 00H
	DB	'E', 00H, 'D', 00H, 00H, 00H
	ORG $+2
$SG156801 DB	'O', 00H, 'S', 00H, 'S', 00H, '_', 00H, 'C', 00H, 'O', 00H
	DB	'M', 00H, 'P', 00H, 'A', 00H, 'R', 00H, 'A', 00H, 'T', 00H, 'O'
	DB	00H, 'R', 00H, '_', 00H, 'D', 00H, 'L', 00H, 'L', 00H, '_', 00H
	DB	'N', 00H, 'O', 00H, 'T', 00H, '_', 00H, 'L', 00H, 'I', 00H, 'N'
	DB	00H, 'K', 00H, 'E', 00H, 'D', 00H, 00H, 00H
$SG161922 DB	'E', 00H, 'R', 00H, 'R', 00H, 'O', 00H, 'R', 00H, '_', 00H
	DB	'D', 00H, 'S', 00H, '_', 00H, 'A', 00H, 'D', 00H, 'M', 00H, 'I'
	DB	00H, 'N', 00H, '_', 00H, 'L', 00H, 'I', 00H, 'M', 00H, 'I', 00H
	DB	'T', 00H, '_', 00H, 'E', 00H, 'X', 00H, 'C', 00H, 'E', 00H, 'E'
	DB	00H, 'D', 00H, 'E', 00H, 'D', 00H, 00H, 00H
$SG166018 DB	'E', 00H, 'R', 00H, 'R', 00H, 'O', 00H, 'R', 00H, '_', 00H
	DB	'D', 00H, 'S', 00H, '_', 00H, 'D', 00H, 'O', 00H, 'M', 00H, 'A'
	DB	00H, 'I', 00H, 'N', 00H, '_', 00H, 'V', 00H, 'E', 00H, 'R', 00H
	DB	'S', 00H, 'I', 00H, 'O', 00H, 'N', 00H, '_', 00H, 'T', 00H, 'O'
	DB	00H, 'O', 00H, '_', 00H, 'L', 00H, 'O', 00H, 'W', 00H, 00H, 00H
$SG155778 DB	'M', 00H, 'K', 00H, '_', 00H, 'E', 00H, '_', 00H, 'N', 00H
	DB	'O', 00H, 'T', 00H, 'B', 00H, 'I', 00H, 'N', 00H, 'D', 00H, 'A'
	DB	00H, 'B', 00H, 'L', 00H, 'E', 00H, 00H, 00H
	ORG $+2
$SG168067 DB	'D', 00H, '2', 00H, 'D', 00H, 'E', 00H, 'R', 00H, 'R', 00H
	DB	'_', 00H, 'W', 00H, 'R', 00H, 'O', 00H, 'N', 00H, 'G', 00H, '_'
	DB	00H, 'F', 00H, 'A', 00H, 'C', 00H, 'T', 00H, 'O', 00H, 'R', 00H
	DB	'Y', 00H, 00H, 00H
	ORG $+2
$SG167043 DB	'E', 00H, 'R', 00H, 'R', 00H, 'O', 00H, 'R', 00H, '_', 00H
	DB	'I', 00H, 'P', 00H, 'S', 00H, 'E', 00H, 'C', 00H, '_', 00H, 'I'
	DB	00H, 'K', 00H, 'E', 00H, '_', 00H, 'P', 00H, 'R', 00H, 'O', 00H
	DB	'C', 00H, 'E', 00H, 'S', 00H, 'S', 00H, '_', 00H, 'E', 00H, 'R'
	DB	00H, 'R', 00H, '_', 00H, 'V', 00H, 'E', 00H, 'N', 00H, 'D', 00H
	DB	'O', 00H, 'R', 00H, 00H, 00H
	ORG $+2
$SG163971 DB	'S', 00H, 'E', 00H, 'C', 00H, '_', 00H, 'E', 00H, '_', 00H
	DB	'I', 00H, 'N', 00H, 'V', 00H, 'A', 00H, 'L', 00H, 'I', 00H, 'D'
	DB	00H, '_', 00H, 'H', 00H, 'A', 00H, 'N', 00H, 'D', 00H, 'L', 00H
	DB	'E', 00H, 00H, 00H
	ORG $+2
$SG162947 DB	'E', 00H, 'R', 00H, 'R', 00H, 'O', 00H, 'R', 00H, '_', 00H
	DB	'D', 00H, 'S', 00H, '_', 00H, 'C', 00H, 'O', 00H, 'N', 00H, 'S'
	DB	00H, 'T', 00H, 'R', 00H, 'U', 00H, 'C', 00H, 'T', 00H, 'E', 00H
	DB	'D', 00H, '_', 00H, 'A', 00H, 'T', 00H, 'T', 00H, '_', 00H, 'M'
	DB	00H, 'O', 00H, 'D', 00H, 00H, 00H
	ORG $+2
$SG169092 DB	'T', 00H, 'h', 00H, 'e', 00H, ' ', 00H, 'o', 00H, 'b', 00H
	DB	'j', 00H, 'e', 00H, 'c', 00H, 't', 00H, ' ', 00H, 'w', 00H, 'a'
	DB	00H, 's', 00H, ' ', 00H, 'n', 00H, 'o', 00H, 't', 00H, ' ', 00H
	DB	'i', 00H, 'n', 00H, ' ', 00H, 't', 00H, 'h', 00H, 'e', 00H, ' '
	DB	00H, 'c', 00H, 'o', 00H, 'r', 00H, 'r', 00H, 'e', 00H, 'c', 00H
	DB	't', 00H, ' ', 00H, 's', 00H, 't', 00H, 'a', 00H, 't', 00H, 'e'
	DB	00H, ' ', 00H, 't', 00H, 'o', 00H, ' ', 00H, 'p', 00H, 'r', 00H
	DB	'o', 00H, 'c', 00H, 'e', 00H, 's', 00H, 's', 00H, ' ', 00H, 't'
	DB	00H, 'h', 00H, 'e', 00H, ' ', 00H, 'm', 00H, 'e', 00H, 't', 00H
	DB	'h', 00H, 'o', 00H, 'd', 00H, '.', 00H, 00H, 00H
	ORG $+2
$SG158852 DB	'E', 00H, 'R', 00H, 'R', 00H, 'O', 00H, 'R', 00H, '_', 00H
	DB	'N', 00H, 'O', 00H, '_', 00H, 'T', 00H, 'R', 00H, 'A', 00H, 'C'
	DB	00H, 'K', 00H, 'I', 00H, 'N', 00H, 'G', 00H, '_', 00H, 'S', 00H
	DB	'E', 00H, 'R', 00H, 'V', 00H, 'I', 00H, 'C', 00H, 'E', 00H, 00H
	DB	00H
$SG157828 DB	'E', 00H, 'R', 00H, 'R', 00H, 'O', 00H, 'R', 00H, '_', 00H
	DB	'S', 00H, 'U', 00H, 'B', 00H, 'S', 00H, 'T', 00H, '_', 00H, 'T'
	DB	00H, 'O', 00H, '_', 00H, 'S', 00H, 'U', 00H, 'B', 00H, 'S', 00H
	DB	'T', 00H, 00H, 00H
	ORG $+2
$SG156804 DB	'O', 00H, 'S', 00H, 'S', 00H, '_', 00H, 'C', 00H, 'O', 00H
	DB	'M', 00H, 'P', 00H, 'A', 00H, 'R', 00H, 'A', 00H, 'T', 00H, 'O'
	DB	00H, 'R', 00H, '_', 00H, 'C', 00H, 'O', 00H, 'D', 00H, 'E', 00H
	DB	'_', 00H, 'N', 00H, 'O', 00H, 'T', 00H, '_', 00H, 'L', 00H, 'I'
	DB	00H, 'N', 00H, 'K', 00H, 'E', 00H, 'D', 00H, 00H, 00H
	ORG $+2
$SG159877 DB	'E', 00H, 'R', 00H, 'R', 00H, 'O', 00H, 'R', 00H, '_', 00H
	DB	'I', 00H, 'N', 00H, 'V', 00H, 'A', 00H, 'L', 00H, 'I', 00H, 'D'
	DB	00H, '_', 00H, 'S', 00H, 'C', 00H, 'R', 00H, 'O', 00H, 'L', 00H
	DB	'L', 00H, 'B', 00H, 'A', 00H, 'R', 00H, '_', 00H, 'R', 00H, 'A'
	DB	00H, 'N', 00H, 'G', 00H, 'E', 00H, 00H, 00H
$SG155781 DB	'M', 00H, 'K', 00H, '_', 00H, 'E', 00H, '_', 00H, 'N', 00H
	DB	'O', 00H, 'T', 00H, 'B', 00H, 'O', 00H, 'U', 00H, 'N', 00H, 'D'
	DB	00H, 00H, 00H
$SG168070 DB	'D', 00H, '2', 00H, 'D', 00H, 'E', 00H, 'R', 00H, 'R', 00H
	DB	'_', 00H, 'L', 00H, 'A', 00H, 'Y', 00H, 'E', 00H, 'R', 00H, '_'
	DB	00H, 'A', 00H, 'L', 00H, 'R', 00H, 'E', 00H, 'A', 00H, 'D', 00H
	DB	'Y', 00H, '_', 00H, 'I', 00H, 'N', 00H, '_', 00H, 'U', 00H, 'S'
	DB	00H, 'E', 00H, 00H, 00H
$SG164998 DB	'E', 00H, 'R', 00H, 'R', 00H, 'O', 00H, 'R', 00H, '_', 00H
	DB	'I', 00H, 'N', 00H, 'S', 00H, 'T', 00H, 'A', 00H, 'L', 00H, 'L'
	DB	00H, '_', 00H, 'N', 00H, 'O', 00H, 'T', 00H, 'U', 00H, 'S', 00H
	DB	'E', 00H, 'D', 00H, 00H, 00H
$SG163974 DB	'S', 00H, 'E', 00H, 'C', 00H, '_', 00H, 'E', 00H, '_', 00H
	DB	'U', 00H, 'N', 00H, 'S', 00H, 'U', 00H, 'P', 00H, 'P', 00H, 'O'
	DB	00H, 'R', 00H, 'T', 00H, 'E', 00H, 'D', 00H, '_', 00H, 'F', 00H
	DB	'U', 00H, 'N', 00H, 'C', 00H, 'T', 00H, 'I', 00H, 'O', 00H, 'N'
	DB	00H, 00H, 00H
	ORG $+2
$SG160902 DB	'E', 00H, 'R', 00H, 'R', 00H, 'O', 00H, 'R', 00H, '_', 00H
	DB	'C', 00H, 'O', 00H, 'N', 00H, 'N', 00H, 'E', 00H, 'C', 00H, 'T'
	DB	00H, 'E', 00H, 'D', 00H, '_', 00H, 'O', 00H, 'T', 00H, 'H', 00H
	DB	'E', 00H, 'R', 00H, '_', 00H, 'P', 00H, 'A', 00H, 'S', 00H, 'S'
	DB	00H, 'W', 00H, 'O', 00H, 'R', 00H, 'D', 00H, 00H, 00H
	ORG $+2
$SG166023 DB	'E', 00H, 'R', 00H, 'R', 00H, 'O', 00H, 'R', 00H, '_', 00H
	DB	'D', 00H, 'S', 00H, '_', 00H, 'I', 00H, 'N', 00H, 'C', 00H, 'O'
	DB	00H, 'M', 00H, 'P', 00H, 'A', 00H, 'T', 00H, 'I', 00H, 'B', 00H
	DB	'L', 00H, 'E', 00H, '_', 00H, 'V', 00H, 'E', 00H, 'R', 00H, 'S'
	DB	00H, 'I', 00H, 'O', 00H, 'N', 00H, 00H, 00H
$SG169095 DB	'T', 00H, 'h', 00H, 'e', 00H, ' ', 00H, 'o', 00H, 'b', 00H
	DB	'j', 00H, 'e', 00H, 'c', 00H, 't', 00H, ' ', 00H, 'h', 00H, 'a'
	DB	00H, 's', 00H, ' ', 00H, 'n', 00H, 'o', 00H, 't', 00H, ' ', 00H
	DB	'y', 00H, 'e', 00H, 't', 00H, ' ', 00H, 'b', 00H, 'e', 00H, 'e'
	DB	00H, 'n', 00H, ' ', 00H, 'i', 00H, 'n', 00H, 'i', 00H, 't', 00H
	DB	'i', 00H, 'a', 00H, 'l', 00H, 'i', 00H, 'z', 00H, 'e', 00H, 'd'
	DB	00H, '.', 00H, 00H, 00H
	ORG $+2
$SG161927 DB	'E', 00H, 'R', 00H, 'R', 00H, 'O', 00H, 'R', 00H, '_', 00H
	DB	'D', 00H, 'S', 00H, '_', 00H, 'C', 00H, 'O', 00H, 'M', 00H, 'P'
	DB	00H, 'A', 00H, 'R', 00H, 'E', 00H, '_', 00H, 'F', 00H, 'A', 00H
	DB	'L', 00H, 'S', 00H, 'E', 00H, 00H, 00H
	ORG $+2
$SG156807 DB	'O', 00H, 'S', 00H, 'S', 00H, '_', 00H, 'M', 00H, 'E', 00H
	DB	'M', 00H, '_', 00H, 'M', 00H, 'G', 00H, 'R', 00H, '_', 00H, 'D'
	DB	00H, 'L', 00H, 'L', 00H, '_', 00H, 'N', 00H, 'O', 00H, 'T', 00H
	DB	'_', 00H, 'L', 00H, 'I', 00H, 'N', 00H, 'K', 00H, 'E', 00H, 'D'
	DB	00H, 00H, 00H
	ORG $+2
$SG162952 DB	'E', 00H, 'R', 00H, 'R', 00H, 'O', 00H, 'R', 00H, '_', 00H
	DB	'D', 00H, 'S', 00H, '_', 00H, 'W', 00H, 'R', 00H, 'O', 00H, 'N'
	DB	00H, 'G', 00H, '_', 00H, 'O', 00H, 'M', 00H, '_', 00H, 'O', 00H
	DB	'B', 00H, 'J', 00H, '_', 00H, 'C', 00H, 'L', 00H, 'A', 00H, 'S'
	DB	00H, 'S', 00H, 00H, 00H
$SG155784 DB	'M', 00H, 'K', 00H, '_', 00H, 'E', 00H, '_', 00H, 'C', 00H
	DB	'A', 00H, 'N', 00H, 'T', 00H, 'O', 00H, 'P', 00H, 'E', 00H, 'N'
	DB	00H, 'F', 00H, 'I', 00H, 'L', 00H, 'E', 00H, 00H, 00H
$SG167048 DB	'E', 00H, 'R', 00H, 'R', 00H, 'O', 00H, 'R', 00H, '_', 00H
	DB	'I', 00H, 'P', 00H, 'S', 00H, 'E', 00H, 'C', 00H, '_', 00H, 'I'
	DB	00H, 'K', 00H, 'E', 00H, '_', 00H, 'I', 00H, 'N', 00H, 'V', 00H
	DB	'A', 00H, 'L', 00H, 'I', 00H, 'D', 00H, '_', 00H, 'P', 00H, 'A'
	DB	00H, 'Y', 00H, 'L', 00H, 'O', 00H, 'A', 00H, 'D', 00H, 00H, 00H
$SG168073 DB	'D', 00H, '2', 00H, 'D', 00H, 'E', 00H, 'R', 00H, 'R', 00H
	DB	'_', 00H, 'P', 00H, 'O', 00H, 'P', 00H, '_', 00H, 'C', 00H, 'A'
	DB	00H, 'L', 00H, 'L', 00H, '_', 00H, 'D', 00H, 'I', 00H, 'D', 00H
	DB	'_', 00H, 'N', 00H, 'O', 00H, 'T', 00H, '_', 00H, 'M', 00H, 'A'
	DB	00H, 'T', 00H, 'C', 00H, 'H', 00H, '_', 00H, 'P', 00H, 'U', 00H
	DB	'S', 00H, 'H', 00H, 00H, 00H
	ORG $+2
$SG163977 DB	'S', 00H, 'E', 00H, 'C', 00H, '_', 00H, 'E', 00H, '_', 00H
	DB	'T', 00H, 'A', 00H, 'R', 00H, 'G', 00H, 'E', 00H, 'T', 00H, '_'
	DB	00H, 'U', 00H, 'N', 00H, 'K', 00H, 'N', 00H, 'O', 00H, 'W', 00H
	DB	'N', 00H, 00H, 00H
	ORG $+2
$SG158857 DB	'E', 00H, 'R', 00H, 'R', 00H, 'O', 00H, 'R', 00H, '_', 00H
	DB	'N', 00H, 'O', 00H, '_', 00H, 'V', 00H, 'O', 00H, 'L', 00H, 'U'
	DB	00H, 'M', 00H, 'E', 00H, '_', 00H, 'I', 00H, 'D', 00H, 00H, 00H
	ORG $+2
$SG157833 DB	'E', 00H, 'R', 00H, 'R', 00H, 'O', 00H, 'R', 00H, '_', 00H
	DB	'J', 00H, 'O', 00H, 'I', 00H, 'N', 00H, '_', 00H, 'T', 00H, 'O'
	DB	00H, '_', 00H, 'S', 00H, 'U', 00H, 'B', 00H, 'S', 00H, 'T', 00H
	DB	00H, 00H
$SG159882 DB	'E', 00H, 'R', 00H, 'R', 00H, 'O', 00H, 'R', 00H, '_', 00H
	DB	'I', 00H, 'N', 00H, 'V', 00H, 'A', 00H, 'L', 00H, 'I', 00H, 'D'
	DB	00H, '_', 00H, 'S', 00H, 'H', 00H, 'O', 00H, 'W', 00H, 'W', 00H
	DB	'I', 00H, 'N', 00H, '_', 00H, 'C', 00H, 'O', 00H, 'M', 00H, 'M'
	DB	00H, 'A', 00H, 'N', 00H, 'D', 00H, 00H, 00H
$SG169098 DB	'T', 00H, 'h', 00H, 'e', 00H, ' ', 00H, 'r', 00H, 'e', 00H
	DB	'q', 00H, 'u', 00H, 'e', 00H, 's', 00H, 't', 00H, 'e', 00H, 'd'
	DB	00H, ' ', 00H, 'o', 00H, 'p', 00H, 'e', 00H, 'r', 00H, 't', 00H
	DB	'i', 00H, 'o', 00H, 'n', 00H, ' ', 00H, 'i', 00H, 's', 00H, ' '
	DB	00H, 'n', 00H, 'o', 00H, 't', 00H, ' ', 00H, 's', 00H, 'u', 00H
	DB	'p', 00H, 'p', 00H, 'o', 00H, 'r', 00H, 't', 00H, 'e', 00H, 'd'
	DB	00H, '.', 00H, 00H, 00H
	ORG $+2
$SG156810 DB	'O', 00H, 'S', 00H, 'S', 00H, '_', 00H, 'P', 00H, 'D', 00H
	DB	'V', 00H, '_', 00H, 'D', 00H, 'L', 00H, 'L', 00H, '_', 00H, 'N'
	DB	00H, 'O', 00H, 'T', 00H, '_', 00H, 'L', 00H, 'I', 00H, 'N', 00H
	DB	'K', 00H, 'E', 00H, 'D', 00H, 00H, 00H
	ORG $+2
$SG155787 DB	'M', 00H, 'K', 00H, '_', 00H, 'E', 00H, '_', 00H, 'M', 00H
	DB	'U', 00H, 'S', 00H, 'T', 00H, 'B', 00H, 'O', 00H, 'T', 00H, 'H'
	DB	00H, 'E', 00H, 'R', 00H, 'U', 00H, 'S', 00H, 'E', 00H, 'R', 00H
	DB	00H, 00H
$SG166028 DB	'E', 00H, 'R', 00H, 'R', 00H, 'O', 00H, 'R', 00H, '_', 00H
	DB	'D', 00H, 'S', 00H, '_', 00H, 'L', 00H, 'O', 00H, 'W', 00H, '_'
	DB	00H, 'D', 00H, 'S', 00H, 'A', 00H, '_', 00H, 'V', 00H, 'E', 00H
	DB	'R', 00H, 'S', 00H, 'I', 00H, 'O', 00H, 'N', 00H, 00H, 00H
	ORG $+2
$SG165003 DB	'E', 00H, 'R', 00H, 'R', 00H, 'O', 00H, 'R', 00H, '_', 00H
	DB	'P', 00H, 'A', 00H, 'T', 00H, 'C', 00H, 'H', 00H, '_', 00H, 'P'
	DB	00H, 'A', 00H, 'C', 00H, 'K', 00H, 'A', 00H, 'G', 00H, 'E', 00H
	DB	'_', 00H, 'O', 00H, 'P', 00H, 'E', 00H, 'N', 00H, '_', 00H, 'F'
	DB	00H, 'A', 00H, 'I', 00H, 'L', 00H, 'E', 00H, 'D', 00H, 00H, 00H
$SG160907 DB	'E', 00H, 'R', 00H, 'R', 00H, 'O', 00H, 'R', 00H, '_', 00H
	DB	'B', 00H, 'A', 00H, 'D', 00H, '_', 00H, 'U', 00H, 'S', 00H, 'E'
	DB	00H, 'R', 00H, 'N', 00H, 'A', 00H, 'M', 00H, 'E', 00H, 00H, 00H
	ORG $+2
$SG168076 DB	'D', 00H, '2', 00H, 'D', 00H, 'E', 00H, 'R', 00H, 'R', 00H
	DB	'_', 00H, 'P', 00H, 'U', 00H, 'S', 00H, 'H', 00H, '_', 00H, 'P'
	DB	00H, 'O', 00H, 'P', 00H, '_', 00H, 'U', 00H, 'N', 00H, 'B', 00H
	DB	'A', 00H, 'L', 00H, 'A', 00H, 'N', 00H, 'C', 00H, 'E', 00H, 'D'
	DB	00H, 00H, 00H
	ORG $+2
$SG163980 DB	'S', 00H, 'E', 00H, 'C', 00H, '_', 00H, 'E', 00H, '_', 00H
	DB	'I', 00H, 'N', 00H, 'T', 00H, 'E', 00H, 'R', 00H, 'N', 00H, 'A'
	DB	00H, 'L', 00H, '_', 00H, 'E', 00H, 'R', 00H, 'R', 00H, 'O', 00H
	DB	'R', 00H, 00H, 00H
	ORG $+2
$SG161932 DB	'E', 00H, 'R', 00H, 'R', 00H, 'O', 00H, 'R', 00H, '_', 00H
	DB	'D', 00H, 'S', 00H, '_', 00H, 'C', 00H, 'O', 00H, 'M', 00H, 'P'
	DB	00H, 'A', 00H, 'R', 00H, 'E', 00H, '_', 00H, 'T', 00H, 'R', 00H
	DB	'U', 00H, 'E', 00H, 00H, 00H
$SG169101 DB	'T', 00H, 'h', 00H, 'e', 00H, ' ', 00H, 'g', 00H, 'e', 00H
	DB	'o', 00H, 'm', 00H, 'e', 00H, 'r', 00H, 'y', 00H, ' ', 00H, 's'
	DB	00H, 'c', 00H, 'a', 00H, 'n', 00H, 'n', 00H, 'e', 00H, 'r', 00H
	DB	' ', 00H, 'f', 00H, 'a', 00H, 'i', 00H, 'l', 00H, 'e', 00H, 'd'
	DB	00H, ' ', 00H, 't', 00H, 'o', 00H, ' ', 00H, 'p', 00H, 'r', 00H
	DB	'o', 00H, 'c', 00H, 'e', 00H, 's', 00H, 's', 00H, ' ', 00H, 't'
	DB	00H, 'h', 00H, 'e', 00H, ' ', 00H, 'd', 00H, 'a', 00H, 't', 00H
	DB	'a', 00H, '.', 00H, 00H, 00H
$SG167053 DB	'E', 00H, 'R', 00H, 'R', 00H, 'O', 00H, 'R', 00H, '_', 00H
	DB	'I', 00H, 'P', 00H, 'S', 00H, 'E', 00H, 'C', 00H, '_', 00H, 'I'
	DB	00H, 'K', 00H, 'E', 00H, '_', 00H, 'L', 00H, 'O', 00H, 'A', 00H
	DB	'D', 00H, '_', 00H, 'S', 00H, 'O', 00H, 'F', 00H, 'T', 00H, '_'
	DB	00H, 'S', 00H, 'A', 00H, 00H, 00H
	ORG $+2
$SG162957 DB	'E', 00H, 'R', 00H, 'R', 00H, 'O', 00H, 'R', 00H, '_', 00H
	DB	'D', 00H, 'S', 00H, '_', 00H, 'D', 00H, 'R', 00H, 'A', 00H, '_'
	DB	00H, 'R', 00H, 'E', 00H, 'P', 00H, 'L', 00H, '_', 00H, 'P', 00H
	DB	'E', 00H, 'N', 00H, 'D', 00H, 'I', 00H, 'N', 00H, 'G', 00H, 00H
	DB	00H
$SG156813 DB	'O', 00H, 'S', 00H, 'S', 00H, '_', 00H, 'P', 00H, 'D', 00H
	DB	'V', 00H, '_', 00H, 'C', 00H, 'O', 00H, 'D', 00H, 'E', 00H, '_'
	DB	00H, 'N', 00H, 'O', 00H, 'T', 00H, '_', 00H, 'L', 00H, 'I', 00H
	DB	'N', 00H, 'K', 00H, 'E', 00H, 'D', 00H, 00H, 00H
$SG158862 DB	'E', 00H, 'R', 00H, 'R', 00H, 'O', 00H, 'R', 00H, '_', 00H
	DB	'U', 00H, 'N', 00H, 'A', 00H, 'B', 00H, 'L', 00H, 'E', 00H, '_'
	DB	00H, 'T', 00H, 'O', 00H, '_', 00H, 'R', 00H, 'E', 00H, 'M', 00H
	DB	'O', 00H, 'V', 00H, 'E', 00H, '_', 00H, 'R', 00H, 'E', 00H, 'P'
	DB	00H, 'L', 00H, 'A', 00H, 'C', 00H, 'E', 00H, 'D', 00H, 00H, 00H
$SG157838 DB	'E', 00H, 'R', 00H, 'R', 00H, 'O', 00H, 'R', 00H, '_', 00H
	DB	'S', 00H, 'U', 00H, 'B', 00H, 'S', 00H, 'T', 00H, '_', 00H, 'T'
	DB	00H, 'O', 00H, '_', 00H, 'J', 00H, 'O', 00H, 'I', 00H, 'N', 00H
	DB	00H, 00H
$SG155790 DB	'M', 00H, 'K', 00H, '_', 00H, 'E', 00H, '_', 00H, 'N', 00H
	DB	'O', 00H, 'I', 00H, 'N', 00H, 'V', 00H, 'E', 00H, 'R', 00H, 'S'
	DB	00H, 'E', 00H, 00H, 00H
	ORG $+2
$SG168079 DB	'D', 00H, '2', 00H, 'D', 00H, 'E', 00H, 'R', 00H, 'R', 00H
	DB	'_', 00H, 'R', 00H, 'E', 00H, 'N', 00H, 'D', 00H, 'E', 00H, 'R'
	DB	00H, '_', 00H, 'T', 00H, 'A', 00H, 'R', 00H, 'G', 00H, 'E', 00H
	DB	'T', 00H, '_', 00H, 'H', 00H, 'A', 00H, 'S', 00H, '_', 00H, 'L'
	DB	00H, 'A', 00H, 'Y', 00H, 'E', 00H, 'R', 00H, '_', 00H, 'O', 00H
	DB	'R', 00H, '_', 00H, 'C', 00H, 'L', 00H, 'I', 00H, 'P', 00H, 'R'
	DB	00H, 'E', 00H, 'C', 00H, 'T', 00H, 00H, 00H
	ORG $+2
$SG163983 DB	'S', 00H, 'E', 00H, 'C', 00H, '_', 00H, 'E', 00H, '_', 00H
	DB	'S', 00H, 'E', 00H, 'C', 00H, 'P', 00H, 'K', 00H, 'G', 00H, '_'
	DB	00H, 'N', 00H, 'O', 00H, 'T', 00H, '_', 00H, 'F', 00H, 'O', 00H
	DB	'U', 00H, 'N', 00H, 'D', 00H, 00H, 00H
	ORG $+2
$SG159887 DB	'E', 00H, 'R', 00H, 'R', 00H, 'O', 00H, 'R', 00H, '_', 00H
	DB	'N', 00H, 'O', 00H, '_', 00H, 'S', 00H, 'Y', 00H, 'S', 00H, 'T'
	DB	00H, 'E', 00H, 'M', 00H, '_', 00H, 'R', 00H, 'E', 00H, 'S', 00H
	DB	'O', 00H, 'U', 00H, 'R', 00H, 'C', 00H, 'E', 00H, 'S', 00H, 00H
	DB	00H
$SG162962 DB	'D', 00H, 'N', 00H, 'S', 00H, '_', 00H, 'E', 00H, 'R', 00H
	DB	'R', 00H, 'O', 00H, 'R', 00H, '_', 00H, 'R', 00H, 'E', 00H, 'S'
	DB	00H, 'P', 00H, 'O', 00H, 'N', 00H, 'S', 00H, 'E', 00H, '_', 00H
	DB	'C', 00H, 'O', 00H, 'D', 00H, 'E', 00H, 'S', 00H, '_', 00H, 'B'
	DB	00H, 'A', 00H, 'S', 00H, 'E', 00H, 00H, 00H
$SG169104 DB	'D', 00H, '2', 00H, 'D', 00H, ' ', 00H, 'c', 00H, 'o', 00H
	DB	'u', 00H, 'l', 00H, 'd', 00H, ' ', 00H, 'n', 00H, 'o', 00H, 't'
	DB	00H, ' ', 00H, 'a', 00H, 'c', 00H, 'c', 00H, 'e', 00H, 's', 00H
	DB	's', 00H, ' ', 00H, 't', 00H, 'h', 00H, 'e', 00H, ' ', 00H, 's'
	DB	00H, 'c', 00H, 'r', 00H, 'e', 00H, 'e', 00H, 'n', 00H, '.', 00H
	DB	00H, 00H
	ORG $+2
$SG165008 DB	'E', 00H, 'R', 00H, 'R', 00H, 'O', 00H, 'R', 00H, '_', 00H
	DB	'P', 00H, 'A', 00H, 'T', 00H, 'C', 00H, 'H', 00H, '_', 00H, 'P'
	DB	00H, 'A', 00H, 'C', 00H, 'K', 00H, 'A', 00H, 'G', 00H, 'E', 00H
	DB	'_', 00H, 'I', 00H, 'N', 00H, 'V', 00H, 'A', 00H, 'L', 00H, 'I'
	DB	00H, 'D', 00H, 00H, 00H
$SG160912 DB	'E', 00H, 'R', 00H, 'R', 00H, 'O', 00H, 'R', 00H, '_', 00H
	DB	'N', 00H, 'O', 00H, 'T', 00H, '_', 00H, 'C', 00H, 'O', 00H, 'N'
	DB	00H, 'N', 00H, 'E', 00H, 'C', 00H, 'T', 00H, 'E', 00H, 'D', 00H
	DB	00H, 00H
$SG156816 DB	'O', 00H, 'S', 00H, 'S', 00H, '_', 00H, 'A', 00H, 'P', 00H
	DB	'I', 00H, '_', 00H, 'D', 00H, 'L', 00H, 'L', 00H, '_', 00H, 'N'
	DB	00H, 'O', 00H, 'T', 00H, '_', 00H, 'L', 00H, 'I', 00H, 'N', 00H
	DB	'K', 00H, 'E', 00H, 'D', 00H, 00H, 00H
	ORG $+2
$SG163986 DB	'S', 00H, 'E', 00H, 'C', 00H, '_', 00H, 'E', 00H, '_', 00H
	DB	'N', 00H, 'O', 00H, 'T', 00H, '_', 00H, 'O', 00H, 'W', 00H, 'N'
	DB	00H, 'E', 00H, 'R', 00H, 00H, 00H
$SG157843 DB	'E', 00H, 'R', 00H, 'R', 00H, 'O', 00H, 'R', 00H, '_', 00H
	DB	'B', 00H, 'U', 00H, 'S', 00H, 'Y', 00H, '_', 00H, 'D', 00H, 'R'
	DB	00H, 'I', 00H, 'V', 00H, 'E', 00H, 00H, 00H
	ORG $+2
$SG166033 DB	'E', 00H, 'R', 00H, 'R', 00H, 'O', 00H, 'R', 00H, '_', 00H
	DB	'D', 00H, 'S', 00H, '_', 00H, 'N', 00H, 'O', 00H, '_', 00H, 'B'
	DB	00H, 'E', 00H, 'H', 00H, 'A', 00H, 'V', 00H, 'I', 00H, 'O', 00H
	DB	'R', 00H, '_', 00H, 'V', 00H, 'E', 00H, 'R', 00H, 'S', 00H, 'I'
	DB	00H, 'O', 00H, 'N', 00H, '_', 00H, 'I', 00H, 'N', 00H, '_', 00H
	DB	'M', 00H, 'I', 00H, 'X', 00H, 'E', 00H, 'D', 00H, 'D', 00H, 'O'
	DB	00H, 'M', 00H, 'A', 00H, 'I', 00H, 'N', 00H, 00H, 00H
$SG161937 DB	'E', 00H, 'R', 00H, 'R', 00H, 'O', 00H, 'R', 00H, '_', 00H
	DB	'D', 00H, 'S', 00H, '_', 00H, 'A', 00H, 'U', 00H, 'T', 00H, 'H'
	DB	00H, '_', 00H, 'M', 00H, 'E', 00H, 'T', 00H, 'H', 00H, 'O', 00H
	DB	'D', 00H, '_', 00H, 'N', 00H, 'O', 00H, 'T', 00H, '_', 00H, 'S'
	DB	00H, 'U', 00H, 'P', 00H, 'P', 00H, 'O', 00H, 'R', 00H, 'T', 00H
	DB	'E', 00H, 'D', 00H, 00H, 00H
	ORG $+2
$SG155793 DB	'M', 00H, 'K', 00H, '_', 00H, 'E', 00H, '_', 00H, 'N', 00H
	DB	'O', 00H, 'S', 00H, 'T', 00H, 'O', 00H, 'R', 00H, 'A', 00H, 'G'
	DB	00H, 'E', 00H, 00H, 00H
	ORG $+2
$SG168082 DB	'D', 00H, '2', 00H, 'D', 00H, 'E', 00H, 'R', 00H, 'R', 00H
	DB	'_', 00H, 'I', 00H, 'N', 00H, 'C', 00H, 'O', 00H, 'M', 00H, 'P'
	DB	00H, 'A', 00H, 'T', 00H, 'I', 00H, 'B', 00H, 'L', 00H, 'E', 00H
	DB	'_', 00H, 'B', 00H, 'R', 00H, 'U', 00H, 'S', 00H, 'H', 00H, '_'
	DB	00H, 'T', 00H, 'Y', 00H, 'P', 00H, 'E', 00H, 'S', 00H, 00H, 00H
$SG167058 DB	'E', 00H, 'R', 00H, 'R', 00H, 'O', 00H, 'R', 00H, '_', 00H
	DB	'I', 00H, 'P', 00H, 'S', 00H, 'E', 00H, 'C', 00H, '_', 00H, 'I'
	DB	00H, 'K', 00H, 'E', 00H, '_', 00H, 'S', 00H, 'O', 00H, 'F', 00H
	DB	'T', 00H, '_', 00H, 'S', 00H, 'A', 00H, '_', 00H, 'T', 00H, 'O'
	DB	00H, 'R', 00H, 'N', 00H, '_', 00H, 'D', 00H, 'O', 00H, 'W', 00H
	DB	'N', 00H, 00H, 00H
$SG156819 DB	'O', 00H, 'S', 00H, 'S', 00H, '_', 00H, 'B', 00H, 'E', 00H
	DB	'R', 00H, 'D', 00H, 'E', 00H, 'R', 00H, '_', 00H, 'D', 00H, 'L'
	DB	00H, 'L', 00H, '_', 00H, 'N', 00H, 'O', 00H, 'T', 00H, '_', 00H
	DB	'L', 00H, 'I', 00H, 'N', 00H, 'K', 00H, 'E', 00H, 'D', 00H, 00H
	DB	00H
$SG169107 DB	'A', 00H, ' ', 00H, 'v', 00H, 'a', 00H, 'l', 00H, 'i', 00H
	DB	'd', 00H, ' ', 00H, 'd', 00H, 'i', 00H, 's', 00H, 'p', 00H, 'l'
	DB	00H, 'a', 00H, 'y', 00H, ' ', 00H, 's', 00H, 't', 00H, 'a', 00H
	DB	't', 00H, 'e', 00H, ' ', 00H, 'c', 00H, 'o', 00H, 'u', 00H, 'l'
	DB	00H, 'd', 00H, ' ', 00H, 'n', 00H, 'o', 00H, 't', 00H, ' ', 00H
	DB	'b', 00H, 'e', 00H, ' ', 00H, 'd', 00H, 'e', 00H, 't', 00H, 'e'
	DB	00H, 'r', 00H, 'm', 00H, 'i', 00H, 'n', 00H, 'e', 00H, 'd', 00H
	DB	'.', 00H, 00H, 00H
	ORG $+2
$SG158867 DB	'E', 00H, 'R', 00H, 'R', 00H, 'O', 00H, 'R', 00H, '_', 00H
	DB	'U', 00H, 'N', 00H, 'A', 00H, 'B', 00H, 'L', 00H, 'E', 00H, '_'
	DB	00H, 'T', 00H, 'O', 00H, '_', 00H, 'M', 00H, 'O', 00H, 'V', 00H
	DB	'E', 00H, '_', 00H, 'R', 00H, 'E', 00H, 'P', 00H, 'L', 00H, 'A'
	DB	00H, 'C', 00H, 'E', 00H, 'M', 00H, 'E', 00H, 'N', 00H, 'T', 00H
	DB	00H, 00H
	ORG $+2
$SG155796 DB	'M', 00H, 'K', 00H, '_', 00H, 'E', 00H, '_', 00H, 'N', 00H
	DB	'O', 00H, 'P', 00H, 'R', 00H, 'E', 00H, 'F', 00H, 'I', 00H, 'X'
	DB	00H, 00H, 00H
$SG159892 DB	'E', 00H, 'R', 00H, 'R', 00H, 'O', 00H, 'R', 00H, '_', 00H
	DB	'N', 00H, 'O', 00H, 'N', 00H, 'P', 00H, 'A', 00H, 'G', 00H, 'E'
	DB	00H, 'D', 00H, '_', 00H, 'S', 00H, 'Y', 00H, 'S', 00H, 'T', 00H
	DB	'E', 00H, 'M', 00H, '_', 00H, 'R', 00H, 'E', 00H, 'S', 00H, 'O'
	DB	00H, 'U', 00H, 'R', 00H, 'C', 00H, 'E', 00H, 'S', 00H, 00H, 00H
$SG168085 DB	'D', 00H, '2', 00H, 'D', 00H, 'E', 00H, 'R', 00H, 'R', 00H
	DB	'_', 00H, 'W', 00H, 'I', 00H, 'N', 00H, '3', 00H, '2', 00H, '_'
	DB	00H, 'E', 00H, 'R', 00H, 'R', 00H, 'O', 00H, 'R', 00H, 00H, 00H
	ORG $+2
$SG165013 DB	'E', 00H, 'R', 00H, 'R', 00H, 'O', 00H, 'R', 00H, '_', 00H
	DB	'P', 00H, 'A', 00H, 'T', 00H, 'C', 00H, 'H', 00H, '_', 00H, 'P'
	DB	00H, 'A', 00H, 'C', 00H, 'K', 00H, 'A', 00H, 'G', 00H, 'E', 00H
	DB	'_', 00H, 'U', 00H, 'N', 00H, 'S', 00H, 'U', 00H, 'P', 00H, 'P'
	DB	00H, 'O', 00H, 'R', 00H, 'T', 00H, 'E', 00H, 'D', 00H, 00H, 00H
$SG163989 DB	'S', 00H, 'E', 00H, 'C', 00H, '_', 00H, 'E', 00H, '_', 00H
	DB	'C', 00H, 'A', 00H, 'N', 00H, 'N', 00H, 'O', 00H, 'T', 00H, '_'
	DB	00H, 'I', 00H, 'N', 00H, 'S', 00H, 'T', 00H, 'A', 00H, 'L', 00H
	DB	'L', 00H, 00H, 00H
	ORG $+2
$SG160917 DB	'E', 00H, 'R', 00H, 'R', 00H, 'O', 00H, 'R', 00H, '_', 00H
	DB	'O', 00H, 'P', 00H, 'E', 00H, 'N', 00H, '_', 00H, 'F', 00H, 'I'
	DB	00H, 'L', 00H, 'E', 00H, 'S', 00H, 00H, 00H
	ORG $+2
$SG169110 DB	'T', 00H, 'h', 00H, 'e', 00H, ' ', 00H, 's', 00H, 'u', 00H
	DB	'p', 00H, 'p', 00H, 'l', 00H, 'i', 00H, 'e', 00H, 'd', 00H, ' '
	DB	00H, 'v', 00H, 'e', 00H, 'c', 00H, 't', 00H, 'o', 00H, 'r', 00H
	DB	' ', 00H, 'i', 00H, 's', 00H, ' ', 00H, 'z', 00H, 'e', 00H, 'r'
	DB	00H, 'o', 00H, '.', 00H, 00H, 00H
	ORG $+2
$SG161942 DB	'E', 00H, 'R', 00H, 'R', 00H, 'O', 00H, 'R', 00H, '_', 00H
	DB	'D', 00H, 'S', 00H, '_', 00H, 'S', 00H, 'T', 00H, 'R', 00H, 'O'
	DB	00H, 'N', 00H, 'G', 00H, '_', 00H, 'A', 00H, 'U', 00H, 'T', 00H
	DB	'H', 00H, '_', 00H, 'R', 00H, 'E', 00H, 'Q', 00H, 'U', 00H, 'I'
	DB	00H, 'R', 00H, 'E', 00H, 'D', 00H, 00H, 00H
$SG166038 DB	'E', 00H, 'R', 00H, 'R', 00H, 'O', 00H, 'R', 00H, '_', 00H
	DB	'D', 00H, 'S', 00H, '_', 00H, 'N', 00H, 'O', 00H, 'T', 00H, '_'
	DB	00H, 'S', 00H, 'U', 00H, 'P', 00H, 'P', 00H, 'O', 00H, 'R', 00H
	DB	'T', 00H, 'E', 00H, 'D', 00H, '_', 00H, 'S', 00H, 'O', 00H, 'R'
	DB	00H, 'T', 00H, '_', 00H, 'O', 00H, 'R', 00H, 'D', 00H, 'E', 00H
	DB	'R', 00H, 00H, 00H
$SG156822 DB	'O', 00H, 'S', 00H, 'S', 00H, '_', 00H, 'P', 00H, 'E', 00H
	DB	'R', 00H, '_', 00H, 'D', 00H, 'L', 00H, 'L', 00H, '_', 00H, 'N'
	DB	00H, 'O', 00H, 'T', 00H, '_', 00H, 'L', 00H, 'I', 00H, 'N', 00H
	DB	'K', 00H, 'E', 00H, 'D', 00H, 00H, 00H
	ORG $+2
$SG167063 DB	'E', 00H, 'R', 00H, 'R', 00H, 'O', 00H, 'R', 00H, '_', 00H
	DB	'I', 00H, 'P', 00H, 'S', 00H, 'E', 00H, 'C', 00H, '_', 00H, 'I'
	DB	00H, 'K', 00H, 'E', 00H, '_', 00H, 'I', 00H, 'N', 00H, 'V', 00H
	DB	'A', 00H, 'L', 00H, 'I', 00H, 'D', 00H, '_', 00H, 'C', 00H, 'O'
	DB	00H, 'O', 00H, 'K', 00H, 'I', 00H, 'E', 00H, 00H, 00H
	ORG $+2
$SG162967 DB	'D', 00H, 'N', 00H, 'S', 00H, '_', 00H, 'E', 00H, 'R', 00H
	DB	'R', 00H, 'O', 00H, 'R', 00H, '_', 00H, 'R', 00H, 'C', 00H, 'O'
	DB	00H, 'D', 00H, 'E', 00H, '_', 00H, 'F', 00H, 'O', 00H, 'R', 00H
	DB	'M', 00H, 'A', 00H, 'T', 00H, '_', 00H, 'E', 00H, 'R', 00H, 'R'
	DB	00H, 'O', 00H, 'R', 00H, 00H, 00H
	ORG $+2
$SG155799 DB	'C', 00H, 'O', 00H, '_', 00H, 'E', 00H, '_', 00H, 'N', 00H
	DB	'O', 00H, 'T', 00H, 'I', 00H, 'N', 00H, 'I', 00H, 'T', 00H, 'I'
	DB	00H, 'A', 00H, 'L', 00H, 'I', 00H, 'Z', 00H, 'E', 00H, 'D', 00H
	DB	00H, 00H
$SG168088 DB	'D', 00H, '2', 00H, 'D', 00H, 'E', 00H, 'R', 00H, 'R', 00H
	DB	'_', 00H, 'T', 00H, 'A', 00H, 'R', 00H, 'G', 00H, 'E', 00H, 'T'
	DB	00H, '_', 00H, 'N', 00H, 'O', 00H, 'T', 00H, '_', 00H, 'G', 00H
	DB	'D', 00H, 'I', 00H, '_', 00H, 'C', 00H, 'O', 00H, 'M', 00H, 'P'
	DB	00H, 'A', 00H, 'T', 00H, 'I', 00H, 'B', 00H, 'L', 00H, 'E', 00H
	DB	00H, 00H
	ORG $+2
$SG163992 DB	'S', 00H, 'E', 00H, 'C', 00H, '_', 00H, 'E', 00H, '_', 00H
	DB	'I', 00H, 'N', 00H, 'V', 00H, 'A', 00H, 'L', 00H, 'I', 00H, 'D'
	DB	00H, '_', 00H, 'T', 00H, 'O', 00H, 'K', 00H, 'E', 00H, 'N', 00H
	DB	00H, 00H
$SG157848 DB	'E', 00H, 'R', 00H, 'R', 00H, 'O', 00H, 'R', 00H, '_', 00H
	DB	'S', 00H, 'A', 00H, 'M', 00H, 'E', 00H, '_', 00H, 'D', 00H, 'R'
	DB	00H, 'I', 00H, 'V', 00H, 'E', 00H, 00H, 00H
	ORG $+2
$SG158872 DB	'E', 00H, 'R', 00H, 'R', 00H, 'O', 00H, 'R', 00H, '_', 00H
	DB	'U', 00H, 'N', 00H, 'A', 00H, 'B', 00H, 'L', 00H, 'E', 00H, '_'
	DB	00H, 'T', 00H, 'O', 00H, '_', 00H, 'M', 00H, 'O', 00H, 'V', 00H
	DB	'E', 00H, '_', 00H, 'R', 00H, 'E', 00H, 'P', 00H, 'L', 00H, 'A'
	DB	00H, 'C', 00H, 'E', 00H, 'M', 00H, 'E', 00H, 'N', 00H, 'T', 00H
	DB	'_', 00H, '2', 00H, 00H, 00H
	ORG $+2
$SG169113 DB	'A', 00H, 'n', 00H, ' ', 00H, 'i', 00H, 'n', 00H, 't', 00H
	DB	'e', 00H, 'r', 00H, 'n', 00H, 'a', 00H, 'l', 00H, ' ', 00H, 'e'
	DB	00H, 'r', 00H, 'r', 00H, 'o', 00H, 'r', 00H, ' ', 00H, '(', 00H
	DB	'D', 00H, '2', 00H, 'D', 00H, ' ', 00H, 'b', 00H, 'u', 00H, 'g'
	DB	00H, ')', 00H, ' ', 00H, 'o', 00H, 'c', 00H, 'c', 00H, 'u', 00H
	DB	'r', 00H, 'r', 00H, 'e', 00H, 'd', 00H, '.', 00H, ' ', 00H, 'O'
	DB	00H, 'n', 00H, ' ', 00H, 'c', 00H, 'h', 00H, 'e', 00H, 'c', 00H
	DB	'k', 00H, 'e', 00H, 'd', 00H, ' ', 00H, 'b', 00H, 'u', 00H, 'i'
	DB	00H, 'l', 00H, 'd', 00H, 's', 00H, ',', 00H, ' ', 00H, 'w', 00H
	DB	'e', 00H, ' ', 00H, 'w', 00H, 'o', 00H, 'u', 00H, 'l', 00H, 'd'
	DB	00H, ' ', 00H, 'a', 00H, 's', 00H, 's', 00H, 'e', 00H, 'r', 00H
	DB	't', 00H, '.', 00H, 00H, 00H
$SG159897 DB	'E', 00H, 'R', 00H, 'R', 00H, 'O', 00H, 'R', 00H, '_', 00H
	DB	'P', 00H, 'A', 00H, 'G', 00H, 'E', 00H, 'D', 00H, '_', 00H, 'S'
	DB	00H, 'Y', 00H, 'S', 00H, 'T', 00H, 'E', 00H, 'M', 00H, '_', 00H
	DB	'R', 00H, 'E', 00H, 'S', 00H, 'O', 00H, 'U', 00H, 'R', 00H, 'C'
	DB	00H, 'E', 00H, 'S', 00H, 00H, 00H
	ORG $+2
$SG156825 DB	'O', 00H, 'S', 00H, 'S', 00H, '_', 00H, 'O', 00H, 'P', 00H
	DB	'E', 00H, 'N', 00H, '_', 00H, 'T', 00H, 'Y', 00H, 'P', 00H, 'E'
	DB	00H, '_', 00H, 'E', 00H, 'R', 00H, 'R', 00H, 'O', 00H, 'R', 00H
	DB	00H, 00H
$SG165018 DB	'E', 00H, 'R', 00H, 'R', 00H, 'O', 00H, 'R', 00H, '_', 00H
	DB	'P', 00H, 'R', 00H, 'O', 00H, 'D', 00H, 'U', 00H, 'C', 00H, 'T'
	DB	00H, '_', 00H, 'V', 00H, 'E', 00H, 'R', 00H, 'S', 00H, 'I', 00H
	DB	'O', 00H, 'N', 00H, 00H, 00H
$SG160922 DB	'E', 00H, 'R', 00H, 'R', 00H, 'O', 00H, 'R', 00H, '_', 00H
	DB	'A', 00H, 'C', 00H, 'T', 00H, 'I', 00H, 'V', 00H, 'E', 00H, '_'
	DB	00H, 'C', 00H, 'O', 00H, 'N', 00H, 'N', 00H, 'E', 00H, 'C', 00H
	DB	'T', 00H, 'I', 00H, 'O', 00H, 'N', 00H, 'S', 00H, 00H, 00H
	ORG $+2
$SG155802 DB	'C', 00H, 'O', 00H, '_', 00H, 'E', 00H, '_', 00H, 'A', 00H
	DB	'L', 00H, 'R', 00H, 'E', 00H, 'A', 00H, 'D', 00H, 'Y', 00H, 'I'
	DB	00H, 'N', 00H, 'I', 00H, 'T', 00H, 'I', 00H, 'A', 00H, 'L', 00H
	DB	'I', 00H, 'Z', 00H, 'E', 00H, 'D', 00H, 00H, 00H
$SG168091 DB	'D', 00H, '2', 00H, 'D', 00H, 'E', 00H, 'R', 00H, 'R', 00H
	DB	'_', 00H, 'T', 00H, 'E', 00H, 'X', 00H, 'T', 00H, '_', 00H, 'E'
	DB	00H, 'F', 00H, 'F', 00H, 'E', 00H, 'C', 00H, 'T', 00H, '_', 00H
	DB	'I', 00H, 'S', 00H, '_', 00H, 'W', 00H, 'R', 00H, 'O', 00H, 'N'
	DB	00H, 'G', 00H, '_', 00H, 'T', 00H, 'Y', 00H, 'P', 00H, 'E', 00H
	DB	00H, 00H
	ORG $+2
$SG166043 DB	'E', 00H, 'R', 00H, 'R', 00H, 'O', 00H, 'R', 00H, '_', 00H
	DB	'D', 00H, 'S', 00H, '_', 00H, 'N', 00H, 'A', 00H, 'M', 00H, 'E'
	DB	00H, '_', 00H, 'N', 00H, 'O', 00H, 'T', 00H, '_', 00H, 'U', 00H
	DB	'N', 00H, 'I', 00H, 'Q', 00H, 'U', 00H, 'E', 00H, 00H, 00H
	ORG $+2
$SG163995 DB	'S', 00H, 'E', 00H, 'C', 00H, '_', 00H, 'E', 00H, '_', 00H
	DB	'C', 00H, 'A', 00H, 'N', 00H, 'N', 00H, 'O', 00H, 'T', 00H, '_'
	DB	00H, 'P', 00H, 'A', 00H, 'C', 00H, 'K', 00H, 00H, 00H
$SG161947 DB	'E', 00H, 'R', 00H, 'R', 00H, 'O', 00H, 'R', 00H, '_', 00H
	DB	'D', 00H, 'S', 00H, '_', 00H, 'I', 00H, 'N', 00H, 'A', 00H, 'P'
	DB	00H, 'P', 00H, 'R', 00H, 'O', 00H, 'P', 00H, 'R', 00H, 'I', 00H
	DB	'A', 00H, 'T', 00H, 'E', 00H, '_', 00H, 'A', 00H, 'U', 00H, 'T'
	DB	00H, 'H', 00H, 00H, 00H
$SG167068 DB	'E', 00H, 'R', 00H, 'R', 00H, 'O', 00H, 'R', 00H, '_', 00H
	DB	'I', 00H, 'P', 00H, 'S', 00H, 'E', 00H, 'C', 00H, '_', 00H, 'I'
	DB	00H, 'K', 00H, 'E', 00H, '_', 00H, 'N', 00H, 'O', 00H, '_', 00H
	DB	'P', 00H, 'E', 00H, 'E', 00H, 'R', 00H, '_', 00H, 'C', 00H, 'E'
	DB	00H, 'R', 00H, 'T', 00H, 00H, 00H
	ORG $+2
$SG169116 DB	'T', 00H, 'h', 00H, 'e', 00H, ' ', 00H, 'd', 00H, 'i', 00H
	DB	's', 00H, 'p', 00H, 'l', 00H, 'a', 00H, 'y', 00H, ' ', 00H, 'f'
	DB	00H, 'o', 00H, 'r', 00H, 'm', 00H, 'a', 00H, 't', 00H, ' ', 00H
	DB	'w', 00H, 'e', 00H, ' ', 00H, 'n', 00H, 'e', 00H, 'e', 00H, 'd'
	DB	00H, ' ', 00H, 't', 00H, 'o', 00H, ' ', 00H, 'r', 00H, 'e', 00H
	DB	'n', 00H, 'd', 00H, 'e', 00H, 'r', 00H, ' ', 00H, 'i', 00H, 's'
	DB	00H, ' ', 00H, 'n', 00H, 'o', 00H, 't', 00H, ' ', 00H, 's', 00H
	DB	'u', 00H, 'p', 00H, 'p', 00H, 'o', 00H, 'r', 00H, 't', 00H, 'e'
	DB	00H, 'd', 00H, ' ', 00H, 'b', 00H, 'y', 00H, ' ', 00H, 't', 00H
	DB	'h', 00H, 'e', 00H, ' ', 00H, 'h', 00H, 'a', 00H, 'r', 00H, 'd'
	DB	00H, 'w', 00H, 'a', 00H, 'r', 00H, 'e', 00H, ' ', 00H, 'd', 00H
	DB	'e', 00H, 'v', 00H, 'i', 00H, 'c', 00H, 'e', 00H, '.', 00H, 00H
	DB	00H
$SG162972 DB	'D', 00H, 'N', 00H, 'S', 00H, '_', 00H, 'E', 00H, 'R', 00H
	DB	'R', 00H, 'O', 00H, 'R', 00H, '_', 00H, 'R', 00H, 'C', 00H, 'O'
	DB	00H, 'D', 00H, 'E', 00H, '_', 00H, 'S', 00H, 'E', 00H, 'R', 00H
	DB	'V', 00H, 'E', 00H, 'R', 00H, '_', 00H, 'F', 00H, 'A', 00H, 'I'
	DB	00H, 'L', 00H, 'U', 00H, 'R', 00H, 'E', 00H, 00H, 00H
	ORG $+2
$SG156828 DB	'O', 00H, 'S', 00H, 'S', 00H, '_', 00H, 'M', 00H, 'U', 00H
	DB	'T', 00H, 'E', 00H, 'X', 00H, '_', 00H, 'N', 00H, 'O', 00H, 'T'
	DB	00H, '_', 00H, 'C', 00H, 'R', 00H, 'E', 00H, 'A', 00H, 'T', 00H
	DB	'E', 00H, 'D', 00H, 00H, 00H
$SG158877 DB	'E', 00H, 'R', 00H, 'R', 00H, 'O', 00H, 'R', 00H, '_', 00H
	DB	'J', 00H, 'O', 00H, 'U', 00H, 'R', 00H, 'N', 00H, 'A', 00H, 'L'
	DB	00H, '_', 00H, 'D', 00H, 'E', 00H, 'L', 00H, 'E', 00H, 'T', 00H
	DB	'E', 00H, '_', 00H, 'I', 00H, 'N', 00H, '_', 00H, 'P', 00H, 'R'
	DB	00H, 'O', 00H, 'G', 00H, 'R', 00H, 'E', 00H, 'S', 00H, 'S', 00H
	DB	00H, 00H
	ORG $+2
$SG157853 DB	'E', 00H, 'R', 00H, 'R', 00H, 'O', 00H, 'R', 00H, '_', 00H
	DB	'D', 00H, 'I', 00H, 'R', 00H, '_', 00H, 'N', 00H, 'O', 00H, 'T'
	DB	00H, '_', 00H, 'R', 00H, 'O', 00H, 'O', 00H, 'T', 00H, 00H, 00H
	ORG $+2
$SG155805 DB	'C', 00H, 'O', 00H, '_', 00H, 'E', 00H, '_', 00H, 'C', 00H
	DB	'A', 00H, 'N', 00H, 'T', 00H, 'D', 00H, 'E', 00H, 'T', 00H, 'E'
	DB	00H, 'R', 00H, 'M', 00H, 'I', 00H, 'N', 00H, 'E', 00H, 'C', 00H
	DB	'L', 00H, 'A', 00H, 'S', 00H, 'S', 00H, 00H, 00H
$SG156831 DB	'O', 00H, 'S', 00H, 'S', 00H, '_', 00H, 'C', 00H, 'A', 00H
	DB	'N', 00H, 'T', 00H, '_', 00H, 'C', 00H, 'L', 00H, 'O', 00H, 'S'
	DB	00H, 'E', 00H, '_', 00H, 'T', 00H, 'R', 00H, 'A', 00H, 'C', 00H
	DB	'E', 00H, '_', 00H, 'F', 00H, 'I', 00H, 'L', 00H, 'E', 00H, 00H
	DB	00H
$SG168094 DB	'D', 00H, '2', 00H, 'D', 00H, 'E', 00H, 'R', 00H, 'R', 00H
	DB	'_', 00H, 'T', 00H, 'E', 00H, 'X', 00H, 'T', 00H, '_', 00H, 'R'
	DB	00H, 'E', 00H, 'N', 00H, 'D', 00H, 'E', 00H, 'R', 00H, 'E', 00H
	DB	'R', 00H, '_', 00H, 'N', 00H, 'O', 00H, 'T', 00H, '_', 00H, 'R'
	DB	00H, 'E', 00H, 'L', 00H, 'E', 00H, 'A', 00H, 'S', 00H, 'E', 00H
	DB	'D', 00H, 00H, 00H
$SG163998 DB	'S', 00H, 'E', 00H, 'C', 00H, '_', 00H, 'E', 00H, '_', 00H
	DB	'Q', 00H, 'O', 00H, 'P', 00H, '_', 00H, 'N', 00H, 'O', 00H, 'T'
	DB	00H, '_', 00H, 'S', 00H, 'U', 00H, 'P', 00H, 'P', 00H, 'O', 00H
	DB	'R', 00H, 'T', 00H, 'E', 00H, 'D', 00H, 00H, 00H
$SG159902 DB	'E', 00H, 'R', 00H, 'R', 00H, 'O', 00H, 'R', 00H, '_', 00H
	DB	'W', 00H, 'O', 00H, 'R', 00H, 'K', 00H, 'I', 00H, 'N', 00H, 'G'
	DB	00H, '_', 00H, 'S', 00H, 'E', 00H, 'T', 00H, '_', 00H, 'Q', 00H
	DB	'U', 00H, 'O', 00H, 'T', 00H, 'A', 00H, 00H, 00H
$SG161952 DB	'E', 00H, 'R', 00H, 'R', 00H, 'O', 00H, 'R', 00H, '_', 00H
	DB	'D', 00H, 'S', 00H, '_', 00H, 'A', 00H, 'U', 00H, 'T', 00H, 'H'
	DB	00H, '_', 00H, 'U', 00H, 'N', 00H, 'K', 00H, 'N', 00H, 'O', 00H
	DB	'W', 00H, 'N', 00H, 00H, 00H
$SG169119 DB	'A', 00H, ' ', 00H, 'c', 00H, 'a', 00H, 'l', 00H, 'l', 00H
	DB	' ', 00H, 't', 00H, 'o', 00H, ' ', 00H, 't', 00H, 'h', 00H, 'i'
	DB	00H, 's', 00H, ' ', 00H, 'm', 00H, 'e', 00H, 't', 00H, 'h', 00H
	DB	'o', 00H, 'd', 00H, ' ', 00H, 'i', 00H, 's', 00H, ' ', 00H, 'i'
	DB	00H, 'n', 00H, 'v', 00H, 'a', 00H, 'l', 00H, 'i', 00H, 'd', 00H
	DB	'.', 00H, 00H, 00H
$SG165023 DB	'E', 00H, 'R', 00H, 'R', 00H, 'O', 00H, 'R', 00H, '_', 00H
	DB	'I', 00H, 'N', 00H, 'V', 00H, 'A', 00H, 'L', 00H, 'I', 00H, 'D'
	DB	00H, '_', 00H, 'C', 00H, 'O', 00H, 'M', 00H, 'M', 00H, 'A', 00H
	DB	'N', 00H, 'D', 00H, '_', 00H, 'L', 00H, 'I', 00H, 'N', 00H, 'E'
	DB	00H, 00H, 00H
	ORG $+2
$SG160927 DB	'E', 00H, 'R', 00H, 'R', 00H, 'O', 00H, 'R', 00H, '_', 00H
	DB	'D', 00H, 'E', 00H, 'V', 00H, 'I', 00H, 'C', 00H, 'E', 00H, '_'
	DB	00H, 'I', 00H, 'N', 00H, '_', 00H, 'U', 00H, 'S', 00H, 'E', 00H
	DB	00H, 00H
$SG155808 DB	'C', 00H, 'O', 00H, '_', 00H, 'E', 00H, '_', 00H, 'C', 00H
	DB	'L', 00H, 'A', 00H, 'S', 00H, 'S', 00H, 'S', 00H, 'T', 00H, 'R'
	DB	00H, 'I', 00H, 'N', 00H, 'G', 00H, 00H, 00H
	ORG $+2
$SG166048 DB	'E', 00H, 'R', 00H, 'R', 00H, 'O', 00H, 'R', 00H, '_', 00H
	DB	'D', 00H, 'S', 00H, '_', 00H, 'M', 00H, 'A', 00H, 'C', 00H, 'H'
	DB	00H, 'I', 00H, 'N', 00H, 'E', 00H, '_', 00H, 'A', 00H, 'C', 00H
	DB	'C', 00H, 'O', 00H, 'U', 00H, 'N', 00H, 'T', 00H, '_', 00H, 'C'
	DB	00H, 'R', 00H, 'E', 00H, 'A', 00H, 'T', 00H, 'E', 00H, 'D', 00H
	DB	'_', 00H, 'P', 00H, 'R', 00H, 'E', 00H, 'N', 00H, 'T', 00H, '4'
	DB	00H, 00H, 00H
$SG168097 DB	'D', 00H, 'W', 00H, 'R', 00H, 'I', 00H, 'T', 00H, 'E', 00H
	DB	'_', 00H, 'E', 00H, '_', 00H, 'F', 00H, 'I', 00H, 'L', 00H, 'E'
	DB	00H, 'F', 00H, 'O', 00H, 'R', 00H, 'M', 00H, 'A', 00H, 'T', 00H
	DB	00H, 00H
$SG167073 DB	'E', 00H, 'R', 00H, 'R', 00H, 'O', 00H, 'R', 00H, '_', 00H
	DB	'I', 00H, 'P', 00H, 'S', 00H, 'E', 00H, 'C', 00H, '_', 00H, 'I'
	DB	00H, 'K', 00H, 'E', 00H, '_', 00H, 'P', 00H, 'E', 00H, 'E', 00H
	DB	'R', 00H, '_', 00H, 'C', 00H, 'R', 00H, 'L', 00H, '_', 00H, 'F'
	DB	00H, 'A', 00H, 'I', 00H, 'L', 00H, 'E', 00H, 'D', 00H, 00H, 00H
$SG164001 DB	'S', 00H, 'E', 00H, 'C', 00H, '_', 00H, 'E', 00H, '_', 00H
	DB	'N', 00H, 'O', 00H, '_', 00H, 'I', 00H, 'M', 00H, 'P', 00H, 'E'
	DB	00H, 'R', 00H, 'S', 00H, 'O', 00H, 'N', 00H, 'A', 00H, 'T', 00H
	DB	'I', 00H, 'O', 00H, 'N', 00H, 00H, 00H
	ORG $+2
$SG162977 DB	'D', 00H, 'N', 00H, 'S', 00H, '_', 00H, 'E', 00H, 'R', 00H
	DB	'R', 00H, 'O', 00H, 'R', 00H, '_', 00H, 'R', 00H, 'C', 00H, 'O'
	DB	00H, 'D', 00H, 'E', 00H, '_', 00H, 'N', 00H, 'A', 00H, 'M', 00H
	DB	'E', 00H, '_', 00H, 'E', 00H, 'R', 00H, 'R', 00H, 'O', 00H, 'R'
	DB	00H, 00H, 00H
	ORG $+2
$SG169122 DB	'N', 00H, 'o', 00H, ' ', 00H, 'H', 00H, 'W', 00H, ' ', 00H
	DB	'r', 00H, 'e', 00H, 'n', 00H, 'd', 00H, 'e', 00H, 'r', 00H, 'i'
	DB	00H, 'n', 00H, 'g', 00H, ' ', 00H, 'd', 00H, 'e', 00H, 'v', 00H
	DB	'i', 00H, 'c', 00H, 'e', 00H, ' ', 00H, 'i', 00H, 's', 00H, ' '
	DB	00H, 'a', 00H, 'v', 00H, 'a', 00H, 'i', 00H, 'l', 00H, 'a', 00H
	DB	'b', 00H, 'l', 00H, 'e', 00H, ' ', 00H, 'f', 00H, 'o', 00H, 'r'
	DB	00H, ' ', 00H, 't', 00H, 'h', 00H, 'i', 00H, 's', 00H, ' ', 00H
	DB	'o', 00H, 'p', 00H, 'e', 00H, 'r', 00H, 'a', 00H, 't', 00H, 'i'
	DB	00H, 'o', 00H, 'n', 00H, '.', 00H, 00H, 00H
$SG158882 DB	'E', 00H, 'R', 00H, 'R', 00H, 'O', 00H, 'R', 00H, '_', 00H
	DB	'J', 00H, 'O', 00H, 'U', 00H, 'R', 00H, 'N', 00H, 'A', 00H, 'L'
	DB	00H, '_', 00H, 'N', 00H, 'O', 00H, 'T', 00H, '_', 00H, 'A', 00H
	DB	'C', 00H, 'T', 00H, 'I', 00H, 'V', 00H, 'E', 00H, 00H, 00H
	ORG $+2
$SG157858 DB	'E', 00H, 'R', 00H, 'R', 00H, 'O', 00H, 'R', 00H, '_', 00H
	DB	'D', 00H, 'I', 00H, 'R', 00H, '_', 00H, 'N', 00H, 'O', 00H, 'T'
	DB	00H, '_', 00H, 'E', 00H, 'M', 00H, 'P', 00H, 'T', 00H, 'Y', 00H
	DB	00H, 00H
$SG156834 DB	'C', 00H, 'E', 00H, 'R', 00H, 'T', 00H, 'S', 00H, 'R', 00H
	DB	'V', 00H, '_', 00H, 'E', 00H, '_', 00H, 'B', 00H, 'A', 00H, 'D'
	DB	00H, '_', 00H, 'R', 00H, 'E', 00H, 'Q', 00H, 'U', 00H, 'E', 00H
	DB	'S', 00H, 'T', 00H, 'S', 00H, 'U', 00H, 'B', 00H, 'J', 00H, 'E'
	DB	00H, 'C', 00H, 'T', 00H, 00H, 00H
	ORG $+2
$SG159907 DB	'E', 00H, 'R', 00H, 'R', 00H, 'O', 00H, 'R', 00H, '_', 00H
	DB	'P', 00H, 'A', 00H, 'G', 00H, 'E', 00H, 'F', 00H, 'I', 00H, 'L'
	DB	00H, 'E', 00H, '_', 00H, 'Q', 00H, 'U', 00H, 'O', 00H, 'T', 00H
	DB	'A', 00H, 00H, 00H
	ORG $+2
$SG155811 DB	'C', 00H, 'O', 00H, '_', 00H, 'E', 00H, '_', 00H, 'I', 00H
	DB	'I', 00H, 'D', 00H, 'S', 00H, 'T', 00H, 'R', 00H, 'I', 00H, 'N'
	DB	00H, 'G', 00H, 00H, 00H
	ORG $+2
$SG168100 DB	'D', 00H, 'W', 00H, 'R', 00H, 'I', 00H, 'T', 00H, 'E', 00H
	DB	'_', 00H, 'E', 00H, '_', 00H, 'U', 00H, 'N', 00H, 'E', 00H, 'X'
	DB	00H, 'P', 00H, 'E', 00H, 'C', 00H, 'T', 00H, 'E', 00H, 'D', 00H
	DB	00H, 00H
$SG166053 DB	'E', 00H, 'R', 00H, 'R', 00H, 'O', 00H, 'R', 00H, '_', 00H
	DB	'D', 00H, 'S', 00H, '_', 00H, 'O', 00H, 'U', 00H, 'T', 00H, '_'
	DB	00H, 'O', 00H, 'F', 00H, '_', 00H, 'V', 00H, 'E', 00H, 'R', 00H
	DB	'S', 00H, 'I', 00H, 'O', 00H, 'N', 00H, '_', 00H, 'S', 00H, 'T'
	DB	00H, 'O', 00H, 'R', 00H, 'E', 00H, 00H, 00H
$SG165028 DB	'E', 00H, 'R', 00H, 'R', 00H, 'O', 00H, 'R', 00H, '_', 00H
	DB	'I', 00H, 'N', 00H, 'S', 00H, 'T', 00H, 'A', 00H, 'L', 00H, 'L'
	DB	00H, '_', 00H, 'R', 00H, 'E', 00H, 'M', 00H, 'O', 00H, 'T', 00H
	DB	'E', 00H, '_', 00H, 'D', 00H, 'I', 00H, 'S', 00H, 'A', 00H, 'L'
	DB	00H, 'L', 00H, 'O', 00H, 'W', 00H, 'E', 00H, 'D', 00H, 00H, 00H
$SG164004 DB	'S', 00H, 'E', 00H, 'C', 00H, '_', 00H, 'E', 00H, '_', 00H
	DB	'L', 00H, 'O', 00H, 'G', 00H, 'O', 00H, 'N', 00H, '_', 00H, 'D'
	DB	00H, 'E', 00H, 'N', 00H, 'I', 00H, 'E', 00H, 'D', 00H, 00H, 00H
	ORG $+2
$SG160932 DB	'E', 00H, 'R', 00H, 'R', 00H, 'O', 00H, 'R', 00H, '_', 00H
	DB	'U', 00H, 'N', 00H, 'K', 00H, 'N', 00H, 'O', 00H, 'W', 00H, 'N'
	DB	00H, '_', 00H, 'P', 00H, 'R', 00H, 'I', 00H, 'N', 00H, 'T', 00H
	DB	'_', 00H, 'M', 00H, 'O', 00H, 'N', 00H, 'I', 00H, 'T', 00H, 'O'
	DB	00H, 'R', 00H, 00H, 00H
$SG169125 DB	'h', 00H, 'e', 00H, 'r', 00H, 'e', 00H, ' ', 00H, 'h', 00H
	DB	'a', 00H, 's', 00H, ' ', 00H, 'b', 00H, 'e', 00H, 'e', 00H, 'n'
	DB	00H, ' ', 00H, 'a', 00H, ' ', 00H, 'p', 00H, 'r', 00H, 'e', 00H
	DB	's', 00H, 'e', 00H, 'n', 00H, 't', 00H, 'a', 00H, 't', 00H, 'i'
	DB	00H, 'o', 00H, 'n', 00H, ' ', 00H, 'e', 00H, 'r', 00H, 'r', 00H
	DB	'o', 00H, 'r', 00H, ' ', 00H, 't', 00H, 'h', 00H, 'a', 00H, 't'
	DB	00H, ' ', 00H, 'm', 00H, 'a', 00H, 'y', 00H, ' ', 00H, 'b', 00H
	DB	'e', 00H, ' ', 00H, 'r', 00H, 'e', 00H, 'c', 00H, 'o', 00H, 'v'
	DB	00H, 'e', 00H, 'r', 00H, 'a', 00H, 'b', 00H, 'l', 00H, 'e', 00H
	DB	'.', 00H, ' ', 00H, 'T', 00H, 'h', 00H, 'e', 00H, ' ', 00H, 'c'
	DB	00H, 'a', 00H, 'l', 00H, 'l', 00H, 'e', 00H, 'r', 00H, ' ', 00H
	DB	'n', 00H, 'e', 00H, 'e', 00H, 'd', 00H, 's', 00H, ' ', 00H, 't'
	DB	00H, 'o', 00H, ' ', 00H, 'r', 00H, 'e', 00H, 'c', 00H, 'r', 00H
	DB	'e', 00H, 'a', 00H, 't', 00H, 'e', 00H, ',', 00H, ' ', 00H, 'r'
	DB	00H, 'e', 00H, 'r', 00H, 'e', 00H, 'n', 00H, 'd', 00H, 'e', 00H
	DB	'r', 00H, ' ', 00H, 't', 00H, 'h', 00H, 'e', 00H, ' ', 00H, 'e'
	DB	00H, 'n', 00H, 't', 00H, 'i', 00H, 'r', 00H, 'e', 00H, ' ', 00H
	DB	'f', 00H, 'r', 00H, 'a', 00H, 'm', 00H, 'e', 00H, ',', 00H, ' '
	DB	00H, 'a', 00H, 'n', 00H, 'd', 00H, ' ', 00H, 'r', 00H, 'e', 00H
	DB	'a', 00H, 't', 00H, 't', 00H, 'e', 00H, 'm', 00H, 'p', 00H, 't'
	DB	00H, ' ', 00H, 'p', 00H, 'r', 00H, 'e', 00H, 's', 00H, 'e', 00H
	DB	'n', 00H, 't', 00H, '.', 00H, 00H, 00H
$SG161957 DB	'E', 00H, 'R', 00H, 'R', 00H, 'O', 00H, 'R', 00H, '_', 00H
	DB	'D', 00H, 'S', 00H, '_', 00H, 'R', 00H, 'E', 00H, 'F', 00H, 'E'
	DB	00H, 'R', 00H, 'R', 00H, 'A', 00H, 'L', 00H, 00H, 00H
$SG156837 DB	'C', 00H, 'E', 00H, 'R', 00H, 'T', 00H, 'S', 00H, 'R', 00H
	DB	'V', 00H, '_', 00H, 'E', 00H, '_', 00H, 'N', 00H, 'O', 00H, '_'
	DB	00H, 'R', 00H, 'E', 00H, 'Q', 00H, 'U', 00H, 'E', 00H, 'S', 00H
	DB	'T', 00H, 00H, 00H
	ORG $+2
$SG167078 DB	'E', 00H, 'R', 00H, 'R', 00H, 'O', 00H, 'R', 00H, '_', 00H
	DB	'I', 00H, 'P', 00H, 'S', 00H, 'E', 00H, 'C', 00H, '_', 00H, 'I'
	DB	00H, 'K', 00H, 'E', 00H, '_', 00H, 'P', 00H, 'O', 00H, 'L', 00H
	DB	'I', 00H, 'C', 00H, 'Y', 00H, '_', 00H, 'C', 00H, 'H', 00H, 'A'
	DB	00H, 'N', 00H, 'G', 00H, 'E', 00H, 00H, 00H
$SG155814 DB	'C', 00H, 'O', 00H, '_', 00H, 'E', 00H, '_', 00H, 'A', 00H
	DB	'P', 00H, 'P', 00H, 'N', 00H, 'O', 00H, 'T', 00H, 'F', 00H, 'O'
	DB	00H, 'U', 00H, 'N', 00H, 'D', 00H, 00H, 00H
	ORG $+2
$SG162982 DB	'D', 00H, 'N', 00H, 'S', 00H, '_', 00H, 'E', 00H, 'R', 00H
	DB	'R', 00H, 'O', 00H, 'R', 00H, '_', 00H, 'R', 00H, 'C', 00H, 'O'
	DB	00H, 'D', 00H, 'E', 00H, '_', 00H, 'N', 00H, 'O', 00H, 'T', 00H
	DB	'_', 00H, 'I', 00H, 'M', 00H, 'P', 00H, 'L', 00H, 'E', 00H, 'M'
	DB	00H, 'E', 00H, 'N', 00H, 'T', 00H, 'E', 00H, 'D', 00H, 00H, 00H
$SG168103 DB	'D', 00H, 'W', 00H, 'R', 00H, 'I', 00H, 'T', 00H, 'E', 00H
	DB	'_', 00H, 'E', 00H, '_', 00H, 'N', 00H, 'O', 00H, 'F', 00H, 'O'
	DB	00H, 'N', 00H, 'T', 00H, 00H, 00H
$SG164007 DB	'S', 00H, 'E', 00H, 'C', 00H, '_', 00H, 'E', 00H, '_', 00H
	DB	'U', 00H, 'N', 00H, 'K', 00H, 'N', 00H, 'O', 00H, 'W', 00H, 'N'
	DB	00H, '_', 00H, 'C', 00H, 'R', 00H, 'E', 00H, 'D', 00H, 'E', 00H
	DB	'N', 00H, 'T', 00H, 'I', 00H, 'A', 00H, 'L', 00H, 'S', 00H, 00H
	DB	00H
$SG158887 DB	'E', 00H, 'R', 00H, 'R', 00H, 'O', 00H, 'R', 00H, '_', 00H
	DB	'P', 00H, 'O', 00H, 'T', 00H, 'E', 00H, 'N', 00H, 'T', 00H, 'I'
	DB	00H, 'A', 00H, 'L', 00H, '_', 00H, 'F', 00H, 'I', 00H, 'L', 00H
	DB	'E', 00H, '_', 00H, 'F', 00H, 'O', 00H, 'U', 00H, 'N', 00H, 'D'
	DB	00H, 00H, 00H
	ORG $+2
$SG157863 DB	'E', 00H, 'R', 00H, 'R', 00H, 'O', 00H, 'R', 00H, '_', 00H
	DB	'I', 00H, 'S', 00H, '_', 00H, 'S', 00H, 'U', 00H, 'B', 00H, 'S'
	DB	00H, 'T', 00H, '_', 00H, 'P', 00H, 'A', 00H, 'T', 00H, 'H', 00H
	DB	00H, 00H
$SG155817 DB	'C', 00H, 'O', 00H, '_', 00H, 'E', 00H, '_', 00H, 'A', 00H
	DB	'P', 00H, 'P', 00H, 'S', 00H, 'I', 00H, 'N', 00H, 'G', 00H, 'L'
	DB	00H, 'E', 00H, 'U', 00H, 'S', 00H, 'E', 00H, 00H, 00H
$SG169128 DB	'S', 00H, 'h', 00H, 'a', 00H, 'd', 00H, 'e', 00H, 'r', 00H
	DB	' ', 00H, 'c', 00H, 'o', 00H, 'n', 00H, 's', 00H, 't', 00H, 'r'
	DB	00H, 'u', 00H, 'c', 00H, 't', 00H, 'i', 00H, 'o', 00H, 'n', 00H
	DB	' ', 00H, 'f', 00H, 'a', 00H, 'i', 00H, 'l', 00H, 'e', 00H, 'd'
	DB	00H, ' ', 00H, 'b', 00H, 'e', 00H, 'c', 00H, 'a', 00H, 'u', 00H
	DB	's', 00H, 'e', 00H, ' ', 00H, 'i', 00H, 't', 00H, ' ', 00H, 'w'
	DB	00H, 'a', 00H, 's', 00H, ' ', 00H, 't', 00H, 'o', 00H, 'o', 00H
	DB	' ', 00H, 'c', 00H, 'o', 00H, 'm', 00H, 'p', 00H, 'l', 00H, 'e'
	DB	00H, 'x', 00H, '.', 00H, 00H, 00H
	ORG $+2
$SG159912 DB	'E', 00H, 'R', 00H, 'R', 00H, 'O', 00H, 'R', 00H, '_', 00H
	DB	'C', 00H, 'O', 00H, 'M', 00H, 'M', 00H, 'I', 00H, 'T', 00H, 'M'
	DB	00H, 'E', 00H, 'N', 00H, 'T', 00H, '_', 00H, 'L', 00H, 'I', 00H
	DB	'M', 00H, 'I', 00H, 'T', 00H, 00H, 00H
	ORG $+2
$SG156840 DB	'C', 00H, 'E', 00H, 'R', 00H, 'T', 00H, 'S', 00H, 'R', 00H
	DB	'V', 00H, '_', 00H, 'E', 00H, '_', 00H, 'B', 00H, 'A', 00H, 'D'
	DB	00H, '_', 00H, 'R', 00H, 'E', 00H, 'Q', 00H, 'U', 00H, 'E', 00H
	DB	'S', 00H, 'T', 00H, 'S', 00H, 'T', 00H, 'A', 00H, 'T', 00H, 'U'
	DB	00H, 'S', 00H, 00H, 00H
$SG165033 DB	'E', 00H, 'R', 00H, 'R', 00H, 'O', 00H, 'R', 00H, '_', 00H
	DB	'S', 00H, 'U', 00H, 'C', 00H, 'C', 00H, 'E', 00H, 'S', 00H, 'S'
	DB	00H, '_', 00H, 'R', 00H, 'E', 00H, 'B', 00H, 'O', 00H, 'O', 00H
	DB	'T', 00H, '_', 00H, 'I', 00H, 'N', 00H, 'I', 00H, 'T', 00H, 'I'
	DB	00H, 'A', 00H, 'T', 00H, 'E', 00H, 'D', 00H, 00H, 00H
	ORG $+2
$SG160937 DB	'E', 00H, 'R', 00H, 'R', 00H, 'O', 00H, 'R', 00H, '_', 00H
	DB	'P', 00H, 'R', 00H, 'I', 00H, 'N', 00H, 'T', 00H, 'E', 00H, 'R'
	DB	00H, '_', 00H, 'D', 00H, 'R', 00H, 'I', 00H, 'V', 00H, 'E', 00H
	DB	'R', 00H, '_', 00H, 'I', 00H, 'N', 00H, '_', 00H, 'U', 00H, 'S'
	DB	00H, 'E', 00H, 00H, 00H
$SG168106 DB	'D', 00H, 'W', 00H, 'R', 00H, 'I', 00H, 'T', 00H, 'E', 00H
	DB	'_', 00H, 'E', 00H, '_', 00H, 'F', 00H, 'I', 00H, 'L', 00H, 'E'
	DB	00H, 'N', 00H, 'O', 00H, 'T', 00H, 'F', 00H, 'O', 00H, 'U', 00H
	DB	'N', 00H, 'D', 00H, 00H, 00H
$SG164010 DB	'S', 00H, 'E', 00H, 'C', 00H, '_', 00H, 'E', 00H, '_', 00H
	DB	'N', 00H, 'O', 00H, '_', 00H, 'C', 00H, 'R', 00H, 'E', 00H, 'D'
	DB	00H, 'E', 00H, 'N', 00H, 'T', 00H, 'I', 00H, 'A', 00H, 'L', 00H
	DB	'S', 00H, 00H, 00H
	ORG $+2
$SG166058 DB	'E', 00H, 'R', 00H, 'R', 00H, 'O', 00H, 'R', 00H, '_', 00H
	DB	'D', 00H, 'S', 00H, '_', 00H, 'I', 00H, 'N', 00H, 'C', 00H, 'O'
	DB	00H, 'M', 00H, 'P', 00H, 'A', 00H, 'T', 00H, 'I', 00H, 'B', 00H
	DB	'L', 00H, 'E', 00H, '_', 00H, 'C', 00H, 'O', 00H, 'N', 00H, 'T'
	DB	00H, 'R', 00H, 'O', 00H, 'L', 00H, 'S', 00H, '_', 00H, 'U', 00H
	DB	'S', 00H, 'E', 00H, 'D', 00H, 00H, 00H
$SG161962 DB	'E', 00H, 'R', 00H, 'R', 00H, 'O', 00H, 'R', 00H, '_', 00H
	DB	'D', 00H, 'S', 00H, '_', 00H, 'U', 00H, 'N', 00H, 'A', 00H, 'V'
	DB	00H, 'A', 00H, 'I', 00H, 'L', 00H, 'A', 00H, 'B', 00H, 'L', 00H
	DB	'E', 00H, '_', 00H, 'C', 00H, 'R', 00H, 'I', 00H, 'T', 00H, '_'
	DB	00H, 'E', 00H, 'X', 00H, 'T', 00H, 'E', 00H, 'N', 00H, 'S', 00H
	DB	'I', 00H, 'O', 00H, 'N', 00H, 00H, 00H
$SG169131 DB	'S', 00H, 'h', 00H, 'a', 00H, 'd', 00H, 'e', 00H, 'r', 00H
	DB	' ', 00H, 'c', 00H, 'o', 00H, 'm', 00H, 'p', 00H, 'i', 00H, 'l'
	DB	00H, 'a', 00H, 't', 00H, 'i', 00H, 'o', 00H, 'n', 00H, ' ', 00H
	DB	'f', 00H, 'a', 00H, 'i', 00H, 'l', 00H, 'e', 00H, 'd', 00H, '.'
	DB	00H, 00H, 00H
	ORG $+2
$SG167083 DB	'E', 00H, 'R', 00H, 'R', 00H, 'O', 00H, 'R', 00H, '_', 00H
	DB	'I', 00H, 'P', 00H, 'S', 00H, 'E', 00H, 'C', 00H, '_', 00H, 'I'
	DB	00H, 'K', 00H, 'E', 00H, '_', 00H, 'N', 00H, 'O', 00H, '_', 00H
	DB	'M', 00H, 'M', 00H, '_', 00H, 'P', 00H, 'O', 00H, 'L', 00H, 'I'
	DB	00H, 'C', 00H, 'Y', 00H, 00H, 00H
	ORG $+2
$SG162987 DB	'D', 00H, 'N', 00H, 'S', 00H, '_', 00H, 'E', 00H, 'R', 00H
	DB	'R', 00H, 'O', 00H, 'R', 00H, '_', 00H, 'R', 00H, 'C', 00H, 'O'
	DB	00H, 'D', 00H, 'E', 00H, '_', 00H, 'R', 00H, 'E', 00H, 'F', 00H
	DB	'U', 00H, 'S', 00H, 'E', 00H, 'D', 00H, 00H, 00H
$SG156843 DB	'C', 00H, 'E', 00H, 'R', 00H, 'T', 00H, 'S', 00H, 'R', 00H
	DB	'V', 00H, '_', 00H, 'E', 00H, '_', 00H, 'P', 00H, 'R', 00H, 'O'
	DB	00H, 'P', 00H, 'E', 00H, 'R', 00H, 'T', 00H, 'Y', 00H, '_', 00H
	DB	'E', 00H, 'M', 00H, 'P', 00H, 'T', 00H, 'Y', 00H, 00H, 00H
	ORG $+2
$SG158892 DB	'E', 00H, 'R', 00H, 'R', 00H, 'O', 00H, 'R', 00H, '_', 00H
	DB	'B', 00H, 'A', 00H, 'D', 00H, '_', 00H, 'D', 00H, 'E', 00H, 'V'
	DB	00H, 'I', 00H, 'C', 00H, 'E', 00H, 00H, 00H
	ORG $+2
$SG157868 DB	'E', 00H, 'R', 00H, 'R', 00H, 'O', 00H, 'R', 00H, '_', 00H
	DB	'I', 00H, 'S', 00H, '_', 00H, 'J', 00H, 'O', 00H, 'I', 00H, 'N'
	DB	00H, '_', 00H, 'P', 00H, 'A', 00H, 'T', 00H, 'H', 00H, 00H, 00H
	ORG $+2
$SG155820 DB	'C', 00H, 'O', 00H, '_', 00H, 'E', 00H, '_', 00H, 'E', 00H
	DB	'R', 00H, 'R', 00H, 'O', 00H, 'R', 00H, 'I', 00H, 'N', 00H, 'A'
	DB	00H, 'P', 00H, 'P', 00H, 00H, 00H
$SG168109 DB	'D', 00H, 'W', 00H, 'R', 00H, 'I', 00H, 'T', 00H, 'E', 00H
	DB	'_', 00H, 'E', 00H, '_', 00H, 'F', 00H, 'I', 00H, 'L', 00H, 'E'
	DB	00H, 'A', 00H, 'C', 00H, 'C', 00H, 'E', 00H, 'S', 00H, 'S', 00H
	DB	00H, 00H
$SG164013 DB	'S', 00H, 'E', 00H, 'C', 00H, '_', 00H, 'E', 00H, '_', 00H
	DB	'M', 00H, 'E', 00H, 'S', 00H, 'S', 00H, 'A', 00H, 'G', 00H, 'E'
	DB	00H, '_', 00H, 'A', 00H, 'L', 00H, 'T', 00H, 'E', 00H, 'R', 00H
	DB	'E', 00H, 'D', 00H, 00H, 00H
$SG159917 DB	'E', 00H, 'R', 00H, 'R', 00H, 'O', 00H, 'R', 00H, '_', 00H
	DB	'M', 00H, 'E', 00H, 'N', 00H, 'U', 00H, '_', 00H, 'I', 00H, 'T'
	DB	00H, 'E', 00H, 'M', 00H, '_', 00H, 'N', 00H, 'O', 00H, 'T', 00H
	DB	'_', 00H, 'F', 00H, 'O', 00H, 'U', 00H, 'N', 00H, 'D', 00H, 00H
	DB	00H
$SG165038 DB	'E', 00H, 'R', 00H, 'R', 00H, 'O', 00H, 'R', 00H, '_', 00H
	DB	'P', 00H, 'A', 00H, 'T', 00H, 'C', 00H, 'H', 00H, '_', 00H, 'T'
	DB	00H, 'A', 00H, 'R', 00H, 'G', 00H, 'E', 00H, 'T', 00H, '_', 00H
	DB	'N', 00H, 'O', 00H, 'T', 00H, '_', 00H, 'F', 00H, 'O', 00H, 'U'
	DB	00H, 'N', 00H, 'D', 00H, 00H, 00H
	ORG $+2
$SG169134 DB	'R', 00H, 'e', 00H, 'q', 00H, 'u', 00H, 'e', 00H, 's', 00H
	DB	't', 00H, 'e', 00H, 'd', 00H, ' ', 00H, 'D', 00H, 'X', 00H, ' '
	DB	00H, 's', 00H, 'u', 00H, 'r', 00H, 'f', 00H, 'a', 00H, 'c', 00H
	DB	'e', 00H, ' ', 00H, 's', 00H, 'i', 00H, 'z', 00H, 'e', 00H, ' '
	DB	00H, 'e', 00H, 'x', 00H, 'c', 00H, 'e', 00H, 'e', 00H, 'd', 00H
	DB	'e', 00H, 'd', 00H, ' ', 00H, 'm', 00H, 'a', 00H, 'x', 00H, 'i'
	DB	00H, 'm', 00H, 'u', 00H, 'm', 00H, ' ', 00H, 't', 00H, 'e', 00H
	DB	'x', 00H, 't', 00H, 'u', 00H, 'r', 00H, 'e', 00H, ' ', 00H, 's'
	DB	00H, 'i', 00H, 'z', 00H, 'e', 00H, '.', 00H, 00H, 00H
	ORG $+2
$SG160942 DB	'E', 00H, 'R', 00H, 'R', 00H, 'O', 00H, 'R', 00H, '_', 00H
	DB	'S', 00H, 'P', 00H, 'O', 00H, 'O', 00H, 'L', 00H, '_', 00H, 'F'
	DB	00H, 'I', 00H, 'L', 00H, 'E', 00H, '_', 00H, 'N', 00H, 'O', 00H
	DB	'T', 00H, '_', 00H, 'F', 00H, 'O', 00H, 'U', 00H, 'N', 00H, 'D'
	DB	00H, 00H, 00H
	ORG $+2
$SG155823 DB	'C', 00H, 'O', 00H, '_', 00H, 'E', 00H, '_', 00H, 'D', 00H
	DB	'L', 00H, 'L', 00H, 'N', 00H, 'O', 00H, 'T', 00H, 'F', 00H, 'O'
	DB	00H, 'U', 00H, 'N', 00H, 'D', 00H, 00H, 00H
	ORG $+2
$SG156846 DB	'C', 00H, 'E', 00H, 'R', 00H, 'T', 00H, 'S', 00H, 'R', 00H
	DB	'V', 00H, '_', 00H, 'E', 00H, '_', 00H, 'I', 00H, 'N', 00H, 'V'
	DB	00H, 'A', 00H, 'L', 00H, 'I', 00H, 'D', 00H, '_', 00H, 'C', 00H
	DB	'A', 00H, '_', 00H, 'C', 00H, 'E', 00H, 'R', 00H, 'T', 00H, 'I'
	DB	00H, 'F', 00H, 'I', 00H, 'C', 00H, 'A', 00H, 'T', 00H, 'E', 00H
	DB	00H, 00H
	ORG $+2
$SG166063 DB	'E', 00H, 'R', 00H, 'R', 00H, 'O', 00H, 'R', 00H, '_', 00H
	DB	'D', 00H, 'S', 00H, '_', 00H, 'N', 00H, 'O', 00H, '_', 00H, 'R'
	DB	00H, 'E', 00H, 'F', 00H, '_', 00H, 'D', 00H, 'O', 00H, 'M', 00H
	DB	'A', 00H, 'I', 00H, 'N', 00H, 00H, 00H
	ORG $+2
$SG167088 DB	'E', 00H, 'R', 00H, 'R', 00H, 'O', 00H, 'R', 00H, '_', 00H
	DB	'I', 00H, 'P', 00H, 'S', 00H, 'E', 00H, 'C', 00H, '_', 00H, 'I'
	DB	00H, 'K', 00H, 'E', 00H, '_', 00H, 'N', 00H, 'O', 00H, 'T', 00H
	DB	'C', 00H, 'B', 00H, 'P', 00H, 'R', 00H, 'I', 00H, 'V', 00H, 00H
	DB	00H
$SG161967 DB	'E', 00H, 'R', 00H, 'R', 00H, 'O', 00H, 'R', 00H, '_', 00H
	DB	'D', 00H, 'S', 00H, '_', 00H, 'C', 00H, 'O', 00H, 'N', 00H, 'F'
	DB	00H, 'I', 00H, 'D', 00H, 'E', 00H, 'N', 00H, 'T', 00H, 'I', 00H
	DB	'A', 00H, 'L', 00H, 'I', 00H, 'T', 00H, 'Y', 00H, '_', 00H, 'R'
	DB	00H, 'E', 00H, 'Q', 00H, 'U', 00H, 'I', 00H, 'R', 00H, 'E', 00H
	DB	'D', 00H, 00H, 00H
$SG164016 DB	'S', 00H, 'E', 00H, 'C', 00H, '_', 00H, 'E', 00H, '_', 00H
	DB	'O', 00H, 'U', 00H, 'T', 00H, '_', 00H, 'O', 00H, 'F', 00H, '_'
	DB	00H, 'S', 00H, 'E', 00H, 'Q', 00H, 'U', 00H, 'E', 00H, 'N', 00H
	DB	'C', 00H, 'E', 00H, 00H, 00H
$SG168112 DB	'D', 00H, 'W', 00H, 'R', 00H, 'I', 00H, 'T', 00H, 'E', 00H
	DB	'_', 00H, 'E', 00H, '_', 00H, 'F', 00H, 'O', 00H, 'N', 00H, 'T'
	DB	00H, 'C', 00H, 'O', 00H, 'L', 00H, 'L', 00H, 'E', 00H, 'C', 00H
	DB	'T', 00H, 'I', 00H, 'O', 00H, 'N', 00H, 'O', 00H, 'B', 00H, 'S'
	DB	00H, 'O', 00H, 'L', 00H, 'E', 00H, 'T', 00H, 'E', 00H, 00H, 00H
$SG162992 DB	'D', 00H, 'N', 00H, 'S', 00H, '_', 00H, 'E', 00H, 'R', 00H
	DB	'R', 00H, 'O', 00H, 'R', 00H, '_', 00H, 'R', 00H, 'C', 00H, 'O'
	DB	00H, 'D', 00H, 'E', 00H, '_', 00H, 'Y', 00H, 'X', 00H, 'D', 00H
	DB	'O', 00H, 'M', 00H, 'A', 00H, 'I', 00H, 'N', 00H, 00H, 00H
	ORG $+2
$SG158897 DB	'E', 00H, 'R', 00H, 'R', 00H, 'O', 00H, 'R', 00H, '_', 00H
	DB	'C', 00H, 'O', 00H, 'N', 00H, 'N', 00H, 'E', 00H, 'C', 00H, 'T'
	DB	00H, 'I', 00H, 'O', 00H, 'N', 00H, '_', 00H, 'U', 00H, 'N', 00H
	DB	'A', 00H, 'V', 00H, 'A', 00H, 'I', 00H, 'L', 00H, 00H, 00H
	ORG $+2
$SG169137 DB	'T', 00H, 'h', 00H, 'e', 00H, ' ', 00H, 'r', 00H, 'e', 00H
	DB	'q', 00H, 'u', 00H, 'e', 00H, 's', 00H, 't', 00H, 'e', 00H, 'd'
	DB	00H, ' ', 00H, 'D', 00H, '2', 00H, 'D', 00H, ' ', 00H, 'v', 00H
	DB	'e', 00H, 'r', 00H, 's', 00H, 'i', 00H, 'o', 00H, 'n', 00H, ' '
	DB	00H, 'i', 00H, 's', 00H, ' ', 00H, 'n', 00H, 'o', 00H, 't', 00H
	DB	' ', 00H, 's', 00H, 'u', 00H, 'p', 00H, 'p', 00H, 'o', 00H, 'r'
	DB	00H, 't', 00H, 'e', 00H, 'd', 00H, '.', 00H, 00H, 00H
$SG157873 DB	'E', 00H, 'R', 00H, 'R', 00H, 'O', 00H, 'R', 00H, '_', 00H
	DB	'P', 00H, 'A', 00H, 'T', 00H, 'H', 00H, '_', 00H, 'B', 00H, 'U'
	DB	00H, 'S', 00H, 'Y', 00H, 00H, 00H
$SG156849 DB	'C', 00H, 'E', 00H, 'R', 00H, 'T', 00H, 'S', 00H, 'R', 00H
	DB	'V', 00H, '_', 00H, 'E', 00H, '_', 00H, 'U', 00H, 'N', 00H, 'S'
	DB	00H, 'U', 00H, 'P', 00H, 'P', 00H, 'O', 00H, 'R', 00H, 'T', 00H
	DB	'E', 00H, 'D', 00H, '_', 00H, 'C', 00H, 'E', 00H, 'R', 00H, 'T'
	DB	00H, '_', 00H, 'T', 00H, 'Y', 00H, 'P', 00H, 'E', 00H, 00H, 00H
$SG159922 DB	'E', 00H, 'R', 00H, 'R', 00H, 'O', 00H, 'R', 00H, '_', 00H
	DB	'I', 00H, 'N', 00H, 'V', 00H, 'A', 00H, 'L', 00H, 'I', 00H, 'D'
	DB	00H, '_', 00H, 'K', 00H, 'E', 00H, 'Y', 00H, 'B', 00H, 'O', 00H
	DB	'A', 00H, 'R', 00H, 'D', 00H, '_', 00H, 'H', 00H, 'A', 00H, 'N'
	DB	00H, 'D', 00H, 'L', 00H, 'E', 00H, 00H, 00H
$SG155826 DB	'C', 00H, 'O', 00H, '_', 00H, 'E', 00H, '_', 00H, 'E', 00H
	DB	'R', 00H, 'R', 00H, 'O', 00H, 'R', 00H, 'I', 00H, 'N', 00H, 'D'
	DB	00H, 'L', 00H, 'L', 00H, 00H, 00H
$SG168115 DB	'D', 00H, 'W', 00H, 'R', 00H, 'I', 00H, 'T', 00H, 'E', 00H
	DB	'_', 00H, 'E', 00H, '_', 00H, 'A', 00H, 'L', 00H, 'R', 00H, 'E'
	DB	00H, 'A', 00H, 'D', 00H, 'Y', 00H, 'R', 00H, 'E', 00H, 'G', 00H
	DB	'I', 00H, 'S', 00H, 'T', 00H, 'E', 00H, 'R', 00H, 'E', 00H, 'D'
	DB	00H, 00H, 00H
	ORG $+2
$SG165043 DB	'E', 00H, 'R', 00H, 'R', 00H, 'O', 00H, 'R', 00H, '_', 00H
	DB	'P', 00H, 'A', 00H, 'T', 00H, 'C', 00H, 'H', 00H, '_', 00H, 'P'
	DB	00H, 'A', 00H, 'C', 00H, 'K', 00H, 'A', 00H, 'G', 00H, 'E', 00H
	DB	'_', 00H, 'R', 00H, 'E', 00H, 'J', 00H, 'E', 00H, 'C', 00H, 'T'
	DB	00H, 'E', 00H, 'D', 00H, 00H, 00H
	ORG $+2
$SG164019 DB	'S', 00H, 'E', 00H, 'C', 00H, '_', 00H, 'E', 00H, '_', 00H
	DB	'N', 00H, 'O', 00H, '_', 00H, 'A', 00H, 'U', 00H, 'T', 00H, 'H'
	DB	00H, 'E', 00H, 'N', 00H, 'T', 00H, 'I', 00H, 'C', 00H, 'A', 00H
	DB	'T', 00H, 'I', 00H, 'N', 00H, 'G', 00H, '_', 00H, 'A', 00H, 'U'
	DB	00H, 'T', 00H, 'H', 00H, 'O', 00H, 'R', 00H, 'I', 00H, 'T', 00H
	DB	'Y', 00H, 00H, 00H
$SG160947 DB	'E', 00H, 'R', 00H, 'R', 00H, 'O', 00H, 'R', 00H, '_', 00H
	DB	'S', 00H, 'P', 00H, 'L', 00H, '_', 00H, 'N', 00H, 'O', 00H, '_'
	DB	00H, 'S', 00H, 'T', 00H, 'A', 00H, 'R', 00H, 'T', 00H, 'D', 00H
	DB	'O', 00H, 'C', 00H, 00H, 00H
$SG169140 DB	'I', 00H, 'n', 00H, 'v', 00H, 'a', 00H, 'l', 00H, 'i', 00H
	DB	'd', 00H, ' ', 00H, 'n', 00H, 'u', 00H, 'm', 00H, 'b', 00H, 'e'
	DB	00H, 'r', 00H, '.', 00H, 00H, 00H
$SG166068 DB	'E', 00H, 'R', 00H, 'R', 00H, 'O', 00H, 'R', 00H, '_', 00H
	DB	'D', 00H, 'S', 00H, '_', 00H, 'R', 00H, 'E', 00H, 'S', 00H, 'E'
	DB	00H, 'R', 00H, 'V', 00H, 'E', 00H, 'D', 00H, '_', 00H, 'L', 00H
	DB	'I', 00H, 'N', 00H, 'K', 00H, '_', 00H, 'I', 00H, 'D', 00H, 00H
	DB	00H
$SG164022 DB	'S', 00H, 'E', 00H, 'C', 00H, '_', 00H, 'I', 00H, '_', 00H
	DB	'C', 00H, 'O', 00H, 'N', 00H, 'T', 00H, 'I', 00H, 'N', 00H, 'U'
	DB	00H, 'E', 00H, '_', 00H, 'N', 00H, 'E', 00H, 'E', 00H, 'D', 00H
	DB	'E', 00H, 'D', 00H, 00H, 00H
$SG161972 DB	'E', 00H, 'R', 00H, 'R', 00H, 'O', 00H, 'R', 00H, '_', 00H
	DB	'D', 00H, 'S', 00H, '_', 00H, 'I', 00H, 'N', 00H, 'A', 00H, 'P'
	DB	00H, 'P', 00H, 'R', 00H, 'O', 00H, 'P', 00H, 'R', 00H, 'I', 00H
	DB	'A', 00H, 'T', 00H, 'E', 00H, '_', 00H, 'M', 00H, 'A', 00H, 'T'
	DB	00H, 'C', 00H, 'H', 00H, 'I', 00H, 'N', 00H, 'G', 00H, 00H, 00H
$SG156852 DB	'C', 00H, 'E', 00H, 'R', 00H, 'T', 00H, 'S', 00H, 'R', 00H
	DB	'V', 00H, '_', 00H, 'E', 00H, '_', 00H, 'N', 00H, 'O', 00H, '_'
	DB	00H, 'C', 00H, 'E', 00H, 'R', 00H, 'T', 00H, '_', 00H, 'T', 00H
	DB	'Y', 00H, 'P', 00H, 'E', 00H, 00H, 00H
	ORG $+2
$SG167093 DB	'E', 00H, 'R', 00H, 'R', 00H, 'O', 00H, 'R', 00H, '_', 00H
	DB	'I', 00H, 'P', 00H, 'S', 00H, 'E', 00H, 'C', 00H, '_', 00H, 'I'
	DB	00H, 'K', 00H, 'E', 00H, '_', 00H, 'S', 00H, 'E', 00H, 'C', 00H
	DB	'L', 00H, 'O', 00H, 'A', 00H, 'D', 00H, 'F', 00H, 'A', 00H, 'I'
	DB	00H, 'L', 00H, 00H, 00H
$SG162997 DB	'D', 00H, 'N', 00H, 'S', 00H, '_', 00H, 'E', 00H, 'R', 00H
	DB	'R', 00H, 'O', 00H, 'R', 00H, '_', 00H, 'R', 00H, 'C', 00H, 'O'
	DB	00H, 'D', 00H, 'E', 00H, '_', 00H, 'Y', 00H, 'X', 00H, 'R', 00H
	DB	'R', 00H, 'S', 00H, 'E', 00H, 'T', 00H, 00H, 00H
$SG155829 DB	'C', 00H, 'O', 00H, '_', 00H, 'E', 00H, '_', 00H, 'W', 00H
	DB	'R', 00H, 'O', 00H, 'N', 00H, 'G', 00H, 'O', 00H, 'S', 00H, 'F'
	DB	00H, 'O', 00H, 'R', 00H, 'A', 00H, 'P', 00H, 'P', 00H, 00H, 00H
	ORG $+2
$SG168118 DB	'W', 00H, 'I', 00H, 'N', 00H, 'C', 00H, 'O', 00H, 'D', 00H
	DB	'E', 00H, 'C', 00H, '_', 00H, 'E', 00H, 'R', 00H, 'R', 00H, '_'
	DB	00H, 'W', 00H, 'R', 00H, 'O', 00H, 'N', 00H, 'G', 00H, 'S', 00H
	DB	'T', 00H, 'A', 00H, 'T', 00H, 'E', 00H, 00H, 00H
$SG158902 DB	'E', 00H, 'R', 00H, 'R', 00H, 'O', 00H, 'R', 00H, '_', 00H
	DB	'D', 00H, 'E', 00H, 'V', 00H, 'I', 00H, 'C', 00H, 'E', 00H, '_'
	DB	00H, 'A', 00H, 'L', 00H, 'R', 00H, 'E', 00H, 'A', 00H, 'D', 00H
	DB	'Y', 00H, '_', 00H, 'R', 00H, 'E', 00H, 'M', 00H, 'E', 00H, 'M'
	DB	00H, 'B', 00H, 'E', 00H, 'R', 00H, 'E', 00H, 'D', 00H, 00H, 00H
$SG157878 DB	'E', 00H, 'R', 00H, 'R', 00H, 'O', 00H, 'R', 00H, '_', 00H
	DB	'I', 00H, 'S', 00H, '_', 00H, 'S', 00H, 'U', 00H, 'B', 00H, 'S'
	DB	00H, 'T', 00H, '_', 00H, 'T', 00H, 'A', 00H, 'R', 00H, 'G', 00H
	DB	'E', 00H, 'T', 00H, 00H, 00H
$SG156855 DB	'T', 00H, 'R', 00H, 'U', 00H, 'S', 00H, 'T', 00H, '_', 00H
	DB	'E', 00H, '_', 00H, 'S', 00H, 'Y', 00H, 'S', 00H, 'T', 00H, 'E'
	DB	00H, 'M', 00H, '_', 00H, 'E', 00H, 'R', 00H, 'R', 00H, 'O', 00H
	DB	'R', 00H, 00H, 00H
	ORG $+2
$SG169143 DB	'O', 00H, 'b', 00H, 'j', 00H, 'e', 00H, 'c', 00H, 't', 00H
	DB	's', 00H, ' ', 00H, 'u', 00H, 's', 00H, 'e', 00H, 'd', 00H, ' '
	DB	00H, 't', 00H, 'o', 00H, 'g', 00H, 'e', 00H, 't', 00H, 'h', 00H
	DB	'e', 00H, 'r', 00H, ' ', 00H, 'm', 00H, 'u', 00H, 's', 00H, 't'
	DB	00H, ' ', 00H, 'b', 00H, 'e', 00H, ' ', 00H, 'c', 00H, 'r', 00H
	DB	'e', 00H, 'a', 00H, 't', 00H, 'e', 00H, 'd', 00H, ' ', 00H, 'f'
	DB	00H, 'r', 00H, 'o', 00H, 'm', 00H, ' ', 00H, 't', 00H, 'h', 00H
	DB	'e', 00H, ' ', 00H, 's', 00H, 'a', 00H, 'm', 00H, 'e', 00H, ' '
	DB	00H, 'f', 00H, 'a', 00H, 'c', 00H, 't', 00H, 'o', 00H, 'r', 00H
	DB	'y', 00H, ' ', 00H, 'i', 00H, 'n', 00H, 's', 00H, 't', 00H, 'a'
	DB	00H, 'n', 00H, 'c', 00H, 'e', 00H, '.', 00H, 00H, 00H
$SG159927 DB	'E', 00H, 'R', 00H, 'R', 00H, 'O', 00H, 'R', 00H, '_', 00H
	DB	'H', 00H, 'O', 00H, 'O', 00H, 'K', 00H, '_', 00H, 'T', 00H, 'Y'
	DB	00H, 'P', 00H, 'E', 00H, '_', 00H, 'N', 00H, 'O', 00H, 'T', 00H
	DB	'_', 00H, 'A', 00H, 'L', 00H, 'L', 00H, 'O', 00H, 'W', 00H, 'E'
	DB	00H, 'D', 00H, 00H, 00H
$SG168121 DB	'W', 00H, 'I', 00H, 'N', 00H, 'C', 00H, 'O', 00H, 'D', 00H
	DB	'E', 00H, 'C', 00H, '_', 00H, 'E', 00H, 'R', 00H, 'R', 00H, '_'
	DB	00H, 'V', 00H, 'A', 00H, 'L', 00H, 'U', 00H, 'E', 00H, 'O', 00H
	DB	'U', 00H, 'T', 00H, 'O', 00H, 'F', 00H, 'R', 00H, 'A', 00H, 'N'
	DB	00H, 'G', 00H, 'E', 00H, 00H, 00H
	ORG $+2
$SG165048 DB	'E', 00H, 'R', 00H, 'R', 00H, 'O', 00H, 'R', 00H, '_', 00H
	DB	'I', 00H, 'N', 00H, 'S', 00H, 'T', 00H, 'A', 00H, 'L', 00H, 'L'
	DB	00H, '_', 00H, 'T', 00H, 'R', 00H, 'A', 00H, 'N', 00H, 'S', 00H
	DB	'F', 00H, 'O', 00H, 'R', 00H, 'M', 00H, '_', 00H, 'R', 00H, 'E'
	DB	00H, 'J', 00H, 'E', 00H, 'C', 00H, 'T', 00H, 'E', 00H, 'D', 00H
	DB	00H, 00H
	ORG $+2
$SG160952 DB	'E', 00H, 'R', 00H, 'R', 00H, 'O', 00H, 'R', 00H, '_', 00H
	DB	'S', 00H, 'P', 00H, 'L', 00H, '_', 00H, 'N', 00H, 'O', 00H, '_'
	DB	00H, 'A', 00H, 'D', 00H, 'D', 00H, 'J', 00H, 'O', 00H, 'B', 00H
	DB	00H, 00H
$SG155832 DB	'C', 00H, 'O', 00H, '_', 00H, 'E', 00H, '_', 00H, 'O', 00H
	DB	'B', 00H, 'J', 00H, 'N', 00H, 'O', 00H, 'T', 00H, 'R', 00H, 'E'
	DB	00H, 'G', 00H, 00H, 00H
	ORG $+2
$SG166073 DB	'E', 00H, 'R', 00H, 'R', 00H, 'O', 00H, 'R', 00H, '_', 00H
	DB	'D', 00H, 'S', 00H, '_', 00H, 'L', 00H, 'I', 00H, 'N', 00H, 'K'
	DB	00H, '_', 00H, 'I', 00H, 'D', 00H, '_', 00H, 'N', 00H, 'O', 00H
	DB	'T', 00H, '_', 00H, 'A', 00H, 'V', 00H, 'A', 00H, 'I', 00H, 'L'
	DB	00H, 'A', 00H, 'B', 00H, 'L', 00H, 'E', 00H, 00H, 00H
	ORG $+2
$SG164025 DB	'S', 00H, 'E', 00H, 'C', 00H, '_', 00H, 'I', 00H, '_', 00H
	DB	'C', 00H, 'O', 00H, 'M', 00H, 'P', 00H, 'L', 00H, 'E', 00H, 'T'
	DB	00H, 'E', 00H, '_', 00H, 'N', 00H, 'E', 00H, 'E', 00H, 'D', 00H
	DB	'E', 00H, 'D', 00H, 00H, 00H
$SG161977 DB	'E', 00H, 'R', 00H, 'R', 00H, 'O', 00H, 'R', 00H, '_', 00H
	DB	'D', 00H, 'S', 00H, '_', 00H, 'C', 00H, 'O', 00H, 'N', 00H, 'S'
	DB	00H, 'T', 00H, 'R', 00H, 'A', 00H, 'I', 00H, 'N', 00H, 'T', 00H
	DB	'_', 00H, 'V', 00H, 'I', 00H, 'O', 00H, 'L', 00H, 'A', 00H, 'T'
	DB	00H, 'I', 00H, 'O', 00H, 'N', 00H, 00H, 00H
$SG158907 DB	'E', 00H, 'R', 00H, 'R', 00H, 'O', 00H, 'R', 00H, '_', 00H
	DB	'N', 00H, 'O', 00H, '_', 00H, 'N', 00H, 'E', 00H, 'T', 00H, '_'
	DB	00H, 'O', 00H, 'R', 00H, '_', 00H, 'B', 00H, 'A', 00H, 'D', 00H
	DB	'_', 00H, 'P', 00H, 'A', 00H, 'T', 00H, 'H', 00H, 00H, 00H
	ORG $+2
$SG169146 DB	'A', 00H, ' ', 00H, 'l', 00H, 'a', 00H, 'y', 00H, 'e', 00H
	DB	'r', 00H, ' ', 00H, 'r', 00H, 'e', 00H, 's', 00H, 'o', 00H, 'u'
	DB	00H, 'r', 00H, 'c', 00H, 'e', 00H, ' ', 00H, 'c', 00H, 'a', 00H
	DB	'n', 00H, ' ', 00H, 'o', 00H, 'n', 00H, 'l', 00H, 'y', 00H, ' '
	DB	00H, 'b', 00H, 'e', 00H, ' ', 00H, 'i', 00H, 'n', 00H, ' ', 00H
	DB	'u', 00H, 's', 00H, 'e', 00H, ' ', 00H, 'o', 00H, 'n', 00H, 'c'
	DB	00H, 'e', 00H, ' ', 00H, 'a', 00H, 't', 00H, ' ', 00H, 'a', 00H
	DB	'n', 00H, 'y', 00H, ' ', 00H, 'p', 00H, 'o', 00H, 'i', 00H, 'n'
	DB	00H, 't', 00H, ' ', 00H, 'i', 00H, 'n', 00H, ' ', 00H, 't', 00H
	DB	'i', 00H, 'm', 00H, 'e', 00H, '.', 00H, 00H, 00H
	ORG $+2
$SG167098 DB	'E', 00H, 'R', 00H, 'R', 00H, 'O', 00H, 'R', 00H, '_', 00H
	DB	'I', 00H, 'P', 00H, 'S', 00H, 'E', 00H, 'C', 00H, '_', 00H, 'I'
	DB	00H, 'K', 00H, 'E', 00H, '_', 00H, 'F', 00H, 'A', 00H, 'I', 00H
	DB	'L', 00H, 'S', 00H, 'S', 00H, 'P', 00H, 'I', 00H, 'N', 00H, 'I'
	DB	00H, 'T', 00H, 00H, 00H
$SG163002 DB	'D', 00H, 'N', 00H, 'S', 00H, '_', 00H, 'E', 00H, 'R', 00H
	DB	'R', 00H, 'O', 00H, 'R', 00H, '_', 00H, 'R', 00H, 'C', 00H, 'O'
	DB	00H, 'D', 00H, 'E', 00H, '_', 00H, 'N', 00H, 'X', 00H, 'R', 00H
	DB	'R', 00H, 'S', 00H, 'E', 00H, 'T', 00H, 00H, 00H
$SG156858 DB	'T', 00H, 'R', 00H, 'U', 00H, 'S', 00H, 'T', 00H, '_', 00H
	DB	'E', 00H, '_', 00H, 'N', 00H, 'O', 00H, '_', 00H, 'S', 00H, 'I'
	DB	00H, 'G', 00H, 'N', 00H, 'E', 00H, 'R', 00H, '_', 00H, 'C', 00H
	DB	'E', 00H, 'R', 00H, 'T', 00H, 00H, 00H
	ORG $+2
$SG157883 DB	'E', 00H, 'R', 00H, 'R', 00H, 'O', 00H, 'R', 00H, '_', 00H
	DB	'S', 00H, 'Y', 00H, 'S', 00H, 'T', 00H, 'E', 00H, 'M', 00H, '_'
	DB	00H, 'T', 00H, 'R', 00H, 'A', 00H, 'C', 00H, 'E', 00H, 00H, 00H
	ORG $+2
$SG155835 DB	'C', 00H, 'O', 00H, '_', 00H, 'E', 00H, '_', 00H, 'O', 00H
	DB	'B', 00H, 'J', 00H, 'I', 00H, 'S', 00H, 'R', 00H, 'E', 00H, 'G'
	DB	00H, 00H, 00H
$SG165053 DB	'R', 00H, 'P', 00H, 'C', 00H, '_', 00H, 'S', 00H, '_', 00H
	DB	'E', 00H, 'N', 00H, 'T', 00H, 'R', 00H, 'Y', 00H, '_', 00H, 'T'
	DB	00H, 'Y', 00H, 'P', 00H, 'E', 00H, '_', 00H, 'M', 00H, 'I', 00H
	DB	'S', 00H, 'M', 00H, 'A', 00H, 'T', 00H, 'C', 00H, 'H', 00H, 00H
	DB	00H
$SG168124 DB	'W', 00H, 'I', 00H, 'N', 00H, 'C', 00H, 'O', 00H, 'D', 00H
	DB	'E', 00H, 'C', 00H, '_', 00H, 'E', 00H, 'R', 00H, 'R', 00H, '_'
	DB	00H, 'U', 00H, 'N', 00H, 'K', 00H, 'N', 00H, 'O', 00H, 'W', 00H
	DB	'N', 00H, 'I', 00H, 'M', 00H, 'A', 00H, 'G', 00H, 'E', 00H, 'F'
	DB	00H, 'O', 00H, 'R', 00H, 'M', 00H, 'A', 00H, 'T', 00H, 00H, 00H
$SG164028 DB	'S', 00H, 'E', 00H, 'C', 00H, '_', 00H, 'I', 00H, '_', 00H
	DB	'C', 00H, 'O', 00H, 'M', 00H, 'P', 00H, 'L', 00H, 'E', 00H, 'T'
	DB	00H, 'E', 00H, '_', 00H, 'A', 00H, 'N', 00H, 'D', 00H, '_', 00H
	DB	'C', 00H, 'O', 00H, 'N', 00H, 'T', 00H, 'I', 00H, 'N', 00H, 'U'
	DB	00H, 'E', 00H, 00H, 00H
$SG159932 DB	'E', 00H, 'R', 00H, 'R', 00H, 'O', 00H, 'R', 00H, '_', 00H
	DB	'R', 00H, 'E', 00H, 'Q', 00H, 'U', 00H, 'I', 00H, 'R', 00H, 'E'
	DB	00H, 'S', 00H, '_', 00H, 'I', 00H, 'N', 00H, 'T', 00H, 'E', 00H
	DB	'R', 00H, 'A', 00H, 'C', 00H, 'T', 00H, 'I', 00H, 'V', 00H, 'E'
	DB	00H, '_', 00H, 'W', 00H, 'I', 00H, 'N', 00H, 'D', 00H, 'O', 00H
	DB	'W', 00H, 'S', 00H, 'T', 00H, 'A', 00H, 'T', 00H, 'I', 00H, 'O'
	DB	00H, 'N', 00H, 00H, 00H
	ORG $+2
$SG161982 DB	'E', 00H, 'R', 00H, 'R', 00H, 'O', 00H, 'R', 00H, '_', 00H
	DB	'D', 00H, 'S', 00H, '_', 00H, 'N', 00H, 'O', 00H, '_', 00H, 'S'
	DB	00H, 'U', 00H, 'C', 00H, 'H', 00H, '_', 00H, 'O', 00H, 'B', 00H
	DB	'J', 00H, 'E', 00H, 'C', 00H, 'T', 00H, 00H, 00H
$SG155838 DB	'C', 00H, 'O', 00H, '_', 00H, 'E', 00H, '_', 00H, 'O', 00H
	DB	'B', 00H, 'J', 00H, 'N', 00H, 'O', 00H, 'T', 00H, 'C', 00H, 'O'
	DB	00H, 'N', 00H, 'N', 00H, 'E', 00H, 'C', 00H, 'T', 00H, 'E', 00H
	DB	'D', 00H, 00H, 00H
	ORG $+2
$SG169149 DB	'T', 00H, 'h', 00H, 'e', 00H, ' ', 00H, 'p', 00H, 'o', 00H
	DB	'p', 00H, ' ', 00H, 'c', 00H, 'a', 00H, 'l', 00H, 'l', 00H, ' '
	DB	00H, 'd', 00H, 'i', 00H, 'd', 00H, ' ', 00H, 'n', 00H, 'o', 00H
	DB	't', 00H, ' ', 00H, 'm', 00H, 'a', 00H, 't', 00H, 'c', 00H, 'h'
	DB	00H, ' ', 00H, 't', 00H, 'h', 00H, 'e', 00H, ' ', 00H, 'c', 00H
	DB	'o', 00H, 'r', 00H, 'r', 00H, 'e', 00H, 's', 00H, 'p', 00H, 'o'
	DB	00H, 'n', 00H, 'd', 00H, 'i', 00H, 'n', 00H, 'g', 00H, ' ', 00H
	DB	'p', 00H, 'u', 00H, 's', 00H, 'h', 00H, ' ', 00H, 'c', 00H, 'a'
	DB	00H, 'l', 00H, 'l', 00H, 00H, 00H
	ORG $+2
$SG160957 DB	'E', 00H, 'R', 00H, 'R', 00H, 'O', 00H, 'R', 00H, '_', 00H
	DB	'P', 00H, 'R', 00H, 'I', 00H, 'N', 00H, 'T', 00H, '_', 00H, 'P'
	DB	00H, 'R', 00H, 'O', 00H, 'C', 00H, 'E', 00H, 'S', 00H, 'S', 00H
	DB	'O', 00H, 'R', 00H, '_', 00H, 'A', 00H, 'L', 00H, 'R', 00H, 'E'
	DB	00H, 'A', 00H, 'D', 00H, 'Y', 00H, '_', 00H, 'I', 00H, 'N', 00H
	DB	'S', 00H, 'T', 00H, 'A', 00H, 'L', 00H, 'L', 00H, 'E', 00H, 'D'
	DB	00H, 00H, 00H
$SG156861 DB	'T', 00H, 'R', 00H, 'U', 00H, 'S', 00H, 'T', 00H, '_', 00H
	DB	'E', 00H, '_', 00H, 'C', 00H, 'O', 00H, 'U', 00H, 'N', 00H, 'T'
	DB	00H, 'E', 00H, 'R', 00H, '_', 00H, 'S', 00H, 'I', 00H, 'G', 00H
	DB	'N', 00H, 'E', 00H, 'R', 00H, 00H, 00H
	ORG $+2
$SG166078 DB	'E', 00H, 'R', 00H, 'R', 00H, 'O', 00H, 'R', 00H, '_', 00H
	DB	'D', 00H, 'S', 00H, '_', 00H, 'A', 00H, 'G', 00H, '_', 00H, 'C'
	DB	00H, 'A', 00H, 'N', 00H, 'T', 00H, '_', 00H, 'H', 00H, 'A', 00H
	DB	'V', 00H, 'E', 00H, '_', 00H, 'U', 00H, 'N', 00H, 'I', 00H, 'V'
	DB	00H, 'E', 00H, 'R', 00H, 'S', 00H, 'A', 00H, 'L', 00H, '_', 00H
	DB	'M', 00H, 'E', 00H, 'M', 00H, 'B', 00H, 'E', 00H, 'R', 00H, 00H
	DB	00H
	ORG $+2
$SG168127 DB	'W', 00H, 'I', 00H, 'N', 00H, 'C', 00H, 'O', 00H, 'D', 00H
	DB	'E', 00H, 'C', 00H, '_', 00H, 'E', 00H, 'R', 00H, 'R', 00H, '_'
	DB	00H, 'U', 00H, 'N', 00H, 'S', 00H, 'U', 00H, 'P', 00H, 'P', 00H
	DB	'O', 00H, 'R', 00H, 'T', 00H, 'E', 00H, 'D', 00H, 'V', 00H, 'E'
	DB	00H, 'R', 00H, 'S', 00H, 'I', 00H, 'O', 00H, 'N', 00H, 00H, 00H
$SG167103 DB	'E', 00H, 'R', 00H, 'R', 00H, 'O', 00H, 'R', 00H, '_', 00H
	DB	'I', 00H, 'P', 00H, 'S', 00H, 'E', 00H, 'C', 00H, '_', 00H, 'I'
	DB	00H, 'K', 00H, 'E', 00H, '_', 00H, 'F', 00H, 'A', 00H, 'I', 00H
	DB	'L', 00H, 'Q', 00H, 'U', 00H, 'E', 00H, 'R', 00H, 'Y', 00H, 'S'
	DB	00H, 'S', 00H, 'P', 00H, 00H, 00H
	ORG $+2
$SG164031 DB	'S', 00H, 'E', 00H, 'C', 00H, '_', 00H, 'I', 00H, '_', 00H
	DB	'L', 00H, 'O', 00H, 'C', 00H, 'A', 00H, 'L', 00H, '_', 00H, 'L'
	DB	00H, 'O', 00H, 'G', 00H, 'O', 00H, 'N', 00H, 00H, 00H
$SG163007 DB	'D', 00H, 'N', 00H, 'S', 00H, '_', 00H, 'E', 00H, 'R', 00H
	DB	'R', 00H, 'O', 00H, 'R', 00H, '_', 00H, 'R', 00H, 'C', 00H, 'O'
	DB	00H, 'D', 00H, 'E', 00H, '_', 00H, 'N', 00H, 'O', 00H, 'T', 00H
	DB	'A', 00H, 'U', 00H, 'T', 00H, 'H', 00H, 00H, 00H
$SG169152 DB	'T', 00H, 'h', 00H, 'e', 00H, ' ', 00H, 'p', 00H, 'u', 00H
	DB	's', 00H, 'h', 00H, ' ', 00H, 'a', 00H, 'n', 00H, 'd', 00H, ' '
	DB	00H, 'p', 00H, 'o', 00H, 'p', 00H, ' ', 00H, 'c', 00H, 'a', 00H
	DB	'l', 00H, 'l', 00H, 's', 00H, ' ', 00H, 'w', 00H, 'e', 00H, 'r'
	DB	00H, 'e', 00H, ' ', 00H, 'u', 00H, 'n', 00H, 'b', 00H, 'a', 00H
	DB	'l', 00H, 'a', 00H, 'n', 00H, 'c', 00H, 'e', 00H, 'd', 00H, 00H
	DB	00H
	ORG $+2
$SG158912 DB	'E', 00H, 'R', 00H, 'R', 00H, 'O', 00H, 'R', 00H, '_', 00H
	DB	'B', 00H, 'A', 00H, 'D', 00H, '_', 00H, 'P', 00H, 'R', 00H, 'O'
	DB	00H, 'V', 00H, 'I', 00H, 'D', 00H, 'E', 00H, 'R', 00H, 00H, 00H
	ORG $+2
$SG157888 DB	'E', 00H, 'R', 00H, 'R', 00H, 'O', 00H, 'R', 00H, '_', 00H
	DB	'I', 00H, 'N', 00H, 'V', 00H, 'A', 00H, 'L', 00H, 'I', 00H, 'D'
	DB	00H, '_', 00H, 'E', 00H, 'V', 00H, 'E', 00H, 'N', 00H, 'T', 00H
	DB	'_', 00H, 'C', 00H, 'O', 00H, 'U', 00H, 'N', 00H, 'T', 00H, 00H
	DB	00H
$SG156864 DB	'T', 00H, 'R', 00H, 'U', 00H, 'S', 00H, 'T', 00H, '_', 00H
	DB	'E', 00H, '_', 00H, 'C', 00H, 'E', 00H, 'R', 00H, 'T', 00H, '_'
	DB	00H, 'S', 00H, 'I', 00H, 'G', 00H, 'N', 00H, 'A', 00H, 'T', 00H
	DB	'U', 00H, 'R', 00H, 'E', 00H, 00H, 00H
	ORG $+2
$SG159937 DB	'E', 00H, 'R', 00H, 'R', 00H, 'O', 00H, 'R', 00H, '_', 00H
	DB	'T', 00H, 'I', 00H, 'M', 00H, 'E', 00H, 'O', 00H, 'U', 00H, 'T'
	DB	00H, 00H, 00H
$SG155841 DB	'C', 00H, 'O', 00H, '_', 00H, 'E', 00H, '_', 00H, 'A', 00H
	DB	'P', 00H, 'P', 00H, 'D', 00H, 'I', 00H, 'D', 00H, 'N', 00H, 'T'
	DB	00H, 'R', 00H, 'E', 00H, 'G', 00H, 00H, 00H
	ORG $+2
$SG168130 DB	'W', 00H, 'I', 00H, 'N', 00H, 'C', 00H, 'O', 00H, 'D', 00H
	DB	'E', 00H, 'C', 00H, '_', 00H, 'E', 00H, 'R', 00H, 'R', 00H, '_'
	DB	00H, 'N', 00H, 'O', 00H, 'T', 00H, 'I', 00H, 'N', 00H, 'I', 00H
	DB	'T', 00H, 'I', 00H, 'A', 00H, 'L', 00H, 'I', 00H, 'Z', 00H, 'E'
	DB	00H, 'D', 00H, 00H, 00H
$SG165058 DB	'R', 00H, 'P', 00H, 'C', 00H, '_', 00H, 'S', 00H, '_', 00H
	DB	'N', 00H, 'O', 00H, 'T', 00H, '_', 00H, 'A', 00H, 'L', 00H, 'L'
	DB	00H, '_', 00H, 'O', 00H, 'B', 00H, 'J', 00H, 'S', 00H, '_', 00H
	DB	'E', 00H, 'X', 00H, 'P', 00H, 'O', 00H, 'R', 00H, 'T', 00H, 'E'
	DB	00H, 'D', 00H, 00H, 00H
$SG164034 DB	'S', 00H, 'E', 00H, 'C', 00H, '_', 00H, 'E', 00H, '_', 00H
	DB	'B', 00H, 'A', 00H, 'D', 00H, '_', 00H, 'P', 00H, 'K', 00H, 'G'
	DB	00H, 'I', 00H, 'D', 00H, 00H, 00H
$SG155844 DB	'C', 00H, 'O', 00H, '_', 00H, 'E', 00H, '_', 00H, 'R', 00H
	DB	'E', 00H, 'L', 00H, 'E', 00H, 'A', 00H, 'S', 00H, 'E', 00H, 'D'
	DB	00H, 00H, 00H
$SG160962 DB	'E', 00H, 'R', 00H, 'R', 00H, 'O', 00H, 'R', 00H, '_', 00H
	DB	'P', 00H, 'R', 00H, 'I', 00H, 'N', 00H, 'T', 00H, '_', 00H, 'M'
	DB	00H, 'O', 00H, 'N', 00H, 'I', 00H, 'T', 00H, 'O', 00H, 'R', 00H
	DB	'_', 00H, 'A', 00H, 'L', 00H, 'R', 00H, 'E', 00H, 'A', 00H, 'D'
	DB	00H, 'Y', 00H, '_', 00H, 'I', 00H, 'N', 00H, 'S', 00H, 'T', 00H
	DB	'A', 00H, 'L', 00H, 'L', 00H, 'E', 00H, 'D', 00H, 00H, 00H
$SG164037 DB	'S', 00H, 'E', 00H, 'C', 00H, '_', 00H, 'E', 00H, '_', 00H
	DB	'C', 00H, 'O', 00H, 'N', 00H, 'T', 00H, 'E', 00H, 'X', 00H, 'T'
	DB	00H, '_', 00H, 'E', 00H, 'X', 00H, 'P', 00H, 'I', 00H, 'R', 00H
	DB	'E', 00H, 'D', 00H, 00H, 00H
$SG169155 DB	'A', 00H, 't', 00H, 't', 00H, 'e', 00H, 'm', 00H, 'p', 00H
	DB	't', 00H, ' ', 00H, 't', 00H, 'o', 00H, ' ', 00H, 'c', 00H, 'o'
	DB	00H, 'p', 00H, 'y', 00H, ' ', 00H, 'f', 00H, 'r', 00H, 'o', 00H
	DB	'm', 00H, ' ', 00H, 'a', 00H, ' ', 00H, 'r', 00H, 'e', 00H, 'n'
	DB	00H, 'd', 00H, 'e', 00H, 'r', 00H, ' ', 00H, 't', 00H, 'a', 00H
	DB	'r', 00H, 'g', 00H, 'e', 00H, 't', 00H, ' ', 00H, 'w', 00H, 'h'
	DB	00H, 'i', 00H, 'l', 00H, 'e', 00H, ' ', 00H, 'a', 00H, ' ', 00H
	DB	'l', 00H, 'a', 00H, 'y', 00H, 'e', 00H, 'r', 00H, ' ', 00H, 'o'
	DB	00H, 'r', 00H, ' ', 00H, 'c', 00H, 'l', 00H, 'i', 00H, 'p', 00H
	DB	' ', 00H, 'r', 00H, 'e', 00H, 'c', 00H, 't', 00H, ' ', 00H, 'i'
	DB	00H, 's', 00H, ' ', 00H, 'a', 00H, 'p', 00H, 'p', 00H, 'l', 00H
	DB	'i', 00H, 'e', 00H, 'd', 00H, 00H, 00H
	ORG $+2
$SG166083 DB	'E', 00H, 'R', 00H, 'R', 00H, 'O', 00H, 'R', 00H, '_', 00H
	DB	'D', 00H, 'S', 00H, '_', 00H, 'M', 00H, 'O', 00H, 'D', 00H, 'I'
	DB	00H, 'F', 00H, 'Y', 00H, 'D', 00H, 'N', 00H, '_', 00H, 'D', 00H
	DB	'I', 00H, 'S', 00H, 'A', 00H, 'L', 00H, 'L', 00H, 'O', 00H, 'W'
	DB	00H, 'E', 00H, 'D', 00H, '_', 00H, 'B', 00H, 'Y', 00H, '_', 00H
	DB	'I', 00H, 'N', 00H, 'S', 00H, 'T', 00H, 'A', 00H, 'N', 00H, 'C'
	DB	00H, 'E', 00H, '_', 00H, 'T', 00H, 'Y', 00H, 'P', 00H, 'E', 00H
	DB	00H, 00H
$SG161987 DB	'E', 00H, 'R', 00H, 'R', 00H, 'O', 00H, 'R', 00H, '_', 00H
	DB	'D', 00H, 'S', 00H, '_', 00H, 'A', 00H, 'L', 00H, 'I', 00H, 'A'
	DB	00H, 'S', 00H, '_', 00H, 'P', 00H, 'R', 00H, 'O', 00H, 'B', 00H
	DB	'L', 00H, 'E', 00H, 'M', 00H, 00H, 00H
	ORG $+2
$SG156867 DB	'T', 00H, 'R', 00H, 'U', 00H, 'S', 00H, 'T', 00H, '_', 00H
	DB	'E', 00H, '_', 00H, 'T', 00H, 'I', 00H, 'M', 00H, 'E', 00H, '_'
	DB	00H, 'S', 00H, 'T', 00H, 'A', 00H, 'M', 00H, 'P', 00H, 00H, 00H
	ORG $+2
$SG167108 DB	'E', 00H, 'R', 00H, 'R', 00H, 'O', 00H, 'R', 00H, '_', 00H
	DB	'I', 00H, 'P', 00H, 'S', 00H, 'E', 00H, 'C', 00H, '_', 00H, 'I'
	DB	00H, 'K', 00H, 'E', 00H, '_', 00H, 'S', 00H, 'R', 00H, 'V', 00H
	DB	'A', 00H, 'C', 00H, 'Q', 00H, 'F', 00H, 'A', 00H, 'I', 00H, 'L'
	DB	00H, 00H, 00H
	ORG $+2
$SG163012 DB	'D', 00H, 'N', 00H, 'S', 00H, '_', 00H, 'E', 00H, 'R', 00H
	DB	'R', 00H, 'O', 00H, 'R', 00H, '_', 00H, 'R', 00H, 'C', 00H, 'O'
	DB	00H, 'D', 00H, 'E', 00H, '_', 00H, 'N', 00H, 'O', 00H, 'T', 00H
	DB	'Z', 00H, 'O', 00H, 'N', 00H, 'E', 00H, 00H, 00H
$SG168133 DB	'W', 00H, 'I', 00H, 'N', 00H, 'C', 00H, 'O', 00H, 'D', 00H
	DB	'E', 00H, 'C', 00H, '_', 00H, 'E', 00H, 'R', 00H, 'R', 00H, '_'
	DB	00H, 'A', 00H, 'L', 00H, 'R', 00H, 'E', 00H, 'A', 00H, 'D', 00H
	DB	'Y', 00H, 'L', 00H, 'O', 00H, 'C', 00H, 'K', 00H, 'E', 00H, 'D'
	DB	00H, 00H, 00H
	ORG $+2
$SG158917 DB	'E', 00H, 'R', 00H, 'R', 00H, 'O', 00H, 'R', 00H, '_', 00H
	DB	'C', 00H, 'A', 00H, 'N', 00H, 'N', 00H, 'O', 00H, 'T', 00H, '_'
	DB	00H, 'O', 00H, 'P', 00H, 'E', 00H, 'N', 00H, '_', 00H, 'P', 00H
	DB	'R', 00H, 'O', 00H, 'F', 00H, 'I', 00H, 'L', 00H, 'E', 00H, 00H
	DB	00H
$SG157893 DB	'E', 00H, 'R', 00H, 'R', 00H, 'O', 00H, 'R', 00H, '_', 00H
	DB	'T', 00H, 'O', 00H, 'O', 00H, '_', 00H, 'M', 00H, 'A', 00H, 'N'
	DB	00H, 'Y', 00H, '_', 00H, 'M', 00H, 'U', 00H, 'X', 00H, 'W', 00H
	DB	'A', 00H, 'I', 00H, 'T', 00H, 'E', 00H, 'R', 00H, 'S', 00H, 00H
	DB	00H
$SG159942 DB	'E', 00H, 'R', 00H, 'R', 00H, 'O', 00H, 'R', 00H, '_', 00H
	DB	'I', 00H, 'N', 00H, 'V', 00H, 'A', 00H, 'L', 00H, 'I', 00H, 'D'
	DB	00H, '_', 00H, 'M', 00H, 'O', 00H, 'N', 00H, 'I', 00H, 'T', 00H
	DB	'O', 00H, 'R', 00H, '_', 00H, 'H', 00H, 'A', 00H, 'N', 00H, 'D'
	DB	00H, 'L', 00H, 'E', 00H, 00H, 00H
	ORG $+2
$SG169158 DB	'T', 00H, 'h', 00H, 'e', 00H, ' ', 00H, 'b', 00H, 'r', 00H
	DB	'u', 00H, 's', 00H, 'h', 00H, ' ', 00H, 't', 00H, 'y', 00H, 'p'
	DB	00H, 'e', 00H, 's', 00H, ' ', 00H, 'a', 00H, 'r', 00H, 'e', 00H
	DB	' ', 00H, 'i', 00H, 'n', 00H, 'c', 00H, 'o', 00H, 'm', 00H, 'p'
	DB	00H, 'a', 00H, 't', 00H, 'i', 00H, 'b', 00H, 'l', 00H, 'e', 00H
	DB	' ', 00H, 'f', 00H, 'o', 00H, 'r', 00H, ' ', 00H, 't', 00H, 'h'
	DB	00H, 'e', 00H, ' ', 00H, 'c', 00H, 'a', 00H, 'l', 00H, 'l', 00H
	DB	'.', 00H, 00H, 00H
	ORG $+2
$SG156870 DB	'T', 00H, 'R', 00H, 'U', 00H, 'S', 00H, 'T', 00H, '_', 00H
	DB	'E', 00H, '_', 00H, 'B', 00H, 'A', 00H, 'D', 00H, '_', 00H, 'D'
	DB	00H, 'I', 00H, 'G', 00H, 'E', 00H, 'S', 00H, 'T', 00H, 00H, 00H
	ORG $+2
$SG165063 DB	'R', 00H, 'P', 00H, 'C', 00H, '_', 00H, 'S', 00H, '_', 00H
	DB	'I', 00H, 'N', 00H, 'T', 00H, 'E', 00H, 'R', 00H, 'F', 00H, 'A'
	DB	00H, 'C', 00H, 'E', 00H, '_', 00H, 'N', 00H, 'O', 00H, 'T', 00H
	DB	'_', 00H, 'E', 00H, 'X', 00H, 'P', 00H, 'O', 00H, 'R', 00H, 'T'
	DB	00H, 'E', 00H, 'D', 00H, 00H, 00H
	ORG $+2
$SG160967 DB	'E', 00H, 'R', 00H, 'R', 00H, 'O', 00H, 'R', 00H, '_', 00H
	DB	'I', 00H, 'N', 00H, 'V', 00H, 'A', 00H, 'L', 00H, 'I', 00H, 'D'
	DB	00H, '_', 00H, 'P', 00H, 'R', 00H, 'I', 00H, 'N', 00H, 'T', 00H
	DB	'_', 00H, 'M', 00H, 'O', 00H, 'N', 00H, 'I', 00H, 'T', 00H, 'O'
	DB	00H, 'R', 00H, 00H, 00H
$SG155847 DB	'O', 00H, 'L', 00H, 'E', 00H, '_', 00H, 'S', 00H, '_', 00H
	DB	'S', 00H, 'T', 00H, 'A', 00H, 'T', 00H, 'I', 00H, 'C', 00H, 00H
	DB	00H
	ORG $+2
$SG168136 DB	'W', 00H, 'I', 00H, 'N', 00H, 'C', 00H, 'O', 00H, 'D', 00H
	DB	'E', 00H, 'C', 00H, '_', 00H, 'E', 00H, 'R', 00H, 'R', 00H, '_'
	DB	00H, 'P', 00H, 'R', 00H, 'O', 00H, 'P', 00H, 'E', 00H, 'R', 00H
	DB	'T', 00H, 'Y', 00H, 'N', 00H, 'O', 00H, 'T', 00H, 'F', 00H, 'O'
	DB	00H, 'U', 00H, 'N', 00H, 'D', 00H, 00H, 00H
$SG164040 DB	'S', 00H, 'E', 00H, 'C', 00H, '_', 00H, 'I', 00H, '_', 00H
	DB	'C', 00H, 'O', 00H, 'N', 00H, 'T', 00H, 'E', 00H, 'X', 00H, 'T'
	DB	00H, '_', 00H, 'E', 00H, 'X', 00H, 'P', 00H, 'I', 00H, 'R', 00H
	DB	'E', 00H, 'D', 00H, 00H, 00H
$SG166088 DB	'E', 00H, 'R', 00H, 'R', 00H, 'O', 00H, 'R', 00H, '_', 00H
	DB	'D', 00H, 'S', 00H, '_', 00H, 'N', 00H, 'O', 00H, '_', 00H, 'O'
	DB	00H, 'B', 00H, 'J', 00H, 'E', 00H, 'C', 00H, 'T', 00H, '_', 00H
	DB	'M', 00H, 'O', 00H, 'V', 00H, 'E', 00H, '_', 00H, 'I', 00H, 'N'
	DB	00H, '_', 00H, 'S', 00H, 'C', 00H, 'H', 00H, 'E', 00H, 'M', 00H
	DB	'A', 00H, '_', 00H, 'N', 00H, 'C', 00H, 00H, 00H
	ORG $+2
$SG161992 DB	'E', 00H, 'R', 00H, 'R', 00H, 'O', 00H, 'R', 00H, '_', 00H
	DB	'D', 00H, 'S', 00H, '_', 00H, 'I', 00H, 'N', 00H, 'V', 00H, 'A'
	DB	00H, 'L', 00H, 'I', 00H, 'D', 00H, '_', 00H, 'D', 00H, 'N', 00H
	DB	'_', 00H, 'S', 00H, 'Y', 00H, 'N', 00H, 'T', 00H, 'A', 00H, 'X'
	DB	00H, 00H, 00H
	ORG $+2
$SG167113 DB	'E', 00H, 'R', 00H, 'R', 00H, 'O', 00H, 'R', 00H, '_', 00H
	DB	'I', 00H, 'P', 00H, 'S', 00H, 'E', 00H, 'C', 00H, '_', 00H, 'I'
	DB	00H, 'K', 00H, 'E', 00H, '_', 00H, 'S', 00H, 'R', 00H, 'V', 00H
	DB	'Q', 00H, 'U', 00H, 'E', 00H, 'R', 00H, 'Y', 00H, 'C', 00H, 'R'
	DB	00H, 'E', 00H, 'D', 00H, 00H, 00H
	ORG $+2
$SG169161 DB	'A', 00H, 'n', 00H, ' ', 00H, 'u', 00H, 'n', 00H, 'k', 00H
	DB	'n', 00H, 'o', 00H, 'w', 00H, 'n', 00H, ' ', 00H, 'w', 00H, 'i'
	DB	00H, 'n', 00H, '3', 00H, '2', 00H, ' ', 00H, 'f', 00H, 'a', 00H
	DB	'i', 00H, 'l', 00H, 'u', 00H, 'r', 00H, 'e', 00H, ' ', 00H, 'o'
	DB	00H, 'c', 00H, 'c', 00H, 'u', 00H, 'r', 00H, 'r', 00H, 'e', 00H
	DB	'd', 00H, '.', 00H, 00H, 00H
	ORG $+2
$SG163017 DB	'D', 00H, 'N', 00H, 'S', 00H, '_', 00H, 'E', 00H, 'R', 00H
	DB	'R', 00H, 'O', 00H, 'R', 00H, '_', 00H, 'R', 00H, 'C', 00H, 'O'
	DB	00H, 'D', 00H, 'E', 00H, '_', 00H, 'B', 00H, 'A', 00H, 'D', 00H
	DB	'S', 00H, 'I', 00H, 'G', 00H, 00H, 00H
	ORG $+2
$SG156873 DB	'T', 00H, 'R', 00H, 'U', 00H, 'S', 00H, 'T', 00H, '_', 00H
	DB	'E', 00H, '_', 00H, 'B', 00H, 'A', 00H, 'S', 00H, 'I', 00H, 'C'
	DB	00H, '_', 00H, 'C', 00H, 'O', 00H, 'N', 00H, 'S', 00H, 'T', 00H
	DB	'R', 00H, 'A', 00H, 'I', 00H, 'N', 00H, 'T', 00H, 'S', 00H, 00H
	DB	00H
$SG158922 DB	'E', 00H, 'R', 00H, 'R', 00H, 'O', 00H, 'R', 00H, '_', 00H
	DB	'B', 00H, 'A', 00H, 'D', 00H, '_', 00H, 'P', 00H, 'R', 00H, 'O'
	DB	00H, 'F', 00H, 'I', 00H, 'L', 00H, 'E', 00H, 00H, 00H
$SG157898 DB	'E', 00H, 'R', 00H, 'R', 00H, 'O', 00H, 'R', 00H, '_', 00H
	DB	'I', 00H, 'N', 00H, 'V', 00H, 'A', 00H, 'L', 00H, 'I', 00H, 'D'
	DB	00H, '_', 00H, 'L', 00H, 'I', 00H, 'S', 00H, 'T', 00H, '_', 00H
	DB	'F', 00H, 'O', 00H, 'R', 00H, 'M', 00H, 'A', 00H, 'T', 00H, 00H
	DB	00H
$SG155850 DB	'O', 00H, 'L', 00H, 'E', 00H, '_', 00H, 'S', 00H, '_', 00H
	DB	'M', 00H, 'A', 00H, 'C', 00H, '_', 00H, 'C', 00H, 'L', 00H, 'I'
	DB	00H, 'P', 00H, 'F', 00H, 'O', 00H, 'R', 00H, 'M', 00H, 'A', 00H
	DB	'T', 00H, 00H, 00H
	ORG $+2
$SG168139 DB	'W', 00H, 'I', 00H, 'N', 00H, 'C', 00H, 'O', 00H, 'D', 00H
	DB	'E', 00H, 'C', 00H, '_', 00H, 'E', 00H, 'R', 00H, 'R', 00H, '_'
	DB	00H, 'P', 00H, 'R', 00H, 'O', 00H, 'P', 00H, 'E', 00H, 'R', 00H
	DB	'T', 00H, 'Y', 00H, 'N', 00H, 'O', 00H, 'T', 00H, 'S', 00H, 'U'
	DB	00H, 'P', 00H, 'P', 00H, 'O', 00H, 'R', 00H, 'T', 00H, 'E', 00H
	DB	'D', 00H, 00H, 00H
$SG164043 DB	'S', 00H, 'E', 00H, 'C', 00H, '_', 00H, 'E', 00H, '_', 00H
	DB	'I', 00H, 'N', 00H, 'C', 00H, 'O', 00H, 'M', 00H, 'P', 00H, 'L'
	DB	00H, 'E', 00H, 'T', 00H, 'E', 00H, '_', 00H, 'M', 00H, 'E', 00H
	DB	'S', 00H, 'S', 00H, 'A', 00H, 'G', 00H, 'E', 00H, 00H, 00H
	ORG $+2
$SG159947 DB	'E', 00H, 'R', 00H, 'R', 00H, 'O', 00H, 'R', 00H, '_', 00H
	DB	'E', 00H, 'V', 00H, 'E', 00H, 'N', 00H, 'T', 00H, 'L', 00H, 'O'
	DB	00H, 'G', 00H, '_', 00H, 'F', 00H, 'I', 00H, 'L', 00H, 'E', 00H
	DB	'_', 00H, 'C', 00H, 'O', 00H, 'R', 00H, 'R', 00H, 'U', 00H, 'P'
	DB	00H, 'T', 00H, 00H, 00H
$SG169164 DB	'T', 00H, 'h', 00H, 'e', 00H, ' ', 00H, 'r', 00H, 'e', 00H
	DB	'n', 00H, 'd', 00H, 'e', 00H, 'r', 00H, ' ', 00H, 't', 00H, 'a'
	DB	00H, 'r', 00H, 'g', 00H, 'e', 00H, 't', 00H, ' ', 00H, 'i', 00H
	DB	's', 00H, ' ', 00H, 'n', 00H, 'o', 00H, 't', 00H, ' ', 00H, 'c'
	DB	00H, 'o', 00H, 'm', 00H, 'p', 00H, 'a', 00H, 't', 00H, 'i', 00H
	DB	'b', 00H, 'l', 00H, 'e', 00H, ' ', 00H, 'w', 00H, 'i', 00H, 't'
	DB	00H, 'h', 00H, ' ', 00H, 'G', 00H, 'D', 00H, 'I', 00H, 00H, 00H
	ORG $+2
$SG165068 DB	'R', 00H, 'P', 00H, 'C', 00H, '_', 00H, 'S', 00H, '_', 00H
	DB	'P', 00H, 'R', 00H, 'O', 00H, 'F', 00H, 'I', 00H, 'L', 00H, 'E'
	DB	00H, '_', 00H, 'N', 00H, 'O', 00H, 'T', 00H, '_', 00H, 'A', 00H
	DB	'D', 00H, 'D', 00H, 'E', 00H, 'D', 00H, 00H, 00H
$SG160972 DB	'E', 00H, 'R', 00H, 'R', 00H, 'O', 00H, 'R', 00H, '_', 00H
	DB	'P', 00H, 'R', 00H, 'I', 00H, 'N', 00H, 'T', 00H, '_', 00H, 'M'
	DB	00H, 'O', 00H, 'N', 00H, 'I', 00H, 'T', 00H, 'O', 00H, 'R', 00H
	DB	'_', 00H, 'I', 00H, 'N', 00H, '_', 00H, 'U', 00H, 'S', 00H, 'E'
	DB	00H, 00H, 00H
	ORG $+2
$SG156876 DB	'T', 00H, 'R', 00H, 'U', 00H, 'S', 00H, 'T', 00H, '_', 00H
	DB	'E', 00H, '_', 00H, 'F', 00H, 'I', 00H, 'N', 00H, 'A', 00H, 'N'
	DB	00H, 'C', 00H, 'I', 00H, 'A', 00H, 'L', 00H, '_', 00H, 'C', 00H
	DB	'R', 00H, 'I', 00H, 'T', 00H, 'E', 00H, 'R', 00H, 'I', 00H, 'A'
	DB	00H, 00H, 00H
	ORG $+2
$SG161997 DB	'E', 00H, 'R', 00H, 'R', 00H, 'O', 00H, 'R', 00H, '_', 00H
	DB	'D', 00H, 'S', 00H, '_', 00H, 'I', 00H, 'S', 00H, '_', 00H, 'L'
	DB	00H, 'E', 00H, 'A', 00H, 'F', 00H, 00H, 00H
	ORG $+2
$SG166093 DB	'E', 00H, 'R', 00H, 'R', 00H, 'O', 00H, 'R', 00H, '_', 00H
	DB	'D', 00H, 'S', 00H, '_', 00H, 'M', 00H, 'O', 00H, 'D', 00H, 'I'
	DB	00H, 'F', 00H, 'Y', 00H, 'D', 00H, 'N', 00H, '_', 00H, 'D', 00H
	DB	'I', 00H, 'S', 00H, 'A', 00H, 'L', 00H, 'L', 00H, 'O', 00H, 'W'
	DB	00H, 'E', 00H, 'D', 00H, '_', 00H, 'B', 00H, 'Y', 00H, '_', 00H
	DB	'F', 00H, 'L', 00H, 'A', 00H, 'G', 00H, 00H, 00H
	ORG $+2
$SG155853 DB	'D', 00H, 'R', 00H, 'A', 00H, 'G', 00H, 'D', 00H, 'R', 00H
	DB	'O', 00H, 'P', 00H, '_', 00H, 'S', 00H, '_', 00H, 'C', 00H, 'A'
	DB	00H, 'N', 00H, 'C', 00H, 'E', 00H, 'L', 00H, 00H, 00H
$SG168142 DB	'W', 00H, 'I', 00H, 'N', 00H, 'C', 00H, 'O', 00H, 'D', 00H
	DB	'E', 00H, 'C', 00H, '_', 00H, 'E', 00H, 'R', 00H, 'R', 00H, '_'
	DB	00H, 'P', 00H, 'R', 00H, 'O', 00H, 'P', 00H, 'E', 00H, 'R', 00H
	DB	'T', 00H, 'Y', 00H, 'S', 00H, 'I', 00H, 'Z', 00H, 'E', 00H, 00H
	DB	00H
$SG167118 DB	'E', 00H, 'R', 00H, 'R', 00H, 'O', 00H, 'R', 00H, '_', 00H
	DB	'I', 00H, 'P', 00H, 'S', 00H, 'E', 00H, 'C', 00H, '_', 00H, 'I'
	DB	00H, 'K', 00H, 'E', 00H, '_', 00H, 'G', 00H, 'E', 00H, 'T', 00H
	DB	'S', 00H, 'P', 00H, 'I', 00H, 'F', 00H, 'A', 00H, 'I', 00H, 'L'
	DB	00H, 00H, 00H
	ORG $+2
$SG164046 DB	'S', 00H, 'E', 00H, 'C', 00H, '_', 00H, 'E', 00H, '_', 00H
	DB	'I', 00H, 'N', 00H, 'C', 00H, 'O', 00H, 'M', 00H, 'P', 00H, 'L'
	DB	00H, 'E', 00H, 'T', 00H, 'E', 00H, '_', 00H, 'C', 00H, 'R', 00H
	DB	'E', 00H, 'D', 00H, 'E', 00H, 'N', 00H, 'T', 00H, 'I', 00H, 'A'
	DB	00H, 'L', 00H, 'S', 00H, 00H, 00H
	ORG $+2
$SG163022 DB	'D', 00H, 'N', 00H, 'S', 00H, '_', 00H, 'E', 00H, 'R', 00H
	DB	'R', 00H, 'O', 00H, 'R', 00H, '_', 00H, 'R', 00H, 'C', 00H, 'O'
	DB	00H, 'D', 00H, 'E', 00H, '_', 00H, 'B', 00H, 'A', 00H, 'D', 00H
	DB	'K', 00H, 'E', 00H, 'Y', 00H, 00H, 00H
	ORG $+2
$SG169167 DB	'A', 00H, ' ', 00H, 't', 00H, 'e', 00H, 'x', 00H, 't', 00H
	DB	' ', 00H, 'c', 00H, 'l', 00H, 'i', 00H, 'e', 00H, 'n', 00H, 't'
	DB	00H, ' ', 00H, 'd', 00H, 'r', 00H, 'a', 00H, 'w', 00H, 'i', 00H
	DB	'n', 00H, 'g', 00H, ' ', 00H, 'e', 00H, 'f', 00H, 'f', 00H, 'e'
	DB	00H, 'c', 00H, 't', 00H, ' ', 00H, 'o', 00H, 'b', 00H, 'j', 00H
	DB	'e', 00H, 'c', 00H, 't', 00H, ' ', 00H, 'i', 00H, 's', 00H, ' '
	DB	00H, 'o', 00H, 'f', 00H, ' ', 00H, 't', 00H, 'h', 00H, 'e', 00H
	DB	' ', 00H, 'w', 00H, 'r', 00H, 'o', 00H, 'n', 00H, 'g', 00H, ' '
	DB	00H, 't', 00H, 'y', 00H, 'p', 00H, 'e', 00H, 00H, 00H
	ORG $+2
$SG158927 DB	'E', 00H, 'R', 00H, 'R', 00H, 'O', 00H, 'R', 00H, '_', 00H
	DB	'N', 00H, 'O', 00H, 'T', 00H, '_', 00H, 'C', 00H, 'O', 00H, 'N'
	DB	00H, 'T', 00H, 'A', 00H, 'I', 00H, 'N', 00H, 'E', 00H, 'R', 00H
	DB	00H, 00H
$SG157903 DB	'E', 00H, 'R', 00H, 'R', 00H, 'O', 00H, 'R', 00H, '_', 00H
	DB	'L', 00H, 'A', 00H, 'B', 00H, 'E', 00H, 'L', 00H, '_', 00H, 'T'
	DB	00H, 'O', 00H, 'O', 00H, '_', 00H, 'L', 00H, 'O', 00H, 'N', 00H
	DB	'G', 00H, 00H, 00H
	ORG $+2
$SG156879 DB	'T', 00H, 'R', 00H, 'U', 00H, 'S', 00H, 'T', 00H, '_', 00H
	DB	'E', 00H, '_', 00H, 'P', 00H, 'R', 00H, 'O', 00H, 'V', 00H, 'I'
	DB	00H, 'D', 00H, 'E', 00H, 'R', 00H, '_', 00H, 'U', 00H, 'N', 00H
	DB	'K', 00H, 'N', 00H, 'O', 00H, 'W', 00H, 'N', 00H, 00H, 00H
	ORG $+2
$SG159952 DB	'E', 00H, 'R', 00H, 'R', 00H, 'O', 00H, 'R', 00H, '_', 00H
	DB	'E', 00H, 'V', 00H, 'E', 00H, 'N', 00H, 'T', 00H, 'L', 00H, 'O'
	DB	00H, 'G', 00H, '_', 00H, 'C', 00H, 'A', 00H, 'N', 00H, 'T', 00H
	DB	'_', 00H, 'S', 00H, 'T', 00H, 'A', 00H, 'R', 00H, 'T', 00H, 00H
	DB	00H
$SG155856 DB	'D', 00H, 'R', 00H, 'A', 00H, 'G', 00H, 'D', 00H, 'R', 00H
	DB	'O', 00H, 'P', 00H, '_', 00H, 'S', 00H, '_', 00H, 'U', 00H, 'S'
	DB	00H, 'E', 00H, 'D', 00H, 'E', 00H, 'F', 00H, 'A', 00H, 'U', 00H
	DB	'L', 00H, 'T', 00H, 'C', 00H, 'U', 00H, 'R', 00H, 'S', 00H, 'O'
	DB	00H, 'R', 00H, 'S', 00H, 00H, 00H
	ORG $+2
$SG168145 DB	'W', 00H, 'I', 00H, 'N', 00H, 'C', 00H, 'O', 00H, 'D', 00H
	DB	'E', 00H, 'C', 00H, '_', 00H, 'E', 00H, 'R', 00H, 'R', 00H, '_'
	DB	00H, 'C', 00H, 'O', 00H, 'D', 00H, 'E', 00H, 'C', 00H, 'P', 00H
	DB	'R', 00H, 'E', 00H, 'S', 00H, 'E', 00H, 'N', 00H, 'T', 00H, 00H
	DB	00H
$SG165073 DB	'R', 00H, 'P', 00H, 'C', 00H, '_', 00H, 'S', 00H, '_', 00H
	DB	'P', 00H, 'R', 00H, 'F', 00H, '_', 00H, 'E', 00H, 'L', 00H, 'T'
	DB	00H, '_', 00H, 'N', 00H, 'O', 00H, 'T', 00H, '_', 00H, 'A', 00H
	DB	'D', 00H, 'D', 00H, 'E', 00H, 'D', 00H, 00H, 00H
$SG164049 DB	'S', 00H, 'E', 00H, 'C', 00H, '_', 00H, 'E', 00H, '_', 00H
	DB	'B', 00H, 'U', 00H, 'F', 00H, 'F', 00H, 'E', 00H, 'R', 00H, '_'
	DB	00H, 'T', 00H, 'O', 00H, 'O', 00H, '_', 00H, 'S', 00H, 'M', 00H
	DB	'A', 00H, 'L', 00H, 'L', 00H, 00H, 00H
	ORG $+2
$SG160977 DB	'E', 00H, 'R', 00H, 'R', 00H, 'O', 00H, 'R', 00H, '_', 00H
	DB	'P', 00H, 'R', 00H, 'I', 00H, 'N', 00H, 'T', 00H, 'E', 00H, 'R'
	DB	00H, '_', 00H, 'H', 00H, 'A', 00H, 'S', 00H, '_', 00H, 'J', 00H
	DB	'O', 00H, 'B', 00H, 'S', 00H, '_', 00H, 'Q', 00H, 'U', 00H, 'E'
	DB	00H, 'U', 00H, 'E', 00H, 'D', 00H, 00H, 00H
$SG162002 DB	'E', 00H, 'R', 00H, 'R', 00H, 'O', 00H, 'R', 00H, '_', 00H
	DB	'D', 00H, 'S', 00H, '_', 00H, 'A', 00H, 'L', 00H, 'I', 00H, 'A'
	DB	00H, 'S', 00H, '_', 00H, 'D', 00H, 'E', 00H, 'R', 00H, 'E', 00H
	DB	'F', 00H, '_', 00H, 'P', 00H, 'R', 00H, 'O', 00H, 'B', 00H, 'L'
	DB	00H, 'E', 00H, 'M', 00H, 00H, 00H
	ORG $+2
$SG169170 DB	'T', 00H, 'h', 00H, 'e', 00H, ' ', 00H, 'a', 00H, 'p', 00H
	DB	'p', 00H, 'l', 00H, 'i', 00H, 'c', 00H, 'a', 00H, 't', 00H, 'i'
	DB	00H, 'o', 00H, 'n', 00H, ' ', 00H, 'i', 00H, 's', 00H, ' ', 00H
	DB	'h', 00H, 'o', 00H, 'l', 00H, 'd', 00H, 'i', 00H, 'n', 00H, 'g'
	DB	00H, ' ', 00H, 'a', 00H, ' ', 00H, 'r', 00H, 'e', 00H, 'f', 00H
	DB	'e', 00H, 'r', 00H, 'e', 00H, 'n', 00H, 'c', 00H, 'e', 00H, ' '
	DB	00H, 't', 00H, 'o', 00H, ' ', 00H, 't', 00H, 'h', 00H, 'e', 00H
	DB	' ', 00H, 'I', 00H, 'D', 00H, 'W', 00H, 'r', 00H, 'i', 00H, 't'
	DB	00H, 'e', 00H, 'T', 00H, 'e', 00H, 'x', 00H, 't', 00H, 'R', 00H
	DB	'e', 00H, 'n', 00H, 'd', 00H, 'e', 00H, 'r', 00H, 'e', 00H, 'r'
	DB	00H, ' ', 00H, 'i', 00H, 'n', 00H, 't', 00H, 'e', 00H, 'r', 00H
	DB	'f', 00H, 'a', 00H, 'c', 00H, 'e', 00H, ' ', 00H, 'a', 00H, 'f'
	DB	00H, 't', 00H, 'e', 00H, 'r', 00H, ' ', 00H, 't', 00H, 'h', 00H
	DB	'e', 00H, ' ', 00H, 'c', 00H, 'o', 00H, 'r', 00H, 'r', 00H, 'e'
	DB	00H, 's', 00H, 'p', 00H, 'o', 00H, 'n', 00H, 'd', 00H, 'i', 00H
	DB	'n', 00H, 'g', 00H, ' ', 00H, 'D', 00H, 'r', 00H, 'a', 00H, 'w'
	DB	00H, 'T', 00H, 'e', 00H, 'x', 00H, 't', 00H, ' ', 00H, 'o', 00H
	DB	'r', 00H, ' ', 00H, 'D', 00H, 'r', 00H, 'a', 00H, 'w', 00H, 'T'
	DB	00H, 'e', 00H, 'x', 00H, 't', 00H, 'L', 00H, 'a', 00H, 'y', 00H
	DB	'o', 00H, 'u', 00H, 't', 00H, ' ', 00H, 'c', 00H, 'a', 00H, 'l'
	DB	00H, 'l', 00H, ' ', 00H, 'h', 00H, 'a', 00H, 's', 00H, ' ', 00H
	DB	'r', 00H, 'e', 00H, 't', 00H, 'u', 00H, 'r', 00H, 'n', 00H, 'e'
	DB	00H, 'd', 00H, '.', 00H, ' ', 00H, 'T', 00H, 'h', 00H, 'e', 00H
	DB	' ', 00H, 'I', 00H, 'D', 00H, 'W', 00H, 'r', 00H, 'i', 00H, 't'
	DB	00H, 'e', 00H, 'T', 00H, 'e', 00H, 'x', 00H, 't', 00H, 'R', 00H
	DB	'e', 00H, 'n', 00H, 'd', 00H, 'e', 00H, 'r', 00H, 'e', 00H, 'r'
	DB	00H, ' ', 00H, 'i', 00H, 'n', 00H, 's', 00H, 't', 00H, 'a', 00H
	DB	'n', 00H, 'c', 00H, 'e', 00H, ' ', 00H, 'w', 00H, 'i', 00H, 'l'
	DB	00H, 'l', 00H, ' ', 00H, 'b', 00H, 'e', 00H, ' ', 00H, 'z', 00H
	DB	'o', 00H, 'm', 00H, 'b', 00H, 'i', 00H, 'e', 00H, 'd', 00H, '.'
	DB	00H, 00H, 00H
$SG166098 DB	'E', 00H, 'R', 00H, 'R', 00H, 'O', 00H, 'R', 00H, '_', 00H
	DB	'D', 00H, 'S', 00H, '_', 00H, 'M', 00H, 'O', 00H, 'D', 00H, 'I'
	DB	00H, 'F', 00H, 'Y', 00H, 'D', 00H, 'N', 00H, '_', 00H, 'W', 00H
	DB	'R', 00H, 'O', 00H, 'N', 00H, 'G', 00H, '_', 00H, 'G', 00H, 'R'
	DB	00H, 'A', 00H, 'N', 00H, 'D', 00H, 'P', 00H, 'A', 00H, 'R', 00H
	DB	'E', 00H, 'N', 00H, 'T', 00H, 00H, 00H
$SG156882 DB	'T', 00H, 'R', 00H, 'U', 00H, 'S', 00H, 'T', 00H, '_', 00H
	DB	'E', 00H, '_', 00H, 'A', 00H, 'C', 00H, 'T', 00H, 'I', 00H, 'O'
	DB	00H, 'N', 00H, '_', 00H, 'U', 00H, 'N', 00H, 'K', 00H, 'N', 00H
	DB	'O', 00H, 'W', 00H, 'N', 00H, 00H, 00H
	ORG $+2
$SG167123 DB	'E', 00H, 'R', 00H, 'R', 00H, 'O', 00H, 'R', 00H, '_', 00H
	DB	'I', 00H, 'P', 00H, 'S', 00H, 'E', 00H, 'C', 00H, '_', 00H, 'I'
	DB	00H, 'K', 00H, 'E', 00H, '_', 00H, 'I', 00H, 'N', 00H, 'V', 00H
	DB	'A', 00H, 'L', 00H, 'I', 00H, 'D', 00H, '_', 00H, 'F', 00H, 'I'
	DB	00H, 'L', 00H, 'T', 00H, 'E', 00H, 'R', 00H, 00H, 00H
	ORG $+2
$SG163027 DB	'D', 00H, 'N', 00H, 'S', 00H, '_', 00H, 'E', 00H, 'R', 00H
	DB	'R', 00H, 'O', 00H, 'R', 00H, '_', 00H, 'R', 00H, 'C', 00H, 'O'
	DB	00H, 'D', 00H, 'E', 00H, '_', 00H, 'B', 00H, 'A', 00H, 'D', 00H
	DB	'T', 00H, 'I', 00H, 'M', 00H, 'E', 00H, 00H, 00H
$SG155859 DB	'C', 00H, 'A', 00H, 'C', 00H, 'H', 00H, 'E', 00H, '_', 00H
	DB	'S', 00H, '_', 00H, 'S', 00H, 'A', 00H, 'M', 00H, 'E', 00H, 'C'
	DB	00H, 'A', 00H, 'C', 00H, 'H', 00H, 'E', 00H, 00H, 00H
$SG168148 DB	'W', 00H, 'I', 00H, 'N', 00H, 'C', 00H, 'O', 00H, 'D', 00H
	DB	'E', 00H, 'C', 00H, '_', 00H, 'E', 00H, 'R', 00H, 'R', 00H, '_'
	DB	00H, 'C', 00H, 'O', 00H, 'D', 00H, 'E', 00H, 'C', 00H, 'N', 00H
	DB	'O', 00H, 'T', 00H, 'H', 00H, 'U', 00H, 'M', 00H, 'B', 00H, 'N'
	DB	00H, 'A', 00H, 'I', 00H, 'L', 00H, 00H, 00H
$SG164052 DB	'S', 00H, 'E', 00H, 'C', 00H, '_', 00H, 'I', 00H, '_', 00H
	DB	'I', 00H, 'N', 00H, 'C', 00H, 'O', 00H, 'M', 00H, 'P', 00H, 'L'
	DB	00H, 'E', 00H, 'T', 00H, 'E', 00H, '_', 00H, 'C', 00H, 'R', 00H
	DB	'E', 00H, 'D', 00H, 'E', 00H, 'N', 00H, 'T', 00H, 'I', 00H, 'A'
	DB	00H, 'L', 00H, 'S', 00H, 00H, 00H
	ORG $+2
$SG158932 DB	'E', 00H, 'R', 00H, 'R', 00H, 'O', 00H, 'R', 00H, '_', 00H
	DB	'E', 00H, 'X', 00H, 'T', 00H, 'E', 00H, 'N', 00H, 'D', 00H, 'E'
	DB	00H, 'D', 00H, '_', 00H, 'E', 00H, 'R', 00H, 'R', 00H, 'O', 00H
	DB	'R', 00H, 00H, 00H
	ORG $+2
$SG157908 DB	'E', 00H, 'R', 00H, 'R', 00H, 'O', 00H, 'R', 00H, '_', 00H
	DB	'T', 00H, 'O', 00H, 'O', 00H, '_', 00H, 'M', 00H, 'A', 00H, 'N'
	DB	00H, 'Y', 00H, '_', 00H, 'T', 00H, 'C', 00H, 'B', 00H, 'S', 00H
	DB	00H, 00H
$SG169173 DB	'I', 00H, 'n', 00H, 'd', 00H, 'i', 00H, 'c', 00H, 'a', 00H
	DB	't', 00H, 'e', 00H, 's', 00H, ' ', 00H, 'a', 00H, 'n', 00H, ' '
	DB	00H, 'e', 00H, 'r', 00H, 'r', 00H, 'o', 00H, 'r', 00H, ' ', 00H
	DB	'i', 00H, 'n', 00H, ' ', 00H, 'a', 00H, 'n', 00H, ' ', 00H, 'i'
	DB	00H, 'n', 00H, 'p', 00H, 'u', 00H, 't', 00H, ' ', 00H, 'f', 00H
	DB	'i', 00H, 'l', 00H, 'e', 00H, ' ', 00H, 's', 00H, 'u', 00H, 'c'
	DB	00H, 'h', 00H, ' ', 00H, 'a', 00H, 's', 00H, ' ', 00H, 'a', 00H
	DB	' ', 00H, 'f', 00H, 'o', 00H, 'n', 00H, 't', 00H, ' ', 00H, 'f'
	DB	00H, 'i', 00H, 'l', 00H, 'e', 00H, '.', 00H, 00H, 00H
	ORG $+2
$SG159957 DB	'E', 00H, 'R', 00H, 'R', 00H, 'O', 00H, 'R', 00H, '_', 00H
	DB	'L', 00H, 'O', 00H, 'G', 00H, '_', 00H, 'F', 00H, 'I', 00H, 'L'
	DB	00H, 'E', 00H, '_', 00H, 'F', 00H, 'U', 00H, 'L', 00H, 'L', 00H
	DB	00H, 00H
$SG156885 DB	'T', 00H, 'R', 00H, 'U', 00H, 'S', 00H, 'T', 00H, '_', 00H
	DB	'E', 00H, '_', 00H, 'S', 00H, 'U', 00H, 'B', 00H, 'J', 00H, 'E'
	DB	00H, 'C', 00H, 'T', 00H, '_', 00H, 'F', 00H, 'O', 00H, 'R', 00H
	DB	'M', 00H, '_', 00H, 'U', 00H, 'N', 00H, 'K', 00H, 'N', 00H, 'O'
	DB	00H, 'W', 00H, 'N', 00H, 00H, 00H
	ORG $+2
$SG165078 DB	'R', 00H, 'P', 00H, 'C', 00H, '_', 00H, 'S', 00H, '_', 00H
	DB	'P', 00H, 'R', 00H, 'F', 00H, '_', 00H, 'E', 00H, 'L', 00H, 'T'
	DB	00H, '_', 00H, 'N', 00H, 'O', 00H, 'T', 00H, '_', 00H, 'R', 00H
	DB	'E', 00H, 'M', 00H, 'O', 00H, 'V', 00H, 'E', 00H, 'D', 00H, 00H
	DB	00H
$SG160982 DB	'E', 00H, 'R', 00H, 'R', 00H, 'O', 00H, 'R', 00H, '_', 00H
	DB	'S', 00H, 'U', 00H, 'C', 00H, 'C', 00H, 'E', 00H, 'S', 00H, 'S'
	DB	00H, '_', 00H, 'R', 00H, 'E', 00H, 'B', 00H, 'O', 00H, 'O', 00H
	DB	'T', 00H, '_', 00H, 'R', 00H, 'E', 00H, 'Q', 00H, 'U', 00H, 'I'
	DB	00H, 'R', 00H, 'E', 00H, 'D', 00H, 00H, 00H
$SG155862 DB	'C', 00H, 'A', 00H, 'C', 00H, 'H', 00H, 'E', 00H, '_', 00H
	DB	'S', 00H, '_', 00H, 'S', 00H, 'O', 00H, 'M', 00H, 'E', 00H, 'C'
	DB	00H, 'A', 00H, 'C', 00H, 'H', 00H, 'E', 00H, 'S', 00H, '_', 00H
	DB	'N', 00H, 'O', 00H, 'T', 00H, 'U', 00H, 'P', 00H, 'D', 00H, 'A'
	DB	00H, 'T', 00H, 'E', 00H, 'D', 00H, 00H, 00H
$SG164055 DB	'S', 00H, 'E', 00H, 'C', 00H, '_', 00H, 'I', 00H, '_', 00H
	DB	'R', 00H, 'E', 00H, 'N', 00H, 'E', 00H, 'G', 00H, 'O', 00H, 'T'
	DB	00H, 'I', 00H, 'A', 00H, 'T', 00H, 'E', 00H, 00H, 00H
$SG168151 DB	'W', 00H, 'I', 00H, 'N', 00H, 'C', 00H, 'O', 00H, 'D', 00H
	DB	'E', 00H, 'C', 00H, '_', 00H, 'E', 00H, 'R', 00H, 'R', 00H, '_'
	DB	00H, 'P', 00H, 'A', 00H, 'L', 00H, 'E', 00H, 'T', 00H, 'T', 00H
	DB	'E', 00H, 'U', 00H, 'N', 00H, 'A', 00H, 'V', 00H, 'A', 00H, 'I'
	DB	00H, 'L', 00H, 'A', 00H, 'B', 00H, 'L', 00H, 'E', 00H, 00H, 00H
$SG166103 DB	'E', 00H, 'R', 00H, 'R', 00H, 'O', 00H, 'R', 00H, '_', 00H
	DB	'D', 00H, 'S', 00H, '_', 00H, 'N', 00H, 'A', 00H, 'M', 00H, 'E'
	DB	00H, '_', 00H, 'E', 00H, 'R', 00H, 'R', 00H, 'O', 00H, 'R', 00H
	DB	'_', 00H, 'T', 00H, 'R', 00H, 'U', 00H, 'S', 00H, 'T', 00H, '_'
	DB	00H, 'R', 00H, 'E', 00H, 'F', 00H, 'E', 00H, 'R', 00H, 'R', 00H
	DB	'A', 00H, 'L', 00H, 00H, 00H
	ORG $+2
$SG162007 DB	'E', 00H, 'R', 00H, 'R', 00H, 'O', 00H, 'R', 00H, '_', 00H
	DB	'D', 00H, 'S', 00H, '_', 00H, 'U', 00H, 'N', 00H, 'W', 00H, 'I'
	DB	00H, 'L', 00H, 'L', 00H, 'I', 00H, 'N', 00H, 'G', 00H, '_', 00H
	DB	'T', 00H, 'O', 00H, '_', 00H, 'P', 00H, 'E', 00H, 'R', 00H, 'F'
	DB	00H, 'O', 00H, 'R', 00H, 'M', 00H, 00H, 00H
$SG167128 DB	'E', 00H, 'R', 00H, 'R', 00H, 'O', 00H, 'R', 00H, '_', 00H
	DB	'I', 00H, 'P', 00H, 'S', 00H, 'E', 00H, 'C', 00H, '_', 00H, 'I'
	DB	00H, 'K', 00H, 'E', 00H, '_', 00H, 'O', 00H, 'U', 00H, 'T', 00H
	DB	'_', 00H, 'O', 00H, 'F', 00H, '_', 00H, 'M', 00H, 'E', 00H, 'M'
	DB	00H, 'O', 00H, 'R', 00H, 'Y', 00H, 00H, 00H
$SG169176 DB	'I', 00H, 'n', 00H, 'd', 00H, 'i', 00H, 'c', 00H, 'a', 00H
	DB	't', 00H, 'e', 00H, 's', 00H, ' ', 00H, 'a', 00H, 'n', 00H, ' '
	DB	00H, 'e', 00H, 'r', 00H, 'r', 00H, 'o', 00H, 'r', 00H, ' ', 00H
	DB	'o', 00H, 'r', 00H, 'i', 00H, 'g', 00H, 'i', 00H, 'n', 00H, 'a'
	DB	00H, 't', 00H, 'i', 00H, 'n', 00H, 'g', 00H, ' ', 00H, 'i', 00H
	DB	'n', 00H, ' ', 00H, 'D', 00H, 'i', 00H, 'r', 00H, 'e', 00H, 'c'
	DB	00H, 't', 00H, 'W', 00H, 'r', 00H, 'i', 00H, 't', 00H, 'e', 00H
	DB	' ', 00H, 'c', 00H, 'o', 00H, 'd', 00H, 'e', 00H, ',', 00H, ' '
	DB	00H, 'w', 00H, 'h', 00H, 'i', 00H, 'c', 00H, 'h', 00H, ' ', 00H
	DB	'i', 00H, 's', 00H, ' ', 00H, 'n', 00H, 'o', 00H, 't', 00H, ' '
	DB	00H, 'e', 00H, 'x', 00H, 'p', 00H, 'e', 00H, 'c', 00H, 't', 00H
	DB	'e', 00H, 'd', 00H, ' ', 00H, 't', 00H, 'o', 00H, ' ', 00H, 'o'
	DB	00H, 'c', 00H, 'c', 00H, 'u', 00H, 'r', 00H, ' ', 00H, 'b', 00H
	DB	'u', 00H, 't', 00H, ' ', 00H, 'i', 00H, 's', 00H, ' ', 00H, 's'
	DB	00H, 'a', 00H, 'f', 00H, 'e', 00H, ' ', 00H, 't', 00H, 'o', 00H
	DB	' ', 00H, 'r', 00H, 'e', 00H, 'c', 00H, 'o', 00H, 'v', 00H, 'e'
	DB	00H, 'r', 00H, ' ', 00H, 'f', 00H, 'r', 00H, 'o', 00H, 'm', 00H
	DB	'.', 00H, 00H, 00H
$SG163032 DB	'D', 00H, 'N', 00H, 'S', 00H, '_', 00H, 'E', 00H, 'R', 00H
	DB	'R', 00H, 'O', 00H, 'R', 00H, '_', 00H, 'P', 00H, 'A', 00H, 'C'
	DB	00H, 'K', 00H, 'E', 00H, 'T', 00H, '_', 00H, 'F', 00H, 'M', 00H
	DB	'T', 00H, '_', 00H, 'B', 00H, 'A', 00H, 'S', 00H, 'E', 00H, 00H
	DB	00H
$SG156888 DB	'T', 00H, 'R', 00H, 'U', 00H, 'S', 00H, 'T', 00H, '_', 00H
	DB	'E', 00H, '_', 00H, 'S', 00H, 'U', 00H, 'B', 00H, 'J', 00H, 'E'
	DB	00H, 'C', 00H, 'T', 00H, '_', 00H, 'N', 00H, 'O', 00H, 'T', 00H
	DB	'_', 00H, 'T', 00H, 'R', 00H, 'U', 00H, 'S', 00H, 'T', 00H, 'E'
	DB	00H, 'D', 00H, 00H, 00H
$SG158937 DB	'E', 00H, 'R', 00H, 'R', 00H, 'O', 00H, 'R', 00H, '_', 00H
	DB	'I', 00H, 'N', 00H, 'V', 00H, 'A', 00H, 'L', 00H, 'I', 00H, 'D'
	DB	00H, '_', 00H, 'G', 00H, 'R', 00H, 'O', 00H, 'U', 00H, 'P', 00H
	DB	'N', 00H, 'A', 00H, 'M', 00H, 'E', 00H, 00H, 00H
$SG157913 DB	'E', 00H, 'R', 00H, 'R', 00H, 'O', 00H, 'R', 00H, '_', 00H
	DB	'S', 00H, 'I', 00H, 'G', 00H, 'N', 00H, 'A', 00H, 'L', 00H, '_'
	DB	00H, 'R', 00H, 'E', 00H, 'F', 00H, 'U', 00H, 'S', 00H, 'E', 00H
	DB	'D', 00H, 00H, 00H
	ORG $+2
$SG155865 DB	'O', 00H, 'L', 00H, 'E', 00H, 'O', 00H, 'B', 00H, 'J', 00H
	DB	'_', 00H, 'S', 00H, '_', 00H, 'C', 00H, 'A', 00H, 'N', 00H, 'N'
	DB	00H, 'O', 00H, 'T', 00H, '_', 00H, 'D', 00H, 'O', 00H, 'V', 00H
	DB	'E', 00H, 'R', 00H, 'B', 00H, '_', 00H, 'N', 00H, 'O', 00H, 'W'
	DB	00H, 00H, 00H
	ORG $+2
$SG168154 DB	'W', 00H, 'I', 00H, 'N', 00H, 'C', 00H, 'O', 00H, 'D', 00H
	DB	'E', 00H, 'C', 00H, '_', 00H, 'E', 00H, 'R', 00H, 'R', 00H, '_'
	DB	00H, 'C', 00H, 'O', 00H, 'D', 00H, 'E', 00H, 'C', 00H, 'T', 00H
	DB	'O', 00H, 'O', 00H, 'M', 00H, 'A', 00H, 'N', 00H, 'Y', 00H, 'S'
	DB	00H, 'C', 00H, 'A', 00H, 'N', 00H, 'L', 00H, 'I', 00H, 'N', 00H
	DB	'E', 00H, 'S', 00H, 00H, 00H
	ORG $+2
$SG164058 DB	'S', 00H, 'E', 00H, 'C', 00H, '_', 00H, 'E', 00H, '_', 00H
	DB	'W', 00H, 'R', 00H, 'O', 00H, 'N', 00H, 'G', 00H, '_', 00H, 'P'
	DB	00H, 'R', 00H, 'I', 00H, 'N', 00H, 'C', 00H, 'I', 00H, 'P', 00H
	DB	'A', 00H, 'L', 00H, 00H, 00H
$SG159962 DB	'E', 00H, 'R', 00H, 'R', 00H, 'O', 00H, 'R', 00H, '_', 00H
	DB	'E', 00H, 'V', 00H, 'E', 00H, 'N', 00H, 'T', 00H, 'L', 00H, 'O'
	DB	00H, 'G', 00H, '_', 00H, 'F', 00H, 'I', 00H, 'L', 00H, 'E', 00H
	DB	'_', 00H, 'C', 00H, 'H', 00H, 'A', 00H, 'N', 00H, 'G', 00H, 'E'
	DB	00H, 'D', 00H, 00H, 00H
$SG162012 DB	'E', 00H, 'R', 00H, 'R', 00H, 'O', 00H, 'R', 00H, '_', 00H
	DB	'D', 00H, 'S', 00H, '_', 00H, 'L', 00H, 'O', 00H, 'O', 00H, 'P'
	DB	00H, '_', 00H, 'D', 00H, 'E', 00H, 'T', 00H, 'E', 00H, 'C', 00H
	DB	'T', 00H, 00H, 00H
	ORG $+2
$SG169179 DB	'I', 00H, 'n', 00H, 'd', 00H, 'i', 00H, 'c', 00H, 'a', 00H
	DB	't', 00H, 'e', 00H, 's', 00H, ' ', 00H, 't', 00H, 'h', 00H, 'e'
	DB	00H, ' ', 00H, 's', 00H, 'p', 00H, 'e', 00H, 'c', 00H, 'i', 00H
	DB	'f', 00H, 'i', 00H, 'e', 00H, 'd', 00H, ' ', 00H, 'f', 00H, 'o'
	DB	00H, 'n', 00H, 't', 00H, ' ', 00H, 'd', 00H, 'o', 00H, 'e', 00H
	DB	's', 00H, ' ', 00H, 'n', 00H, 'o', 00H, 't', 00H, ' ', 00H, 'e'
	DB	00H, 'x', 00H, 'i', 00H, 's', 00H, 't', 00H, '.', 00H, 00H, 00H
	ORG $+2
$SG165083 DB	'R', 00H, 'P', 00H, 'C', 00H, '_', 00H, 'S', 00H, '_', 00H
	DB	'G', 00H, 'R', 00H, 'P', 00H, '_', 00H, 'E', 00H, 'L', 00H, 'T'
	DB	00H, '_', 00H, 'N', 00H, 'O', 00H, 'T', 00H, '_', 00H, 'A', 00H
	DB	'D', 00H, 'D', 00H, 'E', 00H, 'D', 00H, 00H, 00H
$SG160987 DB	'E', 00H, 'R', 00H, 'R', 00H, 'O', 00H, 'R', 00H, '_', 00H
	DB	'S', 00H, 'U', 00H, 'C', 00H, 'C', 00H, 'E', 00H, 'S', 00H, 'S'
	DB	00H, '_', 00H, 'R', 00H, 'E', 00H, 'S', 00H, 'T', 00H, 'A', 00H
	DB	'R', 00H, 'T', 00H, '_', 00H, 'R', 00H, 'E', 00H, 'Q', 00H, 'U'
	DB	00H, 'I', 00H, 'R', 00H, 'E', 00H, 'D', 00H, 00H, 00H
	ORG $+2
$SG156891 DB	'D', 00H, 'I', 00H, 'G', 00H, 'S', 00H, 'I', 00H, 'G', 00H
	DB	'_', 00H, 'E', 00H, '_', 00H, 'E', 00H, 'N', 00H, 'C', 00H, 'O'
	DB	00H, 'D', 00H, 'E', 00H, 00H, 00H
$SG155868 DB	'O', 00H, 'L', 00H, 'E', 00H, 'O', 00H, 'B', 00H, 'J', 00H
	DB	'_', 00H, 'S', 00H, '_', 00H, 'I', 00H, 'N', 00H, 'V', 00H, 'A'
	DB	00H, 'L', 00H, 'I', 00H, 'D', 00H, 'H', 00H, 'W', 00H, 'N', 00H
	DB	'D', 00H, 00H, 00H
	ORG $+2
$SG166108 DB	'E', 00H, 'R', 00H, 'R', 00H, 'O', 00H, 'R', 00H, '_', 00H
	DB	'N', 00H, 'O', 00H, 'T', 00H, '_', 00H, 'S', 00H, 'U', 00H, 'P'
	DB	00H, 'P', 00H, 'O', 00H, 'R', 00H, 'T', 00H, 'E', 00H, 'D', 00H
	DB	'_', 00H, 'O', 00H, 'N', 00H, '_', 00H, 'S', 00H, 'T', 00H, 'A'
	DB	00H, 'N', 00H, 'D', 00H, 'A', 00H, 'R', 00H, 'D', 00H, '_', 00H
	DB	'S', 00H, 'E', 00H, 'R', 00H, 'V', 00H, 'E', 00H, 'R', 00H, 00H
	DB	00H
	ORG $+2
$SG168157 DB	'W', 00H, 'I', 00H, 'N', 00H, 'C', 00H, 'O', 00H, 'D', 00H
	DB	'E', 00H, 'C', 00H, '_', 00H, 'E', 00H, 'R', 00H, 'R', 00H, '_'
	DB	00H, 'I', 00H, 'N', 00H, 'T', 00H, 'E', 00H, 'R', 00H, 'N', 00H
	DB	'A', 00H, 'L', 00H, 'E', 00H, 'R', 00H, 'R', 00H, 'O', 00H, 'R'
	DB	00H, 00H, 00H
	ORG $+2
$SG167133 DB	'E', 00H, 'R', 00H, 'R', 00H, 'O', 00H, 'R', 00H, '_', 00H
	DB	'I', 00H, 'P', 00H, 'S', 00H, 'E', 00H, 'C', 00H, '_', 00H, 'I'
	DB	00H, 'K', 00H, 'E', 00H, '_', 00H, 'A', 00H, 'D', 00H, 'D', 00H
	DB	'_', 00H, 'U', 00H, 'P', 00H, 'D', 00H, 'A', 00H, 'T', 00H, 'E'
	DB	00H, '_', 00H, 'K', 00H, 'E', 00H, 'Y', 00H, '_', 00H, 'F', 00H
	DB	'A', 00H, 'I', 00H, 'L', 00H, 'E', 00H, 'D', 00H, 00H, 00H
$SG164061 DB	'S', 00H, 'E', 00H, 'C', 00H, '_', 00H, 'I', 00H, '_', 00H
	DB	'N', 00H, 'O', 00H, '_', 00H, 'L', 00H, 'S', 00H, 'A', 00H, '_'
	DB	00H, 'C', 00H, 'O', 00H, 'N', 00H, 'T', 00H, 'E', 00H, 'X', 00H
	DB	'T', 00H, 00H, 00H
	ORG $+2
$SG163037 DB	'D', 00H, 'N', 00H, 'S', 00H, '_', 00H, 'I', 00H, 'N', 00H
	DB	'F', 00H, 'O', 00H, '_', 00H, 'N', 00H, 'O', 00H, '_', 00H, 'R'
	DB	00H, 'E', 00H, 'C', 00H, 'O', 00H, 'R', 00H, 'D', 00H, 'S', 00H
	DB	00H, 00H
$SG169182 DB	'A', 00H, ' ', 00H, 'f', 00H, 'o', 00H, 'n', 00H, 't', 00H
	DB	' ', 00H, 'f', 00H, 'i', 00H, 'l', 00H, 'e', 00H, ' ', 00H, 'c'
	DB	00H, 'o', 00H, 'u', 00H, 'l', 00H, 'd', 00H, ' ', 00H, 'n', 00H
	DB	'o', 00H, 't', 00H, ' ', 00H, 'b', 00H, 'e', 00H, ' ', 00H, 'o'
	DB	00H, 'p', 00H, 'e', 00H, 'n', 00H, 'e', 00H, 'd', 00H, ' ', 00H
	DB	'b', 00H, 'e', 00H, 'c', 00H, 'a', 00H, 'u', 00H, 's', 00H, 'e'
	DB	00H, ' ', 00H, 't', 00H, 'h', 00H, 'e', 00H, ' ', 00H, 'f', 00H
	DB	'i', 00H, 'l', 00H, 'e', 00H, ',', 00H, ' ', 00H, 'd', 00H, 'i'
	DB	00H, 'r', 00H, 'e', 00H, 'c', 00H, 't', 00H, 'o', 00H, 'r', 00H
	DB	'y', 00H, ',', 00H, ' ', 00H, 'n', 00H, 'e', 00H, 't', 00H, 'w'
	DB	00H, 'o', 00H, 'r', 00H, 'k', 00H, ' ', 00H, 'l', 00H, 'o', 00H
	DB	'c', 00H, 'a', 00H, 't', 00H, 'i', 00H, 'o', 00H, 'n', 00H, ','
	DB	00H, ' ', 00H, 'd', 00H, 'r', 00H, 'i', 00H, 'v', 00H, 'e', 00H
	DB	',', 00H, ' ', 00H, 'o', 00H, 'r', 00H, ' ', 00H, 'o', 00H, 't'
	DB	00H, 'h', 00H, 'e', 00H, 'r', 00H, ' ', 00H, 's', 00H, 't', 00H
	DB	'o', 00H, 'r', 00H, 'a', 00H, 'g', 00H, 'e', 00H, ' ', 00H, 'l'
	DB	00H, 'o', 00H, 'c', 00H, 'a', 00H, 't', 00H, 'i', 00H, 'o', 00H
	DB	'n', 00H, ' ', 00H, 'd', 00H, 'o', 00H, 'e', 00H, 's', 00H, ' '
	DB	00H, 'n', 00H, 'o', 00H, 't', 00H, ' ', 00H, 'e', 00H, 'x', 00H
	DB	'i', 00H, 's', 00H, 't', 00H, ' ', 00H, 'o', 00H, 'r', 00H, ' '
	DB	00H, 'i', 00H, 's', 00H, ' ', 00H, 'u', 00H, 'n', 00H, 'a', 00H
	DB	'v', 00H, 'a', 00H, 'i', 00H, 'l', 00H, 'a', 00H, 'b', 00H, 'l'
	DB	00H, 'e', 00H, '.', 00H, 00H, 00H
$SG158942 DB	'E', 00H, 'R', 00H, 'R', 00H, 'O', 00H, 'R', 00H, '_', 00H
	DB	'I', 00H, 'N', 00H, 'V', 00H, 'A', 00H, 'L', 00H, 'I', 00H, 'D'
	DB	00H, '_', 00H, 'C', 00H, 'O', 00H, 'M', 00H, 'P', 00H, 'U', 00H
	DB	'T', 00H, 'E', 00H, 'R', 00H, 'N', 00H, 'A', 00H, 'M', 00H, 'E'
	DB	00H, 00H, 00H
	ORG $+2
$SG157918 DB	'E', 00H, 'R', 00H, 'R', 00H, 'O', 00H, 'R', 00H, '_', 00H
	DB	'D', 00H, 'I', 00H, 'S', 00H, 'C', 00H, 'A', 00H, 'R', 00H, 'D'
	DB	00H, 'E', 00H, 'D', 00H, 00H, 00H
$SG156894 DB	'D', 00H, 'I', 00H, 'G', 00H, 'S', 00H, 'I', 00H, 'G', 00H
	DB	'_', 00H, 'E', 00H, '_', 00H, 'D', 00H, 'E', 00H, 'C', 00H, 'O'
	DB	00H, 'D', 00H, 'E', 00H, 00H, 00H
$SG159967 DB	'E', 00H, 'R', 00H, 'R', 00H, 'O', 00H, 'R', 00H, '_', 00H
	DB	'I', 00H, 'N', 00H, 'S', 00H, 'T', 00H, 'A', 00H, 'L', 00H, 'L'
	DB	00H, '_', 00H, 'U', 00H, 'S', 00H, 'E', 00H, 'R', 00H, 'E', 00H
	DB	'X', 00H, 'I', 00H, 'T', 00H, 00H, 00H
	ORG $+2
$SG155871 DB	'M', 00H, 'K', 00H, '_', 00H, 'S', 00H, '_', 00H, 'R', 00H
	DB	'E', 00H, 'D', 00H, 'U', 00H, 'C', 00H, 'E', 00H, 'D', 00H, '_'
	DB	00H, 'T', 00H, 'O', 00H, '_', 00H, 'S', 00H, 'E', 00H, 'L', 00H
	DB	'F', 00H, 00H, 00H
	ORG $+2
$SG168160 DB	'W', 00H, 'I', 00H, 'N', 00H, 'C', 00H, 'O', 00H, 'D', 00H
	DB	'E', 00H, 'C', 00H, '_', 00H, 'E', 00H, 'R', 00H, 'R', 00H, '_'
	DB	00H, 'S', 00H, 'O', 00H, 'U', 00H, 'R', 00H, 'C', 00H, 'E', 00H
	DB	'R', 00H, 'E', 00H, 'C', 00H, 'T', 00H, 'D', 00H, 'O', 00H, 'E'
	DB	00H, 'S', 00H, 'N', 00H, 'O', 00H, 'T', 00H, 'M', 00H, 'A', 00H
	DB	'T', 00H, 'C', 00H, 'H', 00H, 'D', 00H, 'I', 00H, 'M', 00H, 'E'
	DB	00H, 'N', 00H, 'S', 00H, 'I', 00H, 'O', 00H, 'N', 00H, 'S', 00H
	DB	00H, 00H
$SG165088 DB	'R', 00H, 'P', 00H, 'C', 00H, '_', 00H, 'S', 00H, '_', 00H
	DB	'G', 00H, 'R', 00H, 'P', 00H, '_', 00H, 'E', 00H, 'L', 00H, 'T'
	DB	00H, '_', 00H, 'N', 00H, 'O', 00H, 'T', 00H, '_', 00H, 'R', 00H
	DB	'E', 00H, 'M', 00H, 'O', 00H, 'V', 00H, 'E', 00H, 'D', 00H, 00H
	DB	00H
$SG164064 DB	'S', 00H, 'E', 00H, 'C', 00H, '_', 00H, 'E', 00H, '_', 00H
	DB	'T', 00H, 'I', 00H, 'M', 00H, 'E', 00H, '_', 00H, 'S', 00H, 'K'
	DB	00H, 'E', 00H, 'W', 00H, 00H, 00H
$SG160992 DB	'E', 00H, 'R', 00H, 'R', 00H, 'O', 00H, 'R', 00H, '_', 00H
	DB	'P', 00H, 'R', 00H, 'I', 00H, 'N', 00H, 'T', 00H, 'E', 00H, 'R'
	DB	00H, '_', 00H, 'N', 00H, 'O', 00H, 'T', 00H, '_', 00H, 'F', 00H
	DB	'O', 00H, 'U', 00H, 'N', 00H, 'D', 00H, 00H, 00H
$SG169185 DB	'A', 00H, ' ', 00H, 'f', 00H, 'o', 00H, 'n', 00H, 't', 00H
	DB	' ', 00H, 'f', 00H, 'i', 00H, 'l', 00H, 'e', 00H, ' ', 00H, 'e'
	DB	00H, 'x', 00H, 'i', 00H, 's', 00H, 't', 00H, 's', 00H, ' ', 00H
	DB	'b', 00H, 'u', 00H, 't', 00H, ' ', 00H, 'c', 00H, 'o', 00H, 'u'
	DB	00H, 'l', 00H, 'd', 00H, ' ', 00H, 'n', 00H, 'o', 00H, 't', 00H
	DB	' ', 00H, 'b', 00H, 'e', 00H, ' ', 00H, 'o', 00H, 'p', 00H, 'e'
	DB	00H, 'n', 00H, 'e', 00H, 'd', 00H, ' ', 00H, 'd', 00H, 'u', 00H
	DB	'e', 00H, ' ', 00H, 't', 00H, 'o', 00H, ' ', 00H, 'a', 00H, 'c'
	DB	00H, 'c', 00H, 'e', 00H, 's', 00H, 's', 00H, ' ', 00H, 'd', 00H
	DB	'e', 00H, 'n', 00H, 'i', 00H, 'e', 00H, 'd', 00H, ',', 00H, ' '
	DB	00H, 's', 00H, 'h', 00H, 'a', 00H, 'r', 00H, 'i', 00H, 'n', 00H
	DB	'g', 00H, ' ', 00H, 'v', 00H, 'i', 00H, 'o', 00H, 'l', 00H, 'a'
	DB	00H, 't', 00H, 'i', 00H, 'o', 00H, 'n', 00H, ',', 00H, ' ', 00H
	DB	'o', 00H, 'r', 00H, ' ', 00H, 's', 00H, 'i', 00H, 'm', 00H, 'i'
	DB	00H, 'l', 00H, 'a', 00H, 'r', 00H, ' ', 00H, 'e', 00H, 'r', 00H
	DB	'r', 00H, 'o', 00H, 'r', 00H, '.', 00H, 00H, 00H
$SG162017 DB	'E', 00H, 'R', 00H, 'R', 00H, 'O', 00H, 'R', 00H, '_', 00H
	DB	'D', 00H, 'S', 00H, '_', 00H, 'N', 00H, 'A', 00H, 'M', 00H, 'I'
	DB	00H, 'N', 00H, 'G', 00H, '_', 00H, 'V', 00H, 'I', 00H, 'O', 00H
	DB	'L', 00H, 'A', 00H, 'T', 00H, 'I', 00H, 'O', 00H, 'N', 00H, 00H
	DB	00H
$SG166113 DB	'E', 00H, 'R', 00H, 'R', 00H, 'O', 00H, 'R', 00H, '_', 00H
	DB	'D', 00H, 'S', 00H, '_', 00H, 'C', 00H, 'A', 00H, 'N', 00H, 'T'
	DB	00H, '_', 00H, 'A', 00H, 'C', 00H, 'C', 00H, 'E', 00H, 'S', 00H
	DB	'S', 00H, '_', 00H, 'R', 00H, 'E', 00H, 'M', 00H, 'O', 00H, 'T'
	DB	00H, 'E', 00H, '_', 00H, 'P', 00H, 'A', 00H, 'R', 00H, 'T', 00H
	DB	'_', 00H, 'O', 00H, 'F', 00H, '_', 00H, 'A', 00H, 'D', 00H, 00H
	DB	00H
	ORG $+2
$SG156897 DB	'D', 00H, 'I', 00H, 'G', 00H, 'S', 00H, 'I', 00H, 'G', 00H
	DB	'_', 00H, 'E', 00H, '_', 00H, 'E', 00H, 'X', 00H, 'T', 00H, 'E'
	DB	00H, 'N', 00H, 'S', 00H, 'I', 00H, 'B', 00H, 'I', 00H, 'L', 00H
	DB	'I', 00H, 'T', 00H, 'Y', 00H, 00H, 00H
	ORG $+2
$SG167138 DB	'E', 00H, 'R', 00H, 'R', 00H, 'O', 00H, 'R', 00H, '_', 00H
	DB	'I', 00H, 'P', 00H, 'S', 00H, 'E', 00H, 'C', 00H, '_', 00H, 'I'
	DB	00H, 'K', 00H, 'E', 00H, '_', 00H, 'I', 00H, 'N', 00H, 'V', 00H
	DB	'A', 00H, 'L', 00H, 'I', 00H, 'D', 00H, '_', 00H, 'P', 00H, 'O'
	DB	00H, 'L', 00H, 'I', 00H, 'C', 00H, 'Y', 00H, 00H, 00H
	ORG $+2
$SG163042 DB	'D', 00H, 'N', 00H, 'S', 00H, '_', 00H, 'E', 00H, 'R', 00H
	DB	'R', 00H, 'O', 00H, 'R', 00H, '_', 00H, 'B', 00H, 'A', 00H, 'D'
	DB	00H, '_', 00H, 'P', 00H, 'A', 00H, 'C', 00H, 'K', 00H, 'E', 00H
	DB	'T', 00H, 00H, 00H
	ORG $+2
