; Listing generated by Microsoft (R) Optimizing Compiler Version 18.00.30501.0 

	TITLE	D:\Engine Class\Assignment 1\Scratch\DXSSE\DXUT\Core\DXUTDevice11.cpp
	.686P
	.XMM
	include listing.inc
	.model	flat

INCLUDELIB MSVCRTD
INCLUDELIB OLDNAMES

PUBLIC	?g_pDXUTD3D11Enumeration@@3PAVCD3D11Enumeration@@A ; g_pDXUTD3D11Enumeration
PUBLIC	__GUID_0aa1ae0a_fa0e_4b84_8644_e05ff8e5acb5
_BSS	SEGMENT
?g_pDXUTD3D11Enumeration@@3PAVCD3D11Enumeration@@A DD 01H DUP (?) ; g_pDXUTD3D11Enumeration
_BSS	ENDS
;	COMDAT __GUID_0aa1ae0a_fa0e_4b84_8644_e05ff8e5acb5
CONST	SEGMENT
__GUID_0aa1ae0a_fa0e_4b84_8644_e05ff8e5acb5 DD 0aa1ae0aH
	DW	0fa0eH
	DW	04b84H
	DB	086H
	DB	044H
	DB	0e0H
	DB	05fH
	DB	0f8H
	DB	0e5H
	DB	0acH
	DB	0b5H
CONST	ENDS
CONST	SEGMENT
$SG148862 DB	'D', 00H, 'X', 00H, 'U', 00H, 'T', 00H, ' ', 00H, 'D', 00H
	DB	'3', 00H, 'D', 00H, '1', 00H, '1', 00H, ' ', 00H, 'E', 00H, 'n'
	DB	00H, 'u', 00H, 'm', 00H, 'e', 00H, 'r', 00H, 'a', 00H, 't', 00H
	DB	'i', 00H, 'o', 00H, 'n', 00H, 00H, 00H
	ORG $+2
$SG149093 DB	' ', 00H, '(', 00H, '#', 00H, '%', 00H, 'u', 00H, ')', 00H
	DB	00H, 00H
	ORG $+2
$SG149179 DB	'D', 00H, 'X', 00H, 'U', 00H, 'T', 00H, 'D', 00H, 'e', 00H
	DB	'v', 00H, 'i', 00H, 'c', 00H, 'e', 00H, '1', 00H, '1', 00H, '.'
	DB	00H, 'c', 00H, 'p', 00H, 'p', 00H, 00H, 00H
	ORG $+2
$SG149180 DB	'p', 00H, 'D', 00H, 'e', 00H, 's', 00H, 'c', 00H, 00H, 00H
$SG149209 DB	'D', 00H, 'X', 00H, 'U', 00H, 'T', 00H, 'D', 00H, 'e', 00H
	DB	'v', 00H, 'i', 00H, 'c', 00H, 'e', 00H, '1', 00H, '1', 00H, '.'
	DB	00H, 'c', 00H, 'p', 00H, 'p', 00H, 00H, 00H
	ORG $+2
$SG149210 DB	'p', 00H, 'D', 00H, 'e', 00H, 's', 00H, 'c', 00H, 00H, 00H
CONST	ENDS
PUBLIC	?abs@@YAJJ@Z					; abs
PUBLIC	??2@YAPAXIPAX@Z					; operator new
PUBLIC	??3@YAXPAX0@Z					; operator delete
PUBLIC	_fabsf
PUBLIC	?fabs@@YAMM@Z					; fabs
PUBLIC	??0_Container_proxy@std@@QAE@XZ			; std::_Container_proxy::_Container_proxy
PUBLIC	??0_Iterator_base12@std@@QAE@XZ			; std::_Iterator_base12::_Iterator_base12
PUBLIC	??1_Iterator_base12@std@@QAE@XZ			; std::_Iterator_base12::~_Iterator_base12
PUBLIC	?_Adopt@_Iterator_base12@std@@QAEXPBU_Container_base12@2@@Z ; std::_Iterator_base12::_Adopt
PUBLIC	?_Clrcont@_Iterator_base12@std@@QAEXXZ		; std::_Iterator_base12::_Clrcont
PUBLIC	?_Getcont@_Iterator_base12@std@@QBEPBU_Container_base12@2@XZ ; std::_Iterator_base12::_Getcont
PUBLIC	?_Getpnext@_Iterator_base12@std@@QAEPAPAU12@XZ	; std::_Iterator_base12::_Getpnext
PUBLIC	?_Orphan_me@_Iterator_base12@std@@QAEXXZ	; std::_Iterator_base12::_Orphan_me
PUBLIC	??0CDXUTPerfEventGenerator@@QAE@KPB_W@Z		; CDXUTPerfEventGenerator::CDXUTPerfEventGenerator
PUBLIC	??1CDXUTPerfEventGenerator@@QAE@XZ		; CDXUTPerfEventGenerator::~CDXUTPerfEventGenerator
PUBLIC	?DXUTGetD3D11AdapterDisplayMode@@YGJIIPAUDXGI_MODE_DESC@@@Z ; DXUTGetD3D11AdapterDisplayMode
PUBLIC	?DXUTCreateD3D11Enumeration@@YGJXZ		; DXUTCreateD3D11Enumeration
PUBLIC	?DXUTDestroyD3D11Enumeration@@YGXXZ		; DXUTDestroyD3D11Enumeration
PUBLIC	?SetForceFeatureLevel@CD3D11Enumeration@@QAEXW4D3D_FEATURE_LEVEL@@@Z ; CD3D11Enumeration::SetForceFeatureLevel
PUBLIC	?ResetPossibleDepthStencilFormats@CD3D11Enumeration@@QAEXXZ ; CD3D11Enumeration::ResetPossibleDepthStencilFormats
PUBLIC	?SetEnumerateAllAdapterFormats@CD3D11Enumeration@@QAEX_N@Z ; CD3D11Enumeration::SetEnumerateAllAdapterFormats
PUBLIC	?HasEnumerated@CD3D11Enumeration@@QAE_NXZ	; CD3D11Enumeration::HasEnumerated
PUBLIC	?Enumerate@CD3D11Enumeration@@QAEJP6G_NPBVCD3D11EnumAdapterInfo@@IPBVCD3D11EnumDeviceInfo@@W4DXGI_FORMAT@@_NPAX@Z4@Z ; CD3D11Enumeration::Enumerate
PUBLIC	?GetAdapterInfoList@CD3D11Enumeration@@QAEPAV?$vector@PAVCD3D11EnumAdapterInfo@@V?$allocator@PAVCD3D11EnumAdapterInfo@@@std@@@std@@XZ ; CD3D11Enumeration::GetAdapterInfoList
PUBLIC	?GetAdapterInfo@CD3D11Enumeration@@QBEPAVCD3D11EnumAdapterInfo@@I@Z ; CD3D11Enumeration::GetAdapterInfo
PUBLIC	?GetDeviceInfo@CD3D11Enumeration@@QBEPAVCD3D11EnumDeviceInfo@@IW4D3D_DRIVER_TYPE@@@Z ; CD3D11Enumeration::GetDeviceInfo
PUBLIC	?GetOutputInfo@CD3D11Enumeration@@QBEPAVCD3D11EnumOutputInfo@@II@Z ; CD3D11Enumeration::GetOutputInfo
PUBLIC	?GetDeviceSettingsCombo@CD3D11Enumeration@@QBEPAUCD3D11EnumDeviceSettingsCombo@@IW4DXGI_FORMAT@@H@Z ; CD3D11Enumeration::GetDeviceSettingsCombo
PUBLIC	??1CD3D11Enumeration@@QAE@XZ			; CD3D11Enumeration::~CD3D11Enumeration
PUBLIC	??0CD3D11Enumeration@@AAE@XZ			; CD3D11Enumeration::CD3D11Enumeration
PUBLIC	??0?$allocator@W4DXGI_FORMAT@@@std@@QAE@XZ	; std::allocator<enum DXGI_FORMAT>::allocator<enum DXGI_FORMAT>
PUBLIC	?deallocate@?$allocator@W4DXGI_FORMAT@@@std@@QAEXPAW4DXGI_FORMAT@@I@Z ; std::allocator<enum DXGI_FORMAT>::deallocate
PUBLIC	?allocate@?$allocator@W4DXGI_FORMAT@@@std@@QAEPAW4DXGI_FORMAT@@I@Z ; std::allocator<enum DXGI_FORMAT>::allocate
PUBLIC	?max_size@?$allocator@W4DXGI_FORMAT@@@std@@QBEIXZ ; std::allocator<enum DXGI_FORMAT>::max_size
PUBLIC	?max_size@?$allocator_traits@V?$allocator@W4DXGI_FORMAT@@@std@@@std@@SAIABV?$allocator@W4DXGI_FORMAT@@@2@@Z ; std::allocator_traits<std::allocator<enum DXGI_FORMAT> >::max_size
PUBLIC	??0?$_Wrap_alloc@V?$allocator@W4DXGI_FORMAT@@@std@@@std@@QAE@XZ ; std::_Wrap_alloc<std::allocator<enum DXGI_FORMAT> >::_Wrap_alloc<std::allocator<enum DXGI_FORMAT> >
PUBLIC	?allocate@?$_Wrap_alloc@V?$allocator@W4DXGI_FORMAT@@@std@@@std@@QAEPAW4DXGI_FORMAT@@I@Z ; std::_Wrap_alloc<std::allocator<enum DXGI_FORMAT> >::allocate
PUBLIC	?deallocate@?$_Wrap_alloc@V?$allocator@W4DXGI_FORMAT@@@std@@@std@@QAEXPAW4DXGI_FORMAT@@I@Z ; std::_Wrap_alloc<std::allocator<enum DXGI_FORMAT> >::deallocate
PUBLIC	?max_size@?$_Wrap_alloc@V?$allocator@W4DXGI_FORMAT@@@std@@@std@@QBEIXZ ; std::_Wrap_alloc<std::allocator<enum DXGI_FORMAT> >::max_size
PUBLIC	??0?$_Vector_val@U?$_Simple_types@W4DXGI_FORMAT@@@std@@@std@@QAE@XZ ; std::_Vector_val<std::_Simple_types<enum DXGI_FORMAT> >::_Vector_val<std::_Simple_types<enum DXGI_FORMAT> >
PUBLIC	??1?$_Vector_val@U?$_Simple_types@W4DXGI_FORMAT@@@std@@@std@@QAE@XZ ; std::_Vector_val<std::_Simple_types<enum DXGI_FORMAT> >::~_Vector_val<std::_Simple_types<enum DXGI_FORMAT> >
PUBLIC	??0?$_Vector_alloc@$0A@U?$_Vec_base_types@W4DXGI_FORMAT@@V?$allocator@W4DXGI_FORMAT@@@std@@@std@@@std@@QAE@ABV?$allocator@W4DXGI_FORMAT@@@1@@Z ; std::_Vector_alloc<0,std::_Vec_base_types<enum DXGI_FORMAT,std::allocator<enum DXGI_FORMAT> > >::_Vector_alloc<0,std::_Vec_base_types<enum DXGI_FORMAT,std::allocator<enum DXGI_FORMAT> > >
PUBLIC	??1?$_Vector_alloc@$0A@U?$_Vec_base_types@W4DXGI_FORMAT@@V?$allocator@W4DXGI_FORMAT@@@std@@@std@@@std@@QAE@XZ ; std::_Vector_alloc<0,std::_Vec_base_types<enum DXGI_FORMAT,std::allocator<enum DXGI_FORMAT> > >::~_Vector_alloc<0,std::_Vec_base_types<enum DXGI_FORMAT,std::allocator<enum DXGI_FORMAT> > >
PUBLIC	?_Alloc_proxy@?$_Vector_alloc@$0A@U?$_Vec_base_types@W4DXGI_FORMAT@@V?$allocator@W4DXGI_FORMAT@@@std@@@std@@@std@@QAEXXZ ; std::_Vector_alloc<0,std::_Vec_base_types<enum DXGI_FORMAT,std::allocator<enum DXGI_FORMAT> > >::_Alloc_proxy
PUBLIC	?_Free_proxy@?$_Vector_alloc@$0A@U?$_Vec_base_types@W4DXGI_FORMAT@@V?$allocator@W4DXGI_FORMAT@@@std@@@std@@@std@@QAEXXZ ; std::_Vector_alloc<0,std::_Vec_base_types<enum DXGI_FORMAT,std::allocator<enum DXGI_FORMAT> > >::_Free_proxy
PUBLIC	?_Getal@?$_Vector_alloc@$0A@U?$_Vec_base_types@W4DXGI_FORMAT@@V?$allocator@W4DXGI_FORMAT@@@std@@@std@@@std@@QBE?AU?$_Wrap_alloc@V?$allocator@W4DXGI_FORMAT@@@std@@@2@XZ ; std::_Vector_alloc<0,std::_Vec_base_types<enum DXGI_FORMAT,std::allocator<enum DXGI_FORMAT> > >::_Getal
PUBLIC	??0?$vector@W4DXGI_FORMAT@@V?$allocator@W4DXGI_FORMAT@@@std@@@std@@QAE@XZ ; std::vector<enum DXGI_FORMAT,std::allocator<enum DXGI_FORMAT> >::vector<enum DXGI_FORMAT,std::allocator<enum DXGI_FORMAT> >
PUBLIC	?push_back@?$vector@W4DXGI_FORMAT@@V?$allocator@W4DXGI_FORMAT@@@std@@@std@@QAEX$$QAW4DXGI_FORMAT@@@Z ; std::vector<enum DXGI_FORMAT,std::allocator<enum DXGI_FORMAT> >::push_back
PUBLIC	??1?$vector@W4DXGI_FORMAT@@V?$allocator@W4DXGI_FORMAT@@@std@@@std@@QAE@XZ ; std::vector<enum DXGI_FORMAT,std::allocator<enum DXGI_FORMAT> >::~vector<enum DXGI_FORMAT,std::allocator<enum DXGI_FORMAT> >
PUBLIC	?capacity@?$vector@W4DXGI_FORMAT@@V?$allocator@W4DXGI_FORMAT@@@std@@@std@@QBEIXZ ; std::vector<enum DXGI_FORMAT,std::allocator<enum DXGI_FORMAT> >::capacity
PUBLIC	?_Unused_capacity@?$vector@W4DXGI_FORMAT@@V?$allocator@W4DXGI_FORMAT@@@std@@@std@@QBEIXZ ; std::vector<enum DXGI_FORMAT,std::allocator<enum DXGI_FORMAT> >::_Unused_capacity
PUBLIC	?size@?$vector@W4DXGI_FORMAT@@V?$allocator@W4DXGI_FORMAT@@@std@@@std@@QBEIXZ ; std::vector<enum DXGI_FORMAT,std::allocator<enum DXGI_FORMAT> >::size
PUBLIC	?max_size@?$vector@W4DXGI_FORMAT@@V?$allocator@W4DXGI_FORMAT@@@std@@@std@@QBEIXZ ; std::vector<enum DXGI_FORMAT,std::allocator<enum DXGI_FORMAT> >::max_size
PUBLIC	?clear@?$vector@W4DXGI_FORMAT@@V?$allocator@W4DXGI_FORMAT@@@std@@@std@@QAEXXZ ; std::vector<enum DXGI_FORMAT,std::allocator<enum DXGI_FORMAT> >::clear
PUBLIC	?_Destroy@?$vector@W4DXGI_FORMAT@@V?$allocator@W4DXGI_FORMAT@@@std@@@std@@IAEXPAW4DXGI_FORMAT@@0@Z ; std::vector<enum DXGI_FORMAT,std::allocator<enum DXGI_FORMAT> >::_Destroy
PUBLIC	?_Grow_to@?$vector@W4DXGI_FORMAT@@V?$allocator@W4DXGI_FORMAT@@@std@@@std@@IBEII@Z ; std::vector<enum DXGI_FORMAT,std::allocator<enum DXGI_FORMAT> >::_Grow_to
PUBLIC	?_Inside@?$vector@W4DXGI_FORMAT@@V?$allocator@W4DXGI_FORMAT@@@std@@@std@@IBE_NPBW4DXGI_FORMAT@@@Z ; std::vector<enum DXGI_FORMAT,std::allocator<enum DXGI_FORMAT> >::_Inside
PUBLIC	?_Reallocate@?$vector@W4DXGI_FORMAT@@V?$allocator@W4DXGI_FORMAT@@@std@@@std@@IAEXI@Z ; std::vector<enum DXGI_FORMAT,std::allocator<enum DXGI_FORMAT> >::_Reallocate
PUBLIC	?_Reserve@?$vector@W4DXGI_FORMAT@@V?$allocator@W4DXGI_FORMAT@@@std@@@std@@IAEXI@Z ; std::vector<enum DXGI_FORMAT,std::allocator<enum DXGI_FORMAT> >::_Reserve
PUBLIC	?_Tidy@?$vector@W4DXGI_FORMAT@@V?$allocator@W4DXGI_FORMAT@@@std@@@std@@IAEXXZ ; std::vector<enum DXGI_FORMAT,std::allocator<enum DXGI_FORMAT> >::_Tidy
PUBLIC	?_Xlen@?$vector@W4DXGI_FORMAT@@V?$allocator@W4DXGI_FORMAT@@@std@@@std@@IBEXXZ ; std::vector<enum DXGI_FORMAT,std::allocator<enum DXGI_FORMAT> >::_Xlen
PUBLIC	?_Orphan_range@?$vector@W4DXGI_FORMAT@@V?$allocator@W4DXGI_FORMAT@@@std@@@std@@IBEXPAW4DXGI_FORMAT@@0@Z ; std::vector<enum DXGI_FORMAT,std::allocator<enum DXGI_FORMAT> >::_Orphan_range
PUBLIC	??0?$allocator@PAVCD3D11EnumAdapterInfo@@@std@@QAE@XZ ; std::allocator<CD3D11EnumAdapterInfo *>::allocator<CD3D11EnumAdapterInfo *>
PUBLIC	?deallocate@?$allocator@PAVCD3D11EnumAdapterInfo@@@std@@QAEXPAPAVCD3D11EnumAdapterInfo@@I@Z ; std::allocator<CD3D11EnumAdapterInfo *>::deallocate
PUBLIC	?allocate@?$allocator@PAVCD3D11EnumAdapterInfo@@@std@@QAEPAPAVCD3D11EnumAdapterInfo@@I@Z ; std::allocator<CD3D11EnumAdapterInfo *>::allocate
PUBLIC	?construct@?$allocator@PAVCD3D11EnumAdapterInfo@@@std@@QAEXPAPAVCD3D11EnumAdapterInfo@@ABQAV3@@Z ; std::allocator<CD3D11EnumAdapterInfo *>::construct
PUBLIC	?max_size@?$allocator@PAVCD3D11EnumAdapterInfo@@@std@@QBEIXZ ; std::allocator<CD3D11EnumAdapterInfo *>::max_size
PUBLIC	?max_size@?$allocator_traits@V?$allocator@PAVCD3D11EnumAdapterInfo@@@std@@@std@@SAIABV?$allocator@PAVCD3D11EnumAdapterInfo@@@2@@Z ; std::allocator_traits<std::allocator<CD3D11EnumAdapterInfo *> >::max_size
PUBLIC	??0?$_Wrap_alloc@V?$allocator@PAVCD3D11EnumAdapterInfo@@@std@@@std@@QAE@XZ ; std::_Wrap_alloc<std::allocator<CD3D11EnumAdapterInfo *> >::_Wrap_alloc<std::allocator<CD3D11EnumAdapterInfo *> >
PUBLIC	?allocate@?$_Wrap_alloc@V?$allocator@PAVCD3D11EnumAdapterInfo@@@std@@@std@@QAEPAPAVCD3D11EnumAdapterInfo@@I@Z ; std::_Wrap_alloc<std::allocator<CD3D11EnumAdapterInfo *> >::allocate
PUBLIC	?deallocate@?$_Wrap_alloc@V?$allocator@PAVCD3D11EnumAdapterInfo@@@std@@@std@@QAEXPAPAVCD3D11EnumAdapterInfo@@I@Z ; std::_Wrap_alloc<std::allocator<CD3D11EnumAdapterInfo *> >::deallocate
PUBLIC	?max_size@?$_Wrap_alloc@V?$allocator@PAVCD3D11EnumAdapterInfo@@@std@@@std@@QBEIXZ ; std::_Wrap_alloc<std::allocator<CD3D11EnumAdapterInfo *> >::max_size
PUBLIC	??0?$_Vector_val@U?$_Simple_types@PAVCD3D11EnumAdapterInfo@@@std@@@std@@QAE@XZ ; std::_Vector_val<std::_Simple_types<CD3D11EnumAdapterInfo *> >::_Vector_val<std::_Simple_types<CD3D11EnumAdapterInfo *> >
PUBLIC	??1?$_Vector_val@U?$_Simple_types@PAVCD3D11EnumAdapterInfo@@@std@@@std@@QAE@XZ ; std::_Vector_val<std::_Simple_types<CD3D11EnumAdapterInfo *> >::~_Vector_val<std::_Simple_types<CD3D11EnumAdapterInfo *> >
PUBLIC	??0?$_Vector_alloc@$0A@U?$_Vec_base_types@PAVCD3D11EnumAdapterInfo@@V?$allocator@PAVCD3D11EnumAdapterInfo@@@std@@@std@@@std@@QAE@ABV?$allocator@PAVCD3D11EnumAdapterInfo@@@1@@Z ; std::_Vector_alloc<0,std::_Vec_base_types<CD3D11EnumAdapterInfo *,std::allocator<CD3D11EnumAdapterInfo *> > >::_Vector_alloc<0,std::_Vec_base_types<CD3D11EnumAdapterInfo *,std::allocator<CD3D11EnumAdapterInfo *> > >
PUBLIC	??1?$_Vector_alloc@$0A@U?$_Vec_base_types@PAVCD3D11EnumAdapterInfo@@V?$allocator@PAVCD3D11EnumAdapterInfo@@@std@@@std@@@std@@QAE@XZ ; std::_Vector_alloc<0,std::_Vec_base_types<CD3D11EnumAdapterInfo *,std::allocator<CD3D11EnumAdapterInfo *> > >::~_Vector_alloc<0,std::_Vec_base_types<CD3D11EnumAdapterInfo *,std::allocator<CD3D11EnumAdapterInfo *> > >
PUBLIC	?_Alloc_proxy@?$_Vector_alloc@$0A@U?$_Vec_base_types@PAVCD3D11EnumAdapterInfo@@V?$allocator@PAVCD3D11EnumAdapterInfo@@@std@@@std@@@std@@QAEXXZ ; std::_Vector_alloc<0,std::_Vec_base_types<CD3D11EnumAdapterInfo *,std::allocator<CD3D11EnumAdapterInfo *> > >::_Alloc_proxy
PUBLIC	?_Free_proxy@?$_Vector_alloc@$0A@U?$_Vec_base_types@PAVCD3D11EnumAdapterInfo@@V?$allocator@PAVCD3D11EnumAdapterInfo@@@std@@@std@@@std@@QAEXXZ ; std::_Vector_alloc<0,std::_Vec_base_types<CD3D11EnumAdapterInfo *,std::allocator<CD3D11EnumAdapterInfo *> > >::_Free_proxy
PUBLIC	?_Getal@?$_Vector_alloc@$0A@U?$_Vec_base_types@PAVCD3D11EnumAdapterInfo@@V?$allocator@PAVCD3D11EnumAdapterInfo@@@std@@@std@@@std@@QBE?AU?$_Wrap_alloc@V?$allocator@PAVCD3D11EnumAdapterInfo@@@std@@@2@XZ ; std::_Vector_alloc<0,std::_Vec_base_types<CD3D11EnumAdapterInfo *,std::allocator<CD3D11EnumAdapterInfo *> > >::_Getal
PUBLIC	??0?$vector@PAVCD3D11EnumAdapterInfo@@V?$allocator@PAVCD3D11EnumAdapterInfo@@@std@@@std@@QAE@XZ ; std::vector<CD3D11EnumAdapterInfo *,std::allocator<CD3D11EnumAdapterInfo *> >::vector<CD3D11EnumAdapterInfo *,std::allocator<CD3D11EnumAdapterInfo *> >
PUBLIC	??1?$vector@PAVCD3D11EnumAdapterInfo@@V?$allocator@PAVCD3D11EnumAdapterInfo@@@std@@@std@@QAE@XZ ; std::vector<CD3D11EnumAdapterInfo *,std::allocator<CD3D11EnumAdapterInfo *> >::~vector<CD3D11EnumAdapterInfo *,std::allocator<CD3D11EnumAdapterInfo *> >
PUBLIC	?capacity@?$vector@PAVCD3D11EnumAdapterInfo@@V?$allocator@PAVCD3D11EnumAdapterInfo@@@std@@@std@@QBEIXZ ; std::vector<CD3D11EnumAdapterInfo *,std::allocator<CD3D11EnumAdapterInfo *> >::capacity
PUBLIC	?_Unused_capacity@?$vector@PAVCD3D11EnumAdapterInfo@@V?$allocator@PAVCD3D11EnumAdapterInfo@@@std@@@std@@QBEIXZ ; std::vector<CD3D11EnumAdapterInfo *,std::allocator<CD3D11EnumAdapterInfo *> >::_Unused_capacity
PUBLIC	?begin@?$vector@PAVCD3D11EnumAdapterInfo@@V?$allocator@PAVCD3D11EnumAdapterInfo@@@std@@@std@@QAE?AV?$_Vector_iterator@V?$_Vector_val@U?$_Simple_types@PAVCD3D11EnumAdapterInfo@@@std@@@std@@@2@XZ ; std::vector<CD3D11EnumAdapterInfo *,std::allocator<CD3D11EnumAdapterInfo *> >::begin
PUBLIC	?begin@?$vector@PAVCD3D11EnumAdapterInfo@@V?$allocator@PAVCD3D11EnumAdapterInfo@@@std@@@std@@QBE?AV?$_Vector_const_iterator@V?$_Vector_val@U?$_Simple_types@PAVCD3D11EnumAdapterInfo@@@std@@@std@@@2@XZ ; std::vector<CD3D11EnumAdapterInfo *,std::allocator<CD3D11EnumAdapterInfo *> >::begin
PUBLIC	?end@?$vector@PAVCD3D11EnumAdapterInfo@@V?$allocator@PAVCD3D11EnumAdapterInfo@@@std@@@std@@QAE?AV?$_Vector_iterator@V?$_Vector_val@U?$_Simple_types@PAVCD3D11EnumAdapterInfo@@@std@@@std@@@2@XZ ; std::vector<CD3D11EnumAdapterInfo *,std::allocator<CD3D11EnumAdapterInfo *> >::end
PUBLIC	?end@?$vector@PAVCD3D11EnumAdapterInfo@@V?$allocator@PAVCD3D11EnumAdapterInfo@@@std@@@std@@QBE?AV?$_Vector_const_iterator@V?$_Vector_val@U?$_Simple_types@PAVCD3D11EnumAdapterInfo@@@std@@@std@@@2@XZ ; std::vector<CD3D11EnumAdapterInfo *,std::allocator<CD3D11EnumAdapterInfo *> >::end
PUBLIC	?cbegin@?$vector@PAVCD3D11EnumAdapterInfo@@V?$allocator@PAVCD3D11EnumAdapterInfo@@@std@@@std@@QBE?AV?$_Vector_const_iterator@V?$_Vector_val@U?$_Simple_types@PAVCD3D11EnumAdapterInfo@@@std@@@std@@@2@XZ ; std::vector<CD3D11EnumAdapterInfo *,std::allocator<CD3D11EnumAdapterInfo *> >::cbegin
PUBLIC	?cend@?$vector@PAVCD3D11EnumAdapterInfo@@V?$allocator@PAVCD3D11EnumAdapterInfo@@@std@@@std@@QBE?AV?$_Vector_const_iterator@V?$_Vector_val@U?$_Simple_types@PAVCD3D11EnumAdapterInfo@@@std@@@std@@@2@XZ ; std::vector<CD3D11EnumAdapterInfo *,std::allocator<CD3D11EnumAdapterInfo *> >::cend
PUBLIC	?size@?$vector@PAVCD3D11EnumAdapterInfo@@V?$allocator@PAVCD3D11EnumAdapterInfo@@@std@@@std@@QBEIXZ ; std::vector<CD3D11EnumAdapterInfo *,std::allocator<CD3D11EnumAdapterInfo *> >::size
PUBLIC	?max_size@?$vector@PAVCD3D11EnumAdapterInfo@@V?$allocator@PAVCD3D11EnumAdapterInfo@@@std@@@std@@QBEIXZ ; std::vector<CD3D11EnumAdapterInfo *,std::allocator<CD3D11EnumAdapterInfo *> >::max_size
PUBLIC	??A?$vector@PAVCD3D11EnumAdapterInfo@@V?$allocator@PAVCD3D11EnumAdapterInfo@@@std@@@std@@QAEAAPAVCD3D11EnumAdapterInfo@@I@Z ; std::vector<CD3D11EnumAdapterInfo *,std::allocator<CD3D11EnumAdapterInfo *> >::operator[]
PUBLIC	?push_back@?$vector@PAVCD3D11EnumAdapterInfo@@V?$allocator@PAVCD3D11EnumAdapterInfo@@@std@@@std@@QAEXABQAVCD3D11EnumAdapterInfo@@@Z ; std::vector<CD3D11EnumAdapterInfo *,std::allocator<CD3D11EnumAdapterInfo *> >::push_back
PUBLIC	?clear@?$vector@PAVCD3D11EnumAdapterInfo@@V?$allocator@PAVCD3D11EnumAdapterInfo@@@std@@@std@@QAEXXZ ; std::vector<CD3D11EnumAdapterInfo *,std::allocator<CD3D11EnumAdapterInfo *> >::clear
PUBLIC	?_Destroy@?$vector@PAVCD3D11EnumAdapterInfo@@V?$allocator@PAVCD3D11EnumAdapterInfo@@@std@@@std@@IAEXPAPAVCD3D11EnumAdapterInfo@@0@Z ; std::vector<CD3D11EnumAdapterInfo *,std::allocator<CD3D11EnumAdapterInfo *> >::_Destroy
PUBLIC	?_Grow_to@?$vector@PAVCD3D11EnumAdapterInfo@@V?$allocator@PAVCD3D11EnumAdapterInfo@@@std@@@std@@IBEII@Z ; std::vector<CD3D11EnumAdapterInfo *,std::allocator<CD3D11EnumAdapterInfo *> >::_Grow_to
PUBLIC	?_Inside@?$vector@PAVCD3D11EnumAdapterInfo@@V?$allocator@PAVCD3D11EnumAdapterInfo@@@std@@@std@@IBE_NPBQAVCD3D11EnumAdapterInfo@@@Z ; std::vector<CD3D11EnumAdapterInfo *,std::allocator<CD3D11EnumAdapterInfo *> >::_Inside
PUBLIC	?_Reallocate@?$vector@PAVCD3D11EnumAdapterInfo@@V?$allocator@PAVCD3D11EnumAdapterInfo@@@std@@@std@@IAEXI@Z ; std::vector<CD3D11EnumAdapterInfo *,std::allocator<CD3D11EnumAdapterInfo *> >::_Reallocate
PUBLIC	?_Reserve@?$vector@PAVCD3D11EnumAdapterInfo@@V?$allocator@PAVCD3D11EnumAdapterInfo@@@std@@@std@@IAEXI@Z ; std::vector<CD3D11EnumAdapterInfo *,std::allocator<CD3D11EnumAdapterInfo *> >::_Reserve
PUBLIC	?_Tidy@?$vector@PAVCD3D11EnumAdapterInfo@@V?$allocator@PAVCD3D11EnumAdapterInfo@@@std@@@std@@IAEXXZ ; std::vector<CD3D11EnumAdapterInfo *,std::allocator<CD3D11EnumAdapterInfo *> >::_Tidy
PUBLIC	?_Xlen@?$vector@PAVCD3D11EnumAdapterInfo@@V?$allocator@PAVCD3D11EnumAdapterInfo@@@std@@@std@@IBEXXZ ; std::vector<CD3D11EnumAdapterInfo *,std::allocator<CD3D11EnumAdapterInfo *> >::_Xlen
PUBLIC	?_Orphan_range@?$vector@PAVCD3D11EnumAdapterInfo@@V?$allocator@PAVCD3D11EnumAdapterInfo@@@std@@@std@@IBEXPAPAVCD3D11EnumAdapterInfo@@0@Z ; std::vector<CD3D11EnumAdapterInfo *,std::allocator<CD3D11EnumAdapterInfo *> >::_Orphan_range
PUBLIC	?EnumerateOutputs@CD3D11Enumeration@@AAEJPAVCD3D11EnumAdapterInfo@@@Z ; CD3D11Enumeration::EnumerateOutputs
PUBLIC	?EnumerateDevices@CD3D11Enumeration@@AAEJPAVCD3D11EnumAdapterInfo@@@Z ; CD3D11Enumeration::EnumerateDevices
PUBLIC	?EnumerateDeviceCombos@CD3D11Enumeration@@AAEJPAVCD3D11EnumAdapterInfo@@@Z ; CD3D11Enumeration::EnumerateDeviceCombos
PUBLIC	?EnumerateDeviceCombosNoAdapter@CD3D11Enumeration@@AAEJPAVCD3D11EnumAdapterInfo@@@Z ; CD3D11Enumeration::EnumerateDeviceCombosNoAdapter
PUBLIC	?EnumerateDisplayModes@CD3D11Enumeration@@AAEJPAVCD3D11EnumOutputInfo@@@Z ; CD3D11Enumeration::EnumerateDisplayModes
PUBLIC	?BuildMultiSampleQualityList@CD3D11Enumeration@@AAEXW4DXGI_FORMAT@@PAUCD3D11EnumDeviceSettingsCombo@@@Z ; CD3D11Enumeration::BuildMultiSampleQualityList
PUBLIC	?ClearAdapterInfoList@CD3D11Enumeration@@AAEXXZ	; CD3D11Enumeration::ClearAdapterInfoList
PUBLIC	??_GCD3D11Enumeration@@QAEPAXI@Z		; CD3D11Enumeration::`scalar deleting destructor'
PUBLIC	?DXUTGetD3D11Enumeration@@YGPAVCD3D11Enumeration@@_N0W4D3D_FEATURE_LEVEL@@@Z ; DXUTGetD3D11Enumeration
PUBLIC	??0CD3D11EnumAdapterInfo@@QAE@XZ		; CD3D11EnumAdapterInfo::CD3D11EnumAdapterInfo
PUBLIC	??1CD3D11EnumAdapterInfo@@QAE@XZ		; CD3D11EnumAdapterInfo::~CD3D11EnumAdapterInfo
PUBLIC	??0?$allocator@PAVCD3D11EnumOutputInfo@@@std@@QAE@XZ ; std::allocator<CD3D11EnumOutputInfo *>::allocator<CD3D11EnumOutputInfo *>
PUBLIC	?deallocate@?$allocator@PAVCD3D11EnumOutputInfo@@@std@@QAEXPAPAVCD3D11EnumOutputInfo@@I@Z ; std::allocator<CD3D11EnumOutputInfo *>::deallocate
PUBLIC	?allocate@?$allocator@PAVCD3D11EnumOutputInfo@@@std@@QAEPAPAVCD3D11EnumOutputInfo@@I@Z ; std::allocator<CD3D11EnumOutputInfo *>::allocate
PUBLIC	?construct@?$allocator@PAVCD3D11EnumOutputInfo@@@std@@QAEXPAPAVCD3D11EnumOutputInfo@@ABQAV3@@Z ; std::allocator<CD3D11EnumOutputInfo *>::construct
PUBLIC	?max_size@?$allocator@PAVCD3D11EnumOutputInfo@@@std@@QBEIXZ ; std::allocator<CD3D11EnumOutputInfo *>::max_size
PUBLIC	?max_size@?$allocator_traits@V?$allocator@PAVCD3D11EnumOutputInfo@@@std@@@std@@SAIABV?$allocator@PAVCD3D11EnumOutputInfo@@@2@@Z ; std::allocator_traits<std::allocator<CD3D11EnumOutputInfo *> >::max_size
PUBLIC	??0?$_Wrap_alloc@V?$allocator@PAVCD3D11EnumOutputInfo@@@std@@@std@@QAE@XZ ; std::_Wrap_alloc<std::allocator<CD3D11EnumOutputInfo *> >::_Wrap_alloc<std::allocator<CD3D11EnumOutputInfo *> >
PUBLIC	?allocate@?$_Wrap_alloc@V?$allocator@PAVCD3D11EnumOutputInfo@@@std@@@std@@QAEPAPAVCD3D11EnumOutputInfo@@I@Z ; std::_Wrap_alloc<std::allocator<CD3D11EnumOutputInfo *> >::allocate
PUBLIC	?deallocate@?$_Wrap_alloc@V?$allocator@PAVCD3D11EnumOutputInfo@@@std@@@std@@QAEXPAPAVCD3D11EnumOutputInfo@@I@Z ; std::_Wrap_alloc<std::allocator<CD3D11EnumOutputInfo *> >::deallocate
PUBLIC	?max_size@?$_Wrap_alloc@V?$allocator@PAVCD3D11EnumOutputInfo@@@std@@@std@@QBEIXZ ; std::_Wrap_alloc<std::allocator<CD3D11EnumOutputInfo *> >::max_size
PUBLIC	??0?$_Vector_val@U?$_Simple_types@PAVCD3D11EnumOutputInfo@@@std@@@std@@QAE@XZ ; std::_Vector_val<std::_Simple_types<CD3D11EnumOutputInfo *> >::_Vector_val<std::_Simple_types<CD3D11EnumOutputInfo *> >
PUBLIC	??1?$_Vector_val@U?$_Simple_types@PAVCD3D11EnumOutputInfo@@@std@@@std@@QAE@XZ ; std::_Vector_val<std::_Simple_types<CD3D11EnumOutputInfo *> >::~_Vector_val<std::_Simple_types<CD3D11EnumOutputInfo *> >
PUBLIC	??0?$_Vector_alloc@$0A@U?$_Vec_base_types@PAVCD3D11EnumOutputInfo@@V?$allocator@PAVCD3D11EnumOutputInfo@@@std@@@std@@@std@@QAE@ABV?$allocator@PAVCD3D11EnumOutputInfo@@@1@@Z ; std::_Vector_alloc<0,std::_Vec_base_types<CD3D11EnumOutputInfo *,std::allocator<CD3D11EnumOutputInfo *> > >::_Vector_alloc<0,std::_Vec_base_types<CD3D11EnumOutputInfo *,std::allocator<CD3D11EnumOutputInfo *> > >
PUBLIC	??1?$_Vector_alloc@$0A@U?$_Vec_base_types@PAVCD3D11EnumOutputInfo@@V?$allocator@PAVCD3D11EnumOutputInfo@@@std@@@std@@@std@@QAE@XZ ; std::_Vector_alloc<0,std::_Vec_base_types<CD3D11EnumOutputInfo *,std::allocator<CD3D11EnumOutputInfo *> > >::~_Vector_alloc<0,std::_Vec_base_types<CD3D11EnumOutputInfo *,std::allocator<CD3D11EnumOutputInfo *> > >
PUBLIC	?_Alloc_proxy@?$_Vector_alloc@$0A@U?$_Vec_base_types@PAVCD3D11EnumOutputInfo@@V?$allocator@PAVCD3D11EnumOutputInfo@@@std@@@std@@@std@@QAEXXZ ; std::_Vector_alloc<0,std::_Vec_base_types<CD3D11EnumOutputInfo *,std::allocator<CD3D11EnumOutputInfo *> > >::_Alloc_proxy
PUBLIC	?_Free_proxy@?$_Vector_alloc@$0A@U?$_Vec_base_types@PAVCD3D11EnumOutputInfo@@V?$allocator@PAVCD3D11EnumOutputInfo@@@std@@@std@@@std@@QAEXXZ ; std::_Vector_alloc<0,std::_Vec_base_types<CD3D11EnumOutputInfo *,std::allocator<CD3D11EnumOutputInfo *> > >::_Free_proxy
PUBLIC	?_Getal@?$_Vector_alloc@$0A@U?$_Vec_base_types@PAVCD3D11EnumOutputInfo@@V?$allocator@PAVCD3D11EnumOutputInfo@@@std@@@std@@@std@@QBE?AU?$_Wrap_alloc@V?$allocator@PAVCD3D11EnumOutputInfo@@@std@@@2@XZ ; std::_Vector_alloc<0,std::_Vec_base_types<CD3D11EnumOutputInfo *,std::allocator<CD3D11EnumOutputInfo *> > >::_Getal
PUBLIC	??0?$vector@PAVCD3D11EnumOutputInfo@@V?$allocator@PAVCD3D11EnumOutputInfo@@@std@@@std@@QAE@XZ ; std::vector<CD3D11EnumOutputInfo *,std::allocator<CD3D11EnumOutputInfo *> >::vector<CD3D11EnumOutputInfo *,std::allocator<CD3D11EnumOutputInfo *> >
PUBLIC	??1?$vector@PAVCD3D11EnumOutputInfo@@V?$allocator@PAVCD3D11EnumOutputInfo@@@std@@@std@@QAE@XZ ; std::vector<CD3D11EnumOutputInfo *,std::allocator<CD3D11EnumOutputInfo *> >::~vector<CD3D11EnumOutputInfo *,std::allocator<CD3D11EnumOutputInfo *> >
PUBLIC	?capacity@?$vector@PAVCD3D11EnumOutputInfo@@V?$allocator@PAVCD3D11EnumOutputInfo@@@std@@@std@@QBEIXZ ; std::vector<CD3D11EnumOutputInfo *,std::allocator<CD3D11EnumOutputInfo *> >::capacity
PUBLIC	?_Unused_capacity@?$vector@PAVCD3D11EnumOutputInfo@@V?$allocator@PAVCD3D11EnumOutputInfo@@@std@@@std@@QBEIXZ ; std::vector<CD3D11EnumOutputInfo *,std::allocator<CD3D11EnumOutputInfo *> >::_Unused_capacity
PUBLIC	?size@?$vector@PAVCD3D11EnumOutputInfo@@V?$allocator@PAVCD3D11EnumOutputInfo@@@std@@@std@@QBEIXZ ; std::vector<CD3D11EnumOutputInfo *,std::allocator<CD3D11EnumOutputInfo *> >::size
PUBLIC	?max_size@?$vector@PAVCD3D11EnumOutputInfo@@V?$allocator@PAVCD3D11EnumOutputInfo@@@std@@@std@@QBEIXZ ; std::vector<CD3D11EnumOutputInfo *,std::allocator<CD3D11EnumOutputInfo *> >::max_size
PUBLIC	?empty@?$vector@PAVCD3D11EnumOutputInfo@@V?$allocator@PAVCD3D11EnumOutputInfo@@@std@@@std@@QBE_NXZ ; std::vector<CD3D11EnumOutputInfo *,std::allocator<CD3D11EnumOutputInfo *> >::empty
PUBLIC	??A?$vector@PAVCD3D11EnumOutputInfo@@V?$allocator@PAVCD3D11EnumOutputInfo@@@std@@@std@@QAEAAPAVCD3D11EnumOutputInfo@@I@Z ; std::vector<CD3D11EnumOutputInfo *,std::allocator<CD3D11EnumOutputInfo *> >::operator[]
PUBLIC	?push_back@?$vector@PAVCD3D11EnumOutputInfo@@V?$allocator@PAVCD3D11EnumOutputInfo@@@std@@@std@@QAEXABQAVCD3D11EnumOutputInfo@@@Z ; std::vector<CD3D11EnumOutputInfo *,std::allocator<CD3D11EnumOutputInfo *> >::push_back
PUBLIC	?clear@?$vector@PAVCD3D11EnumOutputInfo@@V?$allocator@PAVCD3D11EnumOutputInfo@@@std@@@std@@QAEXXZ ; std::vector<CD3D11EnumOutputInfo *,std::allocator<CD3D11EnumOutputInfo *> >::clear
PUBLIC	?_Destroy@?$vector@PAVCD3D11EnumOutputInfo@@V?$allocator@PAVCD3D11EnumOutputInfo@@@std@@@std@@IAEXPAPAVCD3D11EnumOutputInfo@@0@Z ; std::vector<CD3D11EnumOutputInfo *,std::allocator<CD3D11EnumOutputInfo *> >::_Destroy
PUBLIC	?_Grow_to@?$vector@PAVCD3D11EnumOutputInfo@@V?$allocator@PAVCD3D11EnumOutputInfo@@@std@@@std@@IBEII@Z ; std::vector<CD3D11EnumOutputInfo *,std::allocator<CD3D11EnumOutputInfo *> >::_Grow_to
PUBLIC	?_Inside@?$vector@PAVCD3D11EnumOutputInfo@@V?$allocator@PAVCD3D11EnumOutputInfo@@@std@@@std@@IBE_NPBQAVCD3D11EnumOutputInfo@@@Z ; std::vector<CD3D11EnumOutputInfo *,std::allocator<CD3D11EnumOutputInfo *> >::_Inside
PUBLIC	?_Reallocate@?$vector@PAVCD3D11EnumOutputInfo@@V?$allocator@PAVCD3D11EnumOutputInfo@@@std@@@std@@IAEXI@Z ; std::vector<CD3D11EnumOutputInfo *,std::allocator<CD3D11EnumOutputInfo *> >::_Reallocate
PUBLIC	?_Reserve@?$vector@PAVCD3D11EnumOutputInfo@@V?$allocator@PAVCD3D11EnumOutputInfo@@@std@@@std@@IAEXI@Z ; std::vector<CD3D11EnumOutputInfo *,std::allocator<CD3D11EnumOutputInfo *> >::_Reserve
PUBLIC	?_Tidy@?$vector@PAVCD3D11EnumOutputInfo@@V?$allocator@PAVCD3D11EnumOutputInfo@@@std@@@std@@IAEXXZ ; std::vector<CD3D11EnumOutputInfo *,std::allocator<CD3D11EnumOutputInfo *> >::_Tidy
PUBLIC	?_Xlen@?$vector@PAVCD3D11EnumOutputInfo@@V?$allocator@PAVCD3D11EnumOutputInfo@@@std@@@std@@IBEXXZ ; std::vector<CD3D11EnumOutputInfo *,std::allocator<CD3D11EnumOutputInfo *> >::_Xlen
PUBLIC	?_Orphan_range@?$vector@PAVCD3D11EnumOutputInfo@@V?$allocator@PAVCD3D11EnumOutputInfo@@@std@@@std@@IBEXPAPAVCD3D11EnumOutputInfo@@0@Z ; std::vector<CD3D11EnumOutputInfo *,std::allocator<CD3D11EnumOutputInfo *> >::_Orphan_range
PUBLIC	??0?$allocator@PAVCD3D11EnumDeviceInfo@@@std@@QAE@XZ ; std::allocator<CD3D11EnumDeviceInfo *>::allocator<CD3D11EnumDeviceInfo *>
PUBLIC	?deallocate@?$allocator@PAVCD3D11EnumDeviceInfo@@@std@@QAEXPAPAVCD3D11EnumDeviceInfo@@I@Z ; std::allocator<CD3D11EnumDeviceInfo *>::deallocate
PUBLIC	?allocate@?$allocator@PAVCD3D11EnumDeviceInfo@@@std@@QAEPAPAVCD3D11EnumDeviceInfo@@I@Z ; std::allocator<CD3D11EnumDeviceInfo *>::allocate
PUBLIC	?construct@?$allocator@PAVCD3D11EnumDeviceInfo@@@std@@QAEXPAPAVCD3D11EnumDeviceInfo@@ABQAV3@@Z ; std::allocator<CD3D11EnumDeviceInfo *>::construct
PUBLIC	?max_size@?$allocator@PAVCD3D11EnumDeviceInfo@@@std@@QBEIXZ ; std::allocator<CD3D11EnumDeviceInfo *>::max_size
PUBLIC	?max_size@?$allocator_traits@V?$allocator@PAVCD3D11EnumDeviceInfo@@@std@@@std@@SAIABV?$allocator@PAVCD3D11EnumDeviceInfo@@@2@@Z ; std::allocator_traits<std::allocator<CD3D11EnumDeviceInfo *> >::max_size
PUBLIC	??0?$_Wrap_alloc@V?$allocator@PAVCD3D11EnumDeviceInfo@@@std@@@std@@QAE@XZ ; std::_Wrap_alloc<std::allocator<CD3D11EnumDeviceInfo *> >::_Wrap_alloc<std::allocator<CD3D11EnumDeviceInfo *> >
PUBLIC	?allocate@?$_Wrap_alloc@V?$allocator@PAVCD3D11EnumDeviceInfo@@@std@@@std@@QAEPAPAVCD3D11EnumDeviceInfo@@I@Z ; std::_Wrap_alloc<std::allocator<CD3D11EnumDeviceInfo *> >::allocate
PUBLIC	?deallocate@?$_Wrap_alloc@V?$allocator@PAVCD3D11EnumDeviceInfo@@@std@@@std@@QAEXPAPAVCD3D11EnumDeviceInfo@@I@Z ; std::_Wrap_alloc<std::allocator<CD3D11EnumDeviceInfo *> >::deallocate
PUBLIC	?max_size@?$_Wrap_alloc@V?$allocator@PAVCD3D11EnumDeviceInfo@@@std@@@std@@QBEIXZ ; std::_Wrap_alloc<std::allocator<CD3D11EnumDeviceInfo *> >::max_size
PUBLIC	??0?$_Vector_val@U?$_Simple_types@PAVCD3D11EnumDeviceInfo@@@std@@@std@@QAE@XZ ; std::_Vector_val<std::_Simple_types<CD3D11EnumDeviceInfo *> >::_Vector_val<std::_Simple_types<CD3D11EnumDeviceInfo *> >
PUBLIC	??1?$_Vector_val@U?$_Simple_types@PAVCD3D11EnumDeviceInfo@@@std@@@std@@QAE@XZ ; std::_Vector_val<std::_Simple_types<CD3D11EnumDeviceInfo *> >::~_Vector_val<std::_Simple_types<CD3D11EnumDeviceInfo *> >
PUBLIC	??0?$_Vector_alloc@$0A@U?$_Vec_base_types@PAVCD3D11EnumDeviceInfo@@V?$allocator@PAVCD3D11EnumDeviceInfo@@@std@@@std@@@std@@QAE@ABV?$allocator@PAVCD3D11EnumDeviceInfo@@@1@@Z ; std::_Vector_alloc<0,std::_Vec_base_types<CD3D11EnumDeviceInfo *,std::allocator<CD3D11EnumDeviceInfo *> > >::_Vector_alloc<0,std::_Vec_base_types<CD3D11EnumDeviceInfo *,std::allocator<CD3D11EnumDeviceInfo *> > >
PUBLIC	??1?$_Vector_alloc@$0A@U?$_Vec_base_types@PAVCD3D11EnumDeviceInfo@@V?$allocator@PAVCD3D11EnumDeviceInfo@@@std@@@std@@@std@@QAE@XZ ; std::_Vector_alloc<0,std::_Vec_base_types<CD3D11EnumDeviceInfo *,std::allocator<CD3D11EnumDeviceInfo *> > >::~_Vector_alloc<0,std::_Vec_base_types<CD3D11EnumDeviceInfo *,std::allocator<CD3D11EnumDeviceInfo *> > >
PUBLIC	?_Alloc_proxy@?$_Vector_alloc@$0A@U?$_Vec_base_types@PAVCD3D11EnumDeviceInfo@@V?$allocator@PAVCD3D11EnumDeviceInfo@@@std@@@std@@@std@@QAEXXZ ; std::_Vector_alloc<0,std::_Vec_base_types<CD3D11EnumDeviceInfo *,std::allocator<CD3D11EnumDeviceInfo *> > >::_Alloc_proxy
PUBLIC	?_Free_proxy@?$_Vector_alloc@$0A@U?$_Vec_base_types@PAVCD3D11EnumDeviceInfo@@V?$allocator@PAVCD3D11EnumDeviceInfo@@@std@@@std@@@std@@QAEXXZ ; std::_Vector_alloc<0,std::_Vec_base_types<CD3D11EnumDeviceInfo *,std::allocator<CD3D11EnumDeviceInfo *> > >::_Free_proxy
PUBLIC	?_Getal@?$_Vector_alloc@$0A@U?$_Vec_base_types@PAVCD3D11EnumDeviceInfo@@V?$allocator@PAVCD3D11EnumDeviceInfo@@@std@@@std@@@std@@QBE?AU?$_Wrap_alloc@V?$allocator@PAVCD3D11EnumDeviceInfo@@@std@@@2@XZ ; std::_Vector_alloc<0,std::_Vec_base_types<CD3D11EnumDeviceInfo *,std::allocator<CD3D11EnumDeviceInfo *> > >::_Getal
PUBLIC	??0?$vector@PAVCD3D11EnumDeviceInfo@@V?$allocator@PAVCD3D11EnumDeviceInfo@@@std@@@std@@QAE@XZ ; std::vector<CD3D11EnumDeviceInfo *,std::allocator<CD3D11EnumDeviceInfo *> >::vector<CD3D11EnumDeviceInfo *,std::allocator<CD3D11EnumDeviceInfo *> >
PUBLIC	??1?$vector@PAVCD3D11EnumDeviceInfo@@V?$allocator@PAVCD3D11EnumDeviceInfo@@@std@@@std@@QAE@XZ ; std::vector<CD3D11EnumDeviceInfo *,std::allocator<CD3D11EnumDeviceInfo *> >::~vector<CD3D11EnumDeviceInfo *,std::allocator<CD3D11EnumDeviceInfo *> >
PUBLIC	?capacity@?$vector@PAVCD3D11EnumDeviceInfo@@V?$allocator@PAVCD3D11EnumDeviceInfo@@@std@@@std@@QBEIXZ ; std::vector<CD3D11EnumDeviceInfo *,std::allocator<CD3D11EnumDeviceInfo *> >::capacity
PUBLIC	?_Unused_capacity@?$vector@PAVCD3D11EnumDeviceInfo@@V?$allocator@PAVCD3D11EnumDeviceInfo@@@std@@@std@@QBEIXZ ; std::vector<CD3D11EnumDeviceInfo *,std::allocator<CD3D11EnumDeviceInfo *> >::_Unused_capacity
PUBLIC	?begin@?$vector@PAVCD3D11EnumDeviceInfo@@V?$allocator@PAVCD3D11EnumDeviceInfo@@@std@@@std@@QBE?AV?$_Vector_const_iterator@V?$_Vector_val@U?$_Simple_types@PAVCD3D11EnumDeviceInfo@@@std@@@std@@@2@XZ ; std::vector<CD3D11EnumDeviceInfo *,std::allocator<CD3D11EnumDeviceInfo *> >::begin
PUBLIC	?end@?$vector@PAVCD3D11EnumDeviceInfo@@V?$allocator@PAVCD3D11EnumDeviceInfo@@@std@@@std@@QBE?AV?$_Vector_const_iterator@V?$_Vector_val@U?$_Simple_types@PAVCD3D11EnumDeviceInfo@@@std@@@std@@@2@XZ ; std::vector<CD3D11EnumDeviceInfo *,std::allocator<CD3D11EnumDeviceInfo *> >::end
PUBLIC	?cbegin@?$vector@PAVCD3D11EnumDeviceInfo@@V?$allocator@PAVCD3D11EnumDeviceInfo@@@std@@@std@@QBE?AV?$_Vector_const_iterator@V?$_Vector_val@U?$_Simple_types@PAVCD3D11EnumDeviceInfo@@@std@@@std@@@2@XZ ; std::vector<CD3D11EnumDeviceInfo *,std::allocator<CD3D11EnumDeviceInfo *> >::cbegin
PUBLIC	?cend@?$vector@PAVCD3D11EnumDeviceInfo@@V?$allocator@PAVCD3D11EnumDeviceInfo@@@std@@@std@@QBE?AV?$_Vector_const_iterator@V?$_Vector_val@U?$_Simple_types@PAVCD3D11EnumDeviceInfo@@@std@@@std@@@2@XZ ; std::vector<CD3D11EnumDeviceInfo *,std::allocator<CD3D11EnumDeviceInfo *> >::cend
PUBLIC	?size@?$vector@PAVCD3D11EnumDeviceInfo@@V?$allocator@PAVCD3D11EnumDeviceInfo@@@std@@@std@@QBEIXZ ; std::vector<CD3D11EnumDeviceInfo *,std::allocator<CD3D11EnumDeviceInfo *> >::size
PUBLIC	?max_size@?$vector@PAVCD3D11EnumDeviceInfo@@V?$allocator@PAVCD3D11EnumDeviceInfo@@@std@@@std@@QBEIXZ ; std::vector<CD3D11EnumDeviceInfo *,std::allocator<CD3D11EnumDeviceInfo *> >::max_size
PUBLIC	??A?$vector@PAVCD3D11EnumDeviceInfo@@V?$allocator@PAVCD3D11EnumDeviceInfo@@@std@@@std@@QAEAAPAVCD3D11EnumDeviceInfo@@I@Z ; std::vector<CD3D11EnumDeviceInfo *,std::allocator<CD3D11EnumDeviceInfo *> >::operator[]
PUBLIC	?push_back@?$vector@PAVCD3D11EnumDeviceInfo@@V?$allocator@PAVCD3D11EnumDeviceInfo@@@std@@@std@@QAEXABQAVCD3D11EnumDeviceInfo@@@Z ; std::vector<CD3D11EnumDeviceInfo *,std::allocator<CD3D11EnumDeviceInfo *> >::push_back
PUBLIC	?clear@?$vector@PAVCD3D11EnumDeviceInfo@@V?$allocator@PAVCD3D11EnumDeviceInfo@@@std@@@std@@QAEXXZ ; std::vector<CD3D11EnumDeviceInfo *,std::allocator<CD3D11EnumDeviceInfo *> >::clear
PUBLIC	?_Destroy@?$vector@PAVCD3D11EnumDeviceInfo@@V?$allocator@PAVCD3D11EnumDeviceInfo@@@std@@@std@@IAEXPAPAVCD3D11EnumDeviceInfo@@0@Z ; std::vector<CD3D11EnumDeviceInfo *,std::allocator<CD3D11EnumDeviceInfo *> >::_Destroy
PUBLIC	?_Grow_to@?$vector@PAVCD3D11EnumDeviceInfo@@V?$allocator@PAVCD3D11EnumDeviceInfo@@@std@@@std@@IBEII@Z ; std::vector<CD3D11EnumDeviceInfo *,std::allocator<CD3D11EnumDeviceInfo *> >::_Grow_to
PUBLIC	?_Inside@?$vector@PAVCD3D11EnumDeviceInfo@@V?$allocator@PAVCD3D11EnumDeviceInfo@@@std@@@std@@IBE_NPBQAVCD3D11EnumDeviceInfo@@@Z ; std::vector<CD3D11EnumDeviceInfo *,std::allocator<CD3D11EnumDeviceInfo *> >::_Inside
PUBLIC	?_Reallocate@?$vector@PAVCD3D11EnumDeviceInfo@@V?$allocator@PAVCD3D11EnumDeviceInfo@@@std@@@std@@IAEXI@Z ; std::vector<CD3D11EnumDeviceInfo *,std::allocator<CD3D11EnumDeviceInfo *> >::_Reallocate
PUBLIC	?_Reserve@?$vector@PAVCD3D11EnumDeviceInfo@@V?$allocator@PAVCD3D11EnumDeviceInfo@@@std@@@std@@IAEXI@Z ; std::vector<CD3D11EnumDeviceInfo *,std::allocator<CD3D11EnumDeviceInfo *> >::_Reserve
PUBLIC	?_Tidy@?$vector@PAVCD3D11EnumDeviceInfo@@V?$allocator@PAVCD3D11EnumDeviceInfo@@@std@@@std@@IAEXXZ ; std::vector<CD3D11EnumDeviceInfo *,std::allocator<CD3D11EnumDeviceInfo *> >::_Tidy
PUBLIC	?_Xlen@?$vector@PAVCD3D11EnumDeviceInfo@@V?$allocator@PAVCD3D11EnumDeviceInfo@@@std@@@std@@IBEXXZ ; std::vector<CD3D11EnumDeviceInfo *,std::allocator<CD3D11EnumDeviceInfo *> >::_Xlen
PUBLIC	?_Orphan_range@?$vector@PAVCD3D11EnumDeviceInfo@@V?$allocator@PAVCD3D11EnumDeviceInfo@@@std@@@std@@IBEXPAPAVCD3D11EnumDeviceInfo@@0@Z ; std::vector<CD3D11EnumDeviceInfo *,std::allocator<CD3D11EnumDeviceInfo *> >::_Orphan_range
PUBLIC	??0?$allocator@PAUCD3D11EnumDeviceSettingsCombo@@@std@@QAE@XZ ; std::allocator<CD3D11EnumDeviceSettingsCombo *>::allocator<CD3D11EnumDeviceSettingsCombo *>
PUBLIC	?deallocate@?$allocator@PAUCD3D11EnumDeviceSettingsCombo@@@std@@QAEXPAPAUCD3D11EnumDeviceSettingsCombo@@I@Z ; std::allocator<CD3D11EnumDeviceSettingsCombo *>::deallocate
PUBLIC	?allocate@?$allocator@PAUCD3D11EnumDeviceSettingsCombo@@@std@@QAEPAPAUCD3D11EnumDeviceSettingsCombo@@I@Z ; std::allocator<CD3D11EnumDeviceSettingsCombo *>::allocate
PUBLIC	?construct@?$allocator@PAUCD3D11EnumDeviceSettingsCombo@@@std@@QAEXPAPAUCD3D11EnumDeviceSettingsCombo@@ABQAU3@@Z ; std::allocator<CD3D11EnumDeviceSettingsCombo *>::construct
PUBLIC	?max_size@?$allocator@PAUCD3D11EnumDeviceSettingsCombo@@@std@@QBEIXZ ; std::allocator<CD3D11EnumDeviceSettingsCombo *>::max_size
PUBLIC	?max_size@?$allocator_traits@V?$allocator@PAUCD3D11EnumDeviceSettingsCombo@@@std@@@std@@SAIABV?$allocator@PAUCD3D11EnumDeviceSettingsCombo@@@2@@Z ; std::allocator_traits<std::allocator<CD3D11EnumDeviceSettingsCombo *> >::max_size
PUBLIC	??0?$_Wrap_alloc@V?$allocator@PAUCD3D11EnumDeviceSettingsCombo@@@std@@@std@@QAE@XZ ; std::_Wrap_alloc<std::allocator<CD3D11EnumDeviceSettingsCombo *> >::_Wrap_alloc<std::allocator<CD3D11EnumDeviceSettingsCombo *> >
PUBLIC	?allocate@?$_Wrap_alloc@V?$allocator@PAUCD3D11EnumDeviceSettingsCombo@@@std@@@std@@QAEPAPAUCD3D11EnumDeviceSettingsCombo@@I@Z ; std::_Wrap_alloc<std::allocator<CD3D11EnumDeviceSettingsCombo *> >::allocate
PUBLIC	?deallocate@?$_Wrap_alloc@V?$allocator@PAUCD3D11EnumDeviceSettingsCombo@@@std@@@std@@QAEXPAPAUCD3D11EnumDeviceSettingsCombo@@I@Z ; std::_Wrap_alloc<std::allocator<CD3D11EnumDeviceSettingsCombo *> >::deallocate
PUBLIC	?max_size@?$_Wrap_alloc@V?$allocator@PAUCD3D11EnumDeviceSettingsCombo@@@std@@@std@@QBEIXZ ; std::_Wrap_alloc<std::allocator<CD3D11EnumDeviceSettingsCombo *> >::max_size
PUBLIC	??0?$_Vector_val@U?$_Simple_types@PAUCD3D11EnumDeviceSettingsCombo@@@std@@@std@@QAE@XZ ; std::_Vector_val<std::_Simple_types<CD3D11EnumDeviceSettingsCombo *> >::_Vector_val<std::_Simple_types<CD3D11EnumDeviceSettingsCombo *> >
PUBLIC	??1?$_Vector_val@U?$_Simple_types@PAUCD3D11EnumDeviceSettingsCombo@@@std@@@std@@QAE@XZ ; std::_Vector_val<std::_Simple_types<CD3D11EnumDeviceSettingsCombo *> >::~_Vector_val<std::_Simple_types<CD3D11EnumDeviceSettingsCombo *> >
PUBLIC	??0?$_Vector_alloc@$0A@U?$_Vec_base_types@PAUCD3D11EnumDeviceSettingsCombo@@V?$allocator@PAUCD3D11EnumDeviceSettingsCombo@@@std@@@std@@@std@@QAE@ABV?$allocator@PAUCD3D11EnumDeviceSettingsCombo@@@1@@Z ; std::_Vector_alloc<0,std::_Vec_base_types<CD3D11EnumDeviceSettingsCombo *,std::allocator<CD3D11EnumDeviceSettingsCombo *> > >::_Vector_alloc<0,std::_Vec_base_types<CD3D11EnumDeviceSettingsCombo *,std::allocator<CD3D11EnumDeviceSettingsCombo *> > >
PUBLIC	??1?$_Vector_alloc@$0A@U?$_Vec_base_types@PAUCD3D11EnumDeviceSettingsCombo@@V?$allocator@PAUCD3D11EnumDeviceSettingsCombo@@@std@@@std@@@std@@QAE@XZ ; std::_Vector_alloc<0,std::_Vec_base_types<CD3D11EnumDeviceSettingsCombo *,std::allocator<CD3D11EnumDeviceSettingsCombo *> > >::~_Vector_alloc<0,std::_Vec_base_types<CD3D11EnumDeviceSettingsCombo *,std::allocator<CD3D11EnumDeviceSettingsCombo *> > >
PUBLIC	?_Alloc_proxy@?$_Vector_alloc@$0A@U?$_Vec_base_types@PAUCD3D11EnumDeviceSettingsCombo@@V?$allocator@PAUCD3D11EnumDeviceSettingsCombo@@@std@@@std@@@std@@QAEXXZ ; std::_Vector_alloc<0,std::_Vec_base_types<CD3D11EnumDeviceSettingsCombo *,std::allocator<CD3D11EnumDeviceSettingsCombo *> > >::_Alloc_proxy
PUBLIC	?_Free_proxy@?$_Vector_alloc@$0A@U?$_Vec_base_types@PAUCD3D11EnumDeviceSettingsCombo@@V?$allocator@PAUCD3D11EnumDeviceSettingsCombo@@@std@@@std@@@std@@QAEXXZ ; std::_Vector_alloc<0,std::_Vec_base_types<CD3D11EnumDeviceSettingsCombo *,std::allocator<CD3D11EnumDeviceSettingsCombo *> > >::_Free_proxy
PUBLIC	?_Getal@?$_Vector_alloc@$0A@U?$_Vec_base_types@PAUCD3D11EnumDeviceSettingsCombo@@V?$allocator@PAUCD3D11EnumDeviceSettingsCombo@@@std@@@std@@@std@@QBE?AU?$_Wrap_alloc@V?$allocator@PAUCD3D11EnumDeviceSettingsCombo@@@std@@@2@XZ ; std::_Vector_alloc<0,std::_Vec_base_types<CD3D11EnumDeviceSettingsCombo *,std::allocator<CD3D11EnumDeviceSettingsCombo *> > >::_Getal
PUBLIC	??0?$vector@PAUCD3D11EnumDeviceSettingsCombo@@V?$allocator@PAUCD3D11EnumDeviceSettingsCombo@@@std@@@std@@QAE@XZ ; std::vector<CD3D11EnumDeviceSettingsCombo *,std::allocator<CD3D11EnumDeviceSettingsCombo *> >::vector<CD3D11EnumDeviceSettingsCombo *,std::allocator<CD3D11EnumDeviceSettingsCombo *> >
PUBLIC	??1?$vector@PAUCD3D11EnumDeviceSettingsCombo@@V?$allocator@PAUCD3D11EnumDeviceSettingsCombo@@@std@@@std@@QAE@XZ ; std::vector<CD3D11EnumDeviceSettingsCombo *,std::allocator<CD3D11EnumDeviceSettingsCombo *> >::~vector<CD3D11EnumDeviceSettingsCombo *,std::allocator<CD3D11EnumDeviceSettingsCombo *> >
PUBLIC	?capacity@?$vector@PAUCD3D11EnumDeviceSettingsCombo@@V?$allocator@PAUCD3D11EnumDeviceSettingsCombo@@@std@@@std@@QBEIXZ ; std::vector<CD3D11EnumDeviceSettingsCombo *,std::allocator<CD3D11EnumDeviceSettingsCombo *> >::capacity
PUBLIC	?_Unused_capacity@?$vector@PAUCD3D11EnumDeviceSettingsCombo@@V?$allocator@PAUCD3D11EnumDeviceSettingsCombo@@@std@@@std@@QBEIXZ ; std::vector<CD3D11EnumDeviceSettingsCombo *,std::allocator<CD3D11EnumDeviceSettingsCombo *> >::_Unused_capacity
PUBLIC	?size@?$vector@PAUCD3D11EnumDeviceSettingsCombo@@V?$allocator@PAUCD3D11EnumDeviceSettingsCombo@@@std@@@std@@QBEIXZ ; std::vector<CD3D11EnumDeviceSettingsCombo *,std::allocator<CD3D11EnumDeviceSettingsCombo *> >::size
PUBLIC	?max_size@?$vector@PAUCD3D11EnumDeviceSettingsCombo@@V?$allocator@PAUCD3D11EnumDeviceSettingsCombo@@@std@@@std@@QBEIXZ ; std::vector<CD3D11EnumDeviceSettingsCombo *,std::allocator<CD3D11EnumDeviceSettingsCombo *> >::max_size
PUBLIC	??A?$vector@PAUCD3D11EnumDeviceSettingsCombo@@V?$allocator@PAUCD3D11EnumDeviceSettingsCombo@@@std@@@std@@QAEAAPAUCD3D11EnumDeviceSettingsCombo@@I@Z ; std::vector<CD3D11EnumDeviceSettingsCombo *,std::allocator<CD3D11EnumDeviceSettingsCombo *> >::operator[]
PUBLIC	?push_back@?$vector@PAUCD3D11EnumDeviceSettingsCombo@@V?$allocator@PAUCD3D11EnumDeviceSettingsCombo@@@std@@@std@@QAEXABQAUCD3D11EnumDeviceSettingsCombo@@@Z ; std::vector<CD3D11EnumDeviceSettingsCombo *,std::allocator<CD3D11EnumDeviceSettingsCombo *> >::push_back
PUBLIC	?clear@?$vector@PAUCD3D11EnumDeviceSettingsCombo@@V?$allocator@PAUCD3D11EnumDeviceSettingsCombo@@@std@@@std@@QAEXXZ ; std::vector<CD3D11EnumDeviceSettingsCombo *,std::allocator<CD3D11EnumDeviceSettingsCombo *> >::clear
PUBLIC	?_Destroy@?$vector@PAUCD3D11EnumDeviceSettingsCombo@@V?$allocator@PAUCD3D11EnumDeviceSettingsCombo@@@std@@@std@@IAEXPAPAUCD3D11EnumDeviceSettingsCombo@@0@Z ; std::vector<CD3D11EnumDeviceSettingsCombo *,std::allocator<CD3D11EnumDeviceSettingsCombo *> >::_Destroy
PUBLIC	?_Grow_to@?$vector@PAUCD3D11EnumDeviceSettingsCombo@@V?$allocator@PAUCD3D11EnumDeviceSettingsCombo@@@std@@@std@@IBEII@Z ; std::vector<CD3D11EnumDeviceSettingsCombo *,std::allocator<CD3D11EnumDeviceSettingsCombo *> >::_Grow_to
PUBLIC	?_Inside@?$vector@PAUCD3D11EnumDeviceSettingsCombo@@V?$allocator@PAUCD3D11EnumDeviceSettingsCombo@@@std@@@std@@IBE_NPBQAUCD3D11EnumDeviceSettingsCombo@@@Z ; std::vector<CD3D11EnumDeviceSettingsCombo *,std::allocator<CD3D11EnumDeviceSettingsCombo *> >::_Inside
PUBLIC	?_Reallocate@?$vector@PAUCD3D11EnumDeviceSettingsCombo@@V?$allocator@PAUCD3D11EnumDeviceSettingsCombo@@@std@@@std@@IAEXI@Z ; std::vector<CD3D11EnumDeviceSettingsCombo *,std::allocator<CD3D11EnumDeviceSettingsCombo *> >::_Reallocate
PUBLIC	?_Reserve@?$vector@PAUCD3D11EnumDeviceSettingsCombo@@V?$allocator@PAUCD3D11EnumDeviceSettingsCombo@@@std@@@std@@IAEXI@Z ; std::vector<CD3D11EnumDeviceSettingsCombo *,std::allocator<CD3D11EnumDeviceSettingsCombo *> >::_Reserve
PUBLIC	?_Tidy@?$vector@PAUCD3D11EnumDeviceSettingsCombo@@V?$allocator@PAUCD3D11EnumDeviceSettingsCombo@@@std@@@std@@IAEXXZ ; std::vector<CD3D11EnumDeviceSettingsCombo *,std::allocator<CD3D11EnumDeviceSettingsCombo *> >::_Tidy
PUBLIC	?_Xlen@?$vector@PAUCD3D11EnumDeviceSettingsCombo@@V?$allocator@PAUCD3D11EnumDeviceSettingsCombo@@@std@@@std@@IBEXXZ ; std::vector<CD3D11EnumDeviceSettingsCombo *,std::allocator<CD3D11EnumDeviceSettingsCombo *> >::_Xlen
PUBLIC	?_Orphan_range@?$vector@PAUCD3D11EnumDeviceSettingsCombo@@V?$allocator@PAUCD3D11EnumDeviceSettingsCombo@@@std@@@std@@IBEXPAPAUCD3D11EnumDeviceSettingsCombo@@0@Z ; std::vector<CD3D11EnumDeviceSettingsCombo *,std::allocator<CD3D11EnumDeviceSettingsCombo *> >::_Orphan_range
PUBLIC	??_GCD3D11EnumAdapterInfo@@QAEPAXI@Z		; CD3D11EnumAdapterInfo::`scalar deleting destructor'
PUBLIC	??0CD3D11EnumOutputInfo@@QAE@XZ			; CD3D11EnumOutputInfo::CD3D11EnumOutputInfo
PUBLIC	??1CD3D11EnumOutputInfo@@QAE@XZ			; CD3D11EnumOutputInfo::~CD3D11EnumOutputInfo
PUBLIC	??0?$allocator@UDXGI_MODE_DESC@@@std@@QAE@XZ	; std::allocator<DXGI_MODE_DESC>::allocator<DXGI_MODE_DESC>
PUBLIC	?deallocate@?$allocator@UDXGI_MODE_DESC@@@std@@QAEXPAUDXGI_MODE_DESC@@I@Z ; std::allocator<DXGI_MODE_DESC>::deallocate
PUBLIC	?allocate@?$allocator@UDXGI_MODE_DESC@@@std@@QAEPAUDXGI_MODE_DESC@@I@Z ; std::allocator<DXGI_MODE_DESC>::allocate
PUBLIC	?construct@?$allocator@UDXGI_MODE_DESC@@@std@@QAEXPAUDXGI_MODE_DESC@@ABU3@@Z ; std::allocator<DXGI_MODE_DESC>::construct
PUBLIC	?max_size@?$allocator@UDXGI_MODE_DESC@@@std@@QBEIXZ ; std::allocator<DXGI_MODE_DESC>::max_size
PUBLIC	?max_size@?$allocator_traits@V?$allocator@UDXGI_MODE_DESC@@@std@@@std@@SAIABV?$allocator@UDXGI_MODE_DESC@@@2@@Z ; std::allocator_traits<std::allocator<DXGI_MODE_DESC> >::max_size
PUBLIC	??0?$_Wrap_alloc@V?$allocator@UDXGI_MODE_DESC@@@std@@@std@@QAE@XZ ; std::_Wrap_alloc<std::allocator<DXGI_MODE_DESC> >::_Wrap_alloc<std::allocator<DXGI_MODE_DESC> >
PUBLIC	?allocate@?$_Wrap_alloc@V?$allocator@UDXGI_MODE_DESC@@@std@@@std@@QAEPAUDXGI_MODE_DESC@@I@Z ; std::_Wrap_alloc<std::allocator<DXGI_MODE_DESC> >::allocate
PUBLIC	?deallocate@?$_Wrap_alloc@V?$allocator@UDXGI_MODE_DESC@@@std@@@std@@QAEXPAUDXGI_MODE_DESC@@I@Z ; std::_Wrap_alloc<std::allocator<DXGI_MODE_DESC> >::deallocate
PUBLIC	?max_size@?$_Wrap_alloc@V?$allocator@UDXGI_MODE_DESC@@@std@@@std@@QBEIXZ ; std::_Wrap_alloc<std::allocator<DXGI_MODE_DESC> >::max_size
PUBLIC	??0?$_Vector_val@U?$_Simple_types@UDXGI_MODE_DESC@@@std@@@std@@QAE@XZ ; std::_Vector_val<std::_Simple_types<DXGI_MODE_DESC> >::_Vector_val<std::_Simple_types<DXGI_MODE_DESC> >
PUBLIC	??1?$_Vector_val@U?$_Simple_types@UDXGI_MODE_DESC@@@std@@@std@@QAE@XZ ; std::_Vector_val<std::_Simple_types<DXGI_MODE_DESC> >::~_Vector_val<std::_Simple_types<DXGI_MODE_DESC> >
PUBLIC	??0?$_Vector_alloc@$0A@U?$_Vec_base_types@UDXGI_MODE_DESC@@V?$allocator@UDXGI_MODE_DESC@@@std@@@std@@@std@@QAE@ABV?$allocator@UDXGI_MODE_DESC@@@1@@Z ; std::_Vector_alloc<0,std::_Vec_base_types<DXGI_MODE_DESC,std::allocator<DXGI_MODE_DESC> > >::_Vector_alloc<0,std::_Vec_base_types<DXGI_MODE_DESC,std::allocator<DXGI_MODE_DESC> > >
PUBLIC	??1?$_Vector_alloc@$0A@U?$_Vec_base_types@UDXGI_MODE_DESC@@V?$allocator@UDXGI_MODE_DESC@@@std@@@std@@@std@@QAE@XZ ; std::_Vector_alloc<0,std::_Vec_base_types<DXGI_MODE_DESC,std::allocator<DXGI_MODE_DESC> > >::~_Vector_alloc<0,std::_Vec_base_types<DXGI_MODE_DESC,std::allocator<DXGI_MODE_DESC> > >
PUBLIC	?_Alloc_proxy@?$_Vector_alloc@$0A@U?$_Vec_base_types@UDXGI_MODE_DESC@@V?$allocator@UDXGI_MODE_DESC@@@std@@@std@@@std@@QAEXXZ ; std::_Vector_alloc<0,std::_Vec_base_types<DXGI_MODE_DESC,std::allocator<DXGI_MODE_DESC> > >::_Alloc_proxy
PUBLIC	?_Free_proxy@?$_Vector_alloc@$0A@U?$_Vec_base_types@UDXGI_MODE_DESC@@V?$allocator@UDXGI_MODE_DESC@@@std@@@std@@@std@@QAEXXZ ; std::_Vector_alloc<0,std::_Vec_base_types<DXGI_MODE_DESC,std::allocator<DXGI_MODE_DESC> > >::_Free_proxy
PUBLIC	?_Getal@?$_Vector_alloc@$0A@U?$_Vec_base_types@UDXGI_MODE_DESC@@V?$allocator@UDXGI_MODE_DESC@@@std@@@std@@@std@@QBE?AU?$_Wrap_alloc@V?$allocator@UDXGI_MODE_DESC@@@std@@@2@XZ ; std::_Vector_alloc<0,std::_Vec_base_types<DXGI_MODE_DESC,std::allocator<DXGI_MODE_DESC> > >::_Getal
PUBLIC	??0?$vector@UDXGI_MODE_DESC@@V?$allocator@UDXGI_MODE_DESC@@@std@@@std@@QAE@XZ ; std::vector<DXGI_MODE_DESC,std::allocator<DXGI_MODE_DESC> >::vector<DXGI_MODE_DESC,std::allocator<DXGI_MODE_DESC> >
PUBLIC	??1?$vector@UDXGI_MODE_DESC@@V?$allocator@UDXGI_MODE_DESC@@@std@@@std@@QAE@XZ ; std::vector<DXGI_MODE_DESC,std::allocator<DXGI_MODE_DESC> >::~vector<DXGI_MODE_DESC,std::allocator<DXGI_MODE_DESC> >
PUBLIC	?capacity@?$vector@UDXGI_MODE_DESC@@V?$allocator@UDXGI_MODE_DESC@@@std@@@std@@QBEIXZ ; std::vector<DXGI_MODE_DESC,std::allocator<DXGI_MODE_DESC> >::capacity
PUBLIC	?_Unused_capacity@?$vector@UDXGI_MODE_DESC@@V?$allocator@UDXGI_MODE_DESC@@@std@@@std@@QBEIXZ ; std::vector<DXGI_MODE_DESC,std::allocator<DXGI_MODE_DESC> >::_Unused_capacity
PUBLIC	?size@?$vector@UDXGI_MODE_DESC@@V?$allocator@UDXGI_MODE_DESC@@@std@@@std@@QBEIXZ ; std::vector<DXGI_MODE_DESC,std::allocator<DXGI_MODE_DESC> >::size
PUBLIC	?max_size@?$vector@UDXGI_MODE_DESC@@V?$allocator@UDXGI_MODE_DESC@@@std@@@std@@QBEIXZ ; std::vector<DXGI_MODE_DESC,std::allocator<DXGI_MODE_DESC> >::max_size
PUBLIC	?empty@?$vector@UDXGI_MODE_DESC@@V?$allocator@UDXGI_MODE_DESC@@@std@@@std@@QBE_NXZ ; std::vector<DXGI_MODE_DESC,std::allocator<DXGI_MODE_DESC> >::empty
PUBLIC	??A?$vector@UDXGI_MODE_DESC@@V?$allocator@UDXGI_MODE_DESC@@@std@@@std@@QAEAAUDXGI_MODE_DESC@@I@Z ; std::vector<DXGI_MODE_DESC,std::allocator<DXGI_MODE_DESC> >::operator[]
PUBLIC	?push_back@?$vector@UDXGI_MODE_DESC@@V?$allocator@UDXGI_MODE_DESC@@@std@@@std@@QAEXABUDXGI_MODE_DESC@@@Z ; std::vector<DXGI_MODE_DESC,std::allocator<DXGI_MODE_DESC> >::push_back
PUBLIC	?clear@?$vector@UDXGI_MODE_DESC@@V?$allocator@UDXGI_MODE_DESC@@@std@@@std@@QAEXXZ ; std::vector<DXGI_MODE_DESC,std::allocator<DXGI_MODE_DESC> >::clear
PUBLIC	?_Destroy@?$vector@UDXGI_MODE_DESC@@V?$allocator@UDXGI_MODE_DESC@@@std@@@std@@IAEXPAUDXGI_MODE_DESC@@0@Z ; std::vector<DXGI_MODE_DESC,std::allocator<DXGI_MODE_DESC> >::_Destroy
PUBLIC	?_Grow_to@?$vector@UDXGI_MODE_DESC@@V?$allocator@UDXGI_MODE_DESC@@@std@@@std@@IBEII@Z ; std::vector<DXGI_MODE_DESC,std::allocator<DXGI_MODE_DESC> >::_Grow_to
PUBLIC	?_Inside@?$vector@UDXGI_MODE_DESC@@V?$allocator@UDXGI_MODE_DESC@@@std@@@std@@IBE_NPBUDXGI_MODE_DESC@@@Z ; std::vector<DXGI_MODE_DESC,std::allocator<DXGI_MODE_DESC> >::_Inside
PUBLIC	?_Reallocate@?$vector@UDXGI_MODE_DESC@@V?$allocator@UDXGI_MODE_DESC@@@std@@@std@@IAEXI@Z ; std::vector<DXGI_MODE_DESC,std::allocator<DXGI_MODE_DESC> >::_Reallocate
PUBLIC	?_Reserve@?$vector@UDXGI_MODE_DESC@@V?$allocator@UDXGI_MODE_DESC@@@std@@@std@@IAEXI@Z ; std::vector<DXGI_MODE_DESC,std::allocator<DXGI_MODE_DESC> >::_Reserve
PUBLIC	?_Tidy@?$vector@UDXGI_MODE_DESC@@V?$allocator@UDXGI_MODE_DESC@@@std@@@std@@IAEXXZ ; std::vector<DXGI_MODE_DESC,std::allocator<DXGI_MODE_DESC> >::_Tidy
PUBLIC	?_Xlen@?$vector@UDXGI_MODE_DESC@@V?$allocator@UDXGI_MODE_DESC@@@std@@@std@@IBEXXZ ; std::vector<DXGI_MODE_DESC,std::allocator<DXGI_MODE_DESC> >::_Xlen
PUBLIC	?_Orphan_range@?$vector@UDXGI_MODE_DESC@@V?$allocator@UDXGI_MODE_DESC@@@std@@@std@@IBEXPAUDXGI_MODE_DESC@@0@Z ; std::vector<DXGI_MODE_DESC,std::allocator<DXGI_MODE_DESC> >::_Orphan_range
PUBLIC	??_GCD3D11EnumOutputInfo@@QAEPAXI@Z		; CD3D11EnumOutputInfo::`scalar deleting destructor'
PUBLIC	??1CD3D11EnumDeviceInfo@@QAE@XZ			; CD3D11EnumDeviceInfo::~CD3D11EnumDeviceInfo
PUBLIC	??_GCD3D11EnumDeviceInfo@@QAEPAXI@Z		; CD3D11EnumDeviceInfo::`scalar deleting destructor'
PUBLIC	??0?$allocator@I@std@@QAE@XZ			; std::allocator<unsigned int>::allocator<unsigned int>
PUBLIC	?deallocate@?$allocator@I@std@@QAEXPAII@Z	; std::allocator<unsigned int>::deallocate
PUBLIC	?allocate@?$allocator@I@std@@QAEPAII@Z		; std::allocator<unsigned int>::allocate
PUBLIC	?construct@?$allocator@I@std@@QAEXPAIABI@Z	; std::allocator<unsigned int>::construct
PUBLIC	?max_size@?$allocator@I@std@@QBEIXZ		; std::allocator<unsigned int>::max_size
PUBLIC	?max_size@?$allocator_traits@V?$allocator@I@std@@@std@@SAIABV?$allocator@I@2@@Z ; std::allocator_traits<std::allocator<unsigned int> >::max_size
PUBLIC	??0?$_Wrap_alloc@V?$allocator@I@std@@@std@@QAE@XZ ; std::_Wrap_alloc<std::allocator<unsigned int> >::_Wrap_alloc<std::allocator<unsigned int> >
PUBLIC	?allocate@?$_Wrap_alloc@V?$allocator@I@std@@@std@@QAEPAII@Z ; std::_Wrap_alloc<std::allocator<unsigned int> >::allocate
PUBLIC	?deallocate@?$_Wrap_alloc@V?$allocator@I@std@@@std@@QAEXPAII@Z ; std::_Wrap_alloc<std::allocator<unsigned int> >::deallocate
PUBLIC	?max_size@?$_Wrap_alloc@V?$allocator@I@std@@@std@@QBEIXZ ; std::_Wrap_alloc<std::allocator<unsigned int> >::max_size
PUBLIC	??0?$_Vector_val@U?$_Simple_types@I@std@@@std@@QAE@XZ ; std::_Vector_val<std::_Simple_types<unsigned int> >::_Vector_val<std::_Simple_types<unsigned int> >
PUBLIC	??1?$_Vector_val@U?$_Simple_types@I@std@@@std@@QAE@XZ ; std::_Vector_val<std::_Simple_types<unsigned int> >::~_Vector_val<std::_Simple_types<unsigned int> >
PUBLIC	??0?$_Vector_alloc@$0A@U?$_Vec_base_types@IV?$allocator@I@std@@@std@@@std@@QAE@ABV?$allocator@I@1@@Z ; std::_Vector_alloc<0,std::_Vec_base_types<unsigned int,std::allocator<unsigned int> > >::_Vector_alloc<0,std::_Vec_base_types<unsigned int,std::allocator<unsigned int> > >
PUBLIC	??1?$_Vector_alloc@$0A@U?$_Vec_base_types@IV?$allocator@I@std@@@std@@@std@@QAE@XZ ; std::_Vector_alloc<0,std::_Vec_base_types<unsigned int,std::allocator<unsigned int> > >::~_Vector_alloc<0,std::_Vec_base_types<unsigned int,std::allocator<unsigned int> > >
PUBLIC	?_Alloc_proxy@?$_Vector_alloc@$0A@U?$_Vec_base_types@IV?$allocator@I@std@@@std@@@std@@QAEXXZ ; std::_Vector_alloc<0,std::_Vec_base_types<unsigned int,std::allocator<unsigned int> > >::_Alloc_proxy
PUBLIC	?_Free_proxy@?$_Vector_alloc@$0A@U?$_Vec_base_types@IV?$allocator@I@std@@@std@@@std@@QAEXXZ ; std::_Vector_alloc<0,std::_Vec_base_types<unsigned int,std::allocator<unsigned int> > >::_Free_proxy
PUBLIC	?_Getal@?$_Vector_alloc@$0A@U?$_Vec_base_types@IV?$allocator@I@std@@@std@@@std@@QBE?AU?$_Wrap_alloc@V?$allocator@I@std@@@2@XZ ; std::_Vector_alloc<0,std::_Vec_base_types<unsigned int,std::allocator<unsigned int> > >::_Getal
PUBLIC	??0?$vector@IV?$allocator@I@std@@@std@@QAE@XZ	; std::vector<unsigned int,std::allocator<unsigned int> >::vector<unsigned int,std::allocator<unsigned int> >
PUBLIC	??1?$vector@IV?$allocator@I@std@@@std@@QAE@XZ	; std::vector<unsigned int,std::allocator<unsigned int> >::~vector<unsigned int,std::allocator<unsigned int> >
PUBLIC	?capacity@?$vector@IV?$allocator@I@std@@@std@@QBEIXZ ; std::vector<unsigned int,std::allocator<unsigned int> >::capacity
PUBLIC	?_Unused_capacity@?$vector@IV?$allocator@I@std@@@std@@QBEIXZ ; std::vector<unsigned int,std::allocator<unsigned int> >::_Unused_capacity
PUBLIC	?size@?$vector@IV?$allocator@I@std@@@std@@QBEIXZ ; std::vector<unsigned int,std::allocator<unsigned int> >::size
PUBLIC	?max_size@?$vector@IV?$allocator@I@std@@@std@@QBEIXZ ; std::vector<unsigned int,std::allocator<unsigned int> >::max_size
PUBLIC	??A?$vector@IV?$allocator@I@std@@@std@@QAEAAII@Z ; std::vector<unsigned int,std::allocator<unsigned int> >::operator[]
PUBLIC	?push_back@?$vector@IV?$allocator@I@std@@@std@@QAEXABI@Z ; std::vector<unsigned int,std::allocator<unsigned int> >::push_back
PUBLIC	?_Destroy@?$vector@IV?$allocator@I@std@@@std@@IAEXPAI0@Z ; std::vector<unsigned int,std::allocator<unsigned int> >::_Destroy
PUBLIC	?_Grow_to@?$vector@IV?$allocator@I@std@@@std@@IBEII@Z ; std::vector<unsigned int,std::allocator<unsigned int> >::_Grow_to
PUBLIC	?_Inside@?$vector@IV?$allocator@I@std@@@std@@IBE_NPBI@Z ; std::vector<unsigned int,std::allocator<unsigned int> >::_Inside
PUBLIC	?_Reallocate@?$vector@IV?$allocator@I@std@@@std@@IAEXI@Z ; std::vector<unsigned int,std::allocator<unsigned int> >::_Reallocate
PUBLIC	?_Reserve@?$vector@IV?$allocator@I@std@@@std@@IAEXI@Z ; std::vector<unsigned int,std::allocator<unsigned int> >::_Reserve
PUBLIC	?_Tidy@?$vector@IV?$allocator@I@std@@@std@@IAEXXZ ; std::vector<unsigned int,std::allocator<unsigned int> >::_Tidy
PUBLIC	?_Xlen@?$vector@IV?$allocator@I@std@@@std@@IBEXXZ ; std::vector<unsigned int,std::allocator<unsigned int> >::_Xlen
PUBLIC	?_Orphan_range@?$vector@IV?$allocator@I@std@@@std@@IBEXPAI0@Z ; std::vector<unsigned int,std::allocator<unsigned int> >::_Orphan_range
PUBLIC	??0CD3D11EnumDeviceSettingsCombo@@QAE@XZ	; CD3D11EnumDeviceSettingsCombo::CD3D11EnumDeviceSettingsCombo
PUBLIC	??1CD3D11EnumDeviceSettingsCombo@@QAE@XZ	; CD3D11EnumDeviceSettingsCombo::~CD3D11EnumDeviceSettingsCombo
PUBLIC	??_GCD3D11EnumDeviceSettingsCombo@@QAEPAXI@Z	; CD3D11EnumDeviceSettingsCombo::`scalar deleting destructor'
PUBLIC	?DXUTRankD3D11DeviceCombo@@YAMPAUCD3D11EnumDeviceSettingsCombo@@PAUDXUTD3D11DeviceSettings@@AAH2@Z ; DXUTRankD3D11DeviceCombo
PUBLIC	??$_Destroy_range@U?$_Wrap_alloc@V?$allocator@PAVCD3D11EnumOutputInfo@@@std@@@std@@@std@@YAXPAPAVCD3D11EnumOutputInfo@@0AAU?$_Wrap_alloc@V?$allocator@PAVCD3D11EnumOutputInfo@@@std@@@0@@Z ; std::_Destroy_range<std::_Wrap_alloc<std::allocator<CD3D11EnumOutputInfo *> > >
PUBLIC	??0?$allocator@U_Container_proxy@std@@@std@@QAE@XZ ; std::allocator<std::_Container_proxy>::allocator<std::_Container_proxy>
PUBLIC	?deallocate@?$allocator@U_Container_proxy@std@@@std@@QAEXPAU_Container_proxy@2@I@Z ; std::allocator<std::_Container_proxy>::deallocate
PUBLIC	?allocate@?$allocator@U_Container_proxy@std@@@std@@QAEPAU_Container_proxy@2@I@Z ; std::allocator<std::_Container_proxy>::allocate
PUBLIC	??0?$_Wrap_alloc@V?$allocator@U_Container_proxy@std@@@std@@@std@@QAE@XZ ; std::_Wrap_alloc<std::allocator<std::_Container_proxy> >::_Wrap_alloc<std::allocator<std::_Container_proxy> >
PUBLIC	?allocate@?$_Wrap_alloc@V?$allocator@U_Container_proxy@std@@@std@@@std@@QAEPAU_Container_proxy@2@I@Z ; std::_Wrap_alloc<std::allocator<std::_Container_proxy> >::allocate
PUBLIC	?deallocate@?$_Wrap_alloc@V?$allocator@U_Container_proxy@std@@@std@@@std@@QAEXPAU_Container_proxy@2@I@Z ; std::_Wrap_alloc<std::allocator<std::_Container_proxy> >::deallocate
PUBLIC	??$construct@U_Container_proxy@std@@U12@@?$_Wrap_alloc@V?$allocator@U_Container_proxy@std@@@std@@@std@@QAEXPAU_Container_proxy@1@$$QAU21@@Z ; std::_Wrap_alloc<std::allocator<std::_Container_proxy> >::construct<std::_Container_proxy,std::_Container_proxy>
PUBLIC	??$destroy@U_Container_proxy@std@@@?$_Wrap_alloc@V?$allocator@U_Container_proxy@std@@@std@@@std@@QAEXPAU_Container_proxy@1@@Z ; std::_Wrap_alloc<std::allocator<std::_Container_proxy> >::destroy<std::_Container_proxy>
PUBLIC	??$_Destroy_range@U?$_Wrap_alloc@V?$allocator@PAVCD3D11EnumDeviceInfo@@@std@@@std@@@std@@YAXPAPAVCD3D11EnumDeviceInfo@@0AAU?$_Wrap_alloc@V?$allocator@PAVCD3D11EnumDeviceInfo@@@std@@@0@@Z ; std::_Destroy_range<std::_Wrap_alloc<std::allocator<CD3D11EnumDeviceInfo *> > >
PUBLIC	??$_Destroy_range@U?$_Wrap_alloc@V?$allocator@PAUCD3D11EnumDeviceSettingsCombo@@@std@@@std@@@std@@YAXPAPAUCD3D11EnumDeviceSettingsCombo@@0AAU?$_Wrap_alloc@V?$allocator@PAUCD3D11EnumDeviceSettingsCombo@@@std@@@0@@Z ; std::_Destroy_range<std::_Wrap_alloc<std::allocator<CD3D11EnumDeviceSettingsCombo *> > >
PUBLIC	??$_Destroy_range@U?$_Wrap_alloc@V?$allocator@UDXGI_MODE_DESC@@@std@@@std@@@std@@YAXPAUDXGI_MODE_DESC@@0AAU?$_Wrap_alloc@V?$allocator@UDXGI_MODE_DESC@@@std@@@0@@Z ; std::_Destroy_range<std::_Wrap_alloc<std::allocator<DXGI_MODE_DESC> > >
PUBLIC	??$_Allocate@U_Container_proxy@std@@@std@@YAPAU_Container_proxy@0@IPAU10@@Z ; std::_Allocate<std::_Container_proxy>
PUBLIC	??$_Ptr_cat@PAVCD3D11EnumOutputInfo@@PAV1@@std@@YA?AU_Scalar_ptr_iterator_tag@0@PAPAVCD3D11EnumOutputInfo@@0@Z ; std::_Ptr_cat<CD3D11EnumOutputInfo *,CD3D11EnumOutputInfo *>
PUBLIC	??$_Destroy_range@U?$_Wrap_alloc@V?$allocator@PAVCD3D11EnumOutputInfo@@@std@@@std@@@std@@YAXPAPAVCD3D11EnumOutputInfo@@0AAU?$_Wrap_alloc@V?$allocator@PAVCD3D11EnumOutputInfo@@@std@@@0@U_Scalar_ptr_iterator_tag@0@@Z ; std::_Destroy_range<std::_Wrap_alloc<std::allocator<CD3D11EnumOutputInfo *> > >
PUBLIC	??$forward@U_Container_proxy@std@@@std@@YA$$QAU_Container_proxy@0@AAU10@@Z ; std::forward<std::_Container_proxy>
PUBLIC	??$construct@U_Container_proxy@std@@U12@@?$allocator_traits@V?$allocator@U_Container_proxy@std@@@std@@@std@@SAXAAV?$allocator@U_Container_proxy@std@@@1@PAU_Container_proxy@1@$$QAU31@@Z ; std::allocator_traits<std::allocator<std::_Container_proxy> >::construct<std::_Container_proxy,std::_Container_proxy>
PUBLIC	??$destroy@U_Container_proxy@std@@@?$allocator_traits@V?$allocator@U_Container_proxy@std@@@std@@@std@@SAXAAV?$allocator@U_Container_proxy@std@@@1@PAU_Container_proxy@1@@Z ; std::allocator_traits<std::allocator<std::_Container_proxy> >::destroy<std::_Container_proxy>
PUBLIC	??$_Ptr_cat@PAVCD3D11EnumDeviceInfo@@PAV1@@std@@YA?AU_Scalar_ptr_iterator_tag@0@PAPAVCD3D11EnumDeviceInfo@@0@Z ; std::_Ptr_cat<CD3D11EnumDeviceInfo *,CD3D11EnumDeviceInfo *>
PUBLIC	??$_Destroy_range@U?$_Wrap_alloc@V?$allocator@PAVCD3D11EnumDeviceInfo@@@std@@@std@@@std@@YAXPAPAVCD3D11EnumDeviceInfo@@0AAU?$_Wrap_alloc@V?$allocator@PAVCD3D11EnumDeviceInfo@@@std@@@0@U_Scalar_ptr_iterator_tag@0@@Z ; std::_Destroy_range<std::_Wrap_alloc<std::allocator<CD3D11EnumDeviceInfo *> > >
PUBLIC	??$_Ptr_cat@PAUCD3D11EnumDeviceSettingsCombo@@PAU1@@std@@YA?AU_Scalar_ptr_iterator_tag@0@PAPAUCD3D11EnumDeviceSettingsCombo@@0@Z ; std::_Ptr_cat<CD3D11EnumDeviceSettingsCombo *,CD3D11EnumDeviceSettingsCombo *>
PUBLIC	??$_Destroy_range@U?$_Wrap_alloc@V?$allocator@PAUCD3D11EnumDeviceSettingsCombo@@@std@@@std@@@std@@YAXPAPAUCD3D11EnumDeviceSettingsCombo@@0AAU?$_Wrap_alloc@V?$allocator@PAUCD3D11EnumDeviceSettingsCombo@@@std@@@0@U_Scalar_ptr_iterator_tag@0@@Z ; std::_Destroy_range<std::_Wrap_alloc<std::allocator<CD3D11EnumDeviceSettingsCombo *> > >
PUBLIC	??$_Ptr_cat@UDXGI_MODE_DESC@@U1@@std@@YA?AU_Nonscalar_ptr_iterator_tag@0@PAUDXGI_MODE_DESC@@0@Z ; std::_Ptr_cat<DXGI_MODE_DESC,DXGI_MODE_DESC>
PUBLIC	??$_Destroy_range@U?$_Wrap_alloc@V?$allocator@UDXGI_MODE_DESC@@@std@@@std@@@std@@YAXPAUDXGI_MODE_DESC@@0AAU?$_Wrap_alloc@V?$allocator@UDXGI_MODE_DESC@@@std@@@0@U_Nonscalar_ptr_iterator_tag@0@@Z ; std::_Destroy_range<std::_Wrap_alloc<std::allocator<DXGI_MODE_DESC> > >
PUBLIC	??$construct@U_Container_proxy@std@@U12@@?$allocator@U_Container_proxy@std@@@std@@QAEXPAU_Container_proxy@1@$$QAU21@@Z ; std::allocator<std::_Container_proxy>::construct<std::_Container_proxy,std::_Container_proxy>
PUBLIC	??$destroy@U_Container_proxy@std@@@?$allocator@U_Container_proxy@std@@@std@@QAEXPAU_Container_proxy@1@@Z ; std::allocator<std::_Container_proxy>::destroy<std::_Container_proxy>
PUBLIC	??$destroy@UDXGI_MODE_DESC@@@?$_Wrap_alloc@V?$allocator@UDXGI_MODE_DESC@@@std@@@std@@QAEXPAUDXGI_MODE_DESC@@@Z ; std::_Wrap_alloc<std::allocator<DXGI_MODE_DESC> >::destroy<DXGI_MODE_DESC>
PUBLIC	??$destroy@UDXGI_MODE_DESC@@@?$allocator_traits@V?$allocator@UDXGI_MODE_DESC@@@std@@@std@@SAXAAV?$allocator@UDXGI_MODE_DESC@@@1@PAUDXGI_MODE_DESC@@@Z ; std::allocator_traits<std::allocator<DXGI_MODE_DESC> >::destroy<DXGI_MODE_DESC>
PUBLIC	??$destroy@UDXGI_MODE_DESC@@@?$allocator@UDXGI_MODE_DESC@@@std@@QAEXPAUDXGI_MODE_DESC@@@Z ; std::allocator<DXGI_MODE_DESC>::destroy<DXGI_MODE_DESC>
PUBLIC	??0DXUTMemoryHelperD3D11Enum@@QAE@XZ		; DXUTMemoryHelperD3D11Enum::DXUTMemoryHelperD3D11Enum
PUBLIC	??1DXUTMemoryHelperD3D11Enum@@QAE@XZ		; DXUTMemoryHelperD3D11Enum::~DXUTMemoryHelperD3D11Enum
PUBLIC	??0?$_Iterator012@Urandom_access_iterator_tag@std@@PAVCD3D11EnumAdapterInfo@@HPBQAV3@ABQAV3@U_Iterator_base12@2@@std@@QAE@XZ ; std::_Iterator012<std::random_access_iterator_tag,CD3D11EnumAdapterInfo *,int,CD3D11EnumAdapterInfo * const *,CD3D11EnumAdapterInfo * const &,std::_Iterator_base12>::_Iterator012<std::random_access_iterator_tag,CD3D11EnumAdapterInfo *,int,CD3D11EnumAdapterInfo * const *,CD3D11EnumAdapterInfo * const &,std::_Iterator_base12>
PUBLIC	??1?$_Iterator012@Urandom_access_iterator_tag@std@@PAVCD3D11EnumAdapterInfo@@HPBQAV3@ABQAV3@U_Iterator_base12@2@@std@@QAE@XZ ; std::_Iterator012<std::random_access_iterator_tag,CD3D11EnumAdapterInfo *,int,CD3D11EnumAdapterInfo * const *,CD3D11EnumAdapterInfo * const &,std::_Iterator_base12>::~_Iterator012<std::random_access_iterator_tag,CD3D11EnumAdapterInfo *,int,CD3D11EnumAdapterInfo * const *,CD3D11EnumAdapterInfo * const &,std::_Iterator_base12>
PUBLIC	??0?$_Vector_const_iterator@V?$_Vector_val@U?$_Simple_types@PAVCD3D11EnumAdapterInfo@@@std@@@std@@@std@@QAE@PAPAVCD3D11EnumAdapterInfo@@PBU_Container_base12@1@@Z ; std::_Vector_const_iterator<std::_Vector_val<std::_Simple_types<CD3D11EnumAdapterInfo *> > >::_Vector_const_iterator<std::_Vector_val<std::_Simple_types<CD3D11EnumAdapterInfo *> > >
PUBLIC	??D?$_Vector_const_iterator@V?$_Vector_val@U?$_Simple_types@PAVCD3D11EnumAdapterInfo@@@std@@@std@@@std@@QBEABQAVCD3D11EnumAdapterInfo@@XZ ; std::_Vector_const_iterator<std::_Vector_val<std::_Simple_types<CD3D11EnumAdapterInfo *> > >::operator*
PUBLIC	??E?$_Vector_const_iterator@V?$_Vector_val@U?$_Simple_types@PAVCD3D11EnumAdapterInfo@@@std@@@std@@@std@@QAEAAV01@XZ ; std::_Vector_const_iterator<std::_Vector_val<std::_Simple_types<CD3D11EnumAdapterInfo *> > >::operator++
PUBLIC	??8?$_Vector_const_iterator@V?$_Vector_val@U?$_Simple_types@PAVCD3D11EnumAdapterInfo@@@std@@@std@@@std@@QBE_NABV01@@Z ; std::_Vector_const_iterator<std::_Vector_val<std::_Simple_types<CD3D11EnumAdapterInfo *> > >::operator==
PUBLIC	??9?$_Vector_const_iterator@V?$_Vector_val@U?$_Simple_types@PAVCD3D11EnumAdapterInfo@@@std@@@std@@@std@@QBE_NABV01@@Z ; std::_Vector_const_iterator<std::_Vector_val<std::_Simple_types<CD3D11EnumAdapterInfo *> > >::operator!=
PUBLIC	?_Compat@?$_Vector_const_iterator@V?$_Vector_val@U?$_Simple_types@PAVCD3D11EnumAdapterInfo@@@std@@@std@@@std@@QBEXABV12@@Z ; std::_Vector_const_iterator<std::_Vector_val<std::_Simple_types<CD3D11EnumAdapterInfo *> > >::_Compat
PUBLIC	??1?$_Vector_const_iterator@V?$_Vector_val@U?$_Simple_types@PAVCD3D11EnumAdapterInfo@@@std@@@std@@@std@@QAE@XZ ; std::_Vector_const_iterator<std::_Vector_val<std::_Simple_types<CD3D11EnumAdapterInfo *> > >::~_Vector_const_iterator<std::_Vector_val<std::_Simple_types<CD3D11EnumAdapterInfo *> > >
PUBLIC	??0?$_Vector_iterator@V?$_Vector_val@U?$_Simple_types@PAVCD3D11EnumAdapterInfo@@@std@@@std@@@std@@QAE@PAPAVCD3D11EnumAdapterInfo@@PBU_Container_base12@1@@Z ; std::_Vector_iterator<std::_Vector_val<std::_Simple_types<CD3D11EnumAdapterInfo *> > >::_Vector_iterator<std::_Vector_val<std::_Simple_types<CD3D11EnumAdapterInfo *> > >
PUBLIC	??D?$_Vector_iterator@V?$_Vector_val@U?$_Simple_types@PAVCD3D11EnumAdapterInfo@@@std@@@std@@@std@@QBEAAPAVCD3D11EnumAdapterInfo@@XZ ; std::_Vector_iterator<std::_Vector_val<std::_Simple_types<CD3D11EnumAdapterInfo *> > >::operator*
PUBLIC	??E?$_Vector_iterator@V?$_Vector_val@U?$_Simple_types@PAVCD3D11EnumAdapterInfo@@@std@@@std@@@std@@QAEAAV01@XZ ; std::_Vector_iterator<std::_Vector_val<std::_Simple_types<CD3D11EnumAdapterInfo *> > >::operator++
PUBLIC	??1?$_Vector_iterator@V?$_Vector_val@U?$_Simple_types@PAVCD3D11EnumAdapterInfo@@@std@@@std@@@std@@QAE@XZ ; std::_Vector_iterator<std::_Vector_val<std::_Simple_types<CD3D11EnumAdapterInfo *> > >::~_Vector_iterator<std::_Vector_val<std::_Simple_types<CD3D11EnumAdapterInfo *> > >
PUBLIC	??0?$_Iterator012@Urandom_access_iterator_tag@std@@PAVCD3D11EnumDeviceInfo@@HPBQAV3@ABQAV3@U_Iterator_base12@2@@std@@QAE@XZ ; std::_Iterator012<std::random_access_iterator_tag,CD3D11EnumDeviceInfo *,int,CD3D11EnumDeviceInfo * const *,CD3D11EnumDeviceInfo * const &,std::_Iterator_base12>::_Iterator012<std::random_access_iterator_tag,CD3D11EnumDeviceInfo *,int,CD3D11EnumDeviceInfo * const *,CD3D11EnumDeviceInfo * const &,std::_Iterator_base12>
PUBLIC	??1?$_Iterator012@Urandom_access_iterator_tag@std@@PAVCD3D11EnumDeviceInfo@@HPBQAV3@ABQAV3@U_Iterator_base12@2@@std@@QAE@XZ ; std::_Iterator012<std::random_access_iterator_tag,CD3D11EnumDeviceInfo *,int,CD3D11EnumDeviceInfo * const *,CD3D11EnumDeviceInfo * const &,std::_Iterator_base12>::~_Iterator012<std::random_access_iterator_tag,CD3D11EnumDeviceInfo *,int,CD3D11EnumDeviceInfo * const *,CD3D11EnumDeviceInfo * const &,std::_Iterator_base12>
PUBLIC	??0?$_Vector_const_iterator@V?$_Vector_val@U?$_Simple_types@PAVCD3D11EnumDeviceInfo@@@std@@@std@@@std@@QAE@PAPAVCD3D11EnumDeviceInfo@@PBU_Container_base12@1@@Z ; std::_Vector_const_iterator<std::_Vector_val<std::_Simple_types<CD3D11EnumDeviceInfo *> > >::_Vector_const_iterator<std::_Vector_val<std::_Simple_types<CD3D11EnumDeviceInfo *> > >
PUBLIC	??D?$_Vector_const_iterator@V?$_Vector_val@U?$_Simple_types@PAVCD3D11EnumDeviceInfo@@@std@@@std@@@std@@QBEABQAVCD3D11EnumDeviceInfo@@XZ ; std::_Vector_const_iterator<std::_Vector_val<std::_Simple_types<CD3D11EnumDeviceInfo *> > >::operator*
PUBLIC	??E?$_Vector_const_iterator@V?$_Vector_val@U?$_Simple_types@PAVCD3D11EnumDeviceInfo@@@std@@@std@@@std@@QAEAAV01@XZ ; std::_Vector_const_iterator<std::_Vector_val<std::_Simple_types<CD3D11EnumDeviceInfo *> > >::operator++
PUBLIC	??8?$_Vector_const_iterator@V?$_Vector_val@U?$_Simple_types@PAVCD3D11EnumDeviceInfo@@@std@@@std@@@std@@QBE_NABV01@@Z ; std::_Vector_const_iterator<std::_Vector_val<std::_Simple_types<CD3D11EnumDeviceInfo *> > >::operator==
PUBLIC	??9?$_Vector_const_iterator@V?$_Vector_val@U?$_Simple_types@PAVCD3D11EnumDeviceInfo@@@std@@@std@@@std@@QBE_NABV01@@Z ; std::_Vector_const_iterator<std::_Vector_val<std::_Simple_types<CD3D11EnumDeviceInfo *> > >::operator!=
PUBLIC	?_Compat@?$_Vector_const_iterator@V?$_Vector_val@U?$_Simple_types@PAVCD3D11EnumDeviceInfo@@@std@@@std@@@std@@QBEXABV12@@Z ; std::_Vector_const_iterator<std::_Vector_val<std::_Simple_types<CD3D11EnumDeviceInfo *> > >::_Compat
PUBLIC	??1?$_Vector_const_iterator@V?$_Vector_val@U?$_Simple_types@PAVCD3D11EnumDeviceInfo@@@std@@@std@@@std@@QAE@XZ ; std::_Vector_const_iterator<std::_Vector_val<std::_Simple_types<CD3D11EnumDeviceInfo *> > >::~_Vector_const_iterator<std::_Vector_val<std::_Simple_types<CD3D11EnumDeviceInfo *> > >
PUBLIC	?DXUTGetDXGIColorChannelBits@@YGIW4DXGI_FORMAT@@@Z ; DXUTGetDXGIColorChannelBits
PUBLIC	??$max@M@std@@YAABMABM0@Z			; std::max<float>
PUBLIC	??$addressof@W4DXGI_FORMAT@@@std@@YAPAW4DXGI_FORMAT@@AAW41@@Z ; std::addressof<enum DXGI_FORMAT>
PUBLIC	??$forward@W4DXGI_FORMAT@@@std@@YA$$QAW4DXGI_FORMAT@@AAW41@@Z ; std::forward<enum DXGI_FORMAT>
PUBLIC	??$construct@W4DXGI_FORMAT@@W41@@?$_Wrap_alloc@V?$allocator@W4DXGI_FORMAT@@@std@@@std@@QAEXPAW4DXGI_FORMAT@@$$QAW42@@Z ; std::_Wrap_alloc<std::allocator<enum DXGI_FORMAT> >::construct<enum DXGI_FORMAT,enum DXGI_FORMAT>
PUBLIC	??$addressof@QAVCD3D11EnumAdapterInfo@@@std@@YAPBQAVCD3D11EnumAdapterInfo@@ABQAV1@@Z ; std::addressof<CD3D11EnumAdapterInfo * const>
PUBLIC	??$construct@PAVCD3D11EnumAdapterInfo@@AAPAV1@@?$_Wrap_alloc@V?$allocator@PAVCD3D11EnumAdapterInfo@@@std@@@std@@QAEXPAPAVCD3D11EnumAdapterInfo@@AAPAV2@@Z ; std::_Wrap_alloc<std::allocator<CD3D11EnumAdapterInfo *> >::construct<CD3D11EnumAdapterInfo *,CD3D11EnumAdapterInfo * &>
PUBLIC	??$construct@PAVCD3D11EnumAdapterInfo@@ABQAV1@@?$_Wrap_alloc@V?$allocator@PAVCD3D11EnumAdapterInfo@@@std@@@std@@QAEXPAPAVCD3D11EnumAdapterInfo@@ABQAV2@@Z ; std::_Wrap_alloc<std::allocator<CD3D11EnumAdapterInfo *> >::construct<CD3D11EnumAdapterInfo *,CD3D11EnumAdapterInfo * const &>
PUBLIC	??$addressof@QAVCD3D11EnumOutputInfo@@@std@@YAPBQAVCD3D11EnumOutputInfo@@ABQAV1@@Z ; std::addressof<CD3D11EnumOutputInfo * const>
PUBLIC	??$construct@PAVCD3D11EnumOutputInfo@@AAPAV1@@?$_Wrap_alloc@V?$allocator@PAVCD3D11EnumOutputInfo@@@std@@@std@@QAEXPAPAVCD3D11EnumOutputInfo@@AAPAV2@@Z ; std::_Wrap_alloc<std::allocator<CD3D11EnumOutputInfo *> >::construct<CD3D11EnumOutputInfo *,CD3D11EnumOutputInfo * &>
PUBLIC	??$construct@PAVCD3D11EnumOutputInfo@@ABQAV1@@?$_Wrap_alloc@V?$allocator@PAVCD3D11EnumOutputInfo@@@std@@@std@@QAEXPAPAVCD3D11EnumOutputInfo@@ABQAV2@@Z ; std::_Wrap_alloc<std::allocator<CD3D11EnumOutputInfo *> >::construct<CD3D11EnumOutputInfo *,CD3D11EnumOutputInfo * const &>
PUBLIC	??$addressof@QAVCD3D11EnumDeviceInfo@@@std@@YAPBQAVCD3D11EnumDeviceInfo@@ABQAV1@@Z ; std::addressof<CD3D11EnumDeviceInfo * const>
PUBLIC	??$construct@PAVCD3D11EnumDeviceInfo@@AAPAV1@@?$_Wrap_alloc@V?$allocator@PAVCD3D11EnumDeviceInfo@@@std@@@std@@QAEXPAPAVCD3D11EnumDeviceInfo@@AAPAV2@@Z ; std::_Wrap_alloc<std::allocator<CD3D11EnumDeviceInfo *> >::construct<CD3D11EnumDeviceInfo *,CD3D11EnumDeviceInfo * &>
PUBLIC	??$construct@PAVCD3D11EnumDeviceInfo@@ABQAV1@@?$_Wrap_alloc@V?$allocator@PAVCD3D11EnumDeviceInfo@@@std@@@std@@QAEXPAPAVCD3D11EnumDeviceInfo@@ABQAV2@@Z ; std::_Wrap_alloc<std::allocator<CD3D11EnumDeviceInfo *> >::construct<CD3D11EnumDeviceInfo *,CD3D11EnumDeviceInfo * const &>
PUBLIC	??$addressof@QAUCD3D11EnumDeviceSettingsCombo@@@std@@YAPBQAUCD3D11EnumDeviceSettingsCombo@@ABQAU1@@Z ; std::addressof<CD3D11EnumDeviceSettingsCombo * const>
PUBLIC	??$construct@PAUCD3D11EnumDeviceSettingsCombo@@AAPAU1@@?$_Wrap_alloc@V?$allocator@PAUCD3D11EnumDeviceSettingsCombo@@@std@@@std@@QAEXPAPAUCD3D11EnumDeviceSettingsCombo@@AAPAU2@@Z ; std::_Wrap_alloc<std::allocator<CD3D11EnumDeviceSettingsCombo *> >::construct<CD3D11EnumDeviceSettingsCombo *,CD3D11EnumDeviceSettingsCombo * &>
PUBLIC	??$construct@PAUCD3D11EnumDeviceSettingsCombo@@ABQAU1@@?$_Wrap_alloc@V?$allocator@PAUCD3D11EnumDeviceSettingsCombo@@@std@@@std@@QAEXPAPAUCD3D11EnumDeviceSettingsCombo@@ABQAU2@@Z ; std::_Wrap_alloc<std::allocator<CD3D11EnumDeviceSettingsCombo *> >::construct<CD3D11EnumDeviceSettingsCombo *,CD3D11EnumDeviceSettingsCombo * const &>
PUBLIC	??$addressof@$$CBUDXGI_MODE_DESC@@@std@@YAPBUDXGI_MODE_DESC@@ABU1@@Z ; std::addressof<DXGI_MODE_DESC const >
PUBLIC	??$construct@UDXGI_MODE_DESC@@AAU1@@?$_Wrap_alloc@V?$allocator@UDXGI_MODE_DESC@@@std@@@std@@QAEXPAUDXGI_MODE_DESC@@AAU2@@Z ; std::_Wrap_alloc<std::allocator<DXGI_MODE_DESC> >::construct<DXGI_MODE_DESC,DXGI_MODE_DESC &>
PUBLIC	??$construct@UDXGI_MODE_DESC@@ABU1@@?$_Wrap_alloc@V?$allocator@UDXGI_MODE_DESC@@@std@@@std@@QAEXPAUDXGI_MODE_DESC@@ABU2@@Z ; std::_Wrap_alloc<std::allocator<DXGI_MODE_DESC> >::construct<DXGI_MODE_DESC,DXGI_MODE_DESC const &>
PUBLIC	??$addressof@$$CBI@std@@YAPBIABI@Z		; std::addressof<unsigned int const >
PUBLIC	??$construct@IAAI@?$_Wrap_alloc@V?$allocator@I@std@@@std@@QAEXPAIAAI@Z ; std::_Wrap_alloc<std::allocator<unsigned int> >::construct<unsigned int,unsigned int &>
PUBLIC	??$construct@IABI@?$_Wrap_alloc@V?$allocator@I@std@@@std@@QAEXPAIABI@Z ; std::_Wrap_alloc<std::allocator<unsigned int> >::construct<unsigned int,unsigned int const &>
PUBLIC	??$_Destroy_range@U?$_Wrap_alloc@V?$allocator@W4DXGI_FORMAT@@@std@@@std@@@std@@YAXPAW4DXGI_FORMAT@@0AAU?$_Wrap_alloc@V?$allocator@W4DXGI_FORMAT@@@std@@@0@@Z ; std::_Destroy_range<std::_Wrap_alloc<std::allocator<enum DXGI_FORMAT> > >
PUBLIC	??$_Destroy_range@U?$_Wrap_alloc@V?$allocator@PAVCD3D11EnumAdapterInfo@@@std@@@std@@@std@@YAXPAPAVCD3D11EnumAdapterInfo@@0AAU?$_Wrap_alloc@V?$allocator@PAVCD3D11EnumAdapterInfo@@@std@@@0@@Z ; std::_Destroy_range<std::_Wrap_alloc<std::allocator<CD3D11EnumAdapterInfo *> > >
PUBLIC	??$_Umove@PAW4DXGI_FORMAT@@@?$vector@W4DXGI_FORMAT@@V?$allocator@W4DXGI_FORMAT@@@std@@@std@@IAEPAW4DXGI_FORMAT@@PAW42@00@Z ; std::vector<enum DXGI_FORMAT,std::allocator<enum DXGI_FORMAT> >::_Umove<enum DXGI_FORMAT *>
PUBLIC	??$_Umove@PAPAVCD3D11EnumAdapterInfo@@@?$vector@PAVCD3D11EnumAdapterInfo@@V?$allocator@PAVCD3D11EnumAdapterInfo@@@std@@@std@@IAEPAPAVCD3D11EnumAdapterInfo@@PAPAV2@00@Z ; std::vector<CD3D11EnumAdapterInfo *,std::allocator<CD3D11EnumAdapterInfo *> >::_Umove<CD3D11EnumAdapterInfo * *>
PUBLIC	??$_Umove@PAPAVCD3D11EnumOutputInfo@@@?$vector@PAVCD3D11EnumOutputInfo@@V?$allocator@PAVCD3D11EnumOutputInfo@@@std@@@std@@IAEPAPAVCD3D11EnumOutputInfo@@PAPAV2@00@Z ; std::vector<CD3D11EnumOutputInfo *,std::allocator<CD3D11EnumOutputInfo *> >::_Umove<CD3D11EnumOutputInfo * *>
PUBLIC	??$_Umove@PAPAVCD3D11EnumDeviceInfo@@@?$vector@PAVCD3D11EnumDeviceInfo@@V?$allocator@PAVCD3D11EnumDeviceInfo@@@std@@@std@@IAEPAPAVCD3D11EnumDeviceInfo@@PAPAV2@00@Z ; std::vector<CD3D11EnumDeviceInfo *,std::allocator<CD3D11EnumDeviceInfo *> >::_Umove<CD3D11EnumDeviceInfo * *>
PUBLIC	??$_Umove@PAPAUCD3D11EnumDeviceSettingsCombo@@@?$vector@PAUCD3D11EnumDeviceSettingsCombo@@V?$allocator@PAUCD3D11EnumDeviceSettingsCombo@@@std@@@std@@IAEPAPAUCD3D11EnumDeviceSettingsCombo@@PAPAU2@00@Z ; std::vector<CD3D11EnumDeviceSettingsCombo *,std::allocator<CD3D11EnumDeviceSettingsCombo *> >::_Umove<CD3D11EnumDeviceSettingsCombo * *>
PUBLIC	??$_Umove@PAUDXGI_MODE_DESC@@@?$vector@UDXGI_MODE_DESC@@V?$allocator@UDXGI_MODE_DESC@@@std@@@std@@IAEPAUDXGI_MODE_DESC@@PAU2@00@Z ; std::vector<DXGI_MODE_DESC,std::allocator<DXGI_MODE_DESC> >::_Umove<DXGI_MODE_DESC *>
PUBLIC	??$_Destroy_range@U?$_Wrap_alloc@V?$allocator@I@std@@@std@@@std@@YAXPAI0AAU?$_Wrap_alloc@V?$allocator@I@std@@@0@@Z ; std::_Destroy_range<std::_Wrap_alloc<std::allocator<unsigned int> > >
PUBLIC	??$_Umove@PAI@?$vector@IV?$allocator@I@std@@@std@@IAEPAIPAI00@Z ; std::vector<unsigned int,std::allocator<unsigned int> >::_Umove<unsigned int *>
PUBLIC	??$_Allocate@W4DXGI_FORMAT@@@std@@YAPAW4DXGI_FORMAT@@IPAW41@@Z ; std::_Allocate<enum DXGI_FORMAT>
PUBLIC	??$_Allocate@PAVCD3D11EnumAdapterInfo@@@std@@YAPAPAVCD3D11EnumAdapterInfo@@IPAPAV1@@Z ; std::_Allocate<CD3D11EnumAdapterInfo *>
PUBLIC	??$_Allocate@PAVCD3D11EnumOutputInfo@@@std@@YAPAPAVCD3D11EnumOutputInfo@@IPAPAV1@@Z ; std::_Allocate<CD3D11EnumOutputInfo *>
PUBLIC	??$_Allocate@PAVCD3D11EnumDeviceInfo@@@std@@YAPAPAVCD3D11EnumDeviceInfo@@IPAPAV1@@Z ; std::_Allocate<CD3D11EnumDeviceInfo *>
PUBLIC	??$_Allocate@PAUCD3D11EnumDeviceSettingsCombo@@@std@@YAPAPAUCD3D11EnumDeviceSettingsCombo@@IPAPAU1@@Z ; std::_Allocate<CD3D11EnumDeviceSettingsCombo *>
PUBLIC	??$_Allocate@UDXGI_MODE_DESC@@@std@@YAPAUDXGI_MODE_DESC@@IPAU1@@Z ; std::_Allocate<DXGI_MODE_DESC>
PUBLIC	??$_Allocate@I@std@@YAPAIIPAI@Z			; std::_Allocate<unsigned int>
PUBLIC	??$_Debug_lt@ABMABM@std@@YA_NABM0PB_WI@Z	; std::_Debug_lt<float const &,float const &>
PUBLIC	??$construct@W4DXGI_FORMAT@@W41@@?$allocator_traits@V?$allocator@W4DXGI_FORMAT@@@std@@@std@@SAXAAV?$allocator@W4DXGI_FORMAT@@@1@PAW4DXGI_FORMAT@@$$QAW43@@Z ; std::allocator_traits<std::allocator<enum DXGI_FORMAT> >::construct<enum DXGI_FORMAT,enum DXGI_FORMAT>
PUBLIC	??$forward@AAPAVCD3D11EnumAdapterInfo@@@std@@YAAAPAVCD3D11EnumAdapterInfo@@AAPAV1@@Z ; std::forward<CD3D11EnumAdapterInfo * &>
PUBLIC	??$construct@PAVCD3D11EnumAdapterInfo@@AAPAV1@@?$allocator_traits@V?$allocator@PAVCD3D11EnumAdapterInfo@@@std@@@std@@SAXAAV?$allocator@PAVCD3D11EnumAdapterInfo@@@1@PAPAVCD3D11EnumAdapterInfo@@AAPAV3@@Z ; std::allocator_traits<std::allocator<CD3D11EnumAdapterInfo *> >::construct<CD3D11EnumAdapterInfo *,CD3D11EnumAdapterInfo * &>
PUBLIC	??$forward@ABQAVCD3D11EnumAdapterInfo@@@std@@YAABQAVCD3D11EnumAdapterInfo@@ABQAV1@@Z ; std::forward<CD3D11EnumAdapterInfo * const &>
PUBLIC	??$construct@PAVCD3D11EnumAdapterInfo@@ABQAV1@@?$allocator_traits@V?$allocator@PAVCD3D11EnumAdapterInfo@@@std@@@std@@SAXAAV?$allocator@PAVCD3D11EnumAdapterInfo@@@1@PAPAVCD3D11EnumAdapterInfo@@ABQAV3@@Z ; std::allocator_traits<std::allocator<CD3D11EnumAdapterInfo *> >::construct<CD3D11EnumAdapterInfo *,CD3D11EnumAdapterInfo * const &>
PUBLIC	??$forward@AAPAVCD3D11EnumOutputInfo@@@std@@YAAAPAVCD3D11EnumOutputInfo@@AAPAV1@@Z ; std::forward<CD3D11EnumOutputInfo * &>
PUBLIC	??$construct@PAVCD3D11EnumOutputInfo@@AAPAV1@@?$allocator_traits@V?$allocator@PAVCD3D11EnumOutputInfo@@@std@@@std@@SAXAAV?$allocator@PAVCD3D11EnumOutputInfo@@@1@PAPAVCD3D11EnumOutputInfo@@AAPAV3@@Z ; std::allocator_traits<std::allocator<CD3D11EnumOutputInfo *> >::construct<CD3D11EnumOutputInfo *,CD3D11EnumOutputInfo * &>
PUBLIC	??$forward@ABQAVCD3D11EnumOutputInfo@@@std@@YAABQAVCD3D11EnumOutputInfo@@ABQAV1@@Z ; std::forward<CD3D11EnumOutputInfo * const &>
PUBLIC	??$construct@PAVCD3D11EnumOutputInfo@@ABQAV1@@?$allocator_traits@V?$allocator@PAVCD3D11EnumOutputInfo@@@std@@@std@@SAXAAV?$allocator@PAVCD3D11EnumOutputInfo@@@1@PAPAVCD3D11EnumOutputInfo@@ABQAV3@@Z ; std::allocator_traits<std::allocator<CD3D11EnumOutputInfo *> >::construct<CD3D11EnumOutputInfo *,CD3D11EnumOutputInfo * const &>
PUBLIC	??$forward@AAPAVCD3D11EnumDeviceInfo@@@std@@YAAAPAVCD3D11EnumDeviceInfo@@AAPAV1@@Z ; std::forward<CD3D11EnumDeviceInfo * &>
PUBLIC	??$construct@PAVCD3D11EnumDeviceInfo@@AAPAV1@@?$allocator_traits@V?$allocator@PAVCD3D11EnumDeviceInfo@@@std@@@std@@SAXAAV?$allocator@PAVCD3D11EnumDeviceInfo@@@1@PAPAVCD3D11EnumDeviceInfo@@AAPAV3@@Z ; std::allocator_traits<std::allocator<CD3D11EnumDeviceInfo *> >::construct<CD3D11EnumDeviceInfo *,CD3D11EnumDeviceInfo * &>
PUBLIC	??$forward@ABQAVCD3D11EnumDeviceInfo@@@std@@YAABQAVCD3D11EnumDeviceInfo@@ABQAV1@@Z ; std::forward<CD3D11EnumDeviceInfo * const &>
PUBLIC	??$construct@PAVCD3D11EnumDeviceInfo@@ABQAV1@@?$allocator_traits@V?$allocator@PAVCD3D11EnumDeviceInfo@@@std@@@std@@SAXAAV?$allocator@PAVCD3D11EnumDeviceInfo@@@1@PAPAVCD3D11EnumDeviceInfo@@ABQAV3@@Z ; std::allocator_traits<std::allocator<CD3D11EnumDeviceInfo *> >::construct<CD3D11EnumDeviceInfo *,CD3D11EnumDeviceInfo * const &>
PUBLIC	??$forward@AAPAUCD3D11EnumDeviceSettingsCombo@@@std@@YAAAPAUCD3D11EnumDeviceSettingsCombo@@AAPAU1@@Z ; std::forward<CD3D11EnumDeviceSettingsCombo * &>
PUBLIC	??$construct@PAUCD3D11EnumDeviceSettingsCombo@@AAPAU1@@?$allocator_traits@V?$allocator@PAUCD3D11EnumDeviceSettingsCombo@@@std@@@std@@SAXAAV?$allocator@PAUCD3D11EnumDeviceSettingsCombo@@@1@PAPAUCD3D11EnumDeviceSettingsCombo@@AAPAU3@@Z ; std::allocator_traits<std::allocator<CD3D11EnumDeviceSettingsCombo *> >::construct<CD3D11EnumDeviceSettingsCombo *,CD3D11EnumDeviceSettingsCombo * &>
PUBLIC	??$forward@ABQAUCD3D11EnumDeviceSettingsCombo@@@std@@YAABQAUCD3D11EnumDeviceSettingsCombo@@ABQAU1@@Z ; std::forward<CD3D11EnumDeviceSettingsCombo * const &>
PUBLIC	??$construct@PAUCD3D11EnumDeviceSettingsCombo@@ABQAU1@@?$allocator_traits@V?$allocator@PAUCD3D11EnumDeviceSettingsCombo@@@std@@@std@@SAXAAV?$allocator@PAUCD3D11EnumDeviceSettingsCombo@@@1@PAPAUCD3D11EnumDeviceSettingsCombo@@ABQAU3@@Z ; std::allocator_traits<std::allocator<CD3D11EnumDeviceSettingsCombo *> >::construct<CD3D11EnumDeviceSettingsCombo *,CD3D11EnumDeviceSettingsCombo * const &>
PUBLIC	??$forward@AAUDXGI_MODE_DESC@@@std@@YAAAUDXGI_MODE_DESC@@AAU1@@Z ; std::forward<DXGI_MODE_DESC &>
PUBLIC	??$construct@UDXGI_MODE_DESC@@AAU1@@?$allocator_traits@V?$allocator@UDXGI_MODE_DESC@@@std@@@std@@SAXAAV?$allocator@UDXGI_MODE_DESC@@@1@PAUDXGI_MODE_DESC@@AAU3@@Z ; std::allocator_traits<std::allocator<DXGI_MODE_DESC> >::construct<DXGI_MODE_DESC,DXGI_MODE_DESC &>
PUBLIC	??$forward@ABUDXGI_MODE_DESC@@@std@@YAABUDXGI_MODE_DESC@@ABU1@@Z ; std::forward<DXGI_MODE_DESC const &>
PUBLIC	??$construct@UDXGI_MODE_DESC@@ABU1@@?$allocator_traits@V?$allocator@UDXGI_MODE_DESC@@@std@@@std@@SAXAAV?$allocator@UDXGI_MODE_DESC@@@1@PAUDXGI_MODE_DESC@@ABU3@@Z ; std::allocator_traits<std::allocator<DXGI_MODE_DESC> >::construct<DXGI_MODE_DESC,DXGI_MODE_DESC const &>
PUBLIC	??$forward@AAI@std@@YAAAIAAI@Z			; std::forward<unsigned int &>
PUBLIC	??$construct@IAAI@?$allocator_traits@V?$allocator@I@std@@@std@@SAXAAV?$allocator@I@1@PAIAAI@Z ; std::allocator_traits<std::allocator<unsigned int> >::construct<unsigned int,unsigned int &>
PUBLIC	??$forward@ABI@std@@YAABIABI@Z			; std::forward<unsigned int const &>
PUBLIC	??$construct@IABI@?$allocator_traits@V?$allocator@I@std@@@std@@SAXAAV?$allocator@I@1@PAIABI@Z ; std::allocator_traits<std::allocator<unsigned int> >::construct<unsigned int,unsigned int const &>
PUBLIC	??$_Ptr_cat@W4DXGI_FORMAT@@W41@@std@@YA?AU_Scalar_ptr_iterator_tag@0@PAW4DXGI_FORMAT@@0@Z ; std::_Ptr_cat<enum DXGI_FORMAT,enum DXGI_FORMAT>
PUBLIC	??$_Destroy_range@U?$_Wrap_alloc@V?$allocator@W4DXGI_FORMAT@@@std@@@std@@@std@@YAXPAW4DXGI_FORMAT@@0AAU?$_Wrap_alloc@V?$allocator@W4DXGI_FORMAT@@@std@@@0@U_Scalar_ptr_iterator_tag@0@@Z ; std::_Destroy_range<std::_Wrap_alloc<std::allocator<enum DXGI_FORMAT> > >
PUBLIC	??$_Ptr_cat@PAVCD3D11EnumAdapterInfo@@PAV1@@std@@YA?AU_Scalar_ptr_iterator_tag@0@PAPAVCD3D11EnumAdapterInfo@@0@Z ; std::_Ptr_cat<CD3D11EnumAdapterInfo *,CD3D11EnumAdapterInfo *>
PUBLIC	??$_Destroy_range@U?$_Wrap_alloc@V?$allocator@PAVCD3D11EnumAdapterInfo@@@std@@@std@@@std@@YAXPAPAVCD3D11EnumAdapterInfo@@0AAU?$_Wrap_alloc@V?$allocator@PAVCD3D11EnumAdapterInfo@@@std@@@0@U_Scalar_ptr_iterator_tag@0@@Z ; std::_Destroy_range<std::_Wrap_alloc<std::allocator<CD3D11EnumAdapterInfo *> > >
PUBLIC	??$_Uninitialized_move@PAW4DXGI_FORMAT@@PAW41@U?$_Wrap_alloc@V?$allocator@W4DXGI_FORMAT@@@std@@@std@@@std@@YAPAW4DXGI_FORMAT@@PAW41@00AAU?$_Wrap_alloc@V?$allocator@W4DXGI_FORMAT@@@std@@@0@@Z ; std::_Uninitialized_move<enum DXGI_FORMAT *,enum DXGI_FORMAT *,std::_Wrap_alloc<std::allocator<enum DXGI_FORMAT> > >
PUBLIC	??$_Uninitialized_move@PAPAVCD3D11EnumAdapterInfo@@PAPAV1@U?$_Wrap_alloc@V?$allocator@PAVCD3D11EnumAdapterInfo@@@std@@@std@@@std@@YAPAPAVCD3D11EnumAdapterInfo@@PAPAV1@00AAU?$_Wrap_alloc@V?$allocator@PAVCD3D11EnumAdapterInfo@@@std@@@0@@Z ; std::_Uninitialized_move<CD3D11EnumAdapterInfo * *,CD3D11EnumAdapterInfo * *,std::_Wrap_alloc<std::allocator<CD3D11EnumAdapterInfo *> > >
PUBLIC	??$_Uninitialized_move@PAPAVCD3D11EnumOutputInfo@@PAPAV1@U?$_Wrap_alloc@V?$allocator@PAVCD3D11EnumOutputInfo@@@std@@@std@@@std@@YAPAPAVCD3D11EnumOutputInfo@@PAPAV1@00AAU?$_Wrap_alloc@V?$allocator@PAVCD3D11EnumOutputInfo@@@std@@@0@@Z ; std::_Uninitialized_move<CD3D11EnumOutputInfo * *,CD3D11EnumOutputInfo * *,std::_Wrap_alloc<std::allocator<CD3D11EnumOutputInfo *> > >
PUBLIC	??$_Uninitialized_move@PAPAVCD3D11EnumDeviceInfo@@PAPAV1@U?$_Wrap_alloc@V?$allocator@PAVCD3D11EnumDeviceInfo@@@std@@@std@@@std@@YAPAPAVCD3D11EnumDeviceInfo@@PAPAV1@00AAU?$_Wrap_alloc@V?$allocator@PAVCD3D11EnumDeviceInfo@@@std@@@0@@Z ; std::_Uninitialized_move<CD3D11EnumDeviceInfo * *,CD3D11EnumDeviceInfo * *,std::_Wrap_alloc<std::allocator<CD3D11EnumDeviceInfo *> > >
PUBLIC	??$_Uninitialized_move@PAPAUCD3D11EnumDeviceSettingsCombo@@PAPAU1@U?$_Wrap_alloc@V?$allocator@PAUCD3D11EnumDeviceSettingsCombo@@@std@@@std@@@std@@YAPAPAUCD3D11EnumDeviceSettingsCombo@@PAPAU1@00AAU?$_Wrap_alloc@V?$allocator@PAUCD3D11EnumDeviceSettingsCombo@@@std@@@0@@Z ; std::_Uninitialized_move<CD3D11EnumDeviceSettingsCombo * *,CD3D11EnumDeviceSettingsCombo * *,std::_Wrap_alloc<std::allocator<CD3D11EnumDeviceSettingsCombo *> > >
PUBLIC	??$_Uninitialized_move@PAUDXGI_MODE_DESC@@PAU1@U?$_Wrap_alloc@V?$allocator@UDXGI_MODE_DESC@@@std@@@std@@@std@@YAPAUDXGI_MODE_DESC@@PAU1@00AAU?$_Wrap_alloc@V?$allocator@UDXGI_MODE_DESC@@@std@@@0@@Z ; std::_Uninitialized_move<DXGI_MODE_DESC *,DXGI_MODE_DESC *,std::_Wrap_alloc<std::allocator<DXGI_MODE_DESC> > >
PUBLIC	??$_Ptr_cat@II@std@@YA?AU_Scalar_ptr_iterator_tag@0@PAI0@Z ; std::_Ptr_cat<unsigned int,unsigned int>
PUBLIC	??$_Destroy_range@U?$_Wrap_alloc@V?$allocator@I@std@@@std@@@std@@YAXPAI0AAU?$_Wrap_alloc@V?$allocator@I@std@@@0@U_Scalar_ptr_iterator_tag@0@@Z ; std::_Destroy_range<std::_Wrap_alloc<std::allocator<unsigned int> > >
PUBLIC	??$_Uninitialized_move@PAIPAIU?$_Wrap_alloc@V?$allocator@I@std@@@std@@@std@@YAPAIPAI00AAU?$_Wrap_alloc@V?$allocator@I@std@@@0@@Z ; std::_Uninitialized_move<unsigned int *,unsigned int *,std::_Wrap_alloc<std::allocator<unsigned int> > >
PUBLIC	??$forward@ABM@std@@YAABMABM@Z			; std::forward<float const &>
PUBLIC	??$_Debug_lt_pred@U?$less@X@std@@ABMABM@std@@YA_NU?$less@X@0@ABM1PB_WI@Z ; std::_Debug_lt_pred<std::less<void>,float const &,float const &>
PUBLIC	??$construct@W4DXGI_FORMAT@@W41@@?$allocator@W4DXGI_FORMAT@@@std@@QAEXPAW4DXGI_FORMAT@@$$QAW42@@Z ; std::allocator<enum DXGI_FORMAT>::construct<enum DXGI_FORMAT,enum DXGI_FORMAT>
PUBLIC	??$construct@PAVCD3D11EnumAdapterInfo@@AAPAV1@@?$allocator@PAVCD3D11EnumAdapterInfo@@@std@@QAEXPAPAVCD3D11EnumAdapterInfo@@AAPAV2@@Z ; std::allocator<CD3D11EnumAdapterInfo *>::construct<CD3D11EnumAdapterInfo *,CD3D11EnumAdapterInfo * &>
PUBLIC	??$construct@PAVCD3D11EnumOutputInfo@@AAPAV1@@?$allocator@PAVCD3D11EnumOutputInfo@@@std@@QAEXPAPAVCD3D11EnumOutputInfo@@AAPAV2@@Z ; std::allocator<CD3D11EnumOutputInfo *>::construct<CD3D11EnumOutputInfo *,CD3D11EnumOutputInfo * &>
PUBLIC	??$construct@PAVCD3D11EnumDeviceInfo@@AAPAV1@@?$allocator@PAVCD3D11EnumDeviceInfo@@@std@@QAEXPAPAVCD3D11EnumDeviceInfo@@AAPAV2@@Z ; std::allocator<CD3D11EnumDeviceInfo *>::construct<CD3D11EnumDeviceInfo *,CD3D11EnumDeviceInfo * &>
PUBLIC	??$construct@PAUCD3D11EnumDeviceSettingsCombo@@AAPAU1@@?$allocator@PAUCD3D11EnumDeviceSettingsCombo@@@std@@QAEXPAPAUCD3D11EnumDeviceSettingsCombo@@AAPAU2@@Z ; std::allocator<CD3D11EnumDeviceSettingsCombo *>::construct<CD3D11EnumDeviceSettingsCombo *,CD3D11EnumDeviceSettingsCombo * &>
PUBLIC	??$construct@UDXGI_MODE_DESC@@AAU1@@?$allocator@UDXGI_MODE_DESC@@@std@@QAEXPAUDXGI_MODE_DESC@@AAU2@@Z ; std::allocator<DXGI_MODE_DESC>::construct<DXGI_MODE_DESC,DXGI_MODE_DESC &>
PUBLIC	??$construct@IAAI@?$allocator@I@std@@QAEXPAIAAI@Z ; std::allocator<unsigned int>::construct<unsigned int,unsigned int &>
PUBLIC	??$_Unchecked@PAW4DXGI_FORMAT@@@std@@YAPAW4DXGI_FORMAT@@PAW41@@Z ; std::_Unchecked<enum DXGI_FORMAT *>
PUBLIC	??$_Uninit_move@PAW4DXGI_FORMAT@@PAW41@U?$_Wrap_alloc@V?$allocator@W4DXGI_FORMAT@@@std@@@std@@@std@@YAPAW4DXGI_FORMAT@@PAW41@00AAU?$_Wrap_alloc@V?$allocator@W4DXGI_FORMAT@@@std@@@0@@Z ; std::_Uninit_move<enum DXGI_FORMAT *,enum DXGI_FORMAT *,std::_Wrap_alloc<std::allocator<enum DXGI_FORMAT> > >
PUBLIC	??$_Rechecked@PAW4DXGI_FORMAT@@PAW41@@std@@YAAAPAW4DXGI_FORMAT@@AAPAW41@PAW41@@Z ; std::_Rechecked<enum DXGI_FORMAT *,enum DXGI_FORMAT *>
PUBLIC	??$_Unchecked@PAPAVCD3D11EnumAdapterInfo@@@std@@YAPAPAVCD3D11EnumAdapterInfo@@PAPAV1@@Z ; std::_Unchecked<CD3D11EnumAdapterInfo * *>
PUBLIC	??$_Uninit_move@PAPAVCD3D11EnumAdapterInfo@@PAPAV1@U?$_Wrap_alloc@V?$allocator@PAVCD3D11EnumAdapterInfo@@@std@@@std@@@std@@YAPAPAVCD3D11EnumAdapterInfo@@PAPAV1@00AAU?$_Wrap_alloc@V?$allocator@PAVCD3D11EnumAdapterInfo@@@std@@@0@@Z ; std::_Uninit_move<CD3D11EnumAdapterInfo * *,CD3D11EnumAdapterInfo * *,std::_Wrap_alloc<std::allocator<CD3D11EnumAdapterInfo *> > >
PUBLIC	??$_Rechecked@PAPAVCD3D11EnumAdapterInfo@@PAPAV1@@std@@YAAAPAPAVCD3D11EnumAdapterInfo@@AAPAPAV1@PAPAV1@@Z ; std::_Rechecked<CD3D11EnumAdapterInfo * *,CD3D11EnumAdapterInfo * *>
PUBLIC	??$_Unchecked@PAPAVCD3D11EnumOutputInfo@@@std@@YAPAPAVCD3D11EnumOutputInfo@@PAPAV1@@Z ; std::_Unchecked<CD3D11EnumOutputInfo * *>
PUBLIC	??$_Uninit_move@PAPAVCD3D11EnumOutputInfo@@PAPAV1@U?$_Wrap_alloc@V?$allocator@PAVCD3D11EnumOutputInfo@@@std@@@std@@@std@@YAPAPAVCD3D11EnumOutputInfo@@PAPAV1@00AAU?$_Wrap_alloc@V?$allocator@PAVCD3D11EnumOutputInfo@@@std@@@0@@Z ; std::_Uninit_move<CD3D11EnumOutputInfo * *,CD3D11EnumOutputInfo * *,std::_Wrap_alloc<std::allocator<CD3D11EnumOutputInfo *> > >
PUBLIC	??$_Rechecked@PAPAVCD3D11EnumOutputInfo@@PAPAV1@@std@@YAAAPAPAVCD3D11EnumOutputInfo@@AAPAPAV1@PAPAV1@@Z ; std::_Rechecked<CD3D11EnumOutputInfo * *,CD3D11EnumOutputInfo * *>
PUBLIC	??$_Unchecked@PAPAVCD3D11EnumDeviceInfo@@@std@@YAPAPAVCD3D11EnumDeviceInfo@@PAPAV1@@Z ; std::_Unchecked<CD3D11EnumDeviceInfo * *>
PUBLIC	??$_Uninit_move@PAPAVCD3D11EnumDeviceInfo@@PAPAV1@U?$_Wrap_alloc@V?$allocator@PAVCD3D11EnumDeviceInfo@@@std@@@std@@@std@@YAPAPAVCD3D11EnumDeviceInfo@@PAPAV1@00AAU?$_Wrap_alloc@V?$allocator@PAVCD3D11EnumDeviceInfo@@@std@@@0@@Z ; std::_Uninit_move<CD3D11EnumDeviceInfo * *,CD3D11EnumDeviceInfo * *,std::_Wrap_alloc<std::allocator<CD3D11EnumDeviceInfo *> > >
PUBLIC	??$_Rechecked@PAPAVCD3D11EnumDeviceInfo@@PAPAV1@@std@@YAAAPAPAVCD3D11EnumDeviceInfo@@AAPAPAV1@PAPAV1@@Z ; std::_Rechecked<CD3D11EnumDeviceInfo * *,CD3D11EnumDeviceInfo * *>
PUBLIC	??$_Unchecked@PAPAUCD3D11EnumDeviceSettingsCombo@@@std@@YAPAPAUCD3D11EnumDeviceSettingsCombo@@PAPAU1@@Z ; std::_Unchecked<CD3D11EnumDeviceSettingsCombo * *>
PUBLIC	??$_Uninit_move@PAPAUCD3D11EnumDeviceSettingsCombo@@PAPAU1@U?$_Wrap_alloc@V?$allocator@PAUCD3D11EnumDeviceSettingsCombo@@@std@@@std@@@std@@YAPAPAUCD3D11EnumDeviceSettingsCombo@@PAPAU1@00AAU?$_Wrap_alloc@V?$allocator@PAUCD3D11EnumDeviceSettingsCombo@@@std@@@0@@Z ; std::_Uninit_move<CD3D11EnumDeviceSettingsCombo * *,CD3D11EnumDeviceSettingsCombo * *,std::_Wrap_alloc<std::allocator<CD3D11EnumDeviceSettingsCombo *> > >
PUBLIC	??$_Rechecked@PAPAUCD3D11EnumDeviceSettingsCombo@@PAPAU1@@std@@YAAAPAPAUCD3D11EnumDeviceSettingsCombo@@AAPAPAU1@PAPAU1@@Z ; std::_Rechecked<CD3D11EnumDeviceSettingsCombo * *,CD3D11EnumDeviceSettingsCombo * *>
PUBLIC	??$_Unchecked@PAUDXGI_MODE_DESC@@@std@@YAPAUDXGI_MODE_DESC@@PAU1@@Z ; std::_Unchecked<DXGI_MODE_DESC *>
PUBLIC	??$_Uninit_move@PAUDXGI_MODE_DESC@@PAU1@U?$_Wrap_alloc@V?$allocator@UDXGI_MODE_DESC@@@std@@@std@@@std@@YAPAUDXGI_MODE_DESC@@PAU1@00AAU?$_Wrap_alloc@V?$allocator@UDXGI_MODE_DESC@@@std@@@0@@Z ; std::_Uninit_move<DXGI_MODE_DESC *,DXGI_MODE_DESC *,std::_Wrap_alloc<std::allocator<DXGI_MODE_DESC> > >
PUBLIC	??$_Rechecked@PAUDXGI_MODE_DESC@@PAU1@@std@@YAAAPAUDXGI_MODE_DESC@@AAPAU1@PAU1@@Z ; std::_Rechecked<DXGI_MODE_DESC *,DXGI_MODE_DESC *>
PUBLIC	??$_Unchecked@PAI@std@@YAPAIPAI@Z		; std::_Unchecked<unsigned int *>
PUBLIC	??$_Uninit_move@PAIPAIU?$_Wrap_alloc@V?$allocator@I@std@@@std@@@std@@YAPAIPAI00AAU?$_Wrap_alloc@V?$allocator@I@std@@@0@@Z ; std::_Uninit_move<unsigned int *,unsigned int *,std::_Wrap_alloc<std::allocator<unsigned int> > >
PUBLIC	??$_Rechecked@PAIPAI@std@@YAAAPAIAAPAIPAI@Z	; std::_Rechecked<unsigned int *,unsigned int *>
PUBLIC	??$?RABMABM@?$less@X@std@@QBE_NABM0@Z		; std::less<void>::operator()<float const &,float const &>
PUBLIC	??$_Val_type@PAW4DXGI_FORMAT@@@std@@YAPAW4DXGI_FORMAT@@PAW41@@Z ; std::_Val_type<enum DXGI_FORMAT *>
PUBLIC	??$_Uninit_move@W4DXGI_FORMAT@@W41@W41@@std@@YAPAW4DXGI_FORMAT@@PAW41@00AAU?$_Wrap_alloc@V?$allocator@W4DXGI_FORMAT@@@std@@@0@0U_Scalar_ptr_iterator_tag@0@@Z ; std::_Uninit_move<enum DXGI_FORMAT,enum DXGI_FORMAT,enum DXGI_FORMAT>
PUBLIC	??$_Val_type@PAPAVCD3D11EnumAdapterInfo@@@std@@YAPAPAVCD3D11EnumAdapterInfo@@PAPAV1@@Z ; std::_Val_type<CD3D11EnumAdapterInfo * *>
PUBLIC	??$_Uninit_move@PAVCD3D11EnumAdapterInfo@@PAV1@PAV1@@std@@YAPAPAVCD3D11EnumAdapterInfo@@PAPAV1@00AAU?$_Wrap_alloc@V?$allocator@PAVCD3D11EnumAdapterInfo@@@std@@@0@0U_Scalar_ptr_iterator_tag@0@@Z ; std::_Uninit_move<CD3D11EnumAdapterInfo *,CD3D11EnumAdapterInfo *,CD3D11EnumAdapterInfo *>
PUBLIC	??$_Val_type@PAPAVCD3D11EnumOutputInfo@@@std@@YAPAPAVCD3D11EnumOutputInfo@@PAPAV1@@Z ; std::_Val_type<CD3D11EnumOutputInfo * *>
PUBLIC	??$_Uninit_move@PAVCD3D11EnumOutputInfo@@PAV1@PAV1@@std@@YAPAPAVCD3D11EnumOutputInfo@@PAPAV1@00AAU?$_Wrap_alloc@V?$allocator@PAVCD3D11EnumOutputInfo@@@std@@@0@0U_Scalar_ptr_iterator_tag@0@@Z ; std::_Uninit_move<CD3D11EnumOutputInfo *,CD3D11EnumOutputInfo *,CD3D11EnumOutputInfo *>
PUBLIC	??$_Val_type@PAPAVCD3D11EnumDeviceInfo@@@std@@YAPAPAVCD3D11EnumDeviceInfo@@PAPAV1@@Z ; std::_Val_type<CD3D11EnumDeviceInfo * *>
PUBLIC	??$_Uninit_move@PAVCD3D11EnumDeviceInfo@@PAV1@PAV1@@std@@YAPAPAVCD3D11EnumDeviceInfo@@PAPAV1@00AAU?$_Wrap_alloc@V?$allocator@PAVCD3D11EnumDeviceInfo@@@std@@@0@0U_Scalar_ptr_iterator_tag@0@@Z ; std::_Uninit_move<CD3D11EnumDeviceInfo *,CD3D11EnumDeviceInfo *,CD3D11EnumDeviceInfo *>
PUBLIC	??$_Val_type@PAPAUCD3D11EnumDeviceSettingsCombo@@@std@@YAPAPAUCD3D11EnumDeviceSettingsCombo@@PAPAU1@@Z ; std::_Val_type<CD3D11EnumDeviceSettingsCombo * *>
PUBLIC	??$_Uninit_move@PAUCD3D11EnumDeviceSettingsCombo@@PAU1@PAU1@@std@@YAPAPAUCD3D11EnumDeviceSettingsCombo@@PAPAU1@00AAU?$_Wrap_alloc@V?$allocator@PAUCD3D11EnumDeviceSettingsCombo@@@std@@@0@0U_Scalar_ptr_iterator_tag@0@@Z ; std::_Uninit_move<CD3D11EnumDeviceSettingsCombo *,CD3D11EnumDeviceSettingsCombo *,CD3D11EnumDeviceSettingsCombo *>
PUBLIC	??$_Val_type@PAUDXGI_MODE_DESC@@@std@@YAPAUDXGI_MODE_DESC@@PAU1@@Z ; std::_Val_type<DXGI_MODE_DESC *>
PUBLIC	??$_Uninit_move@PAUDXGI_MODE_DESC@@PAU1@V?$allocator@UDXGI_MODE_DESC@@@std@@U1@@std@@YAPAUDXGI_MODE_DESC@@PAU1@00AAU?$_Wrap_alloc@V?$allocator@UDXGI_MODE_DESC@@@std@@@0@0U_Nonscalar_ptr_iterator_tag@0@@Z ; std::_Uninit_move<DXGI_MODE_DESC *,DXGI_MODE_DESC *,std::allocator<DXGI_MODE_DESC>,DXGI_MODE_DESC>
PUBLIC	??$_Val_type@PAI@std@@YAPAIPAI@Z		; std::_Val_type<unsigned int *>
PUBLIC	??$_Uninit_move@III@std@@YAPAIPAI00AAU?$_Wrap_alloc@V?$allocator@I@std@@@0@0U_Scalar_ptr_iterator_tag@0@@Z ; std::_Uninit_move<unsigned int,unsigned int,unsigned int>
PUBLIC	??$_Debug_range@PAW4DXGI_FORMAT@@@std@@YAXPAW4DXGI_FORMAT@@0PB_WI@Z ; std::_Debug_range<enum DXGI_FORMAT *>
PUBLIC	??$_Debug_pointer@W4DXGI_FORMAT@@@std@@YAXPAW4DXGI_FORMAT@@PB_WI@Z ; std::_Debug_pointer<enum DXGI_FORMAT>
PUBLIC	??$_Debug_range@PAPAVCD3D11EnumAdapterInfo@@@std@@YAXPAPAVCD3D11EnumAdapterInfo@@0PB_WI@Z ; std::_Debug_range<CD3D11EnumAdapterInfo * *>
PUBLIC	??$_Debug_pointer@PAVCD3D11EnumAdapterInfo@@@std@@YAXPAPAVCD3D11EnumAdapterInfo@@PB_WI@Z ; std::_Debug_pointer<CD3D11EnumAdapterInfo *>
PUBLIC	??$_Debug_range@PAPAVCD3D11EnumOutputInfo@@@std@@YAXPAPAVCD3D11EnumOutputInfo@@0PB_WI@Z ; std::_Debug_range<CD3D11EnumOutputInfo * *>
PUBLIC	??$_Debug_pointer@PAVCD3D11EnumOutputInfo@@@std@@YAXPAPAVCD3D11EnumOutputInfo@@PB_WI@Z ; std::_Debug_pointer<CD3D11EnumOutputInfo *>
PUBLIC	??$_Debug_range@PAPAVCD3D11EnumDeviceInfo@@@std@@YAXPAPAVCD3D11EnumDeviceInfo@@0PB_WI@Z ; std::_Debug_range<CD3D11EnumDeviceInfo * *>
PUBLIC	??$_Debug_pointer@PAVCD3D11EnumDeviceInfo@@@std@@YAXPAPAVCD3D11EnumDeviceInfo@@PB_WI@Z ; std::_Debug_pointer<CD3D11EnumDeviceInfo *>
PUBLIC	??$_Debug_range@PAPAUCD3D11EnumDeviceSettingsCombo@@@std@@YAXPAPAUCD3D11EnumDeviceSettingsCombo@@0PB_WI@Z ; std::_Debug_range<CD3D11EnumDeviceSettingsCombo * *>
PUBLIC	??$_Debug_pointer@PAUCD3D11EnumDeviceSettingsCombo@@@std@@YAXPAPAUCD3D11EnumDeviceSettingsCombo@@PB_WI@Z ; std::_Debug_pointer<CD3D11EnumDeviceSettingsCombo *>
PUBLIC	??$_Debug_range@PAUDXGI_MODE_DESC@@@std@@YAXPAUDXGI_MODE_DESC@@0PB_WI@Z ; std::_Debug_range<DXGI_MODE_DESC *>
PUBLIC	??$_Debug_pointer@UDXGI_MODE_DESC@@@std@@YAXPAUDXGI_MODE_DESC@@PB_WI@Z ; std::_Debug_pointer<DXGI_MODE_DESC>
PUBLIC	??$construct@UDXGI_MODE_DESC@@U1@@?$_Wrap_alloc@V?$allocator@UDXGI_MODE_DESC@@@std@@@std@@QAEXPAUDXGI_MODE_DESC@@$$QAU2@@Z ; std::_Wrap_alloc<std::allocator<DXGI_MODE_DESC> >::construct<DXGI_MODE_DESC,DXGI_MODE_DESC>
PUBLIC	??$_Debug_range@PAI@std@@YAXPAI0PB_WI@Z		; std::_Debug_range<unsigned int *>
PUBLIC	??$_Debug_pointer@I@std@@YAXPAIPB_WI@Z		; std::_Debug_pointer<unsigned int>
PUBLIC	??$_Iter_cat@PAW4DXGI_FORMAT@@@std@@YA?AUrandom_access_iterator_tag@0@ABQAW4DXGI_FORMAT@@@Z ; std::_Iter_cat<enum DXGI_FORMAT *>
PUBLIC	??$_Debug_range2@PAW4DXGI_FORMAT@@@std@@YAXPAW4DXGI_FORMAT@@0PB_WIUrandom_access_iterator_tag@0@@Z ; std::_Debug_range2<enum DXGI_FORMAT *>
PUBLIC	??$_Iter_cat@PAPAVCD3D11EnumAdapterInfo@@@std@@YA?AUrandom_access_iterator_tag@0@ABQAPAVCD3D11EnumAdapterInfo@@@Z ; std::_Iter_cat<CD3D11EnumAdapterInfo * *>
PUBLIC	??$_Debug_range2@PAPAVCD3D11EnumAdapterInfo@@@std@@YAXPAPAVCD3D11EnumAdapterInfo@@0PB_WIUrandom_access_iterator_tag@0@@Z ; std::_Debug_range2<CD3D11EnumAdapterInfo * *>
PUBLIC	??$_Iter_cat@PAPAVCD3D11EnumOutputInfo@@@std@@YA?AUrandom_access_iterator_tag@0@ABQAPAVCD3D11EnumOutputInfo@@@Z ; std::_Iter_cat<CD3D11EnumOutputInfo * *>
PUBLIC	??$_Debug_range2@PAPAVCD3D11EnumOutputInfo@@@std@@YAXPAPAVCD3D11EnumOutputInfo@@0PB_WIUrandom_access_iterator_tag@0@@Z ; std::_Debug_range2<CD3D11EnumOutputInfo * *>
PUBLIC	??$_Iter_cat@PAPAVCD3D11EnumDeviceInfo@@@std@@YA?AUrandom_access_iterator_tag@0@ABQAPAVCD3D11EnumDeviceInfo@@@Z ; std::_Iter_cat<CD3D11EnumDeviceInfo * *>
PUBLIC	??$_Debug_range2@PAPAVCD3D11EnumDeviceInfo@@@std@@YAXPAPAVCD3D11EnumDeviceInfo@@0PB_WIUrandom_access_iterator_tag@0@@Z ; std::_Debug_range2<CD3D11EnumDeviceInfo * *>
PUBLIC	??$_Iter_cat@PAPAUCD3D11EnumDeviceSettingsCombo@@@std@@YA?AUrandom_access_iterator_tag@0@ABQAPAUCD3D11EnumDeviceSettingsCombo@@@Z ; std::_Iter_cat<CD3D11EnumDeviceSettingsCombo * *>
PUBLIC	??$_Debug_range2@PAPAUCD3D11EnumDeviceSettingsCombo@@@std@@YAXPAPAUCD3D11EnumDeviceSettingsCombo@@0PB_WIUrandom_access_iterator_tag@0@@Z ; std::_Debug_range2<CD3D11EnumDeviceSettingsCombo * *>
PUBLIC	??$_Iter_cat@PAUDXGI_MODE_DESC@@@std@@YA?AUrandom_access_iterator_tag@0@ABQAUDXGI_MODE_DESC@@@Z ; std::_Iter_cat<DXGI_MODE_DESC *>
PUBLIC	??$_Debug_range2@PAUDXGI_MODE_DESC@@@std@@YAXPAUDXGI_MODE_DESC@@0PB_WIUrandom_access_iterator_tag@0@@Z ; std::_Debug_range2<DXGI_MODE_DESC *>
PUBLIC	??$forward@UDXGI_MODE_DESC@@@std@@YA$$QAUDXGI_MODE_DESC@@AAU1@@Z ; std::forward<DXGI_MODE_DESC>
PUBLIC	??$construct@UDXGI_MODE_DESC@@U1@@?$allocator_traits@V?$allocator@UDXGI_MODE_DESC@@@std@@@std@@SAXAAV?$allocator@UDXGI_MODE_DESC@@@1@PAUDXGI_MODE_DESC@@$$QAU3@@Z ; std::allocator_traits<std::allocator<DXGI_MODE_DESC> >::construct<DXGI_MODE_DESC,DXGI_MODE_DESC>
PUBLIC	??$_Iter_cat@PAI@std@@YA?AUrandom_access_iterator_tag@0@ABQAI@Z ; std::_Iter_cat<unsigned int *>
PUBLIC	??$_Debug_range2@PAI@std@@YAXPAI0PB_WIUrandom_access_iterator_tag@0@@Z ; std::_Debug_range2<unsigned int *>
PUBLIC	??$construct@UDXGI_MODE_DESC@@U1@@?$allocator@UDXGI_MODE_DESC@@@std@@QAEXPAUDXGI_MODE_DESC@@$$QAU2@@Z ; std::allocator<DXGI_MODE_DESC>::construct<DXGI_MODE_DESC,DXGI_MODE_DESC>
PUBLIC	??_C@_15GANGMFKL@?$AA?$CF?$AAs?$AA?$AA@		; `string'
PUBLIC	??_C@_1JA@EADLBAJ@?$AAC?$AA?3?$AA?2?$AAP?$AAr?$AAo?$AAg?$AAr?$AAa?$AAm?$AA?5?$AAF?$AAi?$AAl?$AAe?$AAs?$AA?5?$AA?$CI?$AAx?$AA8?$AA6?$AA?$CJ?$AA?2?$AAM?$AAi?$AAc?$AAr?$AAo?$AAs?$AAo?$AAf?$AAt@ ; `string'
PUBLIC	??_C@_1DC@POOIKBAO@?$AAI?$AAT?$AAE?$AAR?$AAA?$AAT?$AAO?$AAR?$AA?5?$AAL?$AAI?$AAS?$AAT?$AA?5?$AAC?$AAO?$AAR?$AAR?$AAU?$AAP?$AAT?$AAE?$AAD?$AA?$CB?$AA?$AA@ ; `string'
PUBLIC	??_C@_1IM@EINEHPHE@?$AAC?$AA?3?$AA?2?$AAP?$AAr?$AAo?$AAg?$AAr?$AAa?$AAm?$AA?5?$AAF?$AAi?$AAl?$AAe?$AAs?$AA?5?$AA?$CI?$AAx?$AA8?$AA6?$AA?$CJ?$AA?2?$AAM?$AAi?$AAc?$AAr?$AAo?$AAs?$AAo?$AAf?$AAt@ ; `string'
PUBLIC	??_C@_1DM@LHGCHCBA@?$AAv?$AAe?$AAc?$AAt?$AAo?$AAr?$AA?5?$AAs?$AAu?$AAb?$AAs?$AAc?$AAr?$AAi?$AAp?$AAt?$AA?5?$AAo?$AAu?$AAt?$AA?5?$AAo?$AAf?$AA?5?$AAr?$AAa?$AAn?$AAg?$AAe?$AA?$AA@ ; `string'
PUBLIC	??_C@_0CE@OFMIGAMM@Standard?5C?$CL?$CL?5Libraries?5Out?5of?5Ra@ ; `string'
PUBLIC	??_C@_1FG@IBPIFFN@?$AA?$CC?$AAS?$AAt?$AAa?$AAn?$AAd?$AAa?$AAr?$AAd?$AA?5?$AAC?$AA?$CL?$AA?$CL?$AA?5?$AAL?$AAi?$AAb?$AAr?$AAa?$AAr?$AAi?$AAe?$AAs?$AA?5?$AAO?$AAu?$AAt?$AA?5?$AAo?$AAf?$AA?5?$AAR@ ; `string'
PUBLIC	??_C@_1NK@IBJPKOBK@?$AAs?$AAt?$AAd?$AA?3?$AA?3?$AAv?$AAe?$AAc?$AAt?$AAo?$AAr?$AA?$DM?$AAc?$AAl?$AAa?$AAs?$AAs?$AA?5?$AAC?$AAD?$AA3?$AAD?$AA1?$AA1?$AAE?$AAn?$AAu?$AAm?$AAA?$AAd?$AAa?$AAp@ ; `string'
PUBLIC	??_C@_1BO@MEPPHOO@?$AA?$CC?$AAo?$AAu?$AAt?$AA?5?$AAo?$AAf?$AA?5?$AAr?$AAa?$AAn?$AAg?$AAe?$AA?$CC?$AA?$AA@ ; `string'
PUBLIC	??_C@_1NG@BAGGOCPN@?$AAs?$AAt?$AAd?$AA?3?$AA?3?$AAv?$AAe?$AAc?$AAt?$AAo?$AAr?$AA?$DM?$AAc?$AAl?$AAa?$AAs?$AAs?$AA?5?$AAC?$AAD?$AA3?$AAD?$AA1?$AA1?$AAE?$AAn?$AAu?$AAm?$AAO?$AAu?$AAt?$AAp@ ; `string'
PUBLIC	??_C@_1NG@EIKOPBNN@?$AAs?$AAt?$AAd?$AA?3?$AA?3?$AAv?$AAe?$AAc?$AAt?$AAo?$AAr?$AA?$DM?$AAc?$AAl?$AAa?$AAs?$AAs?$AA?5?$AAC?$AAD?$AA3?$AAD?$AA1?$AA1?$AAE?$AAn?$AAu?$AAm?$AAD?$AAe?$AAv?$AAi@ ; `string'
PUBLIC	??_C@_1PO@FFNDBIOE@?$AAs?$AAt?$AAd?$AA?3?$AA?3?$AAv?$AAe?$AAc?$AAt?$AAo?$AAr?$AA?$DM?$AAs?$AAt?$AAr?$AAu?$AAc?$AAt?$AA?5?$AAC?$AAD?$AA3?$AAD?$AA1?$AA1?$AAE?$AAn?$AAu?$AAm?$AAD?$AAe?$AAv@ ; `string'
PUBLIC	??_C@_1LK@CIKAIPAF@?$AAs?$AAt?$AAd?$AA?3?$AA?3?$AAv?$AAe?$AAc?$AAt?$AAo?$AAr?$AA?$DM?$AAs?$AAt?$AAr?$AAu?$AAc?$AAt?$AA?5?$AAD?$AAX?$AAG?$AAI?$AA_?$AAM?$AAO?$AAD?$AAE?$AA_?$AAD?$AAE?$AAS@ ; `string'
PUBLIC	??_C@_1JG@ILDNFCDK@?$AAs?$AAt?$AAd?$AA?3?$AA?3?$AAv?$AAe?$AAc?$AAt?$AAo?$AAr?$AA?$DM?$AAu?$AAn?$AAs?$AAi?$AAg?$AAn?$AAe?$AAd?$AA?5?$AAi?$AAn?$AAt?$AA?0?$AAc?$AAl?$AAa?$AAs?$AAs?$AA?5?$AAs@ ; `string'
PUBLIC	??_C@_1EG@FOHJJHAC@?$AAv?$AAe?$AAc?$AAt?$AAo?$AAr?$AA?5?$AAi?$AAt?$AAe?$AAr?$AAa?$AAt?$AAo?$AAr?$AA?5?$AAn?$AAo?$AAt?$AA?5?$AAd?$AAe?$AAr?$AAe?$AAf?$AAe?$AAr?$AAe?$AAn?$AAc?$AAa?$AAb@ ; `string'
PUBLIC	??_C@_1PI@MICGNEKL@?$AAs?$AAt?$AAd?$AA?3?$AA?3?$AA_?$AAV?$AAe?$AAc?$AAt?$AAo?$AAr?$AA_?$AAc?$AAo?$AAn?$AAs?$AAt?$AA_?$AAi?$AAt?$AAe?$AAr?$AAa?$AAt?$AAo?$AAr?$AA?$DM?$AAc?$AAl?$AAa?$AAs@ ; `string'
PUBLIC	??_C@_1EE@EJDKCLKB@?$AAv?$AAe?$AAc?$AAt?$AAo?$AAr?$AA?5?$AAi?$AAt?$AAe?$AAr?$AAa?$AAt?$AAo?$AAr?$AA?5?$AAn?$AAo?$AAt?$AA?5?$AAi?$AAn?$AAc?$AAr?$AAe?$AAm?$AAe?$AAn?$AAt?$AAa?$AAb?$AAl@ ; `string'
PUBLIC	??_C@_1PK@HACCEAFD@?$AAs?$AAt?$AAd?$AA?3?$AA?3?$AA_?$AAV?$AAe?$AAc?$AAt?$AAo?$AAr?$AA_?$AAc?$AAo?$AAn?$AAs?$AAt?$AA_?$AAi?$AAt?$AAe?$AAr?$AAa?$AAt?$AAo?$AAr?$AA?$DM?$AAc?$AAl?$AAa?$AAs@ ; `string'
PUBLIC	??_C@_1PG@MKGFGKMB@?$AAs?$AAt?$AAd?$AA?3?$AA?3?$AA_?$AAV?$AAe?$AAc?$AAt?$AAo?$AAr?$AA_?$AAc?$AAo?$AAn?$AAs?$AAt?$AA_?$AAi?$AAt?$AAe?$AAr?$AAa?$AAt?$AAo?$AAr?$AA?$DM?$AAc?$AAl?$AAa?$AAs@ ; `string'
PUBLIC	??_C@_1PI@MDOJFPLG@?$AAs?$AAt?$AAd?$AA?3?$AA?3?$AA_?$AAV?$AAe?$AAc?$AAt?$AAo?$AAr?$AA_?$AAc?$AAo?$AAn?$AAs?$AAt?$AA_?$AAi?$AAt?$AAe?$AAr?$AAa?$AAt?$AAo?$AAr?$AA?$DM?$AAc?$AAl?$AAa?$AAs@ ; `string'
PUBLIC	??_C@_0BD@OLBABOEK@vector?$DMT?$DO?5too?5long?$AA@ ; `string'
PUBLIC	??_C@_1DM@HINDPMBP@?$AAv?$AAe?$AAc?$AAt?$AAo?$AAr?$AA?5?$AAi?$AAt?$AAe?$AAr?$AAa?$AAt?$AAo?$AAr?$AAs?$AA?5?$AAi?$AAn?$AAc?$AAo?$AAm?$AAp?$AAa?$AAt?$AAi?$AAb?$AAl?$AAe?$AA?$AA@ ; `string'
PUBLIC	??_C@_0CI@FNPHFCCM@Standard?5C?$CL?$CL?5Libraries?5Invalid?5A@ ; `string'
PUBLIC	??_C@_1FO@GJIHNDLM@?$AA?$CC?$AAS?$AAt?$AAa?$AAn?$AAd?$AAa?$AAr?$AAd?$AA?5?$AAC?$AA?$CL?$AA?$CL?$AA?5?$AAL?$AAi?$AAb?$AAr?$AAa?$AAr?$AAi?$AAe?$AAs?$AA?5?$AAI?$AAn?$AAv?$AAa?$AAl?$AAi?$AAd?$AA?5@ ; `string'
PUBLIC	??_C@_1PC@LBNCMFIJ@?$AAs?$AAt?$AAd?$AA?3?$AA?3?$AA_?$AAV?$AAe?$AAc?$AAt?$AAo?$AAr?$AA_?$AAc?$AAo?$AAn?$AAs?$AAt?$AA_?$AAi?$AAt?$AAe?$AAr?$AAa?$AAt?$AAo?$AAr?$AA?$DM?$AAc?$AAl?$AAa?$AAs@ ; `string'
PUBLIC	??_C@_1CG@JNLFBNGN@?$AA?$CC?$AAi?$AAn?$AAv?$AAa?$AAl?$AAi?$AAd?$AA?5?$AAa?$AAr?$AAg?$AAu?$AAm?$AAe?$AAn?$AAt?$AA?$CC?$AA?$AA@ ; `string'
PUBLIC	??_C@_1PA@GGNKHFFL@?$AAs?$AAt?$AAd?$AA?3?$AA?3?$AA_?$AAV?$AAe?$AAc?$AAt?$AAo?$AAr?$AA_?$AAc?$AAo?$AAn?$AAs?$AAt?$AA_?$AAi?$AAt?$AAe?$AAr?$AAa?$AAt?$AAo?$AAr?$AA?$DM?$AAc?$AAl?$AAa?$AAs@ ; `string'
PUBLIC	??_C@_1JC@HALMDPKM@?$AAC?$AA?3?$AA?2?$AAP?$AAr?$AAo?$AAg?$AAr?$AAa?$AAm?$AA?5?$AAF?$AAi?$AAl?$AAe?$AAs?$AA?5?$AA?$CI?$AAx?$AA8?$AA6?$AA?$CJ?$AA?2?$AAM?$AAi?$AAc?$AAr?$AAo?$AAs?$AAo?$AAf?$AAt@ ; `string'
PUBLIC	??_C@_1CE@IGJMOCCK@?$AAi?$AAn?$AAv?$AAa?$AAl?$AAi?$AAd?$AA?5?$AAo?$AAp?$AAe?$AAr?$AAa?$AAt?$AAo?$AAr?$AA?$DM?$AA?$AA@ ; `string'
PUBLIC	??_C@_1IO@LKIDJAMC@?$AAC?$AA?3?$AA?2?$AAP?$AAr?$AAo?$AAg?$AAr?$AAa?$AAm?$AA?5?$AAF?$AAi?$AAl?$AAe?$AAs?$AA?5?$AA?$CI?$AAx?$AA8?$AA6?$AA?$CJ?$AA?2?$AAM?$AAi?$AAc?$AAr?$AAo?$AAs?$AAo?$AAf?$AAt@ ; `string'
PUBLIC	??_C@_1CK@EOPGIILJ@?$AAi?$AAn?$AAv?$AAa?$AAl?$AAi?$AAd?$AA?5?$AAn?$AAu?$AAl?$AAl?$AA?5?$AAp?$AAo?$AAi?$AAn?$AAt?$AAe?$AAr?$AA?$AA@ ; `string'
PUBLIC	??_C@_1CO@DGLIKNHI@?$AAi?$AAn?$AAv?$AAa?$AAl?$AAi?$AAd?$AA?5?$AAi?$AAt?$AAe?$AAr?$AAa?$AAt?$AAo?$AAr?$AA?5?$AAr?$AAa?$AAn?$AAg?$AAe?$AA?$AA@ ; `string'
PUBLIC	__real@00000000
PUBLIC	__real@3dcccccd
PUBLIC	__real@3e4ccccd
PUBLIC	__real@3f666666
PUBLIC	__real@3f800000
PUBLIC	__real@41200000
PUBLIC	__real@42a00000
PUBLIC	__real@42c80000
PUBLIC	__real@43fa0000
PUBLIC	__real@447a0000
PUBLIC	__real@7f7fffff
PUBLIC	__xmm@41f00000000000000000000000000000
PUBLIC	__xmm@7fffffff7fffffff7fffffff7fffffff
EXTRN	??2@YAPAXI@Z:PROC				; operator new
EXTRN	??3@YAXPAX@Z:PROC				; operator delete
EXTRN	_atexit:PROC
EXTRN	__imp___invalid_parameter:PROC
EXTRN	__imp__memmove:PROC
EXTRN	__imp__wcscat_s:PROC
EXTRN	__imp__wcscpy_s:PROC
EXTRN	__imp__wcsncmp:PROC
EXTRN	__imp__GetSystemMetrics@4:PROC
EXTRN	__imp__EnumDisplaySettingsW@12:PROC
EXTRN	__imp___wassert:PROC
EXTRN	??2@YAPAXIABUnothrow_t@std@@@Z:PROC		; operator new
EXTRN	??_U@YAPAXIABUnothrow_t@std@@@Z:PROC		; operator new[]
EXTRN	??3@YAXPAXABUnothrow_t@std@@@Z:PROC		; operator delete
EXTRN	__imp__swprintf_s:PROC
EXTRN	__imp___CrtDbgReportW:PROC
EXTRN	??_V@YAXPAX@Z:PROC				; operator delete[]
EXTRN	__imp_??0_Lockit@std@@QAE@H@Z:PROC
EXTRN	__imp_??1_Lockit@std@@QAE@XZ:PROC
EXTRN	__imp_?_Debug_message@std@@YAXPB_W0I@Z:PROC
EXTRN	__imp_??0_Container_base12@std@@QAE@XZ:PROC
EXTRN	__imp_??1_Container_base12@std@@QAE@XZ:PROC
EXTRN	__imp_?_Getpfirst@_Container_base12@std@@QBEPAPAU_Iterator_base12@2@XZ:PROC
EXTRN	__imp_?_Orphan_all@_Container_base12@std@@QAEXXZ:PROC
EXTRN	__imp_?_Xbad_alloc@std@@YAXXZ:PROC
EXTRN	__imp_?_Xlength_error@std@@YAXPBD@Z:PROC
EXTRN	?DXUTGetDXGIFactory@@YGPAUIDXGIFactory1@@XZ:PROC ; DXUTGetDXGIFactory
EXTRN	?DXUTGetDeviceSettings@@YG?AUDXUTDeviceSettings@@XZ:PROC ; DXUTGetDeviceSettings
EXTRN	?DXUTIsInGammaCorrectMode@@YG_NXZ:PROC		; DXUTIsInGammaCorrectMode
EXTRN	?DXUT_Dynamic_D3DPERF_BeginEvent@@YGHKPB_W@Z:PROC ; DXUT_Dynamic_D3DPERF_BeginEvent
EXTRN	?DXUT_Dynamic_D3DPERF_EndEvent@@YGHXZ:PROC	; DXUT_Dynamic_D3DPERF_EndEvent
EXTRN	?DXUT_Dynamic_D3D11CreateDevice@@YGJPAUIDXGIAdapter@@W4D3D_DRIVER_TYPE@@PAUHINSTANCE__@@IPAW4D3D_FEATURE_LEVEL@@IIPAPAUID3D11Device@@3PAPAUID3D11DeviceContext@@@Z:PROC ; DXUT_Dynamic_D3D11CreateDevice
EXTRN	?DXUTGetCallbackD3D11DeviceAcceptable@@YAXPAP6G_NPBVCD3D11EnumAdapterInfo@@IPBVCD3D11EnumDeviceInfo@@W4DXGI_FORMAT@@_NPAX@ZPAPAX@Z:PROC ; DXUTGetCallbackD3D11DeviceAcceptable
EXTRN	@_RTC_CheckStackVars@8:PROC
EXTRN	@__security_check_cookie@4:PROC
EXTRN	__CxxThrowException@8:PROC
EXTRN	__RTC_CheckEsp:PROC
EXTRN	__RTC_InitBase:PROC
EXTRN	__RTC_Shutdown:PROC
EXTRN	___CxxFrameHandler3:PROC
EXTRN	_memset:PROC
EXTRN	?nothrow@std@@3Unothrow_t@1@B:BYTE		; std::nothrow
EXTRN	___security_cookie:DWORD
EXTRN	__fltused:DWORD
;	COMDAT ?d3d11enumMemory@?1??DXUTGetD3D11Enumeration@@YGPAVCD3D11Enumeration@@_N0W4D3D_FEATURE_LEVEL@@@Z@4VDXUTMemoryHelperD3D11Enum@@A
_BSS	SEGMENT
?d3d11enumMemory@?1??DXUTGetD3D11Enumeration@@YGPAVCD3D11Enumeration@@_N0W4D3D_FEATURE_LEVEL@@@Z@4VDXUTMemoryHelperD3D11Enum@@A DB 01H DUP (?) ; `DXUTGetD3D11Enumeration'::`2'::d3d11enumMemory
_BSS	ENDS
;	COMDAT ?$S1@?1??DXUTGetD3D11Enumeration@@YGPAVCD3D11Enumeration@@_N0W4D3D_FEATURE_LEVEL@@@Z@4IA
_BSS	SEGMENT
?$S1@?1??DXUTGetD3D11Enumeration@@YGPAVCD3D11Enumeration@@_N0W4D3D_FEATURE_LEVEL@@@Z@4IA DD 01H DUP (?) ; S1<`template-parameter-2',void,TGetD3D11Enumeration,GPAVCD3D11Enumeration,bool`template-parameter-2',enum D3D_FEATURE_LEVEL>
_BSS	ENDS
;	COMDAT __xmm@7fffffff7fffffff7fffffff7fffffff
CONST	SEGMENT
__xmm@7fffffff7fffffff7fffffff7fffffff DB 0ffH, 0ffH, 0ffH, 07fH, 0ffH, 0ffH
	DB	0ffH, 07fH, 0ffH, 0ffH, 0ffH, 07fH, 0ffH, 0ffH, 0ffH, 07fH
CONST	ENDS
;	COMDAT __xmm@41f00000000000000000000000000000
CONST	SEGMENT
__xmm@41f00000000000000000000000000000 DB 00H, 00H, 00H, 00H, 00H, 00H, 00H
	DB	00H, 00H, 00H, 00H, 00H, 00H, 00H, 0f0H, 'A'
CONST	ENDS
;	COMDAT __real@7f7fffff
CONST	SEGMENT
__real@7f7fffff DD 07f7fffffr			; 3.40282e+038
CONST	ENDS
;	COMDAT __real@447a0000
CONST	SEGMENT
__real@447a0000 DD 0447a0000r			; 1000
CONST	ENDS
;	COMDAT __real@43fa0000
CONST	SEGMENT
__real@43fa0000 DD 043fa0000r			; 500
CONST	ENDS
;	COMDAT __real@42c80000
CONST	SEGMENT
__real@42c80000 DD 042c80000r			; 100
CONST	ENDS
;	COMDAT __real@42a00000
CONST	SEGMENT
__real@42a00000 DD 042a00000r			; 80
CONST	ENDS
;	COMDAT __real@41200000
CONST	SEGMENT
__real@41200000 DD 041200000r			; 10
CONST	ENDS
;	COMDAT __real@3f800000
CONST	SEGMENT
__real@3f800000 DD 03f800000r			; 1
CONST	ENDS
;	COMDAT __real@3f666666
CONST	SEGMENT
__real@3f666666 DD 03f666666r			; 0.9
CONST	ENDS
;	COMDAT __real@3e4ccccd
CONST	SEGMENT
__real@3e4ccccd DD 03e4ccccdr			; 0.2
CONST	ENDS
;	COMDAT __real@3dcccccd
CONST	SEGMENT
__real@3dcccccd DD 03dcccccdr			; 0.1
CONST	ENDS
;	COMDAT __real@00000000
CONST	SEGMENT
__real@00000000 DD 000000000r			; 0
CONST	ENDS
;	COMDAT rtc$TMZ
rtc$TMZ	SEGMENT
__RTC_Shutdown.rtc$TMZ DD FLAT:__RTC_Shutdown
rtc$TMZ	ENDS
;	COMDAT rtc$IMZ
rtc$IMZ	SEGMENT
__RTC_InitBase.rtc$IMZ DD FLAT:__RTC_InitBase
rtc$IMZ	ENDS
;	COMDAT ??_C@_1CO@DGLIKNHI@?$AAi?$AAn?$AAv?$AAa?$AAl?$AAi?$AAd?$AA?5?$AAi?$AAt?$AAe?$AAr?$AAa?$AAt?$AAo?$AAr?$AA?5?$AAr?$AAa?$AAn?$AAg?$AAe?$AA?$AA@
CONST	SEGMENT
??_C@_1CO@DGLIKNHI@?$AAi?$AAn?$AAv?$AAa?$AAl?$AAi?$AAd?$AA?5?$AAi?$AAt?$AAe?$AAr?$AAa?$AAt?$AAo?$AAr?$AA?5?$AAr?$AAa?$AAn?$AAg?$AAe?$AA?$AA@ DB 'i'
	DB	00H, 'n', 00H, 'v', 00H, 'a', 00H, 'l', 00H, 'i', 00H, 'd', 00H
	DB	' ', 00H, 'i', 00H, 't', 00H, 'e', 00H, 'r', 00H, 'a', 00H, 't'
	DB	00H, 'o', 00H, 'r', 00H, ' ', 00H, 'r', 00H, 'a', 00H, 'n', 00H
	DB	'g', 00H, 'e', 00H, 00H, 00H			; `string'
CONST	ENDS
;	COMDAT ??_C@_1CK@EOPGIILJ@?$AAi?$AAn?$AAv?$AAa?$AAl?$AAi?$AAd?$AA?5?$AAn?$AAu?$AAl?$AAl?$AA?5?$AAp?$AAo?$AAi?$AAn?$AAt?$AAe?$AAr?$AA?$AA@
CONST	SEGMENT
??_C@_1CK@EOPGIILJ@?$AAi?$AAn?$AAv?$AAa?$AAl?$AAi?$AAd?$AA?5?$AAn?$AAu?$AAl?$AAl?$AA?5?$AAp?$AAo?$AAi?$AAn?$AAt?$AAe?$AAr?$AA?$AA@ DB 'i'
	DB	00H, 'n', 00H, 'v', 00H, 'a', 00H, 'l', 00H, 'i', 00H, 'd', 00H
	DB	' ', 00H, 'n', 00H, 'u', 00H, 'l', 00H, 'l', 00H, ' ', 00H, 'p'
	DB	00H, 'o', 00H, 'i', 00H, 'n', 00H, 't', 00H, 'e', 00H, 'r', 00H
	DB	00H, 00H					; `string'
CONST	ENDS
;	COMDAT ??_C@_1IO@LKIDJAMC@?$AAC?$AA?3?$AA?2?$AAP?$AAr?$AAo?$AAg?$AAr?$AAa?$AAm?$AA?5?$AAF?$AAi?$AAl?$AAe?$AAs?$AA?5?$AA?$CI?$AAx?$AA8?$AA6?$AA?$CJ?$AA?2?$AAM?$AAi?$AAc?$AAr?$AAo?$AAs?$AAo?$AAf?$AAt@
CONST	SEGMENT
??_C@_1IO@LKIDJAMC@?$AAC?$AA?3?$AA?2?$AAP?$AAr?$AAo?$AAg?$AAr?$AAa?$AAm?$AA?5?$AAF?$AAi?$AAl?$AAe?$AAs?$AA?5?$AA?$CI?$AAx?$AA8?$AA6?$AA?$CJ?$AA?2?$AAM?$AAi?$AAc?$AAr?$AAo?$AAs?$AAo?$AAf?$AAt@ DB 'C'
	DB	00H, ':', 00H, '\', 00H, 'P', 00H, 'r', 00H, 'o', 00H, 'g', 00H
	DB	'r', 00H, 'a', 00H, 'm', 00H, ' ', 00H, 'F', 00H, 'i', 00H, 'l'
	DB	00H, 'e', 00H, 's', 00H, ' ', 00H, '(', 00H, 'x', 00H, '8', 00H
	DB	'6', 00H, ')', 00H, '\', 00H, 'M', 00H, 'i', 00H, 'c', 00H, 'r'
	DB	00H, 'o', 00H, 's', 00H, 'o', 00H, 'f', 00H, 't', 00H, ' ', 00H
	DB	'V', 00H, 'i', 00H, 's', 00H, 'u', 00H, 'a', 00H, 'l', 00H, ' '
	DB	00H, 'S', 00H, 't', 00H, 'u', 00H, 'd', 00H, 'i', 00H, 'o', 00H
	DB	' ', 00H, '1', 00H, '2', 00H, '.', 00H, '0', 00H, '\', 00H, 'V'
	DB	00H, 'C', 00H, '\', 00H, 'i', 00H, 'n', 00H, 'c', 00H, 'l', 00H
	DB	'u', 00H, 'd', 00H, 'e', 00H, '\', 00H, 'x', 00H, 'm', 00H, 'e'
	DB	00H, 'm', 00H, 'o', 00H, 'r', 00H, 'y', 00H, 00H, 00H ; `string'
CONST	ENDS
;	COMDAT ??_C@_1CE@IGJMOCCK@?$AAi?$AAn?$AAv?$AAa?$AAl?$AAi?$AAd?$AA?5?$AAo?$AAp?$AAe?$AAr?$AAa?$AAt?$AAo?$AAr?$AA?$DM?$AA?$AA@
CONST	SEGMENT
??_C@_1CE@IGJMOCCK@?$AAi?$AAn?$AAv?$AAa?$AAl?$AAi?$AAd?$AA?5?$AAo?$AAp?$AAe?$AAr?$AAa?$AAt?$AAo?$AAr?$AA?$DM?$AA?$AA@ DB 'i'
	DB	00H, 'n', 00H, 'v', 00H, 'a', 00H, 'l', 00H, 'i', 00H, 'd', 00H
	DB	' ', 00H, 'o', 00H, 'p', 00H, 'e', 00H, 'r', 00H, 'a', 00H, 't'
	DB	00H, 'o', 00H, 'r', 00H, '<', 00H, 00H, 00H	; `string'
CONST	ENDS
;	COMDAT ??_C@_1JC@HALMDPKM@?$AAC?$AA?3?$AA?2?$AAP?$AAr?$AAo?$AAg?$AAr?$AAa?$AAm?$AA?5?$AAF?$AAi?$AAl?$AAe?$AAs?$AA?5?$AA?$CI?$AAx?$AA8?$AA6?$AA?$CJ?$AA?2?$AAM?$AAi?$AAc?$AAr?$AAo?$AAs?$AAo?$AAf?$AAt@
CONST	SEGMENT
??_C@_1JC@HALMDPKM@?$AAC?$AA?3?$AA?2?$AAP?$AAr?$AAo?$AAg?$AAr?$AAa?$AAm?$AA?5?$AAF?$AAi?$AAl?$AAe?$AAs?$AA?5?$AA?$CI?$AAx?$AA8?$AA6?$AA?$CJ?$AA?2?$AAM?$AAi?$AAc?$AAr?$AAo?$AAs?$AAo?$AAf?$AAt@ DB 'C'
	DB	00H, ':', 00H, '\', 00H, 'P', 00H, 'r', 00H, 'o', 00H, 'g', 00H
	DB	'r', 00H, 'a', 00H, 'm', 00H, ' ', 00H, 'F', 00H, 'i', 00H, 'l'
	DB	00H, 'e', 00H, 's', 00H, ' ', 00H, '(', 00H, 'x', 00H, '8', 00H
	DB	'6', 00H, ')', 00H, '\', 00H, 'M', 00H, 'i', 00H, 'c', 00H, 'r'
	DB	00H, 'o', 00H, 's', 00H, 'o', 00H, 'f', 00H, 't', 00H, ' ', 00H
	DB	'V', 00H, 'i', 00H, 's', 00H, 'u', 00H, 'a', 00H, 'l', 00H, ' '
	DB	00H, 'S', 00H, 't', 00H, 'u', 00H, 'd', 00H, 'i', 00H, 'o', 00H
	DB	' ', 00H, '1', 00H, '2', 00H, '.', 00H, '0', 00H, '\', 00H, 'V'
	DB	00H, 'C', 00H, '\', 00H, 'i', 00H, 'n', 00H, 'c', 00H, 'l', 00H
	DB	'u', 00H, 'd', 00H, 'e', 00H, '\', 00H, 'a', 00H, 'l', 00H, 'g'
	DB	00H, 'o', 00H, 'r', 00H, 'i', 00H, 't', 00H, 'h', 00H, 'm', 00H
	DB	00H, 00H					; `string'
CONST	ENDS
;	COMDAT ??_C@_1PA@GGNKHFFL@?$AAs?$AAt?$AAd?$AA?3?$AA?3?$AA_?$AAV?$AAe?$AAc?$AAt?$AAo?$AAr?$AA_?$AAc?$AAo?$AAn?$AAs?$AAt?$AA_?$AAi?$AAt?$AAe?$AAr?$AAa?$AAt?$AAo?$AAr?$AA?$DM?$AAc?$AAl?$AAa?$AAs@
CONST	SEGMENT
??_C@_1PA@GGNKHFFL@?$AAs?$AAt?$AAd?$AA?3?$AA?3?$AA_?$AAV?$AAe?$AAc?$AAt?$AAo?$AAr?$AA_?$AAc?$AAo?$AAn?$AAs?$AAt?$AA_?$AAi?$AAt?$AAe?$AAr?$AAa?$AAt?$AAo?$AAr?$AA?$DM?$AAc?$AAl?$AAa?$AAs@ DB 's'
	DB	00H, 't', 00H, 'd', 00H, ':', 00H, ':', 00H, '_', 00H, 'V', 00H
	DB	'e', 00H, 'c', 00H, 't', 00H, 'o', 00H, 'r', 00H, '_', 00H, 'c'
	DB	00H, 'o', 00H, 'n', 00H, 's', 00H, 't', 00H, '_', 00H, 'i', 00H
	DB	't', 00H, 'e', 00H, 'r', 00H, 'a', 00H, 't', 00H, 'o', 00H, 'r'
	DB	00H, '<', 00H, 'c', 00H, 'l', 00H, 'a', 00H, 's', 00H, 's', 00H
	DB	' ', 00H, 's', 00H, 't', 00H, 'd', 00H, ':', 00H, ':', 00H, '_'
	DB	00H, 'V', 00H, 'e', 00H, 'c', 00H, 't', 00H, 'o', 00H, 'r', 00H
	DB	'_', 00H, 'v', 00H, 'a', 00H, 'l', 00H, '<', 00H, 's', 00H, 't'
	DB	00H, 'r', 00H, 'u', 00H, 'c', 00H, 't', 00H, ' ', 00H, 's', 00H
	DB	't', 00H, 'd', 00H, ':', 00H, ':', 00H, '_', 00H, 'S', 00H, 'i'
	DB	00H, 'm', 00H, 'p', 00H, 'l', 00H, 'e', 00H, '_', 00H, 't', 00H
	DB	'y', 00H, 'p', 00H, 'e', 00H, 's', 00H, '<', 00H, 'c', 00H, 'l'
	DB	00H, 'a', 00H, 's', 00H, 's', 00H, ' ', 00H, 'C', 00H, 'D', 00H
	DB	'3', 00H, 'D', 00H, '1', 00H, '1', 00H, 'E', 00H, 'n', 00H, 'u'
	DB	00H, 'm', 00H, 'D', 00H, 'e', 00H, 'v', 00H, 'i', 00H, 'c', 00H
	DB	'e', 00H, 'I', 00H, 'n', 00H, 'f', 00H, 'o', 00H, ' ', 00H, '*'
	DB	00H, '>', 00H, ' ', 00H, '>', 00H, ' ', 00H, '>', 00H, ':', 00H
	DB	':', 00H, '_', 00H, 'C', 00H, 'o', 00H, 'm', 00H, 'p', 00H, 'a'
	DB	00H, 't', 00H, 00H, 00H			; `string'
CONST	ENDS
;	COMDAT ??_C@_1CG@JNLFBNGN@?$AA?$CC?$AAi?$AAn?$AAv?$AAa?$AAl?$AAi?$AAd?$AA?5?$AAa?$AAr?$AAg?$AAu?$AAm?$AAe?$AAn?$AAt?$AA?$CC?$AA?$AA@
CONST	SEGMENT
??_C@_1CG@JNLFBNGN@?$AA?$CC?$AAi?$AAn?$AAv?$AAa?$AAl?$AAi?$AAd?$AA?5?$AAa?$AAr?$AAg?$AAu?$AAm?$AAe?$AAn?$AAt?$AA?$CC?$AA?$AA@ DB '"'
	DB	00H, 'i', 00H, 'n', 00H, 'v', 00H, 'a', 00H, 'l', 00H, 'i', 00H
	DB	'd', 00H, ' ', 00H, 'a', 00H, 'r', 00H, 'g', 00H, 'u', 00H, 'm'
	DB	00H, 'e', 00H, 'n', 00H, 't', 00H, '"', 00H, 00H, 00H ; `string'
CONST	ENDS
;	COMDAT ??_C@_1PC@LBNCMFIJ@?$AAs?$AAt?$AAd?$AA?3?$AA?3?$AA_?$AAV?$AAe?$AAc?$AAt?$AAo?$AAr?$AA_?$AAc?$AAo?$AAn?$AAs?$AAt?$AA_?$AAi?$AAt?$AAe?$AAr?$AAa?$AAt?$AAo?$AAr?$AA?$DM?$AAc?$AAl?$AAa?$AAs@
CONST	SEGMENT
??_C@_1PC@LBNCMFIJ@?$AAs?$AAt?$AAd?$AA?3?$AA?3?$AA_?$AAV?$AAe?$AAc?$AAt?$AAo?$AAr?$AA_?$AAc?$AAo?$AAn?$AAs?$AAt?$AA_?$AAi?$AAt?$AAe?$AAr?$AAa?$AAt?$AAo?$AAr?$AA?$DM?$AAc?$AAl?$AAa?$AAs@ DB 's'
	DB	00H, 't', 00H, 'd', 00H, ':', 00H, ':', 00H, '_', 00H, 'V', 00H
	DB	'e', 00H, 'c', 00H, 't', 00H, 'o', 00H, 'r', 00H, '_', 00H, 'c'
	DB	00H, 'o', 00H, 'n', 00H, 's', 00H, 't', 00H, '_', 00H, 'i', 00H
	DB	't', 00H, 'e', 00H, 'r', 00H, 'a', 00H, 't', 00H, 'o', 00H, 'r'
	DB	00H, '<', 00H, 'c', 00H, 'l', 00H, 'a', 00H, 's', 00H, 's', 00H
	DB	' ', 00H, 's', 00H, 't', 00H, 'd', 00H, ':', 00H, ':', 00H, '_'
	DB	00H, 'V', 00H, 'e', 00H, 'c', 00H, 't', 00H, 'o', 00H, 'r', 00H
	DB	'_', 00H, 'v', 00H, 'a', 00H, 'l', 00H, '<', 00H, 's', 00H, 't'
	DB	00H, 'r', 00H, 'u', 00H, 'c', 00H, 't', 00H, ' ', 00H, 's', 00H
	DB	't', 00H, 'd', 00H, ':', 00H, ':', 00H, '_', 00H, 'S', 00H, 'i'
	DB	00H, 'm', 00H, 'p', 00H, 'l', 00H, 'e', 00H, '_', 00H, 't', 00H
	DB	'y', 00H, 'p', 00H, 'e', 00H, 's', 00H, '<', 00H, 'c', 00H, 'l'
	DB	00H, 'a', 00H, 's', 00H, 's', 00H, ' ', 00H, 'C', 00H, 'D', 00H
	DB	'3', 00H, 'D', 00H, '1', 00H, '1', 00H, 'E', 00H, 'n', 00H, 'u'
	DB	00H, 'm', 00H, 'A', 00H, 'd', 00H, 'a', 00H, 'p', 00H, 't', 00H
	DB	'e', 00H, 'r', 00H, 'I', 00H, 'n', 00H, 'f', 00H, 'o', 00H, ' '
	DB	00H, '*', 00H, '>', 00H, ' ', 00H, '>', 00H, ' ', 00H, '>', 00H
	DB	':', 00H, ':', 00H, '_', 00H, 'C', 00H, 'o', 00H, 'm', 00H, 'p'
	DB	00H, 'a', 00H, 't', 00H, 00H, 00H		; `string'
CONST	ENDS
;	COMDAT ??_C@_1FO@GJIHNDLM@?$AA?$CC?$AAS?$AAt?$AAa?$AAn?$AAd?$AAa?$AAr?$AAd?$AA?5?$AAC?$AA?$CL?$AA?$CL?$AA?5?$AAL?$AAi?$AAb?$AAr?$AAa?$AAr?$AAi?$AAe?$AAs?$AA?5?$AAI?$AAn?$AAv?$AAa?$AAl?$AAi?$AAd?$AA?5@
CONST	SEGMENT
??_C@_1FO@GJIHNDLM@?$AA?$CC?$AAS?$AAt?$AAa?$AAn?$AAd?$AAa?$AAr?$AAd?$AA?5?$AAC?$AA?$CL?$AA?$CL?$AA?5?$AAL?$AAi?$AAb?$AAr?$AAa?$AAr?$AAi?$AAe?$AAs?$AA?5?$AAI?$AAn?$AAv?$AAa?$AAl?$AAi?$AAd?$AA?5@ DB '"'
	DB	00H, 'S', 00H, 't', 00H, 'a', 00H, 'n', 00H, 'd', 00H, 'a', 00H
	DB	'r', 00H, 'd', 00H, ' ', 00H, 'C', 00H, '+', 00H, '+', 00H, ' '
	DB	00H, 'L', 00H, 'i', 00H, 'b', 00H, 'r', 00H, 'a', 00H, 'r', 00H
	DB	'i', 00H, 'e', 00H, 's', 00H, ' ', 00H, 'I', 00H, 'n', 00H, 'v'
	DB	00H, 'a', 00H, 'l', 00H, 'i', 00H, 'd', 00H, ' ', 00H, 'A', 00H
	DB	'r', 00H, 'g', 00H, 'u', 00H, 'm', 00H, 'e', 00H, 'n', 00H, 't'
	DB	00H, '"', 00H, ' ', 00H, '&', 00H, '&', 00H, ' ', 00H, '0', 00H
	DB	00H, 00H					; `string'
CONST	ENDS
;	COMDAT ??_C@_0CI@FNPHFCCM@Standard?5C?$CL?$CL?5Libraries?5Invalid?5A@
CONST	SEGMENT
??_C@_0CI@FNPHFCCM@Standard?5C?$CL?$CL?5Libraries?5Invalid?5A@ DB 'Standa'
	DB	'rd C++ Libraries Invalid Argument', 00H	; `string'
CONST	ENDS
;	COMDAT ??_C@_1DM@HINDPMBP@?$AAv?$AAe?$AAc?$AAt?$AAo?$AAr?$AA?5?$AAi?$AAt?$AAe?$AAr?$AAa?$AAt?$AAo?$AAr?$AAs?$AA?5?$AAi?$AAn?$AAc?$AAo?$AAm?$AAp?$AAa?$AAt?$AAi?$AAb?$AAl?$AAe?$AA?$AA@
CONST	SEGMENT
??_C@_1DM@HINDPMBP@?$AAv?$AAe?$AAc?$AAt?$AAo?$AAr?$AA?5?$AAi?$AAt?$AAe?$AAr?$AAa?$AAt?$AAo?$AAr?$AAs?$AA?5?$AAi?$AAn?$AAc?$AAo?$AAm?$AAp?$AAa?$AAt?$AAi?$AAb?$AAl?$AAe?$AA?$AA@ DB 'v'
	DB	00H, 'e', 00H, 'c', 00H, 't', 00H, 'o', 00H, 'r', 00H, ' ', 00H
	DB	'i', 00H, 't', 00H, 'e', 00H, 'r', 00H, 'a', 00H, 't', 00H, 'o'
	DB	00H, 'r', 00H, 's', 00H, ' ', 00H, 'i', 00H, 'n', 00H, 'c', 00H
	DB	'o', 00H, 'm', 00H, 'p', 00H, 'a', 00H, 't', 00H, 'i', 00H, 'b'
	DB	00H, 'l', 00H, 'e', 00H, 00H, 00H		; `string'
CONST	ENDS
;	COMDAT ??_C@_0BD@OLBABOEK@vector?$DMT?$DO?5too?5long?$AA@
CONST	SEGMENT
??_C@_0BD@OLBABOEK@vector?$DMT?$DO?5too?5long?$AA@ DB 'vector<T> too long'
	DB	00H						; `string'
CONST	ENDS
;	COMDAT ??_C@_1PI@MDOJFPLG@?$AAs?$AAt?$AAd?$AA?3?$AA?3?$AA_?$AAV?$AAe?$AAc?$AAt?$AAo?$AAr?$AA_?$AAc?$AAo?$AAn?$AAs?$AAt?$AA_?$AAi?$AAt?$AAe?$AAr?$AAa?$AAt?$AAo?$AAr?$AA?$DM?$AAc?$AAl?$AAa?$AAs@
CONST	SEGMENT
??_C@_1PI@MDOJFPLG@?$AAs?$AAt?$AAd?$AA?3?$AA?3?$AA_?$AAV?$AAe?$AAc?$AAt?$AAo?$AAr?$AA_?$AAc?$AAo?$AAn?$AAs?$AAt?$AA_?$AAi?$AAt?$AAe?$AAr?$AAa?$AAt?$AAo?$AAr?$AA?$DM?$AAc?$AAl?$AAa?$AAs@ DB 's'
	DB	00H, 't', 00H, 'd', 00H, ':', 00H, ':', 00H, '_', 00H, 'V', 00H
	DB	'e', 00H, 'c', 00H, 't', 00H, 'o', 00H, 'r', 00H, '_', 00H, 'c'
	DB	00H, 'o', 00H, 'n', 00H, 's', 00H, 't', 00H, '_', 00H, 'i', 00H
	DB	't', 00H, 'e', 00H, 'r', 00H, 'a', 00H, 't', 00H, 'o', 00H, 'r'
	DB	00H, '<', 00H, 'c', 00H, 'l', 00H, 'a', 00H, 's', 00H, 's', 00H
	DB	' ', 00H, 's', 00H, 't', 00H, 'd', 00H, ':', 00H, ':', 00H, '_'
	DB	00H, 'V', 00H, 'e', 00H, 'c', 00H, 't', 00H, 'o', 00H, 'r', 00H
	DB	'_', 00H, 'v', 00H, 'a', 00H, 'l', 00H, '<', 00H, 's', 00H, 't'
	DB	00H, 'r', 00H, 'u', 00H, 'c', 00H, 't', 00H, ' ', 00H, 's', 00H
	DB	't', 00H, 'd', 00H, ':', 00H, ':', 00H, '_', 00H, 'S', 00H, 'i'
	DB	00H, 'm', 00H, 'p', 00H, 'l', 00H, 'e', 00H, '_', 00H, 't', 00H
	DB	'y', 00H, 'p', 00H, 'e', 00H, 's', 00H, '<', 00H, 'c', 00H, 'l'
	DB	00H, 'a', 00H, 's', 00H, 's', 00H, ' ', 00H, 'C', 00H, 'D', 00H
	DB	'3', 00H, 'D', 00H, '1', 00H, '1', 00H, 'E', 00H, 'n', 00H, 'u'
	DB	00H, 'm', 00H, 'D', 00H, 'e', 00H, 'v', 00H, 'i', 00H, 'c', 00H
	DB	'e', 00H, 'I', 00H, 'n', 00H, 'f', 00H, 'o', 00H, ' ', 00H, '*'
	DB	00H, '>', 00H, ' ', 00H, '>', 00H, ' ', 00H, '>', 00H, ':', 00H
	DB	':', 00H, 'o', 00H, 'p', 00H, 'e', 00H, 'r', 00H, 'a', 00H, 't'
	DB	00H, 'o', 00H, 'r', 00H, ' ', 00H, '+', 00H, '+', 00H, 00H, 00H ; `string'
CONST	ENDS
;	COMDAT ??_C@_1PG@MKGFGKMB@?$AAs?$AAt?$AAd?$AA?3?$AA?3?$AA_?$AAV?$AAe?$AAc?$AAt?$AAo?$AAr?$AA_?$AAc?$AAo?$AAn?$AAs?$AAt?$AA_?$AAi?$AAt?$AAe?$AAr?$AAa?$AAt?$AAo?$AAr?$AA?$DM?$AAc?$AAl?$AAa?$AAs@
CONST	SEGMENT
??_C@_1PG@MKGFGKMB@?$AAs?$AAt?$AAd?$AA?3?$AA?3?$AA_?$AAV?$AAe?$AAc?$AAt?$AAo?$AAr?$AA_?$AAc?$AAo?$AAn?$AAs?$AAt?$AA_?$AAi?$AAt?$AAe?$AAr?$AAa?$AAt?$AAo?$AAr?$AA?$DM?$AAc?$AAl?$AAa?$AAs@ DB 's'
	DB	00H, 't', 00H, 'd', 00H, ':', 00H, ':', 00H, '_', 00H, 'V', 00H
	DB	'e', 00H, 'c', 00H, 't', 00H, 'o', 00H, 'r', 00H, '_', 00H, 'c'
	DB	00H, 'o', 00H, 'n', 00H, 's', 00H, 't', 00H, '_', 00H, 'i', 00H
	DB	't', 00H, 'e', 00H, 'r', 00H, 'a', 00H, 't', 00H, 'o', 00H, 'r'
	DB	00H, '<', 00H, 'c', 00H, 'l', 00H, 'a', 00H, 's', 00H, 's', 00H
	DB	' ', 00H, 's', 00H, 't', 00H, 'd', 00H, ':', 00H, ':', 00H, '_'
	DB	00H, 'V', 00H, 'e', 00H, 'c', 00H, 't', 00H, 'o', 00H, 'r', 00H
	DB	'_', 00H, 'v', 00H, 'a', 00H, 'l', 00H, '<', 00H, 's', 00H, 't'
	DB	00H, 'r', 00H, 'u', 00H, 'c', 00H, 't', 00H, ' ', 00H, 's', 00H
	DB	't', 00H, 'd', 00H, ':', 00H, ':', 00H, '_', 00H, 'S', 00H, 'i'
	DB	00H, 'm', 00H, 'p', 00H, 'l', 00H, 'e', 00H, '_', 00H, 't', 00H
	DB	'y', 00H, 'p', 00H, 'e', 00H, 's', 00H, '<', 00H, 'c', 00H, 'l'
	DB	00H, 'a', 00H, 's', 00H, 's', 00H, ' ', 00H, 'C', 00H, 'D', 00H
	DB	'3', 00H, 'D', 00H, '1', 00H, '1', 00H, 'E', 00H, 'n', 00H, 'u'
	DB	00H, 'm', 00H, 'D', 00H, 'e', 00H, 'v', 00H, 'i', 00H, 'c', 00H
	DB	'e', 00H, 'I', 00H, 'n', 00H, 'f', 00H, 'o', 00H, ' ', 00H, '*'
	DB	00H, '>', 00H, ' ', 00H, '>', 00H, ' ', 00H, '>', 00H, ':', 00H
	DB	':', 00H, 'o', 00H, 'p', 00H, 'e', 00H, 'r', 00H, 'a', 00H, 't'
	DB	00H, 'o', 00H, 'r', 00H, ' ', 00H, '*', 00H, 00H, 00H ; `string'
CONST	ENDS
;	COMDAT ??_C@_1PK@HACCEAFD@?$AAs?$AAt?$AAd?$AA?3?$AA?3?$AA_?$AAV?$AAe?$AAc?$AAt?$AAo?$AAr?$AA_?$AAc?$AAo?$AAn?$AAs?$AAt?$AA_?$AAi?$AAt?$AAe?$AAr?$AAa?$AAt?$AAo?$AAr?$AA?$DM?$AAc?$AAl?$AAa?$AAs@
CONST	SEGMENT
??_C@_1PK@HACCEAFD@?$AAs?$AAt?$AAd?$AA?3?$AA?3?$AA_?$AAV?$AAe?$AAc?$AAt?$AAo?$AAr?$AA_?$AAc?$AAo?$AAn?$AAs?$AAt?$AA_?$AAi?$AAt?$AAe?$AAr?$AAa?$AAt?$AAo?$AAr?$AA?$DM?$AAc?$AAl?$AAa?$AAs@ DB 's'
	DB	00H, 't', 00H, 'd', 00H, ':', 00H, ':', 00H, '_', 00H, 'V', 00H
	DB	'e', 00H, 'c', 00H, 't', 00H, 'o', 00H, 'r', 00H, '_', 00H, 'c'
	DB	00H, 'o', 00H, 'n', 00H, 's', 00H, 't', 00H, '_', 00H, 'i', 00H
	DB	't', 00H, 'e', 00H, 'r', 00H, 'a', 00H, 't', 00H, 'o', 00H, 'r'
	DB	00H, '<', 00H, 'c', 00H, 'l', 00H, 'a', 00H, 's', 00H, 's', 00H
	DB	' ', 00H, 's', 00H, 't', 00H, 'd', 00H, ':', 00H, ':', 00H, '_'
	DB	00H, 'V', 00H, 'e', 00H, 'c', 00H, 't', 00H, 'o', 00H, 'r', 00H
	DB	'_', 00H, 'v', 00H, 'a', 00H, 'l', 00H, '<', 00H, 's', 00H, 't'
	DB	00H, 'r', 00H, 'u', 00H, 'c', 00H, 't', 00H, ' ', 00H, 's', 00H
	DB	't', 00H, 'd', 00H, ':', 00H, ':', 00H, '_', 00H, 'S', 00H, 'i'
	DB	00H, 'm', 00H, 'p', 00H, 'l', 00H, 'e', 00H, '_', 00H, 't', 00H
	DB	'y', 00H, 'p', 00H, 'e', 00H, 's', 00H, '<', 00H, 'c', 00H, 'l'
	DB	00H, 'a', 00H, 's', 00H, 's', 00H, ' ', 00H, 'C', 00H, 'D', 00H
	DB	'3', 00H, 'D', 00H, '1', 00H, '1', 00H, 'E', 00H, 'n', 00H, 'u'
	DB	00H, 'm', 00H, 'A', 00H, 'd', 00H, 'a', 00H, 'p', 00H, 't', 00H
	DB	'e', 00H, 'r', 00H, 'I', 00H, 'n', 00H, 'f', 00H, 'o', 00H, ' '
	DB	00H, '*', 00H, '>', 00H, ' ', 00H, '>', 00H, ' ', 00H, '>', 00H
	DB	':', 00H, ':', 00H, 'o', 00H, 'p', 00H, 'e', 00H, 'r', 00H, 'a'
	DB	00H, 't', 00H, 'o', 00H, 'r', 00H, ' ', 00H, '+', 00H, '+', 00H
	DB	00H, 00H					; `string'
CONST	ENDS
;	COMDAT ??_C@_1EE@EJDKCLKB@?$AAv?$AAe?$AAc?$AAt?$AAo?$AAr?$AA?5?$AAi?$AAt?$AAe?$AAr?$AAa?$AAt?$AAo?$AAr?$AA?5?$AAn?$AAo?$AAt?$AA?5?$AAi?$AAn?$AAc?$AAr?$AAe?$AAm?$AAe?$AAn?$AAt?$AAa?$AAb?$AAl@
CONST	SEGMENT
??_C@_1EE@EJDKCLKB@?$AAv?$AAe?$AAc?$AAt?$AAo?$AAr?$AA?5?$AAi?$AAt?$AAe?$AAr?$AAa?$AAt?$AAo?$AAr?$AA?5?$AAn?$AAo?$AAt?$AA?5?$AAi?$AAn?$AAc?$AAr?$AAe?$AAm?$AAe?$AAn?$AAt?$AAa?$AAb?$AAl@ DB 'v'
	DB	00H, 'e', 00H, 'c', 00H, 't', 00H, 'o', 00H, 'r', 00H, ' ', 00H
	DB	'i', 00H, 't', 00H, 'e', 00H, 'r', 00H, 'a', 00H, 't', 00H, 'o'
	DB	00H, 'r', 00H, ' ', 00H, 'n', 00H, 'o', 00H, 't', 00H, ' ', 00H
	DB	'i', 00H, 'n', 00H, 'c', 00H, 'r', 00H, 'e', 00H, 'm', 00H, 'e'
	DB	00H, 'n', 00H, 't', 00H, 'a', 00H, 'b', 00H, 'l', 00H, 'e', 00H
	DB	00H, 00H					; `string'
CONST	ENDS
;	COMDAT ??_C@_1PI@MICGNEKL@?$AAs?$AAt?$AAd?$AA?3?$AA?3?$AA_?$AAV?$AAe?$AAc?$AAt?$AAo?$AAr?$AA_?$AAc?$AAo?$AAn?$AAs?$AAt?$AA_?$AAi?$AAt?$AAe?$AAr?$AAa?$AAt?$AAo?$AAr?$AA?$DM?$AAc?$AAl?$AAa?$AAs@
CONST	SEGMENT
??_C@_1PI@MICGNEKL@?$AAs?$AAt?$AAd?$AA?3?$AA?3?$AA_?$AAV?$AAe?$AAc?$AAt?$AAo?$AAr?$AA_?$AAc?$AAo?$AAn?$AAs?$AAt?$AA_?$AAi?$AAt?$AAe?$AAr?$AAa?$AAt?$AAo?$AAr?$AA?$DM?$AAc?$AAl?$AAa?$AAs@ DB 's'
	DB	00H, 't', 00H, 'd', 00H, ':', 00H, ':', 00H, '_', 00H, 'V', 00H
	DB	'e', 00H, 'c', 00H, 't', 00H, 'o', 00H, 'r', 00H, '_', 00H, 'c'
	DB	00H, 'o', 00H, 'n', 00H, 's', 00H, 't', 00H, '_', 00H, 'i', 00H
	DB	't', 00H, 'e', 00H, 'r', 00H, 'a', 00H, 't', 00H, 'o', 00H, 'r'
	DB	00H, '<', 00H, 'c', 00H, 'l', 00H, 'a', 00H, 's', 00H, 's', 00H
	DB	' ', 00H, 's', 00H, 't', 00H, 'd', 00H, ':', 00H, ':', 00H, '_'
	DB	00H, 'V', 00H, 'e', 00H, 'c', 00H, 't', 00H, 'o', 00H, 'r', 00H
	DB	'_', 00H, 'v', 00H, 'a', 00H, 'l', 00H, '<', 00H, 's', 00H, 't'
	DB	00H, 'r', 00H, 'u', 00H, 'c', 00H, 't', 00H, ' ', 00H, 's', 00H
	DB	't', 00H, 'd', 00H, ':', 00H, ':', 00H, '_', 00H, 'S', 00H, 'i'
	DB	00H, 'm', 00H, 'p', 00H, 'l', 00H, 'e', 00H, '_', 00H, 't', 00H
	DB	'y', 00H, 'p', 00H, 'e', 00H, 's', 00H, '<', 00H, 'c', 00H, 'l'
	DB	00H, 'a', 00H, 's', 00H, 's', 00H, ' ', 00H, 'C', 00H, 'D', 00H
	DB	'3', 00H, 'D', 00H, '1', 00H, '1', 00H, 'E', 00H, 'n', 00H, 'u'
	DB	00H, 'm', 00H, 'A', 00H, 'd', 00H, 'a', 00H, 'p', 00H, 't', 00H
	DB	'e', 00H, 'r', 00H, 'I', 00H, 'n', 00H, 'f', 00H, 'o', 00H, ' '
	DB	00H, '*', 00H, '>', 00H, ' ', 00H, '>', 00H, ' ', 00H, '>', 00H
	DB	':', 00H, ':', 00H, 'o', 00H, 'p', 00H, 'e', 00H, 'r', 00H, 'a'
	DB	00H, 't', 00H, 'o', 00H, 'r', 00H, ' ', 00H, '*', 00H, 00H, 00H ; `string'
CONST	ENDS
;	COMDAT ??_C@_1EG@FOHJJHAC@?$AAv?$AAe?$AAc?$AAt?$AAo?$AAr?$AA?5?$AAi?$AAt?$AAe?$AAr?$AAa?$AAt?$AAo?$AAr?$AA?5?$AAn?$AAo?$AAt?$AA?5?$AAd?$AAe?$AAr?$AAe?$AAf?$AAe?$AAr?$AAe?$AAn?$AAc?$AAa?$AAb@
CONST	SEGMENT
??_C@_1EG@FOHJJHAC@?$AAv?$AAe?$AAc?$AAt?$AAo?$AAr?$AA?5?$AAi?$AAt?$AAe?$AAr?$AAa?$AAt?$AAo?$AAr?$AA?5?$AAn?$AAo?$AAt?$AA?5?$AAd?$AAe?$AAr?$AAe?$AAf?$AAe?$AAr?$AAe?$AAn?$AAc?$AAa?$AAb@ DB 'v'
	DB	00H, 'e', 00H, 'c', 00H, 't', 00H, 'o', 00H, 'r', 00H, ' ', 00H
	DB	'i', 00H, 't', 00H, 'e', 00H, 'r', 00H, 'a', 00H, 't', 00H, 'o'
	DB	00H, 'r', 00H, ' ', 00H, 'n', 00H, 'o', 00H, 't', 00H, ' ', 00H
	DB	'd', 00H, 'e', 00H, 'r', 00H, 'e', 00H, 'f', 00H, 'e', 00H, 'r'
	DB	00H, 'e', 00H, 'n', 00H, 'c', 00H, 'a', 00H, 'b', 00H, 'l', 00H
	DB	'e', 00H, 00H, 00H				; `string'
CONST	ENDS
;	COMDAT ??_C@_1JG@ILDNFCDK@?$AAs?$AAt?$AAd?$AA?3?$AA?3?$AAv?$AAe?$AAc?$AAt?$AAo?$AAr?$AA?$DM?$AAu?$AAn?$AAs?$AAi?$AAg?$AAn?$AAe?$AAd?$AA?5?$AAi?$AAn?$AAt?$AA?0?$AAc?$AAl?$AAa?$AAs?$AAs?$AA?5?$AAs@
CONST	SEGMENT
??_C@_1JG@ILDNFCDK@?$AAs?$AAt?$AAd?$AA?3?$AA?3?$AAv?$AAe?$AAc?$AAt?$AAo?$AAr?$AA?$DM?$AAu?$AAn?$AAs?$AAi?$AAg?$AAn?$AAe?$AAd?$AA?5?$AAi?$AAn?$AAt?$AA?0?$AAc?$AAl?$AAa?$AAs?$AAs?$AA?5?$AAs@ DB 's'
	DB	00H, 't', 00H, 'd', 00H, ':', 00H, ':', 00H, 'v', 00H, 'e', 00H
	DB	'c', 00H, 't', 00H, 'o', 00H, 'r', 00H, '<', 00H, 'u', 00H, 'n'
	DB	00H, 's', 00H, 'i', 00H, 'g', 00H, 'n', 00H, 'e', 00H, 'd', 00H
	DB	' ', 00H, 'i', 00H, 'n', 00H, 't', 00H, ',', 00H, 'c', 00H, 'l'
	DB	00H, 'a', 00H, 's', 00H, 's', 00H, ' ', 00H, 's', 00H, 't', 00H
	DB	'd', 00H, ':', 00H, ':', 00H, 'a', 00H, 'l', 00H, 'l', 00H, 'o'
	DB	00H, 'c', 00H, 'a', 00H, 't', 00H, 'o', 00H, 'r', 00H, '<', 00H
	DB	'u', 00H, 'n', 00H, 's', 00H, 'i', 00H, 'g', 00H, 'n', 00H, 'e'
	DB	00H, 'd', 00H, ' ', 00H, 'i', 00H, 'n', 00H, 't', 00H, '>', 00H
	DB	' ', 00H, '>', 00H, ':', 00H, ':', 00H, 'o', 00H, 'p', 00H, 'e'
	DB	00H, 'r', 00H, 'a', 00H, 't', 00H, 'o', 00H, 'r', 00H, ' ', 00H
	DB	'[', 00H, ']', 00H, 00H, 00H			; `string'
CONST	ENDS
;	COMDAT ??_C@_1LK@CIKAIPAF@?$AAs?$AAt?$AAd?$AA?3?$AA?3?$AAv?$AAe?$AAc?$AAt?$AAo?$AAr?$AA?$DM?$AAs?$AAt?$AAr?$AAu?$AAc?$AAt?$AA?5?$AAD?$AAX?$AAG?$AAI?$AA_?$AAM?$AAO?$AAD?$AAE?$AA_?$AAD?$AAE?$AAS@
CONST	SEGMENT
??_C@_1LK@CIKAIPAF@?$AAs?$AAt?$AAd?$AA?3?$AA?3?$AAv?$AAe?$AAc?$AAt?$AAo?$AAr?$AA?$DM?$AAs?$AAt?$AAr?$AAu?$AAc?$AAt?$AA?5?$AAD?$AAX?$AAG?$AAI?$AA_?$AAM?$AAO?$AAD?$AAE?$AA_?$AAD?$AAE?$AAS@ DB 's'
	DB	00H, 't', 00H, 'd', 00H, ':', 00H, ':', 00H, 'v', 00H, 'e', 00H
	DB	'c', 00H, 't', 00H, 'o', 00H, 'r', 00H, '<', 00H, 's', 00H, 't'
	DB	00H, 'r', 00H, 'u', 00H, 'c', 00H, 't', 00H, ' ', 00H, 'D', 00H
	DB	'X', 00H, 'G', 00H, 'I', 00H, '_', 00H, 'M', 00H, 'O', 00H, 'D'
	DB	00H, 'E', 00H, '_', 00H, 'D', 00H, 'E', 00H, 'S', 00H, 'C', 00H
	DB	',', 00H, 'c', 00H, 'l', 00H, 'a', 00H, 's', 00H, 's', 00H, ' '
	DB	00H, 's', 00H, 't', 00H, 'd', 00H, ':', 00H, ':', 00H, 'a', 00H
	DB	'l', 00H, 'l', 00H, 'o', 00H, 'c', 00H, 'a', 00H, 't', 00H, 'o'
	DB	00H, 'r', 00H, '<', 00H, 's', 00H, 't', 00H, 'r', 00H, 'u', 00H
	DB	'c', 00H, 't', 00H, ' ', 00H, 'D', 00H, 'X', 00H, 'G', 00H, 'I'
	DB	00H, '_', 00H, 'M', 00H, 'O', 00H, 'D', 00H, 'E', 00H, '_', 00H
	DB	'D', 00H, 'E', 00H, 'S', 00H, 'C', 00H, '>', 00H, ' ', 00H, '>'
	DB	00H, ':', 00H, ':', 00H, 'o', 00H, 'p', 00H, 'e', 00H, 'r', 00H
	DB	'a', 00H, 't', 00H, 'o', 00H, 'r', 00H, ' ', 00H, '[', 00H, ']'
	DB	00H, 00H, 00H				; `string'
CONST	ENDS
;	COMDAT ??_C@_1PO@FFNDBIOE@?$AAs?$AAt?$AAd?$AA?3?$AA?3?$AAv?$AAe?$AAc?$AAt?$AAo?$AAr?$AA?$DM?$AAs?$AAt?$AAr?$AAu?$AAc?$AAt?$AA?5?$AAC?$AAD?$AA3?$AAD?$AA1?$AA1?$AAE?$AAn?$AAu?$AAm?$AAD?$AAe?$AAv@
CONST	SEGMENT
??_C@_1PO@FFNDBIOE@?$AAs?$AAt?$AAd?$AA?3?$AA?3?$AAv?$AAe?$AAc?$AAt?$AAo?$AAr?$AA?$DM?$AAs?$AAt?$AAr?$AAu?$AAc?$AAt?$AA?5?$AAC?$AAD?$AA3?$AAD?$AA1?$AA1?$AAE?$AAn?$AAu?$AAm?$AAD?$AAe?$AAv@ DB 's'
	DB	00H, 't', 00H, 'd', 00H, ':', 00H, ':', 00H, 'v', 00H, 'e', 00H
	DB	'c', 00H, 't', 00H, 'o', 00H, 'r', 00H, '<', 00H, 's', 00H, 't'
	DB	00H, 'r', 00H, 'u', 00H, 'c', 00H, 't', 00H, ' ', 00H, 'C', 00H
	DB	'D', 00H, '3', 00H, 'D', 00H, '1', 00H, '1', 00H, 'E', 00H, 'n'
	DB	00H, 'u', 00H, 'm', 00H, 'D', 00H, 'e', 00H, 'v', 00H, 'i', 00H
	DB	'c', 00H, 'e', 00H, 'S', 00H, 'e', 00H, 't', 00H, 't', 00H, 'i'
	DB	00H, 'n', 00H, 'g', 00H, 's', 00H, 'C', 00H, 'o', 00H, 'm', 00H
	DB	'b', 00H, 'o', 00H, ' ', 00H, '*', 00H, ',', 00H, 'c', 00H, 'l'
	DB	00H, 'a', 00H, 's', 00H, 's', 00H, ' ', 00H, 's', 00H, 't', 00H
	DB	'd', 00H, ':', 00H, ':', 00H, 'a', 00H, 'l', 00H, 'l', 00H, 'o'
	DB	00H, 'c', 00H, 'a', 00H, 't', 00H, 'o', 00H, 'r', 00H, '<', 00H
	DB	's', 00H, 't', 00H, 'r', 00H, 'u', 00H, 'c', 00H, 't', 00H, ' '
	DB	00H, 'C', 00H, 'D', 00H, '3', 00H, 'D', 00H, '1', 00H, '1', 00H
	DB	'E', 00H, 'n', 00H, 'u', 00H, 'm', 00H, 'D', 00H, 'e', 00H, 'v'
	DB	00H, 'i', 00H, 'c', 00H, 'e', 00H, 'S', 00H, 'e', 00H, 't', 00H
	DB	't', 00H, 'i', 00H, 'n', 00H, 'g', 00H, 's', 00H, 'C', 00H, 'o'
	DB	00H, 'm', 00H, 'b', 00H, 'o', 00H, ' ', 00H, '*', 00H, '>', 00H
	DB	' ', 00H, '>', 00H, ':', 00H, ':', 00H, 'o', 00H, 'p', 00H, 'e'
	DB	00H, 'r', 00H, 'a', 00H, 't', 00H, 'o', 00H, 'r', 00H, ' ', 00H
	DB	'[', 00H, ']', 00H, 00H, 00H			; `string'
CONST	ENDS
;	COMDAT ??_C@_1NG@EIKOPBNN@?$AAs?$AAt?$AAd?$AA?3?$AA?3?$AAv?$AAe?$AAc?$AAt?$AAo?$AAr?$AA?$DM?$AAc?$AAl?$AAa?$AAs?$AAs?$AA?5?$AAC?$AAD?$AA3?$AAD?$AA1?$AA1?$AAE?$AAn?$AAu?$AAm?$AAD?$AAe?$AAv?$AAi@
CONST	SEGMENT
??_C@_1NG@EIKOPBNN@?$AAs?$AAt?$AAd?$AA?3?$AA?3?$AAv?$AAe?$AAc?$AAt?$AAo?$AAr?$AA?$DM?$AAc?$AAl?$AAa?$AAs?$AAs?$AA?5?$AAC?$AAD?$AA3?$AAD?$AA1?$AA1?$AAE?$AAn?$AAu?$AAm?$AAD?$AAe?$AAv?$AAi@ DB 's'
	DB	00H, 't', 00H, 'd', 00H, ':', 00H, ':', 00H, 'v', 00H, 'e', 00H
	DB	'c', 00H, 't', 00H, 'o', 00H, 'r', 00H, '<', 00H, 'c', 00H, 'l'
	DB	00H, 'a', 00H, 's', 00H, 's', 00H, ' ', 00H, 'C', 00H, 'D', 00H
	DB	'3', 00H, 'D', 00H, '1', 00H, '1', 00H, 'E', 00H, 'n', 00H, 'u'
	DB	00H, 'm', 00H, 'D', 00H, 'e', 00H, 'v', 00H, 'i', 00H, 'c', 00H
	DB	'e', 00H, 'I', 00H, 'n', 00H, 'f', 00H, 'o', 00H, ' ', 00H, '*'
	DB	00H, ',', 00H, 'c', 00H, 'l', 00H, 'a', 00H, 's', 00H, 's', 00H
	DB	' ', 00H, 's', 00H, 't', 00H, 'd', 00H, ':', 00H, ':', 00H, 'a'
	DB	00H, 'l', 00H, 'l', 00H, 'o', 00H, 'c', 00H, 'a', 00H, 't', 00H
	DB	'o', 00H, 'r', 00H, '<', 00H, 'c', 00H, 'l', 00H, 'a', 00H, 's'
	DB	00H, 's', 00H, ' ', 00H, 'C', 00H, 'D', 00H, '3', 00H, 'D', 00H
	DB	'1', 00H, '1', 00H, 'E', 00H, 'n', 00H, 'u', 00H, 'm', 00H, 'D'
	DB	00H, 'e', 00H, 'v', 00H, 'i', 00H, 'c', 00H, 'e', 00H, 'I', 00H
	DB	'n', 00H, 'f', 00H, 'o', 00H, ' ', 00H, '*', 00H, '>', 00H, ' '
	DB	00H, '>', 00H, ':', 00H, ':', 00H, 'o', 00H, 'p', 00H, 'e', 00H
	DB	'r', 00H, 'a', 00H, 't', 00H, 'o', 00H, 'r', 00H, ' ', 00H, '['
	DB	00H, ']', 00H, 00H, 00H			; `string'
CONST	ENDS
;	COMDAT ??_C@_1NG@BAGGOCPN@?$AAs?$AAt?$AAd?$AA?3?$AA?3?$AAv?$AAe?$AAc?$AAt?$AAo?$AAr?$AA?$DM?$AAc?$AAl?$AAa?$AAs?$AAs?$AA?5?$AAC?$AAD?$AA3?$AAD?$AA1?$AA1?$AAE?$AAn?$AAu?$AAm?$AAO?$AAu?$AAt?$AAp@
CONST	SEGMENT
??_C@_1NG@BAGGOCPN@?$AAs?$AAt?$AAd?$AA?3?$AA?3?$AAv?$AAe?$AAc?$AAt?$AAo?$AAr?$AA?$DM?$AAc?$AAl?$AAa?$AAs?$AAs?$AA?5?$AAC?$AAD?$AA3?$AAD?$AA1?$AA1?$AAE?$AAn?$AAu?$AAm?$AAO?$AAu?$AAt?$AAp@ DB 's'
	DB	00H, 't', 00H, 'd', 00H, ':', 00H, ':', 00H, 'v', 00H, 'e', 00H
	DB	'c', 00H, 't', 00H, 'o', 00H, 'r', 00H, '<', 00H, 'c', 00H, 'l'
	DB	00H, 'a', 00H, 's', 00H, 's', 00H, ' ', 00H, 'C', 00H, 'D', 00H
	DB	'3', 00H, 'D', 00H, '1', 00H, '1', 00H, 'E', 00H, 'n', 00H, 'u'
	DB	00H, 'm', 00H, 'O', 00H, 'u', 00H, 't', 00H, 'p', 00H, 'u', 00H
	DB	't', 00H, 'I', 00H, 'n', 00H, 'f', 00H, 'o', 00H, ' ', 00H, '*'
	DB	00H, ',', 00H, 'c', 00H, 'l', 00H, 'a', 00H, 's', 00H, 's', 00H
	DB	' ', 00H, 's', 00H, 't', 00H, 'd', 00H, ':', 00H, ':', 00H, 'a'
	DB	00H, 'l', 00H, 'l', 00H, 'o', 00H, 'c', 00H, 'a', 00H, 't', 00H
	DB	'o', 00H, 'r', 00H, '<', 00H, 'c', 00H, 'l', 00H, 'a', 00H, 's'
	DB	00H, 's', 00H, ' ', 00H, 'C', 00H, 'D', 00H, '3', 00H, 'D', 00H
	DB	'1', 00H, '1', 00H, 'E', 00H, 'n', 00H, 'u', 00H, 'm', 00H, 'O'
	DB	00H, 'u', 00H, 't', 00H, 'p', 00H, 'u', 00H, 't', 00H, 'I', 00H
	DB	'n', 00H, 'f', 00H, 'o', 00H, ' ', 00H, '*', 00H, '>', 00H, ' '
	DB	00H, '>', 00H, ':', 00H, ':', 00H, 'o', 00H, 'p', 00H, 'e', 00H
	DB	'r', 00H, 'a', 00H, 't', 00H, 'o', 00H, 'r', 00H, ' ', 00H, '['
	DB	00H, ']', 00H, 00H, 00H			; `string'
CONST	ENDS
;	COMDAT ??_C@_1BO@MEPPHOO@?$AA?$CC?$AAo?$AAu?$AAt?$AA?5?$AAo?$AAf?$AA?5?$AAr?$AAa?$AAn?$AAg?$AAe?$AA?$CC?$AA?$AA@
CONST	SEGMENT
??_C@_1BO@MEPPHOO@?$AA?$CC?$AAo?$AAu?$AAt?$AA?5?$AAo?$AAf?$AA?5?$AAr?$AAa?$AAn?$AAg?$AAe?$AA?$CC?$AA?$AA@ DB '"'
	DB	00H, 'o', 00H, 'u', 00H, 't', 00H, ' ', 00H, 'o', 00H, 'f', 00H
	DB	' ', 00H, 'r', 00H, 'a', 00H, 'n', 00H, 'g', 00H, 'e', 00H, '"'
	DB	00H, 00H, 00H				; `string'
CONST	ENDS
;	COMDAT ??_C@_1NK@IBJPKOBK@?$AAs?$AAt?$AAd?$AA?3?$AA?3?$AAv?$AAe?$AAc?$AAt?$AAo?$AAr?$AA?$DM?$AAc?$AAl?$AAa?$AAs?$AAs?$AA?5?$AAC?$AAD?$AA3?$AAD?$AA1?$AA1?$AAE?$AAn?$AAu?$AAm?$AAA?$AAd?$AAa?$AAp@
CONST	SEGMENT
??_C@_1NK@IBJPKOBK@?$AAs?$AAt?$AAd?$AA?3?$AA?3?$AAv?$AAe?$AAc?$AAt?$AAo?$AAr?$AA?$DM?$AAc?$AAl?$AAa?$AAs?$AAs?$AA?5?$AAC?$AAD?$AA3?$AAD?$AA1?$AA1?$AAE?$AAn?$AAu?$AAm?$AAA?$AAd?$AAa?$AAp@ DB 's'
	DB	00H, 't', 00H, 'd', 00H, ':', 00H, ':', 00H, 'v', 00H, 'e', 00H
	DB	'c', 00H, 't', 00H, 'o', 00H, 'r', 00H, '<', 00H, 'c', 00H, 'l'
	DB	00H, 'a', 00H, 's', 00H, 's', 00H, ' ', 00H, 'C', 00H, 'D', 00H
	DB	'3', 00H, 'D', 00H, '1', 00H, '1', 00H, 'E', 00H, 'n', 00H, 'u'
	DB	00H, 'm', 00H, 'A', 00H, 'd', 00H, 'a', 00H, 'p', 00H, 't', 00H
	DB	'e', 00H, 'r', 00H, 'I', 00H, 'n', 00H, 'f', 00H, 'o', 00H, ' '
	DB	00H, '*', 00H, ',', 00H, 'c', 00H, 'l', 00H, 'a', 00H, 's', 00H
	DB	's', 00H, ' ', 00H, 's', 00H, 't', 00H, 'd', 00H, ':', 00H, ':'
	DB	00H, 'a', 00H, 'l', 00H, 'l', 00H, 'o', 00H, 'c', 00H, 'a', 00H
	DB	't', 00H, 'o', 00H, 'r', 00H, '<', 00H, 'c', 00H, 'l', 00H, 'a'
	DB	00H, 's', 00H, 's', 00H, ' ', 00H, 'C', 00H, 'D', 00H, '3', 00H
	DB	'D', 00H, '1', 00H, '1', 00H, 'E', 00H, 'n', 00H, 'u', 00H, 'm'
	DB	00H, 'A', 00H, 'd', 00H, 'a', 00H, 'p', 00H, 't', 00H, 'e', 00H
	DB	'r', 00H, 'I', 00H, 'n', 00H, 'f', 00H, 'o', 00H, ' ', 00H, '*'
	DB	00H, '>', 00H, ' ', 00H, '>', 00H, ':', 00H, ':', 00H, 'o', 00H
	DB	'p', 00H, 'e', 00H, 'r', 00H, 'a', 00H, 't', 00H, 'o', 00H, 'r'
	DB	00H, ' ', 00H, '[', 00H, ']', 00H, 00H, 00H	; `string'
CONST	ENDS
;	COMDAT ??_C@_1FG@IBPIFFN@?$AA?$CC?$AAS?$AAt?$AAa?$AAn?$AAd?$AAa?$AAr?$AAd?$AA?5?$AAC?$AA?$CL?$AA?$CL?$AA?5?$AAL?$AAi?$AAb?$AAr?$AAa?$AAr?$AAi?$AAe?$AAs?$AA?5?$AAO?$AAu?$AAt?$AA?5?$AAo?$AAf?$AA?5?$AAR@
CONST	SEGMENT
??_C@_1FG@IBPIFFN@?$AA?$CC?$AAS?$AAt?$AAa?$AAn?$AAd?$AAa?$AAr?$AAd?$AA?5?$AAC?$AA?$CL?$AA?$CL?$AA?5?$AAL?$AAi?$AAb?$AAr?$AAa?$AAr?$AAi?$AAe?$AAs?$AA?5?$AAO?$AAu?$AAt?$AA?5?$AAo?$AAf?$AA?5?$AAR@ DB '"'
	DB	00H, 'S', 00H, 't', 00H, 'a', 00H, 'n', 00H, 'd', 00H, 'a', 00H
	DB	'r', 00H, 'd', 00H, ' ', 00H, 'C', 00H, '+', 00H, '+', 00H, ' '
	DB	00H, 'L', 00H, 'i', 00H, 'b', 00H, 'r', 00H, 'a', 00H, 'r', 00H
	DB	'i', 00H, 'e', 00H, 's', 00H, ' ', 00H, 'O', 00H, 'u', 00H, 't'
	DB	00H, ' ', 00H, 'o', 00H, 'f', 00H, ' ', 00H, 'R', 00H, 'a', 00H
	DB	'n', 00H, 'g', 00H, 'e', 00H, '"', 00H, ' ', 00H, '&', 00H, '&'
	DB	00H, ' ', 00H, '0', 00H, 00H, 00H		; `string'
CONST	ENDS
;	COMDAT ??_C@_0CE@OFMIGAMM@Standard?5C?$CL?$CL?5Libraries?5Out?5of?5Ra@
CONST	SEGMENT
??_C@_0CE@OFMIGAMM@Standard?5C?$CL?$CL?5Libraries?5Out?5of?5Ra@ DB 'Stand'
	DB	'ard C++ Libraries Out of Range', 00H	; `string'
CONST	ENDS
;	COMDAT ??_C@_1DM@LHGCHCBA@?$AAv?$AAe?$AAc?$AAt?$AAo?$AAr?$AA?5?$AAs?$AAu?$AAb?$AAs?$AAc?$AAr?$AAi?$AAp?$AAt?$AA?5?$AAo?$AAu?$AAt?$AA?5?$AAo?$AAf?$AA?5?$AAr?$AAa?$AAn?$AAg?$AAe?$AA?$AA@
CONST	SEGMENT
??_C@_1DM@LHGCHCBA@?$AAv?$AAe?$AAc?$AAt?$AAo?$AAr?$AA?5?$AAs?$AAu?$AAb?$AAs?$AAc?$AAr?$AAi?$AAp?$AAt?$AA?5?$AAo?$AAu?$AAt?$AA?5?$AAo?$AAf?$AA?5?$AAr?$AAa?$AAn?$AAg?$AAe?$AA?$AA@ DB 'v'
	DB	00H, 'e', 00H, 'c', 00H, 't', 00H, 'o', 00H, 'r', 00H, ' ', 00H
	DB	's', 00H, 'u', 00H, 'b', 00H, 's', 00H, 'c', 00H, 'r', 00H, 'i'
	DB	00H, 'p', 00H, 't', 00H, ' ', 00H, 'o', 00H, 'u', 00H, 't', 00H
	DB	' ', 00H, 'o', 00H, 'f', 00H, ' ', 00H, 'r', 00H, 'a', 00H, 'n'
	DB	00H, 'g', 00H, 'e', 00H, 00H, 00H		; `string'
CONST	ENDS
;	COMDAT ??_C@_1IM@EINEHPHE@?$AAC?$AA?3?$AA?2?$AAP?$AAr?$AAo?$AAg?$AAr?$AAa?$AAm?$AA?5?$AAF?$AAi?$AAl?$AAe?$AAs?$AA?5?$AA?$CI?$AAx?$AA8?$AA6?$AA?$CJ?$AA?2?$AAM?$AAi?$AAc?$AAr?$AAo?$AAs?$AAo?$AAf?$AAt@
CONST	SEGMENT
??_C@_1IM@EINEHPHE@?$AAC?$AA?3?$AA?2?$AAP?$AAr?$AAo?$AAg?$AAr?$AAa?$AAm?$AA?5?$AAF?$AAi?$AAl?$AAe?$AAs?$AA?5?$AA?$CI?$AAx?$AA8?$AA6?$AA?$CJ?$AA?2?$AAM?$AAi?$AAc?$AAr?$AAo?$AAs?$AAo?$AAf?$AAt@ DB 'C'
	DB	00H, ':', 00H, '\', 00H, 'P', 00H, 'r', 00H, 'o', 00H, 'g', 00H
	DB	'r', 00H, 'a', 00H, 'm', 00H, ' ', 00H, 'F', 00H, 'i', 00H, 'l'
	DB	00H, 'e', 00H, 's', 00H, ' ', 00H, '(', 00H, 'x', 00H, '8', 00H
	DB	'6', 00H, ')', 00H, '\', 00H, 'M', 00H, 'i', 00H, 'c', 00H, 'r'
	DB	00H, 'o', 00H, 's', 00H, 'o', 00H, 'f', 00H, 't', 00H, ' ', 00H
	DB	'V', 00H, 'i', 00H, 's', 00H, 'u', 00H, 'a', 00H, 'l', 00H, ' '
	DB	00H, 'S', 00H, 't', 00H, 'u', 00H, 'd', 00H, 'i', 00H, 'o', 00H
	DB	' ', 00H, '1', 00H, '2', 00H, '.', 00H, '0', 00H, '\', 00H, 'V'
	DB	00H, 'C', 00H, '\', 00H, 'i', 00H, 'n', 00H, 'c', 00H, 'l', 00H
	DB	'u', 00H, 'd', 00H, 'e', 00H, '\', 00H, 'v', 00H, 'e', 00H, 'c'
	DB	00H, 't', 00H, 'o', 00H, 'r', 00H, 00H, 00H	; `string'
CONST	ENDS
;	COMDAT ??_C@_1DC@POOIKBAO@?$AAI?$AAT?$AAE?$AAR?$AAA?$AAT?$AAO?$AAR?$AA?5?$AAL?$AAI?$AAS?$AAT?$AA?5?$AAC?$AAO?$AAR?$AAR?$AAU?$AAP?$AAT?$AAE?$AAD?$AA?$CB?$AA?$AA@
CONST	SEGMENT
??_C@_1DC@POOIKBAO@?$AAI?$AAT?$AAE?$AAR?$AAA?$AAT?$AAO?$AAR?$AA?5?$AAL?$AAI?$AAS?$AAT?$AA?5?$AAC?$AAO?$AAR?$AAR?$AAU?$AAP?$AAT?$AAE?$AAD?$AA?$CB?$AA?$AA@ DB 'I'
	DB	00H, 'T', 00H, 'E', 00H, 'R', 00H, 'A', 00H, 'T', 00H, 'O', 00H
	DB	'R', 00H, ' ', 00H, 'L', 00H, 'I', 00H, 'S', 00H, 'T', 00H, ' '
	DB	00H, 'C', 00H, 'O', 00H, 'R', 00H, 'R', 00H, 'U', 00H, 'P', 00H
	DB	'T', 00H, 'E', 00H, 'D', 00H, '!', 00H, 00H, 00H ; `string'
CONST	ENDS
;	COMDAT ??_C@_1JA@EADLBAJ@?$AAC?$AA?3?$AA?2?$AAP?$AAr?$AAo?$AAg?$AAr?$AAa?$AAm?$AA?5?$AAF?$AAi?$AAl?$AAe?$AAs?$AA?5?$AA?$CI?$AAx?$AA8?$AA6?$AA?$CJ?$AA?2?$AAM?$AAi?$AAc?$AAr?$AAo?$AAs?$AAo?$AAf?$AAt@
CONST	SEGMENT
??_C@_1JA@EADLBAJ@?$AAC?$AA?3?$AA?2?$AAP?$AAr?$AAo?$AAg?$AAr?$AAa?$AAm?$AA?5?$AAF?$AAi?$AAl?$AAe?$AAs?$AA?5?$AA?$CI?$AAx?$AA8?$AA6?$AA?$CJ?$AA?2?$AAM?$AAi?$AAc?$AAr?$AAo?$AAs?$AAo?$AAf?$AAt@ DB 'C'
	DB	00H, ':', 00H, '\', 00H, 'P', 00H, 'r', 00H, 'o', 00H, 'g', 00H
	DB	'r', 00H, 'a', 00H, 'm', 00H, ' ', 00H, 'F', 00H, 'i', 00H, 'l'
	DB	00H, 'e', 00H, 's', 00H, ' ', 00H, '(', 00H, 'x', 00H, '8', 00H
	DB	'6', 00H, ')', 00H, '\', 00H, 'M', 00H, 'i', 00H, 'c', 00H, 'r'
	DB	00H, 'o', 00H, 's', 00H, 'o', 00H, 'f', 00H, 't', 00H, ' ', 00H
	DB	'V', 00H, 'i', 00H, 's', 00H, 'u', 00H, 'a', 00H, 'l', 00H, ' '
	DB	00H, 'S', 00H, 't', 00H, 'u', 00H, 'd', 00H, 'i', 00H, 'o', 00H
	DB	' ', 00H, '1', 00H, '2', 00H, '.', 00H, '0', 00H, '\', 00H, 'V'
	DB	00H, 'C', 00H, '\', 00H, 'i', 00H, 'n', 00H, 'c', 00H, 'l', 00H
	DB	'u', 00H, 'd', 00H, 'e', 00H, '\', 00H, 'x', 00H, 'u', 00H, 't'
	DB	00H, 'i', 00H, 'l', 00H, 'i', 00H, 't', 00H, 'y', 00H, 00H, 00H ; `string'
CONST	ENDS
;	COMDAT ??_C@_15GANGMFKL@?$AA?$CF?$AAs?$AA?$AA@
CONST	SEGMENT
??_C@_15GANGMFKL@?$AA?$CF?$AAs?$AA?$AA@ DB '%', 00H, 's', 00H, 00H, 00H ; `string'
CONST	ENDS
;	COMDAT xdata$x
xdata$x	SEGMENT
__unwindtable$??$construct@UDXGI_MODE_DESC@@U1@@?$allocator@UDXGI_MODE_DESC@@@std@@QAEXPAUDXGI_MODE_DESC@@$$QAU2@@Z DD 0ffffffffH
	DD	FLAT:__unwindfunclet$??$construct@UDXGI_MODE_DESC@@U1@@?$allocator@UDXGI_MODE_DESC@@@std@@QAEXPAUDXGI_MODE_DESC@@$$QAU2@@Z$0
__ehfuncinfo$??$construct@UDXGI_MODE_DESC@@U1@@?$allocator@UDXGI_MODE_DESC@@@std@@QAEXPAUDXGI_MODE_DESC@@$$QAU2@@Z DD 019930522H
	DD	01H
	DD	FLAT:__unwindtable$??$construct@UDXGI_MODE_DESC@@U1@@?$allocator@UDXGI_MODE_DESC@@@std@@QAEXPAUDXGI_MODE_DESC@@$$QAU2@@Z
	DD	2 DUP(00H)
	DD	2 DUP(00H)
	DD	00H
	DD	01H
xdata$x	ENDS
;	COMDAT xdata$x
xdata$x	SEGMENT
__catchsym$??$_Uninit_move@PAUDXGI_MODE_DESC@@PAU1@V?$allocator@UDXGI_MODE_DESC@@@std@@U1@@std@@YAPAUDXGI_MODE_DESC@@PAU1@00AAU?$_Wrap_alloc@V?$allocator@UDXGI_MODE_DESC@@@std@@@0@0U_Nonscalar_ptr_iterator_tag@0@@Z$2 DD 040H
	DD	00H
	DD	00H
	DD	FLAT:__catch$??$_Uninit_move@PAUDXGI_MODE_DESC@@PAU1@V?$allocator@UDXGI_MODE_DESC@@@std@@U1@@std@@YAPAUDXGI_MODE_DESC@@PAU1@00AAU?$_Wrap_alloc@V?$allocator@UDXGI_MODE_DESC@@@std@@@0@0U_Nonscalar_ptr_iterator_tag@0@@Z$0
__unwindtable$??$_Uninit_move@PAUDXGI_MODE_DESC@@PAU1@V?$allocator@UDXGI_MODE_DESC@@@std@@U1@@std@@YAPAUDXGI_MODE_DESC@@PAU1@00AAU?$_Wrap_alloc@V?$allocator@UDXGI_MODE_DESC@@@std@@@0@0U_Nonscalar_ptr_iterator_tag@0@@Z DD 0ffffffffH
	DD	00H
	DD	0ffffffffH
	DD	00H
__tryblocktable$??$_Uninit_move@PAUDXGI_MODE_DESC@@PAU1@V?$allocator@UDXGI_MODE_DESC@@@std@@U1@@std@@YAPAUDXGI_MODE_DESC@@PAU1@00AAU?$_Wrap_alloc@V?$allocator@UDXGI_MODE_DESC@@@std@@@0@0U_Nonscalar_ptr_iterator_tag@0@@Z DD 00H
	DD	00H
	DD	01H
	DD	01H
	DD	FLAT:__catchsym$??$_Uninit_move@PAUDXGI_MODE_DESC@@PAU1@V?$allocator@UDXGI_MODE_DESC@@@std@@U1@@std@@YAPAUDXGI_MODE_DESC@@PAU1@00AAU?$_Wrap_alloc@V?$allocator@UDXGI_MODE_DESC@@@std@@@0@0U_Nonscalar_ptr_iterator_tag@0@@Z$2
__ehfuncinfo$??$_Uninit_move@PAUDXGI_MODE_DESC@@PAU1@V?$allocator@UDXGI_MODE_DESC@@@std@@U1@@std@@YAPAUDXGI_MODE_DESC@@PAU1@00AAU?$_Wrap_alloc@V?$allocator@UDXGI_MODE_DESC@@@std@@@0@0U_Nonscalar_ptr_iterator_tag@0@@Z DD 019930522H
	DD	02H
	DD	FLAT:__unwindtable$??$_Uninit_move@PAUDXGI_MODE_DESC@@PAU1@V?$allocator@UDXGI_MODE_DESC@@@std@@U1@@std@@YAPAUDXGI_MODE_DESC@@PAU1@00AAU?$_Wrap_alloc@V?$allocator@UDXGI_MODE_DESC@@@std@@@0@0U_Nonscalar_ptr_iterator_tag@0@@Z
	DD	01H
	DD	FLAT:__tryblocktable$??$_Uninit_move@PAUDXGI_MODE_DESC@@PAU1@V?$allocator@UDXGI_MODE_DESC@@@std@@U1@@std@@YAPAUDXGI_MODE_DESC@@PAU1@00AAU?$_Wrap_alloc@V?$allocator@UDXGI_MODE_DESC@@@std@@@0@0U_Nonscalar_ptr_iterator_tag@0@@Z
	DD	2 DUP(00H)
	DD	00H
	DD	01H
xdata$x	ENDS
;	COMDAT xdata$x
xdata$x	SEGMENT
__unwindtable$??$construct@IAAI@?$allocator@I@std@@QAEXPAIAAI@Z DD 0ffffffffH
	DD	FLAT:__unwindfunclet$??$construct@IAAI@?$allocator@I@std@@QAEXPAIAAI@Z$0
__ehfuncinfo$??$construct@IAAI@?$allocator@I@std@@QAEXPAIAAI@Z DD 019930522H
	DD	01H
	DD	FLAT:__unwindtable$??$construct@IAAI@?$allocator@I@std@@QAEXPAIAAI@Z
	DD	2 DUP(00H)
	DD	2 DUP(00H)
	DD	00H
	DD	01H
xdata$x	ENDS
;	COMDAT xdata$x
xdata$x	SEGMENT
__unwindtable$??$construct@UDXGI_MODE_DESC@@AAU1@@?$allocator@UDXGI_MODE_DESC@@@std@@QAEXPAUDXGI_MODE_DESC@@AAU2@@Z DD 0ffffffffH
	DD	FLAT:__unwindfunclet$??$construct@UDXGI_MODE_DESC@@AAU1@@?$allocator@UDXGI_MODE_DESC@@@std@@QAEXPAUDXGI_MODE_DESC@@AAU2@@Z$0
__ehfuncinfo$??$construct@UDXGI_MODE_DESC@@AAU1@@?$allocator@UDXGI_MODE_DESC@@@std@@QAEXPAUDXGI_MODE_DESC@@AAU2@@Z DD 019930522H
	DD	01H
	DD	FLAT:__unwindtable$??$construct@UDXGI_MODE_DESC@@AAU1@@?$allocator@UDXGI_MODE_DESC@@@std@@QAEXPAUDXGI_MODE_DESC@@AAU2@@Z
	DD	2 DUP(00H)
	DD	2 DUP(00H)
	DD	00H
	DD	01H
xdata$x	ENDS
;	COMDAT xdata$x
xdata$x	SEGMENT
__unwindtable$??$construct@PAUCD3D11EnumDeviceSettingsCombo@@AAPAU1@@?$allocator@PAUCD3D11EnumDeviceSettingsCombo@@@std@@QAEXPAPAUCD3D11EnumDeviceSettingsCombo@@AAPAU2@@Z DD 0ffffffffH
	DD	FLAT:__unwindfunclet$??$construct@PAUCD3D11EnumDeviceSettingsCombo@@AAPAU1@@?$allocator@PAUCD3D11EnumDeviceSettingsCombo@@@std@@QAEXPAPAUCD3D11EnumDeviceSettingsCombo@@AAPAU2@@Z$0
__ehfuncinfo$??$construct@PAUCD3D11EnumDeviceSettingsCombo@@AAPAU1@@?$allocator@PAUCD3D11EnumDeviceSettingsCombo@@@std@@QAEXPAPAUCD3D11EnumDeviceSettingsCombo@@AAPAU2@@Z DD 019930522H
	DD	01H
	DD	FLAT:__unwindtable$??$construct@PAUCD3D11EnumDeviceSettingsCombo@@AAPAU1@@?$allocator@PAUCD3D11EnumDeviceSettingsCombo@@@std@@QAEXPAPAUCD3D11EnumDeviceSettingsCombo@@AAPAU2@@Z
	DD	2 DUP(00H)
	DD	2 DUP(00H)
	DD	00H
	DD	01H
xdata$x	ENDS
;	COMDAT xdata$x
xdata$x	SEGMENT
__unwindtable$??$construct@PAVCD3D11EnumDeviceInfo@@AAPAV1@@?$allocator@PAVCD3D11EnumDeviceInfo@@@std@@QAEXPAPAVCD3D11EnumDeviceInfo@@AAPAV2@@Z DD 0ffffffffH
	DD	FLAT:__unwindfunclet$??$construct@PAVCD3D11EnumDeviceInfo@@AAPAV1@@?$allocator@PAVCD3D11EnumDeviceInfo@@@std@@QAEXPAPAVCD3D11EnumDeviceInfo@@AAPAV2@@Z$0
__ehfuncinfo$??$construct@PAVCD3D11EnumDeviceInfo@@AAPAV1@@?$allocator@PAVCD3D11EnumDeviceInfo@@@std@@QAEXPAPAVCD3D11EnumDeviceInfo@@AAPAV2@@Z DD 019930522H
	DD	01H
	DD	FLAT:__unwindtable$??$construct@PAVCD3D11EnumDeviceInfo@@AAPAV1@@?$allocator@PAVCD3D11EnumDeviceInfo@@@std@@QAEXPAPAVCD3D11EnumDeviceInfo@@AAPAV2@@Z
	DD	2 DUP(00H)
	DD	2 DUP(00H)
	DD	00H
	DD	01H
xdata$x	ENDS
;	COMDAT xdata$x
xdata$x	SEGMENT
__unwindtable$??$construct@PAVCD3D11EnumOutputInfo@@AAPAV1@@?$allocator@PAVCD3D11EnumOutputInfo@@@std@@QAEXPAPAVCD3D11EnumOutputInfo@@AAPAV2@@Z DD 0ffffffffH
	DD	FLAT:__unwindfunclet$??$construct@PAVCD3D11EnumOutputInfo@@AAPAV1@@?$allocator@PAVCD3D11EnumOutputInfo@@@std@@QAEXPAPAVCD3D11EnumOutputInfo@@AAPAV2@@Z$0
__ehfuncinfo$??$construct@PAVCD3D11EnumOutputInfo@@AAPAV1@@?$allocator@PAVCD3D11EnumOutputInfo@@@std@@QAEXPAPAVCD3D11EnumOutputInfo@@AAPAV2@@Z DD 019930522H
	DD	01H
	DD	FLAT:__unwindtable$??$construct@PAVCD3D11EnumOutputInfo@@AAPAV1@@?$allocator@PAVCD3D11EnumOutputInfo@@@std@@QAEXPAPAVCD3D11EnumOutputInfo@@AAPAV2@@Z
	DD	2 DUP(00H)
	DD	2 DUP(00H)
	DD	00H
	DD	01H
xdata$x	ENDS
;	COMDAT xdata$x
xdata$x	SEGMENT
__unwindtable$??$construct@PAVCD3D11EnumAdapterInfo@@AAPAV1@@?$allocator@PAVCD3D11EnumAdapterInfo@@@std@@QAEXPAPAVCD3D11EnumAdapterInfo@@AAPAV2@@Z DD 0ffffffffH
	DD	FLAT:__unwindfunclet$??$construct@PAVCD3D11EnumAdapterInfo@@AAPAV1@@?$allocator@PAVCD3D11EnumAdapterInfo@@@std@@QAEXPAPAVCD3D11EnumAdapterInfo@@AAPAV2@@Z$0
__ehfuncinfo$??$construct@PAVCD3D11EnumAdapterInfo@@AAPAV1@@?$allocator@PAVCD3D11EnumAdapterInfo@@@std@@QAEXPAPAVCD3D11EnumAdapterInfo@@AAPAV2@@Z DD 019930522H
	DD	01H
	DD	FLAT:__unwindtable$??$construct@PAVCD3D11EnumAdapterInfo@@AAPAV1@@?$allocator@PAVCD3D11EnumAdapterInfo@@@std@@QAEXPAPAVCD3D11EnumAdapterInfo@@AAPAV2@@Z
	DD	2 DUP(00H)
	DD	2 DUP(00H)
	DD	00H
	DD	01H
xdata$x	ENDS
;	COMDAT xdata$x
xdata$x	SEGMENT
__unwindtable$??$construct@W4DXGI_FORMAT@@W41@@?$allocator@W4DXGI_FORMAT@@@std@@QAEXPAW4DXGI_FORMAT@@$$QAW42@@Z DD 0ffffffffH
	DD	FLAT:__unwindfunclet$??$construct@W4DXGI_FORMAT@@W41@@?$allocator@W4DXGI_FORMAT@@@std@@QAEXPAW4DXGI_FORMAT@@$$QAW42@@Z$0
__ehfuncinfo$??$construct@W4DXGI_FORMAT@@W41@@?$allocator@W4DXGI_FORMAT@@@std@@QAEXPAW4DXGI_FORMAT@@$$QAW42@@Z DD 019930522H
	DD	01H
	DD	FLAT:__unwindtable$??$construct@W4DXGI_FORMAT@@W41@@?$allocator@W4DXGI_FORMAT@@@std@@QAEXPAW4DXGI_FORMAT@@$$QAW42@@Z
	DD	2 DUP(00H)
	DD	2 DUP(00H)
	DD	00H
	DD	01H
xdata$x	ENDS
;	COMDAT xdata$x
xdata$x	SEGMENT
__unwindtable$??0?$_Vector_const_iterator@V?$_Vector_val@U?$_Simple_types@PAVCD3D11EnumDeviceInfo@@@std@@@std@@@std@@QAE@PAPAVCD3D11EnumDeviceInfo@@PBU_Container_base12@1@@Z DD 0ffffffffH
	DD	FLAT:__unwindfunclet$??0?$_Vector_const_iterator@V?$_Vector_val@U?$_Simple_types@PAVCD3D11EnumDeviceInfo@@@std@@@std@@@std@@QAE@PAPAVCD3D11EnumDeviceInfo@@PBU_Container_base12@1@@Z$0
__ehfuncinfo$??0?$_Vector_const_iterator@V?$_Vector_val@U?$_Simple_types@PAVCD3D11EnumDeviceInfo@@@std@@@std@@@std@@QAE@PAPAVCD3D11EnumDeviceInfo@@PBU_Container_base12@1@@Z DD 019930522H
	DD	01H
	DD	FLAT:__unwindtable$??0?$_Vector_const_iterator@V?$_Vector_val@U?$_Simple_types@PAVCD3D11EnumDeviceInfo@@@std@@@std@@@std@@QAE@PAPAVCD3D11EnumDeviceInfo@@PBU_Container_base12@1@@Z
	DD	2 DUP(00H)
	DD	2 DUP(00H)
	DD	00H
	DD	01H
xdata$x	ENDS
;	COMDAT xdata$x
xdata$x	SEGMENT
__unwindtable$??0?$_Vector_const_iterator@V?$_Vector_val@U?$_Simple_types@PAVCD3D11EnumAdapterInfo@@@std@@@std@@@std@@QAE@PAPAVCD3D11EnumAdapterInfo@@PBU_Container_base12@1@@Z DD 0ffffffffH
	DD	FLAT:__unwindfunclet$??0?$_Vector_const_iterator@V?$_Vector_val@U?$_Simple_types@PAVCD3D11EnumAdapterInfo@@@std@@@std@@@std@@QAE@PAPAVCD3D11EnumAdapterInfo@@PBU_Container_base12@1@@Z$0
__ehfuncinfo$??0?$_Vector_const_iterator@V?$_Vector_val@U?$_Simple_types@PAVCD3D11EnumAdapterInfo@@@std@@@std@@@std@@QAE@PAPAVCD3D11EnumAdapterInfo@@PBU_Container_base12@1@@Z DD 019930522H
	DD	01H
	DD	FLAT:__unwindtable$??0?$_Vector_const_iterator@V?$_Vector_val@U?$_Simple_types@PAVCD3D11EnumAdapterInfo@@@std@@@std@@@std@@QAE@PAPAVCD3D11EnumAdapterInfo@@PBU_Container_base12@1@@Z
	DD	2 DUP(00H)
	DD	2 DUP(00H)
	DD	00H
	DD	01H
xdata$x	ENDS
;	COMDAT xdata$x
xdata$x	SEGMENT
__unwindtable$??$construct@U_Container_proxy@std@@U12@@?$allocator@U_Container_proxy@std@@@std@@QAEXPAU_Container_proxy@1@$$QAU21@@Z DD 0ffffffffH
	DD	FLAT:__unwindfunclet$??$construct@U_Container_proxy@std@@U12@@?$allocator@U_Container_proxy@std@@@std@@QAEXPAU_Container_proxy@1@$$QAU21@@Z$0
__ehfuncinfo$??$construct@U_Container_proxy@std@@U12@@?$allocator@U_Container_proxy@std@@@std@@QAEXPAU_Container_proxy@1@$$QAU21@@Z DD 019930522H
	DD	01H
	DD	FLAT:__unwindtable$??$construct@U_Container_proxy@std@@U12@@?$allocator@U_Container_proxy@std@@@std@@QAEXPAU_Container_proxy@1@$$QAU21@@Z
	DD	2 DUP(00H)
	DD	2 DUP(00H)
	DD	00H
	DD	01H
xdata$x	ENDS
;	COMDAT xdata$x
xdata$x	SEGMENT
__unwindtable$??0CD3D11EnumDeviceSettingsCombo@@QAE@XZ DD 0ffffffffH
	DD	FLAT:__unwindfunclet$??0CD3D11EnumDeviceSettingsCombo@@QAE@XZ$0
__ehfuncinfo$??0CD3D11EnumDeviceSettingsCombo@@QAE@XZ DD 019930522H
	DD	01H
	DD	FLAT:__unwindtable$??0CD3D11EnumDeviceSettingsCombo@@QAE@XZ
	DD	2 DUP(00H)
	DD	2 DUP(00H)
	DD	00H
	DD	01H
xdata$x	ENDS
;	COMDAT xdata$x
xdata$x	SEGMENT
__unwindtable$?_Orphan_range@?$vector@IV?$allocator@I@std@@@std@@IBEXPAI0@Z DD 0ffffffffH
	DD	FLAT:__unwindfunclet$?_Orphan_range@?$vector@IV?$allocator@I@std@@@std@@IBEXPAI0@Z$0
__ehfuncinfo$?_Orphan_range@?$vector@IV?$allocator@I@std@@@std@@IBEXPAI0@Z DD 019930522H
	DD	01H
	DD	FLAT:__unwindtable$?_Orphan_range@?$vector@IV?$allocator@I@std@@@std@@IBEXPAI0@Z
	DD	2 DUP(00H)
	DD	2 DUP(00H)
	DD	00H
	DD	01H
xdata$x	ENDS
;	COMDAT xdata$x
xdata$x	SEGMENT
__catchsym$?_Reallocate@?$vector@IV?$allocator@I@std@@@std@@IAEXI@Z$2 DD 040H
	DD	00H
	DD	00H
	DD	FLAT:__catch$?_Reallocate@?$vector@IV?$allocator@I@std@@@std@@IAEXI@Z$0
__unwindtable$?_Reallocate@?$vector@IV?$allocator@I@std@@@std@@IAEXI@Z DD 0ffffffffH
	DD	00H
	DD	0ffffffffH
	DD	00H
__tryblocktable$?_Reallocate@?$vector@IV?$allocator@I@std@@@std@@IAEXI@Z DD 00H
	DD	00H
	DD	01H
	DD	01H
	DD	FLAT:__catchsym$?_Reallocate@?$vector@IV?$allocator@I@std@@@std@@IAEXI@Z$2
__ehfuncinfo$?_Reallocate@?$vector@IV?$allocator@I@std@@@std@@IAEXI@Z DD 019930522H
	DD	02H
	DD	FLAT:__unwindtable$?_Reallocate@?$vector@IV?$allocator@I@std@@@std@@IAEXI@Z
	DD	01H
	DD	FLAT:__tryblocktable$?_Reallocate@?$vector@IV?$allocator@I@std@@@std@@IAEXI@Z
	DD	2 DUP(00H)
	DD	00H
	DD	01H
xdata$x	ENDS
;	COMDAT xdata$x
xdata$x	SEGMENT
__unwindtable$??0?$_Vector_alloc@$0A@U?$_Vec_base_types@IV?$allocator@I@std@@@std@@@std@@QAE@ABV?$allocator@I@1@@Z DD 0ffffffffH
	DD	FLAT:__unwindfunclet$??0?$_Vector_alloc@$0A@U?$_Vec_base_types@IV?$allocator@I@std@@@std@@@std@@QAE@ABV?$allocator@I@1@@Z$0
__ehfuncinfo$??0?$_Vector_alloc@$0A@U?$_Vec_base_types@IV?$allocator@I@std@@@std@@@std@@QAE@ABV?$allocator@I@1@@Z DD 019930522H
	DD	01H
	DD	FLAT:__unwindtable$??0?$_Vector_alloc@$0A@U?$_Vec_base_types@IV?$allocator@I@std@@@std@@@std@@QAE@ABV?$allocator@I@1@@Z
	DD	2 DUP(00H)
	DD	2 DUP(00H)
	DD	00H
	DD	01H
xdata$x	ENDS
;	COMDAT xdata$x
xdata$x	SEGMENT
__unwindtable$?_Orphan_range@?$vector@UDXGI_MODE_DESC@@V?$allocator@UDXGI_MODE_DESC@@@std@@@std@@IBEXPAUDXGI_MODE_DESC@@0@Z DD 0ffffffffH
	DD	FLAT:__unwindfunclet$?_Orphan_range@?$vector@UDXGI_MODE_DESC@@V?$allocator@UDXGI_MODE_DESC@@@std@@@std@@IBEXPAUDXGI_MODE_DESC@@0@Z$0
__ehfuncinfo$?_Orphan_range@?$vector@UDXGI_MODE_DESC@@V?$allocator@UDXGI_MODE_DESC@@@std@@@std@@IBEXPAUDXGI_MODE_DESC@@0@Z DD 019930522H
	DD	01H
	DD	FLAT:__unwindtable$?_Orphan_range@?$vector@UDXGI_MODE_DESC@@V?$allocator@UDXGI_MODE_DESC@@@std@@@std@@IBEXPAUDXGI_MODE_DESC@@0@Z
	DD	2 DUP(00H)
	DD	2 DUP(00H)
	DD	00H
	DD	01H
xdata$x	ENDS
;	COMDAT xdata$x
xdata$x	SEGMENT
__catchsym$?_Reallocate@?$vector@UDXGI_MODE_DESC@@V?$allocator@UDXGI_MODE_DESC@@@std@@@std@@IAEXI@Z$2 DD 040H
	DD	00H
	DD	00H
	DD	FLAT:__catch$?_Reallocate@?$vector@UDXGI_MODE_DESC@@V?$allocator@UDXGI_MODE_DESC@@@std@@@std@@IAEXI@Z$0
__unwindtable$?_Reallocate@?$vector@UDXGI_MODE_DESC@@V?$allocator@UDXGI_MODE_DESC@@@std@@@std@@IAEXI@Z DD 0ffffffffH
	DD	00H
	DD	0ffffffffH
	DD	00H
__tryblocktable$?_Reallocate@?$vector@UDXGI_MODE_DESC@@V?$allocator@UDXGI_MODE_DESC@@@std@@@std@@IAEXI@Z DD 00H
	DD	00H
	DD	01H
	DD	01H
	DD	FLAT:__catchsym$?_Reallocate@?$vector@UDXGI_MODE_DESC@@V?$allocator@UDXGI_MODE_DESC@@@std@@@std@@IAEXI@Z$2
__ehfuncinfo$?_Reallocate@?$vector@UDXGI_MODE_DESC@@V?$allocator@UDXGI_MODE_DESC@@@std@@@std@@IAEXI@Z DD 019930522H
	DD	02H
	DD	FLAT:__unwindtable$?_Reallocate@?$vector@UDXGI_MODE_DESC@@V?$allocator@UDXGI_MODE_DESC@@@std@@@std@@IAEXI@Z
	DD	01H
	DD	FLAT:__tryblocktable$?_Reallocate@?$vector@UDXGI_MODE_DESC@@V?$allocator@UDXGI_MODE_DESC@@@std@@@std@@IAEXI@Z
	DD	2 DUP(00H)
	DD	00H
	DD	01H
xdata$x	ENDS
;	COMDAT xdata$x
xdata$x	SEGMENT
__unwindtable$??0?$_Vector_alloc@$0A@U?$_Vec_base_types@UDXGI_MODE_DESC@@V?$allocator@UDXGI_MODE_DESC@@@std@@@std@@@std@@QAE@ABV?$allocator@UDXGI_MODE_DESC@@@1@@Z DD 0ffffffffH
	DD	FLAT:__unwindfunclet$??0?$_Vector_alloc@$0A@U?$_Vec_base_types@UDXGI_MODE_DESC@@V?$allocator@UDXGI_MODE_DESC@@@std@@@std@@@std@@QAE@ABV?$allocator@UDXGI_MODE_DESC@@@1@@Z$0
__ehfuncinfo$??0?$_Vector_alloc@$0A@U?$_Vec_base_types@UDXGI_MODE_DESC@@V?$allocator@UDXGI_MODE_DESC@@@std@@@std@@@std@@QAE@ABV?$allocator@UDXGI_MODE_DESC@@@1@@Z DD 019930522H
	DD	01H
	DD	FLAT:__unwindtable$??0?$_Vector_alloc@$0A@U?$_Vec_base_types@UDXGI_MODE_DESC@@V?$allocator@UDXGI_MODE_DESC@@@std@@@std@@@std@@QAE@ABV?$allocator@UDXGI_MODE_DESC@@@1@@Z
	DD	2 DUP(00H)
	DD	2 DUP(00H)
	DD	00H
	DD	01H
xdata$x	ENDS
;	COMDAT xdata$x
xdata$x	SEGMENT
__unwindtable$?_Orphan_range@?$vector@PAUCD3D11EnumDeviceSettingsCombo@@V?$allocator@PAUCD3D11EnumDeviceSettingsCombo@@@std@@@std@@IBEXPAPAUCD3D11EnumDeviceSettingsCombo@@0@Z DD 0ffffffffH
	DD	FLAT:__unwindfunclet$?_Orphan_range@?$vector@PAUCD3D11EnumDeviceSettingsCombo@@V?$allocator@PAUCD3D11EnumDeviceSettingsCombo@@@std@@@std@@IBEXPAPAUCD3D11EnumDeviceSettingsCombo@@0@Z$0
__ehfuncinfo$?_Orphan_range@?$vector@PAUCD3D11EnumDeviceSettingsCombo@@V?$allocator@PAUCD3D11EnumDeviceSettingsCombo@@@std@@@std@@IBEXPAPAUCD3D11EnumDeviceSettingsCombo@@0@Z DD 019930522H
	DD	01H
	DD	FLAT:__unwindtable$?_Orphan_range@?$vector@PAUCD3D11EnumDeviceSettingsCombo@@V?$allocator@PAUCD3D11EnumDeviceSettingsCombo@@@std@@@std@@IBEXPAPAUCD3D11EnumDeviceSettingsCombo@@0@Z
	DD	2 DUP(00H)
	DD	2 DUP(00H)
	DD	00H
	DD	01H
xdata$x	ENDS
;	COMDAT xdata$x
xdata$x	SEGMENT
__catchsym$?_Reallocate@?$vector@PAUCD3D11EnumDeviceSettingsCombo@@V?$allocator@PAUCD3D11EnumDeviceSettingsCombo@@@std@@@std@@IAEXI@Z$2 DD 040H
	DD	00H
	DD	00H
	DD	FLAT:__catch$?_Reallocate@?$vector@PAUCD3D11EnumDeviceSettingsCombo@@V?$allocator@PAUCD3D11EnumDeviceSettingsCombo@@@std@@@std@@IAEXI@Z$0
__unwindtable$?_Reallocate@?$vector@PAUCD3D11EnumDeviceSettingsCombo@@V?$allocator@PAUCD3D11EnumDeviceSettingsCombo@@@std@@@std@@IAEXI@Z DD 0ffffffffH
	DD	00H
	DD	0ffffffffH
	DD	00H
__tryblocktable$?_Reallocate@?$vector@PAUCD3D11EnumDeviceSettingsCombo@@V?$allocator@PAUCD3D11EnumDeviceSettingsCombo@@@std@@@std@@IAEXI@Z DD 00H
	DD	00H
	DD	01H
	DD	01H
	DD	FLAT:__catchsym$?_Reallocate@?$vector@PAUCD3D11EnumDeviceSettingsCombo@@V?$allocator@PAUCD3D11EnumDeviceSettingsCombo@@@std@@@std@@IAEXI@Z$2
__ehfuncinfo$?_Reallocate@?$vector@PAUCD3D11EnumDeviceSettingsCombo@@V?$allocator@PAUCD3D11EnumDeviceSettingsCombo@@@std@@@std@@IAEXI@Z DD 019930522H
	DD	02H
	DD	FLAT:__unwindtable$?_Reallocate@?$vector@PAUCD3D11EnumDeviceSettingsCombo@@V?$allocator@PAUCD3D11EnumDeviceSettingsCombo@@@std@@@std@@IAEXI@Z
	DD	01H
	DD	FLAT:__tryblocktable$?_Reallocate@?$vector@PAUCD3D11EnumDeviceSettingsCombo@@V?$allocator@PAUCD3D11EnumDeviceSettingsCombo@@@std@@@std@@IAEXI@Z
	DD	2 DUP(00H)
	DD	00H
	DD	01H
xdata$x	ENDS
;	COMDAT xdata$x
xdata$x	SEGMENT
__unwindtable$??0?$_Vector_alloc@$0A@U?$_Vec_base_types@PAUCD3D11EnumDeviceSettingsCombo@@V?$allocator@PAUCD3D11EnumDeviceSettingsCombo@@@std@@@std@@@std@@QAE@ABV?$allocator@PAUCD3D11EnumDeviceSettingsCombo@@@1@@Z DD 0ffffffffH
	DD	FLAT:__unwindfunclet$??0?$_Vector_alloc@$0A@U?$_Vec_base_types@PAUCD3D11EnumDeviceSettingsCombo@@V?$allocator@PAUCD3D11EnumDeviceSettingsCombo@@@std@@@std@@@std@@QAE@ABV?$allocator@PAUCD3D11EnumDeviceSettingsCombo@@@1@@Z$0
__ehfuncinfo$??0?$_Vector_alloc@$0A@U?$_Vec_base_types@PAUCD3D11EnumDeviceSettingsCombo@@V?$allocator@PAUCD3D11EnumDeviceSettingsCombo@@@std@@@std@@@std@@QAE@ABV?$allocator@PAUCD3D11EnumDeviceSettingsCombo@@@1@@Z DD 019930522H
	DD	01H
	DD	FLAT:__unwindtable$??0?$_Vector_alloc@$0A@U?$_Vec_base_types@PAUCD3D11EnumDeviceSettingsCombo@@V?$allocator@PAUCD3D11EnumDeviceSettingsCombo@@@std@@@std@@@std@@QAE@ABV?$allocator@PAUCD3D11EnumDeviceSettingsCombo@@@1@@Z
	DD	2 DUP(00H)
	DD	2 DUP(00H)
	DD	00H
	DD	01H
xdata$x	ENDS
;	COMDAT xdata$x
xdata$x	SEGMENT
__unwindtable$?_Orphan_range@?$vector@PAVCD3D11EnumDeviceInfo@@V?$allocator@PAVCD3D11EnumDeviceInfo@@@std@@@std@@IBEXPAPAVCD3D11EnumDeviceInfo@@0@Z DD 0ffffffffH
	DD	FLAT:__unwindfunclet$?_Orphan_range@?$vector@PAVCD3D11EnumDeviceInfo@@V?$allocator@PAVCD3D11EnumDeviceInfo@@@std@@@std@@IBEXPAPAVCD3D11EnumDeviceInfo@@0@Z$0
__ehfuncinfo$?_Orphan_range@?$vector@PAVCD3D11EnumDeviceInfo@@V?$allocator@PAVCD3D11EnumDeviceInfo@@@std@@@std@@IBEXPAPAVCD3D11EnumDeviceInfo@@0@Z DD 019930522H
	DD	01H
	DD	FLAT:__unwindtable$?_Orphan_range@?$vector@PAVCD3D11EnumDeviceInfo@@V?$allocator@PAVCD3D11EnumDeviceInfo@@@std@@@std@@IBEXPAPAVCD3D11EnumDeviceInfo@@0@Z
	DD	2 DUP(00H)
	DD	2 DUP(00H)
	DD	00H
	DD	01H
xdata$x	ENDS
;	COMDAT xdata$x
xdata$x	SEGMENT
__catchsym$?_Reallocate@?$vector@PAVCD3D11EnumDeviceInfo@@V?$allocator@PAVCD3D11EnumDeviceInfo@@@std@@@std@@IAEXI@Z$2 DD 040H
	DD	00H
	DD	00H
	DD	FLAT:__catch$?_Reallocate@?$vector@PAVCD3D11EnumDeviceInfo@@V?$allocator@PAVCD3D11EnumDeviceInfo@@@std@@@std@@IAEXI@Z$0
__unwindtable$?_Reallocate@?$vector@PAVCD3D11EnumDeviceInfo@@V?$allocator@PAVCD3D11EnumDeviceInfo@@@std@@@std@@IAEXI@Z DD 0ffffffffH
	DD	00H
	DD	0ffffffffH
	DD	00H
__tryblocktable$?_Reallocate@?$vector@PAVCD3D11EnumDeviceInfo@@V?$allocator@PAVCD3D11EnumDeviceInfo@@@std@@@std@@IAEXI@Z DD 00H
	DD	00H
	DD	01H
	DD	01H
	DD	FLAT:__catchsym$?_Reallocate@?$vector@PAVCD3D11EnumDeviceInfo@@V?$allocator@PAVCD3D11EnumDeviceInfo@@@std@@@std@@IAEXI@Z$2
__ehfuncinfo$?_Reallocate@?$vector@PAVCD3D11EnumDeviceInfo@@V?$allocator@PAVCD3D11EnumDeviceInfo@@@std@@@std@@IAEXI@Z DD 019930522H
	DD	02H
	DD	FLAT:__unwindtable$?_Reallocate@?$vector@PAVCD3D11EnumDeviceInfo@@V?$allocator@PAVCD3D11EnumDeviceInfo@@@std@@@std@@IAEXI@Z
	DD	01H
	DD	FLAT:__tryblocktable$?_Reallocate@?$vector@PAVCD3D11EnumDeviceInfo@@V?$allocator@PAVCD3D11EnumDeviceInfo@@@std@@@std@@IAEXI@Z
	DD	2 DUP(00H)
	DD	00H
	DD	01H
xdata$x	ENDS
;	COMDAT xdata$x
xdata$x	SEGMENT
__unwindtable$??0?$_Vector_alloc@$0A@U?$_Vec_base_types@PAVCD3D11EnumDeviceInfo@@V?$allocator@PAVCD3D11EnumDeviceInfo@@@std@@@std@@@std@@QAE@ABV?$allocator@PAVCD3D11EnumDeviceInfo@@@1@@Z DD 0ffffffffH
	DD	FLAT:__unwindfunclet$??0?$_Vector_alloc@$0A@U?$_Vec_base_types@PAVCD3D11EnumDeviceInfo@@V?$allocator@PAVCD3D11EnumDeviceInfo@@@std@@@std@@@std@@QAE@ABV?$allocator@PAVCD3D11EnumDeviceInfo@@@1@@Z$0
__ehfuncinfo$??0?$_Vector_alloc@$0A@U?$_Vec_base_types@PAVCD3D11EnumDeviceInfo@@V?$allocator@PAVCD3D11EnumDeviceInfo@@@std@@@std@@@std@@QAE@ABV?$allocator@PAVCD3D11EnumDeviceInfo@@@1@@Z DD 019930522H
	DD	01H
	DD	FLAT:__unwindtable$??0?$_Vector_alloc@$0A@U?$_Vec_base_types@PAVCD3D11EnumDeviceInfo@@V?$allocator@PAVCD3D11EnumDeviceInfo@@@std@@@std@@@std@@QAE@ABV?$allocator@PAVCD3D11EnumDeviceInfo@@@1@@Z
	DD	2 DUP(00H)
	DD	2 DUP(00H)
	DD	00H
	DD	01H
xdata$x	ENDS
;	COMDAT xdata$x
xdata$x	SEGMENT
__unwindtable$?_Orphan_range@?$vector@PAVCD3D11EnumOutputInfo@@V?$allocator@PAVCD3D11EnumOutputInfo@@@std@@@std@@IBEXPAPAVCD3D11EnumOutputInfo@@0@Z DD 0ffffffffH
	DD	FLAT:__unwindfunclet$?_Orphan_range@?$vector@PAVCD3D11EnumOutputInfo@@V?$allocator@PAVCD3D11EnumOutputInfo@@@std@@@std@@IBEXPAPAVCD3D11EnumOutputInfo@@0@Z$0
__ehfuncinfo$?_Orphan_range@?$vector@PAVCD3D11EnumOutputInfo@@V?$allocator@PAVCD3D11EnumOutputInfo@@@std@@@std@@IBEXPAPAVCD3D11EnumOutputInfo@@0@Z DD 019930522H
	DD	01H
	DD	FLAT:__unwindtable$?_Orphan_range@?$vector@PAVCD3D11EnumOutputInfo@@V?$allocator@PAVCD3D11EnumOutputInfo@@@std@@@std@@IBEXPAPAVCD3D11EnumOutputInfo@@0@Z
	DD	2 DUP(00H)
	DD	2 DUP(00H)
	DD	00H
	DD	01H
xdata$x	ENDS
;	COMDAT xdata$x
xdata$x	SEGMENT
__catchsym$?_Reallocate@?$vector@PAVCD3D11EnumOutputInfo@@V?$allocator@PAVCD3D11EnumOutputInfo@@@std@@@std@@IAEXI@Z$2 DD 040H
	DD	00H
	DD	00H
	DD	FLAT:__catch$?_Reallocate@?$vector@PAVCD3D11EnumOutputInfo@@V?$allocator@PAVCD3D11EnumOutputInfo@@@std@@@std@@IAEXI@Z$0
__unwindtable$?_Reallocate@?$vector@PAVCD3D11EnumOutputInfo@@V?$allocator@PAVCD3D11EnumOutputInfo@@@std@@@std@@IAEXI@Z DD 0ffffffffH
	DD	00H
	DD	0ffffffffH
	DD	00H
__tryblocktable$?_Reallocate@?$vector@PAVCD3D11EnumOutputInfo@@V?$allocator@PAVCD3D11EnumOutputInfo@@@std@@@std@@IAEXI@Z DD 00H
	DD	00H
	DD	01H
	DD	01H
	DD	FLAT:__catchsym$?_Reallocate@?$vector@PAVCD3D11EnumOutputInfo@@V?$allocator@PAVCD3D11EnumOutputInfo@@@std@@@std@@IAEXI@Z$2
__ehfuncinfo$?_Reallocate@?$vector@PAVCD3D11EnumOutputInfo@@V?$allocator@PAVCD3D11EnumOutputInfo@@@std@@@std@@IAEXI@Z DD 019930522H
	DD	02H
	DD	FLAT:__unwindtable$?_Reallocate@?$vector@PAVCD3D11EnumOutputInfo@@V?$allocator@PAVCD3D11EnumOutputInfo@@@std@@@std@@IAEXI@Z
	DD	01H
	DD	FLAT:__tryblocktable$?_Reallocate@?$vector@PAVCD3D11EnumOutputInfo@@V?$allocator@PAVCD3D11EnumOutputInfo@@@std@@@std@@IAEXI@Z
	DD	2 DUP(00H)
	DD	00H
	DD	01H
xdata$x	ENDS
;	COMDAT xdata$x
xdata$x	SEGMENT
__unwindtable$??0?$_Vector_alloc@$0A@U?$_Vec_base_types@PAVCD3D11EnumOutputInfo@@V?$allocator@PAVCD3D11EnumOutputInfo@@@std@@@std@@@std@@QAE@ABV?$allocator@PAVCD3D11EnumOutputInfo@@@1@@Z DD 0ffffffffH
	DD	FLAT:__unwindfunclet$??0?$_Vector_alloc@$0A@U?$_Vec_base_types@PAVCD3D11EnumOutputInfo@@V?$allocator@PAVCD3D11EnumOutputInfo@@@std@@@std@@@std@@QAE@ABV?$allocator@PAVCD3D11EnumOutputInfo@@@1@@Z$0
__ehfuncinfo$??0?$_Vector_alloc@$0A@U?$_Vec_base_types@PAVCD3D11EnumOutputInfo@@V?$allocator@PAVCD3D11EnumOutputInfo@@@std@@@std@@@std@@QAE@ABV?$allocator@PAVCD3D11EnumOutputInfo@@@1@@Z DD 019930522H
	DD	01H
	DD	FLAT:__unwindtable$??0?$_Vector_alloc@$0A@U?$_Vec_base_types@PAVCD3D11EnumOutputInfo@@V?$allocator@PAVCD3D11EnumOutputInfo@@@std@@@std@@@std@@QAE@ABV?$allocator@PAVCD3D11EnumOutputInfo@@@1@@Z
	DD	2 DUP(00H)
	DD	2 DUP(00H)
	DD	00H
	DD	01H
xdata$x	ENDS
;	COMDAT xdata$x
xdata$x	SEGMENT
__unwindtable$??0CD3D11EnumAdapterInfo@@QAE@XZ DD 0ffffffffH
	DD	FLAT:__unwindfunclet$??0CD3D11EnumAdapterInfo@@QAE@XZ$0
	DD	00H
	DD	FLAT:__unwindfunclet$??0CD3D11EnumAdapterInfo@@QAE@XZ$1
__ehfuncinfo$??0CD3D11EnumAdapterInfo@@QAE@XZ DD 019930522H
	DD	02H
	DD	FLAT:__unwindtable$??0CD3D11EnumAdapterInfo@@QAE@XZ
	DD	2 DUP(00H)
	DD	2 DUP(00H)
	DD	00H
	DD	01H
xdata$x	ENDS
;	COMDAT xdata$x
xdata$x	SEGMENT
__unwindtable$?_Orphan_range@?$vector@PAVCD3D11EnumAdapterInfo@@V?$allocator@PAVCD3D11EnumAdapterInfo@@@std@@@std@@IBEXPAPAVCD3D11EnumAdapterInfo@@0@Z DD 0ffffffffH
	DD	FLAT:__unwindfunclet$?_Orphan_range@?$vector@PAVCD3D11EnumAdapterInfo@@V?$allocator@PAVCD3D11EnumAdapterInfo@@@std@@@std@@IBEXPAPAVCD3D11EnumAdapterInfo@@0@Z$0
__ehfuncinfo$?_Orphan_range@?$vector@PAVCD3D11EnumAdapterInfo@@V?$allocator@PAVCD3D11EnumAdapterInfo@@@std@@@std@@IBEXPAPAVCD3D11EnumAdapterInfo@@0@Z DD 019930522H
	DD	01H
	DD	FLAT:__unwindtable$?_Orphan_range@?$vector@PAVCD3D11EnumAdapterInfo@@V?$allocator@PAVCD3D11EnumAdapterInfo@@@std@@@std@@IBEXPAPAVCD3D11EnumAdapterInfo@@0@Z
	DD	2 DUP(00H)
	DD	2 DUP(00H)
	DD	00H
	DD	01H
xdata$x	ENDS
;	COMDAT xdata$x
xdata$x	SEGMENT
__catchsym$?_Reallocate@?$vector@PAVCD3D11EnumAdapterInfo@@V?$allocator@PAVCD3D11EnumAdapterInfo@@@std@@@std@@IAEXI@Z$2 DD 040H
	DD	00H
	DD	00H
	DD	FLAT:__catch$?_Reallocate@?$vector@PAVCD3D11EnumAdapterInfo@@V?$allocator@PAVCD3D11EnumAdapterInfo@@@std@@@std@@IAEXI@Z$0
__unwindtable$?_Reallocate@?$vector@PAVCD3D11EnumAdapterInfo@@V?$allocator@PAVCD3D11EnumAdapterInfo@@@std@@@std@@IAEXI@Z DD 0ffffffffH
	DD	00H
	DD	0ffffffffH
	DD	00H
__tryblocktable$?_Reallocate@?$vector@PAVCD3D11EnumAdapterInfo@@V?$allocator@PAVCD3D11EnumAdapterInfo@@@std@@@std@@IAEXI@Z DD 00H
	DD	00H
	DD	01H
	DD	01H
	DD	FLAT:__catchsym$?_Reallocate@?$vector@PAVCD3D11EnumAdapterInfo@@V?$allocator@PAVCD3D11EnumAdapterInfo@@@std@@@std@@IAEXI@Z$2
__ehfuncinfo$?_Reallocate@?$vector@PAVCD3D11EnumAdapterInfo@@V?$allocator@PAVCD3D11EnumAdapterInfo@@@std@@@std@@IAEXI@Z DD 019930522H
	DD	02H
	DD	FLAT:__unwindtable$?_Reallocate@?$vector@PAVCD3D11EnumAdapterInfo@@V?$allocator@PAVCD3D11EnumAdapterInfo@@@std@@@std@@IAEXI@Z
	DD	01H
	DD	FLAT:__tryblocktable$?_Reallocate@?$vector@PAVCD3D11EnumAdapterInfo@@V?$allocator@PAVCD3D11EnumAdapterInfo@@@std@@@std@@IAEXI@Z
	DD	2 DUP(00H)
	DD	00H
	DD	01H
xdata$x	ENDS
;	COMDAT xdata$x
xdata$x	SEGMENT
__unwindtable$??0?$_Vector_alloc@$0A@U?$_Vec_base_types@PAVCD3D11EnumAdapterInfo@@V?$allocator@PAVCD3D11EnumAdapterInfo@@@std@@@std@@@std@@QAE@ABV?$allocator@PAVCD3D11EnumAdapterInfo@@@1@@Z DD 0ffffffffH
	DD	FLAT:__unwindfunclet$??0?$_Vector_alloc@$0A@U?$_Vec_base_types@PAVCD3D11EnumAdapterInfo@@V?$allocator@PAVCD3D11EnumAdapterInfo@@@std@@@std@@@std@@QAE@ABV?$allocator@PAVCD3D11EnumAdapterInfo@@@1@@Z$0
__ehfuncinfo$??0?$_Vector_alloc@$0A@U?$_Vec_base_types@PAVCD3D11EnumAdapterInfo@@V?$allocator@PAVCD3D11EnumAdapterInfo@@@std@@@std@@@std@@QAE@ABV?$allocator@PAVCD3D11EnumAdapterInfo@@@1@@Z DD 019930522H
	DD	01H
	DD	FLAT:__unwindtable$??0?$_Vector_alloc@$0A@U?$_Vec_base_types@PAVCD3D11EnumAdapterInfo@@V?$allocator@PAVCD3D11EnumAdapterInfo@@@std@@@std@@@std@@QAE@ABV?$allocator@PAVCD3D11EnumAdapterInfo@@@1@@Z
	DD	2 DUP(00H)
	DD	2 DUP(00H)
	DD	00H
	DD	01H
xdata$x	ENDS
;	COMDAT xdata$x
xdata$x	SEGMENT
__unwindtable$?_Orphan_range@?$vector@W4DXGI_FORMAT@@V?$allocator@W4DXGI_FORMAT@@@std@@@std@@IBEXPAW4DXGI_FORMAT@@0@Z DD 0ffffffffH
	DD	FLAT:__unwindfunclet$?_Orphan_range@?$vector@W4DXGI_FORMAT@@V?$allocator@W4DXGI_FORMAT@@@std@@@std@@IBEXPAW4DXGI_FORMAT@@0@Z$0
__ehfuncinfo$?_Orphan_range@?$vector@W4DXGI_FORMAT@@V?$allocator@W4DXGI_FORMAT@@@std@@@std@@IBEXPAW4DXGI_FORMAT@@0@Z DD 019930522H
	DD	01H
	DD	FLAT:__unwindtable$?_Orphan_range@?$vector@W4DXGI_FORMAT@@V?$allocator@W4DXGI_FORMAT@@@std@@@std@@IBEXPAW4DXGI_FORMAT@@0@Z
	DD	2 DUP(00H)
	DD	2 DUP(00H)
	DD	00H
	DD	01H
xdata$x	ENDS
;	COMDAT xdata$x
xdata$x	SEGMENT
__catchsym$?_Reallocate@?$vector@W4DXGI_FORMAT@@V?$allocator@W4DXGI_FORMAT@@@std@@@std@@IAEXI@Z$2 DD 040H
	DD	00H
	DD	00H
	DD	FLAT:__catch$?_Reallocate@?$vector@W4DXGI_FORMAT@@V?$allocator@W4DXGI_FORMAT@@@std@@@std@@IAEXI@Z$0
__unwindtable$?_Reallocate@?$vector@W4DXGI_FORMAT@@V?$allocator@W4DXGI_FORMAT@@@std@@@std@@IAEXI@Z DD 0ffffffffH
	DD	00H
	DD	0ffffffffH
	DD	00H
__tryblocktable$?_Reallocate@?$vector@W4DXGI_FORMAT@@V?$allocator@W4DXGI_FORMAT@@@std@@@std@@IAEXI@Z DD 00H
	DD	00H
	DD	01H
	DD	01H
	DD	FLAT:__catchsym$?_Reallocate@?$vector@W4DXGI_FORMAT@@V?$allocator@W4DXGI_FORMAT@@@std@@@std@@IAEXI@Z$2
__ehfuncinfo$?_Reallocate@?$vector@W4DXGI_FORMAT@@V?$allocator@W4DXGI_FORMAT@@@std@@@std@@IAEXI@Z DD 019930522H
	DD	02H
	DD	FLAT:__unwindtable$?_Reallocate@?$vector@W4DXGI_FORMAT@@V?$allocator@W4DXGI_FORMAT@@@std@@@std@@IAEXI@Z
	DD	01H
	DD	FLAT:__tryblocktable$?_Reallocate@?$vector@W4DXGI_FORMAT@@V?$allocator@W4DXGI_FORMAT@@@std@@@std@@IAEXI@Z
	DD	2 DUP(00H)
	DD	00H
	DD	01H
xdata$x	ENDS
;	COMDAT xdata$x
xdata$x	SEGMENT
__unwindtable$??0?$_Vector_alloc@$0A@U?$_Vec_base_types@W4DXGI_FORMAT@@V?$allocator@W4DXGI_FORMAT@@@std@@@std@@@std@@QAE@ABV?$allocator@W4DXGI_FORMAT@@@1@@Z DD 0ffffffffH
	DD	FLAT:__unwindfunclet$??0?$_Vector_alloc@$0A@U?$_Vec_base_types@W4DXGI_FORMAT@@V?$allocator@W4DXGI_FORMAT@@@std@@@std@@@std@@QAE@ABV?$allocator@W4DXGI_FORMAT@@@1@@Z$0
__ehfuncinfo$??0?$_Vector_alloc@$0A@U?$_Vec_base_types@W4DXGI_FORMAT@@V?$allocator@W4DXGI_FORMAT@@@std@@@std@@@std@@QAE@ABV?$allocator@W4DXGI_FORMAT@@@1@@Z DD 019930522H
	DD	01H
	DD	FLAT:__unwindtable$??0?$_Vector_alloc@$0A@U?$_Vec_base_types@W4DXGI_FORMAT@@V?$allocator@W4DXGI_FORMAT@@@std@@@std@@@std@@QAE@ABV?$allocator@W4DXGI_FORMAT@@@1@@Z
	DD	2 DUP(00H)
	DD	2 DUP(00H)
	DD	00H
	DD	01H
xdata$x	ENDS
xdata$x	SEGMENT
__unwindtable$??1CD3D11EnumOutputInfo@@QAE@XZ DD 0ffffffffH
	DD	FLAT:__unwindfunclet$??1CD3D11EnumOutputInfo@@QAE@XZ$0
__unwindtable$?DXUTGetD3D11Enumeration@@YGPAVCD3D11Enumeration@@_N0W4D3D_FEATURE_LEVEL@@@Z DD 0ffffffffH
	DD	FLAT:__unwindfunclet$?DXUTGetD3D11Enumeration@@YGPAVCD3D11Enumeration@@_N0W4D3D_FEATURE_LEVEL@@@Z$0
__unwindtable$?EnumerateDeviceCombos@CD3D11Enumeration@@AAEJPAVCD3D11EnumAdapterInfo@@@Z DD 0ffffffffH
	DD	FLAT:__unwindfunclet$?EnumerateDeviceCombos@CD3D11Enumeration@@AAEJPAVCD3D11EnumAdapterInfo@@@Z$0
__unwindtable$?EnumerateOutputs@CD3D11Enumeration@@AAEJPAVCD3D11EnumAdapterInfo@@@Z DD 0ffffffffH
	DD	FLAT:__unwindfunclet$?EnumerateOutputs@CD3D11Enumeration@@AAEJPAVCD3D11EnumAdapterInfo@@@Z$0
__unwindtable$?DXUTCreateD3D11Enumeration@@YGJXZ DD 0ffffffffH
	DD	FLAT:__unwindfunclet$?DXUTCreateD3D11Enumeration@@YGJXZ$0
__unwindtable$?ClearAdapterInfoList@CD3D11Enumeration@@AAEXXZ DD 0ffffffffH
	DD	FLAT:__unwindfunclet$?ClearAdapterInfoList@CD3D11Enumeration@@AAEXXZ$0
	DD	00H
	DD	FLAT:__unwindfunclet$?ClearAdapterInfoList@CD3D11Enumeration@@AAEXXZ$1
__unwindtable$??0CD3D11Enumeration@@AAE@XZ DD 0ffffffffH
	DD	FLAT:__unwindfunclet$??0CD3D11Enumeration@@AAE@XZ$0
	DD	00H
	DD	FLAT:__unwindfunclet$??0CD3D11Enumeration@@AAE@XZ$1
__unwindtable$??1CD3D11Enumeration@@QAE@XZ DD 0ffffffffH
	DD	FLAT:__unwindfunclet$??1CD3D11Enumeration@@QAE@XZ$0
	DD	00H
	DD	FLAT:__unwindfunclet$??1CD3D11Enumeration@@QAE@XZ$1
__unwindtable$?GetDeviceInfo@CD3D11Enumeration@@QBEPAVCD3D11EnumDeviceInfo@@IW4D3D_DRIVER_TYPE@@@Z DD 0ffffffffH
	DD	FLAT:__unwindfunclet$?GetDeviceInfo@CD3D11Enumeration@@QBEPAVCD3D11EnumDeviceInfo@@IW4D3D_DRIVER_TYPE@@@Z$0
	DD	00H
	DD	FLAT:__unwindfunclet$?GetDeviceInfo@CD3D11Enumeration@@QBEPAVCD3D11EnumDeviceInfo@@IW4D3D_DRIVER_TYPE@@@Z$1
__unwindtable$?GetAdapterInfo@CD3D11Enumeration@@QBEPAVCD3D11EnumAdapterInfo@@I@Z DD 0ffffffffH
	DD	FLAT:__unwindfunclet$?GetAdapterInfo@CD3D11Enumeration@@QBEPAVCD3D11EnumAdapterInfo@@I@Z$0
	DD	00H
	DD	FLAT:__unwindfunclet$?GetAdapterInfo@CD3D11Enumeration@@QBEPAVCD3D11EnumAdapterInfo@@I@Z$1
__unwindtable$??1CD3D11EnumAdapterInfo@@QAE@XZ DD 0ffffffffH
	DD	FLAT:__unwindfunclet$??1CD3D11EnumAdapterInfo@@QAE@XZ$0
	DD	00H
	DD	FLAT:__unwindfunclet$??1CD3D11EnumAdapterInfo@@QAE@XZ$1
	DD	01H
	DD	FLAT:__unwindfunclet$??1CD3D11EnumAdapterInfo@@QAE@XZ$2
__unwindtable$?EnumerateDeviceCombosNoAdapter@CD3D11Enumeration@@AAEJPAVCD3D11EnumAdapterInfo@@@Z DD 0ffffffffH
	DD	FLAT:__unwindfunclet$?EnumerateDeviceCombosNoAdapter@CD3D11Enumeration@@AAEJPAVCD3D11EnumAdapterInfo@@@Z$0
	DD	00H
	DD	FLAT:__unwindfunclet$?EnumerateDeviceCombosNoAdapter@CD3D11Enumeration@@AAEJPAVCD3D11EnumAdapterInfo@@@Z$1
	DD	00H
	DD	FLAT:__unwindfunclet$?EnumerateDeviceCombosNoAdapter@CD3D11Enumeration@@AAEJPAVCD3D11EnumAdapterInfo@@@Z$2
__ehfuncinfo$??1CD3D11EnumOutputInfo@@QAE@XZ DD 019930522H
	DD	01H
	DD	FLAT:__unwindtable$??1CD3D11EnumOutputInfo@@QAE@XZ
	DD	2 DUP(00H)
	DD	2 DUP(00H)
	DD	00H
	DD	01H
__ehfuncinfo$??1CD3D11EnumAdapterInfo@@QAE@XZ DD 019930522H
	DD	03H
	DD	FLAT:__unwindtable$??1CD3D11EnumAdapterInfo@@QAE@XZ
	DD	2 DUP(00H)
	DD	2 DUP(00H)
	DD	00H
	DD	01H
__ehfuncinfo$?DXUTGetD3D11Enumeration@@YGPAVCD3D11Enumeration@@_N0W4D3D_FEATURE_LEVEL@@@Z DD 019930522H
	DD	01H
	DD	FLAT:__unwindtable$?DXUTGetD3D11Enumeration@@YGPAVCD3D11Enumeration@@_N0W4D3D_FEATURE_LEVEL@@@Z
	DD	2 DUP(00H)
	DD	2 DUP(00H)
	DD	00H
	DD	01H
__ehfuncinfo$?ClearAdapterInfoList@CD3D11Enumeration@@AAEXXZ DD 019930522H
	DD	02H
	DD	FLAT:__unwindtable$?ClearAdapterInfoList@CD3D11Enumeration@@AAEXXZ
	DD	2 DUP(00H)
	DD	2 DUP(00H)
	DD	00H
	DD	01H
__ehfuncinfo$?EnumerateDeviceCombosNoAdapter@CD3D11Enumeration@@AAEJPAVCD3D11EnumAdapterInfo@@@Z DD 019930522H
	DD	03H
	DD	FLAT:__unwindtable$?EnumerateDeviceCombosNoAdapter@CD3D11Enumeration@@AAEJPAVCD3D11EnumAdapterInfo@@@Z
	DD	2 DUP(00H)
	DD	2 DUP(00H)
	DD	00H
	DD	01H
__ehfuncinfo$?EnumerateDeviceCombos@CD3D11Enumeration@@AAEJPAVCD3D11EnumAdapterInfo@@@Z DD 019930522H
	DD	01H
	DD	FLAT:__unwindtable$?EnumerateDeviceCombos@CD3D11Enumeration@@AAEJPAVCD3D11EnumAdapterInfo@@@Z
	DD	2 DUP(00H)
	DD	2 DUP(00H)
	DD	00H
	DD	01H
__ehfuncinfo$?EnumerateOutputs@CD3D11Enumeration@@AAEJPAVCD3D11EnumAdapterInfo@@@Z DD 019930522H
	DD	01H
	DD	FLAT:__unwindtable$?EnumerateOutputs@CD3D11Enumeration@@AAEJPAVCD3D11EnumAdapterInfo@@@Z
	DD	2 DUP(00H)
	DD	2 DUP(00H)
	DD	00H
	DD	01H
__ehfuncinfo$??0CD3D11Enumeration@@AAE@XZ DD 019930522H
	DD	02H
	DD	FLAT:__unwindtable$??0CD3D11Enumeration@@AAE@XZ
	DD	2 DUP(00H)
	DD	2 DUP(00H)
	DD	00H
	DD	01H
__ehfuncinfo$??1CD3D11Enumeration@@QAE@XZ DD 019930522H
	DD	02H
	DD	FLAT:__unwindtable$??1CD3D11Enumeration@@QAE@XZ
	DD	2 DUP(00H)
	DD	2 DUP(00H)
	DD	00H
	DD	01H
__ehfuncinfo$?GetDeviceInfo@CD3D11Enumeration@@QBEPAVCD3D11EnumDeviceInfo@@IW4D3D_DRIVER_TYPE@@@Z DD 019930522H
	DD	02H
	DD	FLAT:__unwindtable$?GetDeviceInfo@CD3D11Enumeration@@QBEPAVCD3D11EnumDeviceInfo@@IW4D3D_DRIVER_TYPE@@@Z
	DD	2 DUP(00H)
	DD	2 DUP(00H)
	DD	00H
	DD	01H
__ehfuncinfo$?GetAdapterInfo@CD3D11Enumeration@@QBEPAVCD3D11EnumAdapterInfo@@I@Z DD 019930522H
	DD	02H
	DD	FLAT:__unwindtable$?GetAdapterInfo@CD3D11Enumeration@@QBEPAVCD3D11EnumAdapterInfo@@I@Z
	DD	2 DUP(00H)
	DD	2 DUP(00H)
	DD	00H
	DD	01H
__ehfuncinfo$?Enumerate@CD3D11Enumeration@@QAEJP6G_NPBVCD3D11EnumAdapterInfo@@IPBVCD3D11EnumDeviceInfo@@W4DXGI_FORMAT@@_NPAX@Z4@Z DD 019930522H
	DD	05H
	DD	FLAT:__unwindtable$?Enumerate@CD3D11Enumeration@@QAEJP6G_NPBVCD3D11EnumAdapterInfo@@IPBVCD3D11EnumDeviceInfo@@W4DXGI_FORMAT@@_NPAX@Z4@Z
	DD	2 DUP(00H)
	DD	2 DUP(00H)
	DD	00H
	DD	01H
__ehfuncinfo$?DXUTCreateD3D11Enumeration@@YGJXZ DD 019930522H
	DD	01H
	DD	FLAT:__unwindtable$?DXUTCreateD3D11Enumeration@@YGJXZ
	DD	2 DUP(00H)
	DD	2 DUP(00H)
	DD	00H
	DD	01H
__unwindtable$?Enumerate@CD3D11Enumeration@@QAEJP6G_NPBVCD3D11EnumAdapterInfo@@IPBVCD3D11EnumDeviceInfo@@W4DXGI_FORMAT@@_NPAX@Z4@Z DD 0ffffffffH
	DD	FLAT:__unwindfunclet$?Enumerate@CD3D11Enumeration@@QAEJP6G_NPBVCD3D11EnumAdapterInfo@@IPBVCD3D11EnumDeviceInfo@@W4DXGI_FORMAT@@_NPAX@Z4@Z$0
	DD	00H
	DD	FLAT:__unwindfunclet$?Enumerate@CD3D11Enumeration@@QAEJP6G_NPBVCD3D11EnumAdapterInfo@@IPBVCD3D11EnumDeviceInfo@@W4DXGI_FORMAT@@_NPAX@Z4@Z$1
	DD	00H
	DD	FLAT:__unwindfunclet$?Enumerate@CD3D11Enumeration@@QAEJP6G_NPBVCD3D11EnumAdapterInfo@@IPBVCD3D11EnumDeviceInfo@@W4DXGI_FORMAT@@_NPAX@Z4@Z$2
	DD	00H
	DD	FLAT:__unwindfunclet$?Enumerate@CD3D11Enumeration@@QAEJP6G_NPBVCD3D11EnumAdapterInfo@@IPBVCD3D11EnumDeviceInfo@@W4DXGI_FORMAT@@_NPAX@Z4@Z$3
	DD	03H
	DD	FLAT:__unwindfunclet$?Enumerate@CD3D11Enumeration@@QAEJP6G_NPBVCD3D11EnumAdapterInfo@@IPBVCD3D11EnumDeviceInfo@@W4DXGI_FORMAT@@_NPAX@Z4@Z$4
xdata$x	ENDS
;	COMDAT xdata$x
xdata$x	SEGMENT
__unwindtable$?_Adopt@_Iterator_base12@std@@QAEXPBU_Container_base12@2@@Z DD 0ffffffffH
	DD	FLAT:__unwindfunclet$?_Adopt@_Iterator_base12@std@@QAEXPBU_Container_base12@2@@Z$0
	DD	0ffffffffH
	DD	FLAT:__unwindfunclet$?_Adopt@_Iterator_base12@std@@QAEXPBU_Container_base12@2@@Z$1
__ehfuncinfo$?_Adopt@_Iterator_base12@std@@QAEXPBU_Container_base12@2@@Z DD 019930522H
	DD	02H
	DD	FLAT:__unwindtable$?_Adopt@_Iterator_base12@std@@QAEXPBU_Container_base12@2@@Z
	DD	2 DUP(00H)
	DD	2 DUP(00H)
	DD	00H
	DD	01H
xdata$x	ENDS
; Function compile flags: /Odtp /RTCsu
;	COMDAT ??$construct@UDXGI_MODE_DESC@@U1@@?$allocator@UDXGI_MODE_DESC@@@std@@QAEXPAUDXGI_MODE_DESC@@$$QAU2@@Z
_TEXT	SEGMENT
tv74 = -28						; size = 4
$T2 = -24						; size = 4
$T3 = -20						; size = 4
_this$ = -16						; size = 4
__$EHRec$ = -12						; size = 12
__Ptr$ = 8						; size = 4
_<_Args_0>$ = 12					; size = 4
??$construct@UDXGI_MODE_DESC@@U1@@?$allocator@UDXGI_MODE_DESC@@@std@@QAEXPAUDXGI_MODE_DESC@@$$QAU2@@Z PROC ; std::allocator<DXGI_MODE_DESC>::construct<DXGI_MODE_DESC,DXGI_MODE_DESC>, COMDAT
; _this$ = ecx
; File c:\program files (x86)\microsoft visual studio 12.0\vc\include\xmemory0
; Line 598
	push	ebp
	mov	ebp, esp
	push	-1
	push	__ehhandler$??$construct@UDXGI_MODE_DESC@@U1@@?$allocator@UDXGI_MODE_DESC@@@std@@QAEXPAUDXGI_MODE_DESC@@$$QAU2@@Z
	mov	eax, DWORD PTR fs:0
	push	eax
	sub	esp, 16					; 00000010H
	push	esi
	push	edi
	mov	eax, -858993460				; ccccccccH
	mov	DWORD PTR [ebp-28], eax
	mov	DWORD PTR [ebp-24], eax
	mov	DWORD PTR [ebp-20], eax
	mov	DWORD PTR [ebp-16], eax
	mov	eax, DWORD PTR ___security_cookie
	xor	eax, ebp
	push	eax
	lea	eax, DWORD PTR __$EHRec$[ebp]
	mov	DWORD PTR fs:0, eax
	mov	DWORD PTR _this$[ebp], ecx
; Line 600
	mov	eax, DWORD PTR __Ptr$[ebp]
	push	eax
	push	28					; 0000001cH
	call	??2@YAPAXIPAX@Z				; operator new
	add	esp, 8
	mov	DWORD PTR $T2[ebp], eax
	mov	DWORD PTR __$EHRec$[ebp+8], 0
	cmp	DWORD PTR $T2[ebp], 0
	je	SHORT $LN3@construct
	mov	ecx, DWORD PTR _<_Args_0>$[ebp]
	push	ecx
	call	??$forward@UDXGI_MODE_DESC@@@std@@YA$$QAUDXGI_MODE_DESC@@AAU1@@Z ; std::forward<DXGI_MODE_DESC>
	add	esp, 4
	mov	ecx, 7
	mov	esi, eax
	mov	edi, DWORD PTR $T2[ebp]
	rep movsd
	mov	edx, DWORD PTR $T2[ebp]
	mov	DWORD PTR tv74[ebp], edx
	jmp	SHORT $LN4@construct
$LN3@construct:
	mov	DWORD PTR tv74[ebp], 0
$LN4@construct:
	mov	eax, DWORD PTR tv74[ebp]
	mov	DWORD PTR $T3[ebp], eax
	mov	DWORD PTR __$EHRec$[ebp+8], -1
; Line 601
	mov	ecx, DWORD PTR __$EHRec$[ebp]
	mov	DWORD PTR fs:0, ecx
	pop	ecx
	pop	edi
	pop	esi
	add	esp, 28					; 0000001cH
	cmp	ebp, esp
	call	__RTC_CheckEsp
	mov	esp, ebp
	pop	ebp
	ret	8
_TEXT	ENDS
;	COMDAT text$x
text$x	SEGMENT
__unwindfunclet$??$construct@UDXGI_MODE_DESC@@U1@@?$allocator@UDXGI_MODE_DESC@@@std@@QAEXPAUDXGI_MODE_DESC@@$$QAU2@@Z$0:
	mov	eax, DWORD PTR __Ptr$[ebp]
	push	eax
	mov	eax, DWORD PTR $T2[ebp]
	push	eax
	call	??3@YAXPAX0@Z				; operator delete
	add	esp, 8
	ret	0
__ehhandler$??$construct@UDXGI_MODE_DESC@@U1@@?$allocator@UDXGI_MODE_DESC@@@std@@QAEXPAUDXGI_MODE_DESC@@$$QAU2@@Z:
	mov	edx, DWORD PTR [esp+8]
	lea	eax, DWORD PTR [edx+12]
	mov	ecx, DWORD PTR [edx-28]
	xor	ecx, eax
	call	@__security_check_cookie@4
	mov	eax, OFFSET __ehfuncinfo$??$construct@UDXGI_MODE_DESC@@U1@@?$allocator@UDXGI_MODE_DESC@@@std@@QAEXPAUDXGI_MODE_DESC@@$$QAU2@@Z
	jmp	___CxxFrameHandler3
text$x	ENDS
??$construct@UDXGI_MODE_DESC@@U1@@?$allocator@UDXGI_MODE_DESC@@@std@@QAEXPAUDXGI_MODE_DESC@@$$QAU2@@Z ENDP ; std::allocator<DXGI_MODE_DESC>::construct<DXGI_MODE_DESC,DXGI_MODE_DESC>
; Function compile flags: /Odtp /RTCsu
;	COMDAT ??$_Debug_range2@PAI@std@@YAXPAI0PB_WIUrandom_access_iterator_tag@0@@Z
_TEXT	SEGMENT
__First$ = 8						; size = 4
__Last$ = 12						; size = 4
__File$ = 16						; size = 4
__Line$ = 20						; size = 4
___formal$ = 24						; size = 1
??$_Debug_range2@PAI@std@@YAXPAI0PB_WIUrandom_access_iterator_tag@0@@Z PROC ; std::_Debug_range2<unsigned int *>, COMDAT
; File c:\program files (x86)\microsoft visual studio 12.0\vc\include\xutility
; Line 570
	push	ebp
	mov	ebp, esp
	push	esi
; Line 571
	mov	eax, DWORD PTR __First$[ebp]
	cmp	eax, DWORD PTR __Last$[ebp]
	je	SHORT $LN3@Debug_rang
; Line 573
	mov	ecx, DWORD PTR __Line$[ebp]
	push	ecx
	mov	edx, DWORD PTR __File$[ebp]
	push	edx
	mov	eax, DWORD PTR __First$[ebp]
	push	eax
	call	??$_Debug_pointer@I@std@@YAXPAIPB_WI@Z	; std::_Debug_pointer<unsigned int>
	add	esp, 12					; 0000000cH
; Line 574
	mov	ecx, DWORD PTR __Line$[ebp]
	push	ecx
	mov	edx, DWORD PTR __File$[ebp]
	push	edx
	mov	eax, DWORD PTR __Last$[ebp]
	push	eax
	call	??$_Debug_pointer@I@std@@YAXPAIPB_WI@Z	; std::_Debug_pointer<unsigned int>
	add	esp, 12					; 0000000cH
; Line 575
	mov	ecx, DWORD PTR __Last$[ebp]
	cmp	ecx, DWORD PTR __First$[ebp]
	jae	SHORT $LN3@Debug_rang
; Line 576
	mov	esi, esp
	mov	edx, DWORD PTR __Line$[ebp]
	push	edx
	mov	eax, DWORD PTR __File$[ebp]
	push	eax
	push	OFFSET ??_C@_1CO@DGLIKNHI@?$AAi?$AAn?$AAv?$AAa?$AAl?$AAi?$AAd?$AA?5?$AAi?$AAt?$AAe?$AAr?$AAa?$AAt?$AAo?$AAr?$AA?5?$AAr?$AAa?$AAn?$AAg?$AAe?$AA?$AA@
	call	DWORD PTR __imp_?_Debug_message@std@@YAXPB_W0I@Z
	add	esp, 12					; 0000000cH
	cmp	esi, esp
	call	__RTC_CheckEsp
$LN3@Debug_rang:
; Line 578
	pop	esi
	cmp	ebp, esp
	call	__RTC_CheckEsp
	pop	ebp
	ret	0
??$_Debug_range2@PAI@std@@YAXPAI0PB_WIUrandom_access_iterator_tag@0@@Z ENDP ; std::_Debug_range2<unsigned int *>
_TEXT	ENDS
; Function compile flags: /Odtp /RTCsu
;	COMDAT ??$_Iter_cat@PAI@std@@YA?AUrandom_access_iterator_tag@0@ABQAI@Z
_TEXT	SEGMENT
__Cat$ = -5						; size = 1
___$ReturnUdt$ = 8					; size = 4
___formal$ = 12						; size = 4
??$_Iter_cat@PAI@std@@YA?AUrandom_access_iterator_tag@0@ABQAI@Z PROC ; std::_Iter_cat<unsigned int *>, COMDAT
; File c:\program files (x86)\microsoft visual studio 12.0\vc\include\xutility
; Line 405
	push	ebp
	mov	ebp, esp
	sub	esp, 12					; 0000000cH
	mov	DWORD PTR [ebp-12], -858993460		; ccccccccH
	mov	DWORD PTR [ebp-8], -858993460		; ccccccccH
	mov	DWORD PTR [ebp-4], -858993460		; ccccccccH
; Line 407
	mov	eax, DWORD PTR ___$ReturnUdt$[ebp]
	mov	cl, BYTE PTR __Cat$[ebp]
	mov	BYTE PTR [eax], cl
	mov	eax, DWORD PTR ___$ReturnUdt$[ebp]
; Line 408
	push	edx
	mov	ecx, ebp
	push	eax
	lea	edx, DWORD PTR $LN5@Iter_cat
	call	@_RTC_CheckStackVars@8
	pop	eax
	pop	edx
	mov	esp, ebp
	pop	ebp
	ret	0
	npad	1
$LN5@Iter_cat:
	DD	1
	DD	$LN4@Iter_cat
$LN4@Iter_cat:
	DD	-5					; fffffffbH
	DD	1
	DD	$LN3@Iter_cat
$LN3@Iter_cat:
	DB	95					; 0000005fH
	DB	67					; 00000043H
	DB	97					; 00000061H
	DB	116					; 00000074H
	DB	0
??$_Iter_cat@PAI@std@@YA?AUrandom_access_iterator_tag@0@ABQAI@Z ENDP ; std::_Iter_cat<unsigned int *>
_TEXT	ENDS
; Function compile flags: /Odtp /RTCsu
;	COMDAT ??$construct@UDXGI_MODE_DESC@@U1@@?$allocator_traits@V?$allocator@UDXGI_MODE_DESC@@@std@@@std@@SAXAAV?$allocator@UDXGI_MODE_DESC@@@1@PAUDXGI_MODE_DESC@@$$QAU3@@Z
_TEXT	SEGMENT
__Al$ = 8						; size = 4
__Ptr$ = 12						; size = 4
_<_Args_0>$ = 16					; size = 4
??$construct@UDXGI_MODE_DESC@@U1@@?$allocator_traits@V?$allocator@UDXGI_MODE_DESC@@@std@@@std@@SAXAAV?$allocator@UDXGI_MODE_DESC@@@1@PAUDXGI_MODE_DESC@@$$QAU3@@Z PROC ; std::allocator_traits<std::allocator<DXGI_MODE_DESC> >::construct<DXGI_MODE_DESC,DXGI_MODE_DESC>, COMDAT
; File c:\program files (x86)\microsoft visual studio 12.0\vc\include\xmemory0
; Line 720
	push	ebp
	mov	ebp, esp
; Line 723
	mov	eax, DWORD PTR _<_Args_0>$[ebp]
	push	eax
	call	??$forward@UDXGI_MODE_DESC@@@std@@YA$$QAUDXGI_MODE_DESC@@AAU1@@Z ; std::forward<DXGI_MODE_DESC>
	add	esp, 4
	push	eax
	mov	ecx, DWORD PTR __Ptr$[ebp]
	push	ecx
	mov	ecx, DWORD PTR __Al$[ebp]
	call	??$construct@UDXGI_MODE_DESC@@U1@@?$allocator@UDXGI_MODE_DESC@@@std@@QAEXPAUDXGI_MODE_DESC@@$$QAU2@@Z ; std::allocator<DXGI_MODE_DESC>::construct<DXGI_MODE_DESC,DXGI_MODE_DESC>
; Line 724
	cmp	ebp, esp
	call	__RTC_CheckEsp
	pop	ebp
	ret	0
??$construct@UDXGI_MODE_DESC@@U1@@?$allocator_traits@V?$allocator@UDXGI_MODE_DESC@@@std@@@std@@SAXAAV?$allocator@UDXGI_MODE_DESC@@@1@PAUDXGI_MODE_DESC@@$$QAU3@@Z ENDP ; std::allocator_traits<std::allocator<DXGI_MODE_DESC> >::construct<DXGI_MODE_DESC,DXGI_MODE_DESC>
_TEXT	ENDS
; Function compile flags: /Odtp /RTCsu
;	COMDAT ??$forward@UDXGI_MODE_DESC@@@std@@YA$$QAUDXGI_MODE_DESC@@AAU1@@Z
_TEXT	SEGMENT
__Arg$ = 8						; size = 4
??$forward@UDXGI_MODE_DESC@@@std@@YA$$QAUDXGI_MODE_DESC@@AAU1@@Z PROC ; std::forward<DXGI_MODE_DESC>, COMDAT
; File c:\program files (x86)\microsoft visual studio 12.0\vc\include\type_traits
; Line 1504
	push	ebp
	mov	ebp, esp
; Line 1505
	mov	eax, DWORD PTR __Arg$[ebp]
; Line 1506
	pop	ebp
	ret	0
??$forward@UDXGI_MODE_DESC@@@std@@YA$$QAUDXGI_MODE_DESC@@AAU1@@Z ENDP ; std::forward<DXGI_MODE_DESC>
_TEXT	ENDS
; Function compile flags: /Odtp /RTCsu
;	COMDAT ??$_Debug_range2@PAUDXGI_MODE_DESC@@@std@@YAXPAUDXGI_MODE_DESC@@0PB_WIUrandom_access_iterator_tag@0@@Z
_TEXT	SEGMENT
__First$ = 8						; size = 4
__Last$ = 12						; size = 4
__File$ = 16						; size = 4
__Line$ = 20						; size = 4
___formal$ = 24						; size = 1
??$_Debug_range2@PAUDXGI_MODE_DESC@@@std@@YAXPAUDXGI_MODE_DESC@@0PB_WIUrandom_access_iterator_tag@0@@Z PROC ; std::_Debug_range2<DXGI_MODE_DESC *>, COMDAT
; File c:\program files (x86)\microsoft visual studio 12.0\vc\include\xutility
; Line 570
	push	ebp
	mov	ebp, esp
	push	esi
; Line 571
	mov	eax, DWORD PTR __First$[ebp]
	cmp	eax, DWORD PTR __Last$[ebp]
	je	SHORT $LN3@Debug_rang
; Line 573
	mov	ecx, DWORD PTR __Line$[ebp]
	push	ecx
	mov	edx, DWORD PTR __File$[ebp]
	push	edx
	mov	eax, DWORD PTR __First$[ebp]
	push	eax
	call	??$_Debug_pointer@UDXGI_MODE_DESC@@@std@@YAXPAUDXGI_MODE_DESC@@PB_WI@Z ; std::_Debug_pointer<DXGI_MODE_DESC>
	add	esp, 12					; 0000000cH
; Line 574
	mov	ecx, DWORD PTR __Line$[ebp]
	push	ecx
	mov	edx, DWORD PTR __File$[ebp]
	push	edx
	mov	eax, DWORD PTR __Last$[ebp]
	push	eax
	call	??$_Debug_pointer@UDXGI_MODE_DESC@@@std@@YAXPAUDXGI_MODE_DESC@@PB_WI@Z ; std::_Debug_pointer<DXGI_MODE_DESC>
	add	esp, 12					; 0000000cH
; Line 575
	mov	ecx, DWORD PTR __Last$[ebp]
	cmp	ecx, DWORD PTR __First$[ebp]
	jae	SHORT $LN3@Debug_rang
; Line 576
	mov	esi, esp
	mov	edx, DWORD PTR __Line$[ebp]
	push	edx
	mov	eax, DWORD PTR __File$[ebp]
	push	eax
	push	OFFSET ??_C@_1CO@DGLIKNHI@?$AAi?$AAn?$AAv?$AAa?$AAl?$AAi?$AAd?$AA?5?$AAi?$AAt?$AAe?$AAr?$AAa?$AAt?$AAo?$AAr?$AA?5?$AAr?$AAa?$AAn?$AAg?$AAe?$AA?$AA@
	call	DWORD PTR __imp_?_Debug_message@std@@YAXPB_W0I@Z
	add	esp, 12					; 0000000cH
	cmp	esi, esp
	call	__RTC_CheckEsp
$LN3@Debug_rang:
; Line 578
	pop	esi
	cmp	ebp, esp
	call	__RTC_CheckEsp
	pop	ebp
	ret	0
??$_Debug_range2@PAUDXGI_MODE_DESC@@@std@@YAXPAUDXGI_MODE_DESC@@0PB_WIUrandom_access_iterator_tag@0@@Z ENDP ; std::_Debug_range2<DXGI_MODE_DESC *>
_TEXT	ENDS
; Function compile flags: /Odtp /RTCsu
;	COMDAT ??$_Iter_cat@PAUDXGI_MODE_DESC@@@std@@YA?AUrandom_access_iterator_tag@0@ABQAUDXGI_MODE_DESC@@@Z
_TEXT	SEGMENT
__Cat$ = -5						; size = 1
___$ReturnUdt$ = 8					; size = 4
___formal$ = 12						; size = 4
??$_Iter_cat@PAUDXGI_MODE_DESC@@@std@@YA?AUrandom_access_iterator_tag@0@ABQAUDXGI_MODE_DESC@@@Z PROC ; std::_Iter_cat<DXGI_MODE_DESC *>, COMDAT
; File c:\program files (x86)\microsoft visual studio 12.0\vc\include\xutility
; Line 405
	push	ebp
	mov	ebp, esp
	sub	esp, 12					; 0000000cH
	mov	DWORD PTR [ebp-12], -858993460		; ccccccccH
	mov	DWORD PTR [ebp-8], -858993460		; ccccccccH
	mov	DWORD PTR [ebp-4], -858993460		; ccccccccH
; Line 407
	mov	eax, DWORD PTR ___$ReturnUdt$[ebp]
	mov	cl, BYTE PTR __Cat$[ebp]
	mov	BYTE PTR [eax], cl
	mov	eax, DWORD PTR ___$ReturnUdt$[ebp]
; Line 408
	push	edx
	mov	ecx, ebp
	push	eax
	lea	edx, DWORD PTR $LN5@Iter_cat
	call	@_RTC_CheckStackVars@8
	pop	eax
	pop	edx
	mov	esp, ebp
	pop	ebp
	ret	0
	npad	1
$LN5@Iter_cat:
	DD	1
	DD	$LN4@Iter_cat
$LN4@Iter_cat:
	DD	-5					; fffffffbH
	DD	1
	DD	$LN3@Iter_cat
$LN3@Iter_cat:
	DB	95					; 0000005fH
	DB	67					; 00000043H
	DB	97					; 00000061H
	DB	116					; 00000074H
	DB	0
??$_Iter_cat@PAUDXGI_MODE_DESC@@@std@@YA?AUrandom_access_iterator_tag@0@ABQAUDXGI_MODE_DESC@@@Z ENDP ; std::_Iter_cat<DXGI_MODE_DESC *>
_TEXT	ENDS
; Function compile flags: /Odtp /RTCsu
;	COMDAT ??$_Debug_range2@PAPAUCD3D11EnumDeviceSettingsCombo@@@std@@YAXPAPAUCD3D11EnumDeviceSettingsCombo@@0PB_WIUrandom_access_iterator_tag@0@@Z
_TEXT	SEGMENT
__First$ = 8						; size = 4
__Last$ = 12						; size = 4
__File$ = 16						; size = 4
__Line$ = 20						; size = 4
___formal$ = 24						; size = 1
??$_Debug_range2@PAPAUCD3D11EnumDeviceSettingsCombo@@@std@@YAXPAPAUCD3D11EnumDeviceSettingsCombo@@0PB_WIUrandom_access_iterator_tag@0@@Z PROC ; std::_Debug_range2<CD3D11EnumDeviceSettingsCombo * *>, COMDAT
; File c:\program files (x86)\microsoft visual studio 12.0\vc\include\xutility
; Line 570
	push	ebp
	mov	ebp, esp
	push	esi
; Line 571
	mov	eax, DWORD PTR __First$[ebp]
	cmp	eax, DWORD PTR __Last$[ebp]
	je	SHORT $LN3@Debug_rang
; Line 573
	mov	ecx, DWORD PTR __Line$[ebp]
	push	ecx
	mov	edx, DWORD PTR __File$[ebp]
	push	edx
	mov	eax, DWORD PTR __First$[ebp]
	push	eax
	call	??$_Debug_pointer@PAUCD3D11EnumDeviceSettingsCombo@@@std@@YAXPAPAUCD3D11EnumDeviceSettingsCombo@@PB_WI@Z ; std::_Debug_pointer<CD3D11EnumDeviceSettingsCombo *>
	add	esp, 12					; 0000000cH
; Line 574
	mov	ecx, DWORD PTR __Line$[ebp]
	push	ecx
	mov	edx, DWORD PTR __File$[ebp]
	push	edx
	mov	eax, DWORD PTR __Last$[ebp]
	push	eax
	call	??$_Debug_pointer@PAUCD3D11EnumDeviceSettingsCombo@@@std@@YAXPAPAUCD3D11EnumDeviceSettingsCombo@@PB_WI@Z ; std::_Debug_pointer<CD3D11EnumDeviceSettingsCombo *>
	add	esp, 12					; 0000000cH
; Line 575
	mov	ecx, DWORD PTR __Last$[ebp]
	cmp	ecx, DWORD PTR __First$[ebp]
	jae	SHORT $LN3@Debug_rang
; Line 576
	mov	esi, esp
	mov	edx, DWORD PTR __Line$[ebp]
	push	edx
	mov	eax, DWORD PTR __File$[ebp]
	push	eax
	push	OFFSET ??_C@_1CO@DGLIKNHI@?$AAi?$AAn?$AAv?$AAa?$AAl?$AAi?$AAd?$AA?5?$AAi?$AAt?$AAe?$AAr?$AAa?$AAt?$AAo?$AAr?$AA?5?$AAr?$AAa?$AAn?$AAg?$AAe?$AA?$AA@
	call	DWORD PTR __imp_?_Debug_message@std@@YAXPB_W0I@Z
	add	esp, 12					; 0000000cH
	cmp	esi, esp
	call	__RTC_CheckEsp
$LN3@Debug_rang:
; Line 578
	pop	esi
	cmp	ebp, esp
	call	__RTC_CheckEsp
	pop	ebp
	ret	0
??$_Debug_range2@PAPAUCD3D11EnumDeviceSettingsCombo@@@std@@YAXPAPAUCD3D11EnumDeviceSettingsCombo@@0PB_WIUrandom_access_iterator_tag@0@@Z ENDP ; std::_Debug_range2<CD3D11EnumDeviceSettingsCombo * *>
_TEXT	ENDS
; Function compile flags: /Odtp /RTCsu
;	COMDAT ??$_Iter_cat@PAPAUCD3D11EnumDeviceSettingsCombo@@@std@@YA?AUrandom_access_iterator_tag@0@ABQAPAUCD3D11EnumDeviceSettingsCombo@@@Z
_TEXT	SEGMENT
__Cat$ = -5						; size = 1
___$ReturnUdt$ = 8					; size = 4
___formal$ = 12						; size = 4
??$_Iter_cat@PAPAUCD3D11EnumDeviceSettingsCombo@@@std@@YA?AUrandom_access_iterator_tag@0@ABQAPAUCD3D11EnumDeviceSettingsCombo@@@Z PROC ; std::_Iter_cat<CD3D11EnumDeviceSettingsCombo * *>, COMDAT
; File c:\program files (x86)\microsoft visual studio 12.0\vc\include\xutility
; Line 405
	push	ebp
	mov	ebp, esp
	sub	esp, 12					; 0000000cH
	mov	DWORD PTR [ebp-12], -858993460		; ccccccccH
	mov	DWORD PTR [ebp-8], -858993460		; ccccccccH
	mov	DWORD PTR [ebp-4], -858993460		; ccccccccH
; Line 407
	mov	eax, DWORD PTR ___$ReturnUdt$[ebp]
	mov	cl, BYTE PTR __Cat$[ebp]
	mov	BYTE PTR [eax], cl
	mov	eax, DWORD PTR ___$ReturnUdt$[ebp]
; Line 408
	push	edx
	mov	ecx, ebp
	push	eax
	lea	edx, DWORD PTR $LN5@Iter_cat
	call	@_RTC_CheckStackVars@8
	pop	eax
	pop	edx
	mov	esp, ebp
	pop	ebp
	ret	0
	npad	1
$LN5@Iter_cat:
	DD	1
	DD	$LN4@Iter_cat
$LN4@Iter_cat:
	DD	-5					; fffffffbH
	DD	1
	DD	$LN3@Iter_cat
$LN3@Iter_cat:
	DB	95					; 0000005fH
	DB	67					; 00000043H
	DB	97					; 00000061H
	DB	116					; 00000074H
	DB	0
??$_Iter_cat@PAPAUCD3D11EnumDeviceSettingsCombo@@@std@@YA?AUrandom_access_iterator_tag@0@ABQAPAUCD3D11EnumDeviceSettingsCombo@@@Z ENDP ; std::_Iter_cat<CD3D11EnumDeviceSettingsCombo * *>
_TEXT	ENDS
; Function compile flags: /Odtp /RTCsu
;	COMDAT ??$_Debug_range2@PAPAVCD3D11EnumDeviceInfo@@@std@@YAXPAPAVCD3D11EnumDeviceInfo@@0PB_WIUrandom_access_iterator_tag@0@@Z
_TEXT	SEGMENT
__First$ = 8						; size = 4
__Last$ = 12						; size = 4
__File$ = 16						; size = 4
__Line$ = 20						; size = 4
___formal$ = 24						; size = 1
??$_Debug_range2@PAPAVCD3D11EnumDeviceInfo@@@std@@YAXPAPAVCD3D11EnumDeviceInfo@@0PB_WIUrandom_access_iterator_tag@0@@Z PROC ; std::_Debug_range2<CD3D11EnumDeviceInfo * *>, COMDAT
; File c:\program files (x86)\microsoft visual studio 12.0\vc\include\xutility
; Line 570
	push	ebp
	mov	ebp, esp
	push	esi
; Line 571
	mov	eax, DWORD PTR __First$[ebp]
	cmp	eax, DWORD PTR __Last$[ebp]
	je	SHORT $LN3@Debug_rang
; Line 573
	mov	ecx, DWORD PTR __Line$[ebp]
	push	ecx
	mov	edx, DWORD PTR __File$[ebp]
	push	edx
	mov	eax, DWORD PTR __First$[ebp]
	push	eax
	call	??$_Debug_pointer@PAVCD3D11EnumDeviceInfo@@@std@@YAXPAPAVCD3D11EnumDeviceInfo@@PB_WI@Z ; std::_Debug_pointer<CD3D11EnumDeviceInfo *>
	add	esp, 12					; 0000000cH
; Line 574
	mov	ecx, DWORD PTR __Line$[ebp]
	push	ecx
	mov	edx, DWORD PTR __File$[ebp]
	push	edx
	mov	eax, DWORD PTR __Last$[ebp]
	push	eax
	call	??$_Debug_pointer@PAVCD3D11EnumDeviceInfo@@@std@@YAXPAPAVCD3D11EnumDeviceInfo@@PB_WI@Z ; std::_Debug_pointer<CD3D11EnumDeviceInfo *>
	add	esp, 12					; 0000000cH
; Line 575
	mov	ecx, DWORD PTR __Last$[ebp]
	cmp	ecx, DWORD PTR __First$[ebp]
	jae	SHORT $LN3@Debug_rang
; Line 576
	mov	esi, esp
	mov	edx, DWORD PTR __Line$[ebp]
	push	edx
	mov	eax, DWORD PTR __File$[ebp]
	push	eax
	push	OFFSET ??_C@_1CO@DGLIKNHI@?$AAi?$AAn?$AAv?$AAa?$AAl?$AAi?$AAd?$AA?5?$AAi?$AAt?$AAe?$AAr?$AAa?$AAt?$AAo?$AAr?$AA?5?$AAr?$AAa?$AAn?$AAg?$AAe?$AA?$AA@
	call	DWORD PTR __imp_?_Debug_message@std@@YAXPB_W0I@Z
	add	esp, 12					; 0000000cH
	cmp	esi, esp
	call	__RTC_CheckEsp
$LN3@Debug_rang:
; Line 578
	pop	esi
	cmp	ebp, esp
	call	__RTC_CheckEsp
	pop	ebp
	ret	0
??$_Debug_range2@PAPAVCD3D11EnumDeviceInfo@@@std@@YAXPAPAVCD3D11EnumDeviceInfo@@0PB_WIUrandom_access_iterator_tag@0@@Z ENDP ; std::_Debug_range2<CD3D11EnumDeviceInfo * *>
_TEXT	ENDS
; Function compile flags: /Odtp /RTCsu
;	COMDAT ??$_Iter_cat@PAPAVCD3D11EnumDeviceInfo@@@std@@YA?AUrandom_access_iterator_tag@0@ABQAPAVCD3D11EnumDeviceInfo@@@Z
_TEXT	SEGMENT
__Cat$ = -5						; size = 1
___$ReturnUdt$ = 8					; size = 4
___formal$ = 12						; size = 4
??$_Iter_cat@PAPAVCD3D11EnumDeviceInfo@@@std@@YA?AUrandom_access_iterator_tag@0@ABQAPAVCD3D11EnumDeviceInfo@@@Z PROC ; std::_Iter_cat<CD3D11EnumDeviceInfo * *>, COMDAT
; File c:\program files (x86)\microsoft visual studio 12.0\vc\include\xutility
; Line 405
	push	ebp
	mov	ebp, esp
	sub	esp, 12					; 0000000cH
	mov	DWORD PTR [ebp-12], -858993460		; ccccccccH
	mov	DWORD PTR [ebp-8], -858993460		; ccccccccH
	mov	DWORD PTR [ebp-4], -858993460		; ccccccccH
; Line 407
	mov	eax, DWORD PTR ___$ReturnUdt$[ebp]
	mov	cl, BYTE PTR __Cat$[ebp]
	mov	BYTE PTR [eax], cl
	mov	eax, DWORD PTR ___$ReturnUdt$[ebp]
; Line 408
	push	edx
	mov	ecx, ebp
	push	eax
	lea	edx, DWORD PTR $LN5@Iter_cat
	call	@_RTC_CheckStackVars@8
	pop	eax
	pop	edx
	mov	esp, ebp
	pop	ebp
	ret	0
	npad	1
$LN5@Iter_cat:
	DD	1
	DD	$LN4@Iter_cat
$LN4@Iter_cat:
	DD	-5					; fffffffbH
	DD	1
	DD	$LN3@Iter_cat
$LN3@Iter_cat:
	DB	95					; 0000005fH
	DB	67					; 00000043H
	DB	97					; 00000061H
	DB	116					; 00000074H
	DB	0
??$_Iter_cat@PAPAVCD3D11EnumDeviceInfo@@@std@@YA?AUrandom_access_iterator_tag@0@ABQAPAVCD3D11EnumDeviceInfo@@@Z ENDP ; std::_Iter_cat<CD3D11EnumDeviceInfo * *>
_TEXT	ENDS
; Function compile flags: /Odtp /RTCsu
;	COMDAT ??$_Debug_range2@PAPAVCD3D11EnumOutputInfo@@@std@@YAXPAPAVCD3D11EnumOutputInfo@@0PB_WIUrandom_access_iterator_tag@0@@Z
_TEXT	SEGMENT
__First$ = 8						; size = 4
__Last$ = 12						; size = 4
__File$ = 16						; size = 4
__Line$ = 20						; size = 4
___formal$ = 24						; size = 1
??$_Debug_range2@PAPAVCD3D11EnumOutputInfo@@@std@@YAXPAPAVCD3D11EnumOutputInfo@@0PB_WIUrandom_access_iterator_tag@0@@Z PROC ; std::_Debug_range2<CD3D11EnumOutputInfo * *>, COMDAT
; File c:\program files (x86)\microsoft visual studio 12.0\vc\include\xutility
; Line 570
	push	ebp
	mov	ebp, esp
	push	esi
; Line 571
	mov	eax, DWORD PTR __First$[ebp]
	cmp	eax, DWORD PTR __Last$[ebp]
	je	SHORT $LN3@Debug_rang
; Line 573
	mov	ecx, DWORD PTR __Line$[ebp]
	push	ecx
	mov	edx, DWORD PTR __File$[ebp]
	push	edx
	mov	eax, DWORD PTR __First$[ebp]
	push	eax
	call	??$_Debug_pointer@PAVCD3D11EnumOutputInfo@@@std@@YAXPAPAVCD3D11EnumOutputInfo@@PB_WI@Z ; std::_Debug_pointer<CD3D11EnumOutputInfo *>
	add	esp, 12					; 0000000cH
; Line 574
	mov	ecx, DWORD PTR __Line$[ebp]
	push	ecx
	mov	edx, DWORD PTR __File$[ebp]
	push	edx
	mov	eax, DWORD PTR __Last$[ebp]
	push	eax
	call	??$_Debug_pointer@PAVCD3D11EnumOutputInfo@@@std@@YAXPAPAVCD3D11EnumOutputInfo@@PB_WI@Z ; std::_Debug_pointer<CD3D11EnumOutputInfo *>
	add	esp, 12					; 0000000cH
; Line 575
	mov	ecx, DWORD PTR __Last$[ebp]
	cmp	ecx, DWORD PTR __First$[ebp]
	jae	SHORT $LN3@Debug_rang
; Line 576
	mov	esi, esp
	mov	edx, DWORD PTR __Line$[ebp]
	push	edx
	mov	eax, DWORD PTR __File$[ebp]
	push	eax
	push	OFFSET ??_C@_1CO@DGLIKNHI@?$AAi?$AAn?$AAv?$AAa?$AAl?$AAi?$AAd?$AA?5?$AAi?$AAt?$AAe?$AAr?$AAa?$AAt?$AAo?$AAr?$AA?5?$AAr?$AAa?$AAn?$AAg?$AAe?$AA?$AA@
	call	DWORD PTR __imp_?_Debug_message@std@@YAXPB_W0I@Z
	add	esp, 12					; 0000000cH
	cmp	esi, esp
	call	__RTC_CheckEsp
$LN3@Debug_rang:
; Line 578
	pop	esi
	cmp	ebp, esp
	call	__RTC_CheckEsp
	pop	ebp
	ret	0
??$_Debug_range2@PAPAVCD3D11EnumOutputInfo@@@std@@YAXPAPAVCD3D11EnumOutputInfo@@0PB_WIUrandom_access_iterator_tag@0@@Z ENDP ; std::_Debug_range2<CD3D11EnumOutputInfo * *>
_TEXT	ENDS
; Function compile flags: /Odtp /RTCsu
;	COMDAT ??$_Iter_cat@PAPAVCD3D11EnumOutputInfo@@@std@@YA?AUrandom_access_iterator_tag@0@ABQAPAVCD3D11EnumOutputInfo@@@Z
_TEXT	SEGMENT
__Cat$ = -5						; size = 1
___$ReturnUdt$ = 8					; size = 4
___formal$ = 12						; size = 4
??$_Iter_cat@PAPAVCD3D11EnumOutputInfo@@@std@@YA?AUrandom_access_iterator_tag@0@ABQAPAVCD3D11EnumOutputInfo@@@Z PROC ; std::_Iter_cat<CD3D11EnumOutputInfo * *>, COMDAT
; File c:\program files (x86)\microsoft visual studio 12.0\vc\include\xutility
; Line 405
	push	ebp
	mov	ebp, esp
	sub	esp, 12					; 0000000cH
	mov	DWORD PTR [ebp-12], -858993460		; ccccccccH
	mov	DWORD PTR [ebp-8], -858993460		; ccccccccH
	mov	DWORD PTR [ebp-4], -858993460		; ccccccccH
; Line 407
	mov	eax, DWORD PTR ___$ReturnUdt$[ebp]
	mov	cl, BYTE PTR __Cat$[ebp]
	mov	BYTE PTR [eax], cl
	mov	eax, DWORD PTR ___$ReturnUdt$[ebp]
; Line 408
	push	edx
	mov	ecx, ebp
	push	eax
	lea	edx, DWORD PTR $LN5@Iter_cat
	call	@_RTC_CheckStackVars@8
	pop	eax
	pop	edx
	mov	esp, ebp
	pop	ebp
	ret	0
	npad	1
$LN5@Iter_cat:
	DD	1
	DD	$LN4@Iter_cat
$LN4@Iter_cat:
	DD	-5					; fffffffbH
	DD	1
	DD	$LN3@Iter_cat
$LN3@Iter_cat:
	DB	95					; 0000005fH
	DB	67					; 00000043H
	DB	97					; 00000061H
	DB	116					; 00000074H
	DB	0
??$_Iter_cat@PAPAVCD3D11EnumOutputInfo@@@std@@YA?AUrandom_access_iterator_tag@0@ABQAPAVCD3D11EnumOutputInfo@@@Z ENDP ; std::_Iter_cat<CD3D11EnumOutputInfo * *>
_TEXT	ENDS
; Function compile flags: /Odtp /RTCsu
;	COMDAT ??$_Debug_range2@PAPAVCD3D11EnumAdapterInfo@@@std@@YAXPAPAVCD3D11EnumAdapterInfo@@0PB_WIUrandom_access_iterator_tag@0@@Z
_TEXT	SEGMENT
__First$ = 8						; size = 4
__Last$ = 12						; size = 4
__File$ = 16						; size = 4
__Line$ = 20						; size = 4
___formal$ = 24						; size = 1
??$_Debug_range2@PAPAVCD3D11EnumAdapterInfo@@@std@@YAXPAPAVCD3D11EnumAdapterInfo@@0PB_WIUrandom_access_iterator_tag@0@@Z PROC ; std::_Debug_range2<CD3D11EnumAdapterInfo * *>, COMDAT
; File c:\program files (x86)\microsoft visual studio 12.0\vc\include\xutility
; Line 570
	push	ebp
	mov	ebp, esp
	push	esi
; Line 571
	mov	eax, DWORD PTR __First$[ebp]
	cmp	eax, DWORD PTR __Last$[ebp]
	je	SHORT $LN3@Debug_rang
; Line 573
	mov	ecx, DWORD PTR __Line$[ebp]
	push	ecx
	mov	edx, DWORD PTR __File$[ebp]
	push	edx
	mov	eax, DWORD PTR __First$[ebp]
	push	eax
	call	??$_Debug_pointer@PAVCD3D11EnumAdapterInfo@@@std@@YAXPAPAVCD3D11EnumAdapterInfo@@PB_WI@Z ; std::_Debug_pointer<CD3D11EnumAdapterInfo *>
	add	esp, 12					; 0000000cH
; Line 574
	mov	ecx, DWORD PTR __Line$[ebp]
	push	ecx
	mov	edx, DWORD PTR __File$[ebp]
	push	edx
	mov	eax, DWORD PTR __Last$[ebp]
	push	eax
	call	??$_Debug_pointer@PAVCD3D11EnumAdapterInfo@@@std@@YAXPAPAVCD3D11EnumAdapterInfo@@PB_WI@Z ; std::_Debug_pointer<CD3D11EnumAdapterInfo *>
	add	esp, 12					; 0000000cH
; Line 575
	mov	ecx, DWORD PTR __Last$[ebp]
	cmp	ecx, DWORD PTR __First$[ebp]
	jae	SHORT $LN3@Debug_rang
; Line 576
	mov	esi, esp
	mov	edx, DWORD PTR __Line$[ebp]
	push	edx
	mov	eax, DWORD PTR __File$[ebp]
	push	eax
	push	OFFSET ??_C@_1CO@DGLIKNHI@?$AAi?$AAn?$AAv?$AAa?$AAl?$AAi?$AAd?$AA?5?$AAi?$AAt?$AAe?$AAr?$AAa?$AAt?$AAo?$AAr?$AA?5?$AAr?$AAa?$AAn?$AAg?$AAe?$AA?$AA@
	call	DWORD PTR __imp_?_Debug_message@std@@YAXPB_W0I@Z
	add	esp, 12					; 0000000cH
	cmp	esi, esp
	call	__RTC_CheckEsp
$LN3@Debug_rang:
; Line 578
	pop	esi
	cmp	ebp, esp
	call	__RTC_CheckEsp
	pop	ebp
	ret	0
??$_Debug_range2@PAPAVCD3D11EnumAdapterInfo@@@std@@YAXPAPAVCD3D11EnumAdapterInfo@@0PB_WIUrandom_access_iterator_tag@0@@Z ENDP ; std::_Debug_range2<CD3D11EnumAdapterInfo * *>
_TEXT	ENDS
; Function compile flags: /Odtp /RTCsu
;	COMDAT ??$_Iter_cat@PAPAVCD3D11EnumAdapterInfo@@@std@@YA?AUrandom_access_iterator_tag@0@ABQAPAVCD3D11EnumAdapterInfo@@@Z
_TEXT	SEGMENT
__Cat$ = -5						; size = 1
___$ReturnUdt$ = 8					; size = 4
___formal$ = 12						; size = 4
??$_Iter_cat@PAPAVCD3D11EnumAdapterInfo@@@std@@YA?AUrandom_access_iterator_tag@0@ABQAPAVCD3D11EnumAdapterInfo@@@Z PROC ; std::_Iter_cat<CD3D11EnumAdapterInfo * *>, COMDAT
; File c:\program files (x86)\microsoft visual studio 12.0\vc\include\xutility
; Line 405
	push	ebp
	mov	ebp, esp
	sub	esp, 12					; 0000000cH
	mov	DWORD PTR [ebp-12], -858993460		; ccccccccH
	mov	DWORD PTR [ebp-8], -858993460		; ccccccccH
	mov	DWORD PTR [ebp-4], -858993460		; ccccccccH
; Line 407
	mov	eax, DWORD PTR ___$ReturnUdt$[ebp]
	mov	cl, BYTE PTR __Cat$[ebp]
	mov	BYTE PTR [eax], cl
	mov	eax, DWORD PTR ___$ReturnUdt$[ebp]
; Line 408
	push	edx
	mov	ecx, ebp
	push	eax
	lea	edx, DWORD PTR $LN5@Iter_cat
	call	@_RTC_CheckStackVars@8
	pop	eax
	pop	edx
	mov	esp, ebp
	pop	ebp
	ret	0
	npad	1
$LN5@Iter_cat:
	DD	1
	DD	$LN4@Iter_cat
$LN4@Iter_cat:
	DD	-5					; fffffffbH
	DD	1
	DD	$LN3@Iter_cat
$LN3@Iter_cat:
	DB	95					; 0000005fH
	DB	67					; 00000043H
	DB	97					; 00000061H
	DB	116					; 00000074H
	DB	0
??$_Iter_cat@PAPAVCD3D11EnumAdapterInfo@@@std@@YA?AUrandom_access_iterator_tag@0@ABQAPAVCD3D11EnumAdapterInfo@@@Z ENDP ; std::_Iter_cat<CD3D11EnumAdapterInfo * *>
_TEXT	ENDS
; Function compile flags: /Odtp /RTCsu
;	COMDAT ??$_Debug_range2@PAW4DXGI_FORMAT@@@std@@YAXPAW4DXGI_FORMAT@@0PB_WIUrandom_access_iterator_tag@0@@Z
_TEXT	SEGMENT
__First$ = 8						; size = 4
__Last$ = 12						; size = 4
__File$ = 16						; size = 4
__Line$ = 20						; size = 4
___formal$ = 24						; size = 1
??$_Debug_range2@PAW4DXGI_FORMAT@@@std@@YAXPAW4DXGI_FORMAT@@0PB_WIUrandom_access_iterator_tag@0@@Z PROC ; std::_Debug_range2<enum DXGI_FORMAT *>, COMDAT
; File c:\program files (x86)\microsoft visual studio 12.0\vc\include\xutility
; Line 570
	push	ebp
	mov	ebp, esp
	push	esi
; Line 571
	mov	eax, DWORD PTR __First$[ebp]
	cmp	eax, DWORD PTR __Last$[ebp]
	je	SHORT $LN3@Debug_rang
; Line 573
	mov	ecx, DWORD PTR __Line$[ebp]
	push	ecx
	mov	edx, DWORD PTR __File$[ebp]
	push	edx
	mov	eax, DWORD PTR __First$[ebp]
	push	eax
	call	??$_Debug_pointer@W4DXGI_FORMAT@@@std@@YAXPAW4DXGI_FORMAT@@PB_WI@Z ; std::_Debug_pointer<enum DXGI_FORMAT>
	add	esp, 12					; 0000000cH
; Line 574
	mov	ecx, DWORD PTR __Line$[ebp]
	push	ecx
	mov	edx, DWORD PTR __File$[ebp]
	push	edx
	mov	eax, DWORD PTR __Last$[ebp]
	push	eax
	call	??$_Debug_pointer@W4DXGI_FORMAT@@@std@@YAXPAW4DXGI_FORMAT@@PB_WI@Z ; std::_Debug_pointer<enum DXGI_FORMAT>
	add	esp, 12					; 0000000cH
; Line 575
	mov	ecx, DWORD PTR __Last$[ebp]
	cmp	ecx, DWORD PTR __First$[ebp]
	jae	SHORT $LN3@Debug_rang
; Line 576
	mov	esi, esp
	mov	edx, DWORD PTR __Line$[ebp]
	push	edx
	mov	eax, DWORD PTR __File$[ebp]
	push	eax
	push	OFFSET ??_C@_1CO@DGLIKNHI@?$AAi?$AAn?$AAv?$AAa?$AAl?$AAi?$AAd?$AA?5?$AAi?$AAt?$AAe?$AAr?$AAa?$AAt?$AAo?$AAr?$AA?5?$AAr?$AAa?$AAn?$AAg?$AAe?$AA?$AA@
	call	DWORD PTR __imp_?_Debug_message@std@@YAXPB_W0I@Z
	add	esp, 12					; 0000000cH
	cmp	esi, esp
	call	__RTC_CheckEsp
$LN3@Debug_rang:
; Line 578
	pop	esi
	cmp	ebp, esp
	call	__RTC_CheckEsp
	pop	ebp
	ret	0
??$_Debug_range2@PAW4DXGI_FORMAT@@@std@@YAXPAW4DXGI_FORMAT@@0PB_WIUrandom_access_iterator_tag@0@@Z ENDP ; std::_Debug_range2<enum DXGI_FORMAT *>
_TEXT	ENDS
; Function compile flags: /Odtp /RTCsu
;	COMDAT ??$_Iter_cat@PAW4DXGI_FORMAT@@@std@@YA?AUrandom_access_iterator_tag@0@ABQAW4DXGI_FORMAT@@@Z
_TEXT	SEGMENT
__Cat$ = -5						; size = 1
___$ReturnUdt$ = 8					; size = 4
___formal$ = 12						; size = 4
??$_Iter_cat@PAW4DXGI_FORMAT@@@std@@YA?AUrandom_access_iterator_tag@0@ABQAW4DXGI_FORMAT@@@Z PROC ; std::_Iter_cat<enum DXGI_FORMAT *>, COMDAT
; File c:\program files (x86)\microsoft visual studio 12.0\vc\include\xutility
; Line 405
	push	ebp
	mov	ebp, esp
	sub	esp, 12					; 0000000cH
	mov	DWORD PTR [ebp-12], -858993460		; ccccccccH
	mov	DWORD PTR [ebp-8], -858993460		; ccccccccH
	mov	DWORD PTR [ebp-4], -858993460		; ccccccccH
; Line 407
	mov	eax, DWORD PTR ___$ReturnUdt$[ebp]
	mov	cl, BYTE PTR __Cat$[ebp]
	mov	BYTE PTR [eax], cl
	mov	eax, DWORD PTR ___$ReturnUdt$[ebp]
; Line 408
	push	edx
	mov	ecx, ebp
	push	eax
	lea	edx, DWORD PTR $LN5@Iter_cat
	call	@_RTC_CheckStackVars@8
	pop	eax
	pop	edx
	mov	esp, ebp
	pop	ebp
	ret	0
	npad	1
$LN5@Iter_cat:
	DD	1
	DD	$LN4@Iter_cat
$LN4@Iter_cat:
	DD	-5					; fffffffbH
	DD	1
	DD	$LN3@Iter_cat
$LN3@Iter_cat:
	DB	95					; 0000005fH
	DB	67					; 00000043H
	DB	97					; 00000061H
	DB	116					; 00000074H
	DB	0
??$_Iter_cat@PAW4DXGI_FORMAT@@@std@@YA?AUrandom_access_iterator_tag@0@ABQAW4DXGI_FORMAT@@@Z ENDP ; std::_Iter_cat<enum DXGI_FORMAT *>
_TEXT	ENDS
; Function compile flags: /Odtp /RTCsu
;	COMDAT ??$_Debug_pointer@I@std@@YAXPAIPB_WI@Z
_TEXT	SEGMENT
__First$ = 8						; size = 4
__File$ = 12						; size = 4
__Line$ = 16						; size = 4
??$_Debug_pointer@I@std@@YAXPAIPB_WI@Z PROC		; std::_Debug_pointer<unsigned int>, COMDAT
; File c:\program files (x86)\microsoft visual studio 12.0\vc\include\xutility
; Line 552
	push	ebp
	mov	ebp, esp
	push	esi
; Line 553
	cmp	DWORD PTR __First$[ebp], 0
	jne	SHORT $LN2@Debug_poin
; Line 554
	mov	esi, esp
	mov	eax, DWORD PTR __Line$[ebp]
	push	eax
	mov	ecx, DWORD PTR __File$[ebp]
	push	ecx
	push	OFFSET ??_C@_1CK@EOPGIILJ@?$AAi?$AAn?$AAv?$AAa?$AAl?$AAi?$AAd?$AA?5?$AAn?$AAu?$AAl?$AAl?$AA?5?$AAp?$AAo?$AAi?$AAn?$AAt?$AAe?$AAr?$AA?$AA@
	call	DWORD PTR __imp_?_Debug_message@std@@YAXPB_W0I@Z
	add	esp, 12					; 0000000cH
	cmp	esi, esp
	call	__RTC_CheckEsp
$LN2@Debug_poin:
; Line 555
	pop	esi
	cmp	ebp, esp
	call	__RTC_CheckEsp
	pop	ebp
	ret	0
??$_Debug_pointer@I@std@@YAXPAIPB_WI@Z ENDP		; std::_Debug_pointer<unsigned int>
_TEXT	ENDS
; Function compile flags: /Odtp /RTCsu
;	COMDAT ??$_Debug_range@PAI@std@@YAXPAI0PB_WI@Z
_TEXT	SEGMENT
$T1 = -1						; size = 1
__First$ = 8						; size = 4
__Last$ = 12						; size = 4
__File$ = 16						; size = 4
__Line$ = 20						; size = 4
??$_Debug_range@PAI@std@@YAXPAI0PB_WI@Z PROC		; std::_Debug_range<unsigned int *>, COMDAT
; File c:\program files (x86)\microsoft visual studio 12.0\vc\include\xutility
; Line 583
	push	ebp
	mov	ebp, esp
	push	ecx
	mov	DWORD PTR [ebp-4], -858993460		; ccccccccH
; Line 584
	lea	eax, DWORD PTR __First$[ebp]
	push	eax
	lea	ecx, DWORD PTR $T1[ebp]
	push	ecx
	call	??$_Iter_cat@PAI@std@@YA?AUrandom_access_iterator_tag@0@ABQAI@Z ; std::_Iter_cat<unsigned int *>
	add	esp, 8
	mov	dl, BYTE PTR [eax]
	movzx	eax, dl
	push	eax
	mov	ecx, DWORD PTR __Line$[ebp]
	push	ecx
	mov	edx, DWORD PTR __File$[ebp]
	push	edx
	mov	eax, DWORD PTR __Last$[ebp]
	push	eax
	mov	ecx, DWORD PTR __First$[ebp]
	push	ecx
	call	??$_Debug_range2@PAI@std@@YAXPAI0PB_WIUrandom_access_iterator_tag@0@@Z ; std::_Debug_range2<unsigned int *>
	add	esp, 20					; 00000014H
; Line 585
	add	esp, 4
	cmp	ebp, esp
	call	__RTC_CheckEsp
	mov	esp, ebp
	pop	ebp
	ret	0
??$_Debug_range@PAI@std@@YAXPAI0PB_WI@Z ENDP		; std::_Debug_range<unsigned int *>
_TEXT	ENDS
; Function compile flags: /Odtp /RTCsu
;	COMDAT ??$construct@UDXGI_MODE_DESC@@U1@@?$_Wrap_alloc@V?$allocator@UDXGI_MODE_DESC@@@std@@@std@@QAEXPAUDXGI_MODE_DESC@@$$QAU2@@Z
_TEXT	SEGMENT
_this$ = -4						; size = 4
__Ptr$ = 8						; size = 4
_<_Args_0>$ = 12					; size = 4
??$construct@UDXGI_MODE_DESC@@U1@@?$_Wrap_alloc@V?$allocator@UDXGI_MODE_DESC@@@std@@@std@@QAEXPAUDXGI_MODE_DESC@@$$QAU2@@Z PROC ; std::_Wrap_alloc<std::allocator<DXGI_MODE_DESC> >::construct<DXGI_MODE_DESC,DXGI_MODE_DESC>, COMDAT
; _this$ = ecx
; File c:\program files (x86)\microsoft visual studio 12.0\vc\include\xmemory0
; Line 868
	push	ebp
	mov	ebp, esp
	push	ecx
	mov	DWORD PTR [ebp-4], -858993460		; ccccccccH
	mov	DWORD PTR _this$[ebp], ecx
; Line 872
	mov	eax, DWORD PTR _<_Args_0>$[ebp]
	push	eax
	call	??$forward@UDXGI_MODE_DESC@@@std@@YA$$QAUDXGI_MODE_DESC@@AAU1@@Z ; std::forward<DXGI_MODE_DESC>
	add	esp, 4
	push	eax
	mov	ecx, DWORD PTR __Ptr$[ebp]
	push	ecx
	mov	edx, DWORD PTR _this$[ebp]
	push	edx
	call	??$construct@UDXGI_MODE_DESC@@U1@@?$allocator_traits@V?$allocator@UDXGI_MODE_DESC@@@std@@@std@@SAXAAV?$allocator@UDXGI_MODE_DESC@@@1@PAUDXGI_MODE_DESC@@$$QAU3@@Z ; std::allocator_traits<std::allocator<DXGI_MODE_DESC> >::construct<DXGI_MODE_DESC,DXGI_MODE_DESC>
	add	esp, 12					; 0000000cH
; Line 873
	add	esp, 4
	cmp	ebp, esp
	call	__RTC_CheckEsp
	mov	esp, ebp
	pop	ebp
	ret	8
??$construct@UDXGI_MODE_DESC@@U1@@?$_Wrap_alloc@V?$allocator@UDXGI_MODE_DESC@@@std@@@std@@QAEXPAUDXGI_MODE_DESC@@$$QAU2@@Z ENDP ; std::_Wrap_alloc<std::allocator<DXGI_MODE_DESC> >::construct<DXGI_MODE_DESC,DXGI_MODE_DESC>
_TEXT	ENDS
; Function compile flags: /Odtp /RTCsu
;	COMDAT ??$_Debug_pointer@UDXGI_MODE_DESC@@@std@@YAXPAUDXGI_MODE_DESC@@PB_WI@Z
_TEXT	SEGMENT
__First$ = 8						; size = 4
__File$ = 12						; size = 4
__Line$ = 16						; size = 4
??$_Debug_pointer@UDXGI_MODE_DESC@@@std@@YAXPAUDXGI_MODE_DESC@@PB_WI@Z PROC ; std::_Debug_pointer<DXGI_MODE_DESC>, COMDAT
; File c:\program files (x86)\microsoft visual studio 12.0\vc\include\xutility
; Line 552
	push	ebp
	mov	ebp, esp
	push	esi
; Line 553
	cmp	DWORD PTR __First$[ebp], 0
	jne	SHORT $LN2@Debug_poin
; Line 554
	mov	esi, esp
	mov	eax, DWORD PTR __Line$[ebp]
	push	eax
	mov	ecx, DWORD PTR __File$[ebp]
	push	ecx
	push	OFFSET ??_C@_1CK@EOPGIILJ@?$AAi?$AAn?$AAv?$AAa?$AAl?$AAi?$AAd?$AA?5?$AAn?$AAu?$AAl?$AAl?$AA?5?$AAp?$AAo?$AAi?$AAn?$AAt?$AAe?$AAr?$AA?$AA@
	call	DWORD PTR __imp_?_Debug_message@std@@YAXPB_W0I@Z
	add	esp, 12					; 0000000cH
	cmp	esi, esp
	call	__RTC_CheckEsp
$LN2@Debug_poin:
; Line 555
	pop	esi
	cmp	ebp, esp
	call	__RTC_CheckEsp
	pop	ebp
	ret	0
??$_Debug_pointer@UDXGI_MODE_DESC@@@std@@YAXPAUDXGI_MODE_DESC@@PB_WI@Z ENDP ; std::_Debug_pointer<DXGI_MODE_DESC>
_TEXT	ENDS
; Function compile flags: /Odtp /RTCsu
;	COMDAT ??$_Debug_range@PAUDXGI_MODE_DESC@@@std@@YAXPAUDXGI_MODE_DESC@@0PB_WI@Z
_TEXT	SEGMENT
$T1 = -1						; size = 1
__First$ = 8						; size = 4
__Last$ = 12						; size = 4
__File$ = 16						; size = 4
__Line$ = 20						; size = 4
??$_Debug_range@PAUDXGI_MODE_DESC@@@std@@YAXPAUDXGI_MODE_DESC@@0PB_WI@Z PROC ; std::_Debug_range<DXGI_MODE_DESC *>, COMDAT
; File c:\program files (x86)\microsoft visual studio 12.0\vc\include\xutility
; Line 583
	push	ebp
	mov	ebp, esp
	push	ecx
	mov	DWORD PTR [ebp-4], -858993460		; ccccccccH
; Line 584
	lea	eax, DWORD PTR __First$[ebp]
	push	eax
	lea	ecx, DWORD PTR $T1[ebp]
	push	ecx
	call	??$_Iter_cat@PAUDXGI_MODE_DESC@@@std@@YA?AUrandom_access_iterator_tag@0@ABQAUDXGI_MODE_DESC@@@Z ; std::_Iter_cat<DXGI_MODE_DESC *>
	add	esp, 8
	mov	dl, BYTE PTR [eax]
	movzx	eax, dl
	push	eax
	mov	ecx, DWORD PTR __Line$[ebp]
	push	ecx
	mov	edx, DWORD PTR __File$[ebp]
	push	edx
	mov	eax, DWORD PTR __Last$[ebp]
	push	eax
	mov	ecx, DWORD PTR __First$[ebp]
	push	ecx
	call	??$_Debug_range2@PAUDXGI_MODE_DESC@@@std@@YAXPAUDXGI_MODE_DESC@@0PB_WIUrandom_access_iterator_tag@0@@Z ; std::_Debug_range2<DXGI_MODE_DESC *>
	add	esp, 20					; 00000014H
; Line 585
	add	esp, 4
	cmp	ebp, esp
	call	__RTC_CheckEsp
	mov	esp, ebp
	pop	ebp
	ret	0
??$_Debug_range@PAUDXGI_MODE_DESC@@@std@@YAXPAUDXGI_MODE_DESC@@0PB_WI@Z ENDP ; std::_Debug_range<DXGI_MODE_DESC *>
_TEXT	ENDS
; Function compile flags: /Odtp /RTCsu
;	COMDAT ??$_Debug_pointer@PAUCD3D11EnumDeviceSettingsCombo@@@std@@YAXPAPAUCD3D11EnumDeviceSettingsCombo@@PB_WI@Z
_TEXT	SEGMENT
__First$ = 8						; size = 4
__File$ = 12						; size = 4
__Line$ = 16						; size = 4
??$_Debug_pointer@PAUCD3D11EnumDeviceSettingsCombo@@@std@@YAXPAPAUCD3D11EnumDeviceSettingsCombo@@PB_WI@Z PROC ; std::_Debug_pointer<CD3D11EnumDeviceSettingsCombo *>, COMDAT
; File c:\program files (x86)\microsoft visual studio 12.0\vc\include\xutility
; Line 552
	push	ebp
	mov	ebp, esp
	push	esi
; Line 553
	cmp	DWORD PTR __First$[ebp], 0
	jne	SHORT $LN2@Debug_poin
; Line 554
	mov	esi, esp
	mov	eax, DWORD PTR __Line$[ebp]
	push	eax
	mov	ecx, DWORD PTR __File$[ebp]
	push	ecx
	push	OFFSET ??_C@_1CK@EOPGIILJ@?$AAi?$AAn?$AAv?$AAa?$AAl?$AAi?$AAd?$AA?5?$AAn?$AAu?$AAl?$AAl?$AA?5?$AAp?$AAo?$AAi?$AAn?$AAt?$AAe?$AAr?$AA?$AA@
	call	DWORD PTR __imp_?_Debug_message@std@@YAXPB_W0I@Z
	add	esp, 12					; 0000000cH
	cmp	esi, esp
	call	__RTC_CheckEsp
$LN2@Debug_poin:
; Line 555
	pop	esi
	cmp	ebp, esp
	call	__RTC_CheckEsp
	pop	ebp
	ret	0
??$_Debug_pointer@PAUCD3D11EnumDeviceSettingsCombo@@@std@@YAXPAPAUCD3D11EnumDeviceSettingsCombo@@PB_WI@Z ENDP ; std::_Debug_pointer<CD3D11EnumDeviceSettingsCombo *>
_TEXT	ENDS
; Function compile flags: /Odtp /RTCsu
;	COMDAT ??$_Debug_range@PAPAUCD3D11EnumDeviceSettingsCombo@@@std@@YAXPAPAUCD3D11EnumDeviceSettingsCombo@@0PB_WI@Z
_TEXT	SEGMENT
$T1 = -1						; size = 1
__First$ = 8						; size = 4
__Last$ = 12						; size = 4
__File$ = 16						; size = 4
__Line$ = 20						; size = 4
??$_Debug_range@PAPAUCD3D11EnumDeviceSettingsCombo@@@std@@YAXPAPAUCD3D11EnumDeviceSettingsCombo@@0PB_WI@Z PROC ; std::_Debug_range<CD3D11EnumDeviceSettingsCombo * *>, COMDAT
; File c:\program files (x86)\microsoft visual studio 12.0\vc\include\xutility
; Line 583
	push	ebp
	mov	ebp, esp
	push	ecx
	mov	DWORD PTR [ebp-4], -858993460		; ccccccccH
; Line 584
	lea	eax, DWORD PTR __First$[ebp]
	push	eax
	lea	ecx, DWORD PTR $T1[ebp]
	push	ecx
	call	??$_Iter_cat@PAPAUCD3D11EnumDeviceSettingsCombo@@@std@@YA?AUrandom_access_iterator_tag@0@ABQAPAUCD3D11EnumDeviceSettingsCombo@@@Z ; std::_Iter_cat<CD3D11EnumDeviceSettingsCombo * *>
	add	esp, 8
	mov	dl, BYTE PTR [eax]
	movzx	eax, dl
	push	eax
	mov	ecx, DWORD PTR __Line$[ebp]
	push	ecx
	mov	edx, DWORD PTR __File$[ebp]
	push	edx
	mov	eax, DWORD PTR __Last$[ebp]
	push	eax
	mov	ecx, DWORD PTR __First$[ebp]
	push	ecx
	call	??$_Debug_range2@PAPAUCD3D11EnumDeviceSettingsCombo@@@std@@YAXPAPAUCD3D11EnumDeviceSettingsCombo@@0PB_WIUrandom_access_iterator_tag@0@@Z ; std::_Debug_range2<CD3D11EnumDeviceSettingsCombo * *>
	add	esp, 20					; 00000014H
; Line 585
	add	esp, 4
	cmp	ebp, esp
	call	__RTC_CheckEsp
	mov	esp, ebp
	pop	ebp
	ret	0
??$_Debug_range@PAPAUCD3D11EnumDeviceSettingsCombo@@@std@@YAXPAPAUCD3D11EnumDeviceSettingsCombo@@0PB_WI@Z ENDP ; std::_Debug_range<CD3D11EnumDeviceSettingsCombo * *>
_TEXT	ENDS
; Function compile flags: /Odtp /RTCsu
;	COMDAT ??$_Debug_pointer@PAVCD3D11EnumDeviceInfo@@@std@@YAXPAPAVCD3D11EnumDeviceInfo@@PB_WI@Z
_TEXT	SEGMENT
__First$ = 8						; size = 4
__File$ = 12						; size = 4
__Line$ = 16						; size = 4
??$_Debug_pointer@PAVCD3D11EnumDeviceInfo@@@std@@YAXPAPAVCD3D11EnumDeviceInfo@@PB_WI@Z PROC ; std::_Debug_pointer<CD3D11EnumDeviceInfo *>, COMDAT
; File c:\program files (x86)\microsoft visual studio 12.0\vc\include\xutility
; Line 552
	push	ebp
	mov	ebp, esp
	push	esi
; Line 553
	cmp	DWORD PTR __First$[ebp], 0
	jne	SHORT $LN2@Debug_poin
; Line 554
	mov	esi, esp
	mov	eax, DWORD PTR __Line$[ebp]
	push	eax
	mov	ecx, DWORD PTR __File$[ebp]
	push	ecx
	push	OFFSET ??_C@_1CK@EOPGIILJ@?$AAi?$AAn?$AAv?$AAa?$AAl?$AAi?$AAd?$AA?5?$AAn?$AAu?$AAl?$AAl?$AA?5?$AAp?$AAo?$AAi?$AAn?$AAt?$AAe?$AAr?$AA?$AA@
	call	DWORD PTR __imp_?_Debug_message@std@@YAXPB_W0I@Z
	add	esp, 12					; 0000000cH
	cmp	esi, esp
	call	__RTC_CheckEsp
$LN2@Debug_poin:
; Line 555
	pop	esi
	cmp	ebp, esp
	call	__RTC_CheckEsp
	pop	ebp
	ret	0
??$_Debug_pointer@PAVCD3D11EnumDeviceInfo@@@std@@YAXPAPAVCD3D11EnumDeviceInfo@@PB_WI@Z ENDP ; std::_Debug_pointer<CD3D11EnumDeviceInfo *>
_TEXT	ENDS
; Function compile flags: /Odtp /RTCsu
;	COMDAT ??$_Debug_range@PAPAVCD3D11EnumDeviceInfo@@@std@@YAXPAPAVCD3D11EnumDeviceInfo@@0PB_WI@Z
_TEXT	SEGMENT
$T1 = -1						; size = 1
__First$ = 8						; size = 4
__Last$ = 12						; size = 4
__File$ = 16						; size = 4
__Line$ = 20						; size = 4
??$_Debug_range@PAPAVCD3D11EnumDeviceInfo@@@std@@YAXPAPAVCD3D11EnumDeviceInfo@@0PB_WI@Z PROC ; std::_Debug_range<CD3D11EnumDeviceInfo * *>, COMDAT
; File c:\program files (x86)\microsoft visual studio 12.0\vc\include\xutility
; Line 583
	push	ebp
	mov	ebp, esp
	push	ecx
	mov	DWORD PTR [ebp-4], -858993460		; ccccccccH
; Line 584
	lea	eax, DWORD PTR __First$[ebp]
	push	eax
	lea	ecx, DWORD PTR $T1[ebp]
	push	ecx
	call	??$_Iter_cat@PAPAVCD3D11EnumDeviceInfo@@@std@@YA?AUrandom_access_iterator_tag@0@ABQAPAVCD3D11EnumDeviceInfo@@@Z ; std::_Iter_cat<CD3D11EnumDeviceInfo * *>
	add	esp, 8
	mov	dl, BYTE PTR [eax]
	movzx	eax, dl
	push	eax
	mov	ecx, DWORD PTR __Line$[ebp]
	push	ecx
	mov	edx, DWORD PTR __File$[ebp]
	push	edx
	mov	eax, DWORD PTR __Last$[ebp]
	push	eax
	mov	ecx, DWORD PTR __First$[ebp]
	push	ecx
	call	??$_Debug_range2@PAPAVCD3D11EnumDeviceInfo@@@std@@YAXPAPAVCD3D11EnumDeviceInfo@@0PB_WIUrandom_access_iterator_tag@0@@Z ; std::_Debug_range2<CD3D11EnumDeviceInfo * *>
	add	esp, 20					; 00000014H
; Line 585
	add	esp, 4
	cmp	ebp, esp
	call	__RTC_CheckEsp
	mov	esp, ebp
	pop	ebp
	ret	0
??$_Debug_range@PAPAVCD3D11EnumDeviceInfo@@@std@@YAXPAPAVCD3D11EnumDeviceInfo@@0PB_WI@Z ENDP ; std::_Debug_range<CD3D11EnumDeviceInfo * *>
_TEXT	ENDS
; Function compile flags: /Odtp /RTCsu
;	COMDAT ??$_Debug_pointer@PAVCD3D11EnumOutputInfo@@@std@@YAXPAPAVCD3D11EnumOutputInfo@@PB_WI@Z
_TEXT	SEGMENT
__First$ = 8						; size = 4
__File$ = 12						; size = 4
__Line$ = 16						; size = 4
??$_Debug_pointer@PAVCD3D11EnumOutputInfo@@@std@@YAXPAPAVCD3D11EnumOutputInfo@@PB_WI@Z PROC ; std::_Debug_pointer<CD3D11EnumOutputInfo *>, COMDAT
; File c:\program files (x86)\microsoft visual studio 12.0\vc\include\xutility
; Line 552
	push	ebp
	mov	ebp, esp
	push	esi
; Line 553
	cmp	DWORD PTR __First$[ebp], 0
	jne	SHORT $LN2@Debug_poin
; Line 554
	mov	esi, esp
	mov	eax, DWORD PTR __Line$[ebp]
	push	eax
	mov	ecx, DWORD PTR __File$[ebp]
	push	ecx
	push	OFFSET ??_C@_1CK@EOPGIILJ@?$AAi?$AAn?$AAv?$AAa?$AAl?$AAi?$AAd?$AA?5?$AAn?$AAu?$AAl?$AAl?$AA?5?$AAp?$AAo?$AAi?$AAn?$AAt?$AAe?$AAr?$AA?$AA@
	call	DWORD PTR __imp_?_Debug_message@std@@YAXPB_W0I@Z
	add	esp, 12					; 0000000cH
	cmp	esi, esp
	call	__RTC_CheckEsp
$LN2@Debug_poin:
; Line 555
	pop	esi
	cmp	ebp, esp
	call	__RTC_CheckEsp
	pop	ebp
	ret	0
??$_Debug_pointer@PAVCD3D11EnumOutputInfo@@@std@@YAXPAPAVCD3D11EnumOutputInfo@@PB_WI@Z ENDP ; std::_Debug_pointer<CD3D11EnumOutputInfo *>
_TEXT	ENDS
; Function compile flags: /Odtp /RTCsu
;	COMDAT ??$_Debug_range@PAPAVCD3D11EnumOutputInfo@@@std@@YAXPAPAVCD3D11EnumOutputInfo@@0PB_WI@Z
_TEXT	SEGMENT
$T1 = -1						; size = 1
__First$ = 8						; size = 4
__Last$ = 12						; size = 4
__File$ = 16						; size = 4
__Line$ = 20						; size = 4
??$_Debug_range@PAPAVCD3D11EnumOutputInfo@@@std@@YAXPAPAVCD3D11EnumOutputInfo@@0PB_WI@Z PROC ; std::_Debug_range<CD3D11EnumOutputInfo * *>, COMDAT
; File c:\program files (x86)\microsoft visual studio 12.0\vc\include\xutility
; Line 583
	push	ebp
	mov	ebp, esp
	push	ecx
	mov	DWORD PTR [ebp-4], -858993460		; ccccccccH
; Line 584
	lea	eax, DWORD PTR __First$[ebp]
	push	eax
	lea	ecx, DWORD PTR $T1[ebp]
	push	ecx
	call	??$_Iter_cat@PAPAVCD3D11EnumOutputInfo@@@std@@YA?AUrandom_access_iterator_tag@0@ABQAPAVCD3D11EnumOutputInfo@@@Z ; std::_Iter_cat<CD3D11EnumOutputInfo * *>
	add	esp, 8
	mov	dl, BYTE PTR [eax]
	movzx	eax, dl
	push	eax
	mov	ecx, DWORD PTR __Line$[ebp]
	push	ecx
	mov	edx, DWORD PTR __File$[ebp]
	push	edx
	mov	eax, DWORD PTR __Last$[ebp]
	push	eax
	mov	ecx, DWORD PTR __First$[ebp]
	push	ecx
	call	??$_Debug_range2@PAPAVCD3D11EnumOutputInfo@@@std@@YAXPAPAVCD3D11EnumOutputInfo@@0PB_WIUrandom_access_iterator_tag@0@@Z ; std::_Debug_range2<CD3D11EnumOutputInfo * *>
	add	esp, 20					; 00000014H
; Line 585
	add	esp, 4
	cmp	ebp, esp
	call	__RTC_CheckEsp
	mov	esp, ebp
	pop	ebp
	ret	0
??$_Debug_range@PAPAVCD3D11EnumOutputInfo@@@std@@YAXPAPAVCD3D11EnumOutputInfo@@0PB_WI@Z ENDP ; std::_Debug_range<CD3D11EnumOutputInfo * *>
_TEXT	ENDS
; Function compile flags: /Odtp /RTCsu
;	COMDAT ??$_Debug_pointer@PAVCD3D11EnumAdapterInfo@@@std@@YAXPAPAVCD3D11EnumAdapterInfo@@PB_WI@Z
_TEXT	SEGMENT
__First$ = 8						; size = 4
__File$ = 12						; size = 4
__Line$ = 16						; size = 4
??$_Debug_pointer@PAVCD3D11EnumAdapterInfo@@@std@@YAXPAPAVCD3D11EnumAdapterInfo@@PB_WI@Z PROC ; std::_Debug_pointer<CD3D11EnumAdapterInfo *>, COMDAT
; File c:\program files (x86)\microsoft visual studio 12.0\vc\include\xutility
; Line 552
	push	ebp
	mov	ebp, esp
	push	esi
; Line 553
	cmp	DWORD PTR __First$[ebp], 0
	jne	SHORT $LN2@Debug_poin
; Line 554
	mov	esi, esp
	mov	eax, DWORD PTR __Line$[ebp]
	push	eax
	mov	ecx, DWORD PTR __File$[ebp]
	push	ecx
	push	OFFSET ??_C@_1CK@EOPGIILJ@?$AAi?$AAn?$AAv?$AAa?$AAl?$AAi?$AAd?$AA?5?$AAn?$AAu?$AAl?$AAl?$AA?5?$AAp?$AAo?$AAi?$AAn?$AAt?$AAe?$AAr?$AA?$AA@
	call	DWORD PTR __imp_?_Debug_message@std@@YAXPB_W0I@Z
	add	esp, 12					; 0000000cH
	cmp	esi, esp
	call	__RTC_CheckEsp
$LN2@Debug_poin:
; Line 555
	pop	esi
	cmp	ebp, esp
	call	__RTC_CheckEsp
	pop	ebp
	ret	0
??$_Debug_pointer@PAVCD3D11EnumAdapterInfo@@@std@@YAXPAPAVCD3D11EnumAdapterInfo@@PB_WI@Z ENDP ; std::_Debug_pointer<CD3D11EnumAdapterInfo *>
_TEXT	ENDS
; Function compile flags: /Odtp /RTCsu
;	COMDAT ??$_Debug_range@PAPAVCD3D11EnumAdapterInfo@@@std@@YAXPAPAVCD3D11EnumAdapterInfo@@0PB_WI@Z
_TEXT	SEGMENT
$T1 = -1						; size = 1
__First$ = 8						; size = 4
__Last$ = 12						; size = 4
__File$ = 16						; size = 4
__Line$ = 20						; size = 4
??$_Debug_range@PAPAVCD3D11EnumAdapterInfo@@@std@@YAXPAPAVCD3D11EnumAdapterInfo@@0PB_WI@Z PROC ; std::_Debug_range<CD3D11EnumAdapterInfo * *>, COMDAT
; File c:\program files (x86)\microsoft visual studio 12.0\vc\include\xutility
; Line 583
	push	ebp
	mov	ebp, esp
	push	ecx
	mov	DWORD PTR [ebp-4], -858993460		; ccccccccH
; Line 584
	lea	eax, DWORD PTR __First$[ebp]
	push	eax
	lea	ecx, DWORD PTR $T1[ebp]
	push	ecx
	call	??$_Iter_cat@PAPAVCD3D11EnumAdapterInfo@@@std@@YA?AUrandom_access_iterator_tag@0@ABQAPAVCD3D11EnumAdapterInfo@@@Z ; std::_Iter_cat<CD3D11EnumAdapterInfo * *>
	add	esp, 8
	mov	dl, BYTE PTR [eax]
	movzx	eax, dl
	push	eax
	mov	ecx, DWORD PTR __Line$[ebp]
	push	ecx
	mov	edx, DWORD PTR __File$[ebp]
	push	edx
	mov	eax, DWORD PTR __Last$[ebp]
	push	eax
	mov	ecx, DWORD PTR __First$[ebp]
	push	ecx
	call	??$_Debug_range2@PAPAVCD3D11EnumAdapterInfo@@@std@@YAXPAPAVCD3D11EnumAdapterInfo@@0PB_WIUrandom_access_iterator_tag@0@@Z ; std::_Debug_range2<CD3D11EnumAdapterInfo * *>
	add	esp, 20					; 00000014H
; Line 585
	add	esp, 4
	cmp	ebp, esp
	call	__RTC_CheckEsp
	mov	esp, ebp
	pop	ebp
	ret	0
??$_Debug_range@PAPAVCD3D11EnumAdapterInfo@@@std@@YAXPAPAVCD3D11EnumAdapterInfo@@0PB_WI@Z ENDP ; std::_Debug_range<CD3D11EnumAdapterInfo * *>
_TEXT	ENDS
; Function compile flags: /Odtp /RTCsu
;	COMDAT ??$_Debug_pointer@W4DXGI_FORMAT@@@std@@YAXPAW4DXGI_FORMAT@@PB_WI@Z
_TEXT	SEGMENT
__First$ = 8						; size = 4
__File$ = 12						; size = 4
__Line$ = 16						; size = 4
??$_Debug_pointer@W4DXGI_FORMAT@@@std@@YAXPAW4DXGI_FORMAT@@PB_WI@Z PROC ; std::_Debug_pointer<enum DXGI_FORMAT>, COMDAT
; File c:\program files (x86)\microsoft visual studio 12.0\vc\include\xutility
; Line 552
	push	ebp
	mov	ebp, esp
	push	esi
; Line 553
	cmp	DWORD PTR __First$[ebp], 0
	jne	SHORT $LN2@Debug_poin
; Line 554
	mov	esi, esp
	mov	eax, DWORD PTR __Line$[ebp]
	push	eax
	mov	ecx, DWORD PTR __File$[ebp]
	push	ecx
	push	OFFSET ??_C@_1CK@EOPGIILJ@?$AAi?$AAn?$AAv?$AAa?$AAl?$AAi?$AAd?$AA?5?$AAn?$AAu?$AAl?$AAl?$AA?5?$AAp?$AAo?$AAi?$AAn?$AAt?$AAe?$AAr?$AA?$AA@
	call	DWORD PTR __imp_?_Debug_message@std@@YAXPB_W0I@Z
	add	esp, 12					; 0000000cH
	cmp	esi, esp
	call	__RTC_CheckEsp
$LN2@Debug_poin:
; Line 555
	pop	esi
	cmp	ebp, esp
	call	__RTC_CheckEsp
	pop	ebp
	ret	0
??$_Debug_pointer@W4DXGI_FORMAT@@@std@@YAXPAW4DXGI_FORMAT@@PB_WI@Z ENDP ; std::_Debug_pointer<enum DXGI_FORMAT>
_TEXT	ENDS
; Function compile flags: /Odtp /RTCsu
;	COMDAT ??$_Debug_range@PAW4DXGI_FORMAT@@@std@@YAXPAW4DXGI_FORMAT@@0PB_WI@Z
_TEXT	SEGMENT
$T1 = -1						; size = 1
__First$ = 8						; size = 4
__Last$ = 12						; size = 4
__File$ = 16						; size = 4
__Line$ = 20						; size = 4
??$_Debug_range@PAW4DXGI_FORMAT@@@std@@YAXPAW4DXGI_FORMAT@@0PB_WI@Z PROC ; std::_Debug_range<enum DXGI_FORMAT *>, COMDAT
; File c:\program files (x86)\microsoft visual studio 12.0\vc\include\xutility
; Line 583
	push	ebp
	mov	ebp, esp
	push	ecx
	mov	DWORD PTR [ebp-4], -858993460		; ccccccccH
; Line 584
	lea	eax, DWORD PTR __First$[ebp]
	push	eax
	lea	ecx, DWORD PTR $T1[ebp]
	push	ecx
	call	??$_Iter_cat@PAW4DXGI_FORMAT@@@std@@YA?AUrandom_access_iterator_tag@0@ABQAW4DXGI_FORMAT@@@Z ; std::_Iter_cat<enum DXGI_FORMAT *>
	add	esp, 8
	mov	dl, BYTE PTR [eax]
	movzx	eax, dl
	push	eax
	mov	ecx, DWORD PTR __Line$[ebp]
	push	ecx
	mov	edx, DWORD PTR __File$[ebp]
	push	edx
	mov	eax, DWORD PTR __Last$[ebp]
	push	eax
	mov	ecx, DWORD PTR __First$[ebp]
	push	ecx
	call	??$_Debug_range2@PAW4DXGI_FORMAT@@@std@@YAXPAW4DXGI_FORMAT@@0PB_WIUrandom_access_iterator_tag@0@@Z ; std::_Debug_range2<enum DXGI_FORMAT *>
	add	esp, 20					; 00000014H
; Line 585
	add	esp, 4
	cmp	ebp, esp
	call	__RTC_CheckEsp
	mov	esp, ebp
	pop	ebp
	ret	0
??$_Debug_range@PAW4DXGI_FORMAT@@@std@@YAXPAW4DXGI_FORMAT@@0PB_WI@Z ENDP ; std::_Debug_range<enum DXGI_FORMAT *>
_TEXT	ENDS
; Function compile flags: /Odtp /RTCsu
;	COMDAT ??$_Uninit_move@III@std@@YAPAIPAI00AAU?$_Wrap_alloc@V?$allocator@I@std@@@0@0U_Scalar_ptr_iterator_tag@0@@Z
_TEXT	SEGMENT
__Count$ = -4						; size = 4
__First$ = 8						; size = 4
__Last$ = 12						; size = 4
__Dest$ = 16						; size = 4
___formal$ = 20						; size = 4
___formal$ = 24						; size = 4
___formal$ = 28						; size = 1
??$_Uninit_move@III@std@@YAPAIPAI00AAU?$_Wrap_alloc@V?$allocator@I@std@@@0@0U_Scalar_ptr_iterator_tag@0@@Z PROC ; std::_Uninit_move<unsigned int,unsigned int,unsigned int>, COMDAT
; File c:\program files (x86)\microsoft visual studio 12.0\vc\include\xmemory
; Line 469
	push	ebp
	mov	ebp, esp
	push	ecx
	push	esi
	mov	DWORD PTR [ebp-4], -858993460		; ccccccccH
; Line 470
	push	470					; 000001d6H
	push	OFFSET ??_C@_1IO@LKIDJAMC@?$AAC?$AA?3?$AA?2?$AAP?$AAr?$AAo?$AAg?$AAr?$AAa?$AAm?$AA?5?$AAF?$AAi?$AAl?$AAe?$AAs?$AA?5?$AA?$CI?$AAx?$AA8?$AA6?$AA?$CJ?$AA?2?$AAM?$AAi?$AAc?$AAr?$AAo?$AAs?$AAo?$AAf?$AAt@
	mov	eax, DWORD PTR __Last$[ebp]
	push	eax
	mov	ecx, DWORD PTR __First$[ebp]
	push	ecx
	call	??$_Debug_range@PAI@std@@YAXPAI0PB_WI@Z	; std::_Debug_range<unsigned int *>
	add	esp, 16					; 00000010H
; Line 471
	push	471					; 000001d7H
	push	OFFSET ??_C@_1IO@LKIDJAMC@?$AAC?$AA?3?$AA?2?$AAP?$AAr?$AAo?$AAg?$AAr?$AAa?$AAm?$AA?5?$AAF?$AAi?$AAl?$AAe?$AAs?$AA?5?$AA?$CI?$AAx?$AA8?$AA6?$AA?$CJ?$AA?2?$AAM?$AAi?$AAc?$AAr?$AAo?$AAs?$AAo?$AAf?$AAt@
	mov	edx, DWORD PTR __Dest$[ebp]
	push	edx
	call	??$_Debug_pointer@I@std@@YAXPAIPB_WI@Z	; std::_Debug_pointer<unsigned int>
	add	esp, 12					; 0000000cH
; Line 472
	mov	eax, DWORD PTR __Last$[ebp]
	sub	eax, DWORD PTR __First$[ebp]
	sar	eax, 2
	mov	DWORD PTR __Count$[ebp], eax
; Line 474
	mov	ecx, DWORD PTR __Count$[ebp]
	shl	ecx, 2
	mov	esi, esp
	push	ecx
	mov	edx, DWORD PTR __First$[ebp]
	push	edx
	mov	eax, DWORD PTR __Dest$[ebp]
	push	eax
	call	DWORD PTR __imp__memmove
	add	esp, 12					; 0000000cH
	cmp	esi, esp
	call	__RTC_CheckEsp
	mov	ecx, DWORD PTR __Count$[ebp]
	lea	eax, DWORD PTR [eax+ecx*4]
; Line 475
	pop	esi
	add	esp, 4
	cmp	ebp, esp
	call	__RTC_CheckEsp
	mov	esp, ebp
	pop	ebp
	ret	0
??$_Uninit_move@III@std@@YAPAIPAI00AAU?$_Wrap_alloc@V?$allocator@I@std@@@0@0U_Scalar_ptr_iterator_tag@0@@Z ENDP ; std::_Uninit_move<unsigned int,unsigned int,unsigned int>
_TEXT	ENDS
; Function compile flags: /Odtp /RTCsu
;	COMDAT ??$_Val_type@PAI@std@@YAPAIPAI@Z
_TEXT	SEGMENT
___formal$ = 8						; size = 4
??$_Val_type@PAI@std@@YAPAIPAI@Z PROC			; std::_Val_type<unsigned int *>, COMDAT
; File c:\program files (x86)\microsoft visual studio 12.0\vc\include\xutility
; Line 645
	push	ebp
	mov	ebp, esp
; Line 646
	xor	eax, eax
; Line 647
	pop	ebp
	ret	0
??$_Val_type@PAI@std@@YAPAIPAI@Z ENDP			; std::_Val_type<unsigned int *>
_TEXT	ENDS
; Function compile flags: /Odtp /RTCsu
;	COMDAT ??$_Uninit_move@PAUDXGI_MODE_DESC@@PAU1@V?$allocator@UDXGI_MODE_DESC@@@std@@U1@@std@@YAPAUDXGI_MODE_DESC@@PAU1@00AAU?$_Wrap_alloc@V?$allocator@UDXGI_MODE_DESC@@@std@@@0@0U_Nonscalar_ptr_iterator_tag@0@@Z
_TEXT	SEGMENT
__Next$ = -20						; size = 4
__$EHRec$ = -16						; size = 16
__First$ = 8						; size = 4
__Last$ = 12						; size = 4
__Dest$ = 16						; size = 4
__Al$ = 20						; size = 4
___formal$ = 24						; size = 4
___formal$ = 28						; size = 1
??$_Uninit_move@PAUDXGI_MODE_DESC@@PAU1@V?$allocator@UDXGI_MODE_DESC@@@std@@U1@@std@@YAPAUDXGI_MODE_DESC@@PAU1@00AAU?$_Wrap_alloc@V?$allocator@UDXGI_MODE_DESC@@@std@@@0@0U_Nonscalar_ptr_iterator_tag@0@@Z PROC ; std::_Uninit_move<DXGI_MODE_DESC *,DXGI_MODE_DESC *,std::allocator<DXGI_MODE_DESC>,DXGI_MODE_DESC>, COMDAT
; File c:\program files (x86)\microsoft visual studio 12.0\vc\include\xmemory
; Line 437
	push	ebp
	mov	ebp, esp
	push	-1
	push	__ehhandler$??$_Uninit_move@PAUDXGI_MODE_DESC@@PAU1@V?$allocator@UDXGI_MODE_DESC@@@std@@U1@@std@@YAPAUDXGI_MODE_DESC@@PAU1@00AAU?$_Wrap_alloc@V?$allocator@UDXGI_MODE_DESC@@@std@@@0@0U_Nonscalar_ptr_iterator_tag@0@@Z
	mov	eax, DWORD PTR fs:0
	push	eax
	push	ecx
	push	ecx
	push	ebx
	push	esi
	push	edi
	mov	DWORD PTR [ebp-20], -858993460		; ccccccccH
	mov	eax, DWORD PTR ___security_cookie
	xor	eax, ebp
	push	eax
	lea	eax, DWORD PTR __$EHRec$[ebp+4]
	mov	DWORD PTR fs:0, eax
	mov	DWORD PTR __$EHRec$[ebp], esp
; Line 438
	push	438					; 000001b6H
	push	OFFSET ??_C@_1IO@LKIDJAMC@?$AAC?$AA?3?$AA?2?$AAP?$AAr?$AAo?$AAg?$AAr?$AAa?$AAm?$AA?5?$AAF?$AAi?$AAl?$AAe?$AAs?$AA?5?$AA?$CI?$AAx?$AA8?$AA6?$AA?$CJ?$AA?2?$AAM?$AAi?$AAc?$AAr?$AAo?$AAs?$AAo?$AAf?$AAt@
	mov	eax, DWORD PTR __Last$[ebp]
	push	eax
	mov	ecx, DWORD PTR __First$[ebp]
	push	ecx
	call	??$_Debug_range@PAUDXGI_MODE_DESC@@@std@@YAXPAUDXGI_MODE_DESC@@0PB_WI@Z ; std::_Debug_range<DXGI_MODE_DESC *>
	add	esp, 16					; 00000010H
; Line 439
	push	439					; 000001b7H
	push	OFFSET ??_C@_1IO@LKIDJAMC@?$AAC?$AA?3?$AA?2?$AAP?$AAr?$AAo?$AAg?$AAr?$AAa?$AAm?$AA?5?$AAF?$AAi?$AAl?$AAe?$AAs?$AA?5?$AA?$CI?$AAx?$AA8?$AA6?$AA?$CJ?$AA?2?$AAM?$AAi?$AAc?$AAr?$AAo?$AAs?$AAo?$AAf?$AAt@
	mov	edx, DWORD PTR __Dest$[ebp]
	push	edx
	call	??$_Debug_pointer@UDXGI_MODE_DESC@@@std@@YAXPAUDXGI_MODE_DESC@@PB_WI@Z ; std::_Debug_pointer<DXGI_MODE_DESC>
	add	esp, 12					; 0000000cH
; Line 440
	mov	eax, DWORD PTR __Dest$[ebp]
	mov	DWORD PTR __Next$[ebp], eax
; Line 442
	mov	DWORD PTR __$EHRec$[ebp+12], 0
; Line 443
	jmp	SHORT $LN6@Uninit_mov
$LN5@Uninit_mov:
	mov	ecx, DWORD PTR __Dest$[ebp]
	add	ecx, 28					; 0000001cH
	mov	DWORD PTR __Dest$[ebp], ecx
	mov	edx, DWORD PTR __First$[ebp]
	add	edx, 28					; 0000001cH
	mov	DWORD PTR __First$[ebp], edx
$LN6@Uninit_mov:
	mov	eax, DWORD PTR __First$[ebp]
	cmp	eax, DWORD PTR __Last$[ebp]
	je	SHORT $LN4@Uninit_mov
; Line 444
	mov	ecx, DWORD PTR __First$[ebp]
	push	ecx
	mov	edx, DWORD PTR __Dest$[ebp]
	push	edx
	mov	ecx, DWORD PTR __Al$[ebp]
	call	??$construct@UDXGI_MODE_DESC@@U1@@?$_Wrap_alloc@V?$allocator@UDXGI_MODE_DESC@@@std@@@std@@QAEXPAUDXGI_MODE_DESC@@$$QAU2@@Z ; std::_Wrap_alloc<std::allocator<DXGI_MODE_DESC> >::construct<DXGI_MODE_DESC,DXGI_MODE_DESC>
	jmp	SHORT $LN5@Uninit_mov
$LN4@Uninit_mov:
	jmp	SHORT $LN10@Uninit_mov
__catch$??$_Uninit_move@PAUDXGI_MODE_DESC@@PAU1@V?$allocator@UDXGI_MODE_DESC@@@std@@U1@@std@@YAPAUDXGI_MODE_DESC@@PAU1@00AAU?$_Wrap_alloc@V?$allocator@UDXGI_MODE_DESC@@@std@@@0@0U_Nonscalar_ptr_iterator_tag@0@@Z$0:
; Line 446
	jmp	SHORT $LN3@Uninit_mov
$LN2@Uninit_mov:
	mov	eax, DWORD PTR __Next$[ebp]
	add	eax, 28					; 0000001cH
	mov	DWORD PTR __Next$[ebp], eax
$LN3@Uninit_mov:
	mov	ecx, DWORD PTR __Next$[ebp]
	cmp	ecx, DWORD PTR __Dest$[ebp]
	je	SHORT $LN1@Uninit_mov
; Line 447
	mov	edx, DWORD PTR __Next$[ebp]
	push	edx
	mov	ecx, DWORD PTR __Al$[ebp]
	call	??$destroy@UDXGI_MODE_DESC@@@?$_Wrap_alloc@V?$allocator@UDXGI_MODE_DESC@@@std@@@std@@QAEXPAUDXGI_MODE_DESC@@@Z ; std::_Wrap_alloc<std::allocator<DXGI_MODE_DESC> >::destroy<DXGI_MODE_DESC>
	jmp	SHORT $LN2@Uninit_mov
$LN1@Uninit_mov:
; Line 448
	push	0
	push	0
	call	__CxxThrowException@8
; Line 449
	mov	eax, $LN13@Uninit_mov
	ret	0
$LN10@Uninit_mov:
	mov	DWORD PTR __$EHRec$[ebp+12], -1
	jmp	SHORT __tryend$??$_Uninit_move@PAUDXGI_MODE_DESC@@PAU1@V?$allocator@UDXGI_MODE_DESC@@@std@@U1@@std@@YAPAUDXGI_MODE_DESC@@PAU1@00AAU?$_Wrap_alloc@V?$allocator@UDXGI_MODE_DESC@@@std@@@0@0U_Nonscalar_ptr_iterator_tag@0@@Z$1
$LN13@Uninit_mov:
	mov	DWORD PTR __$EHRec$[ebp+12], -1
__tryend$??$_Uninit_move@PAUDXGI_MODE_DESC@@PAU1@V?$allocator@UDXGI_MODE_DESC@@@std@@U1@@std@@YAPAUDXGI_MODE_DESC@@PAU1@00AAU?$_Wrap_alloc@V?$allocator@UDXGI_MODE_DESC@@@std@@@0@0U_Nonscalar_ptr_iterator_tag@0@@Z$1:
; Line 450
	mov	eax, DWORD PTR __Dest$[ebp]
$LN9@Uninit_mov:
; Line 451
	mov	ecx, DWORD PTR __$EHRec$[ebp+4]
	mov	DWORD PTR fs:0, ecx
	pop	ecx
	pop	edi
	pop	esi
	pop	ebx
	add	esp, 20					; 00000014H
	cmp	ebp, esp
	call	__RTC_CheckEsp
	mov	esp, ebp
	pop	ebp
	ret	0
_TEXT	ENDS
;	COMDAT text$x
text$x	SEGMENT
__ehhandler$??$_Uninit_move@PAUDXGI_MODE_DESC@@PAU1@V?$allocator@UDXGI_MODE_DESC@@@std@@U1@@std@@YAPAUDXGI_MODE_DESC@@PAU1@00AAU?$_Wrap_alloc@V?$allocator@UDXGI_MODE_DESC@@@std@@@0@0U_Nonscalar_ptr_iterator_tag@0@@Z:
	mov	edx, DWORD PTR [esp+8]
	lea	eax, DWORD PTR [edx+12]
	mov	ecx, DWORD PTR [edx-24]
	xor	ecx, eax
	call	@__security_check_cookie@4
	mov	eax, OFFSET __ehfuncinfo$??$_Uninit_move@PAUDXGI_MODE_DESC@@PAU1@V?$allocator@UDXGI_MODE_DESC@@@std@@U1@@std@@YAPAUDXGI_MODE_DESC@@PAU1@00AAU?$_Wrap_alloc@V?$allocator@UDXGI_MODE_DESC@@@std@@@0@0U_Nonscalar_ptr_iterator_tag@0@@Z
	jmp	___CxxFrameHandler3
text$x	ENDS
??$_Uninit_move@PAUDXGI_MODE_DESC@@PAU1@V?$allocator@UDXGI_MODE_DESC@@@std@@U1@@std@@YAPAUDXGI_MODE_DESC@@PAU1@00AAU?$_Wrap_alloc@V?$allocator@UDXGI_MODE_DESC@@@std@@@0@0U_Nonscalar_ptr_iterator_tag@0@@Z ENDP ; std::_Uninit_move<DXGI_MODE_DESC *,DXGI_MODE_DESC *,std::allocator<DXGI_MODE_DESC>,DXGI_MODE_DESC>
; Function compile flags: /Odtp /RTCsu
;	COMDAT ??$_Val_type@PAUDXGI_MODE_DESC@@@std@@YAPAUDXGI_MODE_DESC@@PAU1@@Z
_TEXT	SEGMENT
___formal$ = 8						; size = 4
??$_Val_type@PAUDXGI_MODE_DESC@@@std@@YAPAUDXGI_MODE_DESC@@PAU1@@Z PROC ; std::_Val_type<DXGI_MODE_DESC *>, COMDAT
; File c:\program files (x86)\microsoft visual studio 12.0\vc\include\xutility
; Line 645
	push	ebp
	mov	ebp, esp
; Line 646
	xor	eax, eax
; Line 647
	pop	ebp
	ret	0
??$_Val_type@PAUDXGI_MODE_DESC@@@std@@YAPAUDXGI_MODE_DESC@@PAU1@@Z ENDP ; std::_Val_type<DXGI_MODE_DESC *>
_TEXT	ENDS
; Function compile flags: /Odtp /RTCsu
;	COMDAT ??$_Uninit_move@PAUCD3D11EnumDeviceSettingsCombo@@PAU1@PAU1@@std@@YAPAPAUCD3D11EnumDeviceSettingsCombo@@PAPAU1@00AAU?$_Wrap_alloc@V?$allocator@PAUCD3D11EnumDeviceSettingsCombo@@@std@@@0@0U_Scalar_ptr_iterator_tag@0@@Z
_TEXT	SEGMENT
__Count$ = -4						; size = 4
__First$ = 8						; size = 4
__Last$ = 12						; size = 4
__Dest$ = 16						; size = 4
___formal$ = 20						; size = 4
___formal$ = 24						; size = 4
___formal$ = 28						; size = 1
??$_Uninit_move@PAUCD3D11EnumDeviceSettingsCombo@@PAU1@PAU1@@std@@YAPAPAUCD3D11EnumDeviceSettingsCombo@@PAPAU1@00AAU?$_Wrap_alloc@V?$allocator@PAUCD3D11EnumDeviceSettingsCombo@@@std@@@0@0U_Scalar_ptr_iterator_tag@0@@Z PROC ; std::_Uninit_move<CD3D11EnumDeviceSettingsCombo *,CD3D11EnumDeviceSettingsCombo *,CD3D11EnumDeviceSettingsCombo *>, COMDAT
; File c:\program files (x86)\microsoft visual studio 12.0\vc\include\xmemory
; Line 469
	push	ebp
	mov	ebp, esp
	push	ecx
	push	esi
	mov	DWORD PTR [ebp-4], -858993460		; ccccccccH
; Line 470
	push	470					; 000001d6H
	push	OFFSET ??_C@_1IO@LKIDJAMC@?$AAC?$AA?3?$AA?2?$AAP?$AAr?$AAo?$AAg?$AAr?$AAa?$AAm?$AA?5?$AAF?$AAi?$AAl?$AAe?$AAs?$AA?5?$AA?$CI?$AAx?$AA8?$AA6?$AA?$CJ?$AA?2?$AAM?$AAi?$AAc?$AAr?$AAo?$AAs?$AAo?$AAf?$AAt@
	mov	eax, DWORD PTR __Last$[ebp]
	push	eax
	mov	ecx, DWORD PTR __First$[ebp]
	push	ecx
	call	??$_Debug_range@PAPAUCD3D11EnumDeviceSettingsCombo@@@std@@YAXPAPAUCD3D11EnumDeviceSettingsCombo@@0PB_WI@Z ; std::_Debug_range<CD3D11EnumDeviceSettingsCombo * *>
	add	esp, 16					; 00000010H
; Line 471
	push	471					; 000001d7H
	push	OFFSET ??_C@_1IO@LKIDJAMC@?$AAC?$AA?3?$AA?2?$AAP?$AAr?$AAo?$AAg?$AAr?$AAa?$AAm?$AA?5?$AAF?$AAi?$AAl?$AAe?$AAs?$AA?5?$AA?$CI?$AAx?$AA8?$AA6?$AA?$CJ?$AA?2?$AAM?$AAi?$AAc?$AAr?$AAo?$AAs?$AAo?$AAf?$AAt@
	mov	edx, DWORD PTR __Dest$[ebp]
	push	edx
	call	??$_Debug_pointer@PAUCD3D11EnumDeviceSettingsCombo@@@std@@YAXPAPAUCD3D11EnumDeviceSettingsCombo@@PB_WI@Z ; std::_Debug_pointer<CD3D11EnumDeviceSettingsCombo *>
	add	esp, 12					; 0000000cH
; Line 472
	mov	eax, DWORD PTR __Last$[ebp]
	sub	eax, DWORD PTR __First$[ebp]
	sar	eax, 2
	mov	DWORD PTR __Count$[ebp], eax
; Line 474
	mov	ecx, DWORD PTR __Count$[ebp]
	shl	ecx, 2
	mov	esi, esp
	push	ecx
	mov	edx, DWORD PTR __First$[ebp]
	push	edx
	mov	eax, DWORD PTR __Dest$[ebp]
	push	eax
	call	DWORD PTR __imp__memmove
	add	esp, 12					; 0000000cH
	cmp	esi, esp
	call	__RTC_CheckEsp
	mov	ecx, DWORD PTR __Count$[ebp]
	lea	eax, DWORD PTR [eax+ecx*4]
; Line 475
	pop	esi
	add	esp, 4
	cmp	ebp, esp
	call	__RTC_CheckEsp
	mov	esp, ebp
	pop	ebp
	ret	0
??$_Uninit_move@PAUCD3D11EnumDeviceSettingsCombo@@PAU1@PAU1@@std@@YAPAPAUCD3D11EnumDeviceSettingsCombo@@PAPAU1@00AAU?$_Wrap_alloc@V?$allocator@PAUCD3D11EnumDeviceSettingsCombo@@@std@@@0@0U_Scalar_ptr_iterator_tag@0@@Z ENDP ; std::_Uninit_move<CD3D11EnumDeviceSettingsCombo *,CD3D11EnumDeviceSettingsCombo *,CD3D11EnumDeviceSettingsCombo *>
_TEXT	ENDS
; Function compile flags: /Odtp /RTCsu
;	COMDAT ??$_Val_type@PAPAUCD3D11EnumDeviceSettingsCombo@@@std@@YAPAPAUCD3D11EnumDeviceSettingsCombo@@PAPAU1@@Z
_TEXT	SEGMENT
___formal$ = 8						; size = 4
??$_Val_type@PAPAUCD3D11EnumDeviceSettingsCombo@@@std@@YAPAPAUCD3D11EnumDeviceSettingsCombo@@PAPAU1@@Z PROC ; std::_Val_type<CD3D11EnumDeviceSettingsCombo * *>, COMDAT
; File c:\program files (x86)\microsoft visual studio 12.0\vc\include\xutility
; Line 645
	push	ebp
	mov	ebp, esp
; Line 646
	xor	eax, eax
; Line 647
	pop	ebp
	ret	0
??$_Val_type@PAPAUCD3D11EnumDeviceSettingsCombo@@@std@@YAPAPAUCD3D11EnumDeviceSettingsCombo@@PAPAU1@@Z ENDP ; std::_Val_type<CD3D11EnumDeviceSettingsCombo * *>
_TEXT	ENDS
; Function compile flags: /Odtp /RTCsu
;	COMDAT ??$_Uninit_move@PAVCD3D11EnumDeviceInfo@@PAV1@PAV1@@std@@YAPAPAVCD3D11EnumDeviceInfo@@PAPAV1@00AAU?$_Wrap_alloc@V?$allocator@PAVCD3D11EnumDeviceInfo@@@std@@@0@0U_Scalar_ptr_iterator_tag@0@@Z
_TEXT	SEGMENT
__Count$ = -4						; size = 4
__First$ = 8						; size = 4
__Last$ = 12						; size = 4
__Dest$ = 16						; size = 4
___formal$ = 20						; size = 4
___formal$ = 24						; size = 4
___formal$ = 28						; size = 1
??$_Uninit_move@PAVCD3D11EnumDeviceInfo@@PAV1@PAV1@@std@@YAPAPAVCD3D11EnumDeviceInfo@@PAPAV1@00AAU?$_Wrap_alloc@V?$allocator@PAVCD3D11EnumDeviceInfo@@@std@@@0@0U_Scalar_ptr_iterator_tag@0@@Z PROC ; std::_Uninit_move<CD3D11EnumDeviceInfo *,CD3D11EnumDeviceInfo *,CD3D11EnumDeviceInfo *>, COMDAT
; File c:\program files (x86)\microsoft visual studio 12.0\vc\include\xmemory
; Line 469
	push	ebp
	mov	ebp, esp
	push	ecx
	push	esi
	mov	DWORD PTR [ebp-4], -858993460		; ccccccccH
; Line 470
	push	470					; 000001d6H
	push	OFFSET ??_C@_1IO@LKIDJAMC@?$AAC?$AA?3?$AA?2?$AAP?$AAr?$AAo?$AAg?$AAr?$AAa?$AAm?$AA?5?$AAF?$AAi?$AAl?$AAe?$AAs?$AA?5?$AA?$CI?$AAx?$AA8?$AA6?$AA?$CJ?$AA?2?$AAM?$AAi?$AAc?$AAr?$AAo?$AAs?$AAo?$AAf?$AAt@
	mov	eax, DWORD PTR __Last$[ebp]
	push	eax
	mov	ecx, DWORD PTR __First$[ebp]
	push	ecx
	call	??$_Debug_range@PAPAVCD3D11EnumDeviceInfo@@@std@@YAXPAPAVCD3D11EnumDeviceInfo@@0PB_WI@Z ; std::_Debug_range<CD3D11EnumDeviceInfo * *>
	add	esp, 16					; 00000010H
; Line 471
	push	471					; 000001d7H
	push	OFFSET ??_C@_1IO@LKIDJAMC@?$AAC?$AA?3?$AA?2?$AAP?$AAr?$AAo?$AAg?$AAr?$AAa?$AAm?$AA?5?$AAF?$AAi?$AAl?$AAe?$AAs?$AA?5?$AA?$CI?$AAx?$AA8?$AA6?$AA?$CJ?$AA?2?$AAM?$AAi?$AAc?$AAr?$AAo?$AAs?$AAo?$AAf?$AAt@
	mov	edx, DWORD PTR __Dest$[ebp]
	push	edx
	call	??$_Debug_pointer@PAVCD3D11EnumDeviceInfo@@@std@@YAXPAPAVCD3D11EnumDeviceInfo@@PB_WI@Z ; std::_Debug_pointer<CD3D11EnumDeviceInfo *>
	add	esp, 12					; 0000000cH
; Line 472
	mov	eax, DWORD PTR __Last$[ebp]
	sub	eax, DWORD PTR __First$[ebp]
	sar	eax, 2
	mov	DWORD PTR __Count$[ebp], eax
; Line 474
	mov	ecx, DWORD PTR __Count$[ebp]
	shl	ecx, 2
	mov	esi, esp
	push	ecx
	mov	edx, DWORD PTR __First$[ebp]
	push	edx
	mov	eax, DWORD PTR __Dest$[ebp]
	push	eax
	call	DWORD PTR __imp__memmove
	add	esp, 12					; 0000000cH
	cmp	esi, esp
	call	__RTC_CheckEsp
	mov	ecx, DWORD PTR __Count$[ebp]
	lea	eax, DWORD PTR [eax+ecx*4]
; Line 475
	pop	esi
	add	esp, 4
	cmp	ebp, esp
	call	__RTC_CheckEsp
	mov	esp, ebp
	pop	ebp
	ret	0
??$_Uninit_move@PAVCD3D11EnumDeviceInfo@@PAV1@PAV1@@std@@YAPAPAVCD3D11EnumDeviceInfo@@PAPAV1@00AAU?$_Wrap_alloc@V?$allocator@PAVCD3D11EnumDeviceInfo@@@std@@@0@0U_Scalar_ptr_iterator_tag@0@@Z ENDP ; std::_Uninit_move<CD3D11EnumDeviceInfo *,CD3D11EnumDeviceInfo *,CD3D11EnumDeviceInfo *>
_TEXT	ENDS
; Function compile flags: /Odtp /RTCsu
;	COMDAT ??$_Val_type@PAPAVCD3D11EnumDeviceInfo@@@std@@YAPAPAVCD3D11EnumDeviceInfo@@PAPAV1@@Z
_TEXT	SEGMENT
___formal$ = 8						; size = 4
??$_Val_type@PAPAVCD3D11EnumDeviceInfo@@@std@@YAPAPAVCD3D11EnumDeviceInfo@@PAPAV1@@Z PROC ; std::_Val_type<CD3D11EnumDeviceInfo * *>, COMDAT
; File c:\program files (x86)\microsoft visual studio 12.0\vc\include\xutility
; Line 645
	push	ebp
	mov	ebp, esp
; Line 646
	xor	eax, eax
; Line 647
	pop	ebp
	ret	0
??$_Val_type@PAPAVCD3D11EnumDeviceInfo@@@std@@YAPAPAVCD3D11EnumDeviceInfo@@PAPAV1@@Z ENDP ; std::_Val_type<CD3D11EnumDeviceInfo * *>
_TEXT	ENDS
; Function compile flags: /Odtp /RTCsu
;	COMDAT ??$_Uninit_move@PAVCD3D11EnumOutputInfo@@PAV1@PAV1@@std@@YAPAPAVCD3D11EnumOutputInfo@@PAPAV1@00AAU?$_Wrap_alloc@V?$allocator@PAVCD3D11EnumOutputInfo@@@std@@@0@0U_Scalar_ptr_iterator_tag@0@@Z
_TEXT	SEGMENT
__Count$ = -4						; size = 4
__First$ = 8						; size = 4
__Last$ = 12						; size = 4
__Dest$ = 16						; size = 4
___formal$ = 20						; size = 4
___formal$ = 24						; size = 4
___formal$ = 28						; size = 1
??$_Uninit_move@PAVCD3D11EnumOutputInfo@@PAV1@PAV1@@std@@YAPAPAVCD3D11EnumOutputInfo@@PAPAV1@00AAU?$_Wrap_alloc@V?$allocator@PAVCD3D11EnumOutputInfo@@@std@@@0@0U_Scalar_ptr_iterator_tag@0@@Z PROC ; std::_Uninit_move<CD3D11EnumOutputInfo *,CD3D11EnumOutputInfo *,CD3D11EnumOutputInfo *>, COMDAT
; File c:\program files (x86)\microsoft visual studio 12.0\vc\include\xmemory
; Line 469
	push	ebp
	mov	ebp, esp
	push	ecx
	push	esi
	mov	DWORD PTR [ebp-4], -858993460		; ccccccccH
; Line 470
	push	470					; 000001d6H
	push	OFFSET ??_C@_1IO@LKIDJAMC@?$AAC?$AA?3?$AA?2?$AAP?$AAr?$AAo?$AAg?$AAr?$AAa?$AAm?$AA?5?$AAF?$AAi?$AAl?$AAe?$AAs?$AA?5?$AA?$CI?$AAx?$AA8?$AA6?$AA?$CJ?$AA?2?$AAM?$AAi?$AAc?$AAr?$AAo?$AAs?$AAo?$AAf?$AAt@
	mov	eax, DWORD PTR __Last$[ebp]
	push	eax
	mov	ecx, DWORD PTR __First$[ebp]
	push	ecx
	call	??$_Debug_range@PAPAVCD3D11EnumOutputInfo@@@std@@YAXPAPAVCD3D11EnumOutputInfo@@0PB_WI@Z ; std::_Debug_range<CD3D11EnumOutputInfo * *>
	add	esp, 16					; 00000010H
; Line 471
	push	471					; 000001d7H
	push	OFFSET ??_C@_1IO@LKIDJAMC@?$AAC?$AA?3?$AA?2?$AAP?$AAr?$AAo?$AAg?$AAr?$AAa?$AAm?$AA?5?$AAF?$AAi?$AAl?$AAe?$AAs?$AA?5?$AA?$CI?$AAx?$AA8?$AA6?$AA?$CJ?$AA?2?$AAM?$AAi?$AAc?$AAr?$AAo?$AAs?$AAo?$AAf?$AAt@
	mov	edx, DWORD PTR __Dest$[ebp]
	push	edx
	call	??$_Debug_pointer@PAVCD3D11EnumOutputInfo@@@std@@YAXPAPAVCD3D11EnumOutputInfo@@PB_WI@Z ; std::_Debug_pointer<CD3D11EnumOutputInfo *>
	add	esp, 12					; 0000000cH
; Line 472
	mov	eax, DWORD PTR __Last$[ebp]
	sub	eax, DWORD PTR __First$[ebp]
	sar	eax, 2
	mov	DWORD PTR __Count$[ebp], eax
; Line 474
	mov	ecx, DWORD PTR __Count$[ebp]
	shl	ecx, 2
	mov	esi, esp
	push	ecx
	mov	edx, DWORD PTR __First$[ebp]
	push	edx
	mov	eax, DWORD PTR __Dest$[ebp]
	push	eax
	call	DWORD PTR __imp__memmove
	add	esp, 12					; 0000000cH
	cmp	esi, esp
	call	__RTC_CheckEsp
	mov	ecx, DWORD PTR __Count$[ebp]
	lea	eax, DWORD PTR [eax+ecx*4]
; Line 475
	pop	esi
	add	esp, 4
	cmp	ebp, esp
	call	__RTC_CheckEsp
	mov	esp, ebp
	pop	ebp
	ret	0
??$_Uninit_move@PAVCD3D11EnumOutputInfo@@PAV1@PAV1@@std@@YAPAPAVCD3D11EnumOutputInfo@@PAPAV1@00AAU?$_Wrap_alloc@V?$allocator@PAVCD3D11EnumOutputInfo@@@std@@@0@0U_Scalar_ptr_iterator_tag@0@@Z ENDP ; std::_Uninit_move<CD3D11EnumOutputInfo *,CD3D11EnumOutputInfo *,CD3D11EnumOutputInfo *>
_TEXT	ENDS
; Function compile flags: /Odtp /RTCsu
;	COMDAT ??$_Val_type@PAPAVCD3D11EnumOutputInfo@@@std@@YAPAPAVCD3D11EnumOutputInfo@@PAPAV1@@Z
_TEXT	SEGMENT
___formal$ = 8						; size = 4
??$_Val_type@PAPAVCD3D11EnumOutputInfo@@@std@@YAPAPAVCD3D11EnumOutputInfo@@PAPAV1@@Z PROC ; std::_Val_type<CD3D11EnumOutputInfo * *>, COMDAT
; File c:\program files (x86)\microsoft visual studio 12.0\vc\include\xutility
; Line 645
	push	ebp
	mov	ebp, esp
; Line 646
	xor	eax, eax
; Line 647
	pop	ebp
	ret	0
??$_Val_type@PAPAVCD3D11EnumOutputInfo@@@std@@YAPAPAVCD3D11EnumOutputInfo@@PAPAV1@@Z ENDP ; std::_Val_type<CD3D11EnumOutputInfo * *>
_TEXT	ENDS
; Function compile flags: /Odtp /RTCsu
;	COMDAT ??$_Uninit_move@PAVCD3D11EnumAdapterInfo@@PAV1@PAV1@@std@@YAPAPAVCD3D11EnumAdapterInfo@@PAPAV1@00AAU?$_Wrap_alloc@V?$allocator@PAVCD3D11EnumAdapterInfo@@@std@@@0@0U_Scalar_ptr_iterator_tag@0@@Z
_TEXT	SEGMENT
__Count$ = -4						; size = 4
__First$ = 8						; size = 4
__Last$ = 12						; size = 4
__Dest$ = 16						; size = 4
___formal$ = 20						; size = 4
___formal$ = 24						; size = 4
___formal$ = 28						; size = 1
