; Listing generated by Microsoft (R) Optimizing Compiler Version 18.00.30501.0 

	TITLE	D:\Engine Class\Assignment 1\Scratch\DXSSE\DXUT\Core\DXUTmisc.cpp
	.686P
	.XMM
	include listing.inc
	.model	flat

INCLUDELIB MSVCRTD
INCLUDELIB OLDNAMES

PUBLIC	?value@?$integral_constant@H$0A@@std@@2HB	; std::integral_constant<int,0>::value
PUBLIC	_GUID_ContainerFormatBmp
PUBLIC	__GUID_6f15aaf2_d208_4e89_9ab4_489535d34f9c
_BSS	SEGMENT
_s_hModD3D9 DD	01H DUP (?)
_s_DynamicD3DPERF_BeginEvent DD 01H DUP (?)
_s_DynamicD3DPERF_EndEvent DD 01H DUP (?)
_s_DynamicD3DPERF_SetMarker DD 01H DUP (?)
_s_DynamicD3DPERF_SetRegion DD 01H DUP (?)
_s_DynamicD3DPERF_QueryRepeatFrame DD 01H DUP (?)
_s_DynamicD3DPERF_SetOptions DD 01H DUP (?)
_s_DynamicD3DPERF_GetStatus DD 01H DUP (?)
_s_hModDXGI DD	01H DUP (?)
_s_hModDXGIDebug DD 01H DUP (?)
_s_DynamicCreateDXGIFactory DD 01H DUP (?)
_s_DynamicDXGIGetDebugInterface DD 01H DUP (?)
_s_hModD3D11 DD	01H DUP (?)
_s_DynamicD3D11CreateDevice DD 01H DUP (?)
_BSS	ENDS
;	COMDAT __GUID_6f15aaf2_d208_4e89_9ab4_489535d34f9c
CONST	SEGMENT
__GUID_6f15aaf2_d208_4e89_9ab4_489535d34f9c DD 06f15aaf2H
	DW	0d208H
	DW	04e89H
	DB	09aH
	DB	0b4H
	DB	048H
	DB	095H
	DB	035H
	DB	0d3H
	DB	04fH
	DB	09cH
CONST	ENDS
;	COMDAT _GUID_ContainerFormatBmp
CONST	SEGMENT
_GUID_ContainerFormatBmp DD 0af1d87eH
	DW	0fcfeH
	DW	04188H
	DB	0bdH
	DB	0ebH
	DB	0a7H
	DB	090H
	DB	064H
	DB	071H
	DB	0cbH
	DB	0e3H
CONST	ENDS
CONST	SEGMENT
$SG152576 DB	'W', 00H, 'M', 00H, '_', 00H, 'G', 00H, 'E', 00H, 'T', 00H
	DB	'M', 00H, 'I', 00H, 'N', 00H, 'M', 00H, 'A', 00H, 'X', 00H, 'I'
	DB	00H, 'N', 00H, 'F', 00H, 'O', 00H, 00H, 00H
	ORG $+2
$SG152578 DB	'W', 00H, 'M', 00H, '_', 00H, 'P', 00H, 'A', 00H, 'I', 00H
	DB	'N', 00H, 'T', 00H, 'I', 00H, 'C', 00H, 'O', 00H, 'N', 00H, 00H
	DB	00H
	ORG $+2
$SG152580 DB	'W', 00H, 'M', 00H, '_', 00H, 'I', 00H, 'C', 00H, 'O', 00H
	DB	'N', 00H, 'E', 00H, 'R', 00H, 'A', 00H, 'S', 00H, 'E', 00H, 'B'
	DB	00H, 'K', 00H, 'G', 00H, 'N', 00H, 'D', 00H, 00H, 00H
$SG152582 DB	'W', 00H, 'M', 00H, '_', 00H, 'N', 00H, 'E', 00H, 'X', 00H
	DB	'T', 00H, 'D', 00H, 'L', 00H, 'G', 00H, 'C', 00H, 'T', 00H, 'L'
	DB	00H, 00H, 00H
$SG152584 DB	'W', 00H, 'M', 00H, '_', 00H, 'S', 00H, 'P', 00H, 'O', 00H
	DB	'O', 00H, 'L', 00H, 'E', 00H, 'R', 00H, 'S', 00H, 'T', 00H, 'A'
	DB	00H, 'T', 00H, 'U', 00H, 'S', 00H, 00H, 00H
	ORG $+2
$SG152586 DB	'W', 00H, 'M', 00H, '_', 00H, 'D', 00H, 'R', 00H, 'A', 00H
	DB	'W', 00H, 'I', 00H, 'T', 00H, 'E', 00H, 'M', 00H, 00H, 00H
$SG152588 DB	'W', 00H, 'M', 00H, '_', 00H, 'M', 00H, 'E', 00H, 'A', 00H
	DB	'S', 00H, 'U', 00H, 'R', 00H, 'E', 00H, 'I', 00H, 'T', 00H, 'E'
	DB	00H, 'M', 00H, 00H, 00H
	ORG $+2
$SG152590 DB	'W', 00H, 'M', 00H, '_', 00H, 'D', 00H, 'E', 00H, 'L', 00H
	DB	'E', 00H, 'T', 00H, 'E', 00H, 'I', 00H, 'T', 00H, 'E', 00H, 'M'
	DB	00H, 00H, 00H
$SG152592 DB	'W', 00H, 'M', 00H, '_', 00H, 'V', 00H, 'K', 00H, 'E', 00H
	DB	'Y', 00H, 'T', 00H, 'O', 00H, 'I', 00H, 'T', 00H, 'E', 00H, 'M'
	DB	00H, 00H, 00H
$SG152594 DB	'W', 00H, 'M', 00H, '_', 00H, 'C', 00H, 'H', 00H, 'A', 00H
	DB	'R', 00H, 'T', 00H, 'O', 00H, 'I', 00H, 'T', 00H, 'E', 00H, 'M'
	DB	00H, 00H, 00H
$SG152596 DB	'W', 00H, 'M', 00H, '_', 00H, 'S', 00H, 'E', 00H, 'T', 00H
	DB	'F', 00H, 'O', 00H, 'N', 00H, 'T', 00H, 00H, 00H
	ORG $+2
$SG152598 DB	'W', 00H, 'M', 00H, '_', 00H, 'G', 00H, 'E', 00H, 'T', 00H
	DB	'F', 00H, 'O', 00H, 'N', 00H, 'T', 00H, 00H, 00H
	ORG $+2
$SG152600 DB	'W', 00H, 'M', 00H, '_', 00H, 'S', 00H, 'E', 00H, 'T', 00H
	DB	'H', 00H, 'O', 00H, 'T', 00H, 'K', 00H, 'E', 00H, 'Y', 00H, 00H
	DB	00H
	ORG $+2
$SG152602 DB	'W', 00H, 'M', 00H, '_', 00H, 'G', 00H, 'E', 00H, 'T', 00H
	DB	'H', 00H, 'O', 00H, 'T', 00H, 'K', 00H, 'E', 00H, 'Y', 00H, 00H
	DB	00H
	ORG $+2
$SG152604 DB	'W', 00H, 'M', 00H, '_', 00H, 'Q', 00H, 'U', 00H, 'E', 00H
	DB	'R', 00H, 'Y', 00H, 'D', 00H, 'R', 00H, 'A', 00H, 'G', 00H, 'I'
	DB	00H, 'C', 00H, 'O', 00H, 'N', 00H, 00H, 00H
	ORG $+2
$SG152606 DB	'W', 00H, 'M', 00H, '_', 00H, 'C', 00H, 'O', 00H, 'M', 00H
	DB	'P', 00H, 'A', 00H, 'R', 00H, 'E', 00H, 'I', 00H, 'T', 00H, 'E'
	DB	00H, 'M', 00H, 00H, 00H
	ORG $+2
$SG152608 DB	'W', 00H, 'M', 00H, '_', 00H, 'G', 00H, 'E', 00H, 'T', 00H
	DB	'O', 00H, 'B', 00H, 'J', 00H, 'E', 00H, 'C', 00H, 'T', 00H, 00H
	DB	00H
	ORG $+2
$SG152610 DB	'W', 00H, 'M', 00H, '_', 00H, 'C', 00H, 'O', 00H, 'M', 00H
	DB	'P', 00H, 'A', 00H, 'C', 00H, 'T', 00H, 'I', 00H, 'N', 00H, 'G'
	DB	00H, 00H, 00H
$SG152612 DB	'W', 00H, 'M', 00H, '_', 00H, 'C', 00H, 'O', 00H, 'M', 00H
	DB	'M', 00H, 'N', 00H, 'O', 00H, 'T', 00H, 'I', 00H, 'F', 00H, 'Y'
	DB	00H, 00H, 00H
$SG152614 DB	'W', 00H, 'M', 00H, '_', 00H, 'W', 00H, 'I', 00H, 'N', 00H
	DB	'D', 00H, 'O', 00H, 'W', 00H, 'P', 00H, 'O', 00H, 'S', 00H, 'C'
	DB	00H, 'H', 00H, 'A', 00H, 'N', 00H, 'G', 00H, 'I', 00H, 'N', 00H
	DB	'G', 00H, 00H, 00H
	ORG $+2
$SG152616 DB	'W', 00H, 'M', 00H, '_', 00H, 'W', 00H, 'I', 00H, 'N', 00H
	DB	'D', 00H, 'O', 00H, 'W', 00H, 'P', 00H, 'O', 00H, 'S', 00H, 'C'
	DB	00H, 'H', 00H, 'A', 00H, 'N', 00H, 'G', 00H, 'E', 00H, 'D', 00H
	DB	00H, 00H
$SG152618 DB	'W', 00H, 'M', 00H, '_', 00H, 'P', 00H, 'O', 00H, 'W', 00H
	DB	'E', 00H, 'R', 00H, 00H, 00H
	ORG $+2
$SG152620 DB	'W', 00H, 'M', 00H, '_', 00H, 'C', 00H, 'O', 00H, 'P', 00H
	DB	'Y', 00H, 'D', 00H, 'A', 00H, 'T', 00H, 'A', 00H, 00H, 00H
$SG152622 DB	'W', 00H, 'M', 00H, '_', 00H, 'C', 00H, 'A', 00H, 'N', 00H
	DB	'C', 00H, 'E', 00H, 'L', 00H, 'J', 00H, 'O', 00H, 'U', 00H, 'R'
	DB	00H, 'N', 00H, 'A', 00H, 'L', 00H, 00H, 00H
	ORG $+2
$SG152624 DB	'W', 00H, 'M', 00H, '_', 00H, 'N', 00H, 'O', 00H, 'T', 00H
	DB	'I', 00H, 'F', 00H, 'Y', 00H, 00H, 00H
$SG152626 DB	'W', 00H, 'M', 00H, '_', 00H, 'I', 00H, 'N', 00H, 'P', 00H
	DB	'U', 00H, 'T', 00H, 'L', 00H, 'A', 00H, 'N', 00H, 'G', 00H, 'C'
	DB	00H, 'H', 00H, 'A', 00H, 'N', 00H, 'G', 00H, 'E', 00H, 'R', 00H
	DB	'E', 00H, 'Q', 00H, 'U', 00H, 'E', 00H, 'S', 00H, 'T', 00H, 00H
	DB	00H
$SG152628 DB	'W', 00H, 'M', 00H, '_', 00H, 'I', 00H, 'N', 00H, 'P', 00H
	DB	'U', 00H, 'T', 00H, 'L', 00H, 'A', 00H, 'N', 00H, 'G', 00H, 'C'
	DB	00H, 'H', 00H, 'A', 00H, 'N', 00H, 'G', 00H, 'E', 00H, 00H, 00H
	ORG $+2
$SG152630 DB	'W', 00H, 'M', 00H, '_', 00H, 'T', 00H, 'C', 00H, 'A', 00H
	DB	'R', 00H, 'D', 00H, 00H, 00H
	ORG $+2
$SG152632 DB	'W', 00H, 'M', 00H, '_', 00H, 'H', 00H, 'E', 00H, 'L', 00H
	DB	'P', 00H, 00H, 00H
$SG152634 DB	'W', 00H, 'M', 00H, '_', 00H, 'U', 00H, 'S', 00H, 'E', 00H
	DB	'R', 00H, 'C', 00H, 'H', 00H, 'A', 00H, 'N', 00H, 'G', 00H, 'E'
	DB	00H, 'D', 00H, 00H, 00H
	ORG $+2
$SG152636 DB	'W', 00H, 'M', 00H, '_', 00H, 'N', 00H, 'O', 00H, 'T', 00H
	DB	'I', 00H, 'F', 00H, 'Y', 00H, 'F', 00H, 'O', 00H, 'R', 00H, 'M'
	DB	00H, 'A', 00H, 'T', 00H, 00H, 00H
$SG152638 DB	'W', 00H, 'M', 00H, '_', 00H, 'C', 00H, 'O', 00H, 'N', 00H
	DB	'T', 00H, 'E', 00H, 'X', 00H, 'T', 00H, 'M', 00H, 'E', 00H, 'N'
	DB	00H, 'U', 00H, 00H, 00H
	ORG $+2
$SG152640 DB	'W', 00H, 'M', 00H, '_', 00H, 'S', 00H, 'T', 00H, 'Y', 00H
	DB	'L', 00H, 'E', 00H, 'C', 00H, 'H', 00H, 'A', 00H, 'N', 00H, 'G'
	DB	00H, 'I', 00H, 'N', 00H, 'G', 00H, 00H, 00H
	ORG $+2
$SG152642 DB	'W', 00H, 'M', 00H, '_', 00H, 'S', 00H, 'T', 00H, 'Y', 00H
	DB	'L', 00H, 'E', 00H, 'C', 00H, 'H', 00H, 'A', 00H, 'N', 00H, 'G'
	DB	00H, 'E', 00H, 'D', 00H, 00H, 00H
$SG152644 DB	'W', 00H, 'M', 00H, '_', 00H, 'D', 00H, 'I', 00H, 'S', 00H
	DB	'P', 00H, 'L', 00H, 'A', 00H, 'Y', 00H, 'C', 00H, 'H', 00H, 'A'
	DB	00H, 'N', 00H, 'G', 00H, 'E', 00H, 00H, 00H
	ORG $+2
$SG152646 DB	'W', 00H, 'M', 00H, '_', 00H, 'G', 00H, 'E', 00H, 'T', 00H
	DB	'I', 00H, 'C', 00H, 'O', 00H, 'N', 00H, 00H, 00H
	ORG $+2
$SG152648 DB	'W', 00H, 'M', 00H, '_', 00H, 'S', 00H, 'E', 00H, 'T', 00H
	DB	'I', 00H, 'C', 00H, 'O', 00H, 'N', 00H, 00H, 00H
	ORG $+2
$SG152650 DB	'W', 00H, 'M', 00H, '_', 00H, 'N', 00H, 'C', 00H, 'C', 00H
	DB	'R', 00H, 'E', 00H, 'A', 00H, 'T', 00H, 'E', 00H, 00H, 00H
$SG152652 DB	'W', 00H, 'M', 00H, '_', 00H, 'N', 00H, 'C', 00H, 'D', 00H
	DB	'E', 00H, 'S', 00H, 'T', 00H, 'R', 00H, 'O', 00H, 'Y', 00H, 00H
	DB	00H
	ORG $+2
$SG152654 DB	'W', 00H, 'M', 00H, '_', 00H, 'N', 00H, 'C', 00H, 'C', 00H
	DB	'A', 00H, 'L', 00H, 'C', 00H, 'S', 00H, 'I', 00H, 'Z', 00H, 'E'
	DB	00H, 00H, 00H
$SG152656 DB	'W', 00H, 'M', 00H, '_', 00H, 'N', 00H, 'C', 00H, 'H', 00H
	DB	'I', 00H, 'T', 00H, 'T', 00H, 'E', 00H, 'S', 00H, 'T', 00H, 00H
	DB	00H
	ORG $+2
$SG152658 DB	'W', 00H, 'M', 00H, '_', 00H, 'N', 00H, 'C', 00H, 'P', 00H
	DB	'A', 00H, 'I', 00H, 'N', 00H, 'T', 00H, 00H, 00H
	ORG $+2
$SG152660 DB	'W', 00H, 'M', 00H, '_', 00H, 'N', 00H, 'C', 00H, 'A', 00H
	DB	'C', 00H, 'T', 00H, 'I', 00H, 'V', 00H, 'A', 00H, 'T', 00H, 'E'
	DB	00H, 00H, 00H
$SG152662 DB	'W', 00H, 'M', 00H, '_', 00H, 'G', 00H, 'E', 00H, 'T', 00H
	DB	'D', 00H, 'L', 00H, 'G', 00H, 'C', 00H, 'O', 00H, 'D', 00H, 'E'
	DB	00H, 00H, 00H
$SG152664 DB	'W', 00H, 'M', 00H, '_', 00H, 'S', 00H, 'Y', 00H, 'N', 00H
	DB	'C', 00H, 'P', 00H, 'A', 00H, 'I', 00H, 'N', 00H, 'T', 00H, 00H
	DB	00H
	ORG $+2
$SG152666 DB	'W', 00H, 'M', 00H, '_', 00H, 'N', 00H, 'C', 00H, 'M', 00H
	DB	'O', 00H, 'U', 00H, 'S', 00H, 'E', 00H, 'M', 00H, 'O', 00H, 'V'
	DB	00H, 'E', 00H, 00H, 00H
	ORG $+2
$SG152668 DB	'W', 00H, 'M', 00H, '_', 00H, 'N', 00H, 'C', 00H, 'L', 00H
	DB	'B', 00H, 'U', 00H, 'T', 00H, 'T', 00H, 'O', 00H, 'N', 00H, 'D'
	DB	00H, 'O', 00H, 'W', 00H, 'N', 00H, 00H, 00H
	ORG $+2
$SG152670 DB	'W', 00H, 'M', 00H, '_', 00H, 'N', 00H, 'C', 00H, 'L', 00H
	DB	'B', 00H, 'U', 00H, 'T', 00H, 'T', 00H, 'O', 00H, 'N', 00H, 'U'
	DB	00H, 'P', 00H, 00H, 00H
	ORG $+2
$SG152672 DB	'W', 00H, 'M', 00H, '_', 00H, 'N', 00H, 'C', 00H, 'L', 00H
	DB	'B', 00H, 'U', 00H, 'T', 00H, 'T', 00H, 'O', 00H, 'N', 00H, 'D'
	DB	00H, 'B', 00H, 'L', 00H, 'C', 00H, 'L', 00H, 'K', 00H, 00H, 00H
	ORG $+2
$SG152674 DB	'W', 00H, 'M', 00H, '_', 00H, 'N', 00H, 'C', 00H, 'R', 00H
	DB	'B', 00H, 'U', 00H, 'T', 00H, 'T', 00H, 'O', 00H, 'N', 00H, 'D'
	DB	00H, 'O', 00H, 'W', 00H, 'N', 00H, 00H, 00H
	ORG $+2
$SG152676 DB	'W', 00H, 'M', 00H, '_', 00H, 'N', 00H, 'C', 00H, 'R', 00H
	DB	'B', 00H, 'U', 00H, 'T', 00H, 'T', 00H, 'O', 00H, 'N', 00H, 'U'
	DB	00H, 'P', 00H, 00H, 00H
	ORG $+2
$SG152678 DB	'W', 00H, 'M', 00H, '_', 00H, 'N', 00H, 'C', 00H, 'R', 00H
	DB	'B', 00H, 'U', 00H, 'T', 00H, 'T', 00H, 'O', 00H, 'N', 00H, 'D'
	DB	00H, 'B', 00H, 'L', 00H, 'C', 00H, 'L', 00H, 'K', 00H, 00H, 00H
	ORG $+2
$SG152680 DB	'W', 00H, 'M', 00H, '_', 00H, 'N', 00H, 'C', 00H, 'M', 00H
	DB	'B', 00H, 'U', 00H, 'T', 00H, 'T', 00H, 'O', 00H, 'N', 00H, 'D'
	DB	00H, 'O', 00H, 'W', 00H, 'N', 00H, 00H, 00H
	ORG $+2
$SG152682 DB	'W', 00H, 'M', 00H, '_', 00H, 'N', 00H, 'C', 00H, 'M', 00H
	DB	'B', 00H, 'U', 00H, 'T', 00H, 'T', 00H, 'O', 00H, 'N', 00H, 'U'
	DB	00H, 'P', 00H, 00H, 00H
	ORG $+2
$SG152684 DB	'W', 00H, 'M', 00H, '_', 00H, 'N', 00H, 'C', 00H, 'M', 00H
	DB	'B', 00H, 'U', 00H, 'T', 00H, 'T', 00H, 'O', 00H, 'N', 00H, 'D'
	DB	00H, 'B', 00H, 'L', 00H, 'C', 00H, 'L', 00H, 'K', 00H, 00H, 00H
	ORG $+2
$SG152686 DB	'W', 00H, 'M', 00H, '_', 00H, 'N', 00H, 'C', 00H, 'X', 00H
	DB	'B', 00H, 'U', 00H, 'T', 00H, 'T', 00H, 'O', 00H, 'N', 00H, 'D'
	DB	00H, 'O', 00H, 'W', 00H, 'N', 00H, 00H, 00H
	ORG $+2
$SG152688 DB	'W', 00H, 'M', 00H, '_', 00H, 'N', 00H, 'C', 00H, 'X', 00H
	DB	'B', 00H, 'U', 00H, 'T', 00H, 'T', 00H, 'O', 00H, 'N', 00H, 'U'
	DB	00H, 'P', 00H, 00H, 00H
	ORG $+2
$SG152690 DB	'W', 00H, 'M', 00H, '_', 00H, 'N', 00H, 'C', 00H, 'X', 00H
	DB	'B', 00H, 'U', 00H, 'T', 00H, 'T', 00H, 'O', 00H, 'N', 00H, 'D'
	DB	00H, 'B', 00H, 'L', 00H, 'C', 00H, 'L', 00H, 'K', 00H, 00H, 00H
	ORG $+2
$SG152692 DB	'W', 00H, 'M', 00H, '_', 00H, 'I', 00H, 'N', 00H, 'P', 00H
	DB	'U', 00H, 'T', 00H, 00H, 00H
	ORG $+2
$SG152694 DB	'W', 00H, 'M', 00H, '_', 00H, 'K', 00H, 'E', 00H, 'Y', 00H
	DB	'D', 00H, 'O', 00H, 'W', 00H, 'N', 00H, 00H, 00H
	ORG $+2
$SG152696 DB	'W', 00H, 'M', 00H, '_', 00H, 'K', 00H, 'E', 00H, 'Y', 00H
	DB	'U', 00H, 'P', 00H, 00H, 00H
	ORG $+2
$SG152698 DB	'W', 00H, 'M', 00H, '_', 00H, 'C', 00H, 'H', 00H, 'A', 00H
	DB	'R', 00H, 00H, 00H
$SG152700 DB	'W', 00H, 'M', 00H, '_', 00H, 'D', 00H, 'E', 00H, 'A', 00H
	DB	'D', 00H, 'C', 00H, 'H', 00H, 'A', 00H, 'R', 00H, 00H, 00H
$SG152702 DB	'W', 00H, 'M', 00H, '_', 00H, 'S', 00H, 'Y', 00H, 'S', 00H
	DB	'K', 00H, 'E', 00H, 'Y', 00H, 'D', 00H, 'O', 00H, 'W', 00H, 'N'
	DB	00H, 00H, 00H
$SG152704 DB	'W', 00H, 'M', 00H, '_', 00H, 'S', 00H, 'Y', 00H, 'S', 00H
	DB	'K', 00H, 'E', 00H, 'Y', 00H, 'U', 00H, 'P', 00H, 00H, 00H
$SG152706 DB	'W', 00H, 'M', 00H, '_', 00H, 'S', 00H, 'Y', 00H, 'S', 00H
	DB	'C', 00H, 'H', 00H, 'A', 00H, 'R', 00H, 00H, 00H
	ORG $+2
$SG152708 DB	'W', 00H, 'M', 00H, '_', 00H, 'S', 00H, 'Y', 00H, 'S', 00H
	DB	'D', 00H, 'E', 00H, 'A', 00H, 'D', 00H, 'C', 00H, 'H', 00H, 'A'
	DB	00H, 'R', 00H, 00H, 00H
	ORG $+2
$SG152710 DB	'W', 00H, 'M', 00H, '_', 00H, 'U', 00H, 'N', 00H, 'I', 00H
	DB	'C', 00H, 'H', 00H, 'A', 00H, 'R', 00H, 00H, 00H
	ORG $+2
$SG152712 DB	'W', 00H, 'M', 00H, '_', 00H, 'I', 00H, 'M', 00H, 'E', 00H
	DB	'_', 00H, 'S', 00H, 'T', 00H, 'A', 00H, 'R', 00H, 'T', 00H, 'C'
	DB	00H, 'O', 00H, 'M', 00H, 'P', 00H, 'O', 00H, 'S', 00H, 'I', 00H
	DB	'T', 00H, 'I', 00H, 'O', 00H, 'N', 00H, 00H, 00H
$SG152714 DB	'W', 00H, 'M', 00H, '_', 00H, 'I', 00H, 'M', 00H, 'E', 00H
	DB	'_', 00H, 'E', 00H, 'N', 00H, 'D', 00H, 'C', 00H, 'O', 00H, 'M'
	DB	00H, 'P', 00H, 'O', 00H, 'S', 00H, 'I', 00H, 'T', 00H, 'I', 00H
	DB	'O', 00H, 'N', 00H, 00H, 00H
$SG152716 DB	'W', 00H, 'M', 00H, '_', 00H, 'I', 00H, 'M', 00H, 'E', 00H
	DB	'_', 00H, 'C', 00H, 'O', 00H, 'M', 00H, 'P', 00H, 'O', 00H, 'S'
	DB	00H, 'I', 00H, 'T', 00H, 'I', 00H, 'O', 00H, 'N', 00H, 00H, 00H
	ORG $+2
$SG152718 DB	'W', 00H, 'M', 00H, '_', 00H, 'I', 00H, 'N', 00H, 'I', 00H
	DB	'T', 00H, 'D', 00H, 'I', 00H, 'A', 00H, 'L', 00H, 'O', 00H, 'G'
	DB	00H, 00H, 00H
$SG152720 DB	'W', 00H, 'M', 00H, '_', 00H, 'C', 00H, 'O', 00H, 'M', 00H
	DB	'M', 00H, 'A', 00H, 'N', 00H, 'D', 00H, 00H, 00H
	ORG $+2
$SG152722 DB	'W', 00H, 'M', 00H, '_', 00H, 'S', 00H, 'Y', 00H, 'S', 00H
	DB	'C', 00H, 'O', 00H, 'M', 00H, 'M', 00H, 'A', 00H, 'N', 00H, 'D'
	DB	00H, 00H, 00H
$SG152724 DB	'W', 00H, 'M', 00H, '_', 00H, 'T', 00H, 'I', 00H, 'M', 00H
	DB	'E', 00H, 'R', 00H, 00H, 00H
	ORG $+2
$SG152726 DB	'W', 00H, 'M', 00H, '_', 00H, 'H', 00H, 'S', 00H, 'C', 00H
	DB	'R', 00H, 'O', 00H, 'L', 00H, 'L', 00H, 00H, 00H
	ORG $+2
$SG152728 DB	'W', 00H, 'M', 00H, '_', 00H, 'V', 00H, 'S', 00H, 'C', 00H
	DB	'R', 00H, 'O', 00H, 'L', 00H, 'L', 00H, 00H, 00H
	ORG $+2
$SG152730 DB	'W', 00H, 'M', 00H, '_', 00H, 'I', 00H, 'N', 00H, 'I', 00H
	DB	'T', 00H, 'M', 00H, 'E', 00H, 'N', 00H, 'U', 00H, 00H, 00H
$SG152732 DB	'W', 00H, 'M', 00H, '_', 00H, 'I', 00H, 'N', 00H, 'I', 00H
	DB	'T', 00H, 'M', 00H, 'E', 00H, 'N', 00H, 'U', 00H, 'P', 00H, 'O'
	DB	00H, 'P', 00H, 'U', 00H, 'P', 00H, 00H, 00H
	ORG $+2
$SG152734 DB	'W', 00H, 'M', 00H, '_', 00H, 'M', 00H, 'E', 00H, 'N', 00H
	DB	'U', 00H, 'S', 00H, 'E', 00H, 'L', 00H, 'E', 00H, 'C', 00H, 'T'
	DB	00H, 00H, 00H
$SG152736 DB	'W', 00H, 'M', 00H, '_', 00H, 'M', 00H, 'E', 00H, 'N', 00H
	DB	'U', 00H, 'C', 00H, 'H', 00H, 'A', 00H, 'R', 00H, 00H, 00H
$SG152738 DB	'W', 00H, 'M', 00H, '_', 00H, 'E', 00H, 'N', 00H, 'T', 00H
	DB	'E', 00H, 'R', 00H, 'I', 00H, 'D', 00H, 'L', 00H, 'E', 00H, 00H
	DB	00H
	ORG $+2
$SG152740 DB	'W', 00H, 'M', 00H, '_', 00H, 'M', 00H, 'E', 00H, 'N', 00H
	DB	'U', 00H, 'R', 00H, 'B', 00H, 'U', 00H, 'T', 00H, 'T', 00H, 'O'
	DB	00H, 'N', 00H, 'U', 00H, 'P', 00H, 00H, 00H
	ORG $+2
$SG152742 DB	'W', 00H, 'M', 00H, '_', 00H, 'M', 00H, 'E', 00H, 'N', 00H
	DB	'U', 00H, 'D', 00H, 'R', 00H, 'A', 00H, 'G', 00H, 00H, 00H
$SG152744 DB	'W', 00H, 'M', 00H, '_', 00H, 'M', 00H, 'E', 00H, 'N', 00H
	DB	'U', 00H, 'G', 00H, 'E', 00H, 'T', 00H, 'O', 00H, 'B', 00H, 'J'
	DB	00H, 'E', 00H, 'C', 00H, 'T', 00H, 00H, 00H
	ORG $+2
$SG152746 DB	'W', 00H, 'M', 00H, '_', 00H, 'U', 00H, 'N', 00H, 'I', 00H
	DB	'N', 00H, 'I', 00H, 'T', 00H, 'M', 00H, 'E', 00H, 'N', 00H, 'U'
	DB	00H, 'P', 00H, 'O', 00H, 'P', 00H, 'U', 00H, 'P', 00H, 00H, 00H
	ORG $+2
$SG152748 DB	'W', 00H, 'M', 00H, '_', 00H, 'M', 00H, 'E', 00H, 'N', 00H
	DB	'U', 00H, 'C', 00H, 'O', 00H, 'M', 00H, 'M', 00H, 'A', 00H, 'N'
	DB	00H, 'D', 00H, 00H, 00H
	ORG $+2
$SG152750 DB	'W', 00H, 'M', 00H, '_', 00H, 'C', 00H, 'H', 00H, 'A', 00H
	DB	'N', 00H, 'G', 00H, 'E', 00H, 'U', 00H, 'I', 00H, 'S', 00H, 'T'
	DB	00H, 'A', 00H, 'T', 00H, 'E', 00H, 00H, 00H
	ORG $+2
$SG152752 DB	'W', 00H, 'M', 00H, '_', 00H, 'U', 00H, 'P', 00H, 'D', 00H
	DB	'A', 00H, 'T', 00H, 'E', 00H, 'U', 00H, 'I', 00H, 'S', 00H, 'T'
	DB	00H, 'A', 00H, 'T', 00H, 'E', 00H, 00H, 00H
	ORG $+2
$SG152754 DB	'W', 00H, 'M', 00H, '_', 00H, 'Q', 00H, 'U', 00H, 'E', 00H
	DB	'R', 00H, 'Y', 00H, 'U', 00H, 'I', 00H, 'S', 00H, 'T', 00H, 'A'
	DB	00H, 'T', 00H, 'E', 00H, 00H, 00H
$SG152756 DB	'W', 00H, 'M', 00H, '_', 00H, 'C', 00H, 'T', 00H, 'L', 00H
	DB	'C', 00H, 'O', 00H, 'L', 00H, 'O', 00H, 'R', 00H, 'M', 00H, 'S'
	DB	00H, 'G', 00H, 'B', 00H, 'O', 00H, 'X', 00H, 00H, 00H
$SG152758 DB	'W', 00H, 'M', 00H, '_', 00H, 'C', 00H, 'T', 00H, 'L', 00H
	DB	'C', 00H, 'O', 00H, 'L', 00H, 'O', 00H, 'R', 00H, 'E', 00H, 'D'
	DB	00H, 'I', 00H, 'T', 00H, 00H, 00H
$SG152760 DB	'W', 00H, 'M', 00H, '_', 00H, 'C', 00H, 'T', 00H, 'L', 00H
	DB	'C', 00H, 'O', 00H, 'L', 00H, 'O', 00H, 'R', 00H, 'L', 00H, 'I'
	DB	00H, 'S', 00H, 'T', 00H, 'B', 00H, 'O', 00H, 'X', 00H, 00H, 00H
	ORG $+2
$SG152762 DB	'W', 00H, 'M', 00H, '_', 00H, 'C', 00H, 'T', 00H, 'L', 00H
	DB	'C', 00H, 'O', 00H, 'L', 00H, 'O', 00H, 'R', 00H, 'B', 00H, 'T'
	DB	00H, 'N', 00H, 00H, 00H
	ORG $+2
$SG152764 DB	'W', 00H, 'M', 00H, '_', 00H, 'C', 00H, 'T', 00H, 'L', 00H
	DB	'C', 00H, 'O', 00H, 'L', 00H, 'O', 00H, 'R', 00H, 'D', 00H, 'L'
	DB	00H, 'G', 00H, 00H, 00H
	ORG $+2
$SG152766 DB	'W', 00H, 'M', 00H, '_', 00H, 'C', 00H, 'T', 00H, 'L', 00H
	DB	'C', 00H, 'O', 00H, 'L', 00H, 'O', 00H, 'R', 00H, 'S', 00H, 'C'
	DB	00H, 'R', 00H, 'O', 00H, 'L', 00H, 'L', 00H, 'B', 00H, 'A', 00H
	DB	'R', 00H, 00H, 00H
	ORG $+2
$SG152768 DB	'W', 00H, 'M', 00H, '_', 00H, 'C', 00H, 'T', 00H, 'L', 00H
	DB	'C', 00H, 'O', 00H, 'L', 00H, 'O', 00H, 'R', 00H, 'S', 00H, 'T'
	DB	00H, 'A', 00H, 'T', 00H, 'I', 00H, 'C', 00H, 00H, 00H
$SG152770 DB	'M', 00H, 'N', 00H, '_', 00H, 'G', 00H, 'E', 00H, 'T', 00H
	DB	'H', 00H, 'M', 00H, 'E', 00H, 'N', 00H, 'U', 00H, 00H, 00H
$SG152772 DB	'W', 00H, 'M', 00H, '_', 00H, 'M', 00H, 'O', 00H, 'U', 00H
	DB	'S', 00H, 'E', 00H, 'M', 00H, 'O', 00H, 'V', 00H, 'E', 00H, 00H
	DB	00H
	ORG $+2
$SG152774 DB	'W', 00H, 'M', 00H, '_', 00H, 'L', 00H, 'B', 00H, 'U', 00H
	DB	'T', 00H, 'T', 00H, 'O', 00H, 'N', 00H, 'D', 00H, 'O', 00H, 'W'
	DB	00H, 'N', 00H, 00H, 00H
	ORG $+2
$SG152776 DB	'W', 00H, 'M', 00H, '_', 00H, 'L', 00H, 'B', 00H, 'U', 00H
	DB	'T', 00H, 'T', 00H, 'O', 00H, 'N', 00H, 'U', 00H, 'P', 00H, 00H
	DB	00H
	ORG $+2
$SG152778 DB	'W', 00H, 'M', 00H, '_', 00H, 'L', 00H, 'B', 00H, 'U', 00H
	DB	'T', 00H, 'T', 00H, 'O', 00H, 'N', 00H, 'D', 00H, 'B', 00H, 'L'
	DB	00H, 'C', 00H, 'L', 00H, 'K', 00H, 00H, 00H
	ORG $+2
$SG152780 DB	'W', 00H, 'M', 00H, '_', 00H, 'R', 00H, 'B', 00H, 'U', 00H
	DB	'T', 00H, 'T', 00H, 'O', 00H, 'N', 00H, 'D', 00H, 'O', 00H, 'W'
	DB	00H, 'N', 00H, 00H, 00H
	ORG $+2
$SG152782 DB	'W', 00H, 'M', 00H, '_', 00H, 'R', 00H, 'B', 00H, 'U', 00H
	DB	'T', 00H, 'T', 00H, 'O', 00H, 'N', 00H, 'U', 00H, 'P', 00H, 00H
	DB	00H
	ORG $+2
$SG152784 DB	'W', 00H, 'M', 00H, '_', 00H, 'R', 00H, 'B', 00H, 'U', 00H
	DB	'T', 00H, 'T', 00H, 'O', 00H, 'N', 00H, 'D', 00H, 'B', 00H, 'L'
	DB	00H, 'C', 00H, 'L', 00H, 'K', 00H, 00H, 00H
	ORG $+2
$SG152786 DB	'W', 00H, 'M', 00H, '_', 00H, 'M', 00H, 'B', 00H, 'U', 00H
	DB	'T', 00H, 'T', 00H, 'O', 00H, 'N', 00H, 'D', 00H, 'O', 00H, 'W'
	DB	00H, 'N', 00H, 00H, 00H
	ORG $+2
$SG152788 DB	'W', 00H, 'M', 00H, '_', 00H, 'M', 00H, 'B', 00H, 'U', 00H
	DB	'T', 00H, 'T', 00H, 'O', 00H, 'N', 00H, 'U', 00H, 'P', 00H, 00H
	DB	00H
	ORG $+2
$SG152790 DB	'W', 00H, 'M', 00H, '_', 00H, 'M', 00H, 'B', 00H, 'U', 00H
	DB	'T', 00H, 'T', 00H, 'O', 00H, 'N', 00H, 'D', 00H, 'B', 00H, 'L'
	DB	00H, 'C', 00H, 'L', 00H, 'K', 00H, 00H, 00H
	ORG $+2
$SG152792 DB	'W', 00H, 'M', 00H, '_', 00H, 'M', 00H, 'O', 00H, 'U', 00H
	DB	'S', 00H, 'E', 00H, 'W', 00H, 'H', 00H, 'E', 00H, 'E', 00H, 'L'
	DB	00H, 00H, 00H
$SG152794 DB	'W', 00H, 'M', 00H, '_', 00H, 'X', 00H, 'B', 00H, 'U', 00H
	DB	'T', 00H, 'T', 00H, 'O', 00H, 'N', 00H, 'D', 00H, 'O', 00H, 'W'
	DB	00H, 'N', 00H, 00H, 00H
	ORG $+2
$SG152796 DB	'W', 00H, 'M', 00H, '_', 00H, 'X', 00H, 'B', 00H, 'U', 00H
	DB	'T', 00H, 'T', 00H, 'O', 00H, 'N', 00H, 'U', 00H, 'P', 00H, 00H
	DB	00H
	ORG $+2
$SG152798 DB	'W', 00H, 'M', 00H, '_', 00H, 'X', 00H, 'B', 00H, 'U', 00H
	DB	'T', 00H, 'T', 00H, 'O', 00H, 'N', 00H, 'D', 00H, 'B', 00H, 'L'
	DB	00H, 'C', 00H, 'L', 00H, 'K', 00H, 00H, 00H
	ORG $+2
$SG152800 DB	'W', 00H, 'M', 00H, '_', 00H, 'P', 00H, 'A', 00H, 'R', 00H
	DB	'E', 00H, 'N', 00H, 'T', 00H, 'N', 00H, 'O', 00H, 'T', 00H, 'I'
	DB	00H, 'F', 00H, 'Y', 00H, 00H, 00H
$SG152802 DB	'W', 00H, 'M', 00H, '_', 00H, 'E', 00H, 'N', 00H, 'T', 00H
	DB	'E', 00H, 'R', 00H, 'M', 00H, 'E', 00H, 'N', 00H, 'U', 00H, 'L'
	DB	00H, 'O', 00H, 'O', 00H, 'P', 00H, 00H, 00H
	ORG $+2
$SG152804 DB	'W', 00H, 'M', 00H, '_', 00H, 'E', 00H, 'X', 00H, 'I', 00H
	DB	'T', 00H, 'M', 00H, 'E', 00H, 'N', 00H, 'U', 00H, 'L', 00H, 'O'
	DB	00H, 'O', 00H, 'P', 00H, 00H, 00H
$SG152806 DB	'W', 00H, 'M', 00H, '_', 00H, 'N', 00H, 'E', 00H, 'X', 00H
	DB	'T', 00H, 'M', 00H, 'E', 00H, 'N', 00H, 'U', 00H, 00H, 00H
$SG152808 DB	'W', 00H, 'M', 00H, '_', 00H, 'S', 00H, 'I', 00H, 'Z', 00H
	DB	'I', 00H, 'N', 00H, 'G', 00H, 00H, 00H
$SG152810 DB	'W', 00H, 'M', 00H, '_', 00H, 'C', 00H, 'A', 00H, 'P', 00H
	DB	'T', 00H, 'U', 00H, 'R', 00H, 'E', 00H, 'C', 00H, 'H', 00H, 'A'
	DB	00H, 'N', 00H, 'G', 00H, 'E', 00H, 'D', 00H, 00H, 00H
$SG152812 DB	'W', 00H, 'M', 00H, '_', 00H, 'M', 00H, 'O', 00H, 'V', 00H
	DB	'I', 00H, 'N', 00H, 'G', 00H, 00H, 00H
$SG152814 DB	'W', 00H, 'M', 00H, '_', 00H, 'P', 00H, 'O', 00H, 'W', 00H
	DB	'E', 00H, 'R', 00H, 'B', 00H, 'R', 00H, 'O', 00H, 'A', 00H, 'D'
	DB	00H, 'C', 00H, 'A', 00H, 'S', 00H, 'T', 00H, 00H, 00H
$SG152816 DB	'W', 00H, 'M', 00H, '_', 00H, 'D', 00H, 'E', 00H, 'V', 00H
	DB	'I', 00H, 'C', 00H, 'E', 00H, 'C', 00H, 'H', 00H, 'A', 00H, 'N'
	DB	00H, 'G', 00H, 'E', 00H, 00H, 00H
$SG152818 DB	'W', 00H, 'M', 00H, '_', 00H, 'M', 00H, 'D', 00H, 'I', 00H
	DB	'C', 00H, 'R', 00H, 'E', 00H, 'A', 00H, 'T', 00H, 'E', 00H, 00H
	DB	00H
	ORG $+2
$SG152820 DB	'W', 00H, 'M', 00H, '_', 00H, 'M', 00H, 'D', 00H, 'I', 00H
	DB	'D', 00H, 'E', 00H, 'S', 00H, 'T', 00H, 'R', 00H, 'O', 00H, 'Y'
	DB	00H, 00H, 00H
$SG152822 DB	'W', 00H, 'M', 00H, '_', 00H, 'M', 00H, 'D', 00H, 'I', 00H
	DB	'A', 00H, 'C', 00H, 'T', 00H, 'I', 00H, 'V', 00H, 'A', 00H, 'T'
	DB	00H, 'E', 00H, 00H, 00H
	ORG $+2
$SG152824 DB	'W', 00H, 'M', 00H, '_', 00H, 'M', 00H, 'D', 00H, 'I', 00H
	DB	'R', 00H, 'E', 00H, 'S', 00H, 'T', 00H, 'O', 00H, 'R', 00H, 'E'
	DB	00H, 00H, 00H
$SG152826 DB	'W', 00H, 'M', 00H, '_', 00H, 'M', 00H, 'D', 00H, 'I', 00H
	DB	'N', 00H, 'E', 00H, 'X', 00H, 'T', 00H, 00H, 00H
	ORG $+2
$SG152828 DB	'W', 00H, 'M', 00H, '_', 00H, 'M', 00H, 'D', 00H, 'I', 00H
	DB	'M', 00H, 'A', 00H, 'X', 00H, 'I', 00H, 'M', 00H, 'I', 00H, 'Z'
	DB	00H, 'E', 00H, 00H, 00H
	ORG $+2
$SG152830 DB	'W', 00H, 'M', 00H, '_', 00H, 'M', 00H, 'D', 00H, 'I', 00H
	DB	'T', 00H, 'I', 00H, 'L', 00H, 'E', 00H, 00H, 00H
	ORG $+2
$SG152832 DB	'W', 00H, 'M', 00H, '_', 00H, 'M', 00H, 'D', 00H, 'I', 00H
	DB	'C', 00H, 'A', 00H, 'S', 00H, 'C', 00H, 'A', 00H, 'D', 00H, 'E'
	DB	00H, 00H, 00H
$SG152834 DB	'W', 00H, 'M', 00H, '_', 00H, 'M', 00H, 'D', 00H, 'I', 00H
	DB	'I', 00H, 'C', 00H, 'O', 00H, 'N', 00H, 'A', 00H, 'R', 00H, 'R'
	DB	00H, 'A', 00H, 'N', 00H, 'G', 00H, 'E', 00H, 00H, 00H
$SG152836 DB	'W', 00H, 'M', 00H, '_', 00H, 'M', 00H, 'D', 00H, 'I', 00H
	DB	'G', 00H, 'E', 00H, 'T', 00H, 'A', 00H, 'C', 00H, 'T', 00H, 'I'
	DB	00H, 'V', 00H, 'E', 00H, 00H, 00H
$SG152838 DB	'W', 00H, 'M', 00H, '_', 00H, 'M', 00H, 'D', 00H, 'I', 00H
	DB	'S', 00H, 'E', 00H, 'T', 00H, 'M', 00H, 'E', 00H, 'N', 00H, 'U'
	DB	00H, 00H, 00H
$SG152840 DB	'W', 00H, 'M', 00H, '_', 00H, 'E', 00H, 'N', 00H, 'T', 00H
	DB	'E', 00H, 'R', 00H, 'S', 00H, 'I', 00H, 'Z', 00H, 'E', 00H, 'M'
	DB	00H, 'O', 00H, 'V', 00H, 'E', 00H, 00H, 00H
	ORG $+2
$SG152842 DB	'W', 00H, 'M', 00H, '_', 00H, 'E', 00H, 'X', 00H, 'I', 00H
	DB	'T', 00H, 'S', 00H, 'I', 00H, 'Z', 00H, 'E', 00H, 'M', 00H, 'O'
	DB	00H, 'V', 00H, 'E', 00H, 00H, 00H
$SG152844 DB	'W', 00H, 'M', 00H, '_', 00H, 'D', 00H, 'R', 00H, 'O', 00H
	DB	'P', 00H, 'F', 00H, 'I', 00H, 'L', 00H, 'E', 00H, 'S', 00H, 00H
	DB	00H
	ORG $+2
$SG152846 DB	'W', 00H, 'M', 00H, '_', 00H, 'M', 00H, 'D', 00H, 'I', 00H
	DB	'R', 00H, 'E', 00H, 'F', 00H, 'R', 00H, 'E', 00H, 'S', 00H, 'H'
	DB	00H, 'M', 00H, 'E', 00H, 'N', 00H, 'U', 00H, 00H, 00H
$SG152848 DB	'W', 00H, 'M', 00H, '_', 00H, 'I', 00H, 'M', 00H, 'E', 00H
	DB	'_', 00H, 'S', 00H, 'E', 00H, 'T', 00H, 'C', 00H, 'O', 00H, 'N'
	DB	00H, 'T', 00H, 'E', 00H, 'X', 00H, 'T', 00H, 00H, 00H
$SG152850 DB	'W', 00H, 'M', 00H, '_', 00H, 'I', 00H, 'M', 00H, 'E', 00H
	DB	'_', 00H, 'N', 00H, 'O', 00H, 'T', 00H, 'I', 00H, 'F', 00H, 'Y'
	DB	00H, 00H, 00H
$SG152852 DB	'W', 00H, 'M', 00H, '_', 00H, 'I', 00H, 'M', 00H, 'E', 00H
	DB	'_', 00H, 'C', 00H, 'O', 00H, 'N', 00H, 'T', 00H, 'R', 00H, 'O'
	DB	00H, 'L', 00H, 00H, 00H
	ORG $+2
$SG152854 DB	'W', 00H, 'M', 00H, '_', 00H, 'I', 00H, 'M', 00H, 'E', 00H
	DB	'_', 00H, 'C', 00H, 'O', 00H, 'M', 00H, 'P', 00H, 'O', 00H, 'S'
	DB	00H, 'I', 00H, 'T', 00H, 'I', 00H, 'O', 00H, 'N', 00H, 'F', 00H
	DB	'U', 00H, 'L', 00H, 'L', 00H, 00H, 00H
	ORG $+2
$SG152856 DB	'W', 00H, 'M', 00H, '_', 00H, 'I', 00H, 'M', 00H, 'E', 00H
	DB	'_', 00H, 'S', 00H, 'E', 00H, 'L', 00H, 'E', 00H, 'C', 00H, 'T'
	DB	00H, 00H, 00H
$SG152858 DB	'W', 00H, 'M', 00H, '_', 00H, 'I', 00H, 'M', 00H, 'E', 00H
	DB	'_', 00H, 'C', 00H, 'H', 00H, 'A', 00H, 'R', 00H, 00H, 00H
$SG152860 DB	'W', 00H, 'M', 00H, '_', 00H, 'I', 00H, 'M', 00H, 'E', 00H
	DB	'_', 00H, 'R', 00H, 'E', 00H, 'Q', 00H, 'U', 00H, 'E', 00H, 'S'
	DB	00H, 'T', 00H, 00H, 00H
	ORG $+2
$SG152862 DB	'W', 00H, 'M', 00H, '_', 00H, 'I', 00H, 'M', 00H, 'E', 00H
	DB	'_', 00H, 'K', 00H, 'E', 00H, 'Y', 00H, 'D', 00H, 'O', 00H, 'W'
	DB	00H, 'N', 00H, 00H, 00H
	ORG $+2
$SG152864 DB	'W', 00H, 'M', 00H, '_', 00H, 'I', 00H, 'M', 00H, 'E', 00H
	DB	'_', 00H, 'K', 00H, 'E', 00H, 'Y', 00H, 'U', 00H, 'P', 00H, 00H
	DB	00H
	ORG $+2
$SG152866 DB	'W', 00H, 'M', 00H, '_', 00H, 'M', 00H, 'O', 00H, 'U', 00H
	DB	'S', 00H, 'E', 00H, 'H', 00H, 'O', 00H, 'V', 00H, 'E', 00H, 'R'
	DB	00H, 00H, 00H
$SG152868 DB	'W', 00H, 'M', 00H, '_', 00H, 'M', 00H, 'O', 00H, 'U', 00H
	DB	'S', 00H, 'E', 00H, 'L', 00H, 'E', 00H, 'A', 00H, 'V', 00H, 'E'
	DB	00H, 00H, 00H
$SG152870 DB	'W', 00H, 'M', 00H, '_', 00H, 'N', 00H, 'C', 00H, 'M', 00H
	DB	'O', 00H, 'U', 00H, 'S', 00H, 'E', 00H, 'H', 00H, 'O', 00H, 'V'
	DB	00H, 'E', 00H, 'R', 00H, 00H, 00H
$SG152872 DB	'W', 00H, 'M', 00H, '_', 00H, 'N', 00H, 'C', 00H, 'M', 00H
	DB	'O', 00H, 'U', 00H, 'S', 00H, 'E', 00H, 'L', 00H, 'E', 00H, 'A'
	DB	00H, 'V', 00H, 'E', 00H, 00H, 00H
$SG152874 DB	'W', 00H, 'M', 00H, '_', 00H, 'W', 00H, 'T', 00H, 'S', 00H
	DB	'S', 00H, 'E', 00H, 'S', 00H, 'S', 00H, 'I', 00H, 'O', 00H, 'N'
	DB	00H, '_', 00H, 'C', 00H, 'H', 00H, 'A', 00H, 'N', 00H, 'G', 00H
	DB	'E', 00H, 00H, 00H
	ORG $+2
$SG152876 DB	'W', 00H, 'M', 00H, '_', 00H, 'T', 00H, 'A', 00H, 'B', 00H
	DB	'L', 00H, 'E', 00H, 'T', 00H, '_', 00H, 'F', 00H, 'I', 00H, 'R'
	DB	00H, 'S', 00H, 'T', 00H, 00H, 00H
$SG152878 DB	'W', 00H, 'M', 00H, '_', 00H, 'T', 00H, 'A', 00H, 'B', 00H
	DB	'L', 00H, 'E', 00H, 'T', 00H, '_', 00H, 'L', 00H, 'A', 00H, 'S'
	DB	00H, 'T', 00H, 00H, 00H
	ORG $+2
$SG152880 DB	'W', 00H, 'M', 00H, '_', 00H, 'C', 00H, 'U', 00H, 'T', 00H
	DB	00H, 00H
	ORG $+2
$SG152882 DB	'W', 00H, 'M', 00H, '_', 00H, 'C', 00H, 'O', 00H, 'P', 00H
	DB	'Y', 00H, 00H, 00H
$SG152884 DB	'W', 00H, 'M', 00H, '_', 00H, 'P', 00H, 'A', 00H, 'S', 00H
	DB	'T', 00H, 'E', 00H, 00H, 00H
	ORG $+2
$SG152886 DB	'W', 00H, 'M', 00H, '_', 00H, 'C', 00H, 'L', 00H, 'E', 00H
	DB	'A', 00H, 'R', 00H, 00H, 00H
	ORG $+2
$SG152888 DB	'W', 00H, 'M', 00H, '_', 00H, 'U', 00H, 'N', 00H, 'D', 00H
	DB	'O', 00H, 00H, 00H
$SG152890 DB	'W', 00H, 'M', 00H, '_', 00H, 'R', 00H, 'E', 00H, 'N', 00H
	DB	'D', 00H, 'E', 00H, 'R', 00H, 'F', 00H, 'O', 00H, 'R', 00H, 'M'
	DB	00H, 'A', 00H, 'T', 00H, 00H, 00H
$SG152892 DB	'W', 00H, 'M', 00H, '_', 00H, 'R', 00H, 'E', 00H, 'N', 00H
	DB	'D', 00H, 'E', 00H, 'R', 00H, 'A', 00H, 'L', 00H, 'L', 00H, 'F'
	DB	00H, 'O', 00H, 'R', 00H, 'M', 00H, 'A', 00H, 'T', 00H, 'S', 00H
	DB	00H, 00H
$SG152894 DB	'W', 00H, 'M', 00H, '_', 00H, 'D', 00H, 'E', 00H, 'S', 00H
	DB	'T', 00H, 'R', 00H, 'O', 00H, 'Y', 00H, 'C', 00H, 'L', 00H, 'I'
	DB	00H, 'P', 00H, 'B', 00H, 'O', 00H, 'A', 00H, 'R', 00H, 'D', 00H
	DB	00H, 00H
$SG152896 DB	'W', 00H, 'M', 00H, '_', 00H, 'D', 00H, 'R', 00H, 'A', 00H
	DB	'W', 00H, 'C', 00H, 'L', 00H, 'I', 00H, 'P', 00H, 'B', 00H, 'O'
	DB	00H, 'A', 00H, 'R', 00H, 'D', 00H, 00H, 00H
	ORG $+2
$SG152898 DB	'W', 00H, 'M', 00H, '_', 00H, 'P', 00H, 'A', 00H, 'I', 00H
	DB	'N', 00H, 'T', 00H, 'C', 00H, 'L', 00H, 'I', 00H, 'P', 00H, 'B'
	DB	00H, 'O', 00H, 'A', 00H, 'R', 00H, 'D', 00H, 00H, 00H
$SG152900 DB	'W', 00H, 'M', 00H, '_', 00H, 'V', 00H, 'S', 00H, 'C', 00H
	DB	'R', 00H, 'O', 00H, 'L', 00H, 'L', 00H, 'C', 00H, 'L', 00H, 'I'
	DB	00H, 'P', 00H, 'B', 00H, 'O', 00H, 'A', 00H, 'R', 00H, 'D', 00H
	DB	00H, 00H
$SG152902 DB	'W', 00H, 'M', 00H, '_', 00H, 'S', 00H, 'I', 00H, 'Z', 00H
	DB	'E', 00H, 'C', 00H, 'L', 00H, 'I', 00H, 'P', 00H, 'B', 00H, 'O'
	DB	00H, 'A', 00H, 'R', 00H, 'D', 00H, 00H, 00H
	ORG $+2
$SG152904 DB	'W', 00H, 'M', 00H, '_', 00H, 'A', 00H, 'S', 00H, 'K', 00H
	DB	'C', 00H, 'B', 00H, 'F', 00H, 'O', 00H, 'R', 00H, 'M', 00H, 'A'
	DB	00H, 'T', 00H, 'N', 00H, 'A', 00H, 'M', 00H, 'E', 00H, 00H, 00H
	ORG $+2
$SG152906 DB	'W', 00H, 'M', 00H, '_', 00H, 'C', 00H, 'H', 00H, 'A', 00H
	DB	'N', 00H, 'G', 00H, 'E', 00H, 'C', 00H, 'B', 00H, 'C', 00H, 'H'
	DB	00H, 'A', 00H, 'I', 00H, 'N', 00H, 00H, 00H
	ORG $+2
$SG152908 DB	'W', 00H, 'M', 00H, '_', 00H, 'H', 00H, 'S', 00H, 'C', 00H
	DB	'R', 00H, 'O', 00H, 'L', 00H, 'L', 00H, 'C', 00H, 'L', 00H, 'I'
	DB	00H, 'P', 00H, 'B', 00H, 'O', 00H, 'A', 00H, 'R', 00H, 'D', 00H
	DB	00H, 00H
$SG152910 DB	'W', 00H, 'M', 00H, '_', 00H, 'Q', 00H, 'U', 00H, 'E', 00H
	DB	'R', 00H, 'Y', 00H, 'N', 00H, 'E', 00H, 'W', 00H, 'P', 00H, 'A'
	DB	00H, 'L', 00H, 'E', 00H, 'T', 00H, 'T', 00H, 'E', 00H, 00H, 00H
	ORG $+2
$SG152912 DB	'W', 00H, 'M', 00H, '_', 00H, 'P', 00H, 'A', 00H, 'L', 00H
	DB	'E', 00H, 'T', 00H, 'T', 00H, 'E', 00H, 'I', 00H, 'S', 00H, 'C'
	DB	00H, 'H', 00H, 'A', 00H, 'N', 00H, 'G', 00H, 'I', 00H, 'N', 00H
	DB	'G', 00H, 00H, 00H
	ORG $+2
$SG152914 DB	'W', 00H, 'M', 00H, '_', 00H, 'P', 00H, 'A', 00H, 'L', 00H
	DB	'E', 00H, 'T', 00H, 'T', 00H, 'E', 00H, 'C', 00H, 'H', 00H, 'A'
	DB	00H, 'N', 00H, 'G', 00H, 'E', 00H, 'D', 00H, 00H, 00H
$SG152916 DB	'W', 00H, 'M', 00H, '_', 00H, 'H', 00H, 'O', 00H, 'T', 00H
	DB	'K', 00H, 'E', 00H, 'Y', 00H, 00H, 00H
$SG152918 DB	'W', 00H, 'M', 00H, '_', 00H, 'P', 00H, 'R', 00H, 'I', 00H
	DB	'N', 00H, 'T', 00H, 00H, 00H
	ORG $+2
$SG152920 DB	'W', 00H, 'M', 00H, '_', 00H, 'P', 00H, 'R', 00H, 'I', 00H
	DB	'N', 00H, 'T', 00H, 'C', 00H, 'L', 00H, 'I', 00H, 'E', 00H, 'N'
	DB	00H, 'T', 00H, 00H, 00H
	ORG $+2
$SG152922 DB	'W', 00H, 'M', 00H, '_', 00H, 'A', 00H, 'P', 00H, 'P', 00H
	DB	'C', 00H, 'O', 00H, 'M', 00H, 'M', 00H, 'A', 00H, 'N', 00H, 'D'
	DB	00H, 00H, 00H
$SG152924 DB	'W', 00H, 'M', 00H, '_', 00H, 'T', 00H, 'H', 00H, 'E', 00H
	DB	'M', 00H, 'E', 00H, 'C', 00H, 'H', 00H, 'A', 00H, 'N', 00H, 'G'
	DB	00H, 'E', 00H, 'D', 00H, 00H, 00H
$SG152926 DB	'W', 00H, 'M', 00H, '_', 00H, 'H', 00H, 'A', 00H, 'N', 00H
	DB	'D', 00H, 'H', 00H, 'E', 00H, 'L', 00H, 'D', 00H, 'F', 00H, 'I'
	DB	00H, 'R', 00H, 'S', 00H, 'T', 00H, 00H, 00H
	ORG $+2
$SG152928 DB	'W', 00H, 'M', 00H, '_', 00H, 'H', 00H, 'A', 00H, 'N', 00H
	DB	'D', 00H, 'H', 00H, 'E', 00H, 'L', 00H, 'D', 00H, 'L', 00H, 'A'
	DB	00H, 'S', 00H, 'T', 00H, 00H, 00H
$SG152930 DB	'W', 00H, 'M', 00H, '_', 00H, 'A', 00H, 'F', 00H, 'X', 00H
	DB	'F', 00H, 'I', 00H, 'R', 00H, 'S', 00H, 'T', 00H, 00H, 00H
$SG152932 DB	'W', 00H, 'M', 00H, '_', 00H, 'A', 00H, 'F', 00H, 'X', 00H
	DB	'L', 00H, 'A', 00H, 'S', 00H, 'T', 00H, 00H, 00H
	ORG $+2
$SG152934 DB	'W', 00H, 'M', 00H, '_', 00H, 'P', 00H, 'E', 00H, 'N', 00H
	DB	'W', 00H, 'I', 00H, 'N', 00H, 'F', 00H, 'I', 00H, 'R', 00H, 'S'
	DB	00H, 'T', 00H, 00H, 00H
	ORG $+2
$SG152936 DB	'W', 00H, 'M', 00H, '_', 00H, 'P', 00H, 'E', 00H, 'N', 00H
	DB	'W', 00H, 'I', 00H, 'N', 00H, 'L', 00H, 'A', 00H, 'S', 00H, 'T'
	DB	00H, 00H, 00H
$SG152938 DB	'W', 00H, 'M', 00H, '_', 00H, 'A', 00H, 'P', 00H, 'P', 00H
	DB	00H, 00H
	ORG $+2
$SG152940 DB	'U', 00H, 'n', 00H, 'k', 00H, 'n', 00H, 'o', 00H, 'w', 00H
	DB	'n', 00H, 00H, 00H
$SG152960 DB	'U', 00H, 'S', 00H, 'E', 00H, 'R', 00H, '3', 00H, '2', 00H
	DB	00H, 00H
	ORG $+2
$SG152963 DB	'GetMonitorInfoW', 00H
$SG152979 DB	'U', 00H, 'S', 00H, 'E', 00H, 'R', 00H, '3', 00H, '2', 00H
	DB	00H, 00H
	ORG $+2
$SG152982 DB	'MonitorFromWindow', 00H
	ORG $+2
$SG152996 DB	'U', 00H, 'S', 00H, 'E', 00H, 'R', 00H, '3', 00H, '2', 00H
	DB	00H, 00H
	ORG $+2
$SG152999 DB	'MonitorFromRect', 00H
$SG153018 DB	'D', 00H, 'X', 00H, 'U', 00H, 'T', 00H, 'm', 00H, 'i', 00H
	DB	's', 00H, 'c', 00H, '.', 00H, 'c', 00H, 'p', 00H, 'p', 00H, 00H
	DB	00H
	ORG $+2
$SG153019 DB	'p', 00H, 'd', 00H, '3', 00H, 'd', 00H, 'E', 00H, 'n', 00H
	DB	'u', 00H, 'm', 00H, 00H, 00H
	ORG $+2
$SG153043 DB	'*', 00H, 'E', 00H, 'R', 00H, 'R', 00H, 'O', 00H, 'R', 00H
	DB	'*', 00H, 00H, 00H
$SG153072 DB	'x', 00H, 'i', 00H, 'n', 00H, 'p', 00H, 'u', 00H, 't', 00H
	DB	'9', 00H, '_', 00H, '1', 00H, '_', 00H, '0', 00H, '.', 00H, 'd'
	DB	00H, 'l', 00H, 'l', 00H, 00H, 00H
$SG153075 DB	'XInputGetState', 00H
	ORG $+1
$SG153077 DB	'XInputGetCapabilities', 00H
	ORG $+2
$SG152081 DB	'D', 00H, 'X', 00H, 'U', 00H, 'T', 00H, 'm', 00H, 'i', 00H
	DB	's', 00H, 'c', 00H, '.', 00H, 'c', 00H, 'p', 00H, 'p', 00H, 00H
	DB	00H
	ORG $+6
$SG152082 DB	'p', 00H, 'f', 00H, 'T', 00H, 'i', 00H, 'm', 00H, 'e', 00H
	DB	' ', 00H, '&', 00H, '&', 00H, ' ', 00H, 'p', 00H, 'f', 00H, 'A'
	DB	00H, 'b', 00H, 's', 00H, 'o', 00H, 'l', 00H, 'u', 00H, 't', 00H
	DB	'e', 00H, 'T', 00H, 'i', 00H, 'm', 00H, 'e', 00H, ' ', 00H, '&'
	DB	00H, '&', 00H, ' ', 00H, 'p', 00H, 'f', 00H, 'E', 00H, 'l', 00H
	DB	'a', 00H, 'p', 00H, 's', 00H, 'e', 00H, 'd', 00H, 'T', 00H, 'i'
	DB	00H, 'm', 00H, 'e', 00H, 00H, 00H
$SG153107 DB	'x', 00H, 'i', 00H, 'n', 00H, 'p', 00H, 'u', 00H, 't', 00H
	DB	'9', 00H, '_', 00H, '1', 00H, '_', 00H, '0', 00H, '.', 00H, 'd'
	DB	00H, 'l', 00H, 'l', 00H, 00H, 00H
$SG153110 DB	'XInputEnable', 00H
	ORG $+3
$SG153118 DB	'x', 00H, 'i', 00H, 'n', 00H, 'p', 00H, 'u', 00H, 't', 00H
	DB	'9', 00H, '_', 00H, '1', 00H, '_', 00H, '0', 00H, '.', 00H, 'd'
	DB	00H, 'l', 00H, 'l', 00H, 00H, 00H
$SG153121 DB	'XInputSetState', 00H
	ORG $+5
$SG152132 DB	'D', 00H, 'X', 00H, 'G', 00H, 'I', 00H, '_', 00H, 'F', 00H
	DB	'O', 00H, 'R', 00H, 'M', 00H, 'A', 00H, 'T', 00H, '_', 00H, 'R'
	DB	00H, '3', 00H, '2', 00H, 'G', 00H, '3', 00H, '2', 00H, 'B', 00H
	DB	'3', 00H, '2', 00H, 'A', 00H, '3', 00H, '2', 00H, '_', 00H, 'T'
	DB	00H, 'Y', 00H, 'P', 00H, 'E', 00H, 'L', 00H, 'E', 00H, 'S', 00H
	DB	'S', 00H, 00H, 00H
$SG152134 DB	'D', 00H, 'X', 00H, 'G', 00H, 'I', 00H, '_', 00H, 'F', 00H
	DB	'O', 00H, 'R', 00H, 'M', 00H, 'A', 00H, 'T', 00H, '_', 00H, 'R'
	DB	00H, '3', 00H, '2', 00H, 'G', 00H, '3', 00H, '2', 00H, 'B', 00H
	DB	'3', 00H, '2', 00H, 'A', 00H, '3', 00H, '2', 00H, '_', 00H, 'F'
	DB	00H, 'L', 00H, 'O', 00H, 'A', 00H, 'T', 00H, 00H, 00H
	ORG $+2
$SG152136 DB	'D', 00H, 'X', 00H, 'G', 00H, 'I', 00H, '_', 00H, 'F', 00H
	DB	'O', 00H, 'R', 00H, 'M', 00H, 'A', 00H, 'T', 00H, '_', 00H, 'R'
	DB	00H, '3', 00H, '2', 00H, 'G', 00H, '3', 00H, '2', 00H, 'B', 00H
	DB	'3', 00H, '2', 00H, 'A', 00H, '3', 00H, '2', 00H, '_', 00H, 'U'
	DB	00H, 'I', 00H, 'N', 00H, 'T', 00H, 00H, 00H
$SG152138 DB	'D', 00H, 'X', 00H, 'G', 00H, 'I', 00H, '_', 00H, 'F', 00H
	DB	'O', 00H, 'R', 00H, 'M', 00H, 'A', 00H, 'T', 00H, '_', 00H, 'R'
	DB	00H, '3', 00H, '2', 00H, 'G', 00H, '3', 00H, '2', 00H, 'B', 00H
	DB	'3', 00H, '2', 00H, 'A', 00H, '3', 00H, '2', 00H, '_', 00H, 'S'
	DB	00H, 'I', 00H, 'N', 00H, 'T', 00H, 00H, 00H
$SG152140 DB	'D', 00H, 'X', 00H, 'G', 00H, 'I', 00H, '_', 00H, 'F', 00H
	DB	'O', 00H, 'R', 00H, 'M', 00H, 'A', 00H, 'T', 00H, '_', 00H, 'R'
	DB	00H, '3', 00H, '2', 00H, 'G', 00H, '3', 00H, '2', 00H, 'B', 00H
	DB	'3', 00H, '2', 00H, '_', 00H, 'T', 00H, 'Y', 00H, 'P', 00H, 'E'
	DB	00H, 'L', 00H, 'E', 00H, 'S', 00H, 'S', 00H, 00H, 00H
	ORG $+2
$SG152142 DB	'D', 00H, 'X', 00H, 'G', 00H, 'I', 00H, '_', 00H, 'F', 00H
	DB	'O', 00H, 'R', 00H, 'M', 00H, 'A', 00H, 'T', 00H, '_', 00H, 'R'
	DB	00H, '3', 00H, '2', 00H, 'G', 00H, '3', 00H, '2', 00H, 'B', 00H
	DB	'3', 00H, '2', 00H, '_', 00H, 'F', 00H, 'L', 00H, 'O', 00H, 'A'
	DB	00H, 'T', 00H, 00H, 00H
$SG152144 DB	'D', 00H, 'X', 00H, 'G', 00H, 'I', 00H, '_', 00H, 'F', 00H
	DB	'O', 00H, 'R', 00H, 'M', 00H, 'A', 00H, 'T', 00H, '_', 00H, 'R'
	DB	00H, '3', 00H, '2', 00H, 'G', 00H, '3', 00H, '2', 00H, 'B', 00H
	DB	'3', 00H, '2', 00H, '_', 00H, 'U', 00H, 'I', 00H, 'N', 00H, 'T'
	DB	00H, 00H, 00H
	ORG $+2
$SG152146 DB	'D', 00H, 'X', 00H, 'G', 00H, 'I', 00H, '_', 00H, 'F', 00H
	DB	'O', 00H, 'R', 00H, 'M', 00H, 'A', 00H, 'T', 00H, '_', 00H, 'R'
	DB	00H, '3', 00H, '2', 00H, 'G', 00H, '3', 00H, '2', 00H, 'B', 00H
	DB	'3', 00H, '2', 00H, '_', 00H, 'S', 00H, 'I', 00H, 'N', 00H, 'T'
	DB	00H, 00H, 00H
	ORG $+6
$SG152148 DB	'D', 00H, 'X', 00H, 'G', 00H, 'I', 00H, '_', 00H, 'F', 00H
	DB	'O', 00H, 'R', 00H, 'M', 00H, 'A', 00H, 'T', 00H, '_', 00H, 'R'
	DB	00H, '1', 00H, '6', 00H, 'G', 00H, '1', 00H, '6', 00H, 'B', 00H
	DB	'1', 00H, '6', 00H, 'A', 00H, '1', 00H, '6', 00H, '_', 00H, 'T'
	DB	00H, 'Y', 00H, 'P', 00H, 'E', 00H, 'L', 00H, 'E', 00H, 'S', 00H
	DB	'S', 00H, 00H, 00H
$SG152150 DB	'D', 00H, 'X', 00H, 'G', 00H, 'I', 00H, '_', 00H, 'F', 00H
	DB	'O', 00H, 'R', 00H, 'M', 00H, 'A', 00H, 'T', 00H, '_', 00H, 'R'
	DB	00H, '1', 00H, '6', 00H, 'G', 00H, '1', 00H, '6', 00H, 'B', 00H
	DB	'1', 00H, '6', 00H, 'A', 00H, '1', 00H, '6', 00H, '_', 00H, 'F'
	DB	00H, 'L', 00H, 'O', 00H, 'A', 00H, 'T', 00H, 00H, 00H
	ORG $+2
$SG152152 DB	'D', 00H, 'X', 00H, 'G', 00H, 'I', 00H, '_', 00H, 'F', 00H
	DB	'O', 00H, 'R', 00H, 'M', 00H, 'A', 00H, 'T', 00H, '_', 00H, 'R'
	DB	00H, '1', 00H, '6', 00H, 'G', 00H, '1', 00H, '6', 00H, 'B', 00H
	DB	'1', 00H, '6', 00H, 'A', 00H, '1', 00H, '6', 00H, '_', 00H, 'U'
	DB	00H, 'N', 00H, 'O', 00H, 'R', 00H, 'M', 00H, 00H, 00H
	ORG $+2
$SG152154 DB	'D', 00H, 'X', 00H, 'G', 00H, 'I', 00H, '_', 00H, 'F', 00H
	DB	'O', 00H, 'R', 00H, 'M', 00H, 'A', 00H, 'T', 00H, '_', 00H, 'R'
	DB	00H, '1', 00H, '6', 00H, 'G', 00H, '1', 00H, '6', 00H, 'B', 00H
	DB	'1', 00H, '6', 00H, 'A', 00H, '1', 00H, '6', 00H, '_', 00H, 'U'
	DB	00H, 'I', 00H, 'N', 00H, 'T', 00H, 00H, 00H
$SG152156 DB	'D', 00H, 'X', 00H, 'G', 00H, 'I', 00H, '_', 00H, 'F', 00H
	DB	'O', 00H, 'R', 00H, 'M', 00H, 'A', 00H, 'T', 00H, '_', 00H, 'R'
	DB	00H, '1', 00H, '6', 00H, 'G', 00H, '1', 00H, '6', 00H, 'B', 00H
	DB	'1', 00H, '6', 00H, 'A', 00H, '1', 00H, '6', 00H, '_', 00H, 'S'
	DB	00H, 'N', 00H, 'O', 00H, 'R', 00H, 'M', 00H, 00H, 00H
	ORG $+2
$SG152158 DB	'D', 00H, 'X', 00H, 'G', 00H, 'I', 00H, '_', 00H, 'F', 00H
	DB	'O', 00H, 'R', 00H, 'M', 00H, 'A', 00H, 'T', 00H, '_', 00H, 'R'
	DB	00H, '1', 00H, '6', 00H, 'G', 00H, '1', 00H, '6', 00H, 'B', 00H
	DB	'1', 00H, '6', 00H, 'A', 00H, '1', 00H, '6', 00H, '_', 00H, 'S'
	DB	00H, 'I', 00H, 'N', 00H, 'T', 00H, 00H, 00H
$SG152160 DB	'D', 00H, 'X', 00H, 'G', 00H, 'I', 00H, '_', 00H, 'F', 00H
	DB	'O', 00H, 'R', 00H, 'M', 00H, 'A', 00H, 'T', 00H, '_', 00H, 'R'
	DB	00H, '3', 00H, '2', 00H, 'G', 00H, '3', 00H, '2', 00H, '_', 00H
	DB	'T', 00H, 'Y', 00H, 'P', 00H, 'E', 00H, 'L', 00H, 'E', 00H, 'S'
	DB	00H, 'S', 00H, 00H, 00H
$SG152162 DB	'D', 00H, 'X', 00H, 'G', 00H, 'I', 00H, '_', 00H, 'F', 00H
	DB	'O', 00H, 'R', 00H, 'M', 00H, 'A', 00H, 'T', 00H, '_', 00H, 'R'
	DB	00H, '3', 00H, '2', 00H, 'G', 00H, '3', 00H, '2', 00H, '_', 00H
	DB	'F', 00H, 'L', 00H, 'O', 00H, 'A', 00H, 'T', 00H, 00H, 00H
	ORG $+2
$SG152164 DB	'D', 00H, 'X', 00H, 'G', 00H, 'I', 00H, '_', 00H, 'F', 00H
	DB	'O', 00H, 'R', 00H, 'M', 00H, 'A', 00H, 'T', 00H, '_', 00H, 'R'
	DB	00H, '3', 00H, '2', 00H, 'G', 00H, '3', 00H, '2', 00H, '_', 00H
	DB	'U', 00H, 'I', 00H, 'N', 00H, 'T', 00H, 00H, 00H
$SG152166 DB	'D', 00H, 'X', 00H, 'G', 00H, 'I', 00H, '_', 00H, 'F', 00H
	DB	'O', 00H, 'R', 00H, 'M', 00H, 'A', 00H, 'T', 00H, '_', 00H, 'R'
	DB	00H, '3', 00H, '2', 00H, 'G', 00H, '3', 00H, '2', 00H, '_', 00H
	DB	'S', 00H, 'I', 00H, 'N', 00H, 'T', 00H, 00H, 00H
$SG152168 DB	'D', 00H, 'X', 00H, 'G', 00H, 'I', 00H, '_', 00H, 'F', 00H
	DB	'O', 00H, 'R', 00H, 'M', 00H, 'A', 00H, 'T', 00H, '_', 00H, 'R'
	DB	00H, '3', 00H, '2', 00H, 'G', 00H, '8', 00H, 'X', 00H, '2', 00H
	DB	'4', 00H, '_', 00H, 'T', 00H, 'Y', 00H, 'P', 00H, 'E', 00H, 'L'
	DB	00H, 'E', 00H, 'S', 00H, 'S', 00H, 00H, 00H
	ORG $+4
$SG152170 DB	'D', 00H, 'X', 00H, 'G', 00H, 'I', 00H, '_', 00H, 'F', 00H
	DB	'O', 00H, 'R', 00H, 'M', 00H, 'A', 00H, 'T', 00H, '_', 00H, 'D'
	DB	00H, '3', 00H, '2', 00H, '_', 00H, 'F', 00H, 'L', 00H, 'O', 00H
	DB	'A', 00H, 'T', 00H, '_', 00H, 'S', 00H, '8', 00H, 'X', 00H, '2'
	DB	00H, '4', 00H, '_', 00H, 'U', 00H, 'I', 00H, 'N', 00H, 'T', 00H
	DB	00H, 00H
	ORG $+6
$SG152172 DB	'D', 00H, 'X', 00H, 'G', 00H, 'I', 00H, '_', 00H, 'F', 00H
	DB	'O', 00H, 'R', 00H, 'M', 00H, 'A', 00H, 'T', 00H, '_', 00H, 'R'
	DB	00H, '3', 00H, '2', 00H, '_', 00H, 'F', 00H, 'L', 00H, 'O', 00H
	DB	'A', 00H, 'T', 00H, '_', 00H, 'X', 00H, '8', 00H, 'X', 00H, '2'
	DB	00H, '4', 00H, '_', 00H, 'T', 00H, 'Y', 00H, 'P', 00H, 'E', 00H
	DB	'L', 00H, 'E', 00H, 'S', 00H, 'S', 00H, 00H, 00H
	ORG $+6
$SG152174 DB	'D', 00H, 'X', 00H, 'G', 00H, 'I', 00H, '_', 00H, 'F', 00H
	DB	'O', 00H, 'R', 00H, 'M', 00H, 'A', 00H, 'T', 00H, '_', 00H, 'X'
	DB	00H, '3', 00H, '2', 00H, '_', 00H, 'T', 00H, 'Y', 00H, 'P', 00H
	DB	'E', 00H, 'L', 00H, 'E', 00H, 'S', 00H, 'S', 00H, '_', 00H, 'G'
	DB	00H, '8', 00H, 'X', 00H, '2', 00H, '4', 00H, '_', 00H, 'U', 00H
	DB	'I', 00H, 'N', 00H, 'T', 00H, 00H, 00H
$SG152176 DB	'D', 00H, 'X', 00H, 'G', 00H, 'I', 00H, '_', 00H, 'F', 00H
	DB	'O', 00H, 'R', 00H, 'M', 00H, 'A', 00H, 'T', 00H, '_', 00H, 'R'
	DB	00H, '1', 00H, '0', 00H, 'G', 00H, '1', 00H, '0', 00H, 'B', 00H
	DB	'1', 00H, '0', 00H, 'A', 00H, '2', 00H, '_', 00H, 'T', 00H, 'Y'
	DB	00H, 'P', 00H, 'E', 00H, 'L', 00H, 'E', 00H, 'S', 00H, 'S', 00H
	DB	00H, 00H
	ORG $+2
$SG152178 DB	'D', 00H, 'X', 00H, 'G', 00H, 'I', 00H, '_', 00H, 'F', 00H
	DB	'O', 00H, 'R', 00H, 'M', 00H, 'A', 00H, 'T', 00H, '_', 00H, 'R'
	DB	00H, '1', 00H, '0', 00H, 'G', 00H, '1', 00H, '0', 00H, 'B', 00H
	DB	'1', 00H, '0', 00H, 'A', 00H, '2', 00H, '_', 00H, 'U', 00H, 'N'
	DB	00H, 'O', 00H, 'R', 00H, 'M', 00H, 00H, 00H
$SG152180 DB	'D', 00H, 'X', 00H, 'G', 00H, 'I', 00H, '_', 00H, 'F', 00H
	DB	'O', 00H, 'R', 00H, 'M', 00H, 'A', 00H, 'T', 00H, '_', 00H, 'R'
	DB	00H, '1', 00H, '0', 00H, 'G', 00H, '1', 00H, '0', 00H, 'B', 00H
	DB	'1', 00H, '0', 00H, 'A', 00H, '2', 00H, '_', 00H, 'U', 00H, 'I'
	DB	00H, 'N', 00H, 'T', 00H, 00H, 00H
	ORG $+2
$SG152182 DB	'D', 00H, 'X', 00H, 'G', 00H, 'I', 00H, '_', 00H, 'F', 00H
	DB	'O', 00H, 'R', 00H, 'M', 00H, 'A', 00H, 'T', 00H, '_', 00H, 'R'
	DB	00H, '1', 00H, '1', 00H, 'G', 00H, '1', 00H, '1', 00H, 'B', 00H
	DB	'1', 00H, '0', 00H, '_', 00H, 'F', 00H, 'L', 00H, 'O', 00H, 'A'
	DB	00H, 'T', 00H, 00H, 00H
$SG152184 DB	'D', 00H, 'X', 00H, 'G', 00H, 'I', 00H, '_', 00H, 'F', 00H
	DB	'O', 00H, 'R', 00H, 'M', 00H, 'A', 00H, 'T', 00H, '_', 00H, 'R'
	DB	00H, '8', 00H, 'G', 00H, '8', 00H, 'B', 00H, '8', 00H, 'A', 00H
	DB	'8', 00H, '_', 00H, 'T', 00H, 'Y', 00H, 'P', 00H, 'E', 00H, 'L'
	DB	00H, 'E', 00H, 'S', 00H, 'S', 00H, 00H, 00H
$SG152186 DB	'D', 00H, 'X', 00H, 'G', 00H, 'I', 00H, '_', 00H, 'F', 00H
	DB	'O', 00H, 'R', 00H, 'M', 00H, 'A', 00H, 'T', 00H, '_', 00H, 'R'
	DB	00H, '8', 00H, 'G', 00H, '8', 00H, 'B', 00H, '8', 00H, 'A', 00H
	DB	'8', 00H, '_', 00H, 'U', 00H, 'N', 00H, 'O', 00H, 'R', 00H, 'M'
	DB	00H, 00H, 00H
	ORG $+2
$SG152188 DB	'D', 00H, 'X', 00H, 'G', 00H, 'I', 00H, '_', 00H, 'F', 00H
	DB	'O', 00H, 'R', 00H, 'M', 00H, 'A', 00H, 'T', 00H, '_', 00H, 'R'
	DB	00H, '8', 00H, 'G', 00H, '8', 00H, 'B', 00H, '8', 00H, 'A', 00H
	DB	'8', 00H, '_', 00H, 'U', 00H, 'N', 00H, 'O', 00H, 'R', 00H, 'M'
	DB	00H, '_', 00H, 'S', 00H, 'R', 00H, 'G', 00H, 'B', 00H, 00H, 00H
$SG152190 DB	'D', 00H, 'X', 00H, 'G', 00H, 'I', 00H, '_', 00H, 'F', 00H
	DB	'O', 00H, 'R', 00H, 'M', 00H, 'A', 00H, 'T', 00H, '_', 00H, 'R'
	DB	00H, '8', 00H, 'G', 00H, '8', 00H, 'B', 00H, '8', 00H, 'A', 00H
	DB	'8', 00H, '_', 00H, 'U', 00H, 'I', 00H, 'N', 00H, 'T', 00H, 00H
	DB	00H
$SG152192 DB	'D', 00H, 'X', 00H, 'G', 00H, 'I', 00H, '_', 00H, 'F', 00H
	DB	'O', 00H, 'R', 00H, 'M', 00H, 'A', 00H, 'T', 00H, '_', 00H, 'R'
	DB	00H, '8', 00H, 'G', 00H, '8', 00H, 'B', 00H, '8', 00H, 'A', 00H
	DB	'8', 00H, '_', 00H, 'S', 00H, 'N', 00H, 'O', 00H, 'R', 00H, 'M'
	DB	00H, 00H, 00H
	ORG $+2
$SG152194 DB	'D', 00H, 'X', 00H, 'G', 00H, 'I', 00H, '_', 00H, 'F', 00H
	DB	'O', 00H, 'R', 00H, 'M', 00H, 'A', 00H, 'T', 00H, '_', 00H, 'R'
	DB	00H, '8', 00H, 'G', 00H, '8', 00H, 'B', 00H, '8', 00H, 'A', 00H
	DB	'8', 00H, '_', 00H, 'S', 00H, 'I', 00H, 'N', 00H, 'T', 00H, 00H
	DB	00H
$SG152196 DB	'D', 00H, 'X', 00H, 'G', 00H, 'I', 00H, '_', 00H, 'F', 00H
	DB	'O', 00H, 'R', 00H, 'M', 00H, 'A', 00H, 'T', 00H, '_', 00H, 'R'
	DB	00H, '1', 00H, '6', 00H, 'G', 00H, '1', 00H, '6', 00H, '_', 00H
	DB	'T', 00H, 'Y', 00H, 'P', 00H, 'E', 00H, 'L', 00H, 'E', 00H, 'S'
	DB	00H, 'S', 00H, 00H, 00H
$SG152198 DB	'D', 00H, 'X', 00H, 'G', 00H, 'I', 00H, '_', 00H, 'F', 00H
	DB	'O', 00H, 'R', 00H, 'M', 00H, 'A', 00H, 'T', 00H, '_', 00H, 'R'
	DB	00H, '1', 00H, '6', 00H, 'G', 00H, '1', 00H, '6', 00H, '_', 00H
	DB	'F', 00H, 'L', 00H, 'O', 00H, 'A', 00H, 'T', 00H, 00H, 00H
	ORG $+2
$SG152200 DB	'D', 00H, 'X', 00H, 'G', 00H, 'I', 00H, '_', 00H, 'F', 00H
	DB	'O', 00H, 'R', 00H, 'M', 00H, 'A', 00H, 'T', 00H, '_', 00H, 'R'
	DB	00H, '1', 00H, '6', 00H, 'G', 00H, '1', 00H, '6', 00H, '_', 00H
	DB	'U', 00H, 'N', 00H, 'O', 00H, 'R', 00H, 'M', 00H, 00H, 00H
	ORG $+2
$SG152202 DB	'D', 00H, 'X', 00H, 'G', 00H, 'I', 00H, '_', 00H, 'F', 00H
	DB	'O', 00H, 'R', 00H, 'M', 00H, 'A', 00H, 'T', 00H, '_', 00H, 'R'
	DB	00H, '1', 00H, '6', 00H, 'G', 00H, '1', 00H, '6', 00H, '_', 00H
	DB	'U', 00H, 'I', 00H, 'N', 00H, 'T', 00H, 00H, 00H
$SG152204 DB	'D', 00H, 'X', 00H, 'G', 00H, 'I', 00H, '_', 00H, 'F', 00H
	DB	'O', 00H, 'R', 00H, 'M', 00H, 'A', 00H, 'T', 00H, '_', 00H, 'R'
	DB	00H, '1', 00H, '6', 00H, 'G', 00H, '1', 00H, '6', 00H, '_', 00H
	DB	'S', 00H, 'N', 00H, 'O', 00H, 'R', 00H, 'M', 00H, 00H, 00H
	ORG $+2
$SG152206 DB	'D', 00H, 'X', 00H, 'G', 00H, 'I', 00H, '_', 00H, 'F', 00H
	DB	'O', 00H, 'R', 00H, 'M', 00H, 'A', 00H, 'T', 00H, '_', 00H, 'R'
	DB	00H, '1', 00H, '6', 00H, 'G', 00H, '1', 00H, '6', 00H, '_', 00H
	DB	'S', 00H, 'I', 00H, 'N', 00H, 'T', 00H, 00H, 00H
$SG152208 DB	'D', 00H, 'X', 00H, 'G', 00H, 'I', 00H, '_', 00H, 'F', 00H
	DB	'O', 00H, 'R', 00H, 'M', 00H, 'A', 00H, 'T', 00H, '_', 00H, 'R'
	DB	00H, '3', 00H, '2', 00H, '_', 00H, 'T', 00H, 'Y', 00H, 'P', 00H
	DB	'E', 00H, 'L', 00H, 'E', 00H, 'S', 00H, 'S', 00H, 00H, 00H
	ORG $+2
$SG152210 DB	'D', 00H, 'X', 00H, 'G', 00H, 'I', 00H, '_', 00H, 'F', 00H
	DB	'O', 00H, 'R', 00H, 'M', 00H, 'A', 00H, 'T', 00H, '_', 00H, 'D'
	DB	00H, '3', 00H, '2', 00H, '_', 00H, 'F', 00H, 'L', 00H, 'O', 00H
	DB	'A', 00H, 'T', 00H, 00H, 00H
$SG152212 DB	'D', 00H, 'X', 00H, 'G', 00H, 'I', 00H, '_', 00H, 'F', 00H
	DB	'O', 00H, 'R', 00H, 'M', 00H, 'A', 00H, 'T', 00H, '_', 00H, 'R'
	DB	00H, '3', 00H, '2', 00H, '_', 00H, 'F', 00H, 'L', 00H, 'O', 00H
	DB	'A', 00H, 'T', 00H, 00H, 00H
$SG152214 DB	'D', 00H, 'X', 00H, 'G', 00H, 'I', 00H, '_', 00H, 'F', 00H
	DB	'O', 00H, 'R', 00H, 'M', 00H, 'A', 00H, 'T', 00H, '_', 00H, 'R'
	DB	00H, '3', 00H, '2', 00H, '_', 00H, 'U', 00H, 'I', 00H, 'N', 00H
	DB	'T', 00H, 00H, 00H
	ORG $+2
$SG152216 DB	'D', 00H, 'X', 00H, 'G', 00H, 'I', 00H, '_', 00H, 'F', 00H
	DB	'O', 00H, 'R', 00H, 'M', 00H, 'A', 00H, 'T', 00H, '_', 00H, 'R'
	DB	00H, '3', 00H, '2', 00H, '_', 00H, 'S', 00H, 'I', 00H, 'N', 00H
	DB	'T', 00H, 00H, 00H
	ORG $+2
$SG152218 DB	'D', 00H, 'X', 00H, 'G', 00H, 'I', 00H, '_', 00H, 'F', 00H
	DB	'O', 00H, 'R', 00H, 'M', 00H, 'A', 00H, 'T', 00H, '_', 00H, 'R'
	DB	00H, '2', 00H, '4', 00H, 'G', 00H, '8', 00H, '_', 00H, 'T', 00H
	DB	'Y', 00H, 'P', 00H, 'E', 00H, 'L', 00H, 'E', 00H, 'S', 00H, 'S'
	DB	00H, 00H, 00H
	ORG $+2
$SG152220 DB	'D', 00H, 'X', 00H, 'G', 00H, 'I', 00H, '_', 00H, 'F', 00H
	DB	'O', 00H, 'R', 00H, 'M', 00H, 'A', 00H, 'T', 00H, '_', 00H, 'D'
	DB	00H, '2', 00H, '4', 00H, '_', 00H, 'U', 00H, 'N', 00H, 'O', 00H
	DB	'R', 00H, 'M', 00H, '_', 00H, 'S', 00H, '8', 00H, '_', 00H, 'U'
	DB	00H, 'I', 00H, 'N', 00H, 'T', 00H, 00H, 00H
	ORG $+4
$SG152222 DB	'D', 00H, 'X', 00H, 'G', 00H, 'I', 00H, '_', 00H, 'F', 00H
	DB	'O', 00H, 'R', 00H, 'M', 00H, 'A', 00H, 'T', 00H, '_', 00H, 'R'
	DB	00H, '2', 00H, '4', 00H, '_', 00H, 'U', 00H, 'N', 00H, 'O', 00H
	DB	'R', 00H, 'M', 00H, '_', 00H, 'X', 00H, '8', 00H, '_', 00H, 'T'
	DB	00H, 'Y', 00H, 'P', 00H, 'E', 00H, 'L', 00H, 'E', 00H, 'S', 00H
	DB	'S', 00H, 00H, 00H
	ORG $+4
$SG152224 DB	'D', 00H, 'X', 00H, 'G', 00H, 'I', 00H, '_', 00H, 'F', 00H
	DB	'O', 00H, 'R', 00H, 'M', 00H, 'A', 00H, 'T', 00H, '_', 00H, 'X'
	DB	00H, '2', 00H, '4', 00H, '_', 00H, 'T', 00H, 'Y', 00H, 'P', 00H
	DB	'E', 00H, 'L', 00H, 'E', 00H, 'S', 00H, 'S', 00H, '_', 00H, 'G'
	DB	00H, '8', 00H, '_', 00H, 'U', 00H, 'I', 00H, 'N', 00H, 'T', 00H
	DB	00H, 00H
	ORG $+2
$SG152226 DB	'D', 00H, 'X', 00H, 'G', 00H, 'I', 00H, '_', 00H, 'F', 00H
	DB	'O', 00H, 'R', 00H, 'M', 00H, 'A', 00H, 'T', 00H, '_', 00H, 'R'
	DB	00H, '8', 00H, 'G', 00H, '8', 00H, '_', 00H, 'T', 00H, 'Y', 00H
	DB	'P', 00H, 'E', 00H, 'L', 00H, 'E', 00H, 'S', 00H, 'S', 00H, 00H
	DB	00H
$SG152228 DB	'D', 00H, 'X', 00H, 'G', 00H, 'I', 00H, '_', 00H, 'F', 00H
	DB	'O', 00H, 'R', 00H, 'M', 00H, 'A', 00H, 'T', 00H, '_', 00H, 'R'
	DB	00H, '8', 00H, 'G', 00H, '8', 00H, '_', 00H, 'U', 00H, 'N', 00H
	DB	'O', 00H, 'R', 00H, 'M', 00H, 00H, 00H
	ORG $+2
$SG152230 DB	'D', 00H, 'X', 00H, 'G', 00H, 'I', 00H, '_', 00H, 'F', 00H
	DB	'O', 00H, 'R', 00H, 'M', 00H, 'A', 00H, 'T', 00H, '_', 00H, 'R'
	DB	00H, '8', 00H, 'G', 00H, '8', 00H, '_', 00H, 'U', 00H, 'I', 00H
	DB	'N', 00H, 'T', 00H, 00H, 00H
$SG152232 DB	'D', 00H, 'X', 00H, 'G', 00H, 'I', 00H, '_', 00H, 'F', 00H
	DB	'O', 00H, 'R', 00H, 'M', 00H, 'A', 00H, 'T', 00H, '_', 00H, 'R'
	DB	00H, '8', 00H, 'G', 00H, '8', 00H, '_', 00H, 'S', 00H, 'N', 00H
	DB	'O', 00H, 'R', 00H, 'M', 00H, 00H, 00H
	ORG $+2
$SG152234 DB	'D', 00H, 'X', 00H, 'G', 00H, 'I', 00H, '_', 00H, 'F', 00H
	DB	'O', 00H, 'R', 00H, 'M', 00H, 'A', 00H, 'T', 00H, '_', 00H, 'R'
	DB	00H, '8', 00H, 'G', 00H, '8', 00H, '_', 00H, 'S', 00H, 'I', 00H
	DB	'N', 00H, 'T', 00H, 00H, 00H
$SG152236 DB	'D', 00H, 'X', 00H, 'G', 00H, 'I', 00H, '_', 00H, 'F', 00H
	DB	'O', 00H, 'R', 00H, 'M', 00H, 'A', 00H, 'T', 00H, '_', 00H, 'R'
	DB	00H, '1', 00H, '6', 00H, '_', 00H, 'T', 00H, 'Y', 00H, 'P', 00H
	DB	'E', 00H, 'L', 00H, 'E', 00H, 'S', 00H, 'S', 00H, 00H, 00H
	ORG $+2
$SG152238 DB	'D', 00H, 'X', 00H, 'G', 00H, 'I', 00H, '_', 00H, 'F', 00H
	DB	'O', 00H, 'R', 00H, 'M', 00H, 'A', 00H, 'T', 00H, '_', 00H, 'R'
	DB	00H, '1', 00H, '6', 00H, '_', 00H, 'F', 00H, 'L', 00H, 'O', 00H
	DB	'A', 00H, 'T', 00H, 00H, 00H
$SG152240 DB	'D', 00H, 'X', 00H, 'G', 00H, 'I', 00H, '_', 00H, 'F', 00H
	DB	'O', 00H, 'R', 00H, 'M', 00H, 'A', 00H, 'T', 00H, '_', 00H, 'D'
	DB	00H, '1', 00H, '6', 00H, '_', 00H, 'U', 00H, 'N', 00H, 'O', 00H
	DB	'R', 00H, 'M', 00H, 00H, 00H
$SG152242 DB	'D', 00H, 'X', 00H, 'G', 00H, 'I', 00H, '_', 00H, 'F', 00H
	DB	'O', 00H, 'R', 00H, 'M', 00H, 'A', 00H, 'T', 00H, '_', 00H, 'R'
	DB	00H, '1', 00H, '6', 00H, '_', 00H, 'U', 00H, 'N', 00H, 'O', 00H
	DB	'R', 00H, 'M', 00H, 00H, 00H
$SG152244 DB	'D', 00H, 'X', 00H, 'G', 00H, 'I', 00H, '_', 00H, 'F', 00H
	DB	'O', 00H, 'R', 00H, 'M', 00H, 'A', 00H, 'T', 00H, '_', 00H, 'R'
	DB	00H, '1', 00H, '6', 00H, '_', 00H, 'U', 00H, 'I', 00H, 'N', 00H
	DB	'T', 00H, 00H, 00H
	ORG $+2
$SG152246 DB	'D', 00H, 'X', 00H, 'G', 00H, 'I', 00H, '_', 00H, 'F', 00H
	DB	'O', 00H, 'R', 00H, 'M', 00H, 'A', 00H, 'T', 00H, '_', 00H, 'R'
	DB	00H, '1', 00H, '6', 00H, '_', 00H, 'S', 00H, 'N', 00H, 'O', 00H
	DB	'R', 00H, 'M', 00H, 00H, 00H
$SG152248 DB	'D', 00H, 'X', 00H, 'G', 00H, 'I', 00H, '_', 00H, 'F', 00H
	DB	'O', 00H, 'R', 00H, 'M', 00H, 'A', 00H, 'T', 00H, '_', 00H, 'R'
	DB	00H, '1', 00H, '6', 00H, '_', 00H, 'S', 00H, 'I', 00H, 'N', 00H
	DB	'T', 00H, 00H, 00H
	ORG $+2
$SG152250 DB	'D', 00H, 'X', 00H, 'G', 00H, 'I', 00H, '_', 00H, 'F', 00H
	DB	'O', 00H, 'R', 00H, 'M', 00H, 'A', 00H, 'T', 00H, '_', 00H, 'R'
	DB	00H, '8', 00H, '_', 00H, 'T', 00H, 'Y', 00H, 'P', 00H, 'E', 00H
	DB	'L', 00H, 'E', 00H, 'S', 00H, 'S', 00H, 00H, 00H
$SG152252 DB	'D', 00H, 'X', 00H, 'G', 00H, 'I', 00H, '_', 00H, 'F', 00H
	DB	'O', 00H, 'R', 00H, 'M', 00H, 'A', 00H, 'T', 00H, '_', 00H, 'R'
	DB	00H, '8', 00H, '_', 00H, 'U', 00H, 'N', 00H, 'O', 00H, 'R', 00H
	DB	'M', 00H, 00H, 00H
	ORG $+2
$SG152254 DB	'D', 00H, 'X', 00H, 'G', 00H, 'I', 00H, '_', 00H, 'F', 00H
	DB	'O', 00H, 'R', 00H, 'M', 00H, 'A', 00H, 'T', 00H, '_', 00H, 'R'
	DB	00H, '8', 00H, '_', 00H, 'U', 00H, 'I', 00H, 'N', 00H, 'T', 00H
	DB	00H, 00H
$SG152256 DB	'D', 00H, 'X', 00H, 'G', 00H, 'I', 00H, '_', 00H, 'F', 00H
	DB	'O', 00H, 'R', 00H, 'M', 00H, 'A', 00H, 'T', 00H, '_', 00H, 'R'
	DB	00H, '8', 00H, '_', 00H, 'S', 00H, 'N', 00H, 'O', 00H, 'R', 00H
	DB	'M', 00H, 00H, 00H
	ORG $+2
$SG152258 DB	'D', 00H, 'X', 00H, 'G', 00H, 'I', 00H, '_', 00H, 'F', 00H
	DB	'O', 00H, 'R', 00H, 'M', 00H, 'A', 00H, 'T', 00H, '_', 00H, 'R'
	DB	00H, '8', 00H, '_', 00H, 'S', 00H, 'I', 00H, 'N', 00H, 'T', 00H
	DB	00H, 00H
$SG152260 DB	'D', 00H, 'X', 00H, 'G', 00H, 'I', 00H, '_', 00H, 'F', 00H
	DB	'O', 00H, 'R', 00H, 'M', 00H, 'A', 00H, 'T', 00H, '_', 00H, 'A'
	DB	00H, '8', 00H, '_', 00H, 'U', 00H, 'N', 00H, 'O', 00H, 'R', 00H
	DB	'M', 00H, 00H, 00H
	ORG $+2
$SG152262 DB	'D', 00H, 'X', 00H, 'G', 00H, 'I', 00H, '_', 00H, 'F', 00H
	DB	'O', 00H, 'R', 00H, 'M', 00H, 'A', 00H, 'T', 00H, '_', 00H, 'R'
	DB	00H, '1', 00H, '_', 00H, 'U', 00H, 'N', 00H, 'O', 00H, 'R', 00H
	DB	'M', 00H, 00H, 00H
	ORG $+2
$SG152264 DB	'D', 00H, 'X', 00H, 'G', 00H, 'I', 00H, '_', 00H, 'F', 00H
	DB	'O', 00H, 'R', 00H, 'M', 00H, 'A', 00H, 'T', 00H, '_', 00H, 'R'
	DB	00H, '9', 00H, 'G', 00H, '9', 00H, 'B', 00H, '9', 00H, 'E', 00H
	DB	'5', 00H, '_', 00H, 'S', 00H, 'H', 00H, 'A', 00H, 'R', 00H, 'E'
	DB	00H, 'D', 00H, 'E', 00H, 'X', 00H, 'P', 00H, 00H, 00H
	ORG $+2
$SG152266 DB	'D', 00H, 'X', 00H, 'G', 00H, 'I', 00H, '_', 00H, 'F', 00H
	DB	'O', 00H, 'R', 00H, 'M', 00H, 'A', 00H, 'T', 00H, '_', 00H, 'R'
	DB	00H, '8', 00H, 'G', 00H, '8', 00H, '_', 00H, 'B', 00H, '8', 00H
	DB	'G', 00H, '8', 00H, '_', 00H, 'U', 00H, 'N', 00H, 'O', 00H, 'R'
	DB	00H, 'M', 00H, 00H, 00H
$SG152268 DB	'D', 00H, 'X', 00H, 'G', 00H, 'I', 00H, '_', 00H, 'F', 00H
	DB	'O', 00H, 'R', 00H, 'M', 00H, 'A', 00H, 'T', 00H, '_', 00H, 'G'
	DB	00H, '8', 00H, 'R', 00H, '8', 00H, '_', 00H, 'G', 00H, '8', 00H
	DB	'B', 00H, '8', 00H, '_', 00H, 'U', 00H, 'N', 00H, 'O', 00H, 'R'
	DB	00H, 'M', 00H, 00H, 00H
$SG152270 DB	'D', 00H, 'X', 00H, 'G', 00H, 'I', 00H, '_', 00H, 'F', 00H
	DB	'O', 00H, 'R', 00H, 'M', 00H, 'A', 00H, 'T', 00H, '_', 00H, 'B'
	DB	00H, 'C', 00H, '1', 00H, '_', 00H, 'T', 00H, 'Y', 00H, 'P', 00H
	DB	'E', 00H, 'L', 00H, 'E', 00H, 'S', 00H, 'S', 00H, 00H, 00H
	ORG $+2
$SG152272 DB	'D', 00H, 'X', 00H, 'G', 00H, 'I', 00H, '_', 00H, 'F', 00H
	DB	'O', 00H, 'R', 00H, 'M', 00H, 'A', 00H, 'T', 00H, '_', 00H, 'B'
	DB	00H, 'C', 00H, '1', 00H, '_', 00H, 'U', 00H, 'N', 00H, 'O', 00H
	DB	'R', 00H, 'M', 00H, 00H, 00H
$SG152274 DB	'D', 00H, 'X', 00H, 'G', 00H, 'I', 00H, '_', 00H, 'F', 00H
	DB	'O', 00H, 'R', 00H, 'M', 00H, 'A', 00H, 'T', 00H, '_', 00H, 'B'
	DB	00H, 'C', 00H, '1', 00H, '_', 00H, 'U', 00H, 'N', 00H, 'O', 00H
	DB	'R', 00H, 'M', 00H, '_', 00H, 'S', 00H, 'R', 00H, 'G', 00H, 'B'
	DB	00H, 00H, 00H
	ORG $+2
$SG152276 DB	'D', 00H, 'X', 00H, 'G', 00H, 'I', 00H, '_', 00H, 'F', 00H
	DB	'O', 00H, 'R', 00H, 'M', 00H, 'A', 00H, 'T', 00H, '_', 00H, 'B'
	DB	00H, 'C', 00H, '2', 00H, '_', 00H, 'T', 00H, 'Y', 00H, 'P', 00H
	DB	'E', 00H, 'L', 00H, 'E', 00H, 'S', 00H, 'S', 00H, 00H, 00H
	ORG $+2
$SG152278 DB	'D', 00H, 'X', 00H, 'G', 00H, 'I', 00H, '_', 00H, 'F', 00H
	DB	'O', 00H, 'R', 00H, 'M', 00H, 'A', 00H, 'T', 00H, '_', 00H, 'B'
	DB	00H, 'C', 00H, '2', 00H, '_', 00H, 'U', 00H, 'N', 00H, 'O', 00H
	DB	'R', 00H, 'M', 00H, 00H, 00H
$SG152280 DB	'D', 00H, 'X', 00H, 'G', 00H, 'I', 00H, '_', 00H, 'F', 00H
	DB	'O', 00H, 'R', 00H, 'M', 00H, 'A', 00H, 'T', 00H, '_', 00H, 'B'
	DB	00H, 'C', 00H, '2', 00H, '_', 00H, 'U', 00H, 'N', 00H, 'O', 00H
	DB	'R', 00H, 'M', 00H, '_', 00H, 'S', 00H, 'R', 00H, 'G', 00H, 'B'
	DB	00H, 00H, 00H
	ORG $+2
$SG152282 DB	'D', 00H, 'X', 00H, 'G', 00H, 'I', 00H, '_', 00H, 'F', 00H
	DB	'O', 00H, 'R', 00H, 'M', 00H, 'A', 00H, 'T', 00H, '_', 00H, 'B'
	DB	00H, 'C', 00H, '3', 00H, '_', 00H, 'T', 00H, 'Y', 00H, 'P', 00H
	DB	'E', 00H, 'L', 00H, 'E', 00H, 'S', 00H, 'S', 00H, 00H, 00H
	ORG $+2
$SG152284 DB	'D', 00H, 'X', 00H, 'G', 00H, 'I', 00H, '_', 00H, 'F', 00H
	DB	'O', 00H, 'R', 00H, 'M', 00H, 'A', 00H, 'T', 00H, '_', 00H, 'B'
	DB	00H, 'C', 00H, '3', 00H, '_', 00H, 'U', 00H, 'N', 00H, 'O', 00H
	DB	'R', 00H, 'M', 00H, 00H, 00H
$SG152286 DB	'D', 00H, 'X', 00H, 'G', 00H, 'I', 00H, '_', 00H, 'F', 00H
	DB	'O', 00H, 'R', 00H, 'M', 00H, 'A', 00H, 'T', 00H, '_', 00H, 'B'
	DB	00H, 'C', 00H, '3', 00H, '_', 00H, 'U', 00H, 'N', 00H, 'O', 00H
	DB	'R', 00H, 'M', 00H, '_', 00H, 'S', 00H, 'R', 00H, 'G', 00H, 'B'
	DB	00H, 00H, 00H
	ORG $+2
$SG152288 DB	'D', 00H, 'X', 00H, 'G', 00H, 'I', 00H, '_', 00H, 'F', 00H
	DB	'O', 00H, 'R', 00H, 'M', 00H, 'A', 00H, 'T', 00H, '_', 00H, 'B'
	DB	00H, 'C', 00H, '4', 00H, '_', 00H, 'T', 00H, 'Y', 00H, 'P', 00H
	DB	'E', 00H, 'L', 00H, 'E', 00H, 'S', 00H, 'S', 00H, 00H, 00H
	ORG $+2
$SG152290 DB	'D', 00H, 'X', 00H, 'G', 00H, 'I', 00H, '_', 00H, 'F', 00H
	DB	'O', 00H, 'R', 00H, 'M', 00H, 'A', 00H, 'T', 00H, '_', 00H, 'B'
	DB	00H, 'C', 00H, '4', 00H, '_', 00H, 'U', 00H, 'N', 00H, 'O', 00H
	DB	'R', 00H, 'M', 00H, 00H, 00H
$SG152292 DB	'D', 00H, 'X', 00H, 'G', 00H, 'I', 00H, '_', 00H, 'F', 00H
	DB	'O', 00H, 'R', 00H, 'M', 00H, 'A', 00H, 'T', 00H, '_', 00H, 'B'
	DB	00H, 'C', 00H, '4', 00H, '_', 00H, 'S', 00H, 'N', 00H, 'O', 00H
	DB	'R', 00H, 'M', 00H, 00H, 00H
$SG152294 DB	'D', 00H, 'X', 00H, 'G', 00H, 'I', 00H, '_', 00H, 'F', 00H
	DB	'O', 00H, 'R', 00H, 'M', 00H, 'A', 00H, 'T', 00H, '_', 00H, 'B'
	DB	00H, 'C', 00H, '5', 00H, '_', 00H, 'T', 00H, 'Y', 00H, 'P', 00H
	DB	'E', 00H, 'L', 00H, 'E', 00H, 'S', 00H, 'S', 00H, 00H, 00H
	ORG $+2
$SG152296 DB	'D', 00H, 'X', 00H, 'G', 00H, 'I', 00H, '_', 00H, 'F', 00H
	DB	'O', 00H, 'R', 00H, 'M', 00H, 'A', 00H, 'T', 00H, '_', 00H, 'B'
	DB	00H, 'C', 00H, '5', 00H, '_', 00H, 'U', 00H, 'N', 00H, 'O', 00H
	DB	'R', 00H, 'M', 00H, 00H, 00H
$SG152298 DB	'D', 00H, 'X', 00H, 'G', 00H, 'I', 00H, '_', 00H, 'F', 00H
	DB	'O', 00H, 'R', 00H, 'M', 00H, 'A', 00H, 'T', 00H, '_', 00H, 'B'
	DB	00H, 'C', 00H, '5', 00H, '_', 00H, 'S', 00H, 'N', 00H, 'O', 00H
	DB	'R', 00H, 'M', 00H, 00H, 00H
$SG152300 DB	'D', 00H, 'X', 00H, 'G', 00H, 'I', 00H, '_', 00H, 'F', 00H
	DB	'O', 00H, 'R', 00H, 'M', 00H, 'A', 00H, 'T', 00H, '_', 00H, 'B'
	DB	00H, '5', 00H, 'G', 00H, '6', 00H, 'R', 00H, '5', 00H, '_', 00H
	DB	'U', 00H, 'N', 00H, 'O', 00H, 'R', 00H, 'M', 00H, 00H, 00H
	ORG $+2
$SG152302 DB	'D', 00H, 'X', 00H, 'G', 00H, 'I', 00H, '_', 00H, 'F', 00H
	DB	'O', 00H, 'R', 00H, 'M', 00H, 'A', 00H, 'T', 00H, '_', 00H, 'B'
	DB	00H, '5', 00H, 'G', 00H, '5', 00H, 'R', 00H, '5', 00H, 'A', 00H
	DB	'1', 00H, '_', 00H, 'U', 00H, 'N', 00H, 'O', 00H, 'R', 00H, 'M'
	DB	00H, 00H, 00H
	ORG $+2
$SG152304 DB	'D', 00H, 'X', 00H, 'G', 00H, 'I', 00H, '_', 00H, 'F', 00H
	DB	'O', 00H, 'R', 00H, 'M', 00H, 'A', 00H, 'T', 00H, '_', 00H, 'B'
	DB	00H, '8', 00H, 'G', 00H, '8', 00H, 'R', 00H, '8', 00H, 'A', 00H
	DB	'8', 00H, '_', 00H, 'U', 00H, 'N', 00H, 'O', 00H, 'R', 00H, 'M'
	DB	00H, 00H, 00H
	ORG $+2
$SG152306 DB	'D', 00H, 'X', 00H, 'G', 00H, 'I', 00H, '_', 00H, 'F', 00H
	DB	'O', 00H, 'R', 00H, 'M', 00H, 'A', 00H, 'T', 00H, '_', 00H, 'B'
	DB	00H, '8', 00H, 'G', 00H, '8', 00H, 'R', 00H, '8', 00H, 'X', 00H
	DB	'8', 00H, '_', 00H, 'U', 00H, 'N', 00H, 'O', 00H, 'R', 00H, 'M'
	DB	00H, 00H, 00H
	ORG $+2
$SG152308 DB	'D', 00H, 'X', 00H, 'G', 00H, 'I', 00H, '_', 00H, 'F', 00H
	DB	'O', 00H, 'R', 00H, 'M', 00H, 'A', 00H, 'T', 00H, '_', 00H, 'R'
	DB	00H, '1', 00H, '0', 00H, 'G', 00H, '1', 00H, '0', 00H, 'B', 00H
	DB	'1', 00H, '0', 00H, '_', 00H, 'X', 00H, 'R', 00H, '_', 00H, 'B'
	DB	00H, 'I', 00H, 'A', 00H, 'S', 00H, '_', 00H, 'A', 00H, '2', 00H
	DB	'_', 00H, 'U', 00H, 'N', 00H, 'O', 00H, 'R', 00H, 'M', 00H, 00H
	DB	00H
	ORG $+2
$SG152310 DB	'D', 00H, 'X', 00H, 'G', 00H, 'I', 00H, '_', 00H, 'F', 00H
	DB	'O', 00H, 'R', 00H, 'M', 00H, 'A', 00H, 'T', 00H, '_', 00H, 'B'
	DB	00H, '8', 00H, 'G', 00H, '8', 00H, 'R', 00H, '8', 00H, 'A', 00H
	DB	'8', 00H, '_', 00H, 'T', 00H, 'Y', 00H, 'P', 00H, 'E', 00H, 'L'
	DB	00H, 'E', 00H, 'S', 00H, 'S', 00H, 00H, 00H
	ORG $+4
$SG152312 DB	'D', 00H, 'X', 00H, 'G', 00H, 'I', 00H, '_', 00H, 'F', 00H
	DB	'O', 00H, 'R', 00H, 'M', 00H, 'A', 00H, 'T', 00H, '_', 00H, 'B'
	DB	00H, '8', 00H, 'G', 00H, '8', 00H, 'R', 00H, '8', 00H, 'A', 00H
	DB	'8', 00H, '_', 00H, 'U', 00H, 'N', 00H, 'O', 00H, 'R', 00H, 'M'
	DB	00H, '_', 00H, 'S', 00H, 'R', 00H, 'G', 00H, 'B', 00H, 00H, 00H
$SG152314 DB	'D', 00H, 'X', 00H, 'G', 00H, 'I', 00H, '_', 00H, 'F', 00H
	DB	'O', 00H, 'R', 00H, 'M', 00H, 'A', 00H, 'T', 00H, '_', 00H, 'B'
	DB	00H, '8', 00H, 'G', 00H, '8', 00H, 'R', 00H, '8', 00H, 'X', 00H
	DB	'8', 00H, '_', 00H, 'T', 00H, 'Y', 00H, 'P', 00H, 'E', 00H, 'L'
	DB	00H, 'E', 00H, 'S', 00H, 'S', 00H, 00H, 00H
	ORG $+4
$SG152316 DB	'D', 00H, 'X', 00H, 'G', 00H, 'I', 00H, '_', 00H, 'F', 00H
	DB	'O', 00H, 'R', 00H, 'M', 00H, 'A', 00H, 'T', 00H, '_', 00H, 'B'
	DB	00H, '8', 00H, 'G', 00H, '8', 00H, 'R', 00H, '8', 00H, 'X', 00H
	DB	'8', 00H, '_', 00H, 'U', 00H, 'N', 00H, 'O', 00H, 'R', 00H, 'M'
	DB	00H, '_', 00H, 'S', 00H, 'R', 00H, 'G', 00H, 'B', 00H, 00H, 00H
$SG152318 DB	'D', 00H, 'X', 00H, 'G', 00H, 'I', 00H, '_', 00H, 'F', 00H
	DB	'O', 00H, 'R', 00H, 'M', 00H, 'A', 00H, 'T', 00H, '_', 00H, 'B'
	DB	00H, 'C', 00H, '6', 00H, 'H', 00H, '_', 00H, 'T', 00H, 'Y', 00H
	DB	'P', 00H, 'E', 00H, 'L', 00H, 'E', 00H, 'S', 00H, 'S', 00H, 00H
	DB	00H
$SG152320 DB	'D', 00H, 'X', 00H, 'G', 00H, 'I', 00H, '_', 00H, 'F', 00H
	DB	'O', 00H, 'R', 00H, 'M', 00H, 'A', 00H, 'T', 00H, '_', 00H, 'B'
	DB	00H, 'C', 00H, '6', 00H, 'H', 00H, '_', 00H, 'U', 00H, 'F', 00H
	DB	'1', 00H, '6', 00H, 00H, 00H
$SG152322 DB	'D', 00H, 'X', 00H, 'G', 00H, 'I', 00H, '_', 00H, 'F', 00H
	DB	'O', 00H, 'R', 00H, 'M', 00H, 'A', 00H, 'T', 00H, '_', 00H, 'B'
	DB	00H, 'C', 00H, '6', 00H, 'H', 00H, '_', 00H, 'S', 00H, 'F', 00H
	DB	'1', 00H, '6', 00H, 00H, 00H
$SG152324 DB	'D', 00H, 'X', 00H, 'G', 00H, 'I', 00H, '_', 00H, 'F', 00H
	DB	'O', 00H, 'R', 00H, 'M', 00H, 'A', 00H, 'T', 00H, '_', 00H, 'B'
	DB	00H, 'C', 00H, '7', 00H, '_', 00H, 'T', 00H, 'Y', 00H, 'P', 00H
	DB	'E', 00H, 'L', 00H, 'E', 00H, 'S', 00H, 'S', 00H, 00H, 00H
	ORG $+2
$SG152326 DB	'D', 00H, 'X', 00H, 'G', 00H, 'I', 00H, '_', 00H, 'F', 00H
	DB	'O', 00H, 'R', 00H, 'M', 00H, 'A', 00H, 'T', 00H, '_', 00H, 'B'
	DB	00H, 'C', 00H, '7', 00H, '_', 00H, 'U', 00H, 'N', 00H, 'O', 00H
	DB	'R', 00H, 'M', 00H, 00H, 00H
$SG152328 DB	'D', 00H, 'X', 00H, 'G', 00H, 'I', 00H, '_', 00H, 'F', 00H
	DB	'O', 00H, 'R', 00H, 'M', 00H, 'A', 00H, 'T', 00H, '_', 00H, 'B'
	DB	00H, 'C', 00H, '7', 00H, '_', 00H, 'U', 00H, 'N', 00H, 'O', 00H
	DB	'R', 00H, 'M', 00H, '_', 00H, 'S', 00H, 'R', 00H, 'G', 00H, 'B'
	DB	00H, 00H, 00H
	ORG $+2
$SG152330 DB	'D', 00H, 'X', 00H, 'G', 00H, 'I', 00H, '_', 00H, 'F', 00H
	DB	'O', 00H, 'R', 00H, 'M', 00H, 'A', 00H, 'T', 00H, '_', 00H, 'B'
	DB	00H, '4', 00H, 'G', 00H, '4', 00H, 'R', 00H, '4', 00H, 'A', 00H
	DB	'4', 00H, '_', 00H, 'U', 00H, 'N', 00H, 'O', 00H, 'R', 00H, 'M'
	DB	00H, 00H, 00H
	ORG $+2
$SG152332 DB	'U', 00H, 'n', 00H, 'k', 00H, 'n', 00H, 'o', 00H, 'w', 00H
	DB	'n', 00H, ' ', 00H, 'f', 00H, 'o', 00H, 'r', 00H, 'm', 00H, 'a'
	DB	00H, 't', 00H, 00H, 00H
	ORG $+2
$SG152335 DB	'D', 00H, 'X', 00H, 'G', 00H, 'I', 00H, '_', 00H, 'F', 00H
	DB	'O', 00H, 'R', 00H, 'M', 00H, 'A', 00H, 'T', 00H, '_', 00H, 00H
	DB	00H
	ORG $+2
$SG152337 DB	'D', 00H, 'X', 00H, 'G', 00H, 'I', 00H, '_', 00H, 'F', 00H
	DB	'O', 00H, 'R', 00H, 'M', 00H, 'A', 00H, 'T', 00H, '_', 00H, 00H
	DB	00H
	ORG $+2
$SG152404 DB	'd', 00H, '3', 00H, 'd', 00H, '9', 00H, '.', 00H, 'd', 00H
	DB	'l', 00H, 'l', 00H, 00H, 00H
	ORG $+2
$SG152407 DB	'D3DPERF_BeginEvent', 00H
	ORG $+1
$SG152409 DB	'D3DPERF_EndEvent', 00H
	ORG $+3
$SG152411 DB	'D3DPERF_SetMarker', 00H
	ORG $+2
$SG152413 DB	'D3DPERF_SetRegion', 00H
	ORG $+2
$SG152415 DB	'D3DPERF_QueryRepeatFrame', 00H
	ORG $+3
$SG152417 DB	'D3DPERF_SetOptions', 00H
	ORG $+1
$SG152419 DB	'D3DPERF_GetStatus', 00H
	ORG $+2
$SG152423 DB	'd', 00H, '3', 00H, 'd', 00H, '1', 00H, '1', 00H, '.', 00H
	DB	'd', 00H, 'l', 00H, 'l', 00H, 00H, 00H
$SG152426 DB	'D3D11CreateDevice', 00H
	ORG $+2
$SG152428 DB	'd', 00H, 'x', 00H, 'g', 00H, 'i', 00H, '.', 00H, 'd', 00H
	DB	'l', 00H, 'l', 00H, 00H, 00H
	ORG $+2
$SG152431 DB	'CreateDXGIFactory1', 00H
	ORG $+1
$SG152433 DB	'd', 00H, 'x', 00H, 'g', 00H, 'i', 00H, 'd', 00H, 'e', 00H
	DB	'b', 00H, 'u', 00H, 'g', 00H, '.', 00H, 'd', 00H, 'l', 00H, 'l'
	DB	00H, 00H, 00H
$SG152436 DB	'DXGIGetDebugInterface', 00H
	ORG $+2
$SG152512 DB	'W', 00H, 'M', 00H, '_', 00H, 'N', 00H, 'U', 00H, 'L', 00H
	DB	'L', 00H, 00H, 00H
$SG152514 DB	'W', 00H, 'M', 00H, '_', 00H, 'C', 00H, 'R', 00H, 'E', 00H
	DB	'A', 00H, 'T', 00H, 'E', 00H, 00H, 00H
$SG152516 DB	'W', 00H, 'M', 00H, '_', 00H, 'D', 00H, 'E', 00H, 'S', 00H
	DB	'T', 00H, 'R', 00H, 'O', 00H, 'Y', 00H, 00H, 00H
	ORG $+2
$SG152518 DB	'W', 00H, 'M', 00H, '_', 00H, 'M', 00H, 'O', 00H, 'V', 00H
	DB	'E', 00H, 00H, 00H
$SG152520 DB	'W', 00H, 'M', 00H, '_', 00H, 'S', 00H, 'I', 00H, 'Z', 00H
	DB	'E', 00H, 00H, 00H
$SG152522 DB	'W', 00H, 'M', 00H, '_', 00H, 'A', 00H, 'C', 00H, 'T', 00H
	DB	'I', 00H, 'V', 00H, 'A', 00H, 'T', 00H, 'E', 00H, 00H, 00H
$SG152524 DB	'W', 00H, 'M', 00H, '_', 00H, 'S', 00H, 'E', 00H, 'T', 00H
	DB	'F', 00H, 'O', 00H, 'C', 00H, 'U', 00H, 'S', 00H, 00H, 00H
$SG152526 DB	'W', 00H, 'M', 00H, '_', 00H, 'K', 00H, 'I', 00H, 'L', 00H
	DB	'L', 00H, 'F', 00H, 'O', 00H, 'C', 00H, 'U', 00H, 'S', 00H, 00H
	DB	00H
	ORG $+2
$SG152528 DB	'W', 00H, 'M', 00H, '_', 00H, 'E', 00H, 'N', 00H, 'A', 00H
	DB	'B', 00H, 'L', 00H, 'E', 00H, 00H, 00H
$SG152530 DB	'W', 00H, 'M', 00H, '_', 00H, 'S', 00H, 'E', 00H, 'T', 00H
	DB	'R', 00H, 'E', 00H, 'D', 00H, 'R', 00H, 'A', 00H, 'W', 00H, 00H
	DB	00H
	ORG $+2
$SG152532 DB	'W', 00H, 'M', 00H, '_', 00H, 'S', 00H, 'E', 00H, 'T', 00H
	DB	'T', 00H, 'E', 00H, 'X', 00H, 'T', 00H, 00H, 00H
	ORG $+2
$SG152534 DB	'W', 00H, 'M', 00H, '_', 00H, 'G', 00H, 'E', 00H, 'T', 00H
	DB	'T', 00H, 'E', 00H, 'X', 00H, 'T', 00H, 00H, 00H
	ORG $+2
$SG152536 DB	'W', 00H, 'M', 00H, '_', 00H, 'G', 00H, 'E', 00H, 'T', 00H
	DB	'T', 00H, 'E', 00H, 'X', 00H, 'T', 00H, 'L', 00H, 'E', 00H, 'N'
	DB	00H, 'G', 00H, 'T', 00H, 'H', 00H, 00H, 00H
	ORG $+2
$SG152538 DB	'W', 00H, 'M', 00H, '_', 00H, 'P', 00H, 'A', 00H, 'I', 00H
	DB	'N', 00H, 'T', 00H, 00H, 00H
	ORG $+2
$SG152540 DB	'W', 00H, 'M', 00H, '_', 00H, 'C', 00H, 'L', 00H, 'O', 00H
	DB	'S', 00H, 'E', 00H, 00H, 00H
	ORG $+2
$SG152542 DB	'W', 00H, 'M', 00H, '_', 00H, 'Q', 00H, 'U', 00H, 'E', 00H
	DB	'R', 00H, 'Y', 00H, 'E', 00H, 'N', 00H, 'D', 00H, 'S', 00H, 'E'
	DB	00H, 'S', 00H, 'S', 00H, 'I', 00H, 'O', 00H, 'N', 00H, 00H, 00H
	ORG $+2
$SG152544 DB	'W', 00H, 'M', 00H, '_', 00H, 'Q', 00H, 'U', 00H, 'E', 00H
	DB	'R', 00H, 'Y', 00H, 'O', 00H, 'P', 00H, 'E', 00H, 'N', 00H, 00H
	DB	00H
	ORG $+2
$SG152546 DB	'W', 00H, 'M', 00H, '_', 00H, 'E', 00H, 'N', 00H, 'D', 00H
	DB	'S', 00H, 'E', 00H, 'S', 00H, 'S', 00H, 'I', 00H, 'O', 00H, 'N'
	DB	00H, 00H, 00H
$SG152548 DB	'W', 00H, 'M', 00H, '_', 00H, 'Q', 00H, 'U', 00H, 'I', 00H
	DB	'T', 00H, 00H, 00H
$SG152550 DB	'W', 00H, 'M', 00H, '_', 00H, 'E', 00H, 'R', 00H, 'A', 00H
	DB	'S', 00H, 'E', 00H, 'B', 00H, 'K', 00H, 'G', 00H, 'N', 00H, 'D'
	DB	00H, 00H, 00H
$SG152552 DB	'W', 00H, 'M', 00H, '_', 00H, 'S', 00H, 'Y', 00H, 'S', 00H
	DB	'C', 00H, 'O', 00H, 'L', 00H, 'O', 00H, 'R', 00H, 'C', 00H, 'H'
	DB	00H, 'A', 00H, 'N', 00H, 'G', 00H, 'E', 00H, 00H, 00H
$SG152554 DB	'W', 00H, 'M', 00H, '_', 00H, 'S', 00H, 'H', 00H, 'O', 00H
	DB	'W', 00H, 'W', 00H, 'I', 00H, 'N', 00H, 'D', 00H, 'O', 00H, 'W'
	DB	00H, 00H, 00H
$SG152556 DB	'W', 00H, 'M', 00H, '_', 00H, 'W', 00H, 'I', 00H, 'N', 00H
	DB	'I', 00H, 'N', 00H, 'I', 00H, 'C', 00H, 'H', 00H, 'A', 00H, 'N'
	DB	00H, 'G', 00H, 'E', 00H, 00H, 00H
$SG152558 DB	'W', 00H, 'M', 00H, '_', 00H, 'D', 00H, 'E', 00H, 'V', 00H
	DB	'M', 00H, 'O', 00H, 'D', 00H, 'E', 00H, 'C', 00H, 'H', 00H, 'A'
	DB	00H, 'N', 00H, 'G', 00H, 'E', 00H, 00H, 00H
	ORG $+2
$SG152560 DB	'W', 00H, 'M', 00H, '_', 00H, 'A', 00H, 'C', 00H, 'T', 00H
	DB	'I', 00H, 'V', 00H, 'A', 00H, 'T', 00H, 'E', 00H, 'A', 00H, 'P'
	DB	00H, 'P', 00H, 00H, 00H
	ORG $+2
$SG152562 DB	'W', 00H, 'M', 00H, '_', 00H, 'F', 00H, 'O', 00H, 'N', 00H
	DB	'T', 00H, 'C', 00H, 'H', 00H, 'A', 00H, 'N', 00H, 'G', 00H, 'E'
	DB	00H, 00H, 00H
$SG152564 DB	'W', 00H, 'M', 00H, '_', 00H, 'T', 00H, 'I', 00H, 'M', 00H
	DB	'E', 00H, 'C', 00H, 'H', 00H, 'A', 00H, 'N', 00H, 'G', 00H, 'E'
	DB	00H, 00H, 00H
$SG152566 DB	'W', 00H, 'M', 00H, '_', 00H, 'C', 00H, 'A', 00H, 'N', 00H
	DB	'C', 00H, 'E', 00H, 'L', 00H, 'M', 00H, 'O', 00H, 'D', 00H, 'E'
	DB	00H, 00H, 00H
$SG152568 DB	'W', 00H, 'M', 00H, '_', 00H, 'S', 00H, 'E', 00H, 'T', 00H
	DB	'C', 00H, 'U', 00H, 'R', 00H, 'S', 00H, 'O', 00H, 'R', 00H, 00H
	DB	00H
	ORG $+2
$SG152570 DB	'W', 00H, 'M', 00H, '_', 00H, 'M', 00H, 'O', 00H, 'U', 00H
	DB	'S', 00H, 'E', 00H, 'A', 00H, 'C', 00H, 'T', 00H, 'I', 00H, 'V'
	DB	00H, 'A', 00H, 'T', 00H, 'E', 00H, 00H, 00H
	ORG $+2
$SG152572 DB	'W', 00H, 'M', 00H, '_', 00H, 'C', 00H, 'H', 00H, 'I', 00H
	DB	'L', 00H, 'D', 00H, 'A', 00H, 'C', 00H, 'T', 00H, 'I', 00H, 'V'
	DB	00H, 'A', 00H, 'T', 00H, 'E', 00H, 00H, 00H
	ORG $+2
$SG152574 DB	'W', 00H, 'M', 00H, '_', 00H, 'Q', 00H, 'U', 00H, 'E', 00H
	DB	'U', 00H, 'E', 00H, 'S', 00H, 'Y', 00H, 'N', 00H, 'C', 00H, 00H
	DB	00H
CONST	ENDS
;	COMDAT ?value@?$integral_constant@H$0A@@std@@2HB
CONST	SEGMENT
?value@?$integral_constant@H$0A@@std@@2HB DD 00H	; std::integral_constant<int,0>::value
CONST	ENDS
PUBLIC	?wcsstr@@YAPA_WPA_WPB_W@Z			; wcsstr
PUBLIC	?DXUTGetGamepadState@@YAJKPAUDXUT_GAMEPAD@@_N1@Z ; DXUTGetGamepadState
PUBLIC	?DXUTStopRumbleOnAllControllers@@YAJXZ		; DXUTStopRumbleOnAllControllers
PUBLIC	?DXUTEnableXInput@@YAX_N@Z			; DXUTEnableXInput
PUBLIC	?DXUTSnapD3D11Screenshot@@YAJPB_W_N@Z		; DXUTSnapD3D11Screenshot
PUBLIC	??0CDXUTTimer@@QAE@XZ				; CDXUTTimer::CDXUTTimer
PUBLIC	?Reset@CDXUTTimer@@QAEXXZ			; CDXUTTimer::Reset
PUBLIC	?Start@CDXUTTimer@@QAEXXZ			; CDXUTTimer::Start
PUBLIC	?Stop@CDXUTTimer@@QAEXXZ			; CDXUTTimer::Stop
PUBLIC	?Advance@CDXUTTimer@@QAEXXZ			; CDXUTTimer::Advance
PUBLIC	?GetAbsoluteTime@CDXUTTimer@@QBENXZ		; CDXUTTimer::GetAbsoluteTime
PUBLIC	?GetTime@CDXUTTimer@@QBENXZ			; CDXUTTimer::GetTime
PUBLIC	?GetElapsedTime@CDXUTTimer@@QAEMXZ		; CDXUTTimer::GetElapsedTime
PUBLIC	?GetTimeValues@CDXUTTimer@@QAEXPAN0PAM@Z	; CDXUTTimer::GetTimeValues
PUBLIC	?LimitThreadAffinityToCurrentProc@CDXUTTimer@@QAEXXZ ; CDXUTTimer::LimitThreadAffinityToCurrentProc
PUBLIC	?GetAdjustedCurrentTime@CDXUTTimer@@IBE?AT_LARGE_INTEGER@@XZ ; CDXUTTimer::GetAdjustedCurrentTime
PUBLIC	?DXUTGetGlobalTimer@@YGPAVCDXUTTimer@@XZ	; DXUTGetGlobalTimer
PUBLIC	?DXUTDXGIFormatToString@@YGPB_WW4DXGI_FORMAT@@_N@Z ; DXUTDXGIFormatToString
PUBLIC	?DXUTOutputDebugStringW@@YAXPB_WZZ		; DXUTOutputDebugStringW
PUBLIC	?DXUTOutputDebugStringA@@YAXPBDZZ		; DXUTOutputDebugStringA
PUBLIC	?DXUTTrace@@YGJPBDKJPB_W_N@Z			; DXUTTrace
PUBLIC	?DXUTTraceWindowsMessage@@YGPB_WI@Z		; DXUTTraceWindowsMessage
PUBLIC	?DXUT_Dynamic_D3DPERF_BeginEvent@@YGHKPB_W@Z	; DXUT_Dynamic_D3DPERF_BeginEvent
PUBLIC	?DXUT_Dynamic_D3DPERF_EndEvent@@YGHXZ		; DXUT_Dynamic_D3DPERF_EndEvent
PUBLIC	?DXUT_Dynamic_D3DPERF_SetMarker@@YGXKPB_W@Z	; DXUT_Dynamic_D3DPERF_SetMarker
PUBLIC	?DXUT_Dynamic_D3DPERF_SetRegion@@YGXKPB_W@Z	; DXUT_Dynamic_D3DPERF_SetRegion
PUBLIC	?DXUT_Dynamic_D3DPERF_QueryRepeatFrame@@YGHXZ	; DXUT_Dynamic_D3DPERF_QueryRepeatFrame
PUBLIC	?DXUT_Dynamic_D3DPERF_SetOptions@@YGXK@Z	; DXUT_Dynamic_D3DPERF_SetOptions
PUBLIC	?DXUT_Dynamic_D3DPERF_GetStatus@@YGKXZ		; DXUT_Dynamic_D3DPERF_GetStatus
PUBLIC	?DXUT_Dynamic_CreateDXGIFactory1@@YGJABU_GUID@@PAPAX@Z ; DXUT_Dynamic_CreateDXGIFactory1
PUBLIC	?DXUT_Dynamic_DXGIGetDebugInterface@@YGJABU_GUID@@PAPAX@Z ; DXUT_Dynamic_DXGIGetDebugInterface
PUBLIC	?DXUT_Dynamic_D3D11CreateDevice@@YGJPAUIDXGIAdapter@@W4D3D_DRIVER_TYPE@@PAUHINSTANCE__@@IPAW4D3D_FEATURE_LEVEL@@IIPAPAUID3D11Device@@3PAPAUID3D11DeviceContext@@@Z ; DXUT_Dynamic_D3D11CreateDevice
PUBLIC	?DXUT_EnsureD3D11APIs@@YA_NXZ			; DXUT_EnsureD3D11APIs
PUBLIC	?DXUTMonitorFromWindow@@YGPAUHMONITOR__@@PAUHWND__@@K@Z ; DXUTMonitorFromWindow
PUBLIC	?DXUTMonitorFromRect@@YGPAUHMONITOR__@@PBUtagRECT@@K@Z ; DXUTMonitorFromRect
PUBLIC	?DXUTGetMonitorInfo@@YGHPAUHMONITOR__@@PAUtagMONITORINFO@@@Z ; DXUTGetMonitorInfo
PUBLIC	?DXUTGetDesktopResolution@@YGXIPAI0@Z		; DXUTGetDesktopResolution
PUBLIC	?MAKE_SRGB@@YA?AW4DXGI_FORMAT@@W41@@Z		; MAKE_SRGB
PUBLIC	?MAKE_TYPELESS@@YA?AW4DXGI_FORMAT@@W41@@Z	; MAKE_TYPELESS
PUBLIC	??0_Ignore@std@@QAE@XZ				; std::_Ignore::_Ignore
PUBLIC	??0?$_Func_class@XPAUIPropertyBag2@@@std@@QAE@XZ ; std::_Func_class<void,IPropertyBag2 *>::_Func_class<void,IPropertyBag2 *>
PUBLIC	?_Reset@?$_Func_class@XPAUIPropertyBag2@@@std@@IAEXXZ ; std::_Func_class<void,IPropertyBag2 *>::_Reset
PUBLIC	?_Set@?$_Func_class@XPAUIPropertyBag2@@@std@@AAEXPAV?$_Func_base@XPAUIPropertyBag2@@@2@@Z ; std::_Func_class<void,IPropertyBag2 *>::_Set
PUBLIC	??0?$function@$$A6AXPAUIPropertyBag2@@@Z@std@@QAE@$$T@Z ; std::function<void __cdecl(IPropertyBag2 *)>::function<void __cdecl(IPropertyBag2 *)>
PUBLIC	??$wcscpy_s@$0BAE@@@YAHAAY0BAE@_WPB_W@Z		; wcscpy_s<260>
PUBLIC	__real@00000000
PUBLIC	__real@0000000000000000
PUBLIC	__real@46fffe00
EXTRN	___report_rangecheckfailure:PROC
EXTRN	__imp__wcscpy_s:PROC
EXTRN	__imp__wcsstr:PROC
EXTRN	__imp__OutputDebugStringA@4:PROC
EXTRN	__imp__OutputDebugStringW@4:PROC
EXTRN	__imp__CloseHandle@4:PROC
EXTRN	__imp__QueryPerformanceCounter@4:PROC
EXTRN	__imp__QueryPerformanceFrequency@4:PROC
EXTRN	__imp__GetCurrentProcess@0:PROC
EXTRN	__imp__GetCurrentThread@0:PROC
EXTRN	__imp__GetModuleHandleW@4:PROC
EXTRN	__imp__GetProcAddress@8:PROC
EXTRN	__imp__LoadLibraryExW@12:PROC
EXTRN	__imp__GetProcessAffinityMask@12:PROC
EXTRN	__imp__SetThreadAffinityMask@8:PROC
EXTRN	__imp__GetSystemMetrics@4:PROC
EXTRN	__imp__EnumDisplaySettingsW@12:PROC
EXTRN	__imp__SystemParametersInfoA@16:PROC
EXTRN	__imp__MultiByteToWideChar@24:PROC
EXTRN	__imp___wassert:PROC
EXTRN	__imp__sprintf_s:PROC
EXTRN	__imp__vswprintf_s:PROC
EXTRN	_DXTraceW@20:PROC
EXTRN	?DXUTGetDXGISwapChain@@YGPAUIDXGISwapChain@@XZ:PROC ; DXUTGetDXGISwapChain
EXTRN	?DXUTGetD3D11DeviceContext@@YGPAUID3D11DeviceContext@@XZ:PROC ; DXUTGetD3D11DeviceContext
EXTRN	?DXUTGetDeviceSettings@@YG?AUDXUTDeviceSettings@@XZ:PROC ; DXUTGetDeviceSettings
EXTRN	?DXUTIsInGammaCorrectMode@@YG_NXZ:PROC		; DXUTIsInGammaCorrectMode
EXTRN	?DXUTGetShowMsgBoxOnError@@YG_NXZ:PROC		; DXUTGetShowMsgBoxOnError
EXTRN	?GetOutputInfo@CD3D11Enumeration@@QBEPAVCD3D11EnumOutputInfo@@II@Z:PROC ; CD3D11Enumeration::GetOutputInfo
EXTRN	?DXUTGetD3D11Enumeration@@YGPAVCD3D11Enumeration@@_N0W4D3D_FEATURE_LEVEL@@@Z:PROC ; DXUTGetD3D11Enumeration
EXTRN	?SaveDDSTextureToFile@DirectX@@YAJPAUID3D11DeviceContext@@PAUID3D11Resource@@PB_W@Z:PROC ; DirectX::SaveDDSTextureToFile
EXTRN	?SaveWICTextureToFile@DirectX@@YAJPAUID3D11DeviceContext@@PAUID3D11Resource@@ABU_GUID@@PB_WPBU4@V?$function@$$A6AXPAUIPropertyBag2@@@Z@std@@@Z:PROC ; DirectX::SaveWICTextureToFile
EXTRN	@_RTC_CheckStackVars@8:PROC
EXTRN	@__security_check_cookie@4:PROC
EXTRN	__RTC_CheckEsp:PROC
EXTRN	__RTC_InitBase:PROC
EXTRN	__RTC_Shutdown:PROC
EXTRN	___CxxFrameHandler3:PROC
EXTRN	__alldiv:PROC
EXTRN	__ltod3:PROC
EXTRN	_memset:PROC
EXTRN	___security_cookie:DWORD
EXTRN	__fltused:DWORD
_BSS	SEGMENT
_ignore	DB	01H DUP (?)
	ALIGN	4

__Tuple_alloc DB 01H DUP (?)
_BSS	ENDS
;	COMDAT ?timer@?1??DXUTGetGlobalTimer@@YGPAVCDXUTTimer@@XZ@4V2@A
_BSS	SEGMENT
?timer@?1??DXUTGetGlobalTimer@@YGPAVCDXUTTimer@@XZ@4V2@A DB 028H DUP (?) ; `DXUTGetGlobalTimer'::`2'::timer
_BSS	ENDS
;	COMDAT ?$S1@?1??DXUTGetGlobalTimer@@YGPAVCDXUTTimer@@XZ@4IA
_BSS	SEGMENT
?$S1@?1??DXUTGetGlobalTimer@@YGPAVCDXUTTimer@@XZ@4IA DD 01H DUP (?) ; `DXUTGetGlobalTimer'::`2'::$S1
_BSS	ENDS
;	COMDAT ?s_bInited@?1??DXUTGetMonitorInfo@@YGHPAUHMONITOR__@@PAUtagMONITORINFO@@@Z@4_NA
_BSS	SEGMENT
?s_bInited@?1??DXUTGetMonitorInfo@@YGHPAUHMONITOR__@@PAUtagMONITORINFO@@@Z@4_NA DB 01H DUP (?) ; `DXUTGetMonitorInfo'::`2'::s_bInited
_BSS	ENDS
;	COMDAT ?s_pFnGetMonitorInfo@?1??DXUTGetMonitorInfo@@YGHPAUHMONITOR__@@PAUtagMONITORINFO@@@Z@4P6GH01@ZA
_BSS	SEGMENT
?s_pFnGetMonitorInfo@?1??DXUTGetMonitorInfo@@YGHPAUHMONITOR__@@PAUtagMONITORINFO@@@Z@4P6GH01@ZA DD 01H DUP (?) ; `DXUTGetMonitorInfo'::`2'::s_pFnGetMonitorInfo
_BSS	ENDS
;	COMDAT ?s_bInited@?1??DXUTMonitorFromWindow@@YGPAUHMONITOR__@@PAUHWND__@@K@Z@4_NA
_BSS	SEGMENT
?s_bInited@?1??DXUTMonitorFromWindow@@YGPAUHMONITOR__@@PAUHWND__@@K@Z@4_NA DB 01H DUP (?) ; `DXUTMonitorFromWindow'::`2'::s_bInited
_BSS	ENDS
;	COMDAT ?s_pFnGetMonitorFromWindow@?1??DXUTMonitorFromWindow@@YGPAUHMONITOR__@@PAUHWND__@@K@Z@4P6GPAU2@0K@ZA
_BSS	SEGMENT
?s_pFnGetMonitorFromWindow@?1??DXUTMonitorFromWindow@@YGPAUHMONITOR__@@PAUHWND__@@K@Z@4P6GPAU2@0K@ZA DD 01H DUP (?) ; `DXUTMonitorFromWindow'::`2'::s_pFnGetMonitorFromWindow
_BSS	ENDS
;	COMDAT ?s_bInited@?1??DXUTMonitorFromRect@@YGPAUHMONITOR__@@PBUtagRECT@@K@Z@4_NA
_BSS	SEGMENT
?s_bInited@?1??DXUTMonitorFromRect@@YGPAUHMONITOR__@@PBUtagRECT@@K@Z@4_NA DB 01H DUP (?) ; `DXUTMonitorFromRect'::`2'::s_bInited
_BSS	ENDS
;	COMDAT ?s_pFnGetMonitorFromRect@?1??DXUTMonitorFromRect@@YGPAUHMONITOR__@@PBUtagRECT@@K@Z@4P6GPAU2@0K@ZA
_BSS	SEGMENT
?s_pFnGetMonitorFromRect@?1??DXUTMonitorFromRect@@YGPAUHMONITOR__@@PBUtagRECT@@K@Z@4P6GPAU2@0K@ZA DD 01H DUP (?) ; `DXUTMonitorFromRect'::`2'::s_pFnGetMonitorFromRect
_BSS	ENDS
;	COMDAT ?s_pXInputGetState@?3??DXUTGetGamepadState@@YAJKPAUDXUT_GAMEPAD@@_N1@Z@4P6GKKPAU_XINPUT_STATE@@@ZA
_BSS	SEGMENT
?s_pXInputGetState@?3??DXUTGetGamepadState@@YAJKPAUDXUT_GAMEPAD@@_N1@Z@4P6GKKPAU_XINPUT_STATE@@@ZA DD 01H DUP (?) ; `DXUTGetGamepadState'::`4'::s_pXInputGetState
_BSS	ENDS
;	COMDAT ?s_pXInputGetCapabilities@?3??DXUTGetGamepadState@@YAJKPAUDXUT_GAMEPAD@@_N1@Z@4P6GKKKPAU_XINPUT_CAPABILITIES@@@ZA
_BSS	SEGMENT
?s_pXInputGetCapabilities@?3??DXUTGetGamepadState@@YAJKPAUDXUT_GAMEPAD@@_N1@Z@4P6GKKKPAU_XINPUT_CAPABILITIES@@@ZA DD 01H DUP (?) ; `DXUTGetGamepadState'::`4'::s_pXInputGetCapabilities
_BSS	ENDS
;	COMDAT ?s_pXInputEnable@?1??DXUTEnableXInput@@YAX_N@Z@4P6GXH@ZA
_BSS	SEGMENT
?s_pXInputEnable@?1??DXUTEnableXInput@@YAX_N@Z@4P6GXH@ZA DD 01H DUP (?) ; `DXUTEnableXInput'::`2'::s_pXInputEnable
_BSS	ENDS
;	COMDAT ?s_pXInputSetState@?1??DXUTStopRumbleOnAllControllers@@YAJXZ@4P6GKKPAU_XINPUT_VIBRATION@@@ZA
_BSS	SEGMENT
?s_pXInputSetState@?1??DXUTStopRumbleOnAllControllers@@YAJXZ@4P6GKKPAU_XINPUT_VIBRATION@@@ZA DD 01H DUP (?) ; `DXUTStopRumbleOnAllControllers'::`2'::s_pXInputSetState
_BSS	ENDS
CRT$XCU	SEGMENT
_ignore$initializer$ DD FLAT:??__Eignore@std@@YAXXZ
CRT$XCU	ENDS
;	COMDAT __real@46fffe00
CONST	SEGMENT
__real@46fffe00 DD 046fffe00r			; 32767
CONST	ENDS
;	COMDAT __real@0000000000000000
CONST	SEGMENT
__real@0000000000000000 DQ 00000000000000000r	; 0
CONST	ENDS
;	COMDAT __real@00000000
CONST	SEGMENT
__real@00000000 DD 000000000r			; 0
CONST	ENDS
;	COMDAT rtc$TMZ
rtc$TMZ	SEGMENT
__RTC_Shutdown.rtc$TMZ DD FLAT:__RTC_Shutdown
rtc$TMZ	ENDS
;	COMDAT rtc$IMZ
rtc$IMZ	SEGMENT
__RTC_InitBase.rtc$IMZ DD FLAT:__RTC_InitBase
rtc$IMZ	ENDS
xdata$x	SEGMENT
__unwindtable$?DXUTGetGlobalTimer@@YGPAVCDXUTTimer@@XZ DD 0ffffffffH
	DD	FLAT:__unwindfunclet$?DXUTGetGlobalTimer@@YGPAVCDXUTTimer@@XZ$0
__ehfuncinfo$?DXUTGetGlobalTimer@@YGPAVCDXUTTimer@@XZ DD 019930522H
	DD	01H
	DD	FLAT:__unwindtable$?DXUTGetGlobalTimer@@YGPAVCDXUTTimer@@XZ
	DD	2 DUP(00H)
	DD	2 DUP(00H)
	DD	00H
	DD	01H
xdata$x	ENDS
CRT$XCU	SEGMENT
__Tuple_alloc$initializer$ DD FLAT:??__E_Tuple_alloc@std@@YAXXZ
CRT$XCU	ENDS
; Function compile flags: /Odtp /RTCsu
;	COMDAT ??$wcscpy_s@$0BAE@@@YAHAAY0BAE@_WPB_W@Z
_TEXT	SEGMENT
__Dest$ = 8						; size = 4
__Source$ = 12						; size = 4
??$wcscpy_s@$0BAE@@@YAHAAY0BAE@_WPB_W@Z PROC		; wcscpy_s<260>, COMDAT
; File c:\program files (x86)\microsoft visual studio 12.0\vc\include\string.h
; Line 293
	push	ebp
	mov	ebp, esp
	push	esi
	mov	esi, esp
	mov	eax, DWORD PTR __Source$[ebp]
	push	eax
	push	260					; 00000104H
	mov	ecx, DWORD PTR __Dest$[ebp]
	push	ecx
	call	DWORD PTR __imp__wcscpy_s
	add	esp, 12					; 0000000cH
	cmp	esi, esp
	call	__RTC_CheckEsp
	pop	esi
	cmp	ebp, esp
	call	__RTC_CheckEsp
	pop	ebp
	ret	0
??$wcscpy_s@$0BAE@@@YAHAAY0BAE@_WPB_W@Z ENDP		; wcscpy_s<260>
_TEXT	ENDS
; Function compile flags: /Odtp /RTCsu
_TEXT	SEGMENT
tv92 = -4						; size = 4
?DXUT_EnsureD3D9APIs@@YA_NXZ PROC			; DXUT_EnsureD3D9APIs
; File d:\engine class\assignment 1\scratch\dxsse\dxut\core\dxutmisc.cpp
; Line 414
	push	ebp
	mov	ebp, esp
	push	ecx
	push	esi
	mov	DWORD PTR [ebp-4], -858993460		; ccccccccH
; Line 417
	cmp	DWORD PTR _s_hModD3D9, 0
	je	SHORT $LN2@DXUT_Ensur
; Line 418
	mov	al, 1
	jmp	$LN3@DXUT_Ensur
$LN2@DXUT_Ensur:
; Line 421
	mov	esi, esp
	push	2048					; 00000800H
	push	0
	push	OFFSET $SG152404
	call	DWORD PTR __imp__LoadLibraryExW@12
	cmp	esi, esp
	call	__RTC_CheckEsp
	mov	DWORD PTR _s_hModD3D9, eax
; Line 422
	cmp	DWORD PTR _s_hModD3D9, 0
	je	$LN1@DXUT_Ensur
; Line 425
	mov	esi, esp
	push	OFFSET $SG152407
	mov	eax, DWORD PTR _s_hModD3D9
	push	eax
	call	DWORD PTR __imp__GetProcAddress@8
	cmp	esi, esp
	call	__RTC_CheckEsp
	mov	DWORD PTR _s_DynamicD3DPERF_BeginEvent, eax
; Line 426
	mov	esi, esp
	push	OFFSET $SG152409
	mov	ecx, DWORD PTR _s_hModD3D9
	push	ecx
	call	DWORD PTR __imp__GetProcAddress@8
	cmp	esi, esp
	call	__RTC_CheckEsp
	mov	DWORD PTR _s_DynamicD3DPERF_EndEvent, eax
; Line 427
	mov	esi, esp
	push	OFFSET $SG152411
	mov	edx, DWORD PTR _s_hModD3D9
	push	edx
	call	DWORD PTR __imp__GetProcAddress@8
	cmp	esi, esp
	call	__RTC_CheckEsp
	mov	DWORD PTR _s_DynamicD3DPERF_SetMarker, eax
; Line 428
	mov	esi, esp
	push	OFFSET $SG152413
	mov	eax, DWORD PTR _s_hModD3D9
	push	eax
	call	DWORD PTR __imp__GetProcAddress@8
	cmp	esi, esp
	call	__RTC_CheckEsp
	mov	DWORD PTR _s_DynamicD3DPERF_SetRegion, eax
; Line 429
	mov	esi, esp
	push	OFFSET $SG152415
	mov	ecx, DWORD PTR _s_hModD3D9
	push	ecx
	call	DWORD PTR __imp__GetProcAddress@8
	cmp	esi, esp
	call	__RTC_CheckEsp
	mov	DWORD PTR _s_DynamicD3DPERF_QueryRepeatFrame, eax
; Line 430
	mov	esi, esp
	push	OFFSET $SG152417
	mov	edx, DWORD PTR _s_hModD3D9
	push	edx
	call	DWORD PTR __imp__GetProcAddress@8
	cmp	esi, esp
	call	__RTC_CheckEsp
	mov	DWORD PTR _s_DynamicD3DPERF_SetOptions, eax
; Line 431
	mov	esi, esp
	push	OFFSET $SG152419
	mov	eax, DWORD PTR _s_hModD3D9
	push	eax
	call	DWORD PTR __imp__GetProcAddress@8
	cmp	esi, esp
	call	__RTC_CheckEsp
	mov	DWORD PTR _s_DynamicD3DPERF_GetStatus, eax
$LN1@DXUT_Ensur:
; Line 434
	cmp	DWORD PTR _s_hModD3D9, 0
	je	SHORT $LN5@DXUT_Ensur
	mov	DWORD PTR tv92[ebp], 1
	jmp	SHORT $LN6@DXUT_Ensur
$LN5@DXUT_Ensur:
	mov	DWORD PTR tv92[ebp], 0
$LN6@DXUT_Ensur:
	mov	al, BYTE PTR tv92[ebp]
$LN3@DXUT_Ensur:
; Line 435
	pop	esi
	add	esp, 4
	cmp	ebp, esp
	call	__RTC_CheckEsp
	mov	esp, ebp
	pop	ebp
	ret	0
?DXUT_EnsureD3D9APIs@@YA_NXZ ENDP			; DXUT_EnsureD3D9APIs
_TEXT	ENDS
; Function compile flags: /Odtp /RTCsu
;	COMDAT ??0?$function@$$A6AXPAUIPropertyBag2@@@Z@std@@QAE@$$T@Z
_TEXT	SEGMENT
_this$ = -4						; size = 4
___formal$ = 8						; size = 4
??0?$function@$$A6AXPAUIPropertyBag2@@@Z@std@@QAE@$$T@Z PROC ; std::function<void __cdecl(IPropertyBag2 *)>::function<void __cdecl(IPropertyBag2 *)>, COMDAT
; _this$ = ecx
; File c:\program files (x86)\microsoft visual studio 12.0\vc\include\functional
; Line 561
	push	ebp
	mov	ebp, esp
	push	ecx
	mov	DWORD PTR [ebp-4], -858993460		; ccccccccH
	mov	DWORD PTR _this$[ebp], ecx
	mov	ecx, DWORD PTR _this$[ebp]
	call	??0?$_Func_class@XPAUIPropertyBag2@@@std@@QAE@XZ ; std::_Func_class<void,IPropertyBag2 *>::_Func_class<void,IPropertyBag2 *>
; Line 563
	mov	ecx, DWORD PTR _this$[ebp]
	call	?_Reset@?$_Func_class@XPAUIPropertyBag2@@@std@@IAEXXZ ; std::_Func_class<void,IPropertyBag2 *>::_Reset
; Line 564
	mov	eax, DWORD PTR _this$[ebp]
	add	esp, 4
	cmp	ebp, esp
	call	__RTC_CheckEsp
	mov	esp, ebp
	pop	ebp
	ret	4
??0?$function@$$A6AXPAUIPropertyBag2@@@Z@std@@QAE@$$T@Z ENDP ; std::function<void __cdecl(IPropertyBag2 *)>::function<void __cdecl(IPropertyBag2 *)>
_TEXT	ENDS
; Function compile flags: /Odtp /RTCsu
;	COMDAT ?_Set@?$_Func_class@XPAUIPropertyBag2@@@std@@AAEXPAV?$_Func_base@XPAUIPropertyBag2@@@2@@Z
_TEXT	SEGMENT
_this$ = -4						; size = 4
__Ptr$ = 8						; size = 4
?_Set@?$_Func_class@XPAUIPropertyBag2@@@std@@AAEXPAV?$_Func_base@XPAUIPropertyBag2@@@2@@Z PROC ; std::_Func_class<void,IPropertyBag2 *>::_Set, COMDAT
; _this$ = ecx
; File c:\program files (x86)\microsoft visual studio 12.0\vc\include\functional
; Line 510
	push	ebp
	mov	ebp, esp
	push	ecx
	mov	DWORD PTR [ebp-4], -858993460		; ccccccccH
	mov	DWORD PTR _this$[ebp], ecx
; Line 511
	mov	eax, DWORD PTR _this$[ebp]
	mov	ecx, DWORD PTR __Ptr$[ebp]
	mov	DWORD PTR [eax+16], ecx
; Line 512
	mov	esp, ebp
	pop	ebp
	ret	4
?_Set@?$_Func_class@XPAUIPropertyBag2@@@std@@AAEXPAV?$_Func_base@XPAUIPropertyBag2@@@2@@Z ENDP ; std::_Func_class<void,IPropertyBag2 *>::_Set
_TEXT	ENDS
; Function compile flags: /Odtp /RTCsu
;	COMDAT ?_Reset@?$_Func_class@XPAUIPropertyBag2@@@std@@IAEXXZ
_TEXT	SEGMENT
_this$ = -4						; size = 4
?_Reset@?$_Func_class@XPAUIPropertyBag2@@@std@@IAEXXZ PROC ; std::_Func_class<void,IPropertyBag2 *>::_Reset, COMDAT
; _this$ = ecx
; File c:\program files (x86)\microsoft visual studio 12.0\vc\include\functional
; Line 330
	push	ebp
	mov	ebp, esp
	push	ecx
	mov	DWORD PTR [ebp-4], -858993460		; ccccccccH
	mov	DWORD PTR _this$[ebp], ecx
; Line 331
	push	0
	mov	ecx, DWORD PTR _this$[ebp]
	call	?_Set@?$_Func_class@XPAUIPropertyBag2@@@std@@AAEXPAV?$_Func_base@XPAUIPropertyBag2@@@2@@Z ; std::_Func_class<void,IPropertyBag2 *>::_Set
; Line 332
	add	esp, 4
	cmp	ebp, esp
	call	__RTC_CheckEsp
	mov	esp, ebp
	pop	ebp
	ret	0
?_Reset@?$_Func_class@XPAUIPropertyBag2@@@std@@IAEXXZ ENDP ; std::_Func_class<void,IPropertyBag2 *>::_Reset
_TEXT	ENDS
; Function compile flags: /Odtp /RTCsu
;	COMDAT ??0?$_Func_class@XPAUIPropertyBag2@@@std@@QAE@XZ
_TEXT	SEGMENT
_this$ = -4						; size = 4
??0?$_Func_class@XPAUIPropertyBag2@@@std@@QAE@XZ PROC	; std::_Func_class<void,IPropertyBag2 *>::_Func_class<void,IPropertyBag2 *>, COMDAT
; _this$ = ecx
; File c:\program files (x86)\microsoft visual studio 12.0\vc\include\functional
; Line 308
	push	ebp
	mov	ebp, esp
	push	ecx
	mov	DWORD PTR [ebp-4], -858993460		; ccccccccH
	mov	DWORD PTR _this$[ebp], ecx
	mov	eax, DWORD PTR _this$[ebp]
	mov	DWORD PTR [eax+16], 0
; Line 309
	mov	eax, DWORD PTR _this$[ebp]
	mov	esp, ebp
	pop	ebp
	ret	0
??0?$_Func_class@XPAUIPropertyBag2@@@std@@QAE@XZ ENDP	; std::_Func_class<void,IPropertyBag2 *>::_Func_class<void,IPropertyBag2 *>
_TEXT	ENDS
; Function compile flags: /Odtp /RTCsu
;	COMDAT ??__E_Tuple_alloc@std@@YAXXZ
text$di	SEGMENT
$T1 = -1						; size = 1
??__E_Tuple_alloc@std@@YAXXZ PROC			; std::`dynamic initializer for '_Tuple_alloc'', COMDAT
; File c:\program files (x86)\microsoft visual studio 12.0\vc\include\tuple
; Line 66
	push	ebp
	mov	ebp, esp
	push	ecx
	mov	DWORD PTR [ebp-4], -858993460		; ccccccccH
	xor	eax, eax
	mov	BYTE PTR $T1[ebp], al
	mov	esp, ebp
	pop	ebp
	ret	0
??__E_Tuple_alloc@std@@YAXXZ ENDP			; std::`dynamic initializer for '_Tuple_alloc''
text$di	ENDS
; Function compile flags: /Odtp /RTCsu
;	COMDAT ??__Eignore@std@@YAXXZ
text$di	SEGMENT
??__Eignore@std@@YAXXZ PROC				; std::`dynamic initializer for 'ignore'', COMDAT
; File c:\program files (x86)\microsoft visual studio 12.0\vc\include\tuple
; Line 59
	push	ebp
	mov	ebp, esp
	mov	ecx, OFFSET _ignore
	call	??0_Ignore@std@@QAE@XZ			; std::_Ignore::_Ignore
	cmp	ebp, esp
	call	__RTC_CheckEsp
	pop	ebp
	ret	0
??__Eignore@std@@YAXXZ ENDP				; std::`dynamic initializer for 'ignore''
text$di	ENDS
; Function compile flags: /Odtp /RTCsu
;	COMDAT ??0_Ignore@std@@QAE@XZ
_TEXT	SEGMENT
_this$ = -4						; size = 4
??0_Ignore@std@@QAE@XZ PROC				; std::_Ignore::_Ignore, COMDAT
; _this$ = ecx
; File c:\program files (x86)\microsoft visual studio 12.0\vc\include\tuple
; Line 49
	push	ebp
	mov	ebp, esp
	push	ecx
	mov	DWORD PTR [ebp-4], -858993460		; ccccccccH
	mov	DWORD PTR _this$[ebp], ecx
; Line 51
	mov	eax, DWORD PTR _this$[ebp]
	mov	esp, ebp
	pop	ebp
	ret	0
??0_Ignore@std@@QAE@XZ ENDP				; std::_Ignore::_Ignore
_TEXT	ENDS
; Function compile flags: /Odtp /RTCsu
_TEXT	SEGMENT
tv64 = -4						; size = 4
_format$ = 8						; size = 4
?MAKE_TYPELESS@@YA?AW4DXGI_FORMAT@@W41@@Z PROC		; MAKE_TYPELESS
; File d:\engine class\assignment 1\scratch\dxsse\dxut\core\dxutmisc.cpp
; Line 1137
	push	ebp
	mov	ebp, esp
	push	ecx
	mov	DWORD PTR [ebp-4], -858993460		; ccccccccH
; Line 1138
	mov	eax, DWORD PTR _format$[ebp]
	mov	DWORD PTR tv64[ebp], eax
	mov	ecx, DWORD PTR tv64[ebp]
	sub	ecx, 2
	mov	DWORD PTR tv64[ebp], ecx
	cmp	DWORD PTR tv64[ebp], 97			; 00000061H
	ja	$LN1@MAKE_TYPEL
	mov	edx, DWORD PTR tv64[ebp]
	movzx	eax, BYTE PTR $LN26@MAKE_TYPEL[edx]
	jmp	DWORD PTR $LN27@MAKE_TYPEL[eax*4]
$LN21@MAKE_TYPEL:
; Line 1143
	mov	eax, 1
	jmp	$LN24@MAKE_TYPEL
$LN20@MAKE_TYPEL:
; Line 1148
	mov	eax, 5
	jmp	$LN24@MAKE_TYPEL
$LN19@MAKE_TYPEL:
; Line 1155
	mov	eax, 9
	jmp	SHORT $LN24@MAKE_TYPEL
$LN18@MAKE_TYPEL:
; Line 1160
	mov	eax, 15					; 0000000fH
	jmp	SHORT $LN24@MAKE_TYPEL
$LN17@MAKE_TYPEL:
; Line 1164
	mov	eax, 23					; 00000017H
	jmp	SHORT $LN24@MAKE_TYPEL
$LN16@MAKE_TYPEL:
; Line 1171
	mov	eax, 27					; 0000001bH
	jmp	SHORT $LN24@MAKE_TYPEL
$LN15@MAKE_TYPEL:
; Line 1178
	mov	eax, 33					; 00000021H
	jmp	SHORT $LN24@MAKE_TYPEL
$LN14@MAKE_TYPEL:
; Line 1184
	mov	eax, 39					; 00000027H
	jmp	SHORT $LN24@MAKE_TYPEL
$LN13@MAKE_TYPEL:
; Line 1190
	mov	eax, 48					; 00000030H
	jmp	SHORT $LN24@MAKE_TYPEL
$LN12@MAKE_TYPEL:
; Line 1198
	mov	eax, 53					; 00000035H
	jmp	SHORT $LN24@MAKE_TYPEL
$LN11@MAKE_TYPEL:
; Line 1205
	mov	eax, 60					; 0000003cH
	jmp	SHORT $LN24@MAKE_TYPEL
$LN10@MAKE_TYPEL:
; Line 1209
	mov	eax, 70					; 00000046H
	jmp	SHORT $LN24@MAKE_TYPEL
$LN9@MAKE_TYPEL:
; Line 1213
	mov	eax, 73					; 00000049H
	jmp	SHORT $LN24@MAKE_TYPEL
$LN8@MAKE_TYPEL:
; Line 1217
	mov	eax, 76					; 0000004cH
	jmp	SHORT $LN24@MAKE_TYPEL
$LN7@MAKE_TYPEL:
; Line 1221
	mov	eax, 79					; 0000004fH
	jmp	SHORT $LN24@MAKE_TYPEL
$LN6@MAKE_TYPEL:
; Line 1225
	mov	eax, 82					; 00000052H
	jmp	SHORT $LN24@MAKE_TYPEL
$LN5@MAKE_TYPEL:
; Line 1229
	mov	eax, 90					; 0000005aH
	jmp	SHORT $LN24@MAKE_TYPEL
$LN4@MAKE_TYPEL:
; Line 1233
	mov	eax, 92					; 0000005cH
	jmp	SHORT $LN24@MAKE_TYPEL
$LN3@MAKE_TYPEL:
; Line 1237
	mov	eax, 94					; 0000005eH
	jmp	SHORT $LN24@MAKE_TYPEL
$LN2@MAKE_TYPEL:
; Line 1241
	mov	eax, 97					; 00000061H
	jmp	SHORT $LN24@MAKE_TYPEL
$LN1@MAKE_TYPEL:
; Line 1244
	mov	eax, DWORD PTR _format$[ebp]
$LN24@MAKE_TYPEL:
; Line 1246
	mov	esp, ebp
	pop	ebp
	ret	0
	npad	2
$LN27@MAKE_TYPEL:
	DD	$LN21@MAKE_TYPEL
	DD	$LN20@MAKE_TYPEL
	DD	$LN19@MAKE_TYPEL
	DD	$LN18@MAKE_TYPEL
	DD	$LN17@MAKE_TYPEL
	DD	$LN16@MAKE_TYPEL
	DD	$LN15@MAKE_TYPEL
	DD	$LN14@MAKE_TYPEL
	DD	$LN13@MAKE_TYPEL
	DD	$LN12@MAKE_TYPEL
	DD	$LN11@MAKE_TYPEL
	DD	$LN10@MAKE_TYPEL
	DD	$LN9@MAKE_TYPEL
	DD	$LN8@MAKE_TYPEL
	DD	$LN7@MAKE_TYPEL
	DD	$LN6@MAKE_TYPEL
	DD	$LN5@MAKE_TYPEL
	DD	$LN4@MAKE_TYPEL
	DD	$LN3@MAKE_TYPEL
	DD	$LN2@MAKE_TYPEL
	DD	$LN1@MAKE_TYPEL
$LN26@MAKE_TYPEL:
	DB	0
	DB	0
	DB	0
	DB	20					; 00000014H
	DB	1
	DB	1
	DB	1
	DB	20					; 00000014H
	DB	2
	DB	2
	DB	2
	DB	2
	DB	2
	DB	20					; 00000014H
	DB	3
	DB	3
	DB	3
	DB	20					; 00000014H
	DB	20					; 00000014H
	DB	20					; 00000014H
	DB	20					; 00000014H
	DB	20					; 00000014H
	DB	4
	DB	4
	DB	20					; 00000014H
	DB	20					; 00000014H
	DB	5
	DB	5
	DB	5
	DB	5
	DB	5
	DB	20					; 00000014H
	DB	6
	DB	6
	DB	6
	DB	6
	DB	6
	DB	20					; 00000014H
	DB	7
	DB	7
	DB	7
	DB	7
	DB	20					; 00000014H
	DB	20					; 00000014H
	DB	20					; 00000014H
	DB	20					; 00000014H
	DB	20					; 00000014H
	DB	8
	DB	8
	DB	8
	DB	8
	DB	20					; 00000014H
	DB	9
	DB	9
	DB	9
	DB	9
	DB	9
	DB	9
	DB	20					; 00000014H
	DB	10					; 0000000aH
	DB	10					; 0000000aH
	DB	10					; 0000000aH
	DB	10					; 0000000aH
	DB	10					; 0000000aH
	DB	20					; 00000014H
	DB	20					; 00000014H
	DB	20					; 00000014H
	DB	20					; 00000014H
	DB	20					; 00000014H
	DB	11					; 0000000bH
	DB	11					; 0000000bH
	DB	20					; 00000014H
	DB	12					; 0000000cH
	DB	12					; 0000000cH
	DB	20					; 00000014H
	DB	13					; 0000000dH
	DB	13					; 0000000dH
	DB	20					; 00000014H
	DB	14					; 0000000eH
	DB	14					; 0000000eH
	DB	20					; 00000014H
	DB	15					; 0000000fH
	DB	15					; 0000000fH
	DB	20					; 00000014H
	DB	20					; 00000014H
	DB	16					; 00000010H
	DB	17					; 00000011H
	DB	20					; 00000014H
	DB	20					; 00000014H
	DB	16					; 00000010H
	DB	20					; 00000014H
	DB	17					; 00000011H
	DB	20					; 00000014H
	DB	18					; 00000012H
	DB	18					; 00000012H
	DB	20					; 00000014H
	DB	19					; 00000013H
	DB	19					; 00000013H
?MAKE_TYPELESS@@YA?AW4DXGI_FORMAT@@W41@@Z ENDP		; MAKE_TYPELESS
_TEXT	ENDS
; Function compile flags: /Odtp /RTCsu
_TEXT	SEGMENT
tv67 = -4						; size = 4
_format$ = 8						; size = 4
?MAKE_SRGB@@YA?AW4DXGI_FORMAT@@W41@@Z PROC		; MAKE_SRGB
; File d:\engine class\assignment 1\scratch\dxsse\dxut\core\dxutmisc.cpp
; Line 1094
	push	ebp
	mov	ebp, esp
	push	ecx
	mov	DWORD PTR [ebp-4], -858993460		; ccccccccH
; Line 1095
	call	?DXUTIsInGammaCorrectMode@@YG_NXZ	; DXUTIsInGammaCorrectMode
	movzx	eax, al
	test	eax, eax
	jne	SHORT $LN10@MAKE_SRGB
; Line 1096
	mov	eax, DWORD PTR _format$[ebp]
	jmp	SHORT $LN11@MAKE_SRGB
$LN10@MAKE_SRGB:
; Line 1098
	mov	ecx, DWORD PTR _format$[ebp]
	mov	DWORD PTR tv67[ebp], ecx
	mov	edx, DWORD PTR tv67[ebp]
	sub	edx, 27					; 0000001bH
	mov	DWORD PTR tv67[ebp], edx
	cmp	DWORD PTR tv67[ebp], 71			; 00000047H
	ja	SHORT $LN8@MAKE_SRGB
	mov	eax, DWORD PTR tv67[ebp]
	movzx	ecx, BYTE PTR $LN13@MAKE_SRGB[eax]
	jmp	DWORD PTR $LN14@MAKE_SRGB[ecx*4]
$LN7@MAKE_SRGB:
; Line 1105
	mov	eax, 29					; 0000001dH
	jmp	SHORT $LN11@MAKE_SRGB
$LN6@MAKE_SRGB:
; Line 1109
	mov	eax, 72					; 00000048H
	jmp	SHORT $LN11@MAKE_SRGB
$LN5@MAKE_SRGB:
; Line 1113
	mov	eax, 75					; 0000004bH
	jmp	SHORT $LN11@MAKE_SRGB
$LN4@MAKE_SRGB:
; Line 1117
	mov	eax, 78					; 0000004eH
	jmp	SHORT $LN11@MAKE_SRGB
$LN3@MAKE_SRGB:
; Line 1121
	mov	eax, 91					; 0000005bH
	jmp	SHORT $LN11@MAKE_SRGB
$LN2@MAKE_SRGB:
; Line 1125
	mov	eax, 93					; 0000005dH
	jmp	SHORT $LN11@MAKE_SRGB
$LN1@MAKE_SRGB:
; Line 1129
	mov	eax, 99					; 00000063H
	jmp	SHORT $LN11@MAKE_SRGB
$LN8@MAKE_SRGB:
; Line 1132
	mov	eax, DWORD PTR _format$[ebp]
$LN11@MAKE_SRGB:
; Line 1133
	add	esp, 4
	cmp	ebp, esp
	call	__RTC_CheckEsp
	mov	esp, ebp
	pop	ebp
	ret	0
$LN14@MAKE_SRGB:
	DD	$LN7@MAKE_SRGB
	DD	$LN6@MAKE_SRGB
	DD	$LN5@MAKE_SRGB
	DD	$LN4@MAKE_SRGB
	DD	$LN3@MAKE_SRGB
	DD	$LN2@MAKE_SRGB
	DD	$LN1@MAKE_SRGB
	DD	$LN8@MAKE_SRGB
$LN13@MAKE_SRGB:
	DB	0
	DB	0
	DB	7
	DB	0
	DB	0
	DB	0
	DB	7
	DB	7
	DB	7
	DB	7
	DB	7
	DB	7
	DB	7
	DB	7
	DB	7
	DB	7
	DB	7
	DB	7
	DB	7
	DB	7
	DB	7
	DB	7
	DB	7
	DB	7
	DB	7
	DB	7
	DB	7
	DB	7
	DB	7
	DB	7
	DB	7
	DB	7
	DB	7
	DB	7
	DB	7
	DB	7
	DB	7
	DB	7
	DB	7
	DB	7
	DB	7
	DB	7
	DB	7
	DB	1
	DB	1
	DB	7
	DB	2
	DB	2
	DB	7
	DB	3
	DB	3
	DB	7
	DB	7
	DB	7
	DB	7
	DB	7
	DB	7
	DB	7
	DB	7
	DB	7
	DB	4
	DB	5
	DB	7
	DB	4
	DB	7
	DB	5
	DB	7
	DB	7
	DB	7
	DB	7
	DB	6
	DB	6
?MAKE_SRGB@@YA?AW4DXGI_FORMAT@@W41@@Z ENDP		; MAKE_SRGB
_TEXT	ENDS
; Function compile flags: /Odtp /RTCsu
_TEXT	SEGMENT
$T1 = -1068						; size = 100
_pOutputInfo$ = -968					; size = 4
_pd3dEnum$ = -964					; size = 4
_devMode$ = -956					; size = 220
_strDeviceName$ = -728					; size = 512
$T2 = -212						; size = 100
_DeviceSettings$ = -108					; size = 100
__$ArrayPad$ = -4					; size = 4
_AdapterOrdinal$ = 8					; size = 4
_pWidth$ = 12						; size = 4
_pHeight$ = 16						; size = 4
?DXUTGetDesktopResolution@@YGXIPAI0@Z PROC		; DXUTGetDesktopResolution
; File d:\engine class\assignment 1\scratch\dxsse\dxut\core\dxutmisc.cpp
; Line 876
	push	ebp
	mov	ebp, esp
	sub	esp, 1068				; 0000042cH
	push	esi
	push	edi
	lea	edi, DWORD PTR [ebp-1068]
	mov	ecx, 267				; 0000010bH
	mov	eax, -858993460				; ccccccccH
	rep stosd
	mov	eax, DWORD PTR ___security_cookie
	xor	eax, ebp
	mov	DWORD PTR __$ArrayPad$[ebp], eax
; Line 877
	lea	eax, DWORD PTR $T1[ebp]
	push	eax
	call	?DXUTGetDeviceSettings@@YG?AUDXUTDeviceSettings@@XZ ; DXUTGetDeviceSettings
	mov	ecx, 25					; 00000019H
	mov	esi, eax
	lea	edi, DWORD PTR $T2[ebp]
	rep movsd
	mov	ecx, 25					; 00000019H
	lea	esi, DWORD PTR $T2[ebp]
	lea	edi, DWORD PTR _DeviceSettings$[ebp]
	rep movsd
; Line 879
	xor	ecx, ecx
	mov	WORD PTR _strDeviceName$[ebp], cx
	push	510					; 000001feH
	push	0
	lea	edx, DWORD PTR _strDeviceName$[ebp+2]
	push	edx
	call	_memset
	add	esp, 12					; 0000000cH
; Line 881
	push	220					; 000000dcH
	push	0
	lea	eax, DWORD PTR _devMode$[ebp]
	push	eax
	call	_memset
	add	esp, 12					; 0000000cH
; Line 882
	mov	ecx, 220				; 000000dcH
	mov	WORD PTR _devMode$[ebp+68], cx
; Line 884
	push	0
	push	1
	push	0
	call	?DXUTGetD3D11Enumeration@@YGPAVCD3D11Enumeration@@_N0W4D3D_FEATURE_LEVEL@@@Z ; DXUTGetD3D11Enumeration
	mov	DWORD PTR _pd3dEnum$[ebp], eax
; Line 885
	cmp	DWORD PTR _pd3dEnum$[ebp], 0
	jne	SHORT $LN6@DXUTGetDes
	mov	esi, esp
	push	885					; 00000375H
	push	OFFSET $SG153018
	push	OFFSET $SG153019
	call	DWORD PTR __imp___wassert
	add	esp, 12					; 0000000cH
	cmp	esi, esp
	call	__RTC_CheckEsp
$LN6@DXUTGetDes:
; Line 887
	mov	eax, DWORD PTR _DeviceSettings$[ebp+12]
	push	eax
	mov	ecx, DWORD PTR _AdapterOrdinal$[ebp]
	push	ecx
	mov	ecx, DWORD PTR _pd3dEnum$[ebp]
	call	?GetOutputInfo@CD3D11Enumeration@@QBEPAVCD3D11EnumOutputInfo@@II@Z ; CD3D11Enumeration::GetOutputInfo
	mov	DWORD PTR _pOutputInfo$[ebp], eax
; Line 888
	cmp	DWORD PTR _pOutputInfo$[ebp], 0
	je	SHORT $LN3@DXUTGetDes
; Line 890
	mov	edx, DWORD PTR _pOutputInfo$[ebp]
	add	edx, 12					; 0000000cH
	mov	esi, esp
	push	edx
	push	256					; 00000100H
	lea	eax, DWORD PTR _strDeviceName$[ebp]
	push	eax
	call	DWORD PTR __imp__wcscpy_s
	add	esp, 12					; 0000000cH
	cmp	esi, esp
	call	__RTC_CheckEsp
$LN3@DXUTGetDes:
; Line 893
	mov	esi, esp
	lea	ecx, DWORD PTR _devMode$[ebp]
	push	ecx
	push	-2					; fffffffeH
	lea	edx, DWORD PTR _strDeviceName$[ebp]
	push	edx
	call	DWORD PTR __imp__EnumDisplaySettingsW@12
	cmp	esi, esp
	call	__RTC_CheckEsp
; Line 895
	cmp	DWORD PTR _pWidth$[ebp], 0
	je	SHORT $LN2@DXUTGetDes
; Line 896
	mov	eax, DWORD PTR _pWidth$[ebp]
	mov	ecx, DWORD PTR _devMode$[ebp+172]
	mov	DWORD PTR [eax], ecx
$LN2@DXUTGetDes:
; Line 897
	cmp	DWORD PTR _pHeight$[ebp], 0
	je	SHORT $LN4@DXUTGetDes
; Line 898
	mov	edx, DWORD PTR _pHeight$[ebp]
	mov	eax, DWORD PTR _devMode$[ebp+176]
	mov	DWORD PTR [edx], eax
$LN4@DXUTGetDes:
; Line 899
	push	edx
	mov	ecx, ebp
	push	eax
	lea	edx, DWORD PTR $LN11@DXUTGetDes
	call	@_RTC_CheckStackVars@8
	pop	eax
	pop	edx
	pop	edi
	pop	esi
	mov	ecx, DWORD PTR __$ArrayPad$[ebp]
	xor	ecx, ebp
	call	@__security_check_cookie@4
	add	esp, 1068				; 0000042cH
	cmp	ebp, esp
	call	__RTC_CheckEsp
	mov	esp, ebp
	pop	ebp
	ret	12					; 0000000cH
	npad	3
$LN11@DXUTGetDes:
	DD	3
	DD	$LN10@DXUTGetDes
$LN10@DXUTGetDes:
	DD	-108					; ffffff94H
	DD	100					; 00000064H
	DD	$LN7@DXUTGetDes
	DD	-728					; fffffd28H
	DD	512					; 00000200H
	DD	$LN8@DXUTGetDes
	DD	-956					; fffffc44H
	DD	220					; 000000dcH
	DD	$LN9@DXUTGetDes
$LN9@DXUTGetDes:
	DB	100					; 00000064H
	DB	101					; 00000065H
	DB	118					; 00000076H
	DB	77					; 0000004dH
	DB	111					; 0000006fH
	DB	100					; 00000064H
	DB	101					; 00000065H
	DB	0
$LN8@DXUTGetDes:
	DB	115					; 00000073H
	DB	116					; 00000074H
	DB	114					; 00000072H
	DB	68					; 00000044H
	DB	101					; 00000065H
	DB	118					; 00000076H
	DB	105					; 00000069H
	DB	99					; 00000063H
	DB	101					; 00000065H
	DB	78					; 0000004eH
	DB	97					; 00000061H
	DB	109					; 0000006dH
	DB	101					; 00000065H
	DB	0
$LN7@DXUTGetDes:
	DB	68					; 00000044H
	DB	101					; 00000065H
	DB	118					; 00000076H
	DB	105					; 00000069H
	DB	99					; 00000063H
	DB	101					; 00000065H
	DB	83					; 00000053H
	DB	101					; 00000065H
	DB	116					; 00000074H
	DB	116					; 00000074H
	DB	105					; 00000069H
	DB	110					; 0000006eH
	DB	103					; 00000067H
	DB	115					; 00000073H
	DB	0
?DXUTGetDesktopResolution@@YGXIPAI0@Z ENDP		; DXUTGetDesktopResolution
_TEXT	ENDS
; Function compile flags: /Odtp /RTCsu
_TEXT	SEGMENT
_rcWork$ = -28						; size = 16
_hUser32$1 = -8						; size = 4
__$ArrayPad$ = -4					; size = 4
_hMonitor$ = 8						; size = 4
_lpMonitorInfo$ = 12					; size = 4
?DXUTGetMonitorInfo@@YGHPAUHMONITOR__@@PAUtagMONITORINFO@@@Z PROC ; DXUTGetMonitorInfo
; File d:\engine class\assignment 1\scratch\dxsse\dxut\core\dxutmisc.cpp
; Line 799
	push	ebp
	mov	ebp, esp
	sub	esp, 32					; 00000020H
	push	esi
	mov	eax, -858993460				; ccccccccH
	mov	DWORD PTR [ebp-32], eax
	mov	DWORD PTR [ebp-28], eax
	mov	DWORD PTR [ebp-24], eax
	mov	DWORD PTR [ebp-20], eax
	mov	DWORD PTR [ebp-16], eax
	mov	DWORD PTR [ebp-12], eax
	mov	DWORD PTR [ebp-8], eax
	mov	DWORD PTR [ebp-4], eax
	mov	eax, DWORD PTR ___security_cookie
	xor	eax, ebp
	mov	DWORD PTR __$ArrayPad$[ebp], eax
; Line 802
	movzx	eax, BYTE PTR ?s_bInited@?1??DXUTGetMonitorInfo@@YGHPAUHMONITOR__@@PAUtagMONITORINFO@@@Z@4_NA
	test	eax, eax
	jne	SHORT $LN4@DXUTGetMon
; Line 804
	mov	BYTE PTR ?s_bInited@?1??DXUTGetMonitorInfo@@YGHPAUHMONITOR__@@PAUtagMONITORINFO@@@Z@4_NA, 1
; Line 805
	mov	esi, esp
	push	OFFSET $SG152960
	call	DWORD PTR __imp__GetModuleHandleW@4
	cmp	esi, esp
	call	__RTC_CheckEsp
	mov	DWORD PTR _hUser32$1[ebp], eax
; Line 806
	cmp	DWORD PTR _hUser32$1[ebp], 0
	je	SHORT $LN4@DXUTGetMon
; Line 808
	mov	esi, esp
	push	OFFSET $SG152963
	mov	ecx, DWORD PTR _hUser32$1[ebp]
	push	ecx
	call	DWORD PTR __imp__GetProcAddress@8
	cmp	esi, esp
	call	__RTC_CheckEsp
	mov	DWORD PTR ?s_pFnGetMonitorInfo@?1??DXUTGetMonitorInfo@@YGHPAUHMONITOR__@@PAUtagMONITORINFO@@@Z@4P6GH01@ZA, eax
$LN4@DXUTGetMon:
; Line 812
	cmp	DWORD PTR ?s_pFnGetMonitorInfo@?1??DXUTGetMonitorInfo@@YGHPAUHMONITOR__@@PAUtagMONITORINFO@@@Z@4P6GH01@ZA, 0
	je	SHORT $LN2@DXUTGetMon
; Line 813
	mov	esi, esp
	mov	edx, DWORD PTR _lpMonitorInfo$[ebp]
	push	edx
	mov	eax, DWORD PTR _hMonitor$[ebp]
	push	eax
	call	DWORD PTR ?s_pFnGetMonitorInfo@?1??DXUTGetMonitorInfo@@YGHPAUHMONITOR__@@PAUtagMONITORINFO@@@Z@4P6GH01@ZA
	cmp	esi, esp
	call	__RTC_CheckEsp
	jmp	$LN5@DXUTGetMon
$LN2@DXUTGetMon:
; Line 817
	cmp	DWORD PTR _hMonitor$[ebp], 305397826	; 12340042H
	jne	$LN1@DXUTGetMon
	cmp	DWORD PTR _lpMonitorInfo$[ebp], 0
	je	$LN1@DXUTGetMon
	mov	ecx, DWORD PTR _lpMonitorInfo$[ebp]
	cmp	DWORD PTR [ecx], 40			; 00000028H
	jb	$LN1@DXUTGetMon
	mov	esi, esp
	push	0
	lea	edx, DWORD PTR _rcWork$[ebp]
	push	edx
	push	0
	push	48					; 00000030H
	call	DWORD PTR __imp__SystemParametersInfoA@16
	cmp	esi, esp
	call	__RTC_CheckEsp
	test	eax, eax
	je	SHORT $LN1@DXUTGetMon
; Line 819
	mov	eax, DWORD PTR _lpMonitorInfo$[ebp]
	mov	DWORD PTR [eax+4], 0
; Line 820
	mov	ecx, DWORD PTR _lpMonitorInfo$[ebp]
	mov	DWORD PTR [ecx+8], 0
; Line 821
	mov	esi, esp
	push	0
	call	DWORD PTR __imp__GetSystemMetrics@4
	cmp	esi, esp
	call	__RTC_CheckEsp
	mov	edx, DWORD PTR _lpMonitorInfo$[ebp]
	mov	DWORD PTR [edx+12], eax
; Line 822
	mov	esi, esp
	push	1
	call	DWORD PTR __imp__GetSystemMetrics@4
	cmp	esi, esp
	call	__RTC_CheckEsp
	mov	ecx, DWORD PTR _lpMonitorInfo$[ebp]
	mov	DWORD PTR [ecx+16], eax
; Line 823
	mov	edx, DWORD PTR _lpMonitorInfo$[ebp]
	add	edx, 20					; 00000014H
	mov	eax, DWORD PTR _rcWork$[ebp]
	mov	DWORD PTR [edx], eax
	mov	ecx, DWORD PTR _rcWork$[ebp+4]
	mov	DWORD PTR [edx+4], ecx
	mov	eax, DWORD PTR _rcWork$[ebp+8]
	mov	DWORD PTR [edx+8], eax
	mov	ecx, DWORD PTR _rcWork$[ebp+12]
	mov	DWORD PTR [edx+12], ecx
; Line 824
	mov	edx, DWORD PTR _lpMonitorInfo$[ebp]
	mov	DWORD PTR [edx+36], 1
; Line 825
	mov	eax, 1
	jmp	SHORT $LN5@DXUTGetMon
$LN1@DXUTGetMon:
; Line 827
	xor	eax, eax
$LN5@DXUTGetMon:
; Line 828
	push	edx
	mov	ecx, ebp
	push	eax
	lea	edx, DWORD PTR $LN9@DXUTGetMon
	call	@_RTC_CheckStackVars@8
	pop	eax
	pop	edx
	pop	esi
	mov	ecx, DWORD PTR __$ArrayPad$[ebp]
	xor	ecx, ebp
	call	@__security_check_cookie@4
	add	esp, 32					; 00000020H
	cmp	ebp, esp
	call	__RTC_CheckEsp
	mov	esp, ebp
	pop	ebp
	ret	8
	npad	3
$LN9@DXUTGetMon:
	DD	1
	DD	$LN8@DXUTGetMon
$LN8@DXUTGetMon:
	DD	-28					; ffffffe4H
	DD	16					; 00000010H
	DD	$LN7@DXUTGetMon
$LN7@DXUTGetMon:
	DB	114					; 00000072H
	DB	99					; 00000063H
	DB	87					; 00000057H
	DB	111					; 0000006fH
	DB	114					; 00000072H
	DB	107					; 0000006bH
	DB	0
?DXUTGetMonitorInfo@@YGHPAUHMONITOR__@@PAUtagMONITORINFO@@@Z ENDP ; DXUTGetMonitorInfo
_TEXT	ENDS
; Function compile flags: /Odtp /RTCsu
_TEXT	SEGMENT
_hUser32$1 = -4						; size = 4
_lprcScreenCoords$ = 8					; size = 4
_dwFlags$ = 12						; size = 4
?DXUTMonitorFromRect@@YGPAUHMONITOR__@@PBUtagRECT@@K@Z PROC ; DXUTMonitorFromRect
; File d:\engine class\assignment 1\scratch\dxsse\dxut\core\dxutmisc.cpp
; Line 853
	push	ebp
	mov	ebp, esp
	push	ecx
	push	esi
	mov	DWORD PTR [ebp-4], -858993460		; ccccccccH
; Line 856
	movzx	eax, BYTE PTR ?s_bInited@?1??DXUTMonitorFromRect@@YGPAUHMONITOR__@@PBUtagRECT@@K@Z@4_NA
	test	eax, eax
	jne	SHORT $LN4@DXUTMonito
; Line 858
	mov	BYTE PTR ?s_bInited@?1??DXUTMonitorFromRect@@YGPAUHMONITOR__@@PBUtagRECT@@K@Z@4_NA, 1
; Line 859
	mov	esi, esp
	push	OFFSET $SG152996
	call	DWORD PTR __imp__GetModuleHandleW@4
	cmp	esi, esp
	call	__RTC_CheckEsp
	mov	DWORD PTR _hUser32$1[ebp], eax
; Line 860
	cmp	DWORD PTR _hUser32$1[ebp], 0
	je	SHORT $LN4@DXUTMonito
	mov	esi, esp
	push	OFFSET $SG152999
	mov	ecx, DWORD PTR _hUser32$1[ebp]
	push	ecx
	call	DWORD PTR __imp__GetProcAddress@8
	cmp	esi, esp
	call	__RTC_CheckEsp
	mov	DWORD PTR ?s_pFnGetMonitorFromRect@?1??DXUTMonitorFromRect@@YGPAUHMONITOR__@@PBUtagRECT@@K@Z@4P6GPAU2@0K@ZA, eax
$LN4@DXUTMonito:
; Line 863
	cmp	DWORD PTR ?s_pFnGetMonitorFromRect@?1??DXUTMonitorFromRect@@YGPAUHMONITOR__@@PBUtagRECT@@K@Z@4P6GPAU2@0K@ZA, 0
	je	SHORT $LN2@DXUTMonito
; Line 864
	mov	esi, esp
	mov	edx, DWORD PTR _dwFlags$[ebp]
	push	edx
	mov	eax, DWORD PTR _lprcScreenCoords$[ebp]
	push	eax
	call	DWORD PTR ?s_pFnGetMonitorFromRect@?1??DXUTMonitorFromRect@@YGPAUHMONITOR__@@PBUtagRECT@@K@Z@4P6GPAU2@0K@ZA
	cmp	esi, esp
	call	__RTC_CheckEsp
	jmp	SHORT $LN5@DXUTMonito
; Line 865
	jmp	SHORT $LN5@DXUTMonito
$LN2@DXUTMonito:
; Line 866
	mov	eax, 305397826				; 12340042H
$LN5@DXUTMonito:
; Line 867
	pop	esi
	add	esp, 4
	cmp	ebp, esp
	call	__RTC_CheckEsp
	mov	esp, ebp
	pop	ebp
	ret	8
?DXUTMonitorFromRect@@YGPAUHMONITOR__@@PBUtagRECT@@K@Z ENDP ; DXUTMonitorFromRect
_TEXT	ENDS
; Function compile flags: /Odtp /RTCsu
_TEXT	SEGMENT
_hUser32$1 = -4						; size = 4
_hWnd$ = 8						; size = 4
_dwFlags$ = 12						; size = 4
?DXUTMonitorFromWindow@@YGPAUHMONITOR__@@PAUHWND__@@K@Z PROC ; DXUTMonitorFromWindow
; File d:\engine class\assignment 1\scratch\dxsse\dxut\core\dxutmisc.cpp
; Line 833
	push	ebp
	mov	ebp, esp
	push	ecx
	push	esi
	mov	DWORD PTR [ebp-4], -858993460		; ccccccccH
; Line 836
	movzx	eax, BYTE PTR ?s_bInited@?1??DXUTMonitorFromWindow@@YGPAUHMONITOR__@@PAUHWND__@@K@Z@4_NA
	test	eax, eax
	jne	SHORT $LN4@DXUTMonito
; Line 838
	mov	BYTE PTR ?s_bInited@?1??DXUTMonitorFromWindow@@YGPAUHMONITOR__@@PAUHWND__@@K@Z@4_NA, 1
; Line 839
	mov	esi, esp
	push	OFFSET $SG152979
	call	DWORD PTR __imp__GetModuleHandleW@4
	cmp	esi, esp
	call	__RTC_CheckEsp
	mov	DWORD PTR _hUser32$1[ebp], eax
; Line 840
	cmp	DWORD PTR _hUser32$1[ebp], 0
	je	SHORT $LN4@DXUTMonito
; Line 841
	mov	esi, esp
	push	OFFSET $SG152982
	mov	ecx, DWORD PTR _hUser32$1[ebp]
	push	ecx
	call	DWORD PTR __imp__GetProcAddress@8
	cmp	esi, esp
	call	__RTC_CheckEsp
	mov	DWORD PTR ?s_pFnGetMonitorFromWindow@?1??DXUTMonitorFromWindow@@YGPAUHMONITOR__@@PAUHWND__@@K@Z@4P6GPAU2@0K@ZA, eax
$LN4@DXUTMonito:
; Line 844
	cmp	DWORD PTR ?s_pFnGetMonitorFromWindow@?1??DXUTMonitorFromWindow@@YGPAUHMONITOR__@@PAUHWND__@@K@Z@4P6GPAU2@0K@ZA, 0
	je	SHORT $LN2@DXUTMonito
; Line 845
	mov	esi, esp
	mov	edx, DWORD PTR _dwFlags$[ebp]
	push	edx
	mov	eax, DWORD PTR _hWnd$[ebp]
	push	eax
	call	DWORD PTR ?s_pFnGetMonitorFromWindow@?1??DXUTMonitorFromWindow@@YGPAUHMONITOR__@@PAUHWND__@@K@Z@4P6GPAU2@0K@ZA
	cmp	esi, esp
	call	__RTC_CheckEsp
	jmp	SHORT $LN5@DXUTMonito
; Line 846
	jmp	SHORT $LN5@DXUTMonito
$LN2@DXUTMonito:
; Line 847
	mov	eax, 305397826				; 12340042H
$LN5@DXUTMonito:
; Line 848
	pop	esi
	add	esp, 4
	cmp	ebp, esp
	call	__RTC_CheckEsp
	mov	esp, ebp
	pop	ebp
	ret	8
?DXUTMonitorFromWindow@@YGPAUHMONITOR__@@PAUHWND__@@K@Z ENDP ; DXUTMonitorFromWindow
_TEXT	ENDS
; Function compile flags: /Odtp /RTCsu
_TEXT	SEGMENT
tv129 = -8						; size = 4
tv94 = -4						; size = 4
?DXUT_EnsureD3D11APIs@@YA_NXZ PROC			; DXUT_EnsureD3D11APIs
; File d:\engine class\assignment 1\scratch\dxsse\dxut\core\dxutmisc.cpp
; Line 438
	push	ebp
	mov	ebp, esp
	sub	esp, 8
	push	esi
	mov	DWORD PTR [ebp-8], -858993460		; ccccccccH
	mov	DWORD PTR [ebp-4], -858993460		; ccccccccH
; Line 441
	cmp	DWORD PTR _s_hModD3D11, 0
	je	SHORT $LN6@DXUT_Ensur
	cmp	DWORD PTR _s_hModDXGI, 0
	je	SHORT $LN6@DXUT_Ensur
; Line 442
	mov	al, 1
	jmp	$LN7@DXUT_Ensur
$LN6@DXUT_Ensur:
; Line 445
	mov	esi, esp
	push	2048					; 00000800H
	push	0
	push	OFFSET $SG152423
	call	DWORD PTR __imp__LoadLibraryExW@12
	cmp	esi, esp
	call	__RTC_CheckEsp
	mov	DWORD PTR _s_hModD3D11, eax
; Line 446
	cmp	DWORD PTR _s_hModD3D11, 0
	je	SHORT $LN5@DXUT_Ensur
; Line 448
	mov	esi, esp
	push	OFFSET $SG152426
	mov	eax, DWORD PTR _s_hModD3D11
	push	eax
	call	DWORD PTR __imp__GetProcAddress@8
	cmp	esi, esp
	call	__RTC_CheckEsp
	mov	DWORD PTR _s_DynamicD3D11CreateDevice, eax
$LN5@DXUT_Ensur:
; Line 451
	cmp	DWORD PTR _s_DynamicCreateDXGIFactory, 0
	jne	$LN4@DXUT_Ensur
; Line 453
	mov	esi, esp
	push	2048					; 00000800H
	push	0
	push	OFFSET $SG152428
	call	DWORD PTR __imp__LoadLibraryExW@12
	cmp	esi, esp
	call	__RTC_CheckEsp
	mov	DWORD PTR _s_hModDXGI, eax
; Line 454
	cmp	DWORD PTR _s_hModDXGI, 0
	je	SHORT $LN3@DXUT_Ensur
; Line 456
	mov	esi, esp
	push	OFFSET $SG152431
	mov	ecx, DWORD PTR _s_hModDXGI
	push	ecx
	call	DWORD PTR __imp__GetProcAddress@8
	cmp	esi, esp
	call	__RTC_CheckEsp
	mov	DWORD PTR _s_DynamicCreateDXGIFactory, eax
$LN3@DXUT_Ensur:
; Line 459
	cmp	DWORD PTR _s_DynamicDXGIGetDebugInterface, 0
	jne	SHORT $LN2@DXUT_Ensur
; Line 461
	mov	esi, esp
	push	2048					; 00000800H
	push	0
	push	OFFSET $SG152433
	call	DWORD PTR __imp__LoadLibraryExW@12
	cmp	esi, esp
	call	__RTC_CheckEsp
	mov	DWORD PTR _s_hModDXGIDebug, eax
; Line 462
	cmp	DWORD PTR _s_hModDXGIDebug, 0
	je	SHORT $LN2@DXUT_Ensur
; Line 464
	mov	esi, esp
	push	OFFSET $SG152436
	mov	edx, DWORD PTR _s_hModDXGIDebug
	push	edx
	call	DWORD PTR __imp__GetProcAddress@8
	cmp	esi, esp
	call	__RTC_CheckEsp
	mov	DWORD PTR _s_DynamicDXGIGetDebugInterface, eax
$LN2@DXUT_Ensur:
; Line 468
	cmp	DWORD PTR _s_hModDXGI, 0
	je	SHORT $LN9@DXUT_Ensur
	cmp	DWORD PTR _s_hModD3D11, 0
	je	SHORT $LN9@DXUT_Ensur
	mov	DWORD PTR tv94[ebp], 1
	jmp	SHORT $LN10@DXUT_Ensur
$LN9@DXUT_Ensur:
	mov	DWORD PTR tv94[ebp], 0
$LN10@DXUT_Ensur:
	mov	al, BYTE PTR tv94[ebp]
	jmp	SHORT $LN7@DXUT_Ensur
$LN4@DXUT_Ensur:
; Line 471
	cmp	DWORD PTR _s_hModD3D11, 0
	je	SHORT $LN11@DXUT_Ensur
	mov	DWORD PTR tv129[ebp], 1
	jmp	SHORT $LN12@DXUT_Ensur
$LN11@DXUT_Ensur:
	mov	DWORD PTR tv129[ebp], 0
$LN12@DXUT_Ensur:
	mov	al, BYTE PTR tv129[ebp]
$LN7@DXUT_Ensur:
; Line 472
	pop	esi
	add	esp, 8
	cmp	ebp, esp
	call	__RTC_CheckEsp
	mov	esp, ebp
	pop	ebp
	ret	0
?DXUT_EnsureD3D11APIs@@YA_NXZ ENDP			; DXUT_EnsureD3D11APIs
_TEXT	ENDS
; Function compile flags: /Odtp /RTCsu
_TEXT	SEGMENT
_pAdapter$ = 8						; size = 4
_DriverType$ = 12					; size = 4
_Software$ = 16						; size = 4
_Flags$ = 20						; size = 4
_pFeatureLevels$ = 24					; size = 4
_FeatureLevels$ = 28					; size = 4
_SDKVersion$ = 32					; size = 4
_ppDevice$ = 36						; size = 4
_pFeatureLevel$ = 40					; size = 4
_ppImmediateContext$ = 44				; size = 4
?DXUT_Dynamic_D3D11CreateDevice@@YGJPAUIDXGIAdapter@@W4D3D_DRIVER_TYPE@@PAUHINSTANCE__@@IPAW4D3D_FEATURE_LEVEL@@IIPAPAUID3D11Device@@3PAPAUID3D11DeviceContext@@@Z PROC ; DXUT_Dynamic_D3D11CreateDevice
; File d:\engine class\assignment 1\scratch\dxsse\dxut\core\dxutmisc.cpp
; Line 553
	push	ebp
	mov	ebp, esp
	push	esi
; Line 554
	call	?DXUT_EnsureD3D11APIs@@YA_NXZ		; DXUT_EnsureD3D11APIs
	movzx	eax, al
	test	eax, eax
	je	SHORT $LN2@DXUT_Dynam
	cmp	DWORD PTR _s_DynamicD3D11CreateDevice, 0
	je	SHORT $LN2@DXUT_Dynam
; Line 556
	mov	esi, esp
	mov	ecx, DWORD PTR _ppImmediateContext$[ebp]
	push	ecx
	mov	edx, DWORD PTR _pFeatureLevel$[ebp]
	push	edx
	mov	eax, DWORD PTR _ppDevice$[ebp]
	push	eax
	mov	ecx, DWORD PTR _SDKVersion$[ebp]
	push	ecx
	mov	edx, DWORD PTR _FeatureLevels$[ebp]
	push	edx
	mov	eax, DWORD PTR _pFeatureLevels$[ebp]
	push	eax
	mov	ecx, DWORD PTR _Flags$[ebp]
	push	ecx
	mov	edx, DWORD PTR _Software$[ebp]
	push	edx
	mov	eax, DWORD PTR _DriverType$[ebp]
	push	eax
	mov	ecx, DWORD PTR _pAdapter$[ebp]
	push	ecx
	call	DWORD PTR _s_DynamicD3D11CreateDevice
	cmp	esi, esp
	call	__RTC_CheckEsp
	jmp	SHORT $LN3@DXUT_Dynam
; Line 557
	jmp	SHORT $LN3@DXUT_Dynam
$LN2@DXUT_Dynam:
; Line 558
	mov	eax, -2147219199			; 80040901H
$LN3@DXUT_Dynam:
; Line 559
	pop	esi
	cmp	ebp, esp
	call	__RTC_CheckEsp
	pop	ebp
	ret	40					; 00000028H
?DXUT_Dynamic_D3D11CreateDevice@@YGJPAUIDXGIAdapter@@W4D3D_DRIVER_TYPE@@PAUHINSTANCE__@@IPAW4D3D_FEATURE_LEVEL@@IIPAPAUID3D11Device@@3PAPAUID3D11DeviceContext@@@Z ENDP ; DXUT_Dynamic_D3D11CreateDevice
_TEXT	ENDS
; Function compile flags: /Odtp /RTCsu
_TEXT	SEGMENT
_rInterface$ = 8					; size = 4
_ppOut$ = 12						; size = 4
?DXUT_Dynamic_DXGIGetDebugInterface@@YGJABU_GUID@@PAPAX@Z PROC ; DXUT_Dynamic_DXGIGetDebugInterface
; File d:\engine class\assignment 1\scratch\dxsse\dxut\core\dxutmisc.cpp
; Line 535
	push	ebp
	mov	ebp, esp
	push	esi
; Line 536
	call	?DXUT_EnsureD3D11APIs@@YA_NXZ		; DXUT_EnsureD3D11APIs
	movzx	eax, al
	test	eax, eax
	je	SHORT $LN2@DXUT_Dynam
	cmp	DWORD PTR _s_DynamicDXGIGetDebugInterface, 0
	je	SHORT $LN2@DXUT_Dynam
; Line 537
	mov	esi, esp
	mov	ecx, DWORD PTR _ppOut$[ebp]
	push	ecx
	mov	edx, DWORD PTR _rInterface$[ebp]
	push	edx
	call	DWORD PTR _s_DynamicDXGIGetDebugInterface
	cmp	esi, esp
	call	__RTC_CheckEsp
	jmp	SHORT $LN3@DXUT_Dynam
; Line 538
	jmp	SHORT $LN3@DXUT_Dynam
$LN2@DXUT_Dynam:
; Line 539
	mov	eax, -2147467263			; 80004001H
$LN3@DXUT_Dynam:
; Line 540
	pop	esi
	cmp	ebp, esp
	call	__RTC_CheckEsp
	pop	ebp
	ret	8
?DXUT_Dynamic_DXGIGetDebugInterface@@YGJABU_GUID@@PAPAX@Z ENDP ; DXUT_Dynamic_DXGIGetDebugInterface
_TEXT	ENDS
; Function compile flags: /Odtp /RTCsu
_TEXT	SEGMENT
_rInterface$ = 8					; size = 4
_ppOut$ = 12						; size = 4
?DXUT_Dynamic_CreateDXGIFactory1@@YGJABU_GUID@@PAPAX@Z PROC ; DXUT_Dynamic_CreateDXGIFactory1
; File d:\engine class\assignment 1\scratch\dxsse\dxut\core\dxutmisc.cpp
; Line 526
	push	ebp
	mov	ebp, esp
	push	esi
; Line 527
	call	?DXUT_EnsureD3D11APIs@@YA_NXZ		; DXUT_EnsureD3D11APIs
	movzx	eax, al
	test	eax, eax
	je	SHORT $LN2@DXUT_Dynam
	cmp	DWORD PTR _s_DynamicCreateDXGIFactory, 0
	je	SHORT $LN2@DXUT_Dynam
; Line 528
	mov	esi, esp
	mov	ecx, DWORD PTR _ppOut$[ebp]
	push	ecx
	mov	edx, DWORD PTR _rInterface$[ebp]
	push	edx
	call	DWORD PTR _s_DynamicCreateDXGIFactory
	cmp	esi, esp
	call	__RTC_CheckEsp
	jmp	SHORT $LN3@DXUT_Dynam
; Line 529
	jmp	SHORT $LN3@DXUT_Dynam
$LN2@DXUT_Dynam:
; Line 530
	mov	eax, -2147219199			; 80040901H
$LN3@DXUT_Dynam:
; Line 531
	pop	esi
	cmp	ebp, esp
	call	__RTC_CheckEsp
	pop	ebp
	ret	8
?DXUT_Dynamic_CreateDXGIFactory1@@YGJABU_GUID@@PAPAX@Z ENDP ; DXUT_Dynamic_CreateDXGIFactory1
_TEXT	ENDS
; Function compile flags: /Odtp /RTCsu
_TEXT	SEGMENT
?DXUT_Dynamic_D3DPERF_GetStatus@@YGKXZ PROC		; DXUT_Dynamic_D3DPERF_GetStatus
; File d:\engine class\assignment 1\scratch\dxsse\dxut\core\dxutmisc.cpp
; Line 517
	push	ebp
	mov	ebp, esp
	push	esi
; Line 518
	call	?DXUT_EnsureD3D9APIs@@YA_NXZ		; DXUT_EnsureD3D9APIs
	movzx	eax, al
	test	eax, eax
	je	SHORT $LN2@DXUT_Dynam
	cmp	DWORD PTR _s_DynamicD3DPERF_GetStatus, 0
	je	SHORT $LN2@DXUT_Dynam
; Line 519
	mov	esi, esp
	call	DWORD PTR _s_DynamicD3DPERF_GetStatus
	cmp	esi, esp
	call	__RTC_CheckEsp
	jmp	SHORT $LN3@DXUT_Dynam
; Line 520
	jmp	SHORT $LN3@DXUT_Dynam
$LN2@DXUT_Dynam:
; Line 521
	xor	eax, eax
$LN3@DXUT_Dynam:
; Line 522
	pop	esi
	cmp	ebp, esp
	call	__RTC_CheckEsp
	pop	ebp
	ret	0
?DXUT_Dynamic_D3DPERF_GetStatus@@YGKXZ ENDP		; DXUT_Dynamic_D3DPERF_GetStatus
_TEXT	ENDS
; Function compile flags: /Odtp /RTCsu
_TEXT	SEGMENT
_dwOptions$ = 8						; size = 4
?DXUT_Dynamic_D3DPERF_SetOptions@@YGXK@Z PROC		; DXUT_Dynamic_D3DPERF_SetOptions
; File d:\engine class\assignment 1\scratch\dxsse\dxut\core\dxutmisc.cpp
; Line 511
	push	ebp
	mov	ebp, esp
	push	esi
; Line 512
	call	?DXUT_EnsureD3D9APIs@@YA_NXZ		; DXUT_EnsureD3D9APIs
	movzx	eax, al
	test	eax, eax
	je	SHORT $LN2@DXUT_Dynam
	cmp	DWORD PTR _s_DynamicD3DPERF_SetOptions, 0
	je	SHORT $LN2@DXUT_Dynam
; Line 513
	mov	esi, esp
	mov	ecx, DWORD PTR _dwOptions$[ebp]
	push	ecx
	call	DWORD PTR _s_DynamicD3DPERF_SetOptions
	cmp	esi, esp
	call	__RTC_CheckEsp
$LN2@DXUT_Dynam:
; Line 514
	pop	esi
	cmp	ebp, esp
	call	__RTC_CheckEsp
	pop	ebp
	ret	4
?DXUT_Dynamic_D3DPERF_SetOptions@@YGXK@Z ENDP		; DXUT_Dynamic_D3DPERF_SetOptions
_TEXT	ENDS
; Function compile flags: /Odtp /RTCsu
_TEXT	SEGMENT
?DXUT_Dynamic_D3DPERF_QueryRepeatFrame@@YGHXZ PROC	; DXUT_Dynamic_D3DPERF_QueryRepeatFrame
; File d:\engine class\assignment 1\scratch\dxsse\dxut\core\dxutmisc.cpp
; Line 503
	push	ebp
	mov	ebp, esp
	push	esi
; Line 504
	call	?DXUT_EnsureD3D9APIs@@YA_NXZ		; DXUT_EnsureD3D9APIs
	movzx	eax, al
	test	eax, eax
	je	SHORT $LN2@DXUT_Dynam
	cmp	DWORD PTR _s_DynamicD3DPERF_QueryRepeatFrame, 0
	je	SHORT $LN2@DXUT_Dynam
; Line 505
	mov	esi, esp
	call	DWORD PTR _s_DynamicD3DPERF_QueryRepeatFrame
	cmp	esi, esp
	call	__RTC_CheckEsp
	jmp	SHORT $LN3@DXUT_Dynam
; Line 506
	jmp	SHORT $LN3@DXUT_Dynam
$LN2@DXUT_Dynam:
; Line 507
	xor	eax, eax
$LN3@DXUT_Dynam:
; Line 508
	pop	esi
	cmp	ebp, esp
	call	__RTC_CheckEsp
	pop	ebp
	ret	0
?DXUT_Dynamic_D3DPERF_QueryRepeatFrame@@YGHXZ ENDP	; DXUT_Dynamic_D3DPERF_QueryRepeatFrame
_TEXT	ENDS
; Function compile flags: /Odtp /RTCsu
_TEXT	SEGMENT
_col$ = 8						; size = 4
_wszName$ = 12						; size = 4
?DXUT_Dynamic_D3DPERF_SetRegion@@YGXKPB_W@Z PROC	; DXUT_Dynamic_D3DPERF_SetRegion
; File d:\engine class\assignment 1\scratch\dxsse\dxut\core\dxutmisc.cpp
; Line 497
	push	ebp
	mov	ebp, esp
	push	esi
; Line 498
	call	?DXUT_EnsureD3D9APIs@@YA_NXZ		; DXUT_EnsureD3D9APIs
	movzx	eax, al
	test	eax, eax
	je	SHORT $LN2@DXUT_Dynam
	cmp	DWORD PTR _s_DynamicD3DPERF_SetRegion, 0
	je	SHORT $LN2@DXUT_Dynam
; Line 499
	mov	esi, esp
	mov	ecx, DWORD PTR _wszName$[ebp]
	push	ecx
	mov	edx, DWORD PTR _col$[ebp]
	push	edx
	call	DWORD PTR _s_DynamicD3DPERF_SetRegion
	cmp	esi, esp
	call	__RTC_CheckEsp
$LN2@DXUT_Dynam:
; Line 500
	pop	esi
	cmp	ebp, esp
	call	__RTC_CheckEsp
	pop	ebp
	ret	8
?DXUT_Dynamic_D3DPERF_SetRegion@@YGXKPB_W@Z ENDP	; DXUT_Dynamic_D3DPERF_SetRegion
_TEXT	ENDS
; Function compile flags: /Odtp /RTCsu
_TEXT	SEGMENT
_col$ = 8						; size = 4
_wszName$ = 12						; size = 4
?DXUT_Dynamic_D3DPERF_SetMarker@@YGXKPB_W@Z PROC	; DXUT_Dynamic_D3DPERF_SetMarker
; File d:\engine class\assignment 1\scratch\dxsse\dxut\core\dxutmisc.cpp
; Line 491
	push	ebp
	mov	ebp, esp
	push	esi
; Line 492
	call	?DXUT_EnsureD3D9APIs@@YA_NXZ		; DXUT_EnsureD3D9APIs
	movzx	eax, al
	test	eax, eax
	je	SHORT $LN2@DXUT_Dynam
	cmp	DWORD PTR _s_DynamicD3DPERF_SetMarker, 0
	je	SHORT $LN2@DXUT_Dynam
; Line 493
	mov	esi, esp
	mov	ecx, DWORD PTR _wszName$[ebp]
	push	ecx
	mov	edx, DWORD PTR _col$[ebp]
	push	edx
	call	DWORD PTR _s_DynamicD3DPERF_SetMarker
	cmp	esi, esp
	call	__RTC_CheckEsp
$LN2@DXUT_Dynam:
; Line 494
	pop	esi
	cmp	ebp, esp
	call	__RTC_CheckEsp
	pop	ebp
	ret	8
?DXUT_Dynamic_D3DPERF_SetMarker@@YGXKPB_W@Z ENDP	; DXUT_Dynamic_D3DPERF_SetMarker
_TEXT	ENDS
; Function compile flags: /Odtp /RTCsu
_TEXT	SEGMENT
?DXUT_Dynamic_D3DPERF_EndEvent@@YGHXZ PROC		; DXUT_Dynamic_D3DPERF_EndEvent
; File d:\engine class\assignment 1\scratch\dxsse\dxut\core\dxutmisc.cpp
; Line 483
	push	ebp
	mov	ebp, esp
	push	esi
; Line 484
	call	?DXUT_EnsureD3D9APIs@@YA_NXZ		; DXUT_EnsureD3D9APIs
	movzx	eax, al
	test	eax, eax
	je	SHORT $LN2@DXUT_Dynam
	cmp	DWORD PTR _s_DynamicD3DPERF_EndEvent, 0
	je	SHORT $LN2@DXUT_Dynam
; Line 485
	mov	esi, esp
	call	DWORD PTR _s_DynamicD3DPERF_EndEvent
	cmp	esi, esp
	call	__RTC_CheckEsp
	jmp	SHORT $LN3@DXUT_Dynam
; Line 486
	jmp	SHORT $LN3@DXUT_Dynam
$LN2@DXUT_Dynam:
; Line 487
	or	eax, -1
$LN3@DXUT_Dynam:
; Line 488
	pop	esi
	cmp	ebp, esp
	call	__RTC_CheckEsp
	pop	ebp
	ret	0
?DXUT_Dynamic_D3DPERF_EndEvent@@YGHXZ ENDP		; DXUT_Dynamic_D3DPERF_EndEvent
_TEXT	ENDS
; Function compile flags: /Odtp /RTCsu
_TEXT	SEGMENT
_col$ = 8						; size = 4
_wszName$ = 12						; size = 4
?DXUT_Dynamic_D3DPERF_BeginEvent@@YGHKPB_W@Z PROC	; DXUT_Dynamic_D3DPERF_BeginEvent
; File d:\engine class\assignment 1\scratch\dxsse\dxut\core\dxutmisc.cpp
; Line 475
	push	ebp
	mov	ebp, esp
	push	esi
; Line 476
	call	?DXUT_EnsureD3D9APIs@@YA_NXZ		; DXUT_EnsureD3D9APIs
	movzx	eax, al
	test	eax, eax
	je	SHORT $LN2@DXUT_Dynam
	cmp	DWORD PTR _s_DynamicD3DPERF_BeginEvent, 0
	je	SHORT $LN2@DXUT_Dynam
; Line 477
	mov	esi, esp
	mov	ecx, DWORD PTR _wszName$[ebp]
	push	ecx
	mov	edx, DWORD PTR _col$[ebp]
	push	edx
	call	DWORD PTR _s_DynamicD3DPERF_BeginEvent
	cmp	esi, esp
	call	__RTC_CheckEsp
	jmp	SHORT $LN3@DXUT_Dynam
; Line 478
	jmp	SHORT $LN3@DXUT_Dynam
$LN2@DXUT_Dynam:
; Line 479
	or	eax, -1
$LN3@DXUT_Dynam:
; Line 480
	pop	esi
	cmp	ebp, esp
	call	__RTC_CheckEsp
	pop	ebp
	ret	8
?DXUT_Dynamic_D3DPERF_BeginEvent@@YGHKPB_W@Z ENDP	; DXUT_Dynamic_D3DPERF_BeginEvent
_TEXT	ENDS
; Function compile flags: /Odtp /RTCsu
_TEXT	SEGMENT
tv64 = -4						; size = 4
_uMsg$ = 8						; size = 4
?DXUTTraceWindowsMessage@@YGPB_WI@Z PROC		; DXUTTraceWindowsMessage
; File d:\engine class\assignment 1\scratch\dxsse\dxut\core\dxutmisc.cpp
; Line 565
	push	ebp
	mov	ebp, esp
	push	ecx
	mov	DWORD PTR [ebp-4], -858993460		; ccccccccH
; Line 566
	mov	eax, DWORD PTR _uMsg$[ebp]
	mov	DWORD PTR tv64[ebp], eax
	cmp	DWORD PTR tv64[ebp], 255		; 000000ffH
	ja	SHORT $LN220@DXUTTraceW
	cmp	DWORD PTR tv64[ebp], 255		; 000000ffH
	je	$LN125@DXUTTraceW
	cmp	DWORD PTR tv64[ebp], 173		; 000000adH
	ja	$LN1@DXUTTraceW
	mov	ecx, DWORD PTR tv64[ebp]
	movzx	edx, BYTE PTR $LN224@DXUTTraceW[ecx]
	jmp	DWORD PTR $LN228@DXUTTraceW[edx*4]
$LN220@DXUTTraceW:
	cmp	DWORD PTR tv64[ebp], 512		; 00000200H
	ja	SHORT $LN221@DXUTTraceW
	cmp	DWORD PTR tv64[ebp], 512		; 00000200H
	je	$LN85@DXUTTraceW
	mov	eax, DWORD PTR tv64[ebp]
	sub	eax, 256				; 00000100H
	mov	DWORD PTR tv64[ebp], eax
	cmp	DWORD PTR tv64[ebp], 225		; 000000e1H
	ja	$LN1@DXUTTraceW
	mov	ecx, DWORD PTR tv64[ebp]
	movzx	edx, BYTE PTR $LN225@DXUTTraceW[ecx]
	jmp	DWORD PTR $LN229@DXUTTraceW[edx*4]
$LN221@DXUTTraceW:
	cmp	DWORD PTR tv64[ebp], 768		; 00000300H
	ja	SHORT $LN222@DXUTTraceW
	cmp	DWORD PTR tv64[ebp], 768		; 00000300H
	je	$LN31@DXUTTraceW
	mov	eax, DWORD PTR tv64[ebp]
	sub	eax, 513				; 00000201H
	mov	DWORD PTR tv64[ebp], eax
	cmp	DWORD PTR tv64[ebp], 222		; 000000deH
	ja	$LN1@DXUTTraceW
	mov	ecx, DWORD PTR tv64[ebp]
	movzx	edx, BYTE PTR $LN226@DXUTTraceW[ecx]
	jmp	DWORD PTR $LN230@DXUTTraceW[edx*4]
$LN222@DXUTTraceW:
	cmp	DWORD PTR tv64[ebp], 32768		; 00008000H
	ja	SHORT $LN223@DXUTTraceW
	cmp	DWORD PTR tv64[ebp], 32768		; 00008000H
	je	$LN2@DXUTTraceW
	mov	eax, DWORD PTR tv64[ebp]
	sub	eax, 769				; 00000301H
	mov	DWORD PTR tv64[ebp], eax
	cmp	DWORD PTR tv64[ebp], 142		; 0000008eH
	ja	$LN1@DXUTTraceW
	mov	ecx, DWORD PTR tv64[ebp]
	movzx	edx, BYTE PTR $LN227@DXUTTraceW[ecx]
	jmp	DWORD PTR $LN231@DXUTTraceW[edx*4]
$LN223@DXUTTraceW:
	jmp	$LN1@DXUTTraceW
$LN215@DXUTTraceW:
; Line 568
	mov	eax, OFFSET $SG152512
	jmp	$LN218@DXUTTraceW
$LN214@DXUTTraceW:
; Line 569
	mov	eax, OFFSET $SG152514
	jmp	$LN218@DXUTTraceW
$LN213@DXUTTraceW:
; Line 570
	mov	eax, OFFSET $SG152516
	jmp	$LN218@DXUTTraceW
$LN212@DXUTTraceW:
; Line 571
	mov	eax, OFFSET $SG152518
	jmp	$LN218@DXUTTraceW
$LN211@DXUTTraceW:
; Line 572
	mov	eax, OFFSET $SG152520
	jmp	$LN218@DXUTTraceW
$LN210@DXUTTraceW:
; Line 573
	mov	eax, OFFSET $SG152522
	jmp	$LN218@DXUTTraceW
$LN209@DXUTTraceW:
; Line 574
	mov	eax, OFFSET $SG152524
	jmp	$LN218@DXUTTraceW
$LN208@DXUTTraceW:
; Line 575
	mov	eax, OFFSET $SG152526
	jmp	$LN218@DXUTTraceW
$LN207@DXUTTraceW:
; Line 576
	mov	eax, OFFSET $SG152528
	jmp	$LN218@DXUTTraceW
$LN206@DXUTTraceW:
; Line 577
	mov	eax, OFFSET $SG152530
	jmp	$LN218@DXUTTraceW
$LN205@DXUTTraceW:
; Line 578
	mov	eax, OFFSET $SG152532
	jmp	$LN218@DXUTTraceW
$LN204@DXUTTraceW:
; Line 579
	mov	eax, OFFSET $SG152534
	jmp	$LN218@DXUTTraceW
$LN203@DXUTTraceW:
; Line 580
	mov	eax, OFFSET $SG152536
	jmp	$LN218@DXUTTraceW
$LN202@DXUTTraceW:
; Line 581
	mov	eax, OFFSET $SG152538
	jmp	$LN218@DXUTTraceW
$LN201@DXUTTraceW:
; Line 582
	mov	eax, OFFSET $SG152540
	jmp	$LN218@DXUTTraceW
$LN200@DXUTTraceW:
; Line 583
	mov	eax, OFFSET $SG152542
	jmp	$LN218@DXUTTraceW
$LN199@DXUTTraceW:
; Line 584
	mov	eax, OFFSET $SG152544
	jmp	$LN218@DXUTTraceW
$LN198@DXUTTraceW:
; Line 585
	mov	eax, OFFSET $SG152546
	jmp	$LN218@DXUTTraceW
$LN197@DXUTTraceW:
; Line 586
	mov	eax, OFFSET $SG152548
	jmp	$LN218@DXUTTraceW
$LN196@DXUTTraceW:
; Line 587
	mov	eax, OFFSET $SG152550
	jmp	$LN218@DXUTTraceW
$LN195@DXUTTraceW:
; Line 588
	mov	eax, OFFSET $SG152552
	jmp	$LN218@DXUTTraceW
$LN194@DXUTTraceW:
; Line 589
	mov	eax, OFFSET $SG152554
	jmp	$LN218@DXUTTraceW
$LN193@DXUTTraceW:
; Line 590
	mov	eax, OFFSET $SG152556
	jmp	$LN218@DXUTTraceW
$LN192@DXUTTraceW:
; Line 591
	mov	eax, OFFSET $SG152558
	jmp	$LN218@DXUTTraceW
$LN191@DXUTTraceW:
; Line 592
	mov	eax, OFFSET $SG152560
	jmp	$LN218@DXUTTraceW
$LN190@DXUTTraceW:
; Line 593
	mov	eax, OFFSET $SG152562
	jmp	$LN218@DXUTTraceW
$LN189@DXUTTraceW:
; Line 594
	mov	eax, OFFSET $SG152564
	jmp	$LN218@DXUTTraceW
$LN188@DXUTTraceW:
; Line 595
	mov	eax, OFFSET $SG152566
	jmp	$LN218@DXUTTraceW
$LN187@DXUTTraceW:
; Line 596
	mov	eax, OFFSET $SG152568
	jmp	$LN218@DXUTTraceW
$LN186@DXUTTraceW:
; Line 597
	mov	eax, OFFSET $SG152570
	jmp	$LN218@DXUTTraceW
$LN185@DXUTTraceW:
; Line 598
	mov	eax, OFFSET $SG152572
	jmp	$LN218@DXUTTraceW
$LN184@DXUTTraceW:
; Line 599
	mov	eax, OFFSET $SG152574
	jmp	$LN218@DXUTTraceW
$LN183@DXUTTraceW:
; Line 600
	mov	eax, OFFSET $SG152576
	jmp	$LN218@DXUTTraceW
$LN182@DXUTTraceW:
; Line 601
	mov	eax, OFFSET $SG152578
	jmp	$LN218@DXUTTraceW
$LN181@DXUTTraceW:
; Line 602
	mov	eax, OFFSET $SG152580
	jmp	$LN218@DXUTTraceW
$LN180@DXUTTraceW:
; Line 603
	mov	eax, OFFSET $SG152582
	jmp	$LN218@DXUTTraceW
$LN179@DXUTTraceW:
; Line 604
	mov	eax, OFFSET $SG152584
	jmp	$LN218@DXUTTraceW
$LN178@DXUTTraceW:
; Line 605
	mov	eax, OFFSET $SG152586
	jmp	$LN218@DXUTTraceW
$LN177@DXUTTraceW:
; Line 606
	mov	eax, OFFSET $SG152588
	jmp	$LN218@DXUTTraceW
$LN176@DXUTTraceW:
; Line 607
	mov	eax, OFFSET $SG152590
	jmp	$LN218@DXUTTraceW
$LN175@DXUTTraceW:
; Line 608
	mov	eax, OFFSET $SG152592
	jmp	$LN218@DXUTTraceW
$LN174@DXUTTraceW:
; Line 609
	mov	eax, OFFSET $SG152594
	jmp	$LN218@DXUTTraceW
$LN173@DXUTTraceW:
; Line 610
	mov	eax, OFFSET $SG152596
	jmp	$LN218@DXUTTraceW
$LN172@DXUTTraceW:
; Line 611
	mov	eax, OFFSET $SG152598
	jmp	$LN218@DXUTTraceW
$LN171@DXUTTraceW:
; Line 612
	mov	eax, OFFSET $SG152600
	jmp	$LN218@DXUTTraceW
$LN170@DXUTTraceW:
; Line 613
	mov	eax, OFFSET $SG152602
	jmp	$LN218@DXUTTraceW
$LN169@DXUTTraceW:
; Line 614
	mov	eax, OFFSET $SG152604
	jmp	$LN218@DXUTTraceW
$LN168@DXUTTraceW:
; Line 615
	mov	eax, OFFSET $SG152606
	jmp	$LN218@DXUTTraceW
$LN167@DXUTTraceW:
; Line 616
	mov	eax, OFFSET $SG152608
	jmp	$LN218@DXUTTraceW
$LN166@DXUTTraceW:
; Line 617
	mov	eax, OFFSET $SG152610
	jmp	$LN218@DXUTTraceW
$LN165@DXUTTraceW:
; Line 618
	mov	eax, OFFSET $SG152612
	jmp	$LN218@DXUTTraceW
$LN164@DXUTTraceW:
; Line 619
	mov	eax, OFFSET $SG152614
	jmp	$LN218@DXUTTraceW
$LN163@DXUTTraceW:
; Line 620
	mov	eax, OFFSET $SG152616
	jmp	$LN218@DXUTTraceW
$LN162@DXUTTraceW:
; Line 621
	mov	eax, OFFSET $SG152618
	jmp	$LN218@DXUTTraceW
$LN161@DXUTTraceW:
; Line 622
	mov	eax, OFFSET $SG152620
	jmp	$LN218@DXUTTraceW
$LN160@DXUTTraceW:
; Line 623
	mov	eax, OFFSET $SG152622
	jmp	$LN218@DXUTTraceW
$LN159@DXUTTraceW:
; Line 624
	mov	eax, OFFSET $SG152624
	jmp	$LN218@DXUTTraceW
$LN158@DXUTTraceW:
; Line 625
	mov	eax, OFFSET $SG152626
	jmp	$LN218@DXUTTraceW
$LN157@DXUTTraceW:
; Line 626
	mov	eax, OFFSET $SG152628
	jmp	$LN218@DXUTTraceW
$LN156@DXUTTraceW:
; Line 627
	mov	eax, OFFSET $SG152630
	jmp	$LN218@DXUTTraceW
$LN155@DXUTTraceW:
; Line 628
	mov	eax, OFFSET $SG152632
	jmp	$LN218@DXUTTraceW
$LN154@DXUTTraceW:
; Line 629
	mov	eax, OFFSET $SG152634
	jmp	$LN218@DXUTTraceW
$LN153@DXUTTraceW:
; Line 630
	mov	eax, OFFSET $SG152636
	jmp	$LN218@DXUTTraceW
$LN152@DXUTTraceW:
; Line 631
	mov	eax, OFFSET $SG152638
	jmp	$LN218@DXUTTraceW
$LN151@DXUTTraceW:
; Line 632
	mov	eax, OFFSET $SG152640
	jmp	$LN218@DXUTTraceW
$LN150@DXUTTraceW:
; Line 633
	mov	eax, OFFSET $SG152642
	jmp	$LN218@DXUTTraceW
$LN149@DXUTTraceW:
; Line 634
	mov	eax, OFFSET $SG152644
	jmp	$LN218@DXUTTraceW
$LN148@DXUTTraceW:
; Line 635
	mov	eax, OFFSET $SG152646
	jmp	$LN218@DXUTTraceW
$LN147@DXUTTraceW:
; Line 636
	mov	eax, OFFSET $SG152648
	jmp	$LN218@DXUTTraceW
$LN146@DXUTTraceW:
; Line 637
	mov	eax, OFFSET $SG152650
	jmp	$LN218@DXUTTraceW
$LN145@DXUTTraceW:
; Line 638
	mov	eax, OFFSET $SG152652
	jmp	$LN218@DXUTTraceW
$LN144@DXUTTraceW:
; Line 639
	mov	eax, OFFSET $SG152654
	jmp	$LN218@DXUTTraceW
$LN143@DXUTTraceW:
; Line 640
	mov	eax, OFFSET $SG152656
	jmp	$LN218@DXUTTraceW
$LN142@DXUTTraceW:
; Line 641
	mov	eax, OFFSET $SG152658
	jmp	$LN218@DXUTTraceW
$LN141@DXUTTraceW:
; Line 642
	mov	eax, OFFSET $SG152660
	jmp	$LN218@DXUTTraceW
$LN140@DXUTTraceW:
; Line 643
	mov	eax, OFFSET $SG152662
	jmp	$LN218@DXUTTraceW
$LN139@DXUTTraceW:
; Line 644
	mov	eax, OFFSET $SG152664
	jmp	$LN218@DXUTTraceW
$LN138@DXUTTraceW:
; Line 645
	mov	eax, OFFSET $SG152666
	jmp	$LN218@DXUTTraceW
$LN137@DXUTTraceW:
; Line 646
	mov	eax, OFFSET $SG152668
	jmp	$LN218@DXUTTraceW
$LN136@DXUTTraceW:
; Line 647
	mov	eax, OFFSET $SG152670
	jmp	$LN218@DXUTTraceW
$LN135@DXUTTraceW:
; Line 648
	mov	eax, OFFSET $SG152672
	jmp	$LN218@DXUTTraceW
$LN134@DXUTTraceW:
; Line 649
	mov	eax, OFFSET $SG152674
	jmp	$LN218@DXUTTraceW
$LN133@DXUTTraceW:
; Line 650
	mov	eax, OFFSET $SG152676
	jmp	$LN218@DXUTTraceW
$LN132@DXUTTraceW:
; Line 651
	mov	eax, OFFSET $SG152678
	jmp	$LN218@DXUTTraceW
$LN131@DXUTTraceW:
; Line 652
	mov	eax, OFFSET $SG152680
	jmp	$LN218@DXUTTraceW
$LN130@DXUTTraceW:
; Line 653
	mov	eax, OFFSET $SG152682
	jmp	$LN218@DXUTTraceW
$LN129@DXUTTraceW:
; Line 654
	mov	eax, OFFSET $SG152684
	jmp	$LN218@DXUTTraceW
$LN128@DXUTTraceW:
; Line 655
	mov	eax, OFFSET $SG152686
	jmp	$LN218@DXUTTraceW
$LN127@DXUTTraceW:
; Line 656
	mov	eax, OFFSET $SG152688
	jmp	$LN218@DXUTTraceW
$LN126@DXUTTraceW:
; Line 657
	mov	eax, OFFSET $SG152690
	jmp	$LN218@DXUTTraceW
$LN125@DXUTTraceW:
; Line 658
	mov	eax, OFFSET $SG152692
	jmp	$LN218@DXUTTraceW
$LN124@DXUTTraceW:
; Line 659
	mov	eax, OFFSET $SG152694
	jmp	$LN218@DXUTTraceW
$LN123@DXUTTraceW:
; Line 660
	mov	eax, OFFSET $SG152696
	jmp	$LN218@DXUTTraceW
$LN122@DXUTTraceW:
; Line 661
	mov	eax, OFFSET $SG152698
	jmp	$LN218@DXUTTraceW
$LN121@DXUTTraceW:
; Line 662
	mov	eax, OFFSET $SG152700
	jmp	$LN218@DXUTTraceW
$LN120@DXUTTraceW:
; Line 663
	mov	eax, OFFSET $SG152702
	jmp	$LN218@DXUTTraceW
$LN119@DXUTTraceW:
; Line 664
	mov	eax, OFFSET $SG152704
	jmp	$LN218@DXUTTraceW
$LN118@DXUTTraceW:
; Line 665
	mov	eax, OFFSET $SG152706
	jmp	$LN218@DXUTTraceW
$LN117@DXUTTraceW:
; Line 666
	mov	eax, OFFSET $SG152708
	jmp	$LN218@DXUTTraceW
$LN116@DXUTTraceW:
; Line 667
	mov	eax, OFFSET $SG152710
	jmp	$LN218@DXUTTraceW
$LN115@DXUTTraceW:
; Line 668
	mov	eax, OFFSET $SG152712
	jmp	$LN218@DXUTTraceW
$LN114@DXUTTraceW:
; Line 669
	mov	eax, OFFSET $SG152714
	jmp	$LN218@DXUTTraceW
$LN113@DXUTTraceW:
; Line 670
	mov	eax, OFFSET $SG152716
	jmp	$LN218@DXUTTraceW
$LN112@DXUTTraceW:
; Line 671
	mov	eax, OFFSET $SG152718
	jmp	$LN218@DXUTTraceW
$LN111@DXUTTraceW:
; Line 672
	mov	eax, OFFSET $SG152720
	jmp	$LN218@DXUTTraceW
$LN110@DXUTTraceW:
; Line 673
	mov	eax, OFFSET $SG152722
	jmp	$LN218@DXUTTraceW
$LN109@DXUTTraceW:
; Line 674
	mov	eax, OFFSET $SG152724
	jmp	$LN218@DXUTTraceW
$LN108@DXUTTraceW:
; Line 675
	mov	eax, OFFSET $SG152726
	jmp	$LN218@DXUTTraceW
$LN107@DXUTTraceW:
; Line 676
	mov	eax, OFFSET $SG152728
	jmp	$LN218@DXUTTraceW
$LN106@DXUTTraceW:
; Line 677
	mov	eax, OFFSET $SG152730
	jmp	$LN218@DXUTTraceW
$LN105@DXUTTraceW:
; Line 678
	mov	eax, OFFSET $SG152732
	jmp	$LN218@DXUTTraceW
$LN104@DXUTTraceW:
; Line 679
	mov	eax, OFFSET $SG152734
	jmp	$LN218@DXUTTraceW
$LN103@DXUTTraceW:
; Line 680
	mov	eax, OFFSET $SG152736
	jmp	$LN218@DXUTTraceW
$LN102@DXUTTraceW:
; Line 681
	mov	eax, OFFSET $SG152738
	jmp	$LN218@DXUTTraceW
$LN101@DXUTTraceW:
; Line 682
	mov	eax, OFFSET $SG152740
	jmp	$LN218@DXUTTraceW
$LN100@DXUTTraceW:
; Line 683
	mov	eax, OFFSET $SG152742
	jmp	$LN218@DXUTTraceW
$LN99@DXUTTraceW:
; Line 684
	mov	eax, OFFSET $SG152744
	jmp	$LN218@DXUTTraceW
$LN98@DXUTTraceW:
; Line 685
	mov	eax, OFFSET $SG152746
	jmp	$LN218@DXUTTraceW
$LN97@DXUTTraceW:
; Line 686
	mov	eax, OFFSET $SG152748
	jmp	$LN218@DXUTTraceW
$LN96@DXUTTraceW:
; Line 687
	mov	eax, OFFSET $SG152750
	jmp	$LN218@DXUTTraceW
$LN95@DXUTTraceW:
; Line 688
	mov	eax, OFFSET $SG152752
	jmp	$LN218@DXUTTraceW
$LN94@DXUTTraceW:
; Line 689
	mov	eax, OFFSET $SG152754
	jmp	$LN218@DXUTTraceW
$LN93@DXUTTraceW:
; Line 690
	mov	eax, OFFSET $SG152756
	jmp	$LN218@DXUTTraceW
$LN92@DXUTTraceW:
; Line 691
	mov	eax, OFFSET $SG152758
	jmp	$LN218@DXUTTraceW
$LN91@DXUTTraceW:
; Line 692
	mov	eax, OFFSET $SG152760
	jmp	$LN218@DXUTTraceW
$LN90@DXUTTraceW:
; Line 693
	mov	eax, OFFSET $SG152762
	jmp	$LN218@DXUTTraceW
$LN89@DXUTTraceW:
; Line 694
	mov	eax, OFFSET $SG152764
	jmp	$LN218@DXUTTraceW
$LN88@DXUTTraceW:
; Line 695
	mov	eax, OFFSET $SG152766
	jmp	$LN218@DXUTTraceW
$LN87@DXUTTraceW:
; Line 696
	mov	eax, OFFSET $SG152768
	jmp	$LN218@DXUTTraceW
$LN86@DXUTTraceW:
; Line 697
	mov	eax, OFFSET $SG152770
	jmp	$LN218@DXUTTraceW
$LN85@DXUTTraceW:
; Line 698
	mov	eax, OFFSET $SG152772
	jmp	$LN218@DXUTTraceW
$LN84@DXUTTraceW:
; Line 699
	mov	eax, OFFSET $SG152774
	jmp	$LN218@DXUTTraceW
$LN83@DXUTTraceW:
; Line 700
	mov	eax, OFFSET $SG152776
	jmp	$LN218@DXUTTraceW
$LN82@DXUTTraceW:
; Line 701
	mov	eax, OFFSET $SG152778
	jmp	$LN218@DXUTTraceW
$LN81@DXUTTraceW:
; Line 702
	mov	eax, OFFSET $SG152780
	jmp	$LN218@DXUTTraceW
$LN80@DXUTTraceW:
; Line 703
	mov	eax, OFFSET $SG152782
	jmp	$LN218@DXUTTraceW
$LN79@DXUTTraceW:
; Line 704
	mov	eax, OFFSET $SG152784
	jmp	$LN218@DXUTTraceW
$LN78@DXUTTraceW:
; Line 705
	mov	eax, OFFSET $SG152786
	jmp	$LN218@DXUTTraceW
$LN77@DXUTTraceW:
; Line 706
	mov	eax, OFFSET $SG152788
	jmp	$LN218@DXUTTraceW
$LN76@DXUTTraceW:
; Line 707
	mov	eax, OFFSET $SG152790
	jmp	$LN218@DXUTTraceW
$LN75@DXUTTraceW:
; Line 708
	mov	eax, OFFSET $SG152792
	jmp	$LN218@DXUTTraceW
$LN74@DXUTTraceW:
; Line 709
	mov	eax, OFFSET $SG152794
	jmp	$LN218@DXUTTraceW
$LN73@DXUTTraceW:
; Line 710
	mov	eax, OFFSET $SG152796
	jmp	$LN218@DXUTTraceW
$LN72@DXUTTraceW:
; Line 711
	mov	eax, OFFSET $SG152798
	jmp	$LN218@DXUTTraceW
$LN71@DXUTTraceW:
; Line 712
	mov	eax, OFFSET $SG152800
	jmp	$LN218@DXUTTraceW
$LN70@DXUTTraceW:
; Line 713
	mov	eax, OFFSET $SG152802
	jmp	$LN218@DXUTTraceW
$LN69@DXUTTraceW:
; Line 714
	mov	eax, OFFSET $SG152804
	jmp	$LN218@DXUTTraceW
$LN68@DXUTTraceW:
; Line 715
	mov	eax, OFFSET $SG152806
	jmp	$LN218@DXUTTraceW
$LN67@DXUTTraceW:
; Line 716
	mov	eax, OFFSET $SG152808
	jmp	$LN218@DXUTTraceW
$LN66@DXUTTraceW:
; Line 717
	mov	eax, OFFSET $SG152810
	jmp	$LN218@DXUTTraceW
$LN65@DXUTTraceW:
; Line 718
	mov	eax, OFFSET $SG152812
	jmp	$LN218@DXUTTraceW
$LN64@DXUTTraceW:
; Line 719
	mov	eax, OFFSET $SG152814
	jmp	$LN218@DXUTTraceW
$LN63@DXUTTraceW:
; Line 720
	mov	eax, OFFSET $SG152816
	jmp	$LN218@DXUTTraceW
$LN62@DXUTTraceW:
; Line 721
	mov	eax, OFFSET $SG152818
	jmp	$LN218@DXUTTraceW
$LN61@DXUTTraceW:
; Line 722
	mov	eax, OFFSET $SG152820
	jmp	$LN218@DXUTTraceW
$LN60@DXUTTraceW:
; Line 723
	mov	eax, OFFSET $SG152822
	jmp	$LN218@DXUTTraceW
$LN59@DXUTTraceW:
; Line 724
	mov	eax, OFFSET $SG152824
	jmp	$LN218@DXUTTraceW
$LN58@DXUTTraceW:
; Line 725
	mov	eax, OFFSET $SG152826
	jmp	$LN218@DXUTTraceW
$LN57@DXUTTraceW:
; Line 726
	mov	eax, OFFSET $SG152828
	jmp	$LN218@DXUTTraceW
$LN56@DXUTTraceW:
; Line 727
	mov	eax, OFFSET $SG152830
	jmp	$LN218@DXUTTraceW
$LN55@DXUTTraceW:
; Line 728
	mov	eax, OFFSET $SG152832
	jmp	$LN218@DXUTTraceW
$LN54@DXUTTraceW:
; Line 729
	mov	eax, OFFSET $SG152834
	jmp	$LN218@DXUTTraceW
$LN53@DXUTTraceW:
; Line 730
	mov	eax, OFFSET $SG152836
	jmp	$LN218@DXUTTraceW
$LN52@DXUTTraceW:
; Line 731
	mov	eax, OFFSET $SG152838
	jmp	$LN218@DXUTTraceW
$LN51@DXUTTraceW:
; Line 732
	mov	eax, OFFSET $SG152840
	jmp	$LN218@DXUTTraceW
$LN50@DXUTTraceW:
; Line 733
	mov	eax, OFFSET $SG152842
	jmp	$LN218@DXUTTraceW
$LN49@DXUTTraceW:
; Line 734
	mov	eax, OFFSET $SG152844
	jmp	$LN218@DXUTTraceW
$LN48@DXUTTraceW:
; Line 735
	mov	eax, OFFSET $SG152846
	jmp	$LN218@DXUTTraceW
$LN47@DXUTTraceW:
; Line 736
	mov	eax, OFFSET $SG152848
	jmp	$LN218@DXUTTraceW
$LN46@DXUTTraceW:
; Line 737
	mov	eax, OFFSET $SG152850
	jmp	$LN218@DXUTTraceW
$LN45@DXUTTraceW:
; Line 738
	mov	eax, OFFSET $SG152852
	jmp	$LN218@DXUTTraceW
$LN44@DXUTTraceW:
; Line 739
	mov	eax, OFFSET $SG152854
	jmp	$LN218@DXUTTraceW
$LN43@DXUTTraceW:
; Line 740
	mov	eax, OFFSET $SG152856
	jmp	$LN218@DXUTTraceW
$LN42@DXUTTraceW:
; Line 741
	mov	eax, OFFSET $SG152858
	jmp	$LN218@DXUTTraceW
$LN41@DXUTTraceW:
; Line 742
	mov	eax, OFFSET $SG152860
	jmp	$LN218@DXUTTraceW
$LN40@DXUTTraceW:
; Line 743
	mov	eax, OFFSET $SG152862
	jmp	$LN218@DXUTTraceW
$LN39@DXUTTraceW:
; Line 744
	mov	eax, OFFSET $SG152864
	jmp	$LN218@DXUTTraceW
$LN38@DXUTTraceW:
; Line 745
	mov	eax, OFFSET $SG152866
	jmp	$LN218@DXUTTraceW
$LN37@DXUTTraceW:
; Line 746
	mov	eax, OFFSET $SG152868
	jmp	$LN218@DXUTTraceW
$LN36@DXUTTraceW:
; Line 747
	mov	eax, OFFSET $SG152870
	jmp	$LN218@DXUTTraceW
$LN35@DXUTTraceW:
; Line 748
	mov	eax, OFFSET $SG152872
	jmp	$LN218@DXUTTraceW
$LN34@DXUTTraceW:
; Line 749
	mov	eax, OFFSET $SG152874
	jmp	$LN218@DXUTTraceW
$LN33@DXUTTraceW:
; Line 750
	mov	eax, OFFSET $SG152876
	jmp	$LN218@DXUTTraceW
$LN32@DXUTTraceW:
; Line 751
	mov	eax, OFFSET $SG152878
	jmp	$LN218@DXUTTraceW
$LN31@DXUTTraceW:
; Line 752
	mov	eax, OFFSET $SG152880
	jmp	$LN218@DXUTTraceW
$LN30@DXUTTraceW:
; Line 753
	mov	eax, OFFSET $SG152882
	jmp	$LN218@DXUTTraceW
$LN29@DXUTTraceW:
; Line 754
	mov	eax, OFFSET $SG152884
	jmp	$LN218@DXUTTraceW
$LN28@DXUTTraceW:
; Line 755
	mov	eax, OFFSET $SG152886
	jmp	$LN218@DXUTTraceW
$LN27@DXUTTraceW:
; Line 756
	mov	eax, OFFSET $SG152888
	jmp	$LN218@DXUTTraceW
$LN26@DXUTTraceW:
; Line 757
	mov	eax, OFFSET $SG152890
	jmp	$LN218@DXUTTraceW
$LN25@DXUTTraceW:
; Line 758
	mov	eax, OFFSET $SG152892
	jmp	$LN218@DXUTTraceW
$LN24@DXUTTraceW:
; Line 759
	mov	eax, OFFSET $SG152894
	jmp	$LN218@DXUTTraceW
$LN23@DXUTTraceW:
; Line 760
	mov	eax, OFFSET $SG152896
	jmp	$LN218@DXUTTraceW
$LN22@DXUTTraceW:
; Line 761
	mov	eax, OFFSET $SG152898
	jmp	$LN218@DXUTTraceW
$LN21@DXUTTraceW:
; Line 762
	mov	eax, OFFSET $SG152900
	jmp	$LN218@DXUTTraceW
$LN20@DXUTTraceW:
; Line 763
	mov	eax, OFFSET $SG152902
	jmp	$LN218@DXUTTraceW
$LN19@DXUTTraceW:
; Line 764
	mov	eax, OFFSET $SG152904
	jmp	SHORT $LN218@DXUTTraceW
$LN18@DXUTTraceW:
; Line 765
	mov	eax, OFFSET $SG152906
	jmp	SHORT $LN218@DXUTTraceW
$LN17@DXUTTraceW:
; Line 766
	mov	eax, OFFSET $SG152908
	jmp	SHORT $LN218@DXUTTraceW
$LN16@DXUTTraceW:
; Line 767
	mov	eax, OFFSET $SG152910
	jmp	SHORT $LN218@DXUTTraceW
$LN15@DXUTTraceW:
; Line 768
	mov	eax, OFFSET $SG152912
	jmp	SHORT $LN218@DXUTTraceW
$LN14@DXUTTraceW:
; Line 769
	mov	eax, OFFSET $SG152914
	jmp	SHORT $LN218@DXUTTraceW
$LN13@DXUTTraceW:
; Line 770
	mov	eax, OFFSET $SG152916
	jmp	SHORT $LN218@DXUTTraceW
$LN12@DXUTTraceW:
; Line 771
	mov	eax, OFFSET $SG152918
	jmp	SHORT $LN218@DXUTTraceW
$LN11@DXUTTraceW:
; Line 772
	mov	eax, OFFSET $SG152920
	jmp	SHORT $LN218@DXUTTraceW
$LN10@DXUTTraceW:
; Line 773
	mov	eax, OFFSET $SG152922
	jmp	SHORT $LN218@DXUTTraceW
$LN9@DXUTTraceW:
; Line 774
	mov	eax, OFFSET $SG152924
	jmp	SHORT $LN218@DXUTTraceW
$LN8@DXUTTraceW:
; Line 775
	mov	eax, OFFSET $SG152926
	jmp	SHORT $LN218@DXUTTraceW
$LN7@DXUTTraceW:
; Line 776
	mov	eax, OFFSET $SG152928
	jmp	SHORT $LN218@DXUTTraceW
$LN6@DXUTTraceW:
; Line 777
	mov	eax, OFFSET $SG152930
	jmp	SHORT $LN218@DXUTTraceW
$LN5@DXUTTraceW:
; Line 778
	mov	eax, OFFSET $SG152932
	jmp	SHORT $LN218@DXUTTraceW
$LN4@DXUTTraceW:
; Line 779
	mov	eax, OFFSET $SG152934
	jmp	SHORT $LN218@DXUTTraceW
$LN3@DXUTTraceW:
; Line 780
	mov	eax, OFFSET $SG152936
	jmp	SHORT $LN218@DXUTTraceW
$LN2@DXUTTraceW:
; Line 781
	mov	eax, OFFSET $SG152938
	jmp	SHORT $LN218@DXUTTraceW
$LN1@DXUTTraceW:
; Line 783
	mov	eax, OFFSET $SG152940
$LN218@DXUTTraceW:
; Line 785
	mov	esp, ebp
	pop	ebp
	ret	4
$LN228@DXUTTraceW:
	DD	$LN215@DXUTTraceW
	DD	$LN214@DXUTTraceW
	DD	$LN213@DXUTTraceW
	DD	$LN212@DXUTTraceW
	DD	$LN211@DXUTTraceW
	DD	$LN210@DXUTTraceW
	DD	$LN209@DXUTTraceW
	DD	$LN208@DXUTTraceW
	DD	$LN207@DXUTTraceW
	DD	$LN206@DXUTTraceW
	DD	$LN205@DXUTTraceW
	DD	$LN204@DXUTTraceW
	DD	$LN203@DXUTTraceW
	DD	$LN202@DXUTTraceW
	DD	$LN201@DXUTTraceW
	DD	$LN200@DXUTTraceW
	DD	$LN197@DXUTTraceW
	DD	$LN199@DXUTTraceW
	DD	$LN196@DXUTTraceW
	DD	$LN195@DXUTTraceW
	DD	$LN198@DXUTTraceW
	DD	$LN194@DXUTTraceW
	DD	$LN193@DXUTTraceW
	DD	$LN192@DXUTTraceW
	DD	$LN191@DXUTTraceW
	DD	$LN190@DXUTTraceW
	DD	$LN189@DXUTTraceW
	DD	$LN188@DXUTTraceW
	DD	$LN187@DXUTTraceW
	DD	$LN186@DXUTTraceW
	DD	$LN185@DXUTTraceW
	DD	$LN184@DXUTTraceW
	DD	$LN183@DXUTTraceW
	DD	$LN182@DXUTTraceW
	DD	$LN181@DXUTTraceW
	DD	$LN180@DXUTTraceW
	DD	$LN179@DXUTTraceW
	DD	$LN178@DXUTTraceW
	DD	$LN177@DXUTTraceW
	DD	$LN176@DXUTTraceW
	DD	$LN175@DXUTTraceW
	DD	$LN174@DXUTTraceW
	DD	$LN173@DXUTTraceW
	DD	$LN172@DXUTTraceW
	DD	$LN171@DXUTTraceW
	DD	$LN170@DXUTTraceW
	DD	$LN169@DXUTTraceW
	DD	$LN168@DXUTTraceW
	DD	$LN167@DXUTTraceW
	DD	$LN166@DXUTTraceW
	DD	$LN165@DXUTTraceW
	DD	$LN164@DXUTTraceW
	DD	$LN163@DXUTTraceW
	DD	$LN162@DXUTTraceW
	DD	$LN161@DXUTTraceW
	DD	$LN160@DXUTTraceW
	DD	$LN159@DXUTTraceW
	DD	$LN158@DXUTTraceW
	DD	$LN157@DXUTTraceW
	DD	$LN156@DXUTTraceW
	DD	$LN155@DXUTTraceW
	DD	$LN154@DXUTTraceW
	DD	$LN153@DXUTTraceW
	DD	$LN152@DXUTTraceW
	DD	$LN151@DXUTTraceW
	DD	$LN150@DXUTTraceW
	DD	$LN149@DXUTTraceW
	DD	$LN148@DXUTTraceW
	DD	$LN147@DXUTTraceW
	DD	$LN146@DXUTTraceW
	DD	$LN145@DXUTTraceW
	DD	$LN144@DXUTTraceW
	DD	$LN143@DXUTTraceW
	DD	$LN142@DXUTTraceW
	DD	$LN141@DXUTTraceW
	DD	$LN140@DXUTTraceW
	DD	$LN139@DXUTTraceW
	DD	$LN138@DXUTTraceW
	DD	$LN137@DXUTTraceW
	DD	$LN136@DXUTTraceW
	DD	$LN135@DXUTTraceW
	DD	$LN134@DXUTTraceW
	DD	$LN133@DXUTTraceW
	DD	$LN132@DXUTTraceW
	DD	$LN131@DXUTTraceW
	DD	$LN130@DXUTTraceW
	DD	$LN129@DXUTTraceW
	DD	$LN128@DXUTTraceW
	DD	$LN127@DXUTTraceW
	DD	$LN126@DXUTTraceW
	DD	$LN1@DXUTTraceW
$LN224@DXUTTraceW:
	DB	0
	DB	1
	DB	2
	DB	3
	DB	90					; 0000005aH
	DB	4
	DB	5
	DB	6
	DB	7
	DB	90					; 0000005aH
	DB	8
	DB	9
	DB	10					; 0000000aH
	DB	11					; 0000000bH
	DB	12					; 0000000cH
	DB	13					; 0000000dH
	DB	14					; 0000000eH
	DB	15					; 0000000fH
	DB	16					; 00000010H
	DB	17					; 00000011H
	DB	18					; 00000012H
	DB	19					; 00000013H
	DB	20					; 00000014H
	DB	90					; 0000005aH
	DB	21					; 00000015H
	DB	90					; 0000005aH
	DB	22					; 00000016H
	DB	23					; 00000017H
	DB	24					; 00000018H
	DB	25					; 00000019H
	DB	26					; 0000001aH
	DB	27					; 0000001bH
	DB	28					; 0000001cH
	DB	29					; 0000001dH
	DB	30					; 0000001eH
	DB	31					; 0000001fH
	DB	32					; 00000020H
	DB	90					; 0000005aH
	DB	33					; 00000021H
	DB	34					; 00000022H
	DB	35					; 00000023H
	DB	90					; 0000005aH
	DB	36					; 00000024H
	DB	37					; 00000025H
	DB	38					; 00000026H
	DB	39					; 00000027H
	DB	40					; 00000028H
	DB	41					; 00000029H
	DB	42					; 0000002aH
	DB	43					; 0000002bH
	DB	44					; 0000002cH
	DB	45					; 0000002dH
	DB	90					; 0000005aH
	DB	90					; 0000005aH
	DB	90					; 0000005aH
	DB	46					; 0000002eH
	DB	90					; 0000005aH
	DB	47					; 0000002fH
	DB	90					; 0000005aH
	DB	90					; 0000005aH
	DB	90					; 0000005aH
	DB	48					; 00000030H
	DB	90					; 0000005aH
	DB	90					; 0000005aH
	DB	90					; 0000005aH
	DB	49					; 00000031H
	DB	90					; 0000005aH
	DB	90					; 0000005aH
	DB	50					; 00000032H
	DB	90					; 0000005aH
	DB	51					; 00000033H
	DB	52					; 00000034H
	DB	53					; 00000035H
	DB	90					; 0000005aH
	DB	54					; 00000036H
	DB	55					; 00000037H
	DB	90					; 0000005aH
	DB	90					; 0000005aH
	DB	56					; 00000038H
	DB	90					; 0000005aH
	DB	57					; 00000039H
	DB	58					; 0000003aH
	DB	59					; 0000003bH
	DB	60					; 0000003cH
	DB	61					; 0000003dH
	DB	62					; 0000003eH
	DB	90					; 0000005aH
	DB	90					; 0000005aH
	DB	90					; 0000005aH
	DB	90					; 0000005aH
	DB	90					; 0000005aH
	DB	90					; 0000005aH
	DB	90					; 0000005aH
	DB	90					; 0000005aH
	DB	90					; 0000005aH
	DB	90					; 0000005aH
	DB	90					; 0000005aH
	DB	90					; 0000005aH
	DB	90					; 0000005aH
	DB	90					; 0000005aH
	DB	90					; 0000005aH
	DB	90					; 0000005aH
	DB	90					; 0000005aH
	DB	90					; 0000005aH
	DB	90					; 0000005aH
	DB	90					; 0000005aH
	DB	90					; 0000005aH
	DB	90					; 0000005aH
	DB	90					; 0000005aH
	DB	90					; 0000005aH
	DB	90					; 0000005aH
	DB	90					; 0000005aH
	DB	90					; 0000005aH
	DB	90					; 0000005aH
	DB	90					; 0000005aH
	DB	90					; 0000005aH
	DB	90					; 0000005aH
	DB	90					; 0000005aH
	DB	90					; 0000005aH
	DB	90					; 0000005aH
	DB	90					; 0000005aH
	DB	90					; 0000005aH
	DB	90					; 0000005aH
	DB	63					; 0000003fH
	DB	64					; 00000040H
	DB	65					; 00000041H
	DB	66					; 00000042H
	DB	67					; 00000043H
	DB	68					; 00000044H
	DB	69					; 00000045H
	DB	70					; 00000046H
	DB	71					; 00000047H
	DB	72					; 00000048H
	DB	73					; 00000049H
	DB	74					; 0000004aH
	DB	75					; 0000004bH
	DB	76					; 0000004cH
	DB	90					; 0000005aH
	DB	90					; 0000005aH
	DB	90					; 0000005aH
	DB	90					; 0000005aH
	DB	90					; 0000005aH
	DB	90					; 0000005aH
	DB	90					; 0000005aH
	DB	90					; 0000005aH
	DB	90					; 0000005aH
	DB	90					; 0000005aH
	DB	90					; 0000005aH
	DB	90					; 0000005aH
	DB	90					; 0000005aH
	DB	90					; 0000005aH
	DB	90					; 0000005aH
	DB	90					; 0000005aH
	DB	90					; 0000005aH
	DB	90					; 0000005aH
	DB	90					; 0000005aH
	DB	90					; 0000005aH
	DB	90					; 0000005aH
	DB	90					; 0000005aH
	DB	90					; 0000005aH
	DB	77					; 0000004dH
	DB	78					; 0000004eH
	DB	79					; 0000004fH
	DB	80					; 00000050H
	DB	81					; 00000051H
	DB	82					; 00000052H
	DB	83					; 00000053H
	DB	84					; 00000054H
	DB	85					; 00000055H
	DB	86					; 00000056H
	DB	90					; 0000005aH
	DB	87					; 00000057H
	DB	88					; 00000058H
	DB	89					; 00000059H
	npad	2
$LN229@DXUTTraceW:
	DD	$LN124@DXUTTraceW
	DD	$LN123@DXUTTraceW
	DD	$LN122@DXUTTraceW
	DD	$LN121@DXUTTraceW
	DD	$LN120@DXUTTraceW
	DD	$LN119@DXUTTraceW
	DD	$LN118@DXUTTraceW
	DD	$LN117@DXUTTraceW
	DD	$LN116@DXUTTraceW
	DD	$LN115@DXUTTraceW
	DD	$LN114@DXUTTraceW
	DD	$LN113@DXUTTraceW
	DD	$LN112@DXUTTraceW
	DD	$LN111@DXUTTraceW
	DD	$LN110@DXUTTraceW
	DD	$LN109@DXUTTraceW
	DD	$LN108@DXUTTraceW
	DD	$LN107@DXUTTraceW
	DD	$LN106@DXUTTraceW
	DD	$LN105@DXUTTraceW
	DD	$LN104@DXUTTraceW
	DD	$LN103@DXUTTraceW
	DD	$LN102@DXUTTraceW
	DD	$LN101@DXUTTraceW
	DD	$LN100@DXUTTraceW
	DD	$LN99@DXUTTraceW
	DD	$LN98@DXUTTraceW
	DD	$LN97@DXUTTraceW
	DD	$LN96@DXUTTraceW
	DD	$LN95@DXUTTraceW
	DD	$LN94@DXUTTraceW
	DD	$LN93@DXUTTraceW
	DD	$LN92@DXUTTraceW
	DD	$LN91@DXUTTraceW
	DD	$LN90@DXUTTraceW
	DD	$LN89@DXUTTraceW
	DD	$LN88@DXUTTraceW
	DD	$LN87@DXUTTraceW
	DD	$LN86@DXUTTraceW
	DD	$LN1@DXUTTraceW
$LN225@DXUTTraceW:
	DB	0
	DB	1
	DB	2
	DB	3
	DB	4
	DB	5
	DB	6
	DB	7
	DB	39					; 00000027H
	DB	8
	DB	39					; 00000027H
	DB	39					; 00000027H
	DB	39					; 00000027H
	DB	9
	DB	10					; 0000000aH
	DB	11					; 0000000bH
	DB	12					; 0000000cH
	DB	13					; 0000000dH
	DB	14					; 0000000eH
	DB	15					; 0000000fH
	DB	16					; 00000010H
	DB	17					; 00000011H
	DB	18					; 00000012H
	DB	19					; 00000013H
	DB	39					; 00000027H
	DB	39					; 00000027H
	DB	39					; 00000027H
	DB	39					; 00000027H
	DB	39					; 00000027H
	DB	39					; 00000027H
	DB	39					; 00000027H
	DB	20					; 00000014H
	DB	21					; 00000015H
	DB	22					; 00000016H
	DB	23					; 00000017H
	DB	24					; 00000018H
	DB	25					; 00000019H
	DB	26					; 0000001aH
	DB	27					; 0000001bH
	DB	28					; 0000001cH
	DB	29					; 0000001dH
	DB	30					; 0000001eH
	DB	39					; 00000027H
	DB	39					; 00000027H
	DB	39					; 00000027H
	DB	39					; 00000027H
	DB	39					; 00000027H
	DB	39					; 00000027H
	DB	39					; 00000027H
	DB	39					; 00000027H
	DB	31					; 0000001fH
	DB	32					; 00000020H
	DB	33					; 00000021H
	DB	34					; 00000022H
	DB	35					; 00000023H
	DB	36					; 00000024H
	DB	37					; 00000025H
	DB	39					; 00000027H
	DB	39					; 00000027H
	DB	39					; 00000027H
	DB	39					; 00000027H
	DB	39					; 00000027H
	DB	39					; 00000027H
	DB	39					; 00000027H
	DB	39					; 00000027H
	DB	39					; 00000027H
	DB	39					; 00000027H
	DB	39					; 00000027H
	DB	39					; 00000027H
	DB	39					; 00000027H
	DB	39					; 00000027H
	DB	39					; 00000027H
	DB	39					; 00000027H
	DB	39					; 00000027H
	DB	39					; 00000027H
	DB	39					; 00000027H
	DB	39					; 00000027H
	DB	39					; 00000027H
	DB	39					; 00000027H
	DB	39					; 00000027H
	DB	39					; 00000027H
	DB	39					; 00000027H
	DB	39					; 00000027H
	DB	39					; 00000027H
	DB	39					; 00000027H
	DB	39					; 00000027H
	DB	39					; 00000027H
	DB	39					; 00000027H
	DB	39					; 00000027H
	DB	39					; 00000027H
	DB	39					; 00000027H
	DB	39					; 00000027H
	DB	39					; 00000027H
	DB	39					; 00000027H
	DB	39					; 00000027H
	DB	39					; 00000027H
	DB	39					; 00000027H
	DB	39					; 00000027H
	DB	39					; 00000027H
	DB	39					; 00000027H
	DB	39					; 00000027H
	DB	39					; 00000027H
	DB	39					; 00000027H
	DB	39					; 00000027H
	DB	39					; 00000027H
	DB	39					; 00000027H
	DB	39					; 00000027H
	DB	39					; 00000027H
	DB	39					; 00000027H
	DB	39					; 00000027H
	DB	39					; 00000027H
	DB	39					; 00000027H
	DB	39					; 00000027H
	DB	39					; 00000027H
	DB	39					; 00000027H
	DB	39					; 00000027H
	DB	39					; 00000027H
	DB	39					; 00000027H
	DB	39					; 00000027H
	DB	39					; 00000027H
	DB	39					; 00000027H
	DB	39					; 00000027H
	DB	39					; 00000027H
	DB	39					; 00000027H
	DB	39					; 00000027H
	DB	39					; 00000027H
	DB	39					; 00000027H
	DB	39					; 00000027H
	DB	39					; 00000027H
	DB	39					; 00000027H
	DB	39					; 00000027H
	DB	39					; 00000027H
	DB	39					; 00000027H
	DB	39					; 00000027H
	DB	39					; 00000027H
	DB	39					; 00000027H
	DB	39					; 00000027H
	DB	39					; 00000027H
	DB	39					; 00000027H
	DB	39					; 00000027H
	DB	39					; 00000027H
	DB	39					; 00000027H
	DB	39					; 00000027H
	DB	39					; 00000027H
	DB	39					; 00000027H
	DB	39					; 00000027H
	DB	39					; 00000027H
	DB	39					; 00000027H
	DB	39					; 00000027H
	DB	39					; 00000027H
	DB	39					; 00000027H
	DB	39					; 00000027H
	DB	39					; 00000027H
	DB	39					; 00000027H
	DB	39					; 00000027H
	DB	39					; 00000027H
	DB	39					; 00000027H
	DB	39					; 00000027H
	DB	39					; 00000027H
	DB	39					; 00000027H
	DB	39					; 00000027H
	DB	39					; 00000027H
	DB	39					; 00000027H
	DB	39					; 00000027H
	DB	39					; 00000027H
	DB	39					; 00000027H
	DB	39					; 00000027H
	DB	39					; 00000027H
	DB	39					; 00000027H
	DB	39					; 00000027H
	DB	39					; 00000027H
	DB	39					; 00000027H
	DB	39					; 00000027H
	DB	39					; 00000027H
	DB	39					; 00000027H
	DB	39					; 00000027H
	DB	39					; 00000027H
	DB	39					; 00000027H
	DB	39					; 00000027H
	DB	39					; 00000027H
	DB	39					; 00000027H
	DB	39					; 00000027H
	DB	39					; 00000027H
	DB	39					; 00000027H
	DB	39					; 00000027H
	DB	39					; 00000027H
	DB	39					; 00000027H
	DB	39					; 00000027H
	DB	39					; 00000027H
	DB	39					; 00000027H
	DB	39					; 00000027H
	DB	39					; 00000027H
	DB	39					; 00000027H
	DB	39					; 00000027H
	DB	39					; 00000027H
	DB	39					; 00000027H
	DB	39					; 00000027H
	DB	39					; 00000027H
	DB	39					; 00000027H
	DB	39					; 00000027H
	DB	39					; 00000027H
	DB	39					; 00000027H
	DB	39					; 00000027H
	DB	39					; 00000027H
	DB	39					; 00000027H
	DB	39					; 00000027H
	DB	39					; 00000027H
	DB	39					; 00000027H
	DB	39					; 00000027H
	DB	39					; 00000027H
	DB	39					; 00000027H
	DB	39					; 00000027H
	DB	39					; 00000027H
	DB	39					; 00000027H
	DB	39					; 00000027H
	DB	39					; 00000027H
	DB	39					; 00000027H
	DB	39					; 00000027H
	DB	39					; 00000027H
	DB	39					; 00000027H
	DB	39					; 00000027H
	DB	39					; 00000027H
	DB	39					; 00000027H
	DB	39					; 00000027H
	DB	39					; 00000027H
	DB	38					; 00000026H
	npad	2
$LN230@DXUTTraceW:
	DD	$LN84@DXUTTraceW
	DD	$LN83@DXUTTraceW
	DD	$LN82@DXUTTraceW
	DD	$LN81@DXUTTraceW
	DD	$LN80@DXUTTraceW
	DD	$LN79@DXUTTraceW
	DD	$LN78@DXUTTraceW
	DD	$LN77@DXUTTraceW
	DD	$LN76@DXUTTraceW
	DD	$LN75@DXUTTraceW
	DD	$LN74@DXUTTraceW
	DD	$LN73@DXUTTraceW
	DD	$LN72@DXUTTraceW
	DD	$LN71@DXUTTraceW
	DD	$LN70@DXUTTraceW
	DD	$LN69@DXUTTraceW
	DD	$LN68@DXUTTraceW
	DD	$LN67@DXUTTraceW
	DD	$LN66@DXUTTraceW
	DD	$LN65@DXUTTraceW
	DD	$LN64@DXUTTraceW
	DD	$LN63@DXUTTraceW
	DD	$LN62@DXUTTraceW
	DD	$LN61@DXUTTraceW
	DD	$LN60@DXUTTraceW
	DD	$LN59@DXUTTraceW
	DD	$LN58@DXUTTraceW
	DD	$LN57@DXUTTraceW
	DD	$LN56@DXUTTraceW
	DD	$LN55@DXUTTraceW
	DD	$LN54@DXUTTraceW
	DD	$LN53@DXUTTraceW
	DD	$LN52@DXUTTraceW
	DD	$LN51@DXUTTraceW
	DD	$LN50@DXUTTraceW
	DD	$LN49@DXUTTraceW
	DD	$LN48@DXUTTraceW
	DD	$LN47@DXUTTraceW
	DD	$LN46@DXUTTraceW
	DD	$LN45@DXUTTraceW
	DD	$LN44@DXUTTraceW
	DD	$LN43@DXUTTraceW
	DD	$LN42@DXUTTraceW
	DD	$LN41@DXUTTraceW
	DD	$LN40@DXUTTraceW
	DD	$LN39@DXUTTraceW
	DD	$LN36@DXUTTraceW
	DD	$LN38@DXUTTraceW
	DD	$LN35@DXUTTraceW
	DD	$LN37@DXUTTraceW
	DD	$LN34@DXUTTraceW
	DD	$LN33@DXUTTraceW
	DD	$LN32@DXUTTraceW
	DD	$LN1@DXUTTraceW
$LN226@DXUTTraceW:
	DB	0
	DB	1
	DB	2
	DB	3
	DB	4
	DB	5
	DB	6
	DB	7
	DB	8
	DB	9
	DB	10					; 0000000aH
	DB	11					; 0000000bH
	DB	12					; 0000000cH
	DB	53					; 00000035H
	DB	53					; 00000035H
	DB	13					; 0000000dH
	DB	14					; 0000000eH
	DB	15					; 0000000fH
	DB	16					; 00000010H
	DB	17					; 00000011H
	DB	18					; 00000012H
	DB	19					; 00000013H
	DB	53					; 00000035H
	DB	20					; 00000014H
	DB	21					; 00000015H
	DB	53					; 00000035H
	DB	53					; 00000035H
	DB	53					; 00000035H
	DB	53					; 00000035H
	DB	53					; 00000035H
	DB	53					; 00000035H
	DB	22					; 00000016H
	DB	23					; 00000017H
	DB	24					; 00000018H
	DB	25					; 00000019H
	DB	26					; 0000001aH
	DB	27					; 0000001bH
	DB	28					; 0000001cH
	DB	29					; 0000001dH
	DB	30					; 0000001eH
	DB	31					; 0000001fH
	DB	53					; 00000035H
	DB	53					; 00000035H
	DB	53					; 00000035H
	DB	53					; 00000035H
	DB	53					; 00000035H
	DB	53					; 00000035H
	DB	32					; 00000020H
	DB	33					; 00000021H
	DB	34					; 00000022H
	DB	35					; 00000023H
	DB	36					; 00000024H
	DB	53					; 00000035H
	DB	53					; 00000035H
	DB	53					; 00000035H
	DB	53					; 00000035H
	DB	53					; 00000035H
	DB	53					; 00000035H
	DB	53					; 00000035H
	DB	53					; 00000035H
	DB	53					; 00000035H
	DB	53					; 00000035H
	DB	53					; 00000035H
	DB	53					; 00000035H
	DB	53					; 00000035H
	DB	53					; 00000035H
	DB	53					; 00000035H
	DB	53					; 00000035H
	DB	53					; 00000035H
	DB	53					; 00000035H
	DB	53					; 00000035H
	DB	53					; 00000035H
	DB	53					; 00000035H
	DB	53					; 00000035H
	DB	53					; 00000035H
	DB	53					; 00000035H
	DB	53					; 00000035H
	DB	53					; 00000035H
	DB	53					; 00000035H
	DB	53					; 00000035H
	DB	53					; 00000035H
	DB	53					; 00000035H
	DB	53					; 00000035H
	DB	53					; 00000035H
	DB	53					; 00000035H
	DB	53					; 00000035H
	DB	53					; 00000035H
	DB	53					; 00000035H
	DB	53					; 00000035H
	DB	53					; 00000035H
	DB	53					; 00000035H
	DB	53					; 00000035H
	DB	53					; 00000035H
	DB	53					; 00000035H
	DB	53					; 00000035H
	DB	53					; 00000035H
	DB	53					; 00000035H
	DB	53					; 00000035H
	DB	53					; 00000035H
	DB	53					; 00000035H
	DB	53					; 00000035H
	DB	53					; 00000035H
	DB	53					; 00000035H
	DB	53					; 00000035H
	DB	53					; 00000035H
	DB	53					; 00000035H
	DB	53					; 00000035H
	DB	53					; 00000035H
	DB	53					; 00000035H
	DB	53					; 00000035H
	DB	53					; 00000035H
	DB	53					; 00000035H
	DB	53					; 00000035H
	DB	53					; 00000035H
	DB	53					; 00000035H
	DB	53					; 00000035H
	DB	53					; 00000035H
	DB	53					; 00000035H
	DB	53					; 00000035H
	DB	53					; 00000035H
	DB	53					; 00000035H
	DB	53					; 00000035H
	DB	53					; 00000035H
	DB	53					; 00000035H
	DB	53					; 00000035H
	DB	53					; 00000035H
	DB	53					; 00000035H
	DB	53					; 00000035H
	DB	37					; 00000025H
	DB	38					; 00000026H
	DB	39					; 00000027H
	DB	40					; 00000028H
	DB	41					; 00000029H
	DB	42					; 0000002aH
	DB	53					; 00000035H
	DB	43					; 0000002bH
	DB	53					; 00000035H
	DB	53					; 00000035H
	DB	53					; 00000035H
	DB	53					; 00000035H
	DB	53					; 00000035H
	DB	53					; 00000035H
	DB	53					; 00000035H
	DB	44					; 0000002cH
	DB	45					; 0000002dH
	DB	53					; 00000035H
	DB	53					; 00000035H
	DB	53					; 00000035H
	DB	53					; 00000035H
	DB	53					; 00000035H
	DB	53					; 00000035H
	DB	53					; 00000035H
	DB	53					; 00000035H
	DB	53					; 00000035H
	DB	53					; 00000035H
	DB	53					; 00000035H
	DB	53					; 00000035H
	DB	53					; 00000035H
	DB	53					; 00000035H
	DB	46					; 0000002eH
	DB	47					; 0000002fH
	DB	48					; 00000030H
	DB	49					; 00000031H
	DB	53					; 00000035H
	DB	53					; 00000035H
	DB	53					; 00000035H
	DB	53					; 00000035H
	DB	53					; 00000035H
	DB	53					; 00000035H
	DB	53					; 00000035H
	DB	53					; 00000035H
	DB	53					; 00000035H
	DB	53					; 00000035H
	DB	53					; 00000035H
	DB	53					; 00000035H
	DB	53					; 00000035H
	DB	50					; 00000032H
	DB	53					; 00000035H
	DB	53					; 00000035H
	DB	53					; 00000035H
	DB	53					; 00000035H
	DB	53					; 00000035H
	DB	53					; 00000035H
	DB	53					; 00000035H
	DB	53					; 00000035H
	DB	53					; 00000035H
	DB	53					; 00000035H
	DB	53					; 00000035H
	DB	53					; 00000035H
	DB	53					; 00000035H
	DB	53					; 00000035H
	DB	51					; 00000033H
	DB	53					; 00000035H
	DB	53					; 00000035H
	DB	53					; 00000035H
	DB	53					; 00000035H
	DB	53					; 00000035H
	DB	53					; 00000035H
	DB	53					; 00000035H
	DB	53					; 00000035H
	DB	53					; 00000035H
	DB	53					; 00000035H
	DB	53					; 00000035H
	DB	53					; 00000035H
	DB	53					; 00000035H
	DB	53					; 00000035H
	DB	53					; 00000035H
	DB	53					; 00000035H
	DB	53					; 00000035H
	DB	53					; 00000035H
	DB	53					; 00000035H
	DB	53					; 00000035H
	DB	53					; 00000035H
	DB	53					; 00000035H
	DB	53					; 00000035H
	DB	53					; 00000035H
	DB	53					; 00000035H
	DB	53					; 00000035H
	DB	53					; 00000035H
	DB	53					; 00000035H
	DB	53					; 00000035H
	DB	53					; 00000035H
	DB	52					; 00000034H
	npad	1
$LN231@DXUTTraceW:
	DD	$LN30@DXUTTraceW
	DD	$LN29@DXUTTraceW
	DD	$LN28@DXUTTraceW
	DD	$LN27@DXUTTraceW
	DD	$LN26@DXUTTraceW
	DD	$LN25@DXUTTraceW
	DD	$LN24@DXUTTraceW
	DD	$LN23@DXUTTraceW
	DD	$LN22@DXUTTraceW
	DD	$LN21@DXUTTraceW
	DD	$LN20@DXUTTraceW
	DD	$LN19@DXUTTraceW
	DD	$LN18@DXUTTraceW
	DD	$LN17@DXUTTraceW
	DD	$LN16@DXUTTraceW
	DD	$LN15@DXUTTraceW
	DD	$LN14@DXUTTraceW
	DD	$LN13@DXUTTraceW
	DD	$LN12@DXUTTraceW
	DD	$LN11@DXUTTraceW
	DD	$LN10@DXUTTraceW
	DD	$LN9@DXUTTraceW
	DD	$LN8@DXUTTraceW
	DD	$LN7@DXUTTraceW
	DD	$LN6@DXUTTraceW
	DD	$LN5@DXUTTraceW
	DD	$LN4@DXUTTraceW
	DD	$LN3@DXUTTraceW
	DD	$LN1@DXUTTraceW
$LN227@DXUTTraceW:
	DB	0
	DB	1
	DB	2
	DB	3
	DB	4
	DB	5
	DB	6
	DB	7
	DB	8
	DB	9
	DB	10					; 0000000aH
	DB	11					; 0000000bH
	DB	12					; 0000000cH
	DB	13					; 0000000dH
	DB	14					; 0000000eH
	DB	15					; 0000000fH
	DB	16					; 00000010H
	DB	17					; 00000011H
	DB	28					; 0000001cH
	DB	28					; 0000001cH
	DB	28					; 0000001cH
	DB	28					; 0000001cH
	DB	18					; 00000012H
	DB	19					; 00000013H
	DB	20					; 00000014H
	DB	21					; 00000015H
	DB	28					; 0000001cH
	DB	28					; 0000001cH
	DB	28					; 0000001cH
	DB	28					; 0000001cH
	DB	28					; 0000001cH
	DB	28					; 0000001cH
	DB	28					; 0000001cH
	DB	28					; 0000001cH
	DB	28					; 0000001cH
	DB	28					; 0000001cH
	DB	28					; 0000001cH
	DB	28					; 0000001cH
	DB	28					; 0000001cH
	DB	28					; 0000001cH
	DB	28					; 0000001cH
	DB	28					; 0000001cH
	DB	28					; 0000001cH
	DB	28					; 0000001cH
	DB	28					; 0000001cH
	DB	28					; 0000001cH
	DB	28					; 0000001cH
	DB	28					; 0000001cH
	DB	28					; 0000001cH
	DB	28					; 0000001cH
	DB	28					; 0000001cH
	DB	28					; 0000001cH
	DB	28					; 0000001cH
	DB	28					; 0000001cH
	DB	28					; 0000001cH
	DB	28					; 0000001cH
	DB	28					; 0000001cH
	DB	28					; 0000001cH
	DB	28					; 0000001cH
	DB	28					; 0000001cH
	DB	28					; 0000001cH
	DB	28					; 0000001cH
	DB	28					; 0000001cH
	DB	28					; 0000001cH
	DB	28					; 0000001cH
	DB	28					; 0000001cH
	DB	28					; 0000001cH
	DB	28					; 0000001cH
	DB	28					; 0000001cH
	DB	28					; 0000001cH
	DB	28					; 0000001cH
	DB	28					; 0000001cH
	DB	28					; 0000001cH
	DB	28					; 0000001cH
	DB	28					; 0000001cH
	DB	28					; 0000001cH
	DB	28					; 0000001cH
	DB	28					; 0000001cH
	DB	28					; 0000001cH
	DB	28					; 0000001cH
	DB	28					; 0000001cH
	DB	28					; 0000001cH
	DB	28					; 0000001cH
	DB	28					; 0000001cH
	DB	28					; 0000001cH
	DB	28					; 0000001cH
	DB	28					; 0000001cH
	DB	22					; 00000016H
	DB	28					; 0000001cH
	DB	28					; 0000001cH
	DB	28					; 0000001cH
	DB	28					; 0000001cH
	DB	28					; 0000001cH
	DB	28					; 0000001cH
	DB	23					; 00000017H
	DB	24					; 00000018H
	DB	28					; 0000001cH
	DB	28					; 0000001cH
	DB	28					; 0000001cH
	DB	28					; 0000001cH
	DB	28					; 0000001cH
	DB	28					; 0000001cH
	DB	28					; 0000001cH
	DB	28					; 0000001cH
	DB	28					; 0000001cH
	DB	28					; 0000001cH
	DB	28					; 0000001cH
	DB	28					; 0000001cH
	DB	28					; 0000001cH
	DB	28					; 0000001cH
	DB	28					; 0000001cH
	DB	28					; 0000001cH
	DB	28					; 0000001cH
	DB	28					; 0000001cH
	DB	28					; 0000001cH
	DB	28					; 0000001cH
	DB	28					; 0000001cH
	DB	28					; 0000001cH
	DB	28					; 0000001cH
	DB	28					; 0000001cH
	DB	28					; 0000001cH
	DB	28					; 0000001cH
	DB	28					; 0000001cH
	DB	28					; 0000001cH
	DB	28					; 0000001cH
	DB	28					; 0000001cH
	DB	25					; 00000019H
	DB	26					; 0000001aH
	DB	28					; 0000001cH
	DB	28					; 0000001cH
	DB	28					; 0000001cH
	DB	28					; 0000001cH
	DB	28					; 0000001cH
	DB	28					; 0000001cH
	DB	28					; 0000001cH
	DB	28					; 0000001cH
	DB	28					; 0000001cH
	DB	28					; 0000001cH
	DB	28					; 0000001cH
	DB	28					; 0000001cH
	DB	28					; 0000001cH
	DB	28					; 0000001cH
	DB	27					; 0000001bH
?DXUTTraceWindowsMessage@@YGPB_WI@Z ENDP		; DXUTTraceWindowsMessage
_TEXT	ENDS
; Function compile flags: /Odtp /RTCsu
_TEXT	SEGMENT
_result$ = -540						; size = 4
_buff$ = -532						; size = 520
_bShowMsgBoxOnError$ = -5				; size = 1
__$ArrayPad$ = -4					; size = 4
_strFile$ = 8						; size = 4
_dwLine$ = 12						; size = 4
_hr$ = 16						; size = 4
_strMsg$ = 20						; size = 4
_bPopMsgBox$ = 24					; size = 1
?DXUTTrace@@YGJPBDKJPB_W_N@Z PROC			; DXUTTrace
; File d:\engine class\assignment 1\scratch\dxsse\dxut\core\dxutmisc.cpp
; Line 908
	push	ebp
	mov	ebp, esp
	sub	esp, 540				; 0000021cH
	push	esi
	push	edi
	lea	edi, DWORD PTR [ebp-540]
	mov	ecx, 135				; 00000087H
	mov	eax, -858993460				; ccccccccH
	rep stosd
	mov	eax, DWORD PTR ___security_cookie
	xor	eax, ebp
	mov	DWORD PTR __$ArrayPad$[ebp], eax
; Line 909
	call	?DXUTGetShowMsgBoxOnError@@YG_NXZ	; DXUTGetShowMsgBoxOnError
	mov	BYTE PTR _bShowMsgBoxOnError$[ebp], al
; Line 910
	movzx	eax, BYTE PTR _bPopMsgBox$[ebp]
	test	eax, eax
	je	SHORT $LN2@DXUTTrace
	movzx	ecx, BYTE PTR _bShowMsgBoxOnError$[ebp]
	test	ecx, ecx
	jne	SHORT $LN2@DXUTTrace
; Line 911
	mov	BYTE PTR _bPopMsgBox$[ebp], 0
$LN2@DXUTTrace:
; Line 919
	mov	esi, esp
	push	260					; 00000104H
	lea	edx, DWORD PTR _buff$[ebp]
	push	edx
	push	-1
	mov	eax, DWORD PTR _strFile$[ebp]
	push	eax
	push	1
	push	0
	call	DWORD PTR __imp__MultiByteToWideChar@24
	cmp	esi, esp
	call	__RTC_CheckEsp
	mov	DWORD PTR _result$[ebp], eax
; Line 920
	cmp	DWORD PTR _result$[ebp], 0
	jne	SHORT $LN1@DXUTTrace
; Line 922
	push	OFFSET $SG153043
	lea	ecx, DWORD PTR _buff$[ebp]
	push	ecx
	call	??$wcscpy_s@$0BAE@@@YAHAAY0BAE@_WPB_W@Z	; wcscpy_s<260>
	add	esp, 8
$LN1@DXUTTrace:
; Line 925
	movzx	edx, BYTE PTR _bPopMsgBox$[ebp]
	push	edx
	mov	eax, DWORD PTR _strMsg$[ebp]
	push	eax
	mov	ecx, DWORD PTR _hr$[ebp]
	push	ecx
	mov	edx, DWORD PTR _dwLine$[ebp]
	push	edx
	lea	eax, DWORD PTR _buff$[ebp]
	push	eax
	call	_DXTraceW@20
; Line 926
	push	edx
	mov	ecx, ebp
	push	eax
	lea	edx, DWORD PTR $LN7@DXUTTrace
	call	@_RTC_CheckStackVars@8
	pop	eax
	pop	edx
	pop	edi
	pop	esi
	mov	ecx, DWORD PTR __$ArrayPad$[ebp]
	xor	ecx, ebp
	call	@__security_check_cookie@4
	add	esp, 540				; 0000021cH
	cmp	ebp, esp
	call	__RTC_CheckEsp
	mov	esp, ebp
	pop	ebp
	ret	20					; 00000014H
$LN7@DXUTTrace:
	DD	1
	DD	$LN6@DXUTTrace
$LN6@DXUTTrace:
	DD	-532					; fffffdecH
	DD	520					; 00000208H
	DD	$LN5@DXUTTrace
$LN5@DXUTTrace:
	DB	98					; 00000062H
	DB	117					; 00000075H
	DB	102					; 00000066H
	DB	102					; 00000066H
	DB	0
?DXUTTrace@@YGJPBDKJPB_W_N@Z ENDP			; DXUTTrace
_TEXT	ENDS
; Function compile flags: /Odtp /RTCsu
_TEXT	SEGMENT
$T1 = -532						; size = 4
_args$ = -528						; size = 4
_strBuffer$ = -520					; size = 512
__$ArrayPad$ = -4					; size = 4
_strMsg$ = 8						; size = 4
?DXUTOutputDebugStringA@@YAXPBDZZ PROC			; DXUTOutputDebugStringA
; File d:\engine class\assignment 1\scratch\dxsse\dxut\core\dxutmisc.cpp
; Line 363
	push	ebp
	mov	ebp, esp
	sub	esp, 532				; 00000214H
	push	esi
	push	edi
	lea	edi, DWORD PTR [ebp-532]
	mov	ecx, 133				; 00000085H
	mov	eax, -858993460				; ccccccccH
	rep stosd
	mov	eax, DWORD PTR ___security_cookie
	xor	eax, ebp
	mov	DWORD PTR __$ArrayPad$[ebp], eax
; Line 368
	lea	eax, DWORD PTR _strMsg$[ebp+4]
	mov	DWORD PTR _args$[ebp], eax
; Line 369
	mov	esi, esp
	mov	ecx, DWORD PTR _args$[ebp]
	push	ecx
	mov	edx, DWORD PTR _strMsg$[ebp]
	push	edx
	push	512					; 00000200H
	lea	eax, DWORD PTR _strBuffer$[ebp]
	push	eax
	call	DWORD PTR __imp__sprintf_s
	add	esp, 16					; 00000010H
	cmp	esi, esp
	call	__RTC_CheckEsp
; Line 370
	mov	ecx, 1
	imul	edx, ecx, 511
	mov	DWORD PTR $T1[ebp], edx
	cmp	DWORD PTR $T1[ebp], 512			; 00000200H
	jae	SHORT $LN3@DXUTOutput
	jmp	SHORT $LN4@DXUTOutput
$LN3@DXUTOutput:
	call	___report_rangecheckfailure
$LN4@DXUTOutput:
	mov	eax, DWORD PTR $T1[ebp]
	mov	BYTE PTR _strBuffer$[ebp+eax], 0
; Line 371
	mov	DWORD PTR _args$[ebp], 0
; Line 373
	mov	esi, esp
	lea	ecx, DWORD PTR _strBuffer$[ebp]
	push	ecx
	call	DWORD PTR __imp__OutputDebugStringA@4
	cmp	esi, esp
	call	__RTC_CheckEsp
$LN2@DXUTOutput:
; Line 377
	push	edx
	mov	ecx, ebp
	push	eax
	lea	edx, DWORD PTR $LN7@DXUTOutput
	call	@_RTC_CheckStackVars@8
	pop	eax
	pop	edx
	pop	edi
	pop	esi
	mov	ecx, DWORD PTR __$ArrayPad$[ebp]
	xor	ecx, ebp
	call	@__security_check_cookie@4
	add	esp, 532				; 00000214H
	cmp	ebp, esp
	call	__RTC_CheckEsp
	mov	esp, ebp
	pop	ebp
	ret	0
	npad	3
$LN7@DXUTOutput:
	DD	1
	DD	$LN6@DXUTOutput
$LN6@DXUTOutput:
	DD	-520					; fffffdf8H
	DD	512					; 00000200H
	DD	$LN5@DXUTOutput
$LN5@DXUTOutput:
	DB	115					; 00000073H
	DB	116					; 00000074H
	DB	114					; 00000072H
	DB	66					; 00000042H
	DB	117					; 00000075H
	DB	102					; 00000066H
	DB	102					; 00000066H
	DB	101					; 00000065H
	DB	114					; 00000072H
	DB	0
?DXUTOutputDebugStringA@@YAXPBDZZ ENDP			; DXUTOutputDebugStringA
_TEXT	ENDS
; Function compile flags: /Odtp /RTCsu
_TEXT	SEGMENT
$T1 = -1044						; size = 4
_args$ = -1040						; size = 4
_strBuffer$ = -1032					; size = 1024
__$ArrayPad$ = -4					; size = 4
_strMsg$ = 8						; size = 4
?DXUTOutputDebugStringW@@YAXPB_WZZ PROC			; DXUTOutputDebugStringW
; File d:\engine class\assignment 1\scratch\dxsse\dxut\core\dxutmisc.cpp
; Line 341
	push	ebp
	mov	ebp, esp
	sub	esp, 1044				; 00000414H
	push	esi
	push	edi
	lea	edi, DWORD PTR [ebp-1044]
	mov	ecx, 261				; 00000105H
	mov	eax, -858993460				; ccccccccH
	rep stosd
	mov	eax, DWORD PTR ___security_cookie
	xor	eax, ebp
	mov	DWORD PTR __$ArrayPad$[ebp], eax
; Line 346
	lea	eax, DWORD PTR _strMsg$[ebp+4]
	mov	DWORD PTR _args$[ebp], eax
; Line 347
	mov	esi, esp
	mov	ecx, DWORD PTR _args$[ebp]
	push	ecx
	mov	edx, DWORD PTR _strMsg$[ebp]
	push	edx
	push	512					; 00000200H
	lea	eax, DWORD PTR _strBuffer$[ebp]
	push	eax
	call	DWORD PTR __imp__vswprintf_s
	add	esp, 16					; 00000010H
	cmp	esi, esp
	call	__RTC_CheckEsp
; Line 348
	mov	ecx, 2
	imul	edx, ecx, 511
	mov	DWORD PTR $T1[ebp], edx
	cmp	DWORD PTR $T1[ebp], 1024		; 00000400H
	jae	SHORT $LN3@DXUTOutput
	jmp	SHORT $LN4@DXUTOutput
$LN3@DXUTOutput:
	call	___report_rangecheckfailure
$LN4@DXUTOutput:
	xor	eax, eax
	mov	ecx, DWORD PTR $T1[ebp]
	mov	WORD PTR _strBuffer$[ebp+ecx], ax
; Line 349
	mov	DWORD PTR _args$[ebp], 0
; Line 351
	mov	esi, esp
	lea	edx, DWORD PTR _strBuffer$[ebp]
	push	edx
	call	DWORD PTR __imp__OutputDebugStringW@4
	cmp	esi, esp
	call	__RTC_CheckEsp
$LN2@DXUTOutput:
; Line 355
	push	edx
	mov	ecx, ebp
	push	eax
	lea	edx, DWORD PTR $LN7@DXUTOutput
	call	@_RTC_CheckStackVars@8
	pop	eax
	pop	edx
	pop	edi
	pop	esi
	mov	ecx, DWORD PTR __$ArrayPad$[ebp]
	xor	ecx, ebp
	call	@__security_check_cookie@4
	add	esp, 1044				; 00000414H
	cmp	ebp, esp
	call	__RTC_CheckEsp
	mov	esp, ebp
	pop	ebp
	ret	0
	npad	1
$LN7@DXUTOutput:
	DD	1
	DD	$LN6@DXUTOutput
$LN6@DXUTOutput:
	DD	-1032					; fffffbf8H
	DD	1024					; 00000400H
	DD	$LN5@DXUTOutput
$LN5@DXUTOutput:
	DB	115					; 00000073H
	DB	116					; 00000074H
	DB	114					; 00000072H
	DB	66					; 00000042H
	DB	117					; 00000075H
	DB	102					; 00000066H
	DB	102					; 00000066H
	DB	101					; 00000065H
	DB	114					; 00000072H
	DB	0
?DXUTOutputDebugStringW@@YAXPB_WZZ ENDP			; DXUTOutputDebugStringW
_TEXT	ENDS
; Function compile flags: /Odtp /RTCsu
_TEXT	SEGMENT
tv75 = -24						; size = 4
tv91 = -18						; size = 2
tv88 = -16						; size = 4
tv85 = -12						; size = 4
tv64 = -8						; size = 4
_pstr$ = -4						; size = 4
_format$ = 8						; size = 4
_bWithPrefix$ = 12					; size = 1
?DXUTDXGIFormatToString@@YGPB_WW4DXGI_FORMAT@@_N@Z PROC	; DXUTDXGIFormatToString
; File d:\engine class\assignment 1\scratch\dxsse\dxut\core\dxutmisc.cpp
; Line 215
	push	ebp
	mov	ebp, esp
	sub	esp, 24					; 00000018H
	mov	eax, -858993460				; ccccccccH
	mov	DWORD PTR [ebp-24], eax
	mov	DWORD PTR [ebp-20], eax
	mov	DWORD PTR [ebp-16], eax
	mov	DWORD PTR [ebp-12], eax
	mov	DWORD PTR [ebp-8], eax
	mov	DWORD PTR [ebp-4], eax
; Line 216
	mov	DWORD PTR _pstr$[ebp], 0
; Line 217
	mov	eax, DWORD PTR _format$[ebp]
	mov	DWORD PTR tv64[ebp], eax
	mov	ecx, DWORD PTR tv64[ebp]
	sub	ecx, 1
	mov	DWORD PTR tv64[ebp], ecx
	cmp	DWORD PTR tv64[ebp], 114		; 00000072H
	ja	$LN4@DXUTDXGIFo
	mov	edx, DWORD PTR tv64[ebp]
	jmp	DWORD PTR $LN110@DXUTDXGIFo[edx*4]
$LN104@DXUTDXGIFo:
; Line 219
	mov	DWORD PTR _pstr$[ebp], OFFSET $SG152132
	jmp	$LN105@DXUTDXGIFo
$LN103@DXUTDXGIFo:
; Line 220
	mov	DWORD PTR _pstr$[ebp], OFFSET $SG152134
	jmp	$LN105@DXUTDXGIFo
$LN102@DXUTDXGIFo:
; Line 221
	mov	DWORD PTR _pstr$[ebp], OFFSET $SG152136
	jmp	$LN105@DXUTDXGIFo
$LN101@DXUTDXGIFo:
; Line 222
	mov	DWORD PTR _pstr$[ebp], OFFSET $SG152138
	jmp	$LN105@DXUTDXGIFo
$LN100@DXUTDXGIFo:
; Line 223
	mov	DWORD PTR _pstr$[ebp], OFFSET $SG152140
	jmp	$LN105@DXUTDXGIFo
$LN99@DXUTDXGIFo:
; Line 224
	mov	DWORD PTR _pstr$[ebp], OFFSET $SG152142
	jmp	$LN105@DXUTDXGIFo
$LN98@DXUTDXGIFo:
; Line 225
	mov	DWORD PTR _pstr$[ebp], OFFSET $SG152144
	jmp	$LN105@DXUTDXGIFo
$LN97@DXUTDXGIFo:
; Line 226
	mov	DWORD PTR _pstr$[ebp], OFFSET $SG152146
	jmp	$LN105@DXUTDXGIFo
$LN96@DXUTDXGIFo:
; Line 227
	mov	DWORD PTR _pstr$[ebp], OFFSET $SG152148
	jmp	$LN105@DXUTDXGIFo
$LN95@DXUTDXGIFo:
; Line 228
	mov	DWORD PTR _pstr$[ebp], OFFSET $SG152150
	jmp	$LN105@DXUTDXGIFo
$LN94@DXUTDXGIFo:
; Line 229
	mov	DWORD PTR _pstr$[ebp], OFFSET $SG152152
	jmp	$LN105@DXUTDXGIFo
$LN93@DXUTDXGIFo:
; Line 230
	mov	DWORD PTR _pstr$[ebp], OFFSET $SG152154
	jmp	$LN105@DXUTDXGIFo
$LN92@DXUTDXGIFo:
; Line 231
	mov	DWORD PTR _pstr$[ebp], OFFSET $SG152156
	jmp	$LN105@DXUTDXGIFo
$LN91@DXUTDXGIFo:
; Line 232
	mov	DWORD PTR _pstr$[ebp], OFFSET $SG152158
	jmp	$LN105@DXUTDXGIFo
$LN90@DXUTDXGIFo:
; Line 233
	mov	DWORD PTR _pstr$[ebp], OFFSET $SG152160
	jmp	$LN105@DXUTDXGIFo
$LN89@DXUTDXGIFo:
; Line 234
	mov	DWORD PTR _pstr$[ebp], OFFSET $SG152162
	jmp	$LN105@DXUTDXGIFo
$LN88@DXUTDXGIFo:
; Line 235
	mov	DWORD PTR _pstr$[ebp], OFFSET $SG152164
	jmp	$LN105@DXUTDXGIFo
$LN87@DXUTDXGIFo:
; Line 236
	mov	DWORD PTR _pstr$[ebp], OFFSET $SG152166
	jmp	$LN105@DXUTDXGIFo
$LN86@DXUTDXGIFo:
; Line 237
	mov	DWORD PTR _pstr$[ebp], OFFSET $SG152168
	jmp	$LN105@DXUTDXGIFo
$LN85@DXUTDXGIFo:
; Line 238
	mov	DWORD PTR _pstr$[ebp], OFFSET $SG152170
	jmp	$LN105@DXUTDXGIFo
$LN84@DXUTDXGIFo:
; Line 239
	mov	DWORD PTR _pstr$[ebp], OFFSET $SG152172
	jmp	$LN105@DXUTDXGIFo
$LN83@DXUTDXGIFo:
; Line 240
	mov	DWORD PTR _pstr$[ebp], OFFSET $SG152174
	jmp	$LN105@DXUTDXGIFo
$LN82@DXUTDXGIFo:
; Line 241
	mov	DWORD PTR _pstr$[ebp], OFFSET $SG152176
	jmp	$LN105@DXUTDXGIFo
$LN81@DXUTDXGIFo:
; Line 242
	mov	DWORD PTR _pstr$[ebp], OFFSET $SG152178
	jmp	$LN105@DXUTDXGIFo
$LN80@DXUTDXGIFo:
; Line 243
	mov	DWORD PTR _pstr$[ebp], OFFSET $SG152180
	jmp	$LN105@DXUTDXGIFo
$LN79@DXUTDXGIFo:
; Line 244
	mov	DWORD PTR _pstr$[ebp], OFFSET $SG152182
	jmp	$LN105@DXUTDXGIFo
$LN78@DXUTDXGIFo:
; Line 245
	mov	DWORD PTR _pstr$[ebp], OFFSET $SG152184
	jmp	$LN105@DXUTDXGIFo
$LN77@DXUTDXGIFo:
; Line 246
	mov	DWORD PTR _pstr$[ebp], OFFSET $SG152186
	jmp	$LN105@DXUTDXGIFo
$LN76@DXUTDXGIFo:
; Line 247
	mov	DWORD PTR _pstr$[ebp], OFFSET $SG152188
	jmp	$LN105@DXUTDXGIFo
$LN75@DXUTDXGIFo:
; Line 248
	mov	DWORD PTR _pstr$[ebp], OFFSET $SG152190
	jmp	$LN105@DXUTDXGIFo
$LN74@DXUTDXGIFo:
; Line 249
	mov	DWORD PTR _pstr$[ebp], OFFSET $SG152192
	jmp	$LN105@DXUTDXGIFo
$LN73@DXUTDXGIFo:
; Line 250
	mov	DWORD PTR _pstr$[ebp], OFFSET $SG152194
	jmp	$LN105@DXUTDXGIFo
$LN72@DXUTDXGIFo:
; Line 251
	mov	DWORD PTR _pstr$[ebp], OFFSET $SG152196
	jmp	$LN105@DXUTDXGIFo
$LN71@DXUTDXGIFo:
; Line 252
	mov	DWORD PTR _pstr$[ebp], OFFSET $SG152198
	jmp	$LN105@DXUTDXGIFo
$LN70@DXUTDXGIFo:
; Line 253
	mov	DWORD PTR _pstr$[ebp], OFFSET $SG152200
	jmp	$LN105@DXUTDXGIFo
$LN69@DXUTDXGIFo:
; Line 254
	mov	DWORD PTR _pstr$[ebp], OFFSET $SG152202
	jmp	$LN105@DXUTDXGIFo
$LN68@DXUTDXGIFo:
; Line 255
	mov	DWORD PTR _pstr$[ebp], OFFSET $SG152204
	jmp	$LN105@DXUTDXGIFo
$LN67@DXUTDXGIFo:
; Line 256
	mov	DWORD PTR _pstr$[ebp], OFFSET $SG152206
	jmp	$LN105@DXUTDXGIFo
$LN66@DXUTDXGIFo:
; Line 257
	mov	DWORD PTR _pstr$[ebp], OFFSET $SG152208
	jmp	$LN105@DXUTDXGIFo
$LN65@DXUTDXGIFo:
; Line 258
	mov	DWORD PTR _pstr$[ebp], OFFSET $SG152210
	jmp	$LN105@DXUTDXGIFo
$LN64@DXUTDXGIFo:
; Line 259
	mov	DWORD PTR _pstr$[ebp], OFFSET $SG152212
	jmp	$LN105@DXUTDXGIFo
$LN63@DXUTDXGIFo:
; Line 260
	mov	DWORD PTR _pstr$[ebp], OFFSET $SG152214
	jmp	$LN105@DXUTDXGIFo
$LN62@DXUTDXGIFo:
; Line 261
	mov	DWORD PTR _pstr$[ebp], OFFSET $SG152216
	jmp	$LN105@DXUTDXGIFo
$LN61@DXUTDXGIFo:
; Line 262
	mov	DWORD PTR _pstr$[ebp], OFFSET $SG152218
	jmp	$LN105@DXUTDXGIFo
$LN60@DXUTDXGIFo:
; Line 263
	mov	DWORD PTR _pstr$[ebp], OFFSET $SG152220
	jmp	$LN105@DXUTDXGIFo
$LN59@DXUTDXGIFo:
; Line 264
	mov	DWORD PTR _pstr$[ebp], OFFSET $SG152222
	jmp	$LN105@DXUTDXGIFo
$LN58@DXUTDXGIFo:
; Line 265
	mov	DWORD PTR _pstr$[ebp], OFFSET $SG152224
	jmp	$LN105@DXUTDXGIFo
$LN57@DXUTDXGIFo:
; Line 266
	mov	DWORD PTR _pstr$[ebp], OFFSET $SG152226
	jmp	$LN105@DXUTDXGIFo
$LN56@DXUTDXGIFo:
; Line 267
	mov	DWORD PTR _pstr$[ebp], OFFSET $SG152228
	jmp	$LN105@DXUTDXGIFo
$LN55@DXUTDXGIFo:
; Line 268
	mov	DWORD PTR _pstr$[ebp], OFFSET $SG152230
	jmp	$LN105@DXUTDXGIFo
$LN54@DXUTDXGIFo:
; Line 269
	mov	DWORD PTR _pstr$[ebp], OFFSET $SG152232
	jmp	$LN105@DXUTDXGIFo
$LN53@DXUTDXGIFo:
; Line 270
	mov	DWORD PTR _pstr$[ebp], OFFSET $SG152234
	jmp	$LN105@DXUTDXGIFo
$LN52@DXUTDXGIFo:
; Line 271
	mov	DWORD PTR _pstr$[ebp], OFFSET $SG152236
	jmp	$LN105@DXUTDXGIFo
$LN51@DXUTDXGIFo:
; Line 272
	mov	DWORD PTR _pstr$[ebp], OFFSET $SG152238
	jmp	$LN105@DXUTDXGIFo
$LN50@DXUTDXGIFo:
; Line 273
	mov	DWORD PTR _pstr$[ebp], OFFSET $SG152240
	jmp	$LN105@DXUTDXGIFo
$LN49@DXUTDXGIFo:
; Line 274
	mov	DWORD PTR _pstr$[ebp], OFFSET $SG152242
	jmp	$LN105@DXUTDXGIFo
$LN48@DXUTDXGIFo:
; Line 275
	mov	DWORD PTR _pstr$[ebp], OFFSET $SG152244
	jmp	$LN105@DXUTDXGIFo
$LN47@DXUTDXGIFo:
; Line 276
	mov	DWORD PTR _pstr$[ebp], OFFSET $SG152246
	jmp	$LN105@DXUTDXGIFo
$LN46@DXUTDXGIFo:
; Line 277
	mov	DWORD PTR _pstr$[ebp], OFFSET $SG152248
	jmp	$LN105@DXUTDXGIFo
$LN45@DXUTDXGIFo:
; Line 278
	mov	DWORD PTR _pstr$[ebp], OFFSET $SG152250
	jmp	$LN105@DXUTDXGIFo
$LN44@DXUTDXGIFo:
; Line 279
	mov	DWORD PTR _pstr$[ebp], OFFSET $SG152252
	jmp	$LN105@DXUTDXGIFo
$LN43@DXUTDXGIFo:
; Line 280
	mov	DWORD PTR _pstr$[ebp], OFFSET $SG152254
	jmp	$LN105@DXUTDXGIFo
$LN42@DXUTDXGIFo:
; Line 281
	mov	DWORD PTR _pstr$[ebp], OFFSET $SG152256
	jmp	$LN105@DXUTDXGIFo
$LN41@DXUTDXGIFo:
; Line 282
	mov	DWORD PTR _pstr$[ebp], OFFSET $SG152258
	jmp	$LN105@DXUTDXGIFo
$LN40@DXUTDXGIFo:
; Line 283
	mov	DWORD PTR _pstr$[ebp], OFFSET $SG152260
	jmp	$LN105@DXUTDXGIFo
$LN39@DXUTDXGIFo:
; Line 284
	mov	DWORD PTR _pstr$[ebp], OFFSET $SG152262
	jmp	$LN105@DXUTDXGIFo
$LN38@DXUTDXGIFo:
; Line 285
	mov	DWORD PTR _pstr$[ebp], OFFSET $SG152264
	jmp	$LN105@DXUTDXGIFo
$LN37@DXUTDXGIFo:
; Line 286
	mov	DWORD PTR _pstr$[ebp], OFFSET $SG152266
	jmp	$LN105@DXUTDXGIFo
$LN36@DXUTDXGIFo:
; Line 287
	mov	DWORD PTR _pstr$[ebp], OFFSET $SG152268
	jmp	$LN105@DXUTDXGIFo
$LN35@DXUTDXGIFo:
; Line 288
	mov	DWORD PTR _pstr$[ebp], OFFSET $SG152270
	jmp	$LN105@DXUTDXGIFo
$LN34@DXUTDXGIFo:
; Line 289
	mov	DWORD PTR _pstr$[ebp], OFFSET $SG152272
	jmp	$LN105@DXUTDXGIFo
$LN33@DXUTDXGIFo:
; Line 290
	mov	DWORD PTR _pstr$[ebp], OFFSET $SG152274
	jmp	$LN105@DXUTDXGIFo
$LN32@DXUTDXGIFo:
; Line 291
	mov	DWORD PTR _pstr$[ebp], OFFSET $SG152276
	jmp	$LN105@DXUTDXGIFo
$LN31@DXUTDXGIFo:
; Line 292
	mov	DWORD PTR _pstr$[ebp], OFFSET $SG152278
	jmp	$LN105@DXUTDXGIFo
$LN30@DXUTDXGIFo:
; Line 293
	mov	DWORD PTR _pstr$[ebp], OFFSET $SG152280
	jmp	$LN105@DXUTDXGIFo
$LN29@DXUTDXGIFo:
; Line 294
	mov	DWORD PTR _pstr$[ebp], OFFSET $SG152282
	jmp	$LN105@DXUTDXGIFo
$LN28@DXUTDXGIFo:
; Line 295
	mov	DWORD PTR _pstr$[ebp], OFFSET $SG152284
	jmp	$LN105@DXUTDXGIFo
$LN27@DXUTDXGIFo:
; Line 296
	mov	DWORD PTR _pstr$[ebp], OFFSET $SG152286
	jmp	$LN105@DXUTDXGIFo
$LN26@DXUTDXGIFo:
; Line 297
	mov	DWORD PTR _pstr$[ebp], OFFSET $SG152288
	jmp	$LN105@DXUTDXGIFo
$LN25@DXUTDXGIFo:
; Line 298
	mov	DWORD PTR _pstr$[ebp], OFFSET $SG152290
	jmp	$LN105@DXUTDXGIFo
$LN24@DXUTDXGIFo:
; Line 299
	mov	DWORD PTR _pstr$[ebp], OFFSET $SG152292
	jmp	$LN105@DXUTDXGIFo
$LN23@DXUTDXGIFo:
; Line 300
	mov	DWORD PTR _pstr$[ebp], OFFSET $SG152294
	jmp	$LN105@DXUTDXGIFo
$LN22@DXUTDXGIFo:
; Line 301
	mov	DWORD PTR _pstr$[ebp], OFFSET $SG152296
	jmp	$LN105@DXUTDXGIFo
$LN21@DXUTDXGIFo:
; Line 302
	mov	DWORD PTR _pstr$[ebp], OFFSET $SG152298
	jmp	$LN105@DXUTDXGIFo
$LN20@DXUTDXGIFo:
; Line 303
	mov	DWORD PTR _pstr$[ebp], OFFSET $SG152300
	jmp	$LN105@DXUTDXGIFo
$LN19@DXUTDXGIFo:
; Line 304
	mov	DWORD PTR _pstr$[ebp], OFFSET $SG152302
	jmp	$LN105@DXUTDXGIFo
$LN18@DXUTDXGIFo:
; Line 305
	mov	DWORD PTR _pstr$[ebp], OFFSET $SG152304
	jmp	SHORT $LN105@DXUTDXGIFo
$LN17@DXUTDXGIFo:
; Line 308
	mov	DWORD PTR _pstr$[ebp], OFFSET $SG152306
	jmp	SHORT $LN105@DXUTDXGIFo
$LN16@DXUTDXGIFo:
; Line 309
	mov	DWORD PTR _pstr$[ebp], OFFSET $SG152308
	jmp	SHORT $LN105@DXUTDXGIFo
$LN15@DXUTDXGIFo:
; Line 310
	mov	DWORD PTR _pstr$[ebp], OFFSET $SG152310
	jmp	SHORT $LN105@DXUTDXGIFo
$LN14@DXUTDXGIFo:
; Line 311
	mov	DWORD PTR _pstr$[ebp], OFFSET $SG152312
	jmp	SHORT $LN105@DXUTDXGIFo
$LN13@DXUTDXGIFo:
; Line 312
	mov	DWORD PTR _pstr$[ebp], OFFSET $SG152314
	jmp	SHORT $LN105@DXUTDXGIFo
$LN12@DXUTDXGIFo:
; Line 313
	mov	DWORD PTR _pstr$[ebp], OFFSET $SG152316
	jmp	SHORT $LN105@DXUTDXGIFo
$LN11@DXUTDXGIFo:
; Line 314
	mov	DWORD PTR _pstr$[ebp], OFFSET $SG152318
	jmp	SHORT $LN105@DXUTDXGIFo
$LN10@DXUTDXGIFo:
; Line 315
	mov	DWORD PTR _pstr$[ebp], OFFSET $SG152320
	jmp	SHORT $LN105@DXUTDXGIFo
$LN9@DXUTDXGIFo:
; Line 316
	mov	DWORD PTR _pstr$[ebp], OFFSET $SG152322
	jmp	SHORT $LN105@DXUTDXGIFo
$LN8@DXUTDXGIFo:
; Line 317
	mov	DWORD PTR _pstr$[ebp], OFFSET $SG152324
	jmp	SHORT $LN105@DXUTDXGIFo
$LN7@DXUTDXGIFo:
; Line 318
	mov	DWORD PTR _pstr$[ebp], OFFSET $SG152326
	jmp	SHORT $LN105@DXUTDXGIFo
$LN6@DXUTDXGIFo:
; Line 319
	mov	DWORD PTR _pstr$[ebp], OFFSET $SG152328
	jmp	SHORT $LN105@DXUTDXGIFo
$LN5@DXUTDXGIFo:
; Line 322
	mov	DWORD PTR _pstr$[ebp], OFFSET $SG152330
	jmp	SHORT $LN105@DXUTDXGIFo
$LN4@DXUTDXGIFo:
; Line 325
	mov	DWORD PTR _pstr$[ebp], OFFSET $SG152332
$LN105@DXUTDXGIFo:
; Line 327
	movzx	eax, BYTE PTR _bWithPrefix$[ebp]
	test	eax, eax
	jne	SHORT $LN2@DXUTDXGIFo
	push	OFFSET $SG152335
	mov	ecx, DWORD PTR _pstr$[ebp]
	push	ecx
	call	?wcsstr@@YAPA_WPA_WPB_W@Z		; wcsstr
	add	esp, 8
	test	eax, eax
	jne	SHORT $LN3@DXUTDXGIFo
$LN2@DXUTDXGIFo:
; Line 328
	mov	eax, DWORD PTR _pstr$[ebp]
	jmp	SHORT $LN107@DXUTDXGIFo
; Line 329
	jmp	SHORT $LN107@DXUTDXGIFo
$LN3@DXUTDXGIFo:
; Line 330
	mov	DWORD PTR tv85[ebp], OFFSET $SG152337
	mov	edx, DWORD PTR tv85[ebp]
	add	edx, 2
	mov	DWORD PTR tv88[ebp], edx
$LL109@DXUTDXGIFo:
	mov	eax, DWORD PTR tv85[ebp]
	mov	cx, WORD PTR [eax]
	mov	WORD PTR tv91[ebp], cx
	add	DWORD PTR tv85[ebp], 2
	cmp	WORD PTR tv91[ebp], 0
	jne	SHORT $LL109@DXUTDXGIFo
	mov	edx, DWORD PTR tv85[ebp]
	sub	edx, DWORD PTR tv88[ebp]
	sar	edx, 1
	mov	DWORD PTR tv75[ebp], edx
	mov	eax, DWORD PTR tv75[ebp]
	mov	ecx, DWORD PTR _pstr$[ebp]
	lea	eax, DWORD PTR [ecx+eax*2]
$LN107@DXUTDXGIFo:
; Line 331
	add	esp, 24					; 00000018H
	cmp	ebp, esp
	call	__RTC_CheckEsp
	mov	esp, ebp
	pop	ebp
	ret	8
	npad	3
$LN110@DXUTDXGIFo:
	DD	$LN104@DXUTDXGIFo
	DD	$LN103@DXUTDXGIFo
	DD	$LN102@DXUTDXGIFo
	DD	$LN101@DXUTDXGIFo
	DD	$LN100@DXUTDXGIFo
	DD	$LN99@DXUTDXGIFo
	DD	$LN98@DXUTDXGIFo
	DD	$LN97@DXUTDXGIFo
	DD	$LN96@DXUTDXGIFo
	DD	$LN95@DXUTDXGIFo
	DD	$LN94@DXUTDXGIFo
	DD	$LN93@DXUTDXGIFo
	DD	$LN92@DXUTDXGIFo
	DD	$LN91@DXUTDXGIFo
	DD	$LN90@DXUTDXGIFo
	DD	$LN89@DXUTDXGIFo
	DD	$LN88@DXUTDXGIFo
	DD	$LN87@DXUTDXGIFo
	DD	$LN86@DXUTDXGIFo
	DD	$LN85@DXUTDXGIFo
	DD	$LN84@DXUTDXGIFo
	DD	$LN83@DXUTDXGIFo
	DD	$LN82@DXUTDXGIFo
	DD	$LN81@DXUTDXGIFo
	DD	$LN80@DXUTDXGIFo
	DD	$LN79@DXUTDXGIFo
	DD	$LN78@DXUTDXGIFo
	DD	$LN77@DXUTDXGIFo
	DD	$LN76@DXUTDXGIFo
	DD	$LN75@DXUTDXGIFo
	DD	$LN74@DXUTDXGIFo
	DD	$LN73@DXUTDXGIFo
	DD	$LN72@DXUTDXGIFo
	DD	$LN71@DXUTDXGIFo
	DD	$LN70@DXUTDXGIFo
	DD	$LN69@DXUTDXGIFo
	DD	$LN68@DXUTDXGIFo
	DD	$LN67@DXUTDXGIFo
	DD	$LN66@DXUTDXGIFo
	DD	$LN65@DXUTDXGIFo
	DD	$LN64@DXUTDXGIFo
	DD	$LN63@DXUTDXGIFo
	DD	$LN62@DXUTDXGIFo
	DD	$LN61@DXUTDXGIFo
	DD	$LN60@DXUTDXGIFo
	DD	$LN59@DXUTDXGIFo
	DD	$LN58@DXUTDXGIFo
	DD	$LN57@DXUTDXGIFo
	DD	$LN56@DXUTDXGIFo
	DD	$LN55@DXUTDXGIFo
	DD	$LN54@DXUTDXGIFo
	DD	$LN53@DXUTDXGIFo
	DD	$LN52@DXUTDXGIFo
	DD	$LN51@DXUTDXGIFo
	DD	$LN50@DXUTDXGIFo
	DD	$LN49@DXUTDXGIFo
	DD	$LN48@DXUTDXGIFo
	DD	$LN47@DXUTDXGIFo
	DD	$LN46@DXUTDXGIFo
	DD	$LN45@DXUTDXGIFo
	DD	$LN44@DXUTDXGIFo
	DD	$LN43@DXUTDXGIFo
	DD	$LN42@DXUTDXGIFo
	DD	$LN41@DXUTDXGIFo
	DD	$LN40@DXUTDXGIFo
	DD	$LN39@DXUTDXGIFo
	DD	$LN38@DXUTDXGIFo
	DD	$LN37@DXUTDXGIFo
	DD	$LN36@DXUTDXGIFo
	DD	$LN35@DXUTDXGIFo
	DD	$LN34@DXUTDXGIFo
	DD	$LN33@DXUTDXGIFo
	DD	$LN32@DXUTDXGIFo
	DD	$LN31@DXUTDXGIFo
	DD	$LN30@DXUTDXGIFo
	DD	$LN29@DXUTDXGIFo
	DD	$LN28@DXUTDXGIFo
	DD	$LN27@DXUTDXGIFo
	DD	$LN26@DXUTDXGIFo
	DD	$LN25@DXUTDXGIFo
	DD	$LN24@DXUTDXGIFo
	DD	$LN23@DXUTDXGIFo
	DD	$LN22@DXUTDXGIFo
	DD	$LN21@DXUTDXGIFo
	DD	$LN20@DXUTDXGIFo
	DD	$LN19@DXUTDXGIFo
	DD	$LN18@DXUTDXGIFo
	DD	$LN17@DXUTDXGIFo
	DD	$LN16@DXUTDXGIFo
	DD	$LN15@DXUTDXGIFo
	DD	$LN14@DXUTDXGIFo
	DD	$LN13@DXUTDXGIFo
	DD	$LN12@DXUTDXGIFo
	DD	$LN11@DXUTDXGIFo
	DD	$LN10@DXUTDXGIFo
	DD	$LN9@DXUTDXGIFo
	DD	$LN8@DXUTDXGIFo
	DD	$LN7@DXUTDXGIFo
	DD	$LN6@DXUTDXGIFo
	DD	$LN4@DXUTDXGIFo
	DD	$LN4@DXUTDXGIFo
	DD	$LN4@DXUTDXGIFo
	DD	$LN4@DXUTDXGIFo
	DD	$LN4@DXUTDXGIFo
	DD	$LN4@DXUTDXGIFo
	DD	$LN4@DXUTDXGIFo
	DD	$LN4@DXUTDXGIFo
	DD	$LN4@DXUTDXGIFo
	DD	$LN4@DXUTDXGIFo
	DD	$LN4@DXUTDXGIFo
	DD	$LN4@DXUTDXGIFo
	DD	$LN4@DXUTDXGIFo
	DD	$LN4@DXUTDXGIFo
	DD	$LN4@DXUTDXGIFo
	DD	$LN5@DXUTDXGIFo
?DXUTDXGIFormatToString@@YGPB_WW4DXGI_FORMAT@@_N@Z ENDP	; DXUTDXGIFormatToString
_TEXT	ENDS
; Function compile flags: /Odtp /RTCsu
_TEXT	SEGMENT
__$EHRec$ = -12						; size = 12
?DXUTGetGlobalTimer@@YGPAVCDXUTTimer@@XZ PROC		; DXUTGetGlobalTimer
; File d:\engine class\assignment 1\scratch\dxsse\dxut\core\dxutmisc.cpp
; Line 24
	push	ebp
	mov	ebp, esp
	push	-1
	push	__ehhandler$?DXUTGetGlobalTimer@@YGPAVCDXUTTimer@@XZ
	mov	eax, DWORD PTR fs:0
	push	eax
	mov	eax, DWORD PTR ___security_cookie
	xor	eax, ebp
	push	eax
	lea	eax, DWORD PTR __$EHRec$[ebp]
	mov	DWORD PTR fs:0, eax
; Line 26
	mov	eax, DWORD PTR ?$S1@?1??DXUTGetGlobalTimer@@YGPAVCDXUTTimer@@XZ@4IA
	and	eax, 1
	jne	SHORT $LN1@DXUTGetGlo
	mov	ecx, DWORD PTR ?$S1@?1??DXUTGetGlobalTimer@@YGPAVCDXUTTimer@@XZ@4IA
	or	ecx, 1
	mov	DWORD PTR ?$S1@?1??DXUTGetGlobalTimer@@YGPAVCDXUTTimer@@XZ@4IA, ecx
	mov	DWORD PTR __$EHRec$[ebp+8], 0
	mov	ecx, OFFSET ?timer@?1??DXUTGetGlobalTimer@@YGPAVCDXUTTimer@@XZ@4V2@A
	call	??0CDXUTTimer@@QAE@XZ			; CDXUTTimer::CDXUTTimer
	mov	DWORD PTR __$EHRec$[ebp+8], -1
$LN1@DXUTGetGlo:
; Line 27
	mov	eax, OFFSET ?timer@?1??DXUTGetGlobalTimer@@YGPAVCDXUTTimer@@XZ@4V2@A
; Line 28
	mov	ecx, DWORD PTR __$EHRec$[ebp]
	mov	DWORD PTR fs:0, ecx
	pop	ecx
	add	esp, 12					; 0000000cH
	cmp	ebp, esp
	call	__RTC_CheckEsp
	mov	esp, ebp
	pop	ebp
	ret	0
_TEXT	ENDS
text$x	SEGMENT
__unwindfunclet$?DXUTGetGlobalTimer@@YGPAVCDXUTTimer@@XZ$0:
	mov	eax, DWORD PTR ?$S1@?1??DXUTGetGlobalTimer@@YGPAVCDXUTTimer@@XZ@4IA
	and	eax, -2					; fffffffeH
	mov	DWORD PTR ?$S1@?1??DXUTGetGlobalTimer@@YGPAVCDXUTTimer@@XZ@4IA, eax
	ret	0
__ehhandler$?DXUTGetGlobalTimer@@YGPAVCDXUTTimer@@XZ:
	mov	edx, DWORD PTR [esp+8]
	lea	eax, DWORD PTR [edx+12]
	mov	ecx, DWORD PTR [edx-4]
	xor	ecx, eax
	call	@__security_check_cookie@4
	mov	eax, OFFSET __ehfuncinfo$?DXUTGetGlobalTimer@@YGPAVCDXUTTimer@@XZ
	jmp	___CxxFrameHandler3
text$x	ENDS
?DXUTGetGlobalTimer@@YGPAVCDXUTTimer@@XZ ENDP		; DXUTGetGlobalTimer
; Function compile flags: /Odtp /RTCsu
_TEXT	SEGMENT
tv69 = -24						; size = 4
_qwTime$ = -16						; size = 8
_this$ = -4						; size = 4
___$ReturnUdt$ = 8					; size = 4
?GetAdjustedCurrentTime@CDXUTTimer@@IBE?AT_LARGE_INTEGER@@XZ PROC ; CDXUTTimer::GetAdjustedCurrentTime
; _this$ = ecx
; File d:\engine class\assignment 1\scratch\dxsse\dxut\core\dxutmisc.cpp
; Line 166
	push	ebp
	mov	ebp, esp
	sub	esp, 24					; 00000018H
	push	esi
	mov	eax, -858993460				; ccccccccH
	mov	DWORD PTR [ebp-24], eax
	mov	DWORD PTR [ebp-20], eax
	mov	DWORD PTR [ebp-16], eax
	mov	DWORD PTR [ebp-12], eax
	mov	DWORD PTR [ebp-8], eax
	mov	DWORD PTR [ebp-4], eax
	mov	DWORD PTR _this$[ebp], ecx
; Line 168
	mov	eax, DWORD PTR _this$[ebp]
	mov	DWORD PTR tv69[ebp], eax
	mov	ecx, DWORD PTR tv69[ebp]
	mov	edx, DWORD PTR tv69[ebp]
	mov	eax, DWORD PTR [ecx+16]
	or	eax, DWORD PTR [edx+20]
	je	SHORT $LN2@GetAdjuste
; Line 169
	mov	ecx, DWORD PTR _this$[ebp]
	mov	edx, DWORD PTR [ecx+16]
	mov	DWORD PTR _qwTime$[ebp], edx
	mov	eax, DWORD PTR [ecx+20]
	mov	DWORD PTR _qwTime$[ebp+4], eax
; Line 170
	jmp	SHORT $LN1@GetAdjuste
$LN2@GetAdjuste:
; Line 171
	mov	esi, esp
	lea	ecx, DWORD PTR _qwTime$[ebp]
	push	ecx
	call	DWORD PTR __imp__QueryPerformanceCounter@4
	cmp	esi, esp
	call	__RTC_CheckEsp
$LN1@GetAdjuste:
; Line 172
	mov	edx, DWORD PTR ___$ReturnUdt$[ebp]
	mov	eax, DWORD PTR _qwTime$[ebp]
	mov	DWORD PTR [edx], eax
	mov	ecx, DWORD PTR _qwTime$[ebp+4]
	mov	DWORD PTR [edx+4], ecx
	mov	eax, DWORD PTR ___$ReturnUdt$[ebp]
; Line 173
	push	edx
	mov	ecx, ebp
	push	eax
	lea	edx, DWORD PTR $LN7@GetAdjuste
	call	@_RTC_CheckStackVars@8
	pop	eax
	pop	edx
	pop	esi
	add	esp, 24					; 00000018H
	cmp	ebp, esp
	call	__RTC_CheckEsp
	mov	esp, ebp
	pop	ebp
	ret	4
$LN7@GetAdjuste:
	DD	1
	DD	$LN6@GetAdjuste
$LN6@GetAdjuste:
	DD	-16					; fffffff0H
	DD	8
	DD	$LN5@GetAdjuste
$LN5@GetAdjuste:
	DB	113					; 00000071H
	DB	119					; 00000077H
	DB	84					; 00000054H
	DB	105					; 00000069H
	DB	109					; 0000006dH
	DB	101					; 00000065H
	DB	0
?GetAdjustedCurrentTime@CDXUTTimer@@IBE?AT_LARGE_INTEGER@@XZ ENDP ; CDXUTTimer::GetAdjustedCurrentTime
_TEXT	ENDS
; Function compile flags: /Odtp /RTCsu
_TEXT	SEGMENT
_hCurrentThread$1 = -40					; size = 4
_dwAffinityMask$2 = -36					; size = 4
_dwSystemAffinityMask$ = -28				; size = 4
_dwProcessAffinityMask$ = -16				; size = 4
_hCurrentProcess$ = -8					; size = 4
_this$ = -4						; size = 4
?LimitThreadAffinityToCurrentProc@CDXUTTimer@@QAEXXZ PROC ; CDXUTTimer::LimitThreadAffinityToCurrentProc
; _this$ = ecx
; File d:\engine class\assignment 1\scratch\dxsse\dxut\core\dxutmisc.cpp
; Line 181
	push	ebp
	mov	ebp, esp
	sub	esp, 40					; 00000028H
	push	esi
	push	edi
	push	ecx
	lea	edi, DWORD PTR [ebp-40]
	mov	ecx, 10					; 0000000aH
	mov	eax, -858993460				; ccccccccH
	rep stosd
	pop	ecx
	mov	DWORD PTR _this$[ebp], ecx
; Line 182
	mov	esi, esp
	call	DWORD PTR __imp__GetCurrentProcess@0
	cmp	esi, esp
	call	__RTC_CheckEsp
	mov	DWORD PTR _hCurrentProcess$[ebp], eax
; Line 185
	mov	DWORD PTR _dwProcessAffinityMask$[ebp], 0
; Line 186
	mov	DWORD PTR _dwSystemAffinityMask$[ebp], 0
; Line 189
	mov	esi, esp
	lea	eax, DWORD PTR _dwSystemAffinityMask$[ebp]
	push	eax
	lea	ecx, DWORD PTR _dwProcessAffinityMask$[ebp]
	push	ecx
	mov	edx, DWORD PTR _hCurrentProcess$[ebp]
	push	edx
	call	DWORD PTR __imp__GetProcessAffinityMask@12
	cmp	esi, esp
	call	__RTC_CheckEsp
	test	eax, eax
	je	SHORT $LN2@LimitThrea
	cmp	DWORD PTR _dwProcessAffinityMask$[ebp], 0
	je	SHORT $LN2@LimitThrea
; Line 192
	mov	eax, DWORD PTR _dwProcessAffinityMask$[ebp]
	not	eax
	add	eax, 1
	and	eax, DWORD PTR _dwProcessAffinityMask$[ebp]
	mov	DWORD PTR _dwAffinityMask$2[ebp], eax
; Line 196
	mov	esi, esp
	call	DWORD PTR __imp__GetCurrentThread@0
	cmp	esi, esp
	call	__RTC_CheckEsp
	mov	DWORD PTR _hCurrentThread$1[ebp], eax
; Line 197
	cmp	DWORD PTR _hCurrentThread$1[ebp], -1
	je	SHORT $LN2@LimitThrea
; Line 199
	mov	esi, esp
	mov	ecx, DWORD PTR _dwAffinityMask$2[ebp]
	push	ecx
	mov	edx, DWORD PTR _hCurrentThread$1[ebp]
	push	edx
	call	DWORD PTR __imp__SetThreadAffinityMask@8
	cmp	esi, esp
	call	__RTC_CheckEsp
; Line 200
	mov	esi, esp
	mov	eax, DWORD PTR _hCurrentThread$1[ebp]
	push	eax
	call	DWORD PTR __imp__CloseHandle@4
	cmp	esi, esp
	call	__RTC_CheckEsp
$LN2@LimitThrea:
; Line 204
	mov	esi, esp
	mov	ecx, DWORD PTR _hCurrentProcess$[ebp]
	push	ecx
	call	DWORD PTR __imp__CloseHandle@4
	cmp	esi, esp
	call	__RTC_CheckEsp
; Line 205
	push	edx
	mov	ecx, ebp
	push	eax
	lea	edx, DWORD PTR $LN8@LimitThrea
	call	@_RTC_CheckStackVars@8
	pop	eax
	pop	edx
	pop	edi
	pop	esi
	add	esp, 40					; 00000028H
	cmp	ebp, esp
	call	__RTC_CheckEsp
	mov	esp, ebp
	pop	ebp
	ret	0
	npad	3
$LN8@LimitThrea:
	DD	2
	DD	$LN7@LimitThrea
$LN7@LimitThrea:
	DD	-16					; fffffff0H
	DD	4
	DD	$LN5@LimitThrea
	DD	-28					; ffffffe4H
	DD	4
	DD	$LN6@LimitThrea
$LN6@LimitThrea:
	DB	100					; 00000064H
	DB	119					; 00000077H
	DB	83					; 00000053H
	DB	121					; 00000079H
	DB	115					; 00000073H
	DB	116					; 00000074H
	DB	101					; 00000065H
	DB	109					; 0000006dH
	DB	65					; 00000041H
	DB	102					; 00000066H
	DB	102					; 00000066H
	DB	105					; 00000069H
	DB	110					; 0000006eH
	DB	105					; 00000069H
	DB	116					; 00000074H
	DB	121					; 00000079H
	DB	77					; 0000004dH
	DB	97					; 00000061H
	DB	115					; 00000073H
	DB	107					; 0000006bH
	DB	0
$LN5@LimitThrea:
	DB	100					; 00000064H
	DB	119					; 00000077H
	DB	80					; 00000050H
	DB	114					; 00000072H
	DB	111					; 0000006fH
	DB	99					; 00000063H
	DB	101					; 00000065H
	DB	115					; 00000073H
	DB	115					; 00000073H
	DB	65					; 00000041H
	DB	102					; 00000066H
	DB	102					; 00000066H
	DB	105					; 00000069H
	DB	110					; 0000006eH
	DB	105					; 00000069H
	DB	116					; 00000074H
	DB	121					; 00000079H
	DB	77					; 0000004dH
	DB	97					; 00000061H
	DB	115					; 00000073H
	DB	107					; 0000006bH
	DB	0
?LimitThreadAffinityToCurrentProc@CDXUTTimer@@QAEXXZ ENDP ; CDXUTTimer::LimitThreadAffinityToCurrentProc
_TEXT	ENDS
; Function compile flags: /Odtp /RTCsu
_TEXT	SEGMENT
tv191 = -48						; size = 8
tv189 = -40						; size = 8
tv187 = -32						; size = 8
_fElapsedTime$ = -24					; size = 4
_qwTime$ = -16						; size = 8
_this$ = -4						; size = 4
_pfTime$ = 8						; size = 4
_pfAbsoluteTime$ = 12					; size = 4
_pfElapsedTime$ = 16					; size = 4
?GetTimeValues@CDXUTTimer@@QAEXPAN0PAM@Z PROC		; CDXUTTimer::GetTimeValues
; _this$ = ecx
; File d:\engine class\assignment 1\scratch\dxsse\dxut\core\dxutmisc.cpp
; Line 122
	push	ebp
	mov	ebp, esp
	sub	esp, 48					; 00000030H
	push	esi
	push	edi
	push	ecx
	lea	edi, DWORD PTR [ebp-48]
	mov	ecx, 12					; 0000000cH
	mov	eax, -858993460				; ccccccccH
	rep stosd
	pop	ecx
	mov	DWORD PTR _this$[ebp], ecx
; Line 123
	cmp	DWORD PTR _pfTime$[ebp], 0
	je	SHORT $LN4@GetTimeVal
	cmp	DWORD PTR _pfAbsoluteTime$[ebp], 0
	je	SHORT $LN4@GetTimeVal
	cmp	DWORD PTR _pfElapsedTime$[ebp], 0
	jne	SHORT $LN5@GetTimeVal
$LN4@GetTimeVal:
	mov	esi, esp
	push	123					; 0000007bH
	push	OFFSET $SG152081
	push	OFFSET $SG152082
	call	DWORD PTR __imp___wassert
	add	esp, 12					; 0000000cH
	cmp	esi, esp
	call	__RTC_CheckEsp
$LN5@GetTimeVal:
; Line 125
	lea	ecx, DWORD PTR _qwTime$[ebp]
	push	ecx
	mov	ecx, DWORD PTR _this$[ebp]
	call	?GetAdjustedCurrentTime@CDXUTTimer@@IBE?AT_LARGE_INTEGER@@XZ ; CDXUTTimer::GetAdjustedCurrentTime
; Line 127
	mov	edx, DWORD PTR _this$[ebp]
	mov	ecx, DWORD PTR _qwTime$[ebp]
	sub	ecx, DWORD PTR [edx+24]
	mov	eax, DWORD PTR _qwTime$[ebp+4]
	sbb	eax, DWORD PTR [edx+28]
	mov	edx, eax
	call	__ltod3
	mov	ecx, DWORD PTR _this$[ebp]
	mov	eax, DWORD PTR [ecx+8]
	mov	edx, DWORD PTR [ecx+12]
	mov	ecx, eax
	movsd	QWORD PTR tv187[ebp], xmm0
	call	__ltod3
	movsd	xmm1, QWORD PTR tv187[ebp]
	divsd	xmm1, xmm0
	cvtsd2ss xmm0, xmm1
	movss	DWORD PTR _fElapsedTime$[ebp], xmm0
; Line 128
	mov	ecx, DWORD PTR _this$[ebp]
	mov	edx, DWORD PTR _qwTime$[ebp]
	mov	DWORD PTR [ecx+24], edx
	mov	eax, DWORD PTR _qwTime$[ebp+4]
	mov	DWORD PTR [ecx+28], eax
; Line 137
	movss	xmm0, DWORD PTR __real@00000000
	comiss	xmm0, DWORD PTR _fElapsedTime$[ebp]
	jbe	SHORT $LN1@GetTimeVal
; Line 138
	movss	xmm0, DWORD PTR __real@00000000
	movss	DWORD PTR _fElapsedTime$[ebp], xmm0
$LN1@GetTimeVal:
; Line 140
	mov	edx, DWORD PTR _qwTime$[ebp+4]
	mov	ecx, DWORD PTR _qwTime$[ebp]
	call	__ltod3
	mov	ecx, DWORD PTR _this$[ebp]
	mov	eax, DWORD PTR [ecx+8]
	mov	edx, DWORD PTR [ecx+12]
	mov	ecx, eax
	movsd	QWORD PTR tv189[ebp], xmm0
	call	__ltod3
	movsd	xmm1, QWORD PTR tv189[ebp]
	divsd	xmm1, xmm0
	mov	ecx, DWORD PTR _pfAbsoluteTime$[ebp]
	movsd	QWORD PTR [ecx], xmm1
; Line 141
	mov	edx, DWORD PTR _this$[ebp]
	mov	ecx, DWORD PTR _qwTime$[ebp]
	sub	ecx, DWORD PTR [edx+32]
	mov	eax, DWORD PTR _qwTime$[ebp+4]
	sbb	eax, DWORD PTR [edx+36]
	mov	edx, eax
	call	__ltod3
	mov	ecx, DWORD PTR _this$[ebp]
	mov	eax, DWORD PTR [ecx+8]
	mov	edx, DWORD PTR [ecx+12]
	mov	ecx, eax
	movsd	QWORD PTR tv191[ebp], xmm0
	call	__ltod3
	movsd	xmm1, QWORD PTR tv191[ebp]
	divsd	xmm1, xmm0
	mov	ecx, DWORD PTR _pfTime$[ebp]
	movsd	QWORD PTR [ecx], xmm1
; Line 142
	mov	edx, DWORD PTR _pfElapsedTime$[ebp]
	movss	xmm0, DWORD PTR _fElapsedTime$[ebp]
	movss	DWORD PTR [edx], xmm0
; Line 143
	push	edx
	mov	ecx, ebp
	push	eax
	lea	edx, DWORD PTR $LN8@GetTimeVal
	call	@_RTC_CheckStackVars@8
	pop	eax
	pop	edx
	pop	edi
	pop	esi
	add	esp, 48					; 00000030H
	cmp	ebp, esp
	call	__RTC_CheckEsp
	mov	esp, ebp
	pop	ebp
	ret	12					; 0000000cH
	npad	3
$LN8@GetTimeVal:
	DD	1
	DD	$LN7@GetTimeVal
$LN7@GetTimeVal:
	DD	-16					; fffffff0H
	DD	8
	DD	$LN6@GetTimeVal
$LN6@GetTimeVal:
	DB	113					; 00000071H
	DB	119					; 00000077H
	DB	84					; 00000054H
	DB	105					; 00000069H
	DB	109					; 0000006dH
	DB	101					; 00000065H
	DB	0
?GetTimeValues@CDXUTTimer@@QAEXPAN0PAM@Z ENDP		; CDXUTTimer::GetTimeValues
_TEXT	ENDS
; Function compile flags: /Odtp /RTCsu
_TEXT	SEGMENT
tv136 = -40						; size = 4
tv140 = -36						; size = 8
_fElapsedTime$ = -28					; size = 8
_qwTime$ = -16						; size = 8
_this$ = -4						; size = 4
?GetElapsedTime@CDXUTTimer@@QAEMXZ PROC			; CDXUTTimer::GetElapsedTime
; _this$ = ecx
; File d:\engine class\assignment 1\scratch\dxsse\dxut\core\dxutmisc.cpp
; Line 148
	push	ebp
	mov	ebp, esp
	sub	esp, 40					; 00000028H
	push	edi
	push	ecx
	lea	edi, DWORD PTR [ebp-40]
	mov	ecx, 10					; 0000000aH
	mov	eax, -858993460				; ccccccccH
	rep stosd
	pop	ecx
	mov	DWORD PTR _this$[ebp], ecx
; Line 149
	lea	eax, DWORD PTR _qwTime$[ebp]
	push	eax
	mov	ecx, DWORD PTR _this$[ebp]
	call	?GetAdjustedCurrentTime@CDXUTTimer@@IBE?AT_LARGE_INTEGER@@XZ ; CDXUTTimer::GetAdjustedCurrentTime
; Line 151
	mov	ecx, DWORD PTR _this$[ebp]
	mov	eax, DWORD PTR _qwTime$[ebp]
	sub	eax, DWORD PTR [ecx+24]
	mov	edx, DWORD PTR _qwTime$[ebp+4]
	sbb	edx, DWORD PTR [ecx+28]
	mov	ecx, eax
	call	__ltod3
	mov	ecx, DWORD PTR _this$[ebp]
	mov	eax, DWORD PTR [ecx+8]
	mov	edx, DWORD PTR [ecx+12]
	mov	ecx, eax
	movsd	QWORD PTR tv140[ebp], xmm0
	call	__ltod3
	movsd	xmm1, QWORD PTR tv140[ebp]
	divsd	xmm1, xmm0
	cvtsd2ss xmm0, xmm1
	cvtss2sd xmm0, xmm0
	movsd	QWORD PTR _fElapsedTime$[ebp], xmm0
; Line 152
	mov	ecx, DWORD PTR _this$[ebp]
	mov	edx, DWORD PTR _qwTime$[ebp]
	mov	DWORD PTR [ecx+24], edx
	mov	eax, DWORD PTR _qwTime$[ebp+4]
	mov	DWORD PTR [ecx+28], eax
; Line 155
	movsd	xmm0, QWORD PTR __real@0000000000000000
	comisd	xmm0, QWORD PTR _fElapsedTime$[ebp]
	jbe	SHORT $LN1@GetElapsed
; Line 156
	movsd	xmm0, QWORD PTR __real@0000000000000000
	movsd	QWORD PTR _fElapsedTime$[ebp], xmm0
$LN1@GetElapsed:
; Line 158
	cvtsd2ss xmm0, QWORD PTR _fElapsedTime$[ebp]
	movss	DWORD PTR tv136[ebp], xmm0
	fld	DWORD PTR tv136[ebp]
; Line 159
	push	edx
	mov	ecx, ebp
	push	eax
	lea	edx, DWORD PTR $LN6@GetElapsed
	call	@_RTC_CheckStackVars@8
	pop	eax
	pop	edx
	pop	edi
	add	esp, 40					; 00000028H
	cmp	ebp, esp
	call	__RTC_CheckEsp
	mov	esp, ebp
	pop	ebp
	ret	0
$LN6@GetElapsed:
	DD	1
	DD	$LN5@GetElapsed
$LN5@GetElapsed:
	DD	-16					; fffffff0H
	DD	8
	DD	$LN4@GetElapsed
$LN4@GetElapsed:
	DB	113					; 00000071H
	DB	119					; 00000077H
	DB	84					; 00000054H
	DB	105					; 00000069H
	DB	109					; 0000006dH
	DB	101					; 00000065H
	DB	0
?GetElapsedTime@CDXUTTimer@@QAEMXZ ENDP			; CDXUTTimer::GetElapsedTime
_TEXT	ENDS
; Function compile flags: /Odtp /RTCsu
_TEXT	SEGMENT
tv93 = -36						; size = 8
_fAppTime$ = -28					; size = 8
_qwTime$ = -16						; size = 8
_this$ = -4						; size = 4
?GetTime@CDXUTTimer@@QBENXZ PROC			; CDXUTTimer::GetTime
; _this$ = ecx
; File d:\engine class\assignment 1\scratch\dxsse\dxut\core\dxutmisc.cpp
; Line 110
	push	ebp
	mov	ebp, esp
	sub	esp, 36					; 00000024H
	mov	eax, -858993460				; ccccccccH
	mov	DWORD PTR [ebp-36], eax
	mov	DWORD PTR [ebp-32], eax
	mov	DWORD PTR [ebp-28], eax
	mov	DWORD PTR [ebp-24], eax
	mov	DWORD PTR [ebp-20], eax
	mov	DWORD PTR [ebp-16], eax
	mov	DWORD PTR [ebp-12], eax
	mov	DWORD PTR [ebp-8], eax
	mov	DWORD PTR [ebp-4], eax
	mov	DWORD PTR _this$[ebp], ecx
; Line 111
	lea	eax, DWORD PTR _qwTime$[ebp]
	push	eax
	mov	ecx, DWORD PTR _this$[ebp]
	call	?GetAdjustedCurrentTime@CDXUTTimer@@IBE?AT_LARGE_INTEGER@@XZ ; CDXUTTimer::GetAdjustedCurrentTime
; Line 113
	mov	ecx, DWORD PTR _this$[ebp]
	mov	eax, DWORD PTR _qwTime$[ebp]
	sub	eax, DWORD PTR [ecx+32]
	mov	edx, DWORD PTR _qwTime$[ebp+4]
	sbb	edx, DWORD PTR [ecx+36]
	mov	ecx, eax
	call	__ltod3
	mov	ecx, DWORD PTR _this$[ebp]
	mov	eax, DWORD PTR [ecx+8]
	mov	edx, DWORD PTR [ecx+12]
	mov	ecx, eax
	movsd	QWORD PTR tv93[ebp], xmm0
	call	__ltod3
	movsd	xmm1, QWORD PTR tv93[ebp]
	divsd	xmm1, xmm0
	movsd	QWORD PTR _fAppTime$[ebp], xmm1
; Line 115
	fld	QWORD PTR _fAppTime$[ebp]
; Line 116
	push	edx
	mov	ecx, ebp
	push	eax
	lea	edx, DWORD PTR $LN5@GetTime
	call	@_RTC_CheckStackVars@8
	pop	eax
	pop	edx
	add	esp, 36					; 00000024H
	cmp	ebp, esp
	call	__RTC_CheckEsp
	mov	esp, ebp
	pop	ebp
	ret	0
$LN5@GetTime:
	DD	1
	DD	$LN4@GetTime
$LN4@GetTime:
	DD	-16					; fffffff0H
	DD	8
	DD	$LN3@GetTime
$LN3@GetTime:
	DB	113					; 00000071H
	DB	119					; 00000077H
	DB	84					; 00000054H
	DB	105					; 00000069H
	DB	109					; 0000006dH
	DB	101					; 00000065H
	DB	0
?GetTime@CDXUTTimer@@QBENXZ ENDP			; CDXUTTimer::GetTime
_TEXT	ENDS
; Function compile flags: /Odtp /RTCsu
_TEXT	SEGMENT
tv89 = -36						; size = 8
_fTime$ = -28						; size = 8
_qwTime$ = -16						; size = 8
_this$ = -4						; size = 4
?GetAbsoluteTime@CDXUTTimer@@QBENXZ PROC		; CDXUTTimer::GetAbsoluteTime
; _this$ = ecx
; File d:\engine class\assignment 1\scratch\dxsse\dxut\core\dxutmisc.cpp
; Line 98
	push	ebp
	mov	ebp, esp
	sub	esp, 36					; 00000024H
	push	esi
	mov	eax, -858993460				; ccccccccH
	mov	DWORD PTR [ebp-36], eax
	mov	DWORD PTR [ebp-32], eax
	mov	DWORD PTR [ebp-28], eax
	mov	DWORD PTR [ebp-24], eax
	mov	DWORD PTR [ebp-20], eax
	mov	DWORD PTR [ebp-16], eax
	mov	DWORD PTR [ebp-12], eax
	mov	DWORD PTR [ebp-8], eax
	mov	DWORD PTR [ebp-4], eax
	mov	DWORD PTR _this$[ebp], ecx
; Line 99
	mov	DWORD PTR _qwTime$[ebp], 0
	xor	eax, eax
	mov	DWORD PTR _qwTime$[ebp+4], eax
; Line 100
	mov	esi, esp
	lea	ecx, DWORD PTR _qwTime$[ebp]
	push	ecx
	call	DWORD PTR __imp__QueryPerformanceCounter@4
	cmp	esi, esp
	call	__RTC_CheckEsp
; Line 102
	mov	edx, DWORD PTR _qwTime$[ebp+4]
	mov	ecx, DWORD PTR _qwTime$[ebp]
	call	__ltod3
	mov	edx, DWORD PTR _this$[ebp]
	mov	ecx, DWORD PTR [edx+8]
	mov	edx, DWORD PTR [edx+12]
	movsd	QWORD PTR tv89[ebp], xmm0
	call	__ltod3
	movsd	xmm1, QWORD PTR tv89[ebp]
	divsd	xmm1, xmm0
	movsd	QWORD PTR _fTime$[ebp], xmm1
; Line 104
	fld	QWORD PTR _fTime$[ebp]
; Line 105
	push	edx
	mov	ecx, ebp
	push	eax
	lea	edx, DWORD PTR $LN5@GetAbsolut
	call	@_RTC_CheckStackVars@8
	pop	eax
	pop	edx
	pop	esi
	add	esp, 36					; 00000024H
	cmp	ebp, esp
	call	__RTC_CheckEsp
	mov	esp, ebp
	pop	ebp
	ret	0
$LN5@GetAbsolut:
	DD	1
	DD	$LN4@GetAbsolut
$LN4@GetAbsolut:
	DD	-16					; fffffff0H
	DD	8
	DD	$LN3@GetAbsolut
$LN3@GetAbsolut:
	DB	113					; 00000071H
	DB	119					; 00000077H
	DB	84					; 00000054H
	DB	105					; 00000069H
	DB	109					; 0000006dH
	DB	101					; 00000065H
	DB	0
?GetAbsoluteTime@CDXUTTimer@@QBENXZ ENDP		; CDXUTTimer::GetAbsoluteTime
_TEXT	ENDS
; Function compile flags: /Odtp /RTCsu
_TEXT	SEGMENT
_this$ = -4						; size = 4
?Advance@CDXUTTimer@@QAEXXZ PROC			; CDXUTTimer::Advance
; _this$ = ecx
; File d:\engine class\assignment 1\scratch\dxsse\dxut\core\dxutmisc.cpp
; Line 91
	push	ebp
	mov	ebp, esp
	push	ecx
	mov	DWORD PTR [ebp-4], -858993460		; ccccccccH
	mov	DWORD PTR _this$[ebp], ecx
; Line 92
	mov	eax, DWORD PTR _this$[ebp]
	push	0
	push	10					; 0000000aH
	mov	ecx, DWORD PTR [eax+12]
	push	ecx
	mov	edx, DWORD PTR [eax+8]
	push	edx
	call	__alldiv
	mov	ecx, DWORD PTR _this$[ebp]
	add	eax, DWORD PTR [ecx+16]
	adc	edx, DWORD PTR [ecx+20]
	mov	ecx, DWORD PTR _this$[ebp]
	mov	DWORD PTR [ecx+16], eax
	mov	DWORD PTR [ecx+20], edx
; Line 93
	add	esp, 4
	cmp	ebp, esp
	call	__RTC_CheckEsp
	mov	esp, ebp
	pop	ebp
	ret	0
?Advance@CDXUTTimer@@QAEXXZ ENDP			; CDXUTTimer::Advance
_TEXT	ENDS
; Function compile flags: /Odtp /RTCsu
_TEXT	SEGMENT
_qwTime$1 = -16						; size = 8
_this$ = -4						; size = 4
?Stop@CDXUTTimer@@QAEXXZ PROC				; CDXUTTimer::Stop
; _this$ = ecx
; File d:\engine class\assignment 1\scratch\dxsse\dxut\core\dxutmisc.cpp
; Line 77
	push	ebp
	mov	ebp, esp
	sub	esp, 20					; 00000014H
	push	esi
	mov	eax, -858993460				; ccccccccH
	mov	DWORD PTR [ebp-20], eax
	mov	DWORD PTR [ebp-16], eax
	mov	DWORD PTR [ebp-12], eax
	mov	DWORD PTR [ebp-8], eax
	mov	DWORD PTR [ebp-4], eax
	mov	DWORD PTR _this$[ebp], ecx
; Line 78
	mov	eax, DWORD PTR _this$[ebp]
	movzx	ecx, BYTE PTR [eax+1]
	test	ecx, ecx
	jne	SHORT $LN2@Stop
; Line 80
	mov	DWORD PTR _qwTime$1[ebp], 0
	xor	edx, edx
	mov	DWORD PTR _qwTime$1[ebp+4], edx
; Line 81
	mov	esi, esp
	lea	eax, DWORD PTR _qwTime$1[ebp]
	push	eax
	call	DWORD PTR __imp__QueryPerformanceCounter@4
	cmp	esi, esp
	call	__RTC_CheckEsp
; Line 82
	mov	ecx, DWORD PTR _this$[ebp]
	mov	edx, DWORD PTR _qwTime$1[ebp]
	mov	DWORD PTR [ecx+16], edx
	mov	eax, DWORD PTR _qwTime$1[ebp+4]
	mov	DWORD PTR [ecx+20], eax
; Line 83
	mov	ecx, DWORD PTR _this$[ebp]
	mov	edx, DWORD PTR _qwTime$1[ebp]
	mov	DWORD PTR [ecx+24], edx
	mov	eax, DWORD PTR _qwTime$1[ebp+4]
	mov	DWORD PTR [ecx+28], eax
; Line 84
	mov	ecx, DWORD PTR _this$[ebp]
	mov	BYTE PTR [ecx+1], 1
$LN2@Stop:
; Line 86
	push	edx
	mov	ecx, ebp
	push	eax
	lea	edx, DWORD PTR $LN6@Stop
	call	@_RTC_CheckStackVars@8
	pop	eax
	pop	edx
	pop	esi
	add	esp, 20					; 00000014H
	cmp	ebp, esp
	call	__RTC_CheckEsp
	mov	esp, ebp
	pop	ebp
	ret	0
	npad	3
$LN6@Stop:
	DD	1
	DD	$LN5@Stop
$LN5@Stop:
	DD	-16					; fffffff0H
	DD	8
	DD	$LN4@Stop
$LN4@Stop:
	DB	113					; 00000071H
	DB	119					; 00000077H
	DB	84					; 00000054H
	DB	105					; 00000069H
	DB	109					; 0000006dH
	DB	101					; 00000065H
	DB	0
?Stop@CDXUTTimer@@QAEXXZ ENDP				; CDXUTTimer::Stop
_TEXT	ENDS
; Function compile flags: /Odtp /RTCsu
_TEXT	SEGMENT
_qwTime$ = -16						; size = 8
_this$ = -4						; size = 4
?Start@CDXUTTimer@@QAEXXZ PROC				; CDXUTTimer::Start
; _this$ = ecx
; File d:\engine class\assignment 1\scratch\dxsse\dxut\core\dxutmisc.cpp
; Line 62
	push	ebp
	mov	ebp, esp
	sub	esp, 20					; 00000014H
	push	esi
	mov	eax, -858993460				; ccccccccH
	mov	DWORD PTR [ebp-20], eax
	mov	DWORD PTR [ebp-16], eax
	mov	DWORD PTR [ebp-12], eax
	mov	DWORD PTR [ebp-8], eax
	mov	DWORD PTR [ebp-4], eax
	mov	DWORD PTR _this$[ebp], ecx
; Line 64
	mov	DWORD PTR _qwTime$[ebp], 0
	xor	eax, eax
	mov	DWORD PTR _qwTime$[ebp+4], eax
; Line 65
	mov	esi, esp
	lea	ecx, DWORD PTR _qwTime$[ebp]
	push	ecx
	call	DWORD PTR __imp__QueryPerformanceCounter@4
	cmp	esi, esp
	call	__RTC_CheckEsp
; Line 67
	mov	edx, DWORD PTR _this$[ebp]
	movzx	eax, BYTE PTR [edx+1]
	test	eax, eax
	je	SHORT $LN1@Start
; Line 68
	mov	ecx, DWORD PTR _this$[ebp]
	mov	edx, DWORD PTR _qwTime$[ebp]
	sub	edx, DWORD PTR [ecx+16]
	mov	eax, DWORD PTR _qwTime$[ebp+4]
	sbb	eax, DWORD PTR [ecx+20]
	mov	ecx, DWORD PTR _this$[ebp]
	add	edx, DWORD PTR [ecx+32]
	adc	eax, DWORD PTR [ecx+36]
	mov	ecx, DWORD PTR _this$[ebp]
	mov	DWORD PTR [ecx+32], edx
	mov	DWORD PTR [ecx+36], eax
$LN1@Start:
; Line 69
	mov	edx, DWORD PTR _this$[ebp]
	mov	DWORD PTR [edx+16], 0
	mov	DWORD PTR [edx+20], 0
; Line 70
	mov	eax, DWORD PTR _this$[ebp]
	mov	ecx, DWORD PTR _qwTime$[ebp]
	mov	DWORD PTR [eax+24], ecx
	mov	edx, DWORD PTR _qwTime$[ebp+4]
	mov	DWORD PTR [eax+28], edx
; Line 71
	mov	eax, DWORD PTR _this$[ebp]
	mov	BYTE PTR [eax+1], 0
; Line 72
	push	edx
	mov	ecx, ebp
	push	eax
	lea	edx, DWORD PTR $LN6@Start
	call	@_RTC_CheckStackVars@8
	pop	eax
	pop	edx
	pop	esi
	add	esp, 20					; 00000014H
	cmp	ebp, esp
	call	__RTC_CheckEsp
	mov	esp, ebp
	pop	ebp
	ret	0
$LN6@Start:
	DD	1
	DD	$LN5@Start
$LN5@Start:
	DD	-16					; fffffff0H
	DD	8
	DD	$LN4@Start
$LN4@Start:
	DB	113					; 00000071H
	DB	119					; 00000077H
	DB	84					; 00000054H
	DB	105					; 00000069H
	DB	109					; 0000006dH
	DB	101					; 00000065H
	DB	0
?Start@CDXUTTimer@@QAEXXZ ENDP				; CDXUTTimer::Start
_TEXT	ENDS
; Function compile flags: /Odtp /RTCsu
_TEXT	SEGMENT
_qwTime$ = -16						; size = 8
_this$ = -4						; size = 4
?Reset@CDXUTTimer@@QAEXXZ PROC				; CDXUTTimer::Reset
; _this$ = ecx
; File d:\engine class\assignment 1\scratch\dxsse\dxut\core\dxutmisc.cpp
; Line 50
	push	ebp
	mov	ebp, esp
	sub	esp, 20					; 00000014H
	mov	eax, -858993460				; ccccccccH
	mov	DWORD PTR [ebp-20], eax
	mov	DWORD PTR [ebp-16], eax
	mov	DWORD PTR [ebp-12], eax
	mov	DWORD PTR [ebp-8], eax
	mov	DWORD PTR [ebp-4], eax
	mov	DWORD PTR _this$[ebp], ecx
; Line 51
	lea	eax, DWORD PTR _qwTime$[ebp]
	push	eax
	mov	ecx, DWORD PTR _this$[ebp]
	call	?GetAdjustedCurrentTime@CDXUTTimer@@IBE?AT_LARGE_INTEGER@@XZ ; CDXUTTimer::GetAdjustedCurrentTime
; Line 53
	mov	ecx, DWORD PTR _this$[ebp]
	mov	edx, DWORD PTR _qwTime$[ebp]
	mov	DWORD PTR [ecx+32], edx
	mov	eax, DWORD PTR _qwTime$[ebp+4]
	mov	DWORD PTR [ecx+36], eax
; Line 54
	mov	ecx, DWORD PTR _this$[ebp]
	mov	edx, DWORD PTR _qwTime$[ebp]
	mov	DWORD PTR [ecx+24], edx
	mov	eax, DWORD PTR _qwTime$[ebp+4]
	mov	DWORD PTR [ecx+28], eax
; Line 55
	mov	ecx, DWORD PTR _this$[ebp]
	mov	DWORD PTR [ecx+16], 0
	mov	DWORD PTR [ecx+20], 0
; Line 56
	mov	edx, DWORD PTR _this$[ebp]
	mov	BYTE PTR [edx+1], 0
; Line 57
	push	edx
	mov	ecx, ebp
	push	eax
	lea	edx, DWORD PTR $LN5@Reset
	call	@_RTC_CheckStackVars@8
	pop	eax
	pop	edx
	add	esp, 20					; 00000014H
	cmp	ebp, esp
	call	__RTC_CheckEsp
	mov	esp, ebp
	pop	ebp
	ret	0
	npad	2
$LN5@Reset:
	DD	1
	DD	$LN4@Reset
$LN4@Reset:
	DD	-16					; fffffff0H
	DD	8
	DD	$LN3@Reset
$LN3@Reset:
	DB	113					; 00000071H
	DB	119					; 00000077H
	DB	84					; 00000054H
	DB	105					; 00000069H
	DB	109					; 0000006dH
	DB	101					; 00000065H
	DB	0
?Reset@CDXUTTimer@@QAEXXZ ENDP				; CDXUTTimer::Reset
_TEXT	ENDS
; Function compile flags: /Odtp /RTCsu
_TEXT	SEGMENT
_qwTicksPerSec$ = -16					; size = 8
_this$ = -4						; size = 4
??0CDXUTTimer@@QAE@XZ PROC				; CDXUTTimer::CDXUTTimer
; _this$ = ecx
; File d:\engine class\assignment 1\scratch\dxsse\dxut\core\dxutmisc.cpp
; Line 33
	push	ebp
	mov	ebp, esp
	sub	esp, 20					; 00000014H
	push	esi
	mov	eax, -858993460				; ccccccccH
	mov	DWORD PTR [ebp-20], eax
	mov	DWORD PTR [ebp-16], eax
	mov	DWORD PTR [ebp-12], eax
	mov	DWORD PTR [ebp-8], eax
	mov	DWORD PTR [ebp-4], eax
	mov	DWORD PTR _this$[ebp], ecx
; Line 34
	mov	eax, DWORD PTR _this$[ebp]
	mov	BYTE PTR [eax+1], 1
; Line 35
	mov	ecx, DWORD PTR _this$[ebp]
	mov	DWORD PTR [ecx+8], 0
	mov	DWORD PTR [ecx+12], 0
; Line 37
	mov	edx, DWORD PTR _this$[ebp]
	mov	DWORD PTR [edx+16], 0
	mov	DWORD PTR [edx+20], 0
; Line 38
	mov	eax, DWORD PTR _this$[ebp]
	mov	DWORD PTR [eax+24], 0
	mov	DWORD PTR [eax+28], 0
; Line 39
	mov	ecx, DWORD PTR _this$[ebp]
	mov	DWORD PTR [ecx+32], 0
	mov	DWORD PTR [ecx+36], 0
; Line 42
	mov	DWORD PTR _qwTicksPerSec$[ebp], 0
	xor	edx, edx
	mov	DWORD PTR _qwTicksPerSec$[ebp+4], edx
; Line 43
	mov	esi, esp
	lea	eax, DWORD PTR _qwTicksPerSec$[ebp]
	push	eax
	call	DWORD PTR __imp__QueryPerformanceFrequency@4
	cmp	esi, esp
	call	__RTC_CheckEsp
; Line 44
	mov	ecx, DWORD PTR _this$[ebp]
	mov	edx, DWORD PTR _qwTicksPerSec$[ebp]
	mov	DWORD PTR [ecx+8], edx
	mov	eax, DWORD PTR _qwTicksPerSec$[ebp+4]
	mov	DWORD PTR [ecx+12], eax
; Line 45
	mov	eax, DWORD PTR _this$[ebp]
	push	edx
	mov	ecx, ebp
	push	eax
	lea	edx, DWORD PTR $LN5@CDXUTTimer
	call	@_RTC_CheckStackVars@8
	pop	eax
	pop	edx
	pop	esi
	add	esp, 20					; 00000014H
	cmp	ebp, esp
	call	__RTC_CheckEsp
	mov	esp, ebp
	pop	ebp
	ret	0
	npad	2
$LN5@CDXUTTimer:
	DD	1
	DD	$LN4@CDXUTTimer
$LN4@CDXUTTimer:
	DD	-16					; fffffff0H
	DD	8
	DD	$LN3@CDXUTTimer
$LN3@CDXUTTimer:
	DB	113					; 00000071H
	DB	119					; 00000077H
	DB	84					; 00000054H
	DB	105					; 00000069H
	DB	99					; 00000063H
	DB	107					; 0000006bH
	DB	115					; 00000073H
	DB	80					; 00000050H
	DB	101					; 00000065H
	DB	114					; 00000072H
	DB	83					; 00000053H
	DB	101					; 00000065H
	DB	99					; 00000063H
	DB	0
??0CDXUTTimer@@QAE@XZ ENDP				; CDXUTTimer::CDXUTTimer
_TEXT	ENDS
; Function compile flags: /Odtp /RTCsu
_TEXT	SEGMENT
tv160 = -36						; size = 4
tv159 = -32						; size = 4
$T1 = -28						; size = 4
_dc$ = -24						; size = 4
_hr$ = -20						; size = 4
_pBackBuffer$ = -12					; size = 4
_pSwap$ = -4						; size = 4
_szFileName$ = 8					; size = 4
_usedds$ = 12						; size = 1
?DXUTSnapD3D11Screenshot@@YAJPB_W_N@Z PROC		; DXUTSnapD3D11Screenshot
; File d:\engine class\assignment 1\scratch\dxsse\dxut\core\dxutmisc.cpp
; Line 1250
	push	ebp
	mov	ebp, esp
	sub	esp, 36					; 00000024H
	push	esi
	mov	eax, -858993460				; ccccccccH
	mov	DWORD PTR [ebp-36], eax
	mov	DWORD PTR [ebp-32], eax
	mov	DWORD PTR [ebp-28], eax
	mov	DWORD PTR [ebp-24], eax
	mov	DWORD PTR [ebp-20], eax
	mov	DWORD PTR [ebp-16], eax
	mov	DWORD PTR [ebp-12], eax
	mov	DWORD PTR [ebp-8], eax
	mov	DWORD PTR [ebp-4], eax
; Line 1251
	call	?DXUTGetDXGISwapChain@@YGPAUIDXGISwapChain@@XZ ; DXUTGetDXGISwapChain
	mov	DWORD PTR _pSwap$[ebp], eax
; Line 1253
	cmp	DWORD PTR _pSwap$[ebp], 0
	jne	SHORT $LN7@DXUTSnapD3
; Line 1254
	mov	eax, -2147467259			; 80004005H
	jmp	$LN8@DXUTSnapD3
$LN7@DXUTSnapD3:
; Line 1257
	mov	esi, esp
	lea	eax, DWORD PTR _pBackBuffer$[ebp]
	push	eax
	push	OFFSET __GUID_6f15aaf2_d208_4e89_9ab4_489535d34f9c
	push	0
	mov	ecx, DWORD PTR _pSwap$[ebp]
	mov	edx, DWORD PTR [ecx]
	mov	eax, DWORD PTR _pSwap$[ebp]
	push	eax
	mov	ecx, DWORD PTR [edx+36]
	call	ecx
	cmp	esi, esp
	call	__RTC_CheckEsp
	mov	DWORD PTR _hr$[ebp], eax
; Line 1258
	cmp	DWORD PTR _hr$[ebp], 0
	je	SHORT $LN6@DXUTSnapD3
; Line 1259
	mov	eax, DWORD PTR _hr$[ebp]
	jmp	$LN8@DXUTSnapD3
$LN6@DXUTSnapD3:
; Line 1261
	call	?DXUTGetD3D11DeviceContext@@YGPAUID3D11DeviceContext@@XZ ; DXUTGetD3D11DeviceContext
	mov	DWORD PTR _dc$[ebp], eax
; Line 1262
	cmp	DWORD PTR _dc$[ebp], 0
	jne	SHORT $LN5@DXUTSnapD3
; Line 1263
	cmp	DWORD PTR _pBackBuffer$[ebp], 0
	je	SHORT $LN4@DXUTSnapD3
	mov	edx, DWORD PTR _pBackBuffer$[ebp]
	mov	eax, DWORD PTR [edx]
	mov	esi, esp
	mov	ecx, DWORD PTR _pBackBuffer$[ebp]
	push	ecx
	mov	edx, DWORD PTR [eax+8]
	call	edx
	cmp	esi, esp
	call	__RTC_CheckEsp
	mov	DWORD PTR _pBackBuffer$[ebp], 0
$LN4@DXUTSnapD3:
; Line 1264
	mov	eax, -2147467259			; 80004005H
	jmp	SHORT $LN8@DXUTSnapD3
$LN5@DXUTSnapD3:
; Line 1267
	movzx	eax, BYTE PTR _usedds$[ebp]
	test	eax, eax
	je	SHORT $LN3@DXUTSnapD3
; Line 1269
	mov	ecx, DWORD PTR _szFileName$[ebp]
	push	ecx
	mov	edx, DWORD PTR _pBackBuffer$[ebp]
	push	edx
	mov	eax, DWORD PTR _dc$[ebp]
	push	eax
	call	?SaveDDSTextureToFile@DirectX@@YAJPAUID3D11DeviceContext@@PAUID3D11Resource@@PB_W@Z ; DirectX::SaveDDSTextureToFile
	add	esp, 12					; 0000000cH
	mov	DWORD PTR _hr$[ebp], eax
; Line 1271
	jmp	SHORT $LN2@DXUTSnapD3
$LN3@DXUTSnapD3:
; Line 1273
	sub	esp, 24					; 00000018H
	mov	ecx, esp
	mov	DWORD PTR $T1[ebp], esp
	push	0
	call	??0?$function@$$A6AXPAUIPropertyBag2@@@Z@std@@QAE@$$T@Z ; std::function<void __cdecl(IPropertyBag2 *)>::function<void __cdecl(IPropertyBag2 *)>
	mov	DWORD PTR tv159[ebp], eax
	push	0
	mov	ecx, DWORD PTR _szFileName$[ebp]
	push	ecx
	push	OFFSET _GUID_ContainerFormatBmp
	mov	edx, DWORD PTR _pBackBuffer$[ebp]
	push	edx
	mov	eax, DWORD PTR _dc$[ebp]
	push	eax
	call	?SaveWICTextureToFile@DirectX@@YAJPAUID3D11DeviceContext@@PAUID3D11Resource@@ABU_GUID@@PB_WPBU4@V?$function@$$A6AXPAUIPropertyBag2@@@Z@std@@@Z ; DirectX::SaveWICTextureToFile
	add	esp, 44					; 0000002cH
	mov	DWORD PTR tv160[ebp], eax
	mov	ecx, DWORD PTR tv160[ebp]
	mov	DWORD PTR _hr$[ebp], ecx
$LN2@DXUTSnapD3:
; Line 1276
	cmp	DWORD PTR _pBackBuffer$[ebp], 0
	je	SHORT $LN1@DXUTSnapD3
	mov	edx, DWORD PTR _pBackBuffer$[ebp]
	mov	eax, DWORD PTR [edx]
	mov	esi, esp
	mov	ecx, DWORD PTR _pBackBuffer$[ebp]
	push	ecx
	mov	edx, DWORD PTR [eax+8]
	call	edx
	cmp	esi, esp
	call	__RTC_CheckEsp
	mov	DWORD PTR _pBackBuffer$[ebp], 0
$LN1@DXUTSnapD3:
; Line 1278
	mov	eax, DWORD PTR _hr$[ebp]
$LN8@DXUTSnapD3:
; Line 1280
	push	edx
	mov	ecx, ebp
	push	eax
	lea	edx, DWORD PTR $LN13@DXUTSnapD3
	call	@_RTC_CheckStackVars@8
	pop	eax
	pop	edx
	pop	esi
	add	esp, 36					; 00000024H
	cmp	ebp, esp
	call	__RTC_CheckEsp
	mov	esp, ebp
	pop	ebp
	ret	0
	npad	3
$LN13@DXUTSnapD3:
	DD	1
	DD	$LN12@DXUTSnapD3
$LN12@DXUTSnapD3:
	DD	-12					; fffffff4H
	DD	4
	DD	$LN11@DXUTSnapD3
$LN11@DXUTSnapD3:
	DB	112					; 00000070H
	DB	66					; 00000042H
	DB	97					; 00000061H
	DB	99					; 00000063H
	DB	107					; 0000006bH
	DB	66					; 00000042H
	DB	117					; 00000075H
	DB	102					; 00000066H
	DB	102					; 00000066H
	DB	101					; 00000065H
	DB	114					; 00000072H
	DB	0
?DXUTSnapD3D11Screenshot@@YAJPB_W_N@Z ENDP		; DXUTSnapD3D11Screenshot
_TEXT	ENDS
; Function compile flags: /Odtp /RTCsu
_TEXT	SEGMENT
_hInst$1 = -4						; size = 4
_bEnable$ = 8						; size = 1
?DXUTEnableXInput@@YAX_N@Z PROC				; DXUTEnableXInput
; File d:\engine class\assignment 1\scratch\dxsse\dxut\core\dxutmisc.cpp
; Line 1051
	push	ebp
	mov	ebp, esp
	push	ecx
	push	esi
	mov	DWORD PTR [ebp-4], -858993460		; ccccccccH
; Line 1053
	cmp	DWORD PTR ?s_pXInputEnable@?1??DXUTEnableXInput@@YAX_N@Z@4P6GXH@ZA, 0
	jne	SHORT $LN3@DXUTEnable
; Line 1055
	mov	esi, esp
	push	2048					; 00000800H
	push	0
	push	OFFSET $SG153107
	call	DWORD PTR __imp__LoadLibraryExW@12
	cmp	esi, esp
	call	__RTC_CheckEsp
	mov	DWORD PTR _hInst$1[ebp], eax
; Line 1056
	cmp	DWORD PTR _hInst$1[ebp], 0
	je	SHORT $LN3@DXUTEnable
; Line 1057
	mov	esi, esp
	push	OFFSET $SG153110
	mov	eax, DWORD PTR _hInst$1[ebp]
	push	eax
	call	DWORD PTR __imp__GetProcAddress@8
	cmp	esi, esp
	call	__RTC_CheckEsp
	mov	DWORD PTR ?s_pXInputEnable@?1??DXUTEnableXInput@@YAX_N@Z@4P6GXH@ZA, eax
$LN3@DXUTEnable:
; Line 1060
	cmp	DWORD PTR ?s_pXInputEnable@?1??DXUTEnableXInput@@YAX_N@Z@4P6GXH@ZA, 0
	je	SHORT $LN4@DXUTEnable
; Line 1061
	movzx	ecx, BYTE PTR _bEnable$[ebp]
	mov	esi, esp
	push	ecx
	call	DWORD PTR ?s_pXInputEnable@?1??DXUTEnableXInput@@YAX_N@Z@4P6GXH@ZA
	cmp	esi, esp
	call	__RTC_CheckEsp
$LN4@DXUTEnable:
; Line 1062
	pop	esi
	add	esp, 4
	cmp	ebp, esp
	call	__RTC_CheckEsp
	mov	esp, ebp
	pop	ebp
	ret	0
?DXUTEnableXInput@@YAX_N@Z ENDP				; DXUTEnableXInput
_TEXT	ENDS
; Function compile flags: /Odtp /RTCsu
_TEXT	SEGMENT
_iUserIndex$1 = -20					; size = 4
_vibration$ = -12					; size = 4
_hInst$2 = -4						; size = 4
?DXUTStopRumbleOnAllControllers@@YAJXZ PROC		; DXUTStopRumbleOnAllControllers
; File d:\engine class\assignment 1\scratch\dxsse\dxut\core\dxutmisc.cpp
; Line 1070
	push	ebp
	mov	ebp, esp
	sub	esp, 20					; 00000014H
	push	esi
	mov	eax, -858993460				; ccccccccH
	mov	DWORD PTR [ebp-20], eax
	mov	DWORD PTR [ebp-16], eax
	mov	DWORD PTR [ebp-12], eax
	mov	DWORD PTR [ebp-8], eax
	mov	DWORD PTR [ebp-4], eax
; Line 1072
	cmp	DWORD PTR ?s_pXInputSetState@?1??DXUTStopRumbleOnAllControllers@@YAJXZ@4P6GKKPAU_XINPUT_VIBRATION@@@ZA, 0
	jne	SHORT $LN6@DXUTStopRu
; Line 1074
	mov	esi, esp
	push	2048					; 00000800H
	push	0
	push	OFFSET $SG153118
	call	DWORD PTR __imp__LoadLibraryExW@12
	cmp	esi, esp
	call	__RTC_CheckEsp
	mov	DWORD PTR _hInst$2[ebp], eax
; Line 1075
	cmp	DWORD PTR _hInst$2[ebp], 0
	je	SHORT $LN6@DXUTStopRu
; Line 1076
	mov	esi, esp
	push	OFFSET $SG153121
	mov	eax, DWORD PTR _hInst$2[ebp]
	push	eax
	call	DWORD PTR __imp__GetProcAddress@8
	cmp	esi, esp
	call	__RTC_CheckEsp
	mov	DWORD PTR ?s_pXInputSetState@?1??DXUTStopRumbleOnAllControllers@@YAJXZ@4P6GKKPAU_XINPUT_VIBRATION@@@ZA, eax
$LN6@DXUTStopRu:
; Line 1078
	cmp	DWORD PTR ?s_pXInputSetState@?1??DXUTStopRumbleOnAllControllers@@YAJXZ@4P6GKKPAU_XINPUT_VIBRATION@@@ZA, 0
	jne	SHORT $LN4@DXUTStopRu
; Line 1079
	mov	eax, -2147467259			; 80004005H
	jmp	SHORT $LN7@DXUTStopRu
$LN4@DXUTStopRu:
; Line 1082
	xor	ecx, ecx
	mov	WORD PTR _vibration$[ebp], cx
; Line 1083
	xor	edx, edx
	mov	WORD PTR _vibration$[ebp+2], dx
; Line 1084
	mov	DWORD PTR _iUserIndex$1[ebp], 0
	jmp	SHORT $LN3@DXUTStopRu
$LN2@DXUTStopRu:
	mov	eax, DWORD PTR _iUserIndex$1[ebp]
	add	eax, 1
	mov	DWORD PTR _iUserIndex$1[ebp], eax
$LN3@DXUTStopRu:
	cmp	DWORD PTR _iUserIndex$1[ebp], 4
	jge	SHORT $LN1@DXUTStopRu
; Line 1085
	mov	esi, esp
	lea	ecx, DWORD PTR _vibration$[ebp]
	push	ecx
	mov	edx, DWORD PTR _iUserIndex$1[ebp]
	push	edx
	call	DWORD PTR ?s_pXInputSetState@?1??DXUTStopRumbleOnAllControllers@@YAJXZ@4P6GKKPAU_XINPUT_VIBRATION@@@ZA
	cmp	esi, esp
	call	__RTC_CheckEsp
	jmp	SHORT $LN2@DXUTStopRu
$LN1@DXUTStopRu:
; Line 1087
	xor	eax, eax
$LN7@DXUTStopRu:
; Line 1088
	push	edx
	mov	ecx, ebp
	push	eax
	lea	edx, DWORD PTR $LN11@DXUTStopRu
	call	@_RTC_CheckStackVars@8
	pop	eax
	pop	edx
	pop	esi
	add	esp, 20					; 00000014H
	cmp	ebp, esp
	call	__RTC_CheckEsp
	mov	esp, ebp
	pop	ebp
	ret	0
$LN11@DXUTStopRu:
	DD	1
	DD	$LN10@DXUTStopRu
$LN10@DXUTStopRu:
	DD	-12					; fffffff4H
	DD	4
	DD	$LN9@DXUTStopRu
$LN9@DXUTStopRu:
	DB	118					; 00000076H
	DB	105					; 00000069H
	DB	98					; 00000062H
	DB	114					; 00000072H
	DB	97					; 00000061H
	DB	116					; 00000074H
	DB	105					; 00000069H
	DB	111					; 0000006fH
	DB	110					; 0000006eH
	DB	0
?DXUTStopRumbleOnAllControllers@@YAJXZ ENDP		; DXUTStopRumbleOnAllControllers
_TEXT	ENDS
; Function compile flags: /Odtp /RTCsu
_TEXT	SEGMENT
tv275 = -80						; size = 4
tv272 = -76						; size = 4
tv266 = -72						; size = 4
tv260 = -68						; size = 4
tv257 = -64						; size = 4
tv251 = -60						; size = 4
tv133 = -56						; size = 4
tv94 = -52						; size = 4
tv87 = -48						; size = 4
_bPressed$ = -41					; size = 1
_bWasConnected$ = -40					; size = 4
_dwResult$ = -36					; size = 4
_InputState$ = -28					; size = 16
_hInst$1 = -8						; size = 4
__$ArrayPad$ = -4					; size = 4
_dwPort$ = 8						; size = 4
_pGamePad$ = 12						; size = 4
_bThumbstickDeadZone$ = 16				; size = 1
_bSnapThumbstickToCardinals$ = 20			; size = 1
?DXUTGetGamepadState@@YAJKPAUDXUT_GAMEPAD@@_N1@Z PROC	; DXUTGetGamepadState
; File d:\engine class\assignment 1\scratch\dxsse\dxut\core\dxutmisc.cpp
; Line 940
	push	ebp
	mov	ebp, esp
	sub	esp, 80					; 00000050H
	push	esi
	push	edi
	lea	edi, DWORD PTR [ebp-80]
	mov	ecx, 20					; 00000014H
	mov	eax, -858993460				; ccccccccH
	rep stosd
	mov	eax, DWORD PTR ___security_cookie
	xor	eax, ebp
	mov	DWORD PTR __$ArrayPad$[ebp], eax
; Line 941
	cmp	DWORD PTR _dwPort$[ebp], 4
	jae	SHORT $LN17@DXUTGetGam
	cmp	DWORD PTR _pGamePad$[ebp], 0
	jne	SHORT $LN18@DXUTGetGam
$LN17@DXUTGetGam:
; Line 942
	mov	eax, -2147467259			; 80004005H
	jmp	$LN19@DXUTGetGam
$LN18@DXUTGetGam:
; Line 946
	cmp	DWORD PTR ?s_pXInputGetState@?3??DXUTGetGamepadState@@YAJKPAUDXUT_GAMEPAD@@_N1@Z@4P6GKKPAU_XINPUT_STATE@@@ZA, 0
	je	SHORT $LN15@DXUTGetGam
	cmp	DWORD PTR ?s_pXInputGetCapabilities@?3??DXUTGetGamepadState@@YAJKPAUDXUT_GAMEPAD@@_N1@Z@4P6GKKKPAU_XINPUT_CAPABILITIES@@@ZA, 0
	jne	SHORT $LN14@DXUTGetGam
$LN15@DXUTGetGam:
; Line 948
	mov	esi, esp
	push	2048					; 00000800H
	push	0
	push	OFFSET $SG153072
	call	DWORD PTR __imp__LoadLibraryExW@12
	cmp	esi, esp
	call	__RTC_CheckEsp
	mov	DWORD PTR _hInst$1[ebp], eax
; Line 949
	cmp	DWORD PTR _hInst$1[ebp], 0
	je	SHORT $LN14@DXUTGetGam
; Line 951
	mov	esi, esp
	push	OFFSET $SG153075
	mov	eax, DWORD PTR _hInst$1[ebp]
	push	eax
	call	DWORD PTR __imp__GetProcAddress@8
	cmp	esi, esp
	call	__RTC_CheckEsp
	mov	DWORD PTR ?s_pXInputGetState@?3??DXUTGetGamepadState@@YAJKPAUDXUT_GAMEPAD@@_N1@Z@4P6GKKPAU_XINPUT_STATE@@@ZA, eax
; Line 952
	mov	esi, esp
	push	OFFSET $SG153077
	mov	ecx, DWORD PTR _hInst$1[ebp]
	push	ecx
	call	DWORD PTR __imp__GetProcAddress@8
	cmp	esi, esp
	call	__RTC_CheckEsp
	mov	DWORD PTR ?s_pXInputGetCapabilities@?3??DXUTGetGamepadState@@YAJKPAUDXUT_GAMEPAD@@_N1@Z@4P6GKKKPAU_XINPUT_CAPABILITIES@@@ZA, eax
$LN14@DXUTGetGam:
; Line 955
	cmp	DWORD PTR ?s_pXInputGetState@?3??DXUTGetGamepadState@@YAJKPAUDXUT_GAMEPAD@@_N1@Z@4P6GKKPAU_XINPUT_STATE@@@ZA, 0
	jne	SHORT $LN13@DXUTGetGam
; Line 956
	mov	eax, -2147467259			; 80004005H
	jmp	$LN19@DXUTGetGam
$LN13@DXUTGetGam:
; Line 959
	mov	esi, esp
	lea	edx, DWORD PTR _InputState$[ebp]
	push	edx
	mov	eax, DWORD PTR _dwPort$[ebp]
	push	eax
	call	DWORD PTR ?s_pXInputGetState@?3??DXUTGetGamepadState@@YAJKPAUDXUT_GAMEPAD@@_N1@Z@4P6GKKPAU_XINPUT_STATE@@@ZA
	cmp	esi, esp
	call	__RTC_CheckEsp
	mov	DWORD PTR _dwResult$[ebp], eax
; Line 962
	mov	ecx, DWORD PTR _pGamePad$[ebp]
	movzx	edx, BYTE PTR [ecx+32]
	mov	DWORD PTR _bWasConnected$[ebp], edx
; Line 963
	cmp	DWORD PTR _dwResult$[ebp], 0
	jne	SHORT $LN21@DXUTGetGam
	mov	DWORD PTR tv87[ebp], 1
	jmp	SHORT $LN22@DXUTGetGam
$LN21@DXUTGetGam:
	mov	DWORD PTR tv87[ebp], 0
$LN22@DXUTGetGam:
	mov	eax, DWORD PTR _pGamePad$[ebp]
	mov	cl, BYTE PTR tv87[ebp]
	mov	BYTE PTR [eax+32], cl
; Line 964
	cmp	DWORD PTR _bWasConnected$[ebp], 0
	je	SHORT $LN23@DXUTGetGam
	mov	edx, DWORD PTR _pGamePad$[ebp]
	movzx	eax, BYTE PTR [edx+32]
	test	eax, eax
	jne	SHORT $LN23@DXUTGetGam
	mov	DWORD PTR tv94[ebp], 1
	jmp	SHORT $LN24@DXUTGetGam
$LN23@DXUTGetGam:
	mov	DWORD PTR tv94[ebp], 0
$LN24@DXUTGetGam:
	mov	ecx, DWORD PTR _pGamePad$[ebp]
	mov	dl, BYTE PTR tv94[ebp]
	mov	BYTE PTR [ecx+34], dl
; Line 965
	cmp	DWORD PTR _bWasConnected$[ebp], 0
	jne	SHORT $LN25@DXUTGetGam
	mov	eax, DWORD PTR _pGamePad$[ebp]
	movzx	ecx, BYTE PTR [eax+32]
	test	ecx, ecx
	je	SHORT $LN25@DXUTGetGam
	mov	DWORD PTR tv133[ebp], 1
	jmp	SHORT $LN26@DXUTGetGam
$LN25@DXUTGetGam:
	mov	DWORD PTR tv133[ebp], 0
$LN26@DXUTGetGam:
	mov	edx, DWORD PTR _pGamePad$[ebp]
	mov	al, BYTE PTR tv133[ebp]
	mov	BYTE PTR [edx+33], al
; Line 968
	mov	ecx, DWORD PTR _pGamePad$[ebp]
	movzx	edx, BYTE PTR [ecx+32]
	test	edx, edx
	jne	SHORT $LN12@DXUTGetGam
; Line 969
	xor	eax, eax
	jmp	$LN19@DXUTGetGam
$LN12@DXUTGetGam:
; Line 972
	mov	eax, DWORD PTR _pGamePad$[ebp]
	movzx	ecx, BYTE PTR [eax+33]
	test	ecx, ecx
	je	SHORT $LN10@DXUTGetGam
; Line 974
	push	60					; 0000003cH
	push	0
	mov	edx, DWORD PTR _pGamePad$[ebp]
	push	edx
	call	_memset
	add	esp, 12					; 0000000cH
; Line 975
	mov	eax, DWORD PTR _pGamePad$[ebp]
	mov	BYTE PTR [eax+32], 1
; Line 976
	mov	ecx, DWORD PTR _pGamePad$[ebp]
	mov	BYTE PTR [ecx+33], 1
; Line 977
	cmp	DWORD PTR ?s_pXInputGetCapabilities@?3??DXUTGetGamepadState@@YAJKPAUDXUT_GAMEPAD@@_N1@Z@4P6GKKKPAU_XINPUT_CAPABILITIES@@@ZA, 0
	je	SHORT $LN10@DXUTGetGam
; Line 978
	mov	edx, DWORD PTR _pGamePad$[ebp]
	add	edx, 12					; 0000000cH
	mov	esi, esp
	push	edx
	push	1
	mov	eax, DWORD PTR _dwPort$[ebp]
	push	eax
	call	DWORD PTR ?s_pXInputGetCapabilities@?3??DXUTGetGamepadState@@YAJKPAUDXUT_GAMEPAD@@_N1@Z@4P6GKKKPAU_XINPUT_CAPABILITIES@@@ZA
	cmp	esi, esp
	call	__RTC_CheckEsp
$LN10@DXUTGetGam:
; Line 982
	mov	ecx, DWORD PTR _pGamePad$[ebp]
	mov	edx, DWORD PTR _InputState$[ebp+4]
	mov	DWORD PTR [ecx], edx
	mov	eax, DWORD PTR _InputState$[ebp+8]
	mov	DWORD PTR [ecx+4], eax
	mov	edx, DWORD PTR _InputState$[ebp+12]
	mov	DWORD PTR [ecx+8], edx
; Line 984
	movzx	eax, BYTE PTR _bSnapThumbstickToCardinals$[ebp]
	test	eax, eax
	je	$LN9@DXUTGetGam
; Line 988
	mov	ecx, DWORD PTR _pGamePad$[ebp]
	movsx	edx, WORD PTR [ecx+4]
	cmp	edx, 7849				; 00001ea9H
	jge	SHORT $LN8@DXUTGetGam
	mov	eax, DWORD PTR _pGamePad$[ebp]
	movsx	ecx, WORD PTR [eax+4]
	cmp	ecx, -7849				; ffffe157H
	jle	SHORT $LN8@DXUTGetGam
; Line 989
	xor	edx, edx
	mov	eax, DWORD PTR _pGamePad$[ebp]
	mov	WORD PTR [eax+4], dx
$LN8@DXUTGetGam:
; Line 991
	mov	ecx, DWORD PTR _pGamePad$[ebp]
	movsx	edx, WORD PTR [ecx+6]
	cmp	edx, 7849				; 00001ea9H
	jge	SHORT $LN7@DXUTGetGam
	mov	eax, DWORD PTR _pGamePad$[ebp]
	movsx	ecx, WORD PTR [eax+6]
	cmp	ecx, -7849				; ffffe157H
	jle	SHORT $LN7@DXUTGetGam
; Line 992
	xor	edx, edx
	mov	eax, DWORD PTR _pGamePad$[ebp]
	mov	WORD PTR [eax+6], dx
$LN7@DXUTGetGam:
; Line 994
	mov	ecx, DWORD PTR _pGamePad$[ebp]
	movsx	edx, WORD PTR [ecx+8]
	cmp	edx, 8689				; 000021f1H
	jge	SHORT $LN6@DXUTGetGam
	mov	eax, DWORD PTR _pGamePad$[ebp]
	movsx	ecx, WORD PTR [eax+8]
	cmp	ecx, -8689				; ffffde0fH
	jle	SHORT $LN6@DXUTGetGam
; Line 995
	xor	edx, edx
	mov	eax, DWORD PTR _pGamePad$[ebp]
	mov	WORD PTR [eax+8], dx
$LN6@DXUTGetGam:
; Line 997
	mov	ecx, DWORD PTR _pGamePad$[ebp]
	movsx	edx, WORD PTR [ecx+10]
	cmp	edx, 8689				; 000021f1H
	jge	SHORT $LN5@DXUTGetGam
	mov	eax, DWORD PTR _pGamePad$[ebp]
	movsx	ecx, WORD PTR [eax+10]
	cmp	ecx, -8689				; ffffde0fH
	jle	SHORT $LN5@DXUTGetGam
; Line 998
	xor	edx, edx
	mov	eax, DWORD PTR _pGamePad$[ebp]
	mov	WORD PTR [eax+10], dx
$LN5@DXUTGetGam:
; Line 999
	jmp	$LN1@DXUTGetGam
$LN9@DXUTGetGam:
; Line 1000
	movzx	ecx, BYTE PTR _bThumbstickDeadZone$[ebp]
	test	ecx, ecx
	je	$LN1@DXUTGetGam
; Line 1006
	mov	edx, DWORD PTR _pGamePad$[ebp]
	movsx	eax, WORD PTR [edx+4]
	cmp	eax, 7849				; 00001ea9H
	jge	SHORT $LN2@DXUTGetGam
	mov	ecx, DWORD PTR _pGamePad$[ebp]
	movsx	edx, WORD PTR [ecx+4]
	cmp	edx, -7849				; ffffe157H
	jle	SHORT $LN2@DXUTGetGam
	mov	eax, DWORD PTR _pGamePad$[ebp]
	movsx	ecx, WORD PTR [eax+6]
	cmp	ecx, 7849				; 00001ea9H
	jge	SHORT $LN2@DXUTGetGam
	mov	edx, DWORD PTR _pGamePad$[ebp]
	movsx	eax, WORD PTR [edx+6]
	cmp	eax, -7849				; ffffe157H
	jle	SHORT $LN2@DXUTGetGam
; Line 1008
	xor	ecx, ecx
	mov	edx, DWORD PTR _pGamePad$[ebp]
	mov	WORD PTR [edx+4], cx
; Line 1009
	xor	eax, eax
	mov	ecx, DWORD PTR _pGamePad$[ebp]
	mov	WORD PTR [ecx+6], ax
$LN2@DXUTGetGam:
; Line 1014
	mov	edx, DWORD PTR _pGamePad$[ebp]
	movsx	eax, WORD PTR [edx+8]
	cmp	eax, 8689				; 000021f1H
	jge	SHORT $LN1@DXUTGetGam
	mov	ecx, DWORD PTR _pGamePad$[ebp]
	movsx	edx, WORD PTR [ecx+8]
	cmp	edx, -8689				; ffffde0fH
	jle	SHORT $LN1@DXUTGetGam
	mov	eax, DWORD PTR _pGamePad$[ebp]
	movsx	ecx, WORD PTR [eax+10]
	cmp	ecx, 8689				; 000021f1H
	jge	SHORT $LN1@DXUTGetGam
	mov	edx, DWORD PTR _pGamePad$[ebp]
	movsx	eax, WORD PTR [edx+10]
	cmp	eax, -8689				; ffffde0fH
	jle	SHORT $LN1@DXUTGetGam
; Line 1016
	xor	ecx, ecx
	mov	edx, DWORD PTR _pGamePad$[ebp]
	mov	WORD PTR [edx+8], cx
; Line 1017
	xor	eax, eax
	mov	ecx, DWORD PTR _pGamePad$[ebp]
	mov	WORD PTR [ecx+10], ax
$LN1@DXUTGetGam:
; Line 1022
	mov	edx, DWORD PTR _pGamePad$[ebp]
	movsx	eax, WORD PTR [edx+4]
	cvtsi2ss xmm0, eax
	divss	xmm0, DWORD PTR __real@46fffe00
	mov	ecx, DWORD PTR _pGamePad$[ebp]
	movss	DWORD PTR [ecx+44], xmm0
; Line 1023
	mov	edx, DWORD PTR _pGamePad$[ebp]
	movsx	eax, WORD PTR [edx+6]
	cvtsi2ss xmm0, eax
	divss	xmm0, DWORD PTR __real@46fffe00
	mov	ecx, DWORD PTR _pGamePad$[ebp]
	movss	DWORD PTR [ecx+48], xmm0
; Line 1024
	mov	edx, DWORD PTR _pGamePad$[ebp]
	movsx	eax, WORD PTR [edx+8]
	cvtsi2ss xmm0, eax
	divss	xmm0, DWORD PTR __real@46fffe00
	mov	ecx, DWORD PTR _pGamePad$[ebp]
	movss	DWORD PTR [ecx+36], xmm0
; Line 1025
	mov	edx, DWORD PTR _pGamePad$[ebp]
	movsx	eax, WORD PTR [edx+10]
	cvtsi2ss xmm0, eax
	divss	xmm0, DWORD PTR __real@46fffe00
	mov	ecx, DWORD PTR _pGamePad$[ebp]
	movss	DWORD PTR [ecx+40], xmm0
; Line 1029
	mov	edx, DWORD PTR _pGamePad$[ebp]
	movzx	eax, WORD PTR [edx+56]
	mov	ecx, DWORD PTR _pGamePad$[ebp]
	movzx	edx, WORD PTR [ecx]
	xor	eax, edx
	mov	ecx, DWORD PTR _pGamePad$[ebp]
	movzx	edx, WORD PTR [ecx]
	and	eax, edx
	mov	ecx, DWORD PTR _pGamePad$[ebp]
	mov	WORD PTR [ecx+52], ax
; Line 1030
	mov	edx, DWORD PTR _pGamePad$[ebp]
	mov	eax, DWORD PTR _pGamePad$[ebp]
	mov	cx, WORD PTR [eax]
	mov	WORD PTR [edx+56], cx
; Line 1033
	mov	edx, DWORD PTR _pGamePad$[ebp]
	movzx	eax, BYTE PTR [edx+2]
	cmp	eax, 30					; 0000001eH
	jle	SHORT $LN27@DXUTGetGam
	mov	DWORD PTR tv251[ebp], 1
	jmp	SHORT $LN28@DXUTGetGam
$LN27@DXUTGetGam:
	mov	DWORD PTR tv251[ebp], 0
$LN28@DXUTGetGam:
	mov	cl, BYTE PTR tv251[ebp]
	mov	BYTE PTR _bPressed$[ebp], cl
; Line 1034
	movzx	edx, BYTE PTR _bPressed$[ebp]
	test	edx, edx
	je	SHORT $LN31@DXUTGetGam
	mov	eax, DWORD PTR _pGamePad$[ebp]
	movzx	ecx, BYTE PTR [eax+58]
	test	ecx, ecx
	jne	SHORT $LN29@DXUTGetGam
	mov	DWORD PTR tv257[ebp], 1
	jmp	SHORT $LN30@DXUTGetGam
$LN29@DXUTGetGam:
	mov	DWORD PTR tv257[ebp], 0
$LN30@DXUTGetGam:
	mov	edx, DWORD PTR tv257[ebp]
	mov	DWORD PTR tv260[ebp], edx
	jmp	SHORT $LN32@DXUTGetGam
$LN31@DXUTGetGam:
	mov	DWORD PTR tv260[ebp], 0
$LN32@DXUTGetGam:
	mov	eax, DWORD PTR _pGamePad$[ebp]
	mov	cl, BYTE PTR tv260[ebp]
	mov	BYTE PTR [eax+54], cl
; Line 1035
	mov	edx, DWORD PTR _pGamePad$[ebp]
	mov	al, BYTE PTR _bPressed$[ebp]
	mov	BYTE PTR [edx+58], al
; Line 1038
	mov	ecx, DWORD PTR _pGamePad$[ebp]
	movzx	edx, BYTE PTR [ecx+3]
	cmp	edx, 30					; 0000001eH
	jle	SHORT $LN33@DXUTGetGam
	mov	DWORD PTR tv266[ebp], 1
	jmp	SHORT $LN34@DXUTGetGam
$LN33@DXUTGetGam:
	mov	DWORD PTR tv266[ebp], 0
$LN34@DXUTGetGam:
	mov	al, BYTE PTR tv266[ebp]
	mov	BYTE PTR _bPressed$[ebp], al
; Line 1039
	movzx	ecx, BYTE PTR _bPressed$[ebp]
	test	ecx, ecx
	je	SHORT $LN37@DXUTGetGam
	mov	edx, DWORD PTR _pGamePad$[ebp]
	movzx	eax, BYTE PTR [edx+59]
	test	eax, eax
	jne	SHORT $LN35@DXUTGetGam
	mov	DWORD PTR tv272[ebp], 1
	jmp	SHORT $LN36@DXUTGetGam
$LN35@DXUTGetGam:
	mov	DWORD PTR tv272[ebp], 0
$LN36@DXUTGetGam:
	mov	ecx, DWORD PTR tv272[ebp]
	mov	DWORD PTR tv275[ebp], ecx
	jmp	SHORT $LN38@DXUTGetGam
$LN37@DXUTGetGam:
	mov	DWORD PTR tv275[ebp], 0
$LN38@DXUTGetGam:
	mov	edx, DWORD PTR _pGamePad$[ebp]
	mov	al, BYTE PTR tv275[ebp]
	mov	BYTE PTR [edx+55], al
; Line 1040
	mov	ecx, DWORD PTR _pGamePad$[ebp]
	mov	dl, BYTE PTR _bPressed$[ebp]
	mov	BYTE PTR [ecx+59], dl
; Line 1042
	xor	eax, eax
$LN19@DXUTGetGam:
; Line 1043
	push	edx
	mov	ecx, ebp
	push	eax
	lea	edx, DWORD PTR $LN41@DXUTGetGam
	call	@_RTC_CheckStackVars@8
	pop	eax
	pop	edx
	pop	edi
	pop	esi
	mov	ecx, DWORD PTR __$ArrayPad$[ebp]
	xor	ecx, ebp
	call	@__security_check_cookie@4
	add	esp, 80					; 00000050H
	cmp	ebp, esp
	call	__RTC_CheckEsp
	mov	esp, ebp
	pop	ebp
	ret	0
	npad	2
$LN41@DXUTGetGam:
	DD	1
	DD	$LN40@DXUTGetGam
$LN40@DXUTGetGam:
	DD	-28					; ffffffe4H
	DD	16					; 00000010H
	DD	$LN39@DXUTGetGam
$LN39@DXUTGetGam:
	DB	73					; 00000049H
	DB	110					; 0000006eH
	DB	112					; 00000070H
	DB	117					; 00000075H
	DB	116					; 00000074H
	DB	83					; 00000053H
	DB	116					; 00000074H
	DB	97					; 00000061H
	DB	116					; 00000074H
	DB	101					; 00000065H
	DB	0
?DXUTGetGamepadState@@YAJKPAUDXUT_GAMEPAD@@_N1@Z ENDP	; DXUTGetGamepadState
_TEXT	ENDS
; Function compile flags: /Odtp /RTCsu
;	COMDAT ?wcsstr@@YAPA_WPA_WPB_W@Z
_TEXT	SEGMENT
__Str$ = 8						; size = 4
__SubStr$ = 12						; size = 4
?wcsstr@@YAPA_WPA_WPB_W@Z PROC				; wcsstr, COMDAT
; File c:\program files (x86)\microsoft visual studio 12.0\vc\include\string.h
; Line 391
	push	ebp
	mov	ebp, esp
	push	esi
	mov	esi, esp
	mov	eax, DWORD PTR __SubStr$[ebp]
	push	eax
	mov	ecx, DWORD PTR __Str$[ebp]
	push	ecx
	call	DWORD PTR __imp__wcsstr
	add	esp, 8
	cmp	esi, esp
	call	__RTC_CheckEsp
	pop	esi
	cmp	ebp, esp
	call	__RTC_CheckEsp
	pop	ebp
	ret	0
?wcsstr@@YAPA_WPA_WPB_W@Z ENDP				; wcsstr
_TEXT	ENDS
END
