; Listing generated by Microsoft (R) Optimizing Compiler Version 18.00.30501.0 

	TITLE	D:\Engine Class\Assignment 1\Scratch\DXSSE\DXUT\Core\DXUT.cpp
	.686P
	.XMM
	include listing.inc
	.model	flat

INCLUDELIB MSVCRTD
INCLUDELIB OLDNAMES

PUBLIC	___@@_PchSym_@00@UvmtrmvLxozhhUzhhrtmnvmgLBUhxizgxsUwchhvUwcfgUxlivUyrmUwvhpglkPCABCUdrmDCUzhhvnyobwvyftUwcfgOlyq@DDEBF1AC87424D4D
PUBLIC	_GUID_VendorMicrosoft
PUBLIC	_IID_ID3D10Predicate
PUBLIC	_GUID_VendorMicrosoftBuiltIn
PUBLIC	_CLSID_WICPngDecoder
PUBLIC	_CLSID_WICPngDecoder1
PUBLIC	_CLSID_WICPngDecoder2
PUBLIC	_CLSID_WICBmpDecoder
PUBLIC	_CLSID_WICIcoDecoder
PUBLIC	_CLSID_WICJpegDecoder
PUBLIC	_CLSID_WICGifDecoder
PUBLIC	_CLSID_WICTiffDecoder
PUBLIC	_CLSID_WICWmpDecoder
PUBLIC	_CLSID_WICDdsDecoder
PUBLIC	_CLSID_WICBmpEncoder
PUBLIC	_CLSID_WICPngEncoder
PUBLIC	_CLSID_WICJpegEncoder
PUBLIC	_CLSID_WICGifEncoder
PUBLIC	_CLSID_WICTiffEncoder
PUBLIC	_CLSID_WICWmpEncoder
PUBLIC	_CLSID_WICDdsEncoder
PUBLIC	_GUID_ContainerFormatBmp
PUBLIC	_IID_ID3D11LibraryReflection
PUBLIC	_GUID_ContainerFormatPng
PUBLIC	_GUID_ContainerFormatIco
PUBLIC	_GUID_ContainerFormatJpeg
PUBLIC	_GUID_ContainerFormatTiff
PUBLIC	_GUID_ContainerFormatGif
PUBLIC	_GUID_ContainerFormatWmp
PUBLIC	_GUID_ContainerFormatDds
PUBLIC	_CLSID_WICImagingCategories
PUBLIC	_CATID_WICBitmapDecoders
PUBLIC	_CATID_WICBitmapEncoders
PUBLIC	_CATID_WICPixelFormats
PUBLIC	_CATID_WICFormatConverters
PUBLIC	_CATID_WICMetadataReader
PUBLIC	_CATID_WICMetadataWriter
PUBLIC	_CLSID_WICDefaultFormatConverter
PUBLIC	_IID_ID3D11SamplerState
PUBLIC	_CLSID_WICFormatConverterHighColor
PUBLIC	_CLSID_WICFormatConverterNChannel
PUBLIC	_CLSID_WICFormatConverterWMPhoto
PUBLIC	_CLSID_WICPlanarFormatConverter
PUBLIC	_IID_ID3D11FunctionReflection
PUBLIC	_IID_ID3D10EffectShaderResourceVariable
PUBLIC	?g_XMSinCoefficients0@DirectX@@3UXMVECTORF32@1@B ; DirectX::g_XMSinCoefficients0
PUBLIC	?g_XMSinCoefficients1@DirectX@@3UXMVECTORF32@1@B ; DirectX::g_XMSinCoefficients1
PUBLIC	?g_XMCosCoefficients0@DirectX@@3UXMVECTORF32@1@B ; DirectX::g_XMCosCoefficients0
PUBLIC	?g_XMCosCoefficients1@DirectX@@3UXMVECTORF32@1@B ; DirectX::g_XMCosCoefficients1
PUBLIC	?g_XMTanCoefficients0@DirectX@@3UXMVECTORF32@1@B ; DirectX::g_XMTanCoefficients0
PUBLIC	?g_XMTanCoefficients1@DirectX@@3UXMVECTORF32@1@B ; DirectX::g_XMTanCoefficients1
PUBLIC	?g_XMTanCoefficients2@DirectX@@3UXMVECTORF32@1@B ; DirectX::g_XMTanCoefficients2
PUBLIC	?g_XMArcCoefficients0@DirectX@@3UXMVECTORF32@1@B ; DirectX::g_XMArcCoefficients0
PUBLIC	_IID_ID3D11VideoDecoder
PUBLIC	?g_XMArcCoefficients1@DirectX@@3UXMVECTORF32@1@B ; DirectX::g_XMArcCoefficients1
PUBLIC	_IID_ID3D10DepthStencilState
PUBLIC	?g_XMATanCoefficients0@DirectX@@3UXMVECTORF32@1@B ; DirectX::g_XMATanCoefficients0
PUBLIC	?g_XMATanCoefficients1@DirectX@@3UXMVECTORF32@1@B ; DirectX::g_XMATanCoefficients1
PUBLIC	?g_XMATanEstCoefficients0@DirectX@@3UXMVECTORF32@1@B ; DirectX::g_XMATanEstCoefficients0
PUBLIC	?g_XMATanEstCoefficients1@DirectX@@3UXMVECTORF32@1@B ; DirectX::g_XMATanEstCoefficients1
PUBLIC	_GUID_WICPixelFormatDontCare
PUBLIC	_GUID_WICPixelFormat1bppIndexed
PUBLIC	_GUID_WICPixelFormat2bppIndexed
PUBLIC	_GUID_WICPixelFormat4bppIndexed
PUBLIC	_IID_ID3D10InfoQueue
PUBLIC	_GUID_WICPixelFormat8bppIndexed
PUBLIC	_GUID_WICPixelFormatBlackWhite
PUBLIC	_GUID_WICPixelFormat2bppGray
PUBLIC	_IID_ID3D11FunctionParameterReflection
PUBLIC	_GUID_WICPixelFormat4bppGray
PUBLIC	_GUID_WICPixelFormat8bppGray
PUBLIC	_GUID_WICPixelFormat8bppAlpha
PUBLIC	_GUID_WICPixelFormat16bppBGR555
PUBLIC	_GUID_WICPixelFormat16bppBGR565
PUBLIC	_GUID_WICPixelFormat16bppBGRA5551
PUBLIC	_GUID_WICPixelFormat16bppGray
PUBLIC	_GUID_WICPixelFormat24bppBGR
PUBLIC	_GUID_WICPixelFormat24bppRGB
PUBLIC	_GUID_WICPixelFormat32bppBGR
PUBLIC	_GUID_WICPixelFormat32bppBGRA
PUBLIC	_GUID_WICPixelFormat32bppPBGRA
PUBLIC	_GUID_WICPixelFormat32bppGrayFloat
PUBLIC	_IID_ID3D11Module
PUBLIC	_GUID_WICPixelFormat32bppRGBA
PUBLIC	_GUID_WICPixelFormat32bppPRGBA
PUBLIC	_GUID_WICPixelFormat48bppRGB
PUBLIC	_GUID_WICPixelFormat48bppBGR
PUBLIC	_GUID_WICPixelFormat64bppRGBA
PUBLIC	_GUID_WICPixelFormat64bppBGRA
PUBLIC	_GUID_WICPixelFormat64bppPRGBA
PUBLIC	?g_XMArcEstCoefficients@DirectX@@3UXMVECTORF32@1@B ; DirectX::g_XMArcEstCoefficients
PUBLIC	_GUID_WICPixelFormat64bppPBGRA
PUBLIC	_IID_ID3D10Counter
PUBLIC	_GUID_WICPixelFormat16bppGrayFixedPoint
PUBLIC	_GUID_WICPixelFormat32bppBGR101010
PUBLIC	_GUID_WICPixelFormat48bppRGBFixedPoint
PUBLIC	_GUID_WICPixelFormat48bppBGRFixedPoint
PUBLIC	?g_XMIdentityR0@DirectX@@3UXMVECTORF32@1@B	; DirectX::g_XMIdentityR0
PUBLIC	_GUID_WICPixelFormat96bppRGBFixedPoint
PUBLIC	?g_XMIdentityR1@DirectX@@3UXMVECTORF32@1@B	; DirectX::g_XMIdentityR1
PUBLIC	_IID_ID3D11Asynchronous
PUBLIC	?g_XMIdentityR2@DirectX@@3UXMVECTORF32@1@B	; DirectX::g_XMIdentityR2
PUBLIC	_GUID_WICPixelFormat128bppRGBAFloat
PUBLIC	?g_XMIdentityR3@DirectX@@3UXMVECTORF32@1@B	; DirectX::g_XMIdentityR3
PUBLIC	_GUID_WICPixelFormat128bppPRGBAFloat
PUBLIC	?g_XMNegIdentityR0@DirectX@@3UXMVECTORF32@1@B	; DirectX::g_XMNegIdentityR0
PUBLIC	_GUID_WICPixelFormat128bppRGBFloat
PUBLIC	_GUID_WICPixelFormat32bppCMYK
PUBLIC	?g_XMNegIdentityR1@DirectX@@3UXMVECTORF32@1@B	; DirectX::g_XMNegIdentityR1
PUBLIC	?g_XMNegIdentityR2@DirectX@@3UXMVECTORF32@1@B	; DirectX::g_XMNegIdentityR2
PUBLIC	_GUID_WICPixelFormat64bppRGBAFixedPoint
PUBLIC	?g_XMNegIdentityR3@DirectX@@3UXMVECTORF32@1@B	; DirectX::g_XMNegIdentityR3
PUBLIC	_GUID_WICPixelFormat64bppBGRAFixedPoint
PUBLIC	_IID_ID3D11ModuleInstance
PUBLIC	?g_XMNegativeZero@DirectX@@3UXMVECTORI32@1@B	; DirectX::g_XMNegativeZero
PUBLIC	_IID_ID3D10Device
PUBLIC	_GUID_WICPixelFormat64bppRGBFixedPoint
PUBLIC	?g_XMNegate3@DirectX@@3UXMVECTORI32@1@B		; DirectX::g_XMNegate3
PUBLIC	_GUID_WICPixelFormat128bppRGBAFixedPoint
PUBLIC	?g_XMMask3@DirectX@@3UXMVECTORI32@1@B		; DirectX::g_XMMask3
PUBLIC	_GUID_WICPixelFormat128bppRGBFixedPoint
PUBLIC	?g_XMMaskX@DirectX@@3UXMVECTORI32@1@B		; DirectX::g_XMMaskX
PUBLIC	_GUID_WICPixelFormat64bppRGBAHalf
PUBLIC	?g_XMMaskY@DirectX@@3UXMVECTORI32@1@B		; DirectX::g_XMMaskY
PUBLIC	_GUID_WICPixelFormat64bppRGBHalf
PUBLIC	?g_XMMaskZ@DirectX@@3UXMVECTORI32@1@B		; DirectX::g_XMMaskZ
PUBLIC	_GUID_WICPixelFormat48bppRGBHalf
PUBLIC	?g_XMMaskW@DirectX@@3UXMVECTORI32@1@B		; DirectX::g_XMMaskW
PUBLIC	_GUID_WICPixelFormat32bppRGBE
PUBLIC	?g_XMOne@DirectX@@3UXMVECTORF32@1@B		; DirectX::g_XMOne
PUBLIC	_GUID_WICPixelFormat16bppGrayHalf
PUBLIC	?g_XMOne3@DirectX@@3UXMVECTORF32@1@B		; DirectX::g_XMOne3
PUBLIC	_GUID_WICPixelFormat32bppGrayFixedPoint
PUBLIC	?g_XMZero@DirectX@@3UXMVECTORF32@1@B		; DirectX::g_XMZero
PUBLIC	_GUID_WICPixelFormat32bppRGBA1010102
PUBLIC	?g_XMTwo@DirectX@@3UXMVECTORF32@1@B		; DirectX::g_XMTwo
PUBLIC	_GUID_WICPixelFormat32bppRGBA1010102XR
PUBLIC	_GUID_WICPixelFormat64bppCMYK
PUBLIC	?g_XMFour@DirectX@@3UXMVECTORF32@1@B		; DirectX::g_XMFour
PUBLIC	_GUID_WICPixelFormat24bpp3Channels
PUBLIC	?g_XMSix@DirectX@@3UXMVECTORF32@1@B		; DirectX::g_XMSix
PUBLIC	?g_XMNegativeOne@DirectX@@3UXMVECTORF32@1@B	; DirectX::g_XMNegativeOne
PUBLIC	_GUID_WICPixelFormat32bpp4Channels
PUBLIC	_IID_ID3D10BlendState
PUBLIC	?g_XMOneHalf@DirectX@@3UXMVECTORF32@1@B		; DirectX::g_XMOneHalf
PUBLIC	_GUID_WICPixelFormat40bpp5Channels
PUBLIC	?g_XMNegativeOneHalf@DirectX@@3UXMVECTORF32@1@B	; DirectX::g_XMNegativeOneHalf
PUBLIC	_GUID_WICPixelFormat48bpp6Channels
PUBLIC	_GUID_WICPixelFormat56bpp7Channels
PUBLIC	_GUID_WICPixelFormat64bpp8Channels
PUBLIC	_GUID_WICPixelFormat48bpp3Channels
PUBLIC	_IID_ID3D10EffectRenderTargetViewVariable
PUBLIC	_GUID_WICPixelFormat64bpp4Channels
PUBLIC	_GUID_WICPixelFormat80bpp5Channels
PUBLIC	_GUID_WICPixelFormat96bpp6Channels
PUBLIC	_GUID_WICPixelFormat112bpp7Channels
PUBLIC	_GUID_WICPixelFormat128bpp8Channels
PUBLIC	_GUID_WICPixelFormat40bppCMYKAlpha
PUBLIC	_GUID_WICPixelFormat80bppCMYKAlpha
PUBLIC	_GUID_WICPixelFormat32bpp3ChannelsAlpha
PUBLIC	_GUID_WICPixelFormat40bpp4ChannelsAlpha
PUBLIC	_GUID_WICPixelFormat48bpp5ChannelsAlpha
PUBLIC	_GUID_WICPixelFormat56bpp6ChannelsAlpha
PUBLIC	_GUID_WICPixelFormat64bpp7ChannelsAlpha
PUBLIC	_GUID_WICPixelFormat72bpp8ChannelsAlpha
PUBLIC	_GUID_WICPixelFormat64bpp3ChannelsAlpha
PUBLIC	_GUID_WICPixelFormat80bpp4ChannelsAlpha
PUBLIC	_GUID_WICPixelFormat96bpp5ChannelsAlpha
PUBLIC	_GUID_WICPixelFormat112bpp6ChannelsAlpha
PUBLIC	_GUID_WICPixelFormat128bpp7ChannelsAlpha
PUBLIC	_GUID_WICPixelFormat144bpp8ChannelsAlpha
PUBLIC	_GUID_WICPixelFormat8bppY
PUBLIC	_GUID_WICPixelFormat8bppCb
PUBLIC	_GUID_WICPixelFormat8bppCr
PUBLIC	_GUID_WICPixelFormat16bppCbCr
PUBLIC	_IID_ID3D10RasterizerState
PUBLIC	?g_XMEpsilon@DirectX@@3UXMVECTORF32@1@B		; DirectX::g_XMEpsilon
PUBLIC	?g_XMInfinity@DirectX@@3UXMVECTORI32@1@B	; DirectX::g_XMInfinity
PUBLIC	?g_XMQNaN@DirectX@@3UXMVECTORI32@1@B		; DirectX::g_XMQNaN
PUBLIC	?g_XMQNaNTest@DirectX@@3UXMVECTORI32@1@B	; DirectX::g_XMQNaNTest
PUBLIC	?g_XMAbsMask@DirectX@@3UXMVECTORI32@1@B		; DirectX::g_XMAbsMask
PUBLIC	?g_XMFltMin@DirectX@@3UXMVECTORI32@1@B		; DirectX::g_XMFltMin
PUBLIC	?g_XMFltMax@DirectX@@3UXMVECTORI32@1@B		; DirectX::g_XMFltMax
PUBLIC	?g_XMNegOneMask@DirectX@@3UXMVECTORI32@1@B	; DirectX::g_XMNegOneMask
PUBLIC	?g_XMMaskA8R8G8B8@DirectX@@3UXMVECTORI32@1@B	; DirectX::g_XMMaskA8R8G8B8
PUBLIC	?g_XMFlipA8R8G8B8@DirectX@@3UXMVECTORI32@1@B	; DirectX::g_XMFlipA8R8G8B8
PUBLIC	_IID_ID3D11ShaderResourceView
PUBLIC	?g_XMFixAA8R8G8B8@DirectX@@3UXMVECTORF32@1@B	; DirectX::g_XMFixAA8R8G8B8
PUBLIC	?g_XMNormalizeA8R8G8B8@DirectX@@3UXMVECTORF32@1@B ; DirectX::g_XMNormalizeA8R8G8B8
PUBLIC	_IID_ID3D11Linker
PUBLIC	_IID_ID3D11VideoDevice
PUBLIC	?g_XMMaskA2B10G10R10@DirectX@@3UXMVECTORI32@1@B	; DirectX::g_XMMaskA2B10G10R10
PUBLIC	?g_XMFlipA2B10G10R10@DirectX@@3UXMVECTORI32@1@B	; DirectX::g_XMFlipA2B10G10R10
PUBLIC	?g_XMFixAA2B10G10R10@DirectX@@3UXMVECTORF32@1@B	; DirectX::g_XMFixAA2B10G10R10
PUBLIC	_GUID_DeviceType
PUBLIC	_IID_ID3D11Query
PUBLIC	?g_XMNormalizeA2B10G10R10@DirectX@@3UXMVECTORF32@1@B ; DirectX::g_XMNormalizeA2B10G10R10
PUBLIC	?g_XMMaskX16Y16@DirectX@@3UXMVECTORI32@1@B	; DirectX::g_XMMaskX16Y16
PUBLIC	?g_XMFlipX16Y16@DirectX@@3UXMVECTORI32@1@B	; DirectX::g_XMFlipX16Y16
PUBLIC	_IID_ID3D10Resource
PUBLIC	?g_XMFixX16Y16@DirectX@@3UXMVECTORF32@1@B	; DirectX::g_XMFixX16Y16
PUBLIC	?g_XMNormalizeX16Y16@DirectX@@3UXMVECTORF32@1@B	; DirectX::g_XMNormalizeX16Y16
PUBLIC	_D3D11_CRYPTO_TYPE_AES128_CTR
PUBLIC	?g_XMMaskX16Y16Z16W16@DirectX@@3UXMVECTORI32@1@B ; DirectX::g_XMMaskX16Y16Z16W16
PUBLIC	_IID_ID3D11Predicate
PUBLIC	?g_XMFlipX16Y16Z16W16@DirectX@@3UXMVECTORI32@1@B ; DirectX::g_XMFlipX16Y16Z16W16
PUBLIC	?AliceBlue@Colors@DirectX@@3UXMVECTORF32@2@B	; DirectX::Colors::AliceBlue
PUBLIC	?g_XMFixX16Y16Z16W16@DirectX@@3UXMVECTORF32@1@B	; DirectX::g_XMFixX16Y16Z16W16
PUBLIC	?AntiqueWhite@Colors@DirectX@@3UXMVECTORF32@2@B	; DirectX::Colors::AntiqueWhite
PUBLIC	?g_XMNormalizeX16Y16Z16W16@DirectX@@3UXMVECTORF32@1@B ; DirectX::g_XMNormalizeX16Y16Z16W16
PUBLIC	?Aqua@Colors@DirectX@@3UXMVECTORF32@2@B		; DirectX::Colors::Aqua
PUBLIC	?g_XMNoFraction@DirectX@@3UXMVECTORF32@1@B	; DirectX::g_XMNoFraction
PUBLIC	?Aquamarine@Colors@DirectX@@3UXMVECTORF32@2@B	; DirectX::Colors::Aquamarine
PUBLIC	?g_XMMaskByte@DirectX@@3UXMVECTORI32@1@B	; DirectX::g_XMMaskByte
PUBLIC	?Azure@Colors@DirectX@@3UXMVECTORF32@2@B	; DirectX::Colors::Azure
PUBLIC	?g_XMNegateX@DirectX@@3UXMVECTORF32@1@B		; DirectX::g_XMNegateX
PUBLIC	?Beige@Colors@DirectX@@3UXMVECTORF32@2@B	; DirectX::Colors::Beige
PUBLIC	?g_XMNegateY@DirectX@@3UXMVECTORF32@1@B		; DirectX::g_XMNegateY
PUBLIC	?Bisque@Colors@DirectX@@3UXMVECTORF32@2@B	; DirectX::Colors::Bisque
PUBLIC	?g_XMNegateZ@DirectX@@3UXMVECTORF32@1@B		; DirectX::g_XMNegateZ
PUBLIC	?Black@Colors@DirectX@@3UXMVECTORF32@2@B	; DirectX::Colors::Black
PUBLIC	?g_XMNegateW@DirectX@@3UXMVECTORF32@1@B		; DirectX::g_XMNegateW
PUBLIC	?BlanchedAlmond@Colors@DirectX@@3UXMVECTORF32@2@B ; DirectX::Colors::BlanchedAlmond
PUBLIC	?g_XMSelect0101@DirectX@@3UXMVECTORI32@1@B	; DirectX::g_XMSelect0101
PUBLIC	?Blue@Colors@DirectX@@3UXMVECTORF32@2@B		; DirectX::Colors::Blue
PUBLIC	?BlueViolet@Colors@DirectX@@3UXMVECTORF32@2@B	; DirectX::Colors::BlueViolet
PUBLIC	?g_XMSelect1010@DirectX@@3UXMVECTORI32@1@B	; DirectX::g_XMSelect1010
PUBLIC	?g_XMOneHalfMinusEpsilon@DirectX@@3UXMVECTORI32@1@B ; DirectX::g_XMOneHalfMinusEpsilon
PUBLIC	?Brown@Colors@DirectX@@3UXMVECTORF32@2@B	; DirectX::Colors::Brown
PUBLIC	_IID_ID3D11LinkingNode
PUBLIC	?g_XMSelect1000@DirectX@@3UXMVECTORI32@1@B	; DirectX::g_XMSelect1000
PUBLIC	?BurlyWood@Colors@DirectX@@3UXMVECTORF32@2@B	; DirectX::Colors::BurlyWood
PUBLIC	?g_XMSelect1100@DirectX@@3UXMVECTORI32@1@B	; DirectX::g_XMSelect1100
PUBLIC	?CadetBlue@Colors@DirectX@@3UXMVECTORF32@2@B	; DirectX::Colors::CadetBlue
PUBLIC	?Chartreuse@Colors@DirectX@@3UXMVECTORF32@2@B	; DirectX::Colors::Chartreuse
PUBLIC	?g_XMSelect1110@DirectX@@3UXMVECTORI32@1@B	; DirectX::g_XMSelect1110
PUBLIC	?g_XMSelect1011@DirectX@@3UXMVECTORI32@1@B	; DirectX::g_XMSelect1011
PUBLIC	?Chocolate@Colors@DirectX@@3UXMVECTORF32@2@B	; DirectX::Colors::Chocolate
PUBLIC	?Coral@Colors@DirectX@@3UXMVECTORF32@2@B	; DirectX::Colors::Coral
PUBLIC	?g_XMFixupY16@DirectX@@3UXMVECTORF32@1@B	; DirectX::g_XMFixupY16
PUBLIC	?g_XMFixupY16W16@DirectX@@3UXMVECTORF32@1@B	; DirectX::g_XMFixupY16W16
PUBLIC	?CornflowerBlue@Colors@DirectX@@3UXMVECTORF32@2@B ; DirectX::Colors::CornflowerBlue
PUBLIC	?g_XMFlipY@DirectX@@3UXMVECTORI32@1@B		; DirectX::g_XMFlipY
PUBLIC	?Cornsilk@Colors@DirectX@@3UXMVECTORF32@2@B	; DirectX::Colors::Cornsilk
PUBLIC	?g_XMFlipZ@DirectX@@3UXMVECTORI32@1@B		; DirectX::g_XMFlipZ
PUBLIC	?Crimson@Colors@DirectX@@3UXMVECTORF32@2@B	; DirectX::Colors::Crimson
PUBLIC	?g_XMFlipW@DirectX@@3UXMVECTORI32@1@B		; DirectX::g_XMFlipW
PUBLIC	?Cyan@Colors@DirectX@@3UXMVECTORF32@2@B		; DirectX::Colors::Cyan
PUBLIC	_IID_ID3D10EffectDepthStencilViewVariable
PUBLIC	?g_XMFlipYZ@DirectX@@3UXMVECTORI32@1@B		; DirectX::g_XMFlipYZ
PUBLIC	?DarkBlue@Colors@DirectX@@3UXMVECTORF32@2@B	; DirectX::Colors::DarkBlue
PUBLIC	?has_denorm@_Num_base@std@@2W4float_denorm_style@2@B ; std::_Num_base::has_denorm
PUBLIC	?g_XMFlipZW@DirectX@@3UXMVECTORI32@1@B		; DirectX::g_XMFlipZW
PUBLIC	?DarkCyan@Colors@DirectX@@3UXMVECTORF32@2@B	; DirectX::Colors::DarkCyan
PUBLIC	?g_XMFlipYW@DirectX@@3UXMVECTORI32@1@B		; DirectX::g_XMFlipYW
PUBLIC	?DarkGoldenrod@Colors@DirectX@@3UXMVECTORF32@2@B ; DirectX::Colors::DarkGoldenrod
PUBLIC	?g_XMMaskDec4@DirectX@@3UXMVECTORI32@1@B	; DirectX::g_XMMaskDec4
PUBLIC	?DarkGray@Colors@DirectX@@3UXMVECTORF32@2@B	; DirectX::Colors::DarkGray
PUBLIC	?has_denorm_loss@_Num_base@std@@2_NB		; std::_Num_base::has_denorm_loss
PUBLIC	?g_XMXorDec4@DirectX@@3UXMVECTORI32@1@B		; DirectX::g_XMXorDec4
PUBLIC	?DarkGreen@Colors@DirectX@@3UXMVECTORF32@2@B	; DirectX::Colors::DarkGreen
PUBLIC	?g_XMAddUDec4@DirectX@@3UXMVECTORF32@1@B	; DirectX::g_XMAddUDec4
PUBLIC	?DarkKhaki@Colors@DirectX@@3UXMVECTORF32@2@B	; DirectX::Colors::DarkKhaki
PUBLIC	_IID_ID3D10ShaderReflection1
PUBLIC	?DarkMagenta@Colors@DirectX@@3UXMVECTORF32@2@B	; DirectX::Colors::DarkMagenta
PUBLIC	?g_XMAddDec4@DirectX@@3UXMVECTORF32@1@B		; DirectX::g_XMAddDec4
PUBLIC	?has_infinity@_Num_base@std@@2_NB		; std::_Num_base::has_infinity
PUBLIC	?DarkOliveGreen@Colors@DirectX@@3UXMVECTORF32@2@B ; DirectX::Colors::DarkOliveGreen
PUBLIC	?g_XMMulDec4@DirectX@@3UXMVECTORF32@1@B		; DirectX::g_XMMulDec4
PUBLIC	_IID_ID3D11FunctionLinkingGraph
PUBLIC	?g_XMMaskByte4@DirectX@@3UXMVECTORI32@1@B	; DirectX::g_XMMaskByte4
PUBLIC	?DarkOrange@Colors@DirectX@@3UXMVECTORF32@2@B	; DirectX::Colors::DarkOrange
PUBLIC	?g_XMXorByte4@DirectX@@3UXMVECTORI32@1@B	; DirectX::g_XMXorByte4
PUBLIC	?DarkOrchid@Colors@DirectX@@3UXMVECTORF32@2@B	; DirectX::Colors::DarkOrchid
PUBLIC	?has_quiet_NaN@_Num_base@std@@2_NB		; std::_Num_base::has_quiet_NaN
PUBLIC	?g_XMAddByte4@DirectX@@3UXMVECTORF32@1@B	; DirectX::g_XMAddByte4
PUBLIC	?DarkRed@Colors@DirectX@@3UXMVECTORF32@2@B	; DirectX::Colors::DarkRed
PUBLIC	?DarkSalmon@Colors@DirectX@@3UXMVECTORF32@2@B	; DirectX::Colors::DarkSalmon
PUBLIC	?g_XMFixUnsigned@DirectX@@3UXMVECTORF32@1@B	; DirectX::g_XMFixUnsigned
PUBLIC	?DarkSeaGreen@Colors@DirectX@@3UXMVECTORF32@2@B	; DirectX::Colors::DarkSeaGreen
PUBLIC	?g_XMMaxInt@DirectX@@3UXMVECTORF32@1@B		; DirectX::g_XMMaxInt
PUBLIC	?has_signaling_NaN@_Num_base@std@@2_NB		; std::_Num_base::has_signaling_NaN
PUBLIC	?DarkSlateBlue@Colors@DirectX@@3UXMVECTORF32@2@B ; DirectX::Colors::DarkSlateBlue
PUBLIC	?g_XMMaxUInt@DirectX@@3UXMVECTORF32@1@B		; DirectX::g_XMMaxUInt
PUBLIC	?g_XMUnsignedFix@DirectX@@3UXMVECTORF32@1@B	; DirectX::g_XMUnsignedFix
PUBLIC	?DarkSlateGray@Colors@DirectX@@3UXMVECTORF32@2@B ; DirectX::Colors::DarkSlateGray
PUBLIC	?g_XMsrgbScale@DirectX@@3UXMVECTORF32@1@B	; DirectX::g_XMsrgbScale
PUBLIC	?DarkTurquoise@Colors@DirectX@@3UXMVECTORF32@2@B ; DirectX::Colors::DarkTurquoise
PUBLIC	?is_bounded@_Num_base@std@@2_NB			; std::_Num_base::is_bounded
PUBLIC	?DarkViolet@Colors@DirectX@@3UXMVECTORF32@2@B	; DirectX::Colors::DarkViolet
PUBLIC	?g_XMsrgbA@DirectX@@3UXMVECTORF32@1@B		; DirectX::g_XMsrgbA
PUBLIC	?g_XMsrgbA1@DirectX@@3UXMVECTORF32@1@B		; DirectX::g_XMsrgbA1
PUBLIC	?DeepPink@Colors@DirectX@@3UXMVECTORF32@2@B	; DirectX::Colors::DeepPink
PUBLIC	?g_XMExponentBias@DirectX@@3UXMVECTORI32@1@B	; DirectX::g_XMExponentBias
PUBLIC	?DeepSkyBlue@Colors@DirectX@@3UXMVECTORF32@2@B	; DirectX::Colors::DeepSkyBlue
PUBLIC	?is_exact@_Num_base@std@@2_NB			; std::_Num_base::is_exact
PUBLIC	?g_XMSubnormalExponent@DirectX@@3UXMVECTORI32@1@B ; DirectX::g_XMSubnormalExponent
PUBLIC	?DimGray@Colors@DirectX@@3UXMVECTORF32@2@B	; DirectX::Colors::DimGray
PUBLIC	?g_XMNumTrailing@DirectX@@3UXMVECTORI32@1@B	; DirectX::g_XMNumTrailing
PUBLIC	?DodgerBlue@Colors@DirectX@@3UXMVECTORF32@2@B	; DirectX::Colors::DodgerBlue
PUBLIC	?g_XMMinNormal@DirectX@@3UXMVECTORI32@1@B	; DirectX::g_XMMinNormal
PUBLIC	?Firebrick@Colors@DirectX@@3UXMVECTORF32@2@B	; DirectX::Colors::Firebrick
PUBLIC	?is_iec559@_Num_base@std@@2_NB			; std::_Num_base::is_iec559
PUBLIC	?g_XMNegInfinity@DirectX@@3UXMVECTORI32@1@B	; DirectX::g_XMNegInfinity
PUBLIC	?FloralWhite@Colors@DirectX@@3UXMVECTORF32@2@B	; DirectX::Colors::FloralWhite
PUBLIC	?g_XMNegQNaN@DirectX@@3UXMVECTORI32@1@B		; DirectX::g_XMNegQNaN
PUBLIC	?ForestGreen@Colors@DirectX@@3UXMVECTORF32@2@B	; DirectX::Colors::ForestGreen
PUBLIC	?g_XMBin128@DirectX@@3UXMVECTORI32@1@B		; DirectX::g_XMBin128
PUBLIC	?Fuchsia@Colors@DirectX@@3UXMVECTORF32@2@B	; DirectX::Colors::Fuchsia
PUBLIC	?is_integer@_Num_base@std@@2_NB			; std::_Num_base::is_integer
PUBLIC	?g_XMBinNeg150@DirectX@@3UXMVECTORI32@1@B	; DirectX::g_XMBinNeg150
PUBLIC	?Gainsboro@Colors@DirectX@@3UXMVECTORF32@2@B	; DirectX::Colors::Gainsboro
PUBLIC	?g_XM253@DirectX@@3UXMVECTORI32@1@B		; DirectX::g_XM253
PUBLIC	?GhostWhite@Colors@DirectX@@3UXMVECTORF32@2@B	; DirectX::Colors::GhostWhite
PUBLIC	?g_XMExpEst1@DirectX@@3UXMVECTORF32@1@B		; DirectX::g_XMExpEst1
PUBLIC	?Gold@Colors@DirectX@@3UXMVECTORF32@2@B		; DirectX::Colors::Gold
PUBLIC	?is_modulo@_Num_base@std@@2_NB			; std::_Num_base::is_modulo
PUBLIC	?g_XMExpEst2@DirectX@@3UXMVECTORF32@1@B		; DirectX::g_XMExpEst2
PUBLIC	?Goldenrod@Colors@DirectX@@3UXMVECTORF32@2@B	; DirectX::Colors::Goldenrod
PUBLIC	?g_XMExpEst3@DirectX@@3UXMVECTORF32@1@B		; DirectX::g_XMExpEst3
PUBLIC	?Gray@Colors@DirectX@@3UXMVECTORF32@2@B		; DirectX::Colors::Gray
PUBLIC	?g_XMExpEst4@DirectX@@3UXMVECTORF32@1@B		; DirectX::g_XMExpEst4
PUBLIC	?Green@Colors@DirectX@@3UXMVECTORF32@2@B	; DirectX::Colors::Green
PUBLIC	?is_signed@_Num_base@std@@2_NB			; std::_Num_base::is_signed
PUBLIC	?g_XMExpEst5@DirectX@@3UXMVECTORF32@1@B		; DirectX::g_XMExpEst5
PUBLIC	?GreenYellow@Colors@DirectX@@3UXMVECTORF32@2@B	; DirectX::Colors::GreenYellow
PUBLIC	?g_XMExpEst6@DirectX@@3UXMVECTORF32@1@B		; DirectX::g_XMExpEst6
PUBLIC	?Honeydew@Colors@DirectX@@3UXMVECTORF32@2@B	; DirectX::Colors::Honeydew
PUBLIC	?HotPink@Colors@DirectX@@3UXMVECTORF32@2@B	; DirectX::Colors::HotPink
PUBLIC	?g_XMExpEst7@DirectX@@3UXMVECTORF32@1@B		; DirectX::g_XMExpEst7
PUBLIC	?is_specialized@_Num_base@std@@2_NB		; std::_Num_base::is_specialized
PUBLIC	?IndianRed@Colors@DirectX@@3UXMVECTORF32@2@B	; DirectX::Colors::IndianRed
PUBLIC	?g_XMLogEst0@DirectX@@3UXMVECTORF32@1@B		; DirectX::g_XMLogEst0
PUBLIC	_IID_ID3D10Buffer
PUBLIC	?g_XMLogEst1@DirectX@@3UXMVECTORF32@1@B		; DirectX::g_XMLogEst1
PUBLIC	?Indigo@Colors@DirectX@@3UXMVECTORF32@2@B	; DirectX::Colors::Indigo
PUBLIC	?g_XMLogEst2@DirectX@@3UXMVECTORF32@1@B		; DirectX::g_XMLogEst2
PUBLIC	?Ivory@Colors@DirectX@@3UXMVECTORF32@2@B	; DirectX::Colors::Ivory
PUBLIC	?tinyness_before@_Num_base@std@@2_NB		; std::_Num_base::tinyness_before
PUBLIC	?g_XMLogEst3@DirectX@@3UXMVECTORF32@1@B		; DirectX::g_XMLogEst3
PUBLIC	?Khaki@Colors@DirectX@@3UXMVECTORF32@2@B	; DirectX::Colors::Khaki
PUBLIC	?g_XMLogEst4@DirectX@@3UXMVECTORF32@1@B		; DirectX::g_XMLogEst4
PUBLIC	?Lavender@Colors@DirectX@@3UXMVECTORF32@2@B	; DirectX::Colors::Lavender
PUBLIC	?LavenderBlush@Colors@DirectX@@3UXMVECTORF32@2@B ; DirectX::Colors::LavenderBlush
PUBLIC	?g_XMLogEst5@DirectX@@3UXMVECTORF32@1@B		; DirectX::g_XMLogEst5
PUBLIC	_IID_ID3D11Device
PUBLIC	?traps@_Num_base@std@@2_NB			; std::_Num_base::traps
PUBLIC	?g_XMLogEst6@DirectX@@3UXMVECTORF32@1@B		; DirectX::g_XMLogEst6
PUBLIC	?LawnGreen@Colors@DirectX@@3UXMVECTORF32@2@B	; DirectX::Colors::LawnGreen
PUBLIC	?g_XMLogEst7@DirectX@@3UXMVECTORF32@1@B		; DirectX::g_XMLogEst7
PUBLIC	?LemonChiffon@Colors@DirectX@@3UXMVECTORF32@2@B	; DirectX::Colors::LemonChiffon
PUBLIC	?g_XMLgE@DirectX@@3UXMVECTORF32@1@B		; DirectX::g_XMLgE
PUBLIC	?LightBlue@Colors@DirectX@@3UXMVECTORF32@2@B	; DirectX::Colors::LightBlue
PUBLIC	?round_style@_Num_base@std@@2W4float_round_style@2@B ; std::_Num_base::round_style
PUBLIC	?g_XMInvLgE@DirectX@@3UXMVECTORF32@1@B		; DirectX::g_XMInvLgE
PUBLIC	?LightCoral@Colors@DirectX@@3UXMVECTORF32@2@B	; DirectX::Colors::LightCoral
PUBLIC	?LightCyan@Colors@DirectX@@3UXMVECTORF32@2@B	; DirectX::Colors::LightCyan
PUBLIC	?LightGoldenrodYellow@Colors@DirectX@@3UXMVECTORF32@2@B ; DirectX::Colors::LightGoldenrodYellow
PUBLIC	_IID_ID3D11VideoProcessorEnumerator
PUBLIC	?digits@_Num_base@std@@2HB			; std::_Num_base::digits
PUBLIC	?LightGreen@Colors@DirectX@@3UXMVECTORF32@2@B	; DirectX::Colors::LightGreen
PUBLIC	?LightGray@Colors@DirectX@@3UXMVECTORF32@2@B	; DirectX::Colors::LightGray
PUBLIC	?LightPink@Colors@DirectX@@3UXMVECTORF32@2@B	; DirectX::Colors::LightPink
PUBLIC	?digits10@_Num_base@std@@2HB			; std::_Num_base::digits10
PUBLIC	?LightSalmon@Colors@DirectX@@3UXMVECTORF32@2@B	; DirectX::Colors::LightSalmon
PUBLIC	?LightSeaGreen@Colors@DirectX@@3UXMVECTORF32@2@B ; DirectX::Colors::LightSeaGreen
PUBLIC	?LightSkyBlue@Colors@DirectX@@3UXMVECTORF32@2@B	; DirectX::Colors::LightSkyBlue
PUBLIC	?max_digits10@_Num_base@std@@2HB		; std::_Num_base::max_digits10
PUBLIC	?LightSlateGray@Colors@DirectX@@3UXMVECTORF32@2@B ; DirectX::Colors::LightSlateGray
PUBLIC	?LightSteelBlue@Colors@DirectX@@3UXMVECTORF32@2@B ; DirectX::Colors::LightSteelBlue
PUBLIC	?LightYellow@Colors@DirectX@@3UXMVECTORF32@2@B	; DirectX::Colors::LightYellow
PUBLIC	?max_exponent@_Num_base@std@@2HB		; std::_Num_base::max_exponent
PUBLIC	?Lime@Colors@DirectX@@3UXMVECTORF32@2@B		; DirectX::Colors::Lime
PUBLIC	?LimeGreen@Colors@DirectX@@3UXMVECTORF32@2@B	; DirectX::Colors::LimeGreen
PUBLIC	?Linen@Colors@DirectX@@3UXMVECTORF32@2@B	; DirectX::Colors::Linen
PUBLIC	?max_exponent10@_Num_base@std@@2HB		; std::_Num_base::max_exponent10
PUBLIC	?Magenta@Colors@DirectX@@3UXMVECTORF32@2@B	; DirectX::Colors::Magenta
PUBLIC	?Maroon@Colors@DirectX@@3UXMVECTORF32@2@B	; DirectX::Colors::Maroon
PUBLIC	?MediumAquamarine@Colors@DirectX@@3UXMVECTORF32@2@B ; DirectX::Colors::MediumAquamarine
PUBLIC	?min_exponent@_Num_base@std@@2HB		; std::_Num_base::min_exponent
PUBLIC	?MediumBlue@Colors@DirectX@@3UXMVECTORF32@2@B	; DirectX::Colors::MediumBlue
PUBLIC	?MediumOrchid@Colors@DirectX@@3UXMVECTORF32@2@B	; DirectX::Colors::MediumOrchid
PUBLIC	?MediumPurple@Colors@DirectX@@3UXMVECTORF32@2@B	; DirectX::Colors::MediumPurple
PUBLIC	?min_exponent10@_Num_base@std@@2HB		; std::_Num_base::min_exponent10
PUBLIC	?MediumSeaGreen@Colors@DirectX@@3UXMVECTORF32@2@B ; DirectX::Colors::MediumSeaGreen
PUBLIC	?MediumSlateBlue@Colors@DirectX@@3UXMVECTORF32@2@B ; DirectX::Colors::MediumSlateBlue
PUBLIC	?MediumSpringGreen@Colors@DirectX@@3UXMVECTORF32@2@B ; DirectX::Colors::MediumSpringGreen
PUBLIC	?radix@_Num_base@std@@2HB			; std::_Num_base::radix
PUBLIC	?MediumTurquoise@Colors@DirectX@@3UXMVECTORF32@2@B ; DirectX::Colors::MediumTurquoise
PUBLIC	?MediumVioletRed@Colors@DirectX@@3UXMVECTORF32@2@B ; DirectX::Colors::MediumVioletRed
PUBLIC	?MidnightBlue@Colors@DirectX@@3UXMVECTORF32@2@B	; DirectX::Colors::MidnightBlue
PUBLIC	?MintCream@Colors@DirectX@@3UXMVECTORF32@2@B	; DirectX::Colors::MintCream
PUBLIC	?MistyRose@Colors@DirectX@@3UXMVECTORF32@2@B	; DirectX::Colors::MistyRose
PUBLIC	?Moccasin@Colors@DirectX@@3UXMVECTORF32@2@B	; DirectX::Colors::Moccasin
PUBLIC	?NavajoWhite@Colors@DirectX@@3UXMVECTORF32@2@B	; DirectX::Colors::NavajoWhite
PUBLIC	?Navy@Colors@DirectX@@3UXMVECTORF32@2@B		; DirectX::Colors::Navy
PUBLIC	?OldLace@Colors@DirectX@@3UXMVECTORF32@2@B	; DirectX::Colors::OldLace
PUBLIC	_IID_ID3D10EffectConstantBuffer
PUBLIC	?Olive@Colors@DirectX@@3UXMVECTORF32@2@B	; DirectX::Colors::Olive
PUBLIC	?OliveDrab@Colors@DirectX@@3UXMVECTORF32@2@B	; DirectX::Colors::OliveDrab
PUBLIC	?Orange@Colors@DirectX@@3UXMVECTORF32@2@B	; DirectX::Colors::Orange
PUBLIC	_IID_ID3D11Counter
PUBLIC	?OrangeRed@Colors@DirectX@@3UXMVECTORF32@2@B	; DirectX::Colors::OrangeRed
PUBLIC	?Orchid@Colors@DirectX@@3UXMVECTORF32@2@B	; DirectX::Colors::Orchid
PUBLIC	?PaleGoldenrod@Colors@DirectX@@3UXMVECTORF32@2@B ; DirectX::Colors::PaleGoldenrod
PUBLIC	?PaleGreen@Colors@DirectX@@3UXMVECTORF32@2@B	; DirectX::Colors::PaleGreen
PUBLIC	?PaleTurquoise@Colors@DirectX@@3UXMVECTORF32@2@B ; DirectX::Colors::PaleTurquoise
PUBLIC	?PaleVioletRed@Colors@DirectX@@3UXMVECTORF32@2@B ; DirectX::Colors::PaleVioletRed
PUBLIC	?PapayaWhip@Colors@DirectX@@3UXMVECTORF32@2@B	; DirectX::Colors::PapayaWhip
PUBLIC	?PeachPuff@Colors@DirectX@@3UXMVECTORF32@2@B	; DirectX::Colors::PeachPuff
PUBLIC	?Peru@Colors@DirectX@@3UXMVECTORF32@2@B		; DirectX::Colors::Peru
PUBLIC	?Pink@Colors@DirectX@@3UXMVECTORF32@2@B		; DirectX::Colors::Pink
PUBLIC	?Plum@Colors@DirectX@@3UXMVECTORF32@2@B		; DirectX::Colors::Plum
PUBLIC	?PowderBlue@Colors@DirectX@@3UXMVECTORF32@2@B	; DirectX::Colors::PowderBlue
PUBLIC	?Purple@Colors@DirectX@@3UXMVECTORF32@2@B	; DirectX::Colors::Purple
PUBLIC	?Red@Colors@DirectX@@3UXMVECTORF32@2@B		; DirectX::Colors::Red
PUBLIC	?RosyBrown@Colors@DirectX@@3UXMVECTORF32@2@B	; DirectX::Colors::RosyBrown
PUBLIC	?RoyalBlue@Colors@DirectX@@3UXMVECTORF32@2@B	; DirectX::Colors::RoyalBlue
PUBLIC	?SaddleBrown@Colors@DirectX@@3UXMVECTORF32@2@B	; DirectX::Colors::SaddleBrown
PUBLIC	?Salmon@Colors@DirectX@@3UXMVECTORF32@2@B	; DirectX::Colors::Salmon
PUBLIC	?is_bounded@_Num_int_base@std@@2_NB		; std::_Num_int_base::is_bounded
PUBLIC	?SandyBrown@Colors@DirectX@@3UXMVECTORF32@2@B	; DirectX::Colors::SandyBrown
PUBLIC	?SeaGreen@Colors@DirectX@@3UXMVECTORF32@2@B	; DirectX::Colors::SeaGreen
PUBLIC	?SeaShell@Colors@DirectX@@3UXMVECTORF32@2@B	; DirectX::Colors::SeaShell
PUBLIC	?is_exact@_Num_int_base@std@@2_NB		; std::_Num_int_base::is_exact
PUBLIC	?Sienna@Colors@DirectX@@3UXMVECTORF32@2@B	; DirectX::Colors::Sienna
PUBLIC	?Silver@Colors@DirectX@@3UXMVECTORF32@2@B	; DirectX::Colors::Silver
PUBLIC	_IID_ID3D10Texture1D
PUBLIC	?SkyBlue@Colors@DirectX@@3UXMVECTORF32@2@B	; DirectX::Colors::SkyBlue
PUBLIC	?is_integer@_Num_int_base@std@@2_NB		; std::_Num_int_base::is_integer
PUBLIC	?SlateBlue@Colors@DirectX@@3UXMVECTORF32@2@B	; DirectX::Colors::SlateBlue
PUBLIC	?SlateGray@Colors@DirectX@@3UXMVECTORF32@2@B	; DirectX::Colors::SlateGray
PUBLIC	?Snow@Colors@DirectX@@3UXMVECTORF32@2@B		; DirectX::Colors::Snow
PUBLIC	_IID_IDXGIObject
PUBLIC	_IID_ID3D11DeviceChild
PUBLIC	?is_modulo@_Num_int_base@std@@2_NB		; std::_Num_int_base::is_modulo
PUBLIC	?SpringGreen@Colors@DirectX@@3UXMVECTORF32@2@B	; DirectX::Colors::SpringGreen
PUBLIC	?SteelBlue@Colors@DirectX@@3UXMVECTORF32@2@B	; DirectX::Colors::SteelBlue
PUBLIC	?Tan@Colors@DirectX@@3UXMVECTORF32@2@B		; DirectX::Colors::Tan
PUBLIC	?is_specialized@_Num_int_base@std@@2_NB		; std::_Num_int_base::is_specialized
PUBLIC	?Teal@Colors@DirectX@@3UXMVECTORF32@2@B		; DirectX::Colors::Teal
PUBLIC	?Thistle@Colors@DirectX@@3UXMVECTORF32@2@B	; DirectX::Colors::Thistle
PUBLIC	?Tomato@Colors@DirectX@@3UXMVECTORF32@2@B	; DirectX::Colors::Tomato
PUBLIC	?radix@_Num_int_base@std@@2HB			; std::_Num_int_base::radix
PUBLIC	?Transparent@Colors@DirectX@@3UXMVECTORF32@2@B	; DirectX::Colors::Transparent
PUBLIC	_IID_ID3D11ClassInstance
PUBLIC	?Turquoise@Colors@DirectX@@3UXMVECTORF32@2@B	; DirectX::Colors::Turquoise
PUBLIC	?Violet@Colors@DirectX@@3UXMVECTORF32@2@B	; DirectX::Colors::Violet
PUBLIC	?Wheat@Colors@DirectX@@3UXMVECTORF32@2@B	; DirectX::Colors::Wheat
PUBLIC	?White@Colors@DirectX@@3UXMVECTORF32@2@B	; DirectX::Colors::White
PUBLIC	?WhiteSmoke@Colors@DirectX@@3UXMVECTORF32@2@B	; DirectX::Colors::WhiteSmoke
PUBLIC	?Yellow@Colors@DirectX@@3UXMVECTORF32@2@B	; DirectX::Colors::Yellow
PUBLIC	?YellowGreen@Colors@DirectX@@3UXMVECTORF32@2@B	; DirectX::Colors::YellowGreen
PUBLIC	_IID_ID3D10ShaderReflectionType
PUBLIC	?has_denorm@_Num_float_base@std@@2W4float_denorm_style@2@B ; std::_Num_float_base::has_denorm
PUBLIC	?has_denorm_loss@_Num_float_base@std@@2_NB	; std::_Num_float_base::has_denorm_loss
PUBLIC	_DXGI_DEBUG_ALL
PUBLIC	_DXGI_DEBUG_DX
PUBLIC	_DXGI_DEBUG_DXGI
PUBLIC	?has_infinity@_Num_float_base@std@@2_NB		; std::_Num_float_base::has_infinity
PUBLIC	_DXGI_DEBUG_APP
PUBLIC	_IID_IDXGIDeviceSubObject
PUBLIC	?has_quiet_NaN@_Num_float_base@std@@2_NB	; std::_Num_float_base::has_quiet_NaN
PUBLIC	_IID_ID3D11ClassLinkage
PUBLIC	?has_signaling_NaN@_Num_float_base@std@@2_NB	; std::_Num_float_base::has_signaling_NaN
PUBLIC	?is_bounded@_Num_float_base@std@@2_NB		; std::_Num_float_base::is_bounded
PUBLIC	?is_exact@_Num_float_base@std@@2_NB		; std::_Num_float_base::is_exact
PUBLIC	_IID_ID3D10ShaderReflectionVariable
PUBLIC	_IID_IDXGIResource
PUBLIC	?is_iec559@_Num_float_base@std@@2_NB		; std::_Num_float_base::is_iec559
PUBLIC	?is_integer@_Num_float_base@std@@2_NB		; std::_Num_float_base::is_integer
PUBLIC	?is_modulo@_Num_float_base@std@@2_NB		; std::_Num_float_base::is_modulo
PUBLIC	_IID_ID3D11CommandList
PUBLIC	?is_signed@_Num_float_base@std@@2_NB		; std::_Num_float_base::is_signed
PUBLIC	?is_specialized@_Num_float_base@std@@2_NB	; std::_Num_float_base::is_specialized
PUBLIC	_IID_ID3D10ShaderReflectionConstantBuffer
PUBLIC	_IID_IDXGIKeyedMutex
PUBLIC	?tinyness_before@_Num_float_base@std@@2_NB	; std::_Num_float_base::tinyness_before
PUBLIC	_IID_ID3D10EffectShaderVariable
PUBLIC	?traps@_Num_float_base@std@@2_NB		; std::_Num_float_base::traps
PUBLIC	?round_style@_Num_float_base@std@@2W4float_round_style@2@B ; std::_Num_float_base::round_style
PUBLIC	?radix@_Num_float_base@std@@2HB			; std::_Num_float_base::radix
PUBLIC	_IID_ID3D11VideoProcessor
PUBLIC	_IID_IDXGISurface
PUBLIC	_IID_ID3D10ShaderReflection
PUBLIC	_IID_ID3D10Texture2D
PUBLIC	?is_signed@?$numeric_limits@D@std@@2_NB		; std::numeric_limits<char>::is_signed
PUBLIC	_IID_IDXGIInfoQueue
PUBLIC	_IID_IDXGISurface1
PUBLIC	_IID_ID3D11RenderTargetView
PUBLIC	?digits@?$numeric_limits@D@std@@2HB		; std::numeric_limits<char>::digits
PUBLIC	?digits10@?$numeric_limits@D@std@@2HB		; std::numeric_limits<char>::digits10
PUBLIC	_IID_ID3D11AuthenticatedChannel
PUBLIC	_IID_IDXGIAdapter
PUBLIC	_D3D11_AUTHENTICATED_QUERY_PROTECTION
PUBLIC	_D3D11_AUTHENTICATED_QUERY_CHANNEL_TYPE
PUBLIC	_D3D11_AUTHENTICATED_QUERY_DEVICE_HANDLE
PUBLIC	_D3D11_AUTHENTICATED_QUERY_CRYPTO_SESSION
PUBLIC	_D3D11_AUTHENTICATED_QUERY_RESTRICTED_SHARED_RESOURCE_PROCESS_COUNT
PUBLIC	_IID_ID3D11DepthStencilState
PUBLIC	_D3D11_AUTHENTICATED_QUERY_RESTRICTED_SHARED_RESOURCE_PROCESS
PUBLIC	_D3D11_AUTHENTICATED_QUERY_UNRESTRICTED_PROTECTED_SHARED_RESOURCE_COUNT
PUBLIC	_D3D11_AUTHENTICATED_QUERY_OUTPUT_ID_COUNT
PUBLIC	_IID_ID3D11BlendState1
PUBLIC	?is_signed@?$numeric_limits@_W@std@@2_NB	; std::numeric_limits<wchar_t>::is_signed
PUBLIC	_IID_IDXGIOutput
PUBLIC	_D3D11_AUTHENTICATED_QUERY_OUTPUT_ID
PUBLIC	_D3D11_AUTHENTICATED_QUERY_ACCESSIBILITY_ATTRIBUTES
PUBLIC	_D3D11_AUTHENTICATED_QUERY_ENCRYPTION_WHEN_ACCESSIBLE_GUID_COUNT
PUBLIC	_D3D11_AUTHENTICATED_QUERY_ENCRYPTION_WHEN_ACCESSIBLE_GUID
PUBLIC	?digits@?$numeric_limits@_W@std@@2HB		; std::numeric_limits<wchar_t>::digits
PUBLIC	_D3D11_AUTHENTICATED_QUERY_CURRENT_ENCRYPTION_WHEN_ACCESSIBLE
PUBLIC	_D3D11_AUTHENTICATED_CONFIGURE_INITIALIZE
PUBLIC	_D3D11_AUTHENTICATED_CONFIGURE_PROTECTION
PUBLIC	_D3D11_AUTHENTICATED_CONFIGURE_CRYPTO_SESSION
PUBLIC	?digits10@?$numeric_limits@_W@std@@2HB		; std::numeric_limits<wchar_t>::digits10
PUBLIC	_D3D11_AUTHENTICATED_CONFIGURE_SHARED_RESOURCE
PUBLIC	_D3D11_AUTHENTICATED_CONFIGURE_ENCRYPTION_WHEN_ACCESSIBLE
PUBLIC	_IID_ID3D10EffectBlendVariable
PUBLIC	_IID_ID3D11Debug
PUBLIC	_IID_ID3D10Multithread
PUBLIC	_IID_ID3D10Texture3D
PUBLIC	?is_modulo@?$numeric_limits@_N@std@@2_NB	; std::numeric_limits<bool>::is_modulo
PUBLIC	_IID_IDXGISwapChain
PUBLIC	?is_signed@?$numeric_limits@_N@std@@2_NB	; std::numeric_limits<bool>::is_signed
PUBLIC	?digits@?$numeric_limits@_N@std@@2HB		; std::numeric_limits<bool>::digits
PUBLIC	?digits10@?$numeric_limits@_N@std@@2HB		; std::numeric_limits<bool>::digits10
PUBLIC	_IID_ID3D11SwitchToRef
PUBLIC	_IID_ID3D10View
PUBLIC	_IID_ID3D10Debug
PUBLIC	_IID_ID3D11RasterizerState1
PUBLIC	_IID_IDXGIDebug
PUBLIC	?is_signed@?$numeric_limits@C@std@@2_NB		; std::numeric_limits<signed char>::is_signed
PUBLIC	_IID_IDXGIFactory
PUBLIC	?digits@?$numeric_limits@C@std@@2HB		; std::numeric_limits<signed char>::digits
PUBLIC	?digits10@?$numeric_limits@C@std@@2HB		; std::numeric_limits<signed char>::digits10
PUBLIC	_IID_ID3DDeviceContextState
PUBLIC	_IID_IDXGIDebug1
PUBLIC	_IID_ID3D10EffectDepthStencilVariable
PUBLIC	_IID_ID3D10SwitchToRef
PUBLIC	_IID_ID3D10StateBlock
PUBLIC	_IID_ID3D11DeviceContext1
PUBLIC	_IID_ID3D11BlendState
PUBLIC	_IID_ID3D11DeviceContext
PUBLIC	?g_cs@@3U_RTL_CRITICAL_SECTION@@A		; g_cs
PUBLIC	_IID_ID3D11TracingDevice
PUBLIC	?g_bThreadSafe@@3_NA				; g_bThreadSafe
PUBLIC	_DXGI_DEBUG_D3D10
PUBLIC	_IID_IDXGIDevice
PUBLIC	?is_signed@?$numeric_limits@E@std@@2_NB		; std::numeric_limits<unsigned char>::is_signed
PUBLIC	?digits@?$numeric_limits@E@std@@2HB		; std::numeric_limits<unsigned char>::digits
PUBLIC	_IID_ID3D11RefTrackingOptions
PUBLIC	?digits10@?$numeric_limits@E@std@@2HB		; std::numeric_limits<unsigned char>::digits10
PUBLIC	?value@?$integral_constant@_N$0A@@std@@2_NB	; std::integral_constant<bool,0>::value
PUBLIC	_IID_ID3D11RefDefaultTrackingOptions
PUBLIC	_DXGI_DEBUG_D3D11
PUBLIC	?value@?$integral_constant@_N$00@std@@2_NB	; std::integral_constant<bool,1>::value
PUBLIC	?is_signed@?$numeric_limits@F@std@@2_NB		; std::numeric_limits<short>::is_signed
PUBLIC	_IID_ID3D10EffectRasterizerVariable
PUBLIC	?digits@?$numeric_limits@F@std@@2HB		; std::numeric_limits<short>::digits
PUBLIC	?digits10@?$numeric_limits@F@std@@2HB		; std::numeric_limits<short>::digits10
PUBLIC	_IID_ID3D11RasterizerState
PUBLIC	_IID_IDXGIFactory1
PUBLIC	_IID_ID3D10EffectType
PUBLIC	_IID_IDXGIAdapter1
PUBLIC	?is_signed@?$numeric_limits@G@std@@2_NB		; std::numeric_limits<unsigned short>::is_signed
PUBLIC	?digits@?$numeric_limits@G@std@@2HB		; std::numeric_limits<unsigned short>::digits
PUBLIC	_IID_IDXGIDevice1
PUBLIC	?digits10@?$numeric_limits@G@std@@2HB		; std::numeric_limits<unsigned short>::digits10
PUBLIC	_IID_ID3D10Blob
PUBLIC	_IID_ID3D11Resource
PUBLIC	_IID_ID3D10ShaderResourceView
PUBLIC	_IID_ID3D11Device1
PUBLIC	_IID_ID3D10EffectVariable
PUBLIC	?value@?$integral_constant@I$07@std@@2IB	; std::integral_constant<unsigned int,8>::value
PUBLIC	_IID_ID3D10EffectSamplerVariable
PUBLIC	?is_signed@?$numeric_limits@H@std@@2_NB		; std::numeric_limits<int>::is_signed
PUBLIC	_IID_IDXGIDisplayControl
PUBLIC	?digits@?$numeric_limits@H@std@@2HB		; std::numeric_limits<int>::digits
PUBLIC	?digits10@?$numeric_limits@H@std@@2HB		; std::numeric_limits<int>::digits10
PUBLIC	_IID_ID3DUserDefinedAnnotation
PUBLIC	__GUID_770aae78_f26f_4dba_a829_253c83d1b387
PUBLIC	_IID_ID3D11DepthStencilView
PUBLIC	_IID_ID3D11Buffer
PUBLIC	?is_signed@?$numeric_limits@I@std@@2_NB		; std::numeric_limits<unsigned int>::is_signed
PUBLIC	?digits@?$numeric_limits@I@std@@2HB		; std::numeric_limits<unsigned int>::digits
PUBLIC	?digits10@?$numeric_limits@I@std@@2HB		; std::numeric_limits<unsigned int>::digits10
PUBLIC	?value@?$integral_constant@I$03@std@@2IB	; std::integral_constant<unsigned int,4>::value
PUBLIC	_IID_ID3D10EffectScalarVariable
PUBLIC	__GUID_6f15aaf2_d208_4e89_9ab4_489535d34f9c
PUBLIC	?is_signed@?$numeric_limits@J@std@@2_NB		; std::numeric_limits<long>::is_signed
PUBLIC	_IID_IDXGIOutputDuplication
PUBLIC	?digits@?$numeric_limits@J@std@@2HB		; std::numeric_limits<long>::digits
PUBLIC	?digits10@?$numeric_limits@J@std@@2HB		; std::numeric_limits<long>::digits10
PUBLIC	_IID_ID3D10EffectPass
PUBLIC	_D3D11_KEY_EXCHANGE_RSAES_OAEP
PUBLIC	_IID_ID3D11CryptoSession
PUBLIC	_IID_ID3D11Texture1D
PUBLIC	_IID_ID3D10RenderTargetView
PUBLIC	_IID_ID3D11InfoQueue
PUBLIC	?is_signed@?$numeric_limits@K@std@@2_NB		; std::numeric_limits<unsigned long>::is_signed
PUBLIC	?value@?$integral_constant@I$01@std@@2IB	; std::integral_constant<unsigned int,2>::value
PUBLIC	?digits@?$numeric_limits@K@std@@2HB		; std::numeric_limits<unsigned long>::digits
PUBLIC	_IID_IDXGISurface2
PUBLIC	?digits10@?$numeric_limits@K@std@@2HB		; std::numeric_limits<unsigned long>::digits10
PUBLIC	_IID_ID3D10EffectTechnique
PUBLIC	_IID_IDXGIResource1
PUBLIC	?g_pDXUTState@@3PAVDXUTState@@A			; g_pDXUTState
PUBLIC	_IID_ID3D11VideoDecoderOutputView
PUBLIC	_SID_SCommandBarState
PUBLIC	__GUID_79cf2233_7536_4948_9d36_1e4692dc5760
PUBLIC	__GUID_6543dbb6_1b48_42f5_ab82_e97ec74326f6
PUBLIC	?is_signed@?$numeric_limits@_J@std@@2_NB	; std::numeric_limits<__int64>::is_signed
PUBLIC	?digits@?$numeric_limits@_J@std@@2HB		; std::numeric_limits<__int64>::digits
PUBLIC	_IID_IDXGIDevice2
PUBLIC	?digits10@?$numeric_limits@_J@std@@2HB		; std::numeric_limits<__int64>::digits10
PUBLIC	_IID_ID3D10EffectVectorVariable
PUBLIC	_IID_ID3D11Texture2D
PUBLIC	__GUID_77db970f_6276_48ba_ba28_070143b4392c
PUBLIC	_IID_ID3D10Effect
PUBLIC	__GUID_29038f61_3839_4626_91fd_086879011a05
PUBLIC	?value@?$integral_constant@I$00@std@@2IB	; std::integral_constant<unsigned int,1>::value
PUBLIC	_IID_ID3D11VideoProcessorInputView
PUBLIC	?is_signed@?$numeric_limits@_K@std@@2_NB	; std::numeric_limits<unsigned __int64>::is_signed
PUBLIC	_IID_ID3D10DepthStencilView
PUBLIC	?digits@?$numeric_limits@_K@std@@2HB		; std::numeric_limits<unsigned __int64>::digits
PUBLIC	?digits10@?$numeric_limits@_K@std@@2HB		; std::numeric_limits<unsigned __int64>::digits10
PUBLIC	?value@?$_Maximum@$S@std@@2IB			; std::_Maximum<>::value
PUBLIC	_IID_ID3D10VertexShader
PUBLIC	_IID_ID3D10GeometryShader
PUBLIC	_IID_ID3D10EffectPool
PUBLIC	_IID_ID3D10PixelShader
PUBLIC	_IID_ID3D11Texture3D
PUBLIC	?digits@?$numeric_limits@M@std@@2HB		; std::numeric_limits<float>::digits
PUBLIC	_IID_ID3D11UnorderedAccessView
PUBLIC	_IID_ID3D10InputLayout
PUBLIC	?digits10@?$numeric_limits@M@std@@2HB		; std::numeric_limits<float>::digits10
PUBLIC	?max_digits10@?$numeric_limits@M@std@@2HB	; std::numeric_limits<float>::max_digits10
PUBLIC	_IID_IDXGISwapChain1
PUBLIC	?value@?$integral_constant@I$0A@@std@@2IB	; std::integral_constant<unsigned int,0>::value
PUBLIC	?max_exponent@?$numeric_limits@M@std@@2HB	; std::numeric_limits<float>::max_exponent
PUBLIC	_IID_ID3D11VideoProcessorOutputView
PUBLIC	_IID_ID3D11VertexShader
PUBLIC	?max_exponent10@?$numeric_limits@M@std@@2HB	; std::numeric_limits<float>::max_exponent10
PUBLIC	__GUID_a04bfb29_08ef_43d6_a49c_a9bdbdcbe686
PUBLIC	?min_exponent@?$numeric_limits@M@std@@2HB	; std::numeric_limits<float>::min_exponent
PUBLIC	_IID_ID3D11View
PUBLIC	_IID_ID3D11HullShader
PUBLIC	_IID_ID3D11VideoContext
PUBLIC	?min_exponent10@?$numeric_limits@M@std@@2HB	; std::numeric_limits<float>::min_exponent10
PUBLIC	__GUID_bb2c6faa_b5fb_4082_8e6b_388b8cfa90e1
PUBLIC	_IID_ID3D11DomainShader
PUBLIC	_IID_ID3D10EffectMatrixVariable
PUBLIC	_IID_ID3D11GeometryShader
PUBLIC	_IID_IDXGIFactory2
PUBLIC	_IID_ID3D11ShaderReflectionType
PUBLIC	_IID_ID3D11PixelShader
PUBLIC	?digits@?$numeric_limits@N@std@@2HB		; std::numeric_limits<double>::digits
PUBLIC	?digits10@?$numeric_limits@N@std@@2HB		; std::numeric_limits<double>::digits10
PUBLIC	_IID_ID3D11ComputeShader
PUBLIC	_IID_ID3D10SamplerState
PUBLIC	?max_digits10@?$numeric_limits@N@std@@2HB	; std::numeric_limits<double>::max_digits10
PUBLIC	?max_exponent@?$numeric_limits@N@std@@2HB	; std::numeric_limits<double>::max_exponent
PUBLIC	_IID_ID3D11InputLayout
PUBLIC	?max_exponent10@?$numeric_limits@N@std@@2HB	; std::numeric_limits<double>::max_exponent10
PUBLIC	_IID_ID3D10BlendState1
PUBLIC	?min_exponent@?$numeric_limits@N@std@@2HB	; std::numeric_limits<double>::min_exponent
PUBLIC	_D3D11_DECODER_PROFILE_MPEG2_MOCOMP
PUBLIC	_D3D11_DECODER_PROFILE_MPEG2_IDCT
PUBLIC	_D3D11_DECODER_PROFILE_MPEG2_VLD
PUBLIC	_D3D11_DECODER_PROFILE_MPEG1_VLD
PUBLIC	?min_exponent10@?$numeric_limits@N@std@@2HB	; std::numeric_limits<double>::min_exponent10
PUBLIC	_D3D11_DECODER_PROFILE_MPEG2and1_VLD
PUBLIC	_IID_ID3D11ShaderReflectionVariable
PUBLIC	_D3D11_DECODER_PROFILE_H264_MOCOMP_NOFGT
PUBLIC	_D3D11_DECODER_PROFILE_H264_MOCOMP_FGT
PUBLIC	_D3D11_DECODER_PROFILE_H264_IDCT_NOFGT
PUBLIC	_D3D11_DECODER_PROFILE_H264_IDCT_FGT
PUBLIC	_D3D11_DECODER_PROFILE_H264_VLD_NOFGT
PUBLIC	_D3D11_DECODER_PROFILE_H264_VLD_FGT
PUBLIC	_D3D11_DECODER_PROFILE_H264_VLD_WITHFMOASO_NOFGT
PUBLIC	_D3D11_DECODER_PROFILE_H264_VLD_STEREO_PROGRESSIVE_NOFGT
PUBLIC	_D3D11_DECODER_PROFILE_H264_VLD_STEREO_NOFGT
PUBLIC	_D3D11_DECODER_PROFILE_H264_VLD_MULTIVIEW_NOFGT
PUBLIC	_D3D11_DECODER_PROFILE_WMV8_POSTPROC
PUBLIC	_D3D11_DECODER_PROFILE_WMV8_MOCOMP
PUBLIC	_D3D11_DECODER_PROFILE_WMV9_POSTPROC
PUBLIC	_D3D11_DECODER_PROFILE_WMV9_MOCOMP
PUBLIC	_D3D11_DECODER_PROFILE_WMV9_IDCT
PUBLIC	_D3D11_DECODER_PROFILE_VC1_POSTPROC
PUBLIC	_D3D11_DECODER_PROFILE_VC1_MOCOMP
PUBLIC	_D3D11_DECODER_PROFILE_VC1_IDCT
PUBLIC	_D3D11_DECODER_PROFILE_VC1_VLD
PUBLIC	_IID_ID3D11ShaderReflectionConstantBuffer
PUBLIC	_D3D11_DECODER_PROFILE_VC1_D2010
PUBLIC	_D3D11_DECODER_PROFILE_MPEG4PT2_VLD_SIMPLE
PUBLIC	_IID_ID3D10Asynchronous
PUBLIC	_D3D11_DECODER_PROFILE_MPEG4PT2_VLD_ADVSIMPLE_NOGMC
PUBLIC	_D3D11_DECODER_PROFILE_MPEG4PT2_VLD_ADVSIMPLE_GMC
PUBLIC	_D3D11_DECODER_PROFILE_HEVC_VLD_MAIN
PUBLIC	_D3D11_DECODER_PROFILE_HEVC_VLD_MAIN10
PUBLIC	?digits@?$numeric_limits@O@std@@2HB		; std::numeric_limits<long double>::digits
PUBLIC	?digits10@?$numeric_limits@O@std@@2HB		; std::numeric_limits<long double>::digits10
PUBLIC	_IID_ID3D11ShaderReflection
PUBLIC	?max_digits10@?$numeric_limits@O@std@@2HB	; std::numeric_limits<long double>::max_digits10
PUBLIC	?max_exponent@?$numeric_limits@O@std@@2HB	; std::numeric_limits<long double>::max_exponent
PUBLIC	_WKPDID_D3DDebugObjectName
PUBLIC	_IID_ID3D10ShaderResourceView1
PUBLIC	?max_exponent10@?$numeric_limits@O@std@@2HB	; std::numeric_limits<long double>::max_exponent10
PUBLIC	?min_exponent@?$numeric_limits@O@std@@2HB	; std::numeric_limits<long double>::min_exponent
PUBLIC	_IID_ID3D10EffectStringVariable
PUBLIC	_IID_IDXGIAdapter2
PUBLIC	?min_exponent10@?$numeric_limits@O@std@@2HB	; std::numeric_limits<long double>::min_exponent10
PUBLIC	_IID_ID3D10DeviceChild
PUBLIC	_IID_ID3D10Device1
PUBLIC	_IID_IDXGIOutput1
PUBLIC	_IID_ID3D10Query
PUBLIC	_CLSID_WICImagingFactory
PUBLIC	_CLSID_WICImagingFactory1
PUBLIC	_CLSID_WICImagingFactory2
;	COMDAT ___@@_PchSym_@00@UvmtrmvLxozhhUzhhrtmnvmgLBUhxizgxsUwchhvUwcfgUxlivUyrmUwvhpglkPCABCUdrmDCUzhhvnyobwvyftUwcfgOlyq@DDEBF1AC87424D4D
_BSS	SEGMENT
___@@_PchSym_@00@UvmtrmvLxozhhUzhhrtmnvmgLBUhxizgxsUwchhvUwcfgUxlivUyrmUwvhpglkPCABCUdrmDCUzhhvnyobwvyftUwcfgOlyq@DDEBF1AC87424D4D DD 01H DUP (?)
_BSS	ENDS
_BSS	SEGMENT
?g_cs@@3U_RTL_CRITICAL_SECTION@@A DB 018H DUP (?)	; g_cs
?g_pDXUTState@@3PAVDXUTState@@A DD 01H DUP (?)		; g_pDXUTState
_BSS	ENDS
;	COMDAT _CLSID_WICImagingFactory2
CONST	SEGMENT
_CLSID_WICImagingFactory2 DD 0317d06e8H
	DW	05f24H
	DW	0433dH
	DB	0bdH
	DB	0f7H
	DB	079H
	DB	0ceH
	DB	068H
	DB	0d8H
	DB	0abH
	DB	0c2H
CONST	ENDS
;	COMDAT _CLSID_WICImagingFactory1
CONST	SEGMENT
_CLSID_WICImagingFactory1 DD 0cacaf262H
	DW	09370H
	DW	04615H
	DB	0a1H
	DB	03bH
	DB	09fH
	DB	055H
	DB	039H
	DB	0daH
	DB	04cH
	DB	0aH
CONST	ENDS
;	COMDAT _CLSID_WICImagingFactory
CONST	SEGMENT
_CLSID_WICImagingFactory DD 0cacaf262H
	DW	09370H
	DW	04615H
	DB	0a1H
	DB	03bH
	DB	09fH
	DB	055H
	DB	039H
	DB	0daH
	DB	04cH
	DB	0aH
CONST	ENDS
;	COMDAT _IID_ID3D10Query
CONST	SEGMENT
_IID_ID3D10Query DD 09b7e4c0eH
	DW	0342cH
	DW	04106H
	DB	0a1H
	DB	09fH
	DB	04fH
	DB	027H
	DB	04H
	DB	0f6H
	DB	089H
	DB	0f0H
CONST	ENDS
;	COMDAT _IID_IDXGIOutput1
CONST	SEGMENT
_IID_IDXGIOutput1 DD 0cddea8H
	DW	0939bH
	DW	04b83H
	DB	0a3H
	DB	040H
	DB	0a6H
	DB	085H
	DB	022H
	DB	066H
	DB	066H
	DB	0ccH
CONST	ENDS
;	COMDAT _IID_ID3D10Device1
CONST	SEGMENT
_IID_ID3D10Device1 DD 09b7e4c8fH
	DW	0342cH
	DW	04106H
	DB	0a1H
	DB	09fH
	DB	04fH
	DB	027H
	DB	04H
	DB	0f6H
	DB	089H
	DB	0f0H
CONST	ENDS
;	COMDAT _IID_ID3D10DeviceChild
CONST	SEGMENT
_IID_ID3D10DeviceChild DD 09b7e4c00H
	DW	0342cH
	DW	04106H
	DB	0a1H
	DB	09fH
	DB	04fH
	DB	027H
	DB	04H
	DB	0f6H
	DB	089H
	DB	0f0H
CONST	ENDS
;	COMDAT ?min_exponent10@?$numeric_limits@O@std@@2HB
CONST	SEGMENT
?min_exponent10@?$numeric_limits@O@std@@2HB DD 0fffffecdH ; std::numeric_limits<long double>::min_exponent10
CONST	ENDS
;	COMDAT _IID_IDXGIAdapter2
CONST	SEGMENT
_IID_IDXGIAdapter2 DD 0aa1ae0aH
	DW	0fa0eH
	DW	04b84H
	DB	086H
	DB	044H
	DB	0e0H
	DB	05fH
	DB	0f8H
	DB	0e5H
	DB	0acH
	DB	0b5H
CONST	ENDS
;	COMDAT _IID_ID3D10EffectStringVariable
CONST	SEGMENT
_IID_ID3D10EffectStringVariable DD 071417501H
	DW	08df9H
	DW	04e0aH
	DB	0a7H
	DB	08aH
	DB	025H
	DB	05fH
	DB	097H
	DB	056H
	DB	0baH
	DB	0ffH
CONST	ENDS
;	COMDAT ?min_exponent@?$numeric_limits@O@std@@2HB
CONST	SEGMENT
?min_exponent@?$numeric_limits@O@std@@2HB DD 0fffffc03H	; std::numeric_limits<long double>::min_exponent
CONST	ENDS
;	COMDAT ?max_exponent10@?$numeric_limits@O@std@@2HB
CONST	SEGMENT
?max_exponent10@?$numeric_limits@O@std@@2HB DD 0134H	; std::numeric_limits<long double>::max_exponent10
CONST	ENDS
;	COMDAT _IID_ID3D10ShaderResourceView1
CONST	SEGMENT
_IID_ID3D10ShaderResourceView1 DD 09b7e4c87H
	DW	0342cH
	DW	04106H
	DB	0a1H
	DB	09fH
	DB	04fH
	DB	027H
	DB	04H
	DB	0f6H
	DB	089H
	DB	0f0H
CONST	ENDS
;	COMDAT _WKPDID_D3DDebugObjectName
CONST	SEGMENT
_WKPDID_D3DDebugObjectName DD 0429b8c22H
	DW	09188H
	DW	04b0cH
	DB	087H
	DB	042H
	DB	0acH
	DB	0b0H
	DB	0bfH
	DB	085H
	DB	0c2H
	DB	00H
CONST	ENDS
;	COMDAT ?max_exponent@?$numeric_limits@O@std@@2HB
CONST	SEGMENT
?max_exponent@?$numeric_limits@O@std@@2HB DD 0400H	; std::numeric_limits<long double>::max_exponent
CONST	ENDS
;	COMDAT ?max_digits10@?$numeric_limits@O@std@@2HB
CONST	SEGMENT
?max_digits10@?$numeric_limits@O@std@@2HB DD 011H	; std::numeric_limits<long double>::max_digits10
CONST	ENDS
;	COMDAT _IID_ID3D11ShaderReflection
CONST	SEGMENT
_IID_ID3D11ShaderReflection DD 08d536ca1H
	DW	0ccaH
	DW	04956H
	DB	0a8H
	DB	037H
	DB	078H
	DB	069H
	DB	063H
	DB	075H
	DB	055H
	DB	084H
CONST	ENDS
;	COMDAT ?digits10@?$numeric_limits@O@std@@2HB
CONST	SEGMENT
?digits10@?$numeric_limits@O@std@@2HB DD 0fH		; std::numeric_limits<long double>::digits10
CONST	ENDS
;	COMDAT ?digits@?$numeric_limits@O@std@@2HB
CONST	SEGMENT
?digits@?$numeric_limits@O@std@@2HB DD 035H		; std::numeric_limits<long double>::digits
CONST	ENDS
;	COMDAT _D3D11_DECODER_PROFILE_HEVC_VLD_MAIN10
CONST	SEGMENT
_D3D11_DECODER_PROFILE_HEVC_VLD_MAIN10 DD 0107af0e0H
	DW	0ef1aH
	DW	04d19H
	DB	0abH
	DB	0a8H
	DB	067H
	DB	0a1H
	DB	063H
	DB	07H
	DB	03dH
	DB	013H
CONST	ENDS
;	COMDAT _D3D11_DECODER_PROFILE_HEVC_VLD_MAIN
CONST	SEGMENT
_D3D11_DECODER_PROFILE_HEVC_VLD_MAIN DD 05b11d51bH
	DW	02f4cH
	DW	04452H
	DB	0bcH
	DB	0c3H
	DB	09H
	DB	0f2H
	DB	0a1H
	DB	016H
	DB	0cH
	DB	0c0H
CONST	ENDS
;	COMDAT _D3D11_DECODER_PROFILE_MPEG4PT2_VLD_ADVSIMPLE_GMC
CONST	SEGMENT
_D3D11_DECODER_PROFILE_MPEG4PT2_VLD_ADVSIMPLE_GMC DD 0ab998b5bH
	DW	04258H
	DW	044a9H
	DB	09fH
	DB	0ebH
	DB	094H
	DB	0e5H
	DB	097H
	DB	0a6H
	DB	0baH
	DB	0aeH
CONST	ENDS
;	COMDAT _D3D11_DECODER_PROFILE_MPEG4PT2_VLD_ADVSIMPLE_NOGMC
CONST	SEGMENT
_D3D11_DECODER_PROFILE_MPEG4PT2_VLD_ADVSIMPLE_NOGMC DD 0ed418a9fH
	DW	010dH
	DW	04edaH
	DB	09aH
	DB	0e3H
	DB	09aH
	DB	065H
	DB	035H
	DB	08dH
	DB	08dH
	DB	02eH
CONST	ENDS
;	COMDAT _IID_ID3D10Asynchronous
CONST	SEGMENT
_IID_ID3D10Asynchronous DD 09b7e4c0dH
	DW	0342cH
	DW	04106H
	DB	0a1H
	DB	09fH
	DB	04fH
	DB	027H
	DB	04H
	DB	0f6H
	DB	089H
	DB	0f0H
CONST	ENDS
;	COMDAT _D3D11_DECODER_PROFILE_MPEG4PT2_VLD_SIMPLE
CONST	SEGMENT
_D3D11_DECODER_PROFILE_MPEG4PT2_VLD_SIMPLE DD 0efd64d74H
	DW	0c9e8H
	DW	041d7H
	DB	0a5H
	DB	0e9H
	DB	0e9H
	DB	0b0H
	DB	0e3H
	DB	09fH
	DB	0a3H
	DB	019H
CONST	ENDS
;	COMDAT _D3D11_DECODER_PROFILE_VC1_D2010
CONST	SEGMENT
_D3D11_DECODER_PROFILE_VC1_D2010 DD 01b81bea4H
	DW	0a0c7H
	DW	011d3H
	DB	0b9H
	DB	084H
	DB	00H
	DB	0c0H
	DB	04fH
	DB	02eH
	DB	073H
	DB	0c5H
CONST	ENDS
;	COMDAT _IID_ID3D11ShaderReflectionConstantBuffer
CONST	SEGMENT
_IID_ID3D11ShaderReflectionConstantBuffer DD 0eb62d63dH
	DW	093ddH
	DW	04318H
	DB	08aH
	DB	0e8H
	DB	0c6H
	DB	0f8H
	DB	03aH
	DB	0d3H
	DB	071H
	DB	0b8H
CONST	ENDS
;	COMDAT _D3D11_DECODER_PROFILE_VC1_VLD
CONST	SEGMENT
_D3D11_DECODER_PROFILE_VC1_VLD DD 01b81bea3H
	DW	0a0c7H
	DW	011d3H
	DB	0b9H
	DB	084H
	DB	00H
	DB	0c0H
	DB	04fH
	DB	02eH
	DB	073H
	DB	0c5H
CONST	ENDS
;	COMDAT _D3D11_DECODER_PROFILE_VC1_IDCT
CONST	SEGMENT
_D3D11_DECODER_PROFILE_VC1_IDCT DD 01b81bea2H
	DW	0a0c7H
	DW	011d3H
	DB	0b9H
	DB	084H
	DB	00H
	DB	0c0H
	DB	04fH
	DB	02eH
	DB	073H
	DB	0c5H
CONST	ENDS
;	COMDAT _D3D11_DECODER_PROFILE_VC1_MOCOMP
CONST	SEGMENT
_D3D11_DECODER_PROFILE_VC1_MOCOMP DD 01b81bea1H
	DW	0a0c7H
	DW	011d3H
	DB	0b9H
	DB	084H
	DB	00H
	DB	0c0H
	DB	04fH
	DB	02eH
	DB	073H
	DB	0c5H
CONST	ENDS
;	COMDAT _D3D11_DECODER_PROFILE_VC1_POSTPROC
CONST	SEGMENT
_D3D11_DECODER_PROFILE_VC1_POSTPROC DD 01b81bea0H
	DW	0a0c7H
	DW	011d3H
	DB	0b9H
	DB	084H
	DB	00H
	DB	0c0H
	DB	04fH
	DB	02eH
	DB	073H
	DB	0c5H
CONST	ENDS
;	COMDAT _D3D11_DECODER_PROFILE_WMV9_IDCT
CONST	SEGMENT
_D3D11_DECODER_PROFILE_WMV9_IDCT DD 01b81be94H
	DW	0a0c7H
	DW	011d3H
	DB	0b9H
	DB	084H
	DB	00H
	DB	0c0H
	DB	04fH
	DB	02eH
	DB	073H
	DB	0c5H
CONST	ENDS
;	COMDAT _D3D11_DECODER_PROFILE_WMV9_MOCOMP
CONST	SEGMENT
_D3D11_DECODER_PROFILE_WMV9_MOCOMP DD 01b81be91H
	DW	0a0c7H
	DW	011d3H
	DB	0b9H
	DB	084H
	DB	00H
	DB	0c0H
	DB	04fH
	DB	02eH
	DB	073H
	DB	0c5H
CONST	ENDS
;	COMDAT _D3D11_DECODER_PROFILE_WMV9_POSTPROC
CONST	SEGMENT
_D3D11_DECODER_PROFILE_WMV9_POSTPROC DD 01b81be90H
	DW	0a0c7H
	DW	011d3H
	DB	0b9H
	DB	084H
	DB	00H
	DB	0c0H
	DB	04fH
	DB	02eH
	DB	073H
	DB	0c5H
CONST	ENDS
;	COMDAT _D3D11_DECODER_PROFILE_WMV8_MOCOMP
CONST	SEGMENT
_D3D11_DECODER_PROFILE_WMV8_MOCOMP DD 01b81be81H
	DW	0a0c7H
	DW	011d3H
	DB	0b9H
	DB	084H
	DB	00H
	DB	0c0H
	DB	04fH
	DB	02eH
	DB	073H
	DB	0c5H
CONST	ENDS
;	COMDAT _D3D11_DECODER_PROFILE_WMV8_POSTPROC
CONST	SEGMENT
_D3D11_DECODER_PROFILE_WMV8_POSTPROC DD 01b81be80H
	DW	0a0c7H
	DW	011d3H
	DB	0b9H
	DB	084H
	DB	00H
	DB	0c0H
	DB	04fH
	DB	02eH
	DB	073H
	DB	0c5H
CONST	ENDS
;	COMDAT _D3D11_DECODER_PROFILE_H264_VLD_MULTIVIEW_NOFGT
CONST	SEGMENT
_D3D11_DECODER_PROFILE_H264_VLD_MULTIVIEW_NOFGT DD 0705b9d82H
	DW	076cfH
	DW	049d6H
	DB	0b7H
	DB	0e6H
	DB	0acH
	DB	088H
	DB	072H
	DB	0dbH
	DB	01H
	DB	03cH
CONST	ENDS
;	COMDAT _D3D11_DECODER_PROFILE_H264_VLD_STEREO_NOFGT
CONST	SEGMENT
_D3D11_DECODER_PROFILE_H264_VLD_STEREO_NOFGT DD 0f9aaccbbH
	DW	0c2b6H
	DW	04cfcH
	DB	087H
	DB	079H
	DB	057H
	DB	07H
	DB	0b1H
	DB	076H
	DB	05H
	DB	052H
CONST	ENDS
;	COMDAT _D3D11_DECODER_PROFILE_H264_VLD_STEREO_PROGRESSIVE_NOFGT
CONST	SEGMENT
_D3D11_DECODER_PROFILE_H264_VLD_STEREO_PROGRESSIVE_NOFGT DD 0d79be8daH
	DW	0cf1H
	DW	04c81H
	DB	0b8H
	DB	02aH
	DB	069H
	DB	0a4H
	DB	0e2H
	DB	036H
	DB	0f4H
	DB	03dH
CONST	ENDS
;	COMDAT _D3D11_DECODER_PROFILE_H264_VLD_WITHFMOASO_NOFGT
CONST	SEGMENT
_D3D11_DECODER_PROFILE_H264_VLD_WITHFMOASO_NOFGT DD 0d5f04ff9H
	DW	03418H
	DW	045d8H
	DB	095H
	DB	061H
	DB	032H
	DB	0a7H
	DB	06aH
	DB	0aeH
	DB	02dH
	DB	0ddH
CONST	ENDS
;	COMDAT _D3D11_DECODER_PROFILE_H264_VLD_FGT
CONST	SEGMENT
_D3D11_DECODER_PROFILE_H264_VLD_FGT DD 01b81be69H
	DW	0a0c7H
	DW	011d3H
	DB	0b9H
	DB	084H
	DB	00H
	DB	0c0H
	DB	04fH
	DB	02eH
	DB	073H
	DB	0c5H
CONST	ENDS
;	COMDAT _D3D11_DECODER_PROFILE_H264_VLD_NOFGT
CONST	SEGMENT
_D3D11_DECODER_PROFILE_H264_VLD_NOFGT DD 01b81be68H
	DW	0a0c7H
	DW	011d3H
	DB	0b9H
	DB	084H
	DB	00H
	DB	0c0H
	DB	04fH
	DB	02eH
	DB	073H
	DB	0c5H
CONST	ENDS
;	COMDAT _D3D11_DECODER_PROFILE_H264_IDCT_FGT
CONST	SEGMENT
_D3D11_DECODER_PROFILE_H264_IDCT_FGT DD 01b81be67H
	DW	0a0c7H
	DW	011d3H
	DB	0b9H
	DB	084H
	DB	00H
	DB	0c0H
	DB	04fH
	DB	02eH
	DB	073H
	DB	0c5H
CONST	ENDS
;	COMDAT _D3D11_DECODER_PROFILE_H264_IDCT_NOFGT
CONST	SEGMENT
_D3D11_DECODER_PROFILE_H264_IDCT_NOFGT DD 01b81be66H
	DW	0a0c7H
	DW	011d3H
	DB	0b9H
	DB	084H
	DB	00H
	DB	0c0H
	DB	04fH
	DB	02eH
	DB	073H
	DB	0c5H
CONST	ENDS
;	COMDAT _D3D11_DECODER_PROFILE_H264_MOCOMP_FGT
CONST	SEGMENT
_D3D11_DECODER_PROFILE_H264_MOCOMP_FGT DD 01b81be65H
	DW	0a0c7H
	DW	011d3H
	DB	0b9H
	DB	084H
	DB	00H
	DB	0c0H
	DB	04fH
	DB	02eH
	DB	073H
	DB	0c5H
CONST	ENDS
;	COMDAT _D3D11_DECODER_PROFILE_H264_MOCOMP_NOFGT
CONST	SEGMENT
_D3D11_DECODER_PROFILE_H264_MOCOMP_NOFGT DD 01b81be64H
	DW	0a0c7H
	DW	011d3H
	DB	0b9H
	DB	084H
	DB	00H
	DB	0c0H
	DB	04fH
	DB	02eH
	DB	073H
	DB	0c5H
CONST	ENDS
;	COMDAT _IID_ID3D11ShaderReflectionVariable
CONST	SEGMENT
_IID_ID3D11ShaderReflectionVariable DD 051f23923H
	DW	0f3e5H
	DW	04bd1H
	DB	091H
	DB	0cbH
	DB	060H
	DB	061H
	DB	077H
	DB	0d8H
	DB	0dbH
	DB	04cH
CONST	ENDS
;	COMDAT _D3D11_DECODER_PROFILE_MPEG2and1_VLD
CONST	SEGMENT
_D3D11_DECODER_PROFILE_MPEG2and1_VLD DD 086695f12H
	DW	0340eH
	DW	04f04H
	DB	09fH
	DB	0d3H
	DB	092H
	DB	053H
	DB	0ddH
	DB	032H
	DB	074H
	DB	060H
CONST	ENDS
;	COMDAT ?min_exponent10@?$numeric_limits@N@std@@2HB
CONST	SEGMENT
?min_exponent10@?$numeric_limits@N@std@@2HB DD 0fffffecdH ; std::numeric_limits<double>::min_exponent10
CONST	ENDS
;	COMDAT _D3D11_DECODER_PROFILE_MPEG1_VLD
CONST	SEGMENT
_D3D11_DECODER_PROFILE_MPEG1_VLD DD 06f3ec719H
	DW	03735H
	DW	042ccH
	DB	080H
	DB	063H
	DB	065H
	DB	0ccH
	DB	03cH
	DB	0b3H
	DB	066H
	DB	016H
CONST	ENDS
;	COMDAT _D3D11_DECODER_PROFILE_MPEG2_VLD
CONST	SEGMENT
_D3D11_DECODER_PROFILE_MPEG2_VLD DD 0ee27417fH
	DW	05e28H
	DW	04e65H
	DB	0beH
	DB	0eaH
	DB	01dH
	DB	026H
	DB	0b5H
	DB	08H
	DB	0adH
	DB	0c9H
CONST	ENDS
;	COMDAT _D3D11_DECODER_PROFILE_MPEG2_IDCT
CONST	SEGMENT
_D3D11_DECODER_PROFILE_MPEG2_IDCT DD 0bf22ad00H
	DW	03eaH
	DW	04690H
	DB	080H
	DB	077H
	DB	047H
	DB	033H
	DB	046H
	DB	020H
	DB	09bH
	DB	07eH
CONST	ENDS
;	COMDAT _D3D11_DECODER_PROFILE_MPEG2_MOCOMP
CONST	SEGMENT
_D3D11_DECODER_PROFILE_MPEG2_MOCOMP DD 0e6a9f44bH
	DW	061b0H
	DW	04563H
	DB	09eH
	DB	0a4H
	DB	063H
	DB	0d2H
	DB	0a3H
	DB	0c6H
	DB	0feH
	DB	066H
CONST	ENDS
;	COMDAT ?min_exponent@?$numeric_limits@N@std@@2HB
CONST	SEGMENT
?min_exponent@?$numeric_limits@N@std@@2HB DD 0fffffc03H	; std::numeric_limits<double>::min_exponent
CONST	ENDS
;	COMDAT _IID_ID3D10BlendState1
CONST	SEGMENT
_IID_ID3D10BlendState1 DD 0edad8d99H
	DW	08a35H
	DW	04d6dH
	DB	085H
	DB	066H
	DB	02eH
	DB	0a2H
	DB	076H
	DB	0cdH
	DB	0e1H
	DB	061H
CONST	ENDS
;	COMDAT ?max_exponent10@?$numeric_limits@N@std@@2HB
CONST	SEGMENT
?max_exponent10@?$numeric_limits@N@std@@2HB DD 0134H	; std::numeric_limits<double>::max_exponent10
CONST	ENDS
;	COMDAT _IID_ID3D11InputLayout
CONST	SEGMENT
_IID_ID3D11InputLayout DD 0e4819ddcH
	DW	04cf0H
	DW	04025H
	DB	0bdH
	DB	026H
	DB	05dH
	DB	0e8H
	DB	02aH
	DB	03eH
	DB	07H
	DB	0b7H
CONST	ENDS
;	COMDAT ?max_exponent@?$numeric_limits@N@std@@2HB
CONST	SEGMENT
?max_exponent@?$numeric_limits@N@std@@2HB DD 0400H	; std::numeric_limits<double>::max_exponent
CONST	ENDS
;	COMDAT ?max_digits10@?$numeric_limits@N@std@@2HB
CONST	SEGMENT
?max_digits10@?$numeric_limits@N@std@@2HB DD 011H	; std::numeric_limits<double>::max_digits10
CONST	ENDS
;	COMDAT _IID_ID3D10SamplerState
CONST	SEGMENT
_IID_ID3D10SamplerState DD 09b7e4c0cH
	DW	0342cH
	DW	04106H
	DB	0a1H
	DB	09fH
	DB	04fH
	DB	027H
	DB	04H
	DB	0f6H
	DB	089H
	DB	0f0H
CONST	ENDS
;	COMDAT _IID_ID3D11ComputeShader
CONST	SEGMENT
_IID_ID3D11ComputeShader DD 04f5b196eH
	DW	0c2bdH
	DW	0495eH
	DB	0bdH
	DB	01H
	DB	01fH
	DB	0deH
	DB	0d3H
	DB	08eH
	DB	049H
	DB	069H
CONST	ENDS
;	COMDAT ?digits10@?$numeric_limits@N@std@@2HB
CONST	SEGMENT
?digits10@?$numeric_limits@N@std@@2HB DD 0fH		; std::numeric_limits<double>::digits10
CONST	ENDS
;	COMDAT ?digits@?$numeric_limits@N@std@@2HB
CONST	SEGMENT
?digits@?$numeric_limits@N@std@@2HB DD 035H		; std::numeric_limits<double>::digits
CONST	ENDS
;	COMDAT _IID_ID3D11PixelShader
CONST	SEGMENT
_IID_ID3D11PixelShader DD 0ea82e40dH
	DW	051dcH
	DW	04f33H
	DB	093H
	DB	0d4H
	DB	0dbH
	DB	07cH
	DB	091H
	DB	025H
	DB	0aeH
	DB	08cH
CONST	ENDS
;	COMDAT _IID_ID3D11ShaderReflectionType
CONST	SEGMENT
_IID_ID3D11ShaderReflectionType DD 06e6ffa6aH
	DW	09baeH
	DW	04613H
	DB	0a5H
	DB	01eH
	DB	091H
	DB	065H
	DB	02dH
	DB	050H
	DB	08cH
	DB	021H
CONST	ENDS
;	COMDAT _IID_IDXGIFactory2
CONST	SEGMENT
_IID_IDXGIFactory2 DD 050c83a1cH
	DW	0e072H
	DW	04c48H
	DB	087H
	DB	0b0H
	DB	036H
	DB	030H
	DB	0faH
	DB	036H
	DB	0a6H
	DB	0d0H
CONST	ENDS
;	COMDAT _IID_ID3D11GeometryShader
CONST	SEGMENT
_IID_ID3D11GeometryShader DD 038325b96H
	DW	0effbH
	DW	04022H
	DB	0baH
	DB	02H
	DB	02eH
	DB	079H
	DB	05bH
	DB	070H
	DB	027H
	DB	05cH
CONST	ENDS
;	COMDAT _IID_ID3D10EffectMatrixVariable
CONST	SEGMENT
_IID_ID3D10EffectMatrixVariable DD 050666c24H
	DW	0b82fH
	DW	04eedH
	DB	0a1H
	DB	072H
	DB	05bH
	DB	06eH
	DB	07eH
	DB	085H
	DB	022H
	DB	0e0H
CONST	ENDS
;	COMDAT _IID_ID3D11DomainShader
CONST	SEGMENT
_IID_ID3D11DomainShader DD 0f582c508H
	DW	0f36H
	DW	0490cH
	DB	099H
	DB	077H
	DB	031H
	DB	0eeH
	DB	0ceH
	DB	026H
	DB	08cH
	DB	0faH
CONST	ENDS
;	COMDAT __GUID_bb2c6faa_b5fb_4082_8e6b_388b8cfa90e1
CONST	SEGMENT
__GUID_bb2c6faa_b5fb_4082_8e6b_388b8cfa90e1 DD 0bb2c6faaH
	DW	0b5fbH
	DW	04082H
	DB	08eH
	DB	06bH
	DB	038H
	DB	08bH
	DB	08cH
	DB	0faH
	DB	090H
	DB	0e1H
CONST	ENDS
;	COMDAT ?min_exponent10@?$numeric_limits@M@std@@2HB
CONST	SEGMENT
?min_exponent10@?$numeric_limits@M@std@@2HB DD 0ffffffdbH ; std::numeric_limits<float>::min_exponent10
CONST	ENDS
;	COMDAT _IID_ID3D11VideoContext
CONST	SEGMENT
_IID_ID3D11VideoContext DD 061f21c45H
	DW	03c0eH
	DW	04a74H
	DB	09cH
	DB	0eaH
	DB	067H
	DB	010H
	DB	0dH
	DB	09aH
	DB	0d5H
	DB	0e4H
CONST	ENDS
;	COMDAT _IID_ID3D11HullShader
CONST	SEGMENT
_IID_ID3D11HullShader DD 08e5c6061H
	DW	0628aH
	DW	04c8eH
	DB	082H
	DB	064H
	DB	0bbH
	DB	0e4H
	DB	05cH
	DB	0b3H
	DB	0d5H
	DB	0ddH
CONST	ENDS
;	COMDAT _IID_ID3D11View
CONST	SEGMENT
_IID_ID3D11View DD 0839d1216H
	DW	0bb2eH
	DW	0412bH
	DB	0b7H
	DB	0f4H
	DB	0a9H
	DB	0dbH
	DB	0ebH
	DB	0e0H
	DB	08eH
	DB	0d1H
CONST	ENDS
;	COMDAT ?min_exponent@?$numeric_limits@M@std@@2HB
CONST	SEGMENT
?min_exponent@?$numeric_limits@M@std@@2HB DD 0ffffff83H	; std::numeric_limits<float>::min_exponent
CONST	ENDS
;	COMDAT __GUID_a04bfb29_08ef_43d6_a49c_a9bdbdcbe686
CONST	SEGMENT
__GUID_a04bfb29_08ef_43d6_a49c_a9bdbdcbe686 DD 0a04bfb29H
	DW	08efH
	DW	043d6H
	DB	0a4H
	DB	09cH
	DB	0a9H
	DB	0bdH
	DB	0bdH
	DB	0cbH
	DB	0e6H
	DB	086H
CONST	ENDS
;	COMDAT ?max_exponent10@?$numeric_limits@M@std@@2HB
CONST	SEGMENT
?max_exponent10@?$numeric_limits@M@std@@2HB DD 026H	; std::numeric_limits<float>::max_exponent10
CONST	ENDS
;	COMDAT _IID_ID3D11VertexShader
CONST	SEGMENT
_IID_ID3D11VertexShader DD 03b301d64H
	DW	0d678H
	DW	04289H
	DB	088H
	DB	097H
	DB	022H
	DB	0f8H
	DB	092H
	DB	08bH
	DB	072H
	DB	0f3H
CONST	ENDS
;	COMDAT _IID_ID3D11VideoProcessorOutputView
CONST	SEGMENT
_IID_ID3D11VideoProcessorOutputView DD 0a048285eH
	DW	025a9H
	DW	04527H
	DB	0bdH
	DB	093H
	DB	0d6H
	DB	08bH
	DB	068H
	DB	0c4H
	DB	042H
	DB	054H
CONST	ENDS
;	COMDAT ?max_exponent@?$numeric_limits@M@std@@2HB
CONST	SEGMENT
?max_exponent@?$numeric_limits@M@std@@2HB DD 080H	; std::numeric_limits<float>::max_exponent
CONST	ENDS
;	COMDAT ?value@?$integral_constant@I$0A@@std@@2IB
CONST	SEGMENT
?value@?$integral_constant@I$0A@@std@@2IB DD 00H	; std::integral_constant<unsigned int,0>::value
CONST	ENDS
;	COMDAT _IID_IDXGISwapChain1
CONST	SEGMENT
_IID_IDXGISwapChain1 DD 0790a45f7H
	DW	0d42H
	DW	04876H
	DB	098H
	DB	03aH
	DB	0aH
	DB	055H
	DB	0cfH
	DB	0e6H
	DB	0f4H
	DB	0aaH
CONST	ENDS
;	COMDAT ?max_digits10@?$numeric_limits@M@std@@2HB
CONST	SEGMENT
?max_digits10@?$numeric_limits@M@std@@2HB DD 09H	; std::numeric_limits<float>::max_digits10
CONST	ENDS
;	COMDAT ?digits10@?$numeric_limits@M@std@@2HB
CONST	SEGMENT
?digits10@?$numeric_limits@M@std@@2HB DD 06H		; std::numeric_limits<float>::digits10
CONST	ENDS
;	COMDAT _IID_ID3D10InputLayout
CONST	SEGMENT
_IID_ID3D10InputLayout DD 09b7e4c0bH
	DW	0342cH
	DW	04106H
	DB	0a1H
	DB	09fH
	DB	04fH
	DB	027H
	DB	04H
	DB	0f6H
	DB	089H
	DB	0f0H
CONST	ENDS
;	COMDAT _IID_ID3D11UnorderedAccessView
CONST	SEGMENT
_IID_ID3D11UnorderedAccessView DD 028acf509H
	DW	07f5cH
	DW	048f6H
	DB	086H
	DB	011H
	DB	0f3H
	DB	016H
	DB	01H
	DB	0aH
	DB	063H
	DB	080H
CONST	ENDS
;	COMDAT ?digits@?$numeric_limits@M@std@@2HB
CONST	SEGMENT
?digits@?$numeric_limits@M@std@@2HB DD 018H		; std::numeric_limits<float>::digits
CONST	ENDS
;	COMDAT _IID_ID3D11Texture3D
CONST	SEGMENT
_IID_ID3D11Texture3D DD 037e866eH
	DW	0f56dH
	DW	04357H
	DB	0a8H
	DB	0afH
	DB	09dH
	DB	0abH
	DB	0beH
	DB	06eH
	DB	025H
	DB	0eH
CONST	ENDS
;	COMDAT _IID_ID3D10PixelShader
CONST	SEGMENT
_IID_ID3D10PixelShader DD 04968b601H
	DW	09d00H
	DW	04cdeH
	DB	083H
	DB	046H
	DB	08eH
	DB	07fH
	DB	067H
	DB	058H
	DB	019H
	DB	0b6H
CONST	ENDS
;	COMDAT _IID_ID3D10EffectPool
CONST	SEGMENT
_IID_ID3D10EffectPool DD 09537ab04H
	DW	03250H
	DW	0412eH
	DB	082H
	DB	013H
	DB	0fcH
	DB	0d2H
	DB	0f8H
	DB	067H
	DB	079H
	DB	033H
CONST	ENDS
;	COMDAT _IID_ID3D10GeometryShader
CONST	SEGMENT
_IID_ID3D10GeometryShader DD 06316be88H
	DW	054cdH
	DW	04040H
	DB	0abH
	DB	044H
	DB	020H
	DB	046H
	DB	01bH
	DB	0c8H
	DB	01fH
	DB	068H
CONST	ENDS
;	COMDAT _IID_ID3D10VertexShader
CONST	SEGMENT
_IID_ID3D10VertexShader DD 09b7e4c0aH
	DW	0342cH
	DW	04106H
	DB	0a1H
	DB	09fH
	DB	04fH
	DB	027H
	DB	04H
	DB	0f6H
	DB	089H
	DB	0f0H
CONST	ENDS
;	COMDAT ?value@?$_Maximum@$S@std@@2IB
CONST	SEGMENT
?value@?$_Maximum@$S@std@@2IB DD 00H			; std::_Maximum<>::value
CONST	ENDS
;	COMDAT ?digits10@?$numeric_limits@_K@std@@2HB
CONST	SEGMENT
?digits10@?$numeric_limits@_K@std@@2HB DD 013H		; std::numeric_limits<unsigned __int64>::digits10
CONST	ENDS
;	COMDAT ?digits@?$numeric_limits@_K@std@@2HB
CONST	SEGMENT
?digits@?$numeric_limits@_K@std@@2HB DD 040H		; std::numeric_limits<unsigned __int64>::digits
CONST	ENDS
;	COMDAT _IID_ID3D10DepthStencilView
CONST	SEGMENT
_IID_ID3D10DepthStencilView DD 09b7e4c09H
	DW	0342cH
	DW	04106H
	DB	0a1H
	DB	09fH
	DB	04fH
	DB	027H
	DB	04H
	DB	0f6H
	DB	089H
	DB	0f0H
CONST	ENDS
;	COMDAT ?is_signed@?$numeric_limits@_K@std@@2_NB
CONST	SEGMENT
?is_signed@?$numeric_limits@_K@std@@2_NB DB 00H		; std::numeric_limits<unsigned __int64>::is_signed
CONST	ENDS
;	COMDAT _IID_ID3D11VideoProcessorInputView
CONST	SEGMENT
_IID_ID3D11VideoProcessorInputView DD 011ec5a5fH
	DW	051dcH
	DW	04945H
	DB	0abH
	DB	034H
	DB	06eH
	DB	08cH
	DB	021H
	DB	030H
	DB	0eH
	DB	0a5H
CONST	ENDS
;	COMDAT ?value@?$integral_constant@I$00@std@@2IB
CONST	SEGMENT
?value@?$integral_constant@I$00@std@@2IB DD 01H		; std::integral_constant<unsigned int,1>::value
CONST	ENDS
;	COMDAT __GUID_29038f61_3839_4626_91fd_086879011a05
CONST	SEGMENT
__GUID_29038f61_3839_4626_91fd_086879011a05 DD 029038f61H
	DW	03839H
	DW	04626H
	DB	091H
	DB	0fdH
	DB	08H
	DB	068H
	DB	079H
	DB	01H
	DB	01aH
	DB	05H
CONST	ENDS
;	COMDAT _IID_ID3D10Effect
CONST	SEGMENT
_IID_ID3D10Effect DD 051b0ca8bH
	DW	0ec0bH
	DW	04519H
	DB	087H
	DB	0dH
	DB	08eH
	DB	0e1H
	DB	0cbH
	DB	050H
	DB	017H
	DB	0c7H
CONST	ENDS
;	COMDAT __GUID_77db970f_6276_48ba_ba28_070143b4392c
CONST	SEGMENT
__GUID_77db970f_6276_48ba_ba28_070143b4392c DD 077db970fH
	DW	06276H
	DW	048baH
	DB	0baH
	DB	028H
	DB	07H
	DB	01H
	DB	043H
	DB	0b4H
	DB	039H
	DB	02cH
CONST	ENDS
;	COMDAT _IID_ID3D11Texture2D
CONST	SEGMENT
_IID_ID3D11Texture2D DD 06f15aaf2H
	DW	0d208H
	DW	04e89H
	DB	09aH
	DB	0b4H
	DB	048H
	DB	095H
	DB	035H
	DB	0d3H
	DB	04fH
	DB	09cH
CONST	ENDS
;	COMDAT _IID_ID3D10EffectVectorVariable
CONST	SEGMENT
_IID_ID3D10EffectVectorVariable DD 062b98c44H
	DW	01f82H
	DW	04c67H
	DB	0bcH
	DB	0d0H
	DB	072H
	DB	0cfH
	DB	08fH
	DB	021H
	DB	07eH
	DB	081H
CONST	ENDS
;	COMDAT ?digits10@?$numeric_limits@_J@std@@2HB
CONST	SEGMENT
?digits10@?$numeric_limits@_J@std@@2HB DD 012H		; std::numeric_limits<__int64>::digits10
CONST	ENDS
;	COMDAT _IID_IDXGIDevice2
CONST	SEGMENT
_IID_IDXGIDevice2 DD 05008617H
	DW	0fbfdH
	DW	04051H
	DB	0a7H
	DB	090H
	DB	014H
	DB	048H
	DB	084H
	DB	0b4H
	DB	0f6H
	DB	0a9H
CONST	ENDS
;	COMDAT ?digits@?$numeric_limits@_J@std@@2HB
CONST	SEGMENT
?digits@?$numeric_limits@_J@std@@2HB DD 03fH		; std::numeric_limits<__int64>::digits
CONST	ENDS
;	COMDAT ?is_signed@?$numeric_limits@_J@std@@2_NB
CONST	SEGMENT
?is_signed@?$numeric_limits@_J@std@@2_NB DB 01H		; std::numeric_limits<__int64>::is_signed
CONST	ENDS
;	COMDAT __GUID_6543dbb6_1b48_42f5_ab82_e97ec74326f6
CONST	SEGMENT
__GUID_6543dbb6_1b48_42f5_ab82_e97ec74326f6 DD 06543dbb6H
	DW	01b48H
	DW	042f5H
	DB	0abH
	DB	082H
	DB	0e9H
	DB	07eH
	DB	0c7H
	DB	043H
	DB	026H
	DB	0f6H
CONST	ENDS
;	COMDAT __GUID_79cf2233_7536_4948_9d36_1e4692dc5760
CONST	SEGMENT
__GUID_79cf2233_7536_4948_9d36_1e4692dc5760 DD 079cf2233H
	DW	07536H
	DW	04948H
	DB	09dH
	DB	036H
	DB	01eH
	DB	046H
	DB	092H
	DB	0dcH
	DB	057H
	DB	060H
CONST	ENDS
;	COMDAT _SID_SCommandBarState
CONST	SEGMENT
_SID_SCommandBarState DD 0b99eaa5cH
	DW	03850H
	DW	04400H
	DB	0bcH
	DB	033H
	DB	02cH
	DB	0e5H
	DB	034H
	DB	04H
	DB	08bH
	DB	0f8H
CONST	ENDS
;	COMDAT _IID_ID3D11VideoDecoderOutputView
CONST	SEGMENT
_IID_ID3D11VideoDecoderOutputView DD 0c2931aeaH
	DW	02a85H
	DW	04f20H
	DB	086H
	DB	0fH
	DB	0fbH
	DB	0a1H
	DB	0fdH
	DB	025H
	DB	06eH
	DB	018H
CONST	ENDS
;	COMDAT _IID_IDXGIResource1
CONST	SEGMENT
_IID_IDXGIResource1 DD 030961379H
	DW	04609H
	DW	04a41H
	DB	099H
	DB	08eH
	DB	054H
	DB	0feH
	DB	056H
	DB	07eH
	DB	0e0H
	DB	0c1H
CONST	ENDS
;	COMDAT _IID_ID3D10EffectTechnique
CONST	SEGMENT
_IID_ID3D10EffectTechnique DD 0db122ce8H
	DW	0d1c9H
	DW	04292H
	DB	0b2H
	DB	037H
	DB	024H
	DB	0edH
	DB	03dH
	DB	0e8H
	DB	0b1H
	DB	075H
CONST	ENDS
;	COMDAT ?digits10@?$numeric_limits@K@std@@2HB
CONST	SEGMENT
?digits10@?$numeric_limits@K@std@@2HB DD 09H		; std::numeric_limits<unsigned long>::digits10
CONST	ENDS
;	COMDAT _IID_IDXGISurface2
CONST	SEGMENT
_IID_IDXGISurface2 DD 0aba496ddH
	DW	0b617H
	DW	04cb8H
	DB	0a8H
	DB	066H
	DB	0bcH
	DB	044H
	DB	0d7H
	DB	0ebH
	DB	01fH
	DB	0a2H
CONST	ENDS
;	COMDAT ?digits@?$numeric_limits@K@std@@2HB
CONST	SEGMENT
?digits@?$numeric_limits@K@std@@2HB DD 020H		; std::numeric_limits<unsigned long>::digits
CONST	ENDS
;	COMDAT ?value@?$integral_constant@I$01@std@@2IB
CONST	SEGMENT
?value@?$integral_constant@I$01@std@@2IB DD 02H		; std::integral_constant<unsigned int,2>::value
CONST	ENDS
;	COMDAT ?is_signed@?$numeric_limits@K@std@@2_NB
CONST	SEGMENT
?is_signed@?$numeric_limits@K@std@@2_NB DB 00H		; std::numeric_limits<unsigned long>::is_signed
CONST	ENDS
;	COMDAT _IID_ID3D11InfoQueue
CONST	SEGMENT
_IID_ID3D11InfoQueue DD 06543dbb6H
	DW	01b48H
	DW	042f5H
	DB	0abH
	DB	082H
	DB	0e9H
	DB	07eH
	DB	0c7H
	DB	043H
	DB	026H
	DB	0f6H
CONST	ENDS
;	COMDAT _IID_ID3D10RenderTargetView
CONST	SEGMENT
_IID_ID3D10RenderTargetView DD 09b7e4c08H
	DW	0342cH
	DW	04106H
	DB	0a1H
	DB	09fH
	DB	04fH
	DB	027H
	DB	04H
	DB	0f6H
	DB	089H
	DB	0f0H
CONST	ENDS
;	COMDAT _IID_ID3D11Texture1D
CONST	SEGMENT
_IID_ID3D11Texture1D DD 0f8fb5c27H
	DW	0c6b3H
	DW	04f75H
	DB	0a4H
	DB	0c8H
	DB	043H
	DB	09aH
	DB	0f2H
	DB	0efH
	DB	056H
	DB	04cH
CONST	ENDS
;	COMDAT _IID_ID3D11CryptoSession
CONST	SEGMENT
_IID_ID3D11CryptoSession DD 09b32f9adH
	DW	0bdccH
	DW	040a6H
	DB	0a3H
	DB	09dH
	DB	0d5H
	DB	0c8H
	DB	065H
	DB	084H
	DB	057H
	DB	020H
CONST	ENDS
;	COMDAT _D3D11_KEY_EXCHANGE_RSAES_OAEP
CONST	SEGMENT
_D3D11_KEY_EXCHANGE_RSAES_OAEP DD 0c1949895H
	DW	0d72aH
	DW	04a1dH
	DB	08eH
	DB	05dH
	DB	0edH
	DB	085H
	DB	07dH
	DB	017H
	DB	015H
	DB	020H
CONST	ENDS
;	COMDAT _IID_ID3D10EffectPass
CONST	SEGMENT
_IID_ID3D10EffectPass DD 05cfbeb89H
	DW	01a06H
	DW	046e0H
	DB	0b2H
	DB	082H
	DB	0e3H
	DB	0f9H
	DB	0bfH
	DB	0a3H
	DB	06aH
	DB	054H
CONST	ENDS
;	COMDAT ?digits10@?$numeric_limits@J@std@@2HB
CONST	SEGMENT
?digits10@?$numeric_limits@J@std@@2HB DD 09H		; std::numeric_limits<long>::digits10
CONST	ENDS
;	COMDAT ?digits@?$numeric_limits@J@std@@2HB
CONST	SEGMENT
?digits@?$numeric_limits@J@std@@2HB DD 01fH		; std::numeric_limits<long>::digits
CONST	ENDS
;	COMDAT _IID_IDXGIOutputDuplication
CONST	SEGMENT
_IID_IDXGIOutputDuplication DD 0191cfac3H
	DW	0a341H
	DW	0470dH
	DB	0b2H
	DB	06eH
	DB	0a8H
	DB	064H
	DB	0f4H
	DB	028H
	DB	031H
	DB	09cH
CONST	ENDS
;	COMDAT ?is_signed@?$numeric_limits@J@std@@2_NB
CONST	SEGMENT
?is_signed@?$numeric_limits@J@std@@2_NB DB 01H		; std::numeric_limits<long>::is_signed
CONST	ENDS
;	COMDAT __GUID_6f15aaf2_d208_4e89_9ab4_489535d34f9c
CONST	SEGMENT
__GUID_6f15aaf2_d208_4e89_9ab4_489535d34f9c DD 06f15aaf2H
	DW	0d208H
	DW	04e89H
	DB	09aH
	DB	0b4H
	DB	048H
	DB	095H
	DB	035H
	DB	0d3H
	DB	04fH
	DB	09cH
CONST	ENDS
;	COMDAT _IID_ID3D10EffectScalarVariable
CONST	SEGMENT
_IID_ID3D10EffectScalarVariable DD 0e48f7bH
	DW	0d2c8H
	DW	049e8H
	DB	0a8H
	DB	06cH
	DB	02H
	DB	02dH
	DB	0eeH
	DB	053H
	DB	043H
	DB	01fH
CONST	ENDS
;	COMDAT ?value@?$integral_constant@I$03@std@@2IB
CONST	SEGMENT
?value@?$integral_constant@I$03@std@@2IB DD 04H		; std::integral_constant<unsigned int,4>::value
CONST	ENDS
;	COMDAT ?digits10@?$numeric_limits@I@std@@2HB
CONST	SEGMENT
?digits10@?$numeric_limits@I@std@@2HB DD 09H		; std::numeric_limits<unsigned int>::digits10
CONST	ENDS
;	COMDAT ?digits@?$numeric_limits@I@std@@2HB
CONST	SEGMENT
?digits@?$numeric_limits@I@std@@2HB DD 020H		; std::numeric_limits<unsigned int>::digits
CONST	ENDS
;	COMDAT ?is_signed@?$numeric_limits@I@std@@2_NB
CONST	SEGMENT
?is_signed@?$numeric_limits@I@std@@2_NB DB 00H		; std::numeric_limits<unsigned int>::is_signed
CONST	ENDS
;	COMDAT _IID_ID3D11Buffer
CONST	SEGMENT
_IID_ID3D11Buffer DD 048570b85H
	DW	0d1eeH
	DW	04fcdH
	DB	0a2H
	DB	050H
	DB	0ebH
	DB	035H
	DB	07H
	DB	022H
	DB	0b0H
	DB	037H
CONST	ENDS
;	COMDAT _IID_ID3D11DepthStencilView
CONST	SEGMENT
_IID_ID3D11DepthStencilView DD 09fdac92aH
	DW	01876H
	DW	048c3H
	DB	0afH
	DB	0adH
	DB	025H
	DB	0b9H
	DB	04fH
	DB	084H
	DB	0a9H
	DB	0b6H
CONST	ENDS
;	COMDAT __GUID_770aae78_f26f_4dba_a829_253c83d1b387
CONST	SEGMENT
__GUID_770aae78_f26f_4dba_a829_253c83d1b387 DD 0770aae78H
	DW	0f26fH
	DW	04dbaH
	DB	0a8H
	DB	029H
	DB	025H
	DB	03cH
	DB	083H
	DB	0d1H
	DB	0b3H
	DB	087H
CONST	ENDS
;	COMDAT _IID_ID3DUserDefinedAnnotation
CONST	SEGMENT
_IID_ID3DUserDefinedAnnotation DD 0b2daad8bH
	DW	03d4H
	DW	04dbfH
	DB	095H
	DB	0ebH
	DB	032H
	DB	0abH
	DB	04bH
	DB	063H
	DB	0d0H
	DB	0abH
CONST	ENDS
;	COMDAT ?digits10@?$numeric_limits@H@std@@2HB
CONST	SEGMENT
?digits10@?$numeric_limits@H@std@@2HB DD 09H		; std::numeric_limits<int>::digits10
CONST	ENDS
;	COMDAT ?digits@?$numeric_limits@H@std@@2HB
CONST	SEGMENT
?digits@?$numeric_limits@H@std@@2HB DD 01fH		; std::numeric_limits<int>::digits
CONST	ENDS
;	COMDAT _IID_IDXGIDisplayControl
CONST	SEGMENT
_IID_IDXGIDisplayControl DD 0ea9dbf1aH
	DW	0c88eH
	DW	04486H
	DB	085H
	DB	04aH
	DB	098H
	DB	0aaH
	DB	01H
	DB	038H
	DB	0f3H
	DB	0cH
CONST	ENDS
;	COMDAT ?is_signed@?$numeric_limits@H@std@@2_NB
CONST	SEGMENT
?is_signed@?$numeric_limits@H@std@@2_NB DB 01H		; std::numeric_limits<int>::is_signed
CONST	ENDS
;	COMDAT _IID_ID3D10EffectSamplerVariable
CONST	SEGMENT
_IID_ID3D10EffectSamplerVariable DD 06530d5c7H
	DW	07e9H
	DW	04271H
	DB	0a4H
	DB	018H
	DB	0e7H
	DB	0ceH
	DB	04bH
	DB	0d1H
	DB	0e4H
	DB	080H
CONST	ENDS
;	COMDAT ?value@?$integral_constant@I$07@std@@2IB
CONST	SEGMENT
?value@?$integral_constant@I$07@std@@2IB DD 08H		; std::integral_constant<unsigned int,8>::value
CONST	ENDS
;	COMDAT _IID_ID3D10EffectVariable
CONST	SEGMENT
_IID_ID3D10EffectVariable DD 0ae897105H
	DW	0e6H
	DW	045bfH
	DB	0bbH
	DB	08eH
	DB	028H
	DB	01dH
	DB	0d6H
	DB	0dbH
	DB	08eH
	DB	01bH
CONST	ENDS
;	COMDAT _IID_ID3D11Device1
CONST	SEGMENT
_IID_ID3D11Device1 DD 0a04bfb29H
	DW	08efH
	DW	043d6H
	DB	0a4H
	DB	09cH
	DB	0a9H
	DB	0bdH
	DB	0bdH
	DB	0cbH
	DB	0e6H
	DB	086H
CONST	ENDS
;	COMDAT _IID_ID3D10ShaderResourceView
CONST	SEGMENT
_IID_ID3D10ShaderResourceView DD 09b7e4c07H
	DW	0342cH
	DW	04106H
	DB	0a1H
	DB	09fH
	DB	04fH
	DB	027H
	DB	04H
	DB	0f6H
	DB	089H
	DB	0f0H
CONST	ENDS
;	COMDAT _IID_ID3D11Resource
CONST	SEGMENT
_IID_ID3D11Resource DD 0dc8e63f3H
	DW	0d12bH
	DW	04952H
	DB	0b4H
	DB	07bH
	DB	05eH
	DB	045H
	DB	02H
	DB	06aH
	DB	086H
	DB	02dH
CONST	ENDS
;	COMDAT _IID_ID3D10Blob
CONST	SEGMENT
_IID_ID3D10Blob DD 08ba5fb08H
	DW	05195H
	DW	040e2H
	DB	0acH
	DB	058H
	DB	0dH
	DB	098H
	DB	09cH
	DB	03aH
	DB	01H
	DB	02H
CONST	ENDS
;	COMDAT ?digits10@?$numeric_limits@G@std@@2HB
CONST	SEGMENT
?digits10@?$numeric_limits@G@std@@2HB DD 04H		; std::numeric_limits<unsigned short>::digits10
CONST	ENDS
;	COMDAT _IID_IDXGIDevice1
CONST	SEGMENT
_IID_IDXGIDevice1 DD 077db970fH
	DW	06276H
	DW	048baH
	DB	0baH
	DB	028H
	DB	07H
	DB	01H
	DB	043H
	DB	0b4H
	DB	039H
	DB	02cH
CONST	ENDS
;	COMDAT ?digits@?$numeric_limits@G@std@@2HB
CONST	SEGMENT
?digits@?$numeric_limits@G@std@@2HB DD 010H		; std::numeric_limits<unsigned short>::digits
CONST	ENDS
;	COMDAT ?is_signed@?$numeric_limits@G@std@@2_NB
CONST	SEGMENT
?is_signed@?$numeric_limits@G@std@@2_NB DB 00H		; std::numeric_limits<unsigned short>::is_signed
CONST	ENDS
;	COMDAT _IID_IDXGIAdapter1
CONST	SEGMENT
_IID_IDXGIAdapter1 DD 029038f61H
	DW	03839H
	DW	04626H
	DB	091H
	DB	0fdH
	DB	08H
	DB	068H
	DB	079H
	DB	01H
	DB	01aH
	DB	05H
CONST	ENDS
;	COMDAT _IID_ID3D10EffectType
CONST	SEGMENT
_IID_ID3D10EffectType DD 04e9e1ddcH
	DW	0cd9dH
	DW	04772H
	DB	0a8H
	DB	037H
	DB	00H
	DB	018H
	DB	0bH
	DB	09bH
	DB	088H
	DB	0fdH
CONST	ENDS
;	COMDAT _IID_IDXGIFactory1
CONST	SEGMENT
_IID_IDXGIFactory1 DD 0770aae78H
	DW	0f26fH
	DW	04dbaH
	DB	0a8H
	DB	029H
	DB	025H
	DB	03cH
	DB	083H
	DB	0d1H
	DB	0b3H
	DB	087H
CONST	ENDS
;	COMDAT _IID_ID3D11RasterizerState
CONST	SEGMENT
_IID_ID3D11RasterizerState DD 09bb4ab81H
	DW	0ab1aH
	DW	04d8fH
	DB	0b5H
	DB	06H
	DB	0fcH
	DB	04H
	DB	020H
	DB	0bH
	DB	06eH
	DB	0e7H
CONST	ENDS
;	COMDAT ?digits10@?$numeric_limits@F@std@@2HB
CONST	SEGMENT
?digits10@?$numeric_limits@F@std@@2HB DD 04H		; std::numeric_limits<short>::digits10
CONST	ENDS
;	COMDAT ?digits@?$numeric_limits@F@std@@2HB
CONST	SEGMENT
?digits@?$numeric_limits@F@std@@2HB DD 0fH		; std::numeric_limits<short>::digits
CONST	ENDS
;	COMDAT _IID_ID3D10EffectRasterizerVariable
CONST	SEGMENT
_IID_ID3D10EffectRasterizerVariable DD 021af9f0eH
	DW	04d94H
	DW	04ea9H
	DB	097H
	DB	085H
	DB	02cH
	DB	0b7H
	DB	06bH
	DB	08cH
	DB	0bH
	DB	034H
CONST	ENDS
;	COMDAT ?is_signed@?$numeric_limits@F@std@@2_NB
CONST	SEGMENT
?is_signed@?$numeric_limits@F@std@@2_NB DB 01H		; std::numeric_limits<short>::is_signed
CONST	ENDS
;	COMDAT ?value@?$integral_constant@_N$00@std@@2_NB
CONST	SEGMENT
?value@?$integral_constant@_N$00@std@@2_NB DB 01H	; std::integral_constant<bool,1>::value
CONST	ENDS
;	COMDAT _DXGI_DEBUG_D3D11
CONST	SEGMENT
_DXGI_DEBUG_D3D11 DD 04b99317bH
	DW	0ac39H
	DW	04aa6H
	DB	0bbH
	DB	0bH
	DB	0baH
	DB	0a0H
	DB	047H
	DB	084H
	DB	079H
	DB	08fH
CONST	ENDS
;	COMDAT _IID_ID3D11RefDefaultTrackingOptions
CONST	SEGMENT
_IID_ID3D11RefDefaultTrackingOptions DD 03916615H
	DW	0c644H
	DW	0418cH
	DB	09bH
	DB	0f4H
	DB	075H
	DB	0dbH
	DB	05bH
	DB	0e6H
	DB	03cH
	DB	0a0H
CONST	ENDS
;	COMDAT ?value@?$integral_constant@_N$0A@@std@@2_NB
CONST	SEGMENT
?value@?$integral_constant@_N$0A@@std@@2_NB DB 00H	; std::integral_constant<bool,0>::value
CONST	ENDS
;	COMDAT ?digits10@?$numeric_limits@E@std@@2HB
CONST	SEGMENT
?digits10@?$numeric_limits@E@std@@2HB DD 02H		; std::numeric_limits<unsigned char>::digits10
CONST	ENDS
;	COMDAT _IID_ID3D11RefTrackingOptions
CONST	SEGMENT
_IID_ID3D11RefTrackingOptions DD 0193dacdfH
	DW	0db2H
	DW	04c05H
	DB	0a5H
	DB	05cH
	DB	0efH
	DB	06H
	DB	0caH
	DB	0c5H
	DB	06fH
	DB	0d9H
CONST	ENDS
;	COMDAT ?digits@?$numeric_limits@E@std@@2HB
CONST	SEGMENT
?digits@?$numeric_limits@E@std@@2HB DD 08H		; std::numeric_limits<unsigned char>::digits
CONST	ENDS
;	COMDAT ?is_signed@?$numeric_limits@E@std@@2_NB
CONST	SEGMENT
?is_signed@?$numeric_limits@E@std@@2_NB DB 00H		; std::numeric_limits<unsigned char>::is_signed
CONST	ENDS
;	COMDAT _IID_IDXGIDevice
CONST	SEGMENT
_IID_IDXGIDevice DD 054ec77faH
	DW	01377H
	DW	044e6H
	DB	08cH
	DB	032H
	DB	088H
	DB	0fdH
	DB	05fH
	DB	044H
	DB	0c8H
	DB	04cH
CONST	ENDS
;	COMDAT _DXGI_DEBUG_D3D10
CONST	SEGMENT
_DXGI_DEBUG_D3D10 DD 0243b4c52H
	DW	03606H
	DW	04d3aH
	DB	099H
	DB	0d7H
	DB	0a7H
	DB	0e7H
	DB	0b3H
	DB	03eH
	DB	0d7H
	DB	06H
CONST	ENDS
_DATA	SEGMENT
?g_bThreadSafe@@3_NA DB 01H				; g_bThreadSafe
_DATA	ENDS
;	COMDAT _IID_ID3D11TracingDevice
CONST	SEGMENT
_IID_ID3D11TracingDevice DD 01911c771H
	DW	01587H
	DW	0413eH
	DB	0a7H
	DB	0e0H
	DB	0fbH
	DB	026H
	DB	0c3H
	DB	0deH
	DB	02H
	DB	068H
CONST	ENDS
;	COMDAT _IID_ID3D11DeviceContext
CONST	SEGMENT
_IID_ID3D11DeviceContext DD 0c0bfa96cH
	DW	0e089H
	DW	044fbH
	DB	08eH
	DB	0afH
	DB	026H
	DB	0f8H
	DB	079H
	DB	061H
	DB	090H
	DB	0daH
CONST	ENDS
;	COMDAT _IID_ID3D11BlendState
CONST	SEGMENT
_IID_ID3D11BlendState DD 075b68faaH
	DW	0347dH
	DW	04159H
	DB	08fH
	DB	045H
	DB	0a0H
	DB	064H
	DB	0fH
	DB	01H
	DB	0cdH
	DB	09aH
CONST	ENDS
;	COMDAT _IID_ID3D11DeviceContext1
CONST	SEGMENT
_IID_ID3D11DeviceContext1 DD 0bb2c6faaH
	DW	0b5fbH
	DW	04082H
	DB	08eH
	DB	06bH
	DB	038H
	DB	08bH
	DB	08cH
	DB	0faH
	DB	090H
	DB	0e1H
CONST	ENDS
;	COMDAT _IID_ID3D10StateBlock
CONST	SEGMENT
_IID_ID3D10StateBlock DD 0803425aH
	DW	057f5H
	DW	04dd6H
	DB	094H
	DB	065H
	DB	0a8H
	DB	075H
	DB	070H
	DB	083H
	DB	04aH
	DB	08H
CONST	ENDS
;	COMDAT _IID_ID3D10SwitchToRef
CONST	SEGMENT
_IID_ID3D10SwitchToRef DD 09b7e4e02H
	DW	0342cH
	DW	04106H
	DB	0a1H
	DB	09fH
	DB	04fH
	DB	027H
	DB	04H
	DB	0f6H
	DB	089H
	DB	0f0H
CONST	ENDS
;	COMDAT _IID_ID3D10EffectDepthStencilVariable
CONST	SEGMENT
_IID_ID3D10EffectDepthStencilVariable DD 0af482368H
	DW	0330aH
	DW	046a5H
	DB	09aH
	DB	05cH
	DB	01H
	DB	0c7H
	DB	01aH
	DB	0f2H
	DB	04cH
	DB	08dH
CONST	ENDS
;	COMDAT _IID_IDXGIDebug1
CONST	SEGMENT
_IID_IDXGIDebug1 DD 0c5a05f0cH
	DW	016f2H
	DW	04adfH
	DB	09fH
	DB	04dH
	DB	0a8H
	DB	0c4H
	DB	0d5H
	DB	08aH
	DB	0c5H
	DB	050H
CONST	ENDS
;	COMDAT _IID_ID3DDeviceContextState
CONST	SEGMENT
_IID_ID3DDeviceContextState DD 05c1e0d8aH
	DW	07c23H
	DW	048f9H
	DB	08cH
	DB	059H
	DB	0a9H
	DB	029H
	DB	058H
	DB	0ceH
	DB	0ffH
	DB	011H
CONST	ENDS
;	COMDAT ?digits10@?$numeric_limits@C@std@@2HB
CONST	SEGMENT
?digits10@?$numeric_limits@C@std@@2HB DD 02H		; std::numeric_limits<signed char>::digits10
CONST	ENDS
;	COMDAT ?digits@?$numeric_limits@C@std@@2HB
CONST	SEGMENT
?digits@?$numeric_limits@C@std@@2HB DD 07H		; std::numeric_limits<signed char>::digits
CONST	ENDS
;	COMDAT _IID_IDXGIFactory
CONST	SEGMENT
_IID_IDXGIFactory DD 07b7166ecH
	DW	021c7H
	DW	044aeH
	DB	0b2H
	DB	01aH
	DB	0c9H
	DB	0aeH
	DB	032H
	DB	01aH
	DB	0e3H
	DB	069H
CONST	ENDS
;	COMDAT ?is_signed@?$numeric_limits@C@std@@2_NB
CONST	SEGMENT
?is_signed@?$numeric_limits@C@std@@2_NB DB 01H		; std::numeric_limits<signed char>::is_signed
CONST	ENDS
;	COMDAT _IID_IDXGIDebug
CONST	SEGMENT
_IID_IDXGIDebug DD 0119e7452H
	DW	0de9eH
	DW	040feH
	DB	088H
	DB	06H
	DB	088H
	DB	0f9H
	DB	0cH
	DB	012H
	DB	0b4H
	DB	041H
CONST	ENDS
;	COMDAT _IID_ID3D11RasterizerState1
CONST	SEGMENT
_IID_ID3D11RasterizerState1 DD 01217d7a6H
	DW	05039H
	DW	0418cH
	DB	0b0H
	DB	042H
	DB	09cH
	DB	0beH
	DB	025H
	DB	06aH
	DB	0fdH
	DB	06eH
CONST	ENDS
;	COMDAT _IID_ID3D10Debug
CONST	SEGMENT
_IID_ID3D10Debug DD 09b7e4e01H
	DW	0342cH
	DW	04106H
	DB	0a1H
	DB	09fH
	DB	04fH
	DB	027H
	DB	04H
	DB	0f6H
	DB	089H
	DB	0f0H
CONST	ENDS
;	COMDAT _IID_ID3D10View
CONST	SEGMENT
_IID_ID3D10View DD 0c902b03fH
	DW	060a7H
	DW	049baH
	DB	099H
	DB	036H
	DB	02aH
	DB	03aH
	DB	0b3H
	DB	07aH
	DB	07eH
	DB	033H
CONST	ENDS
;	COMDAT _IID_ID3D11SwitchToRef
CONST	SEGMENT
_IID_ID3D11SwitchToRef DD 01ef337e3H
	DW	058e7H
	DW	04f83H
	DB	0a6H
	DB	092H
	DB	0dbH
	DB	022H
	DB	01fH
	DB	05eH
	DB	0d4H
	DB	07eH
CONST	ENDS
;	COMDAT ?digits10@?$numeric_limits@_N@std@@2HB
CONST	SEGMENT
?digits10@?$numeric_limits@_N@std@@2HB DD 00H		; std::numeric_limits<bool>::digits10
CONST	ENDS
;	COMDAT ?digits@?$numeric_limits@_N@std@@2HB
CONST	SEGMENT
?digits@?$numeric_limits@_N@std@@2HB DD 01H		; std::numeric_limits<bool>::digits
CONST	ENDS
;	COMDAT ?is_signed@?$numeric_limits@_N@std@@2_NB
CONST	SEGMENT
?is_signed@?$numeric_limits@_N@std@@2_NB DB 00H		; std::numeric_limits<bool>::is_signed
CONST	ENDS
;	COMDAT _IID_IDXGISwapChain
CONST	SEGMENT
_IID_IDXGISwapChain DD 0310d36a0H
	DW	0d2e7H
	DW	04c0aH
	DB	0aaH
	DB	04H
	DB	06aH
	DB	09dH
	DB	023H
	DB	0b8H
	DB	088H
	DB	06aH
CONST	ENDS
;	COMDAT ?is_modulo@?$numeric_limits@_N@std@@2_NB
CONST	SEGMENT
?is_modulo@?$numeric_limits@_N@std@@2_NB DB 00H		; std::numeric_limits<bool>::is_modulo
CONST	ENDS
;	COMDAT _IID_ID3D10Texture3D
CONST	SEGMENT
_IID_ID3D10Texture3D DD 09b7e4c05H
	DW	0342cH
	DW	04106H
	DB	0a1H
	DB	09fH
	DB	04fH
	DB	027H
	DB	04H
	DB	0f6H
	DB	089H
	DB	0f0H
CONST	ENDS
;	COMDAT _IID_ID3D10Multithread
CONST	SEGMENT
_IID_ID3D10Multithread DD 09b7e4e00H
	DW	0342cH
	DW	04106H
	DB	0a1H
	DB	09fH
	DB	04fH
	DB	027H
	DB	04H
	DB	0f6H
	DB	089H
	DB	0f0H
CONST	ENDS
;	COMDAT _IID_ID3D11Debug
CONST	SEGMENT
_IID_ID3D11Debug DD 079cf2233H
	DW	07536H
	DW	04948H
	DB	09dH
	DB	036H
	DB	01eH
	DB	046H
	DB	092H
	DB	0dcH
	DB	057H
	DB	060H
CONST	ENDS
;	COMDAT _IID_ID3D10EffectBlendVariable
CONST	SEGMENT
_IID_ID3D10EffectBlendVariable DD 01fcd2294H
	DW	0df6dH
	DW	04eaeH
	DB	086H
	DB	0b3H
	DB	0eH
	DB	091H
	DB	060H
	DB	0cfH
	DB	0b0H
	DB	07bH
CONST	ENDS
;	COMDAT _D3D11_AUTHENTICATED_CONFIGURE_ENCRYPTION_WHEN_ACCESSIBLE
CONST	SEGMENT
_D3D11_AUTHENTICATED_CONFIGURE_ENCRYPTION_WHEN_ACCESSIBLE DD 041fff286H
	DW	06ae0H
	DW	04d43H
	DB	09dH
	DB	055H
	DB	0a4H
	DB	06eH
	DB	09eH
	DB	0fdH
	DB	015H
	DB	08aH
CONST	ENDS
;	COMDAT _D3D11_AUTHENTICATED_CONFIGURE_SHARED_RESOURCE
CONST	SEGMENT
_D3D11_AUTHENTICATED_CONFIGURE_SHARED_RESOURCE DD 0772d047H
	DW	01b40H
	DW	048e8H
	DB	09cH
	DB	0a6H
	DB	0b5H
	DB	0f5H
	DB	010H
	DB	0deH
	DB	09fH
	DB	01H
CONST	ENDS
;	COMDAT ?digits10@?$numeric_limits@_W@std@@2HB
CONST	SEGMENT
?digits10@?$numeric_limits@_W@std@@2HB DD 04H		; std::numeric_limits<wchar_t>::digits10
CONST	ENDS
;	COMDAT _D3D11_AUTHENTICATED_CONFIGURE_CRYPTO_SESSION
CONST	SEGMENT
_D3D11_AUTHENTICATED_CONFIGURE_CRYPTO_SESSION DD 06346cc54H
	DW	02cfcH
	DW	04ad4H
	DB	082H
	DB	024H
	DB	0d1H
	DB	058H
	DB	037H
	DB	0deH
	DB	077H
	DB	00H
CONST	ENDS
;	COMDAT _D3D11_AUTHENTICATED_CONFIGURE_PROTECTION
CONST	SEGMENT
_D3D11_AUTHENTICATED_CONFIGURE_PROTECTION DD 050455658H
	DW	03f47H
	DW	04362H
	DB	0bfH
	DB	099H
	DB	0bfH
	DB	0dfH
	DB	0cdH
	DB	0e9H
	DB	0edH
	DB	029H
CONST	ENDS
;	COMDAT _D3D11_AUTHENTICATED_CONFIGURE_INITIALIZE
CONST	SEGMENT
_D3D11_AUTHENTICATED_CONFIGURE_INITIALIZE DD 06114bdbH
	DW	03523H
	DW	0470aH
	DB	08dH
	DB	0caH
	DB	0fbH
	DB	0c2H
	DB	084H
	DB	051H
	DB	054H
	DB	0f0H
CONST	ENDS
;	COMDAT _D3D11_AUTHENTICATED_QUERY_CURRENT_ENCRYPTION_WHEN_ACCESSIBLE
CONST	SEGMENT
_D3D11_AUTHENTICATED_QUERY_CURRENT_ENCRYPTION_WHEN_ACCESSIBLE DD 0ec1791c7H
	DW	0dad3H
	DW	04f15H
	DB	09eH
	DB	0c3H
	DB	0faH
	DB	0a9H
	DB	03dH
	DB	060H
	DB	0d4H
	DB	0f0H
CONST	ENDS
;	COMDAT ?digits@?$numeric_limits@_W@std@@2HB
CONST	SEGMENT
?digits@?$numeric_limits@_W@std@@2HB DD 010H		; std::numeric_limits<wchar_t>::digits
CONST	ENDS
;	COMDAT _D3D11_AUTHENTICATED_QUERY_ENCRYPTION_WHEN_ACCESSIBLE_GUID
CONST	SEGMENT
_D3D11_AUTHENTICATED_QUERY_ENCRYPTION_WHEN_ACCESSIBLE_GUID DD 0f83a5958H
	DW	0e986H
	DW	04bdaH
	DB	0beH
	DB	0b0H
	DB	041H
	DB	01fH
	DB	06aH
	DB	07aH
	DB	01H
	DB	0b7H
CONST	ENDS
;	COMDAT _D3D11_AUTHENTICATED_QUERY_ENCRYPTION_WHEN_ACCESSIBLE_GUID_COUNT
CONST	SEGMENT
_D3D11_AUTHENTICATED_QUERY_ENCRYPTION_WHEN_ACCESSIBLE_GUID_COUNT DD 0b30f7066H
	DW	0203cH
	DW	04b07H
	DB	093H
	DB	0fcH
	DB	0ceH
	DB	0aaH
	DB	0fdH
	DB	061H
	DB	024H
	DB	01eH
CONST	ENDS
;	COMDAT _D3D11_AUTHENTICATED_QUERY_ACCESSIBILITY_ATTRIBUTES
CONST	SEGMENT
_D3D11_AUTHENTICATED_QUERY_ACCESSIBILITY_ATTRIBUTES DD 06214d9d2H
	DW	0432cH
	DW	04abbH
	DB	09fH
	DB	0ceH
	DB	021H
	DB	06eH
	DB	0eaH
	DB	026H
	DB	09eH
	DB	03bH
CONST	ENDS
;	COMDAT _D3D11_AUTHENTICATED_QUERY_OUTPUT_ID
CONST	SEGMENT
_D3D11_AUTHENTICATED_QUERY_OUTPUT_ID DD 0839ddca3H
	DW	09b4eH
	DW	041e4H
	DB	0b0H
	DB	053H
	DB	089H
	DB	02bH
	DB	0d2H
	DB	0a1H
	DB	01eH
	DB	0e7H
CONST	ENDS
;	COMDAT _IID_IDXGIOutput
CONST	SEGMENT
_IID_IDXGIOutput DD 0ae02eedbH
	DW	0c735H
	DW	04690H
	DB	08dH
	DB	052H
	DB	05aH
	DB	08dH
	DB	0c2H
	DB	02H
	DB	013H
	DB	0aaH
CONST	ENDS
;	COMDAT ?is_signed@?$numeric_limits@_W@std@@2_NB
CONST	SEGMENT
?is_signed@?$numeric_limits@_W@std@@2_NB DB 00H		; std::numeric_limits<wchar_t>::is_signed
CONST	ENDS
;	COMDAT _IID_ID3D11BlendState1
CONST	SEGMENT
_IID_ID3D11BlendState1 DD 0cc86fabeH
	DW	0da55H
	DW	0401dH
	DB	085H
	DB	0e7H
	DB	0e3H
	DB	0c9H
	DB	0deH
	DB	028H
	DB	077H
	DB	0e9H
CONST	ENDS
;	COMDAT _D3D11_AUTHENTICATED_QUERY_OUTPUT_ID_COUNT
CONST	SEGMENT
_D3D11_AUTHENTICATED_QUERY_OUTPUT_ID_COUNT DD 02c042b5eH
	DW	08c07H
	DW	046d5H
	DB	0aaH
	DB	0beH
	DB	08fH
	DB	075H
	DB	0cbH
	DB	0adH
	DB	04cH
	DB	031H
CONST	ENDS
;	COMDAT _D3D11_AUTHENTICATED_QUERY_UNRESTRICTED_PROTECTED_SHARED_RESOURCE_COUNT
CONST	SEGMENT
_D3D11_AUTHENTICATED_QUERY_UNRESTRICTED_PROTECTED_SHARED_RESOURCE_COUNT DD 012f0bd6H
	DW	0e662H
	DW	04474H
	DB	0beH
	DB	0fdH
	DB	0aaH
	DB	053H
	DB	0e5H
	DB	014H
	DB	03cH
	DB	06dH
CONST	ENDS
;	COMDAT _D3D11_AUTHENTICATED_QUERY_RESTRICTED_SHARED_RESOURCE_PROCESS
CONST	SEGMENT
_D3D11_AUTHENTICATED_QUERY_RESTRICTED_SHARED_RESOURCE_PROCESS DD 0649bbadbH
	DW	0f0f4H
	DW	04639H
	DB	0a1H
	DB	05bH
	DB	024H
	DB	039H
	DB	03fH
	DB	0c3H
	DB	0abH
	DB	0acH
CONST	ENDS
;	COMDAT _IID_ID3D11DepthStencilState
CONST	SEGMENT
_IID_ID3D11DepthStencilState DD 03823efbH
	DW	08d8fH
	DW	04e1cH
	DB	09aH
	DB	0a2H
	DB	0f6H
	DB	04bH
	DB	0b2H
	DB	0cbH
	DB	0fdH
	DB	0f1H
CONST	ENDS
;	COMDAT _D3D11_AUTHENTICATED_QUERY_RESTRICTED_SHARED_RESOURCE_PROCESS_COUNT
CONST	SEGMENT
_D3D11_AUTHENTICATED_QUERY_RESTRICTED_SHARED_RESOURCE_PROCESS_COUNT DD 0db207b3H
	DW	09450H
	DW	046a6H
	DB	082H
	DB	0deH
	DB	01bH
	DB	096H
	DB	0d4H
	DB	04fH
	DB	09cH
	DB	0f2H
CONST	ENDS
;	COMDAT _D3D11_AUTHENTICATED_QUERY_CRYPTO_SESSION
CONST	SEGMENT
_D3D11_AUTHENTICATED_QUERY_CRYPTO_SESSION DD 02634499eH
	DW	0d018H
	DW	04d74H
	DB	0acH
	DB	017H
	DB	07fH
	DB	072H
	DB	040H
	DB	059H
	DB	052H
	DB	08dH
CONST	ENDS
;	COMDAT _D3D11_AUTHENTICATED_QUERY_DEVICE_HANDLE
CONST	SEGMENT
_D3D11_AUTHENTICATED_QUERY_DEVICE_HANDLE DD 0ec1c539dH
	DW	08cffH
	DW	04e2aH
	DB	0bcH
	DB	0c4H
	DB	0f5H
	DB	069H
	DB	02fH
	DB	099H
	DB	0f4H
	DB	080H
CONST	ENDS
;	COMDAT _D3D11_AUTHENTICATED_QUERY_CHANNEL_TYPE
CONST	SEGMENT
_D3D11_AUTHENTICATED_QUERY_CHANNEL_TYPE DD 0bc1b18a5H
	DW	0b1fbH
	DW	042abH
	DB	0bdH
	DB	094H
	DB	0b5H
	DB	082H
	DB	08bH
	DB	04bH
	DB	0f7H
	DB	0beH
CONST	ENDS
;	COMDAT _D3D11_AUTHENTICATED_QUERY_PROTECTION
CONST	SEGMENT
_D3D11_AUTHENTICATED_QUERY_PROTECTION DD 0a84eb584H
	DW	0c495H
	DW	048aaH
	DB	0b9H
	DB	04dH
	DB	08bH
	DB	0d2H
	DB	0d6H
	DB	0fbH
	DB	0ceH
	DB	05H
CONST	ENDS
;	COMDAT _IID_IDXGIAdapter
CONST	SEGMENT
_IID_IDXGIAdapter DD 02411e7e1H
	DW	012acH
	DW	04ccfH
	DB	0bdH
	DB	014H
	DB	097H
	DB	098H
	DB	0e8H
	DB	053H
	DB	04dH
	DB	0c0H
CONST	ENDS
;	COMDAT _IID_ID3D11AuthenticatedChannel
CONST	SEGMENT
_IID_ID3D11AuthenticatedChannel DD 03015a308H
	DW	0dcbdH
	DW	047aaH
	DB	0a7H
	DB	047H
	DB	019H
	DB	024H
	DB	086H
	DB	0d1H
	DB	04dH
	DB	04aH
CONST	ENDS
;	COMDAT ?digits10@?$numeric_limits@D@std@@2HB
CONST	SEGMENT
?digits10@?$numeric_limits@D@std@@2HB DD 02H		; std::numeric_limits<char>::digits10
CONST	ENDS
;	COMDAT ?digits@?$numeric_limits@D@std@@2HB
CONST	SEGMENT
?digits@?$numeric_limits@D@std@@2HB DD 07H		; std::numeric_limits<char>::digits
CONST	ENDS
;	COMDAT _IID_ID3D11RenderTargetView
CONST	SEGMENT
_IID_ID3D11RenderTargetView DD 0dfdba067H
	DW	0b8dH
	DW	04865H
	DB	087H
	DB	05bH
	DB	0d7H
	DB	0b4H
	DB	051H
	DB	06cH
	DB	0c1H
	DB	064H
CONST	ENDS
;	COMDAT _IID_IDXGISurface1
CONST	SEGMENT
_IID_IDXGISurface1 DD 04ae63092H
	DW	06327H
	DW	04c1bH
	DB	080H
	DB	0aeH
	DB	0bfH
	DB	0e1H
	DB	02eH
	DB	0a3H
	DB	02bH
	DB	086H
CONST	ENDS
;	COMDAT _IID_IDXGIInfoQueue
CONST	SEGMENT
_IID_IDXGIInfoQueue DD 0d67441c7H
	DW	0672aH
	DW	0476fH
	DB	09eH
	DB	082H
	DB	0cdH
	DB	055H
	DB	0b4H
	DB	049H
	DB	049H
	DB	0ceH
CONST	ENDS
;	COMDAT ?is_signed@?$numeric_limits@D@std@@2_NB
CONST	SEGMENT
?is_signed@?$numeric_limits@D@std@@2_NB DB 01H		; std::numeric_limits<char>::is_signed
CONST	ENDS
;	COMDAT _IID_ID3D10Texture2D
CONST	SEGMENT
_IID_ID3D10Texture2D DD 09b7e4c04H
	DW	0342cH
	DW	04106H
	DB	0a1H
	DB	09fH
	DB	04fH
	DB	027H
	DB	04H
	DB	0f6H
	DB	089H
	DB	0f0H
CONST	ENDS
;	COMDAT _IID_ID3D10ShaderReflection
CONST	SEGMENT
_IID_ID3D10ShaderReflection DD 0d40e20b6H
	DW	0f8f7H
	DW	042adH
	DB	0abH
	DB	020H
	DB	04bH
	DB	0afH
	DB	08fH
	DB	015H
	DB	0dfH
	DB	0aaH
CONST	ENDS
;	COMDAT _IID_IDXGISurface
CONST	SEGMENT
_IID_IDXGISurface DD 0cafcb56cH
	DW	06ac3H
	DW	04889H
	DB	0bfH
	DB	047H
	DB	09eH
	DB	023H
	DB	0bbH
	DB	0d2H
	DB	060H
	DB	0ecH
CONST	ENDS
;	COMDAT _IID_ID3D11VideoProcessor
CONST	SEGMENT
_IID_ID3D11VideoProcessor DD 01d7b0652H
	DW	0185fH
	DW	041c6H
	DB	085H
	DB	0ceH
	DB	0cH
	DB	05bH
	DB	0e3H
	DB	0d4H
	DB	0aeH
	DB	06cH
CONST	ENDS
;	COMDAT ?radix@_Num_float_base@std@@2HB
CONST	SEGMENT
?radix@_Num_float_base@std@@2HB DD 02H			; std::_Num_float_base::radix
CONST	ENDS
;	COMDAT ?round_style@_Num_float_base@std@@2W4float_round_style@2@B
CONST	SEGMENT
?round_style@_Num_float_base@std@@2W4float_round_style@2@B DD 01H ; std::_Num_float_base::round_style
CONST	ENDS
;	COMDAT ?traps@_Num_float_base@std@@2_NB
CONST	SEGMENT
?traps@_Num_float_base@std@@2_NB DB 00H			; std::_Num_float_base::traps
CONST	ENDS
;	COMDAT _IID_ID3D10EffectShaderVariable
CONST	SEGMENT
_IID_ID3D10EffectShaderVariable DD 080849279H
	DW	0c799H
	DW	04797H
	DB	08cH
	DB	033H
	DB	04H
	DB	07H
	DB	0a0H
	DB	07dH
	DB	09eH
	DB	06H
CONST	ENDS
;	COMDAT ?tinyness_before@_Num_float_base@std@@2_NB
CONST	SEGMENT
?tinyness_before@_Num_float_base@std@@2_NB DB 01H	; std::_Num_float_base::tinyness_before
CONST	ENDS
;	COMDAT _IID_IDXGIKeyedMutex
CONST	SEGMENT
_IID_IDXGIKeyedMutex DD 09d8e1289H
	DW	0d7b3H
	DW	0465fH
	DB	081H
	DB	026H
	DB	025H
	DB	0eH
	DB	034H
	DB	09aH
	DB	0f8H
	DB	05dH
CONST	ENDS
;	COMDAT _IID_ID3D10ShaderReflectionConstantBuffer
CONST	SEGMENT
_IID_ID3D10ShaderReflectionConstantBuffer DD 066c66a94H
	DW	0ddddH
	DW	04b62H
	DB	0a6H
	DB	06aH
	DB	0f0H
	DB	0daH
	DB	033H
	DB	0c2H
	DB	0b4H
	DB	0d0H
CONST	ENDS
;	COMDAT ?is_specialized@_Num_float_base@std@@2_NB
CONST	SEGMENT
?is_specialized@_Num_float_base@std@@2_NB DB 01H	; std::_Num_float_base::is_specialized
CONST	ENDS
;	COMDAT ?is_signed@_Num_float_base@std@@2_NB
CONST	SEGMENT
?is_signed@_Num_float_base@std@@2_NB DB 01H		; std::_Num_float_base::is_signed
CONST	ENDS
;	COMDAT _IID_ID3D11CommandList
CONST	SEGMENT
_IID_ID3D11CommandList DD 0a24bc4d1H
	DW	0769eH
	DW	043f7H
	DB	080H
	DB	013H
	DB	098H
	DB	0ffH
	DB	056H
	DB	06cH
	DB	018H
	DB	0e2H
CONST	ENDS
;	COMDAT ?is_modulo@_Num_float_base@std@@2_NB
CONST	SEGMENT
?is_modulo@_Num_float_base@std@@2_NB DB 00H		; std::_Num_float_base::is_modulo
CONST	ENDS
;	COMDAT ?is_integer@_Num_float_base@std@@2_NB
CONST	SEGMENT
?is_integer@_Num_float_base@std@@2_NB DB 00H		; std::_Num_float_base::is_integer
CONST	ENDS
;	COMDAT ?is_iec559@_Num_float_base@std@@2_NB
CONST	SEGMENT
?is_iec559@_Num_float_base@std@@2_NB DB 01H		; std::_Num_float_base::is_iec559
CONST	ENDS
;	COMDAT _IID_IDXGIResource
CONST	SEGMENT
_IID_IDXGIResource DD 035f3ab4H
	DW	0482eH
	DW	04e50H
	DB	0b4H
	DB	01fH
	DB	08aH
	DB	07fH
	DB	08bH
	DB	0d8H
	DB	096H
	DB	0bH
CONST	ENDS
;	COMDAT _IID_ID3D10ShaderReflectionVariable
CONST	SEGMENT
_IID_ID3D10ShaderReflectionVariable DD 01bf63c95H
	DW	02650H
	DW	0405dH
	DB	099H
	DB	0c1H
	DB	036H
	DB	036H
	DB	0bdH
	DB	01dH
	DB	0a0H
	DB	0a1H
CONST	ENDS
;	COMDAT ?is_exact@_Num_float_base@std@@2_NB
CONST	SEGMENT
?is_exact@_Num_float_base@std@@2_NB DB 00H		; std::_Num_float_base::is_exact
CONST	ENDS
;	COMDAT ?is_bounded@_Num_float_base@std@@2_NB
CONST	SEGMENT
?is_bounded@_Num_float_base@std@@2_NB DB 01H		; std::_Num_float_base::is_bounded
CONST	ENDS
;	COMDAT ?has_signaling_NaN@_Num_float_base@std@@2_NB
CONST	SEGMENT
?has_signaling_NaN@_Num_float_base@std@@2_NB DB 01H	; std::_Num_float_base::has_signaling_NaN
CONST	ENDS
;	COMDAT _IID_ID3D11ClassLinkage
CONST	SEGMENT
_IID_ID3D11ClassLinkage DD 0ddf57cbaH
	DW	09543H
	DW	046e4H
	DB	0a1H
	DB	02bH
	DB	0f2H
	DB	07H
	DB	0a0H
	DB	0feH
	DB	07fH
	DB	0edH
CONST	ENDS
;	COMDAT ?has_quiet_NaN@_Num_float_base@std@@2_NB
CONST	SEGMENT
?has_quiet_NaN@_Num_float_base@std@@2_NB DB 01H		; std::_Num_float_base::has_quiet_NaN
CONST	ENDS
;	COMDAT _IID_IDXGIDeviceSubObject
CONST	SEGMENT
_IID_IDXGIDeviceSubObject DD 03d3e0379H
	DW	0f9deH
	DW	04d58H
	DB	0bbH
	DB	06cH
	DB	018H
	DB	0d6H
	DB	029H
	DB	092H
	DB	0f1H
	DB	0a6H
CONST	ENDS
;	COMDAT _DXGI_DEBUG_APP
CONST	SEGMENT
_DXGI_DEBUG_APP DD 06cd6e01H
	DW	04219H
	DW	04ebdH
	DB	087H
	DB	09H
	DB	027H
	DB	0edH
	DB	023H
	DB	036H
	DB	0cH
	DB	062H
CONST	ENDS
;	COMDAT ?has_infinity@_Num_float_base@std@@2_NB
CONST	SEGMENT
?has_infinity@_Num_float_base@std@@2_NB DB 01H		; std::_Num_float_base::has_infinity
CONST	ENDS
;	COMDAT _DXGI_DEBUG_DXGI
CONST	SEGMENT
_DXGI_DEBUG_DXGI DD 025cddaa4H
	DW	0b1c6H
	DW	047e1H
	DB	0acH
	DB	03eH
	DB	098H
	DB	087H
	DB	05bH
	DB	05aH
	DB	02eH
	DB	02aH
CONST	ENDS
;	COMDAT _DXGI_DEBUG_DX
CONST	SEGMENT
_DXGI_DEBUG_DX DD 035cdd7fcH
	DW	013b2H
	DW	0421dH
	DB	0a5H
	DB	0d7H
	DB	07eH
	DB	044H
	DB	051H
	DB	028H
	DB	07dH
	DB	064H
CONST	ENDS
;	COMDAT _DXGI_DEBUG_ALL
CONST	SEGMENT
_DXGI_DEBUG_ALL DD 0e48ae283H
	DW	0da80H
	DW	0490bH
	DB	087H
	DB	0e6H
	DB	043H
	DB	0e9H
	DB	0a9H
	DB	0cfH
	DB	0daH
	DB	08H
CONST	ENDS
;	COMDAT ?has_denorm_loss@_Num_float_base@std@@2_NB
CONST	SEGMENT
?has_denorm_loss@_Num_float_base@std@@2_NB DB 01H	; std::_Num_float_base::has_denorm_loss
CONST	ENDS
;	COMDAT ?has_denorm@_Num_float_base@std@@2W4float_denorm_style@2@B
CONST	SEGMENT
?has_denorm@_Num_float_base@std@@2W4float_denorm_style@2@B DD 01H ; std::_Num_float_base::has_denorm
CONST	ENDS
;	COMDAT _IID_ID3D10ShaderReflectionType
CONST	SEGMENT
_IID_ID3D10ShaderReflectionType DD 0c530ad7dH
	DW	09b16H
	DW	04395H
	DB	0a9H
	DB	079H
	DB	0baH
	DB	02eH
	DB	0cfH
	DB	0f8H
	DB	03aH
	DB	0ddH
CONST	ENDS
;	COMDAT ?YellowGreen@Colors@DirectX@@3UXMVECTORF32@2@B
CONST	SEGMENT
?YellowGreen@Colors@DirectX@@3UXMVECTORF32@2@B DD 03f1a9a9br ; 0.603922 ; DirectX::Colors::YellowGreen
	DD	03f4dcdcfr			; 0.803922
	DD	03e48c8car			; 0.196078
	DD	03f800000r			; 1
CONST	ENDS
;	COMDAT ?Yellow@Colors@DirectX@@3UXMVECTORF32@2@B
CONST	SEGMENT
?Yellow@Colors@DirectX@@3UXMVECTORF32@2@B DD 03f800000r ; 1 ; DirectX::Colors::Yellow
	DD	03f800000r			; 1
	DD	000000000r			; 0
	DD	03f800000r			; 1
CONST	ENDS
;	COMDAT ?WhiteSmoke@Colors@DirectX@@3UXMVECTORF32@2@B
CONST	SEGMENT
?WhiteSmoke@Colors@DirectX@@3UXMVECTORF32@2@B DD 03f75f5f7r ; 0.960784 ; DirectX::Colors::WhiteSmoke
	DD	03f75f5f7r			; 0.960784
	DD	03f75f5f7r			; 0.960784
	DD	03f800000r			; 1
CONST	ENDS
;	COMDAT ?White@Colors@DirectX@@3UXMVECTORF32@2@B
CONST	SEGMENT
?White@Colors@DirectX@@3UXMVECTORF32@2@B DD 03f800000r ; 1 ; DirectX::Colors::White
	DD	03f800000r			; 1
	DD	03f800000r			; 1
	DD	03f800000r			; 1
CONST	ENDS
;	COMDAT ?Wheat@Colors@DirectX@@3UXMVECTORF32@2@B
CONST	SEGMENT
?Wheat@Colors@DirectX@@3UXMVECTORF32@2@B DD 03f75f5f7r ; 0.960784 ; DirectX::Colors::Wheat
	DD	03f5edee0r			; 0.870588
	DD	03f33b3b4r			; 0.701961
	DD	03f800000r			; 1
CONST	ENDS
;	COMDAT ?Violet@Colors@DirectX@@3UXMVECTORF32@2@B
CONST	SEGMENT
?Violet@Colors@DirectX@@3UXMVECTORF32@2@B DD 03f6eeef0r ; 0.933333 ; DirectX::Colors::Violet
	DD	03f028283r			; 0.509804
	DD	03f6eeef0r			; 0.933333
	DD	03f800000r			; 1
CONST	ENDS
;	COMDAT ?Turquoise@Colors@DirectX@@3UXMVECTORF32@2@B
CONST	SEGMENT
?Turquoise@Colors@DirectX@@3UXMVECTORF32@2@B DD 03e808081r ; 0.25098 ; DirectX::Colors::Turquoise
	DD	03f60e0e2r			; 0.878431
	DD	03f50d0d2r			; 0.815686
	DD	03f800000r			; 1
CONST	ENDS
;	COMDAT _IID_ID3D11ClassInstance
CONST	SEGMENT
_IID_ID3D11ClassInstance DD 0a6cd7faaH
	DW	0b0b7H
	DW	04a2fH
	DB	094H
	DB	036H
	DB	086H
	DB	062H
	DB	0a6H
	DB	057H
	DB	097H
	DB	0cbH
CONST	ENDS
;	COMDAT ?Transparent@Colors@DirectX@@3UXMVECTORF32@2@B
CONST	SEGMENT
?Transparent@Colors@DirectX@@3UXMVECTORF32@2@B DD 000000000r ; 0 ; DirectX::Colors::Transparent
	DD	000000000r			; 0
	DD	000000000r			; 0
	DD	000000000r			; 0
CONST	ENDS
;	COMDAT ?radix@_Num_int_base@std@@2HB
CONST	SEGMENT
?radix@_Num_int_base@std@@2HB DD 02H			; std::_Num_int_base::radix
CONST	ENDS
;	COMDAT ?Tomato@Colors@DirectX@@3UXMVECTORF32@2@B
CONST	SEGMENT
?Tomato@Colors@DirectX@@3UXMVECTORF32@2@B DD 03f800000r ; 1 ; DirectX::Colors::Tomato
	DD	03ec6c6c8r			; 0.388235
	DD	03e8e8e8fr			; 0.278431
	DD	03f800000r			; 1
CONST	ENDS
;	COMDAT ?Thistle@Colors@DirectX@@3UXMVECTORF32@2@B
CONST	SEGMENT
?Thistle@Colors@DirectX@@3UXMVECTORF32@2@B DD 03f58d8dar ; 0.847059 ; DirectX::Colors::Thistle
	DD	03f3fbfc0r			; 0.74902
	DD	03f58d8dar			; 0.847059
	DD	03f800000r			; 1
CONST	ENDS
;	COMDAT ?Teal@Colors@DirectX@@3UXMVECTORF32@2@B
CONST	SEGMENT
?Teal@Colors@DirectX@@3UXMVECTORF32@2@B DD 000000000r ; 0 ; DirectX::Colors::Teal
	DD	03f008081r			; 0.501961
	DD	03f008081r			; 0.501961
	DD	03f800000r			; 1
CONST	ENDS
;	COMDAT ?is_specialized@_Num_int_base@std@@2_NB
CONST	SEGMENT
?is_specialized@_Num_int_base@std@@2_NB DB 01H		; std::_Num_int_base::is_specialized
CONST	ENDS
;	COMDAT ?Tan@Colors@DirectX@@3UXMVECTORF32@2@B
CONST	SEGMENT
?Tan@Colors@DirectX@@3UXMVECTORF32@2@B DD 03f52d2d4r ; 0.823529 ; DirectX::Colors::Tan
	DD	03f34b4b5r			; 0.705882
	DD	03f0c8c8dr			; 0.54902
	DD	03f800000r			; 1
CONST	ENDS
;	COMDAT ?SteelBlue@Colors@DirectX@@3UXMVECTORF32@2@B
CONST	SEGMENT
?SteelBlue@Colors@DirectX@@3UXMVECTORF32@2@B DD 03e8c8c8dr ; 0.27451 ; DirectX::Colors::SteelBlue
	DD	03f028283r			; 0.509804
	DD	03f34b4b5r			; 0.705882
	DD	03f800000r			; 1
CONST	ENDS
;	COMDAT ?SpringGreen@Colors@DirectX@@3UXMVECTORF32@2@B
CONST	SEGMENT
?SpringGreen@Colors@DirectX@@3UXMVECTORF32@2@B DD 000000000r ; 0 ; DirectX::Colors::SpringGreen
	DD	03f800000r			; 1
	DD	03efeff00r			; 0.498039
	DD	03f800000r			; 1
CONST	ENDS
;	COMDAT ?is_modulo@_Num_int_base@std@@2_NB
CONST	SEGMENT
?is_modulo@_Num_int_base@std@@2_NB DB 01H		; std::_Num_int_base::is_modulo
CONST	ENDS
;	COMDAT _IID_ID3D11DeviceChild
CONST	SEGMENT
_IID_ID3D11DeviceChild DD 01841e5c8H
	DW	016b0H
	DW	0489bH
	DB	0bcH
	DB	0c8H
	DB	044H
	DB	0cfH
	DB	0b0H
	DB	0d5H
	DB	0deH
	DB	0aeH
CONST	ENDS
;	COMDAT _IID_IDXGIObject
CONST	SEGMENT
_IID_IDXGIObject DD 0aec22fb8H
	DW	076f3H
	DW	04639H
	DB	09bH
	DB	0e0H
	DB	028H
	DB	0ebH
	DB	043H
	DB	0a6H
	DB	07aH
	DB	02eH
CONST	ENDS
;	COMDAT ?Snow@Colors@DirectX@@3UXMVECTORF32@2@B
CONST	SEGMENT
?Snow@Colors@DirectX@@3UXMVECTORF32@2@B DD 03f800000r ; 1 ; DirectX::Colors::Snow
	DD	03f7afafcr			; 0.980392
	DD	03f7afafcr			; 0.980392
	DD	03f800000r			; 1
CONST	ENDS
;	COMDAT ?SlateGray@Colors@DirectX@@3UXMVECTORF32@2@B
CONST	SEGMENT
?SlateGray@Colors@DirectX@@3UXMVECTORF32@2@B DD 03ee0e0e2r ; 0.439216 ; DirectX::Colors::SlateGray
	DD	03f008081r			; 0.501961
	DD	03f109091r			; 0.564706
	DD	03f800000r			; 1
CONST	ENDS
;	COMDAT ?SlateBlue@Colors@DirectX@@3UXMVECTORF32@2@B
CONST	SEGMENT
?SlateBlue@Colors@DirectX@@3UXMVECTORF32@2@B DD 03ed4d4d6r ; 0.415686 ; DirectX::Colors::SlateBlue
	DD	03eb4b4b5r			; 0.352941
	DD	03f4dcdcfr			; 0.803922
	DD	03f800000r			; 1
CONST	ENDS
;	COMDAT ?is_integer@_Num_int_base@std@@2_NB
CONST	SEGMENT
?is_integer@_Num_int_base@std@@2_NB DB 01H		; std::_Num_int_base::is_integer
CONST	ENDS
;	COMDAT ?SkyBlue@Colors@DirectX@@3UXMVECTORF32@2@B
CONST	SEGMENT
?SkyBlue@Colors@DirectX@@3UXMVECTORF32@2@B DD 03f078788r ; 0.529412 ; DirectX::Colors::SkyBlue
	DD	03f4eced0r			; 0.807843
	DD	03f6bebedr			; 0.921569
	DD	03f800000r			; 1
CONST	ENDS
;	COMDAT _IID_ID3D10Texture1D
CONST	SEGMENT
_IID_ID3D10Texture1D DD 09b7e4c03H
	DW	0342cH
	DW	04106H
	DB	0a1H
	DB	09fH
	DB	04fH
	DB	027H
	DB	04H
	DB	0f6H
	DB	089H
	DB	0f0H
CONST	ENDS
;	COMDAT ?Silver@Colors@DirectX@@3UXMVECTORF32@2@B
CONST	SEGMENT
?Silver@Colors@DirectX@@3UXMVECTORF32@2@B DD 03f40c0c2r ; 0.752941 ; DirectX::Colors::Silver
	DD	03f40c0c2r			; 0.752941
	DD	03f40c0c2r			; 0.752941
	DD	03f800000r			; 1
CONST	ENDS
;	COMDAT ?Sienna@Colors@DirectX@@3UXMVECTORF32@2@B
CONST	SEGMENT
?Sienna@Colors@DirectX@@3UXMVECTORF32@2@B DD 03f20a0a1r ; 0.627451 ; DirectX::Colors::Sienna
	DD	03ea4a4a5r			; 0.321569
	DD	03e34b4b5r			; 0.176471
	DD	03f800000r			; 1
CONST	ENDS
;	COMDAT ?is_exact@_Num_int_base@std@@2_NB
CONST	SEGMENT
?is_exact@_Num_int_base@std@@2_NB DB 01H		; std::_Num_int_base::is_exact
CONST	ENDS
;	COMDAT ?SeaShell@Colors@DirectX@@3UXMVECTORF32@2@B
CONST	SEGMENT
?SeaShell@Colors@DirectX@@3UXMVECTORF32@2@B DD 03f800000r ; 1 ; DirectX::Colors::SeaShell
	DD	03f75f5f7r			; 0.960784
	DD	03f6eeef0r			; 0.933333
	DD	03f800000r			; 1
CONST	ENDS
;	COMDAT ?SeaGreen@Colors@DirectX@@3UXMVECTORF32@2@B
CONST	SEGMENT
?SeaGreen@Colors@DirectX@@3UXMVECTORF32@2@B DD 03e38b8b9r ; 0.180392 ; DirectX::Colors::SeaGreen
	DD	03f0b8b8cr			; 0.545098
	DD	03eaeaeafr			; 0.341176
	DD	03f800000r			; 1
CONST	ENDS
;	COMDAT ?SandyBrown@Colors@DirectX@@3UXMVECTORF32@2@B
CONST	SEGMENT
?SandyBrown@Colors@DirectX@@3UXMVECTORF32@2@B DD 03f74f4f6r ; 0.956863 ; DirectX::Colors::SandyBrown
	DD	03f24a4a5r			; 0.643137
	DD	03ec0c0c2r			; 0.376471
	DD	03f800000r			; 1
CONST	ENDS
;	COMDAT ?is_bounded@_Num_int_base@std@@2_NB
CONST	SEGMENT
?is_bounded@_Num_int_base@std@@2_NB DB 01H		; std::_Num_int_base::is_bounded
CONST	ENDS
;	COMDAT ?Salmon@Colors@DirectX@@3UXMVECTORF32@2@B
CONST	SEGMENT
?Salmon@Colors@DirectX@@3UXMVECTORF32@2@B DD 03f7afafcr ; 0.980392 ; DirectX::Colors::Salmon
	DD	03f008081r			; 0.501961
	DD	03ee4e4e6r			; 0.447059
	DD	03f800000r			; 1
CONST	ENDS
;	COMDAT ?SaddleBrown@Colors@DirectX@@3UXMVECTORF32@2@B
CONST	SEGMENT
?SaddleBrown@Colors@DirectX@@3UXMVECTORF32@2@B DD 03f0b8b8cr ; 0.545098 ; DirectX::Colors::SaddleBrown
	DD	03e8a8a8br			; 0.270588
	DD	03d989899r			; 0.0745098
	DD	03f800000r			; 1
CONST	ENDS
;	COMDAT ?RoyalBlue@Colors@DirectX@@3UXMVECTORF32@2@B
CONST	SEGMENT
?RoyalBlue@Colors@DirectX@@3UXMVECTORF32@2@B DD 03e828283r ; 0.254902 ; DirectX::Colors::RoyalBlue
	DD	03ed2d2d4r			; 0.411765
	DD	03f61e1e3r			; 0.882353
	DD	03f800000r			; 1
CONST	ENDS
;	COMDAT ?RosyBrown@Colors@DirectX@@3UXMVECTORF32@2@B
CONST	SEGMENT
?RosyBrown@Colors@DirectX@@3UXMVECTORF32@2@B DD 03f3cbcbdr ; 0.737255 ; DirectX::Colors::RosyBrown
	DD	03f0f8f90r			; 0.560784
	DD	03f0f8f90r			; 0.560784
	DD	03f800000r			; 1
CONST	ENDS
;	COMDAT ?Red@Colors@DirectX@@3UXMVECTORF32@2@B
CONST	SEGMENT
?Red@Colors@DirectX@@3UXMVECTORF32@2@B DD 03f800000r ; 1 ; DirectX::Colors::Red
	DD	000000000r			; 0
	DD	000000000r			; 0
	DD	03f800000r			; 1
CONST	ENDS
;	COMDAT ?Purple@Colors@DirectX@@3UXMVECTORF32@2@B
CONST	SEGMENT
?Purple@Colors@DirectX@@3UXMVECTORF32@2@B DD 03f008081r ; 0.501961 ; DirectX::Colors::Purple
	DD	000000000r			; 0
	DD	03f008081r			; 0.501961
	DD	03f800000r			; 1
CONST	ENDS
;	COMDAT ?PowderBlue@Colors@DirectX@@3UXMVECTORF32@2@B
CONST	SEGMENT
?PowderBlue@Colors@DirectX@@3UXMVECTORF32@2@B DD 03f30b0b1r ; 0.690196 ; DirectX::Colors::PowderBlue
	DD	03f60e0e2r			; 0.878431
	DD	03f66e6e8r			; 0.901961
	DD	03f800000r			; 1
CONST	ENDS
;	COMDAT ?Plum@Colors@DirectX@@3UXMVECTORF32@2@B
CONST	SEGMENT
?Plum@Colors@DirectX@@3UXMVECTORF32@2@B DD 03f5ddddfr ; 0.866667 ; DirectX::Colors::Plum
	DD	03f20a0a1r			; 0.627451
	DD	03f5ddddfr			; 0.866667
	DD	03f800000r			; 1
CONST	ENDS
;	COMDAT ?Pink@Colors@DirectX@@3UXMVECTORF32@2@B
CONST	SEGMENT
?Pink@Colors@DirectX@@3UXMVECTORF32@2@B DD 03f800000r ; 1 ; DirectX::Colors::Pink
	DD	03f40c0c2r			; 0.752941
	DD	03f4bcbcdr			; 0.796079
	DD	03f800000r			; 1
CONST	ENDS
;	COMDAT ?Peru@Colors@DirectX@@3UXMVECTORF32@2@B
CONST	SEGMENT
?Peru@Colors@DirectX@@3UXMVECTORF32@2@B DD 03f4dcdcfr ; 0.803922 ; DirectX::Colors::Peru
	DD	03f058586r			; 0.521569
	DD	03e7cfcfer			; 0.247059
	DD	03f800000r			; 1
CONST	ENDS
;	COMDAT ?PeachPuff@Colors@DirectX@@3UXMVECTORF32@2@B
CONST	SEGMENT
?PeachPuff@Colors@DirectX@@3UXMVECTORF32@2@B DD 03f800000r ; 1 ; DirectX::Colors::PeachPuff
	DD	03f5adadcr			; 0.854902
	DD	03f39b9bar			; 0.72549
	DD	03f800000r			; 1
CONST	ENDS
;	COMDAT ?PapayaWhip@Colors@DirectX@@3UXMVECTORF32@2@B
CONST	SEGMENT
?PapayaWhip@Colors@DirectX@@3UXMVECTORF32@2@B DD 03f800000r ; 1 ; DirectX::Colors::PapayaWhip
	DD	03f6feff1r			; 0.937255
	DD	03f55d5d7r			; 0.835294
	DD	03f800000r			; 1
CONST	ENDS
;	COMDAT ?PaleVioletRed@Colors@DirectX@@3UXMVECTORF32@2@B
CONST	SEGMENT
?PaleVioletRed@Colors@DirectX@@3UXMVECTORF32@2@B DD 03f5bdbddr ; 0.858824 ; DirectX::Colors::PaleVioletRed
	DD	03ee0e0e2r			; 0.439216
	DD	03f139394r			; 0.576471
	DD	03f800000r			; 1
CONST	ENDS
;	COMDAT ?PaleTurquoise@Colors@DirectX@@3UXMVECTORF32@2@B
CONST	SEGMENT
?PaleTurquoise@Colors@DirectX@@3UXMVECTORF32@2@B DD 03f2fafb0r ; 0.686275 ; DirectX::Colors::PaleTurquoise
	DD	03f6eeef0r			; 0.933333
	DD	03f6eeef0r			; 0.933333
	DD	03f800000r			; 1
CONST	ENDS
;	COMDAT ?PaleGreen@Colors@DirectX@@3UXMVECTORF32@2@B
CONST	SEGMENT
?PaleGreen@Colors@DirectX@@3UXMVECTORF32@2@B DD 03f189899r ; 0.596078 ; DirectX::Colors::PaleGreen
	DD	03f7bfbfdr			; 0.984314
	DD	03f189899r			; 0.596078
	DD	03f800000r			; 1
CONST	ENDS
;	COMDAT ?PaleGoldenrod@Colors@DirectX@@3UXMVECTORF32@2@B
CONST	SEGMENT
?PaleGoldenrod@Colors@DirectX@@3UXMVECTORF32@2@B DD 03f6eeef0r ; 0.933333 ; DirectX::Colors::PaleGoldenrod
	DD	03f68e8ear			; 0.909804
	DD	03f2aaaabr			; 0.666667
	DD	03f800000r			; 1
CONST	ENDS
;	COMDAT ?Orchid@Colors@DirectX@@3UXMVECTORF32@2@B
CONST	SEGMENT
?Orchid@Colors@DirectX@@3UXMVECTORF32@2@B DD 03f5adadcr ; 0.854902 ; DirectX::Colors::Orchid
	DD	03ee0e0e2r			; 0.439216
	DD	03f56d6d8r			; 0.839216
	DD	03f800000r			; 1
CONST	ENDS
;	COMDAT ?OrangeRed@Colors@DirectX@@3UXMVECTORF32@2@B
CONST	SEGMENT
?OrangeRed@Colors@DirectX@@3UXMVECTORF32@2@B DD 03f800000r ; 1 ; DirectX::Colors::OrangeRed
	DD	03e8a8a8br			; 0.270588
	DD	000000000r			; 0
	DD	03f800000r			; 1
CONST	ENDS
;	COMDAT _IID_ID3D11Counter
CONST	SEGMENT
_IID_ID3D11Counter DD 06e8c49fbH
	DW	0a371H
	DW	04770H
	DB	0b4H
	DB	040H
	DB	029H
	DB	08H
	DB	060H
	DB	022H
	DB	0b7H
	DB	041H
CONST	ENDS
;	COMDAT ?Orange@Colors@DirectX@@3UXMVECTORF32@2@B
CONST	SEGMENT
?Orange@Colors@DirectX@@3UXMVECTORF32@2@B DD 03f800000r ; 1 ; DirectX::Colors::Orange
	DD	03f25a5a6r			; 0.647059
	DD	000000000r			; 0
	DD	03f800000r			; 1
CONST	ENDS
;	COMDAT ?OliveDrab@Colors@DirectX@@3UXMVECTORF32@2@B
CONST	SEGMENT
?OliveDrab@Colors@DirectX@@3UXMVECTORF32@2@B DD 03ed6d6d8r ; 0.419608 ; DirectX::Colors::OliveDrab
	DD	03f0e8e8fr			; 0.556863
	DD	03e0c8c8dr			; 0.137255
	DD	03f800000r			; 1
CONST	ENDS
;	COMDAT ?Olive@Colors@DirectX@@3UXMVECTORF32@2@B
CONST	SEGMENT
?Olive@Colors@DirectX@@3UXMVECTORF32@2@B DD 03f008081r ; 0.501961 ; DirectX::Colors::Olive
	DD	03f008081r			; 0.501961
	DD	000000000r			; 0
	DD	03f800000r			; 1
CONST	ENDS
;	COMDAT _IID_ID3D10EffectConstantBuffer
CONST	SEGMENT
_IID_ID3D10EffectConstantBuffer DD 056648f4dH
	DW	0cc8bH
	DW	04444H
	DB	0a5H
	DB	0adH
	DB	0b5H
	DB	0a3H
	DB	0d7H
	DB	06eH
	DB	091H
	DB	0b3H
CONST	ENDS
;	COMDAT ?OldLace@Colors@DirectX@@3UXMVECTORF32@2@B
CONST	SEGMENT
?OldLace@Colors@DirectX@@3UXMVECTORF32@2@B DD 03f7dfdffr ; 0.992157 ; DirectX::Colors::OldLace
	DD	03f75f5f7r			; 0.960784
	DD	03f66e6e8r			; 0.901961
	DD	03f800000r			; 1
CONST	ENDS
;	COMDAT ?Navy@Colors@DirectX@@3UXMVECTORF32@2@B
CONST	SEGMENT
?Navy@Colors@DirectX@@3UXMVECTORF32@2@B DD 000000000r ; 0 ; DirectX::Colors::Navy
	DD	000000000r			; 0
	DD	03f008081r			; 0.501961
	DD	03f800000r			; 1
CONST	ENDS
;	COMDAT ?NavajoWhite@Colors@DirectX@@3UXMVECTORF32@2@B
CONST	SEGMENT
?NavajoWhite@Colors@DirectX@@3UXMVECTORF32@2@B DD 03f800000r ; 1 ; DirectX::Colors::NavajoWhite
	DD	03f5edee0r			; 0.870588
	DD	03f2dadaer			; 0.678431
	DD	03f800000r			; 1
CONST	ENDS
;	COMDAT ?Moccasin@Colors@DirectX@@3UXMVECTORF32@2@B
CONST	SEGMENT
?Moccasin@Colors@DirectX@@3UXMVECTORF32@2@B DD 03f800000r ; 1 ; DirectX::Colors::Moccasin
	DD	03f64e4e6r			; 0.894118
	DD	03f35b5b6r			; 0.709804
	DD	03f800000r			; 1
CONST	ENDS
;	COMDAT ?MistyRose@Colors@DirectX@@3UXMVECTORF32@2@B
CONST	SEGMENT
?MistyRose@Colors@DirectX@@3UXMVECTORF32@2@B DD 03f800000r ; 1 ; DirectX::Colors::MistyRose
	DD	03f64e4e6r			; 0.894118
	DD	03f61e1e3r			; 0.882353
	DD	03f800000r			; 1
CONST	ENDS
;	COMDAT ?MintCream@Colors@DirectX@@3UXMVECTORF32@2@B
CONST	SEGMENT
?MintCream@Colors@DirectX@@3UXMVECTORF32@2@B DD 03f75f5f7r ; 0.960784 ; DirectX::Colors::MintCream
	DD	03f800000r			; 1
	DD	03f7afafcr			; 0.980392
	DD	03f800000r			; 1
CONST	ENDS
;	COMDAT ?MidnightBlue@Colors@DirectX@@3UXMVECTORF32@2@B
CONST	SEGMENT
?MidnightBlue@Colors@DirectX@@3UXMVECTORF32@2@B DD 03dc8c8car ; 0.0980392 ; DirectX::Colors::MidnightBlue
	DD	03dc8c8car			; 0.0980392
	DD	03ee0e0e2r			; 0.439216
	DD	03f800000r			; 1
CONST	ENDS
;	COMDAT ?MediumVioletRed@Colors@DirectX@@3UXMVECTORF32@2@B
CONST	SEGMENT
?MediumVioletRed@Colors@DirectX@@3UXMVECTORF32@2@B DD 03f47c7c9r ; 0.780392 ; DirectX::Colors::MediumVioletRed
	DD	03da8a8a9r			; 0.0823529
	DD	03f058586r			; 0.521569
	DD	03f800000r			; 1
CONST	ENDS
;	COMDAT ?MediumTurquoise@Colors@DirectX@@3UXMVECTORF32@2@B
CONST	SEGMENT
?MediumTurquoise@Colors@DirectX@@3UXMVECTORF32@2@B DD 03e909091r ; 0.282353 ; DirectX::Colors::MediumTurquoise
	DD	03f51d1d3r			; 0.819608
	DD	03f4ccccer			; 0.8
	DD	03f800000r			; 1
CONST	ENDS
;	COMDAT ?radix@_Num_base@std@@2HB
CONST	SEGMENT
?radix@_Num_base@std@@2HB DD 00H			; std::_Num_base::radix
CONST	ENDS
;	COMDAT ?MediumSpringGreen@Colors@DirectX@@3UXMVECTORF32@2@B
CONST	SEGMENT
?MediumSpringGreen@Colors@DirectX@@3UXMVECTORF32@2@B DD 000000000r ; 0 ; DirectX::Colors::MediumSpringGreen
	DD	03f7afafcr			; 0.980392
	DD	03f1a9a9br			; 0.603922
	DD	03f800000r			; 1
CONST	ENDS
;	COMDAT ?MediumSlateBlue@Colors@DirectX@@3UXMVECTORF32@2@B
CONST	SEGMENT
?MediumSlateBlue@Colors@DirectX@@3UXMVECTORF32@2@B DD 03ef6f6f8r ; 0.482353 ; DirectX::Colors::MediumSlateBlue
	DD	03ed0d0d2r			; 0.407843
	DD	03f6eeef0r			; 0.933333
	DD	03f800000r			; 1
CONST	ENDS
;	COMDAT ?MediumSeaGreen@Colors@DirectX@@3UXMVECTORF32@2@B
CONST	SEGMENT
?MediumSeaGreen@Colors@DirectX@@3UXMVECTORF32@2@B DD 03e70f0f2r ; 0.235294 ; DirectX::Colors::MediumSeaGreen
	DD	03f33b3b4r			; 0.701961
	DD	03ee2e2e4r			; 0.443137
	DD	03f800000r			; 1
CONST	ENDS
;	COMDAT ?min_exponent10@_Num_base@std@@2HB
CONST	SEGMENT
?min_exponent10@_Num_base@std@@2HB DD 00H		; std::_Num_base::min_exponent10
CONST	ENDS
;	COMDAT ?MediumPurple@Colors@DirectX@@3UXMVECTORF32@2@B
CONST	SEGMENT
?MediumPurple@Colors@DirectX@@3UXMVECTORF32@2@B DD 03f139394r ; 0.576471 ; DirectX::Colors::MediumPurple
	DD	03ee0e0e2r			; 0.439216
	DD	03f5bdbddr			; 0.858824
	DD	03f800000r			; 1
CONST	ENDS
;	COMDAT ?MediumOrchid@Colors@DirectX@@3UXMVECTORF32@2@B
CONST	SEGMENT
?MediumOrchid@Colors@DirectX@@3UXMVECTORF32@2@B DD 03f3ababbr ; 0.729412 ; DirectX::Colors::MediumOrchid
	DD	03eaaaaabr			; 0.333333
	DD	03f53d3d5r			; 0.827451
	DD	03f800000r			; 1
CONST	ENDS
;	COMDAT ?MediumBlue@Colors@DirectX@@3UXMVECTORF32@2@B
CONST	SEGMENT
?MediumBlue@Colors@DirectX@@3UXMVECTORF32@2@B DD 000000000r ; 0 ; DirectX::Colors::MediumBlue
	DD	000000000r			; 0
	DD	03f4dcdcfr			; 0.803922
	DD	03f800000r			; 1
CONST	ENDS
;	COMDAT ?min_exponent@_Num_base@std@@2HB
CONST	SEGMENT
?min_exponent@_Num_base@std@@2HB DD 00H			; std::_Num_base::min_exponent
CONST	ENDS
;	COMDAT ?MediumAquamarine@Colors@DirectX@@3UXMVECTORF32@2@B
CONST	SEGMENT
?MediumAquamarine@Colors@DirectX@@3UXMVECTORF32@2@B DD 03ecccccer ; 0.4 ; DirectX::Colors::MediumAquamarine
	DD	03f4dcdcfr			; 0.803922
	DD	03f2aaaabr			; 0.666667
	DD	03f800000r			; 1
CONST	ENDS
;	COMDAT ?Maroon@Colors@DirectX@@3UXMVECTORF32@2@B
CONST	SEGMENT
?Maroon@Colors@DirectX@@3UXMVECTORF32@2@B DD 03f008081r ; 0.501961 ; DirectX::Colors::Maroon
	DD	000000000r			; 0
	DD	000000000r			; 0
	DD	03f800000r			; 1
CONST	ENDS
;	COMDAT ?Magenta@Colors@DirectX@@3UXMVECTORF32@2@B
CONST	SEGMENT
?Magenta@Colors@DirectX@@3UXMVECTORF32@2@B DD 03f800000r ; 1 ; DirectX::Colors::Magenta
	DD	000000000r			; 0
	DD	03f800000r			; 1
	DD	03f800000r			; 1
CONST	ENDS
;	COMDAT ?max_exponent10@_Num_base@std@@2HB
CONST	SEGMENT
?max_exponent10@_Num_base@std@@2HB DD 00H		; std::_Num_base::max_exponent10
CONST	ENDS
;	COMDAT ?Linen@Colors@DirectX@@3UXMVECTORF32@2@B
CONST	SEGMENT
?Linen@Colors@DirectX@@3UXMVECTORF32@2@B DD 03f7afafcr ; 0.980392 ; DirectX::Colors::Linen
	DD	03f70f0f2r			; 0.941177
	DD	03f66e6e8r			; 0.901961
	DD	03f800000r			; 1
CONST	ENDS
;	COMDAT ?LimeGreen@Colors@DirectX@@3UXMVECTORF32@2@B
CONST	SEGMENT
?LimeGreen@Colors@DirectX@@3UXMVECTORF32@2@B DD 03e48c8car ; 0.196078 ; DirectX::Colors::LimeGreen
	DD	03f4dcdcfr			; 0.803922
	DD	03e48c8car			; 0.196078
	DD	03f800000r			; 1
CONST	ENDS
;	COMDAT ?Lime@Colors@DirectX@@3UXMVECTORF32@2@B
CONST	SEGMENT
?Lime@Colors@DirectX@@3UXMVECTORF32@2@B DD 000000000r ; 0 ; DirectX::Colors::Lime
	DD	03f800000r			; 1
	DD	000000000r			; 0
	DD	03f800000r			; 1
CONST	ENDS
;	COMDAT ?max_exponent@_Num_base@std@@2HB
CONST	SEGMENT
?max_exponent@_Num_base@std@@2HB DD 00H			; std::_Num_base::max_exponent
CONST	ENDS
;	COMDAT ?LightYellow@Colors@DirectX@@3UXMVECTORF32@2@B
CONST	SEGMENT
?LightYellow@Colors@DirectX@@3UXMVECTORF32@2@B DD 03f800000r ; 1 ; DirectX::Colors::LightYellow
	DD	03f800000r			; 1
	DD	03f60e0e2r			; 0.878431
	DD	03f800000r			; 1
CONST	ENDS
;	COMDAT ?LightSteelBlue@Colors@DirectX@@3UXMVECTORF32@2@B
CONST	SEGMENT
?LightSteelBlue@Colors@DirectX@@3UXMVECTORF32@2@B DD 03f30b0b1r ; 0.690196 ; DirectX::Colors::LightSteelBlue
	DD	03f44c4c6r			; 0.768628
	DD	03f5edee0r			; 0.870588
	DD	03f800000r			; 1
CONST	ENDS
;	COMDAT ?LightSlateGray@Colors@DirectX@@3UXMVECTORF32@2@B
CONST	SEGMENT
?LightSlateGray@Colors@DirectX@@3UXMVECTORF32@2@B DD 03eeeeef0r ; 0.466667 ; DirectX::Colors::LightSlateGray
	DD	03f088889r			; 0.533333
	DD	03f19999ar			; 0.6
	DD	03f800000r			; 1
CONST	ENDS
;	COMDAT ?max_digits10@_Num_base@std@@2HB
CONST	SEGMENT
?max_digits10@_Num_base@std@@2HB DD 00H			; std::_Num_base::max_digits10
CONST	ENDS
;	COMDAT ?LightSkyBlue@Colors@DirectX@@3UXMVECTORF32@2@B
CONST	SEGMENT
?LightSkyBlue@Colors@DirectX@@3UXMVECTORF32@2@B DD 03f078788r ; 0.529412 ; DirectX::Colors::LightSkyBlue
	DD	03f4eced0r			; 0.807843
	DD	03f7afafcr			; 0.980392
	DD	03f800000r			; 1
CONST	ENDS
;	COMDAT ?LightSeaGreen@Colors@DirectX@@3UXMVECTORF32@2@B
CONST	SEGMENT
?LightSeaGreen@Colors@DirectX@@3UXMVECTORF32@2@B DD 03e008081r ; 0.12549 ; DirectX::Colors::LightSeaGreen
	DD	03f32b2b3r			; 0.698039
	DD	03f2aaaabr			; 0.666667
	DD	03f800000r			; 1
CONST	ENDS
;	COMDAT ?LightSalmon@Colors@DirectX@@3UXMVECTORF32@2@B
CONST	SEGMENT
?LightSalmon@Colors@DirectX@@3UXMVECTORF32@2@B DD 03f800000r ; 1 ; DirectX::Colors::LightSalmon
	DD	03f20a0a1r			; 0.627451
	DD	03ef4f4f6r			; 0.478431
	DD	03f800000r			; 1
CONST	ENDS
;	COMDAT ?digits10@_Num_base@std@@2HB
CONST	SEGMENT
?digits10@_Num_base@std@@2HB DD 00H			; std::_Num_base::digits10
CONST	ENDS
;	COMDAT ?LightPink@Colors@DirectX@@3UXMVECTORF32@2@B
CONST	SEGMENT
?LightPink@Colors@DirectX@@3UXMVECTORF32@2@B DD 03f800000r ; 1 ; DirectX::Colors::LightPink
	DD	03f36b6b7r			; 0.713726
	DD	03f41c1c3r			; 0.756863
	DD	03f800000r			; 1
CONST	ENDS
;	COMDAT ?LightGray@Colors@DirectX@@3UXMVECTORF32@2@B
CONST	SEGMENT
?LightGray@Colors@DirectX@@3UXMVECTORF32@2@B DD 03f53d3d5r ; 0.827451 ; DirectX::Colors::LightGray
	DD	03f53d3d5r			; 0.827451
	DD	03f53d3d5r			; 0.827451
	DD	03f800000r			; 1
CONST	ENDS
;	COMDAT ?LightGreen@Colors@DirectX@@3UXMVECTORF32@2@B
CONST	SEGMENT
?LightGreen@Colors@DirectX@@3UXMVECTORF32@2@B DD 03f109091r ; 0.564706 ; DirectX::Colors::LightGreen
	DD	03f6eeef0r			; 0.933333
	DD	03f109091r			; 0.564706
	DD	03f800000r			; 1
CONST	ENDS
;	COMDAT ?digits@_Num_base@std@@2HB
CONST	SEGMENT
?digits@_Num_base@std@@2HB DD 00H			; std::_Num_base::digits
CONST	ENDS
;	COMDAT _IID_ID3D11VideoProcessorEnumerator
CONST	SEGMENT
_IID_ID3D11VideoProcessorEnumerator DD 031627037H
	DW	053abH
	DW	04200H
	DB	090H
	DB	061H
	DB	05H
	DB	0faH
	DB	0a9H
	DB	0abH
	DB	045H
	DB	0f9H
CONST	ENDS
;	COMDAT ?LightGoldenrodYellow@Colors@DirectX@@3UXMVECTORF32@2@B
CONST	SEGMENT
?LightGoldenrodYellow@Colors@DirectX@@3UXMVECTORF32@2@B DD 03f7afafcr ; 0.980392 ; DirectX::Colors::LightGoldenrodYellow
	DD	03f7afafcr			; 0.980392
	DD	03f52d2d4r			; 0.823529
	DD	03f800000r			; 1
CONST	ENDS
;	COMDAT ?LightCyan@Colors@DirectX@@3UXMVECTORF32@2@B
CONST	SEGMENT
?LightCyan@Colors@DirectX@@3UXMVECTORF32@2@B DD 03f60e0e2r ; 0.878431 ; DirectX::Colors::LightCyan
	DD	03f800000r			; 1
	DD	03f800000r			; 1
	DD	03f800000r			; 1
CONST	ENDS
;	COMDAT ?LightCoral@Colors@DirectX@@3UXMVECTORF32@2@B
CONST	SEGMENT
?LightCoral@Colors@DirectX@@3UXMVECTORF32@2@B DD 03f70f0f2r ; 0.941177 ; DirectX::Colors::LightCoral
	DD	03f008081r			; 0.501961
	DD	03f008081r			; 0.501961
	DD	03f800000r			; 1
CONST	ENDS
;	COMDAT ?g_XMInvLgE@DirectX@@3UXMVECTORF32@1@B
CONST	SEGMENT
?g_XMInvLgE@DirectX@@3UXMVECTORF32@1@B DD 03f317218r ; 0.693147 ; DirectX::g_XMInvLgE
	DD	03f317218r			; 0.693147
	DD	03f317218r			; 0.693147
	DD	03f317218r			; 0.693147
CONST	ENDS
;	COMDAT ?round_style@_Num_base@std@@2W4float_round_style@2@B
CONST	SEGMENT
?round_style@_Num_base@std@@2W4float_round_style@2@B DD 00H ; std::_Num_base::round_style
CONST	ENDS
;	COMDAT ?LightBlue@Colors@DirectX@@3UXMVECTORF32@2@B
CONST	SEGMENT
?LightBlue@Colors@DirectX@@3UXMVECTORF32@2@B DD 03f2dadaer ; 0.678431 ; DirectX::Colors::LightBlue
	DD	03f58d8dar			; 0.847059
	DD	03f66e6e8r			; 0.901961
	DD	03f800000r			; 1
CONST	ENDS
;	COMDAT ?g_XMLgE@DirectX@@3UXMVECTORF32@1@B
CONST	SEGMENT
?g_XMLgE@DirectX@@3UXMVECTORF32@1@B DD 03fb8aa3br ; 1.4427 ; DirectX::g_XMLgE
	DD	03fb8aa3br			; 1.4427
	DD	03fb8aa3br			; 1.4427
	DD	03fb8aa3br			; 1.4427
CONST	ENDS
;	COMDAT ?LemonChiffon@Colors@DirectX@@3UXMVECTORF32@2@B
CONST	SEGMENT
?LemonChiffon@Colors@DirectX@@3UXMVECTORF32@2@B DD 03f800000r ; 1 ; DirectX::Colors::LemonChiffon
	DD	03f7afafcr			; 0.980392
	DD	03f4dcdcfr			; 0.803922
	DD	03f800000r			; 1
CONST	ENDS
;	COMDAT ?g_XMLogEst7@DirectX@@3UXMVECTORF32@1@B
CONST	SEGMENT
?g_XMLogEst7@DirectX@@3UXMVECTORF32@1@B DD 0bc2d4f59r ; -0.010578 ; DirectX::g_XMLogEst7
	DD	0bc2d4f59r			; -0.010578
	DD	0bc2d4f59r			; -0.010578
	DD	0bc2d4f59r			; -0.010578
CONST	ENDS
;	COMDAT ?LawnGreen@Colors@DirectX@@3UXMVECTORF32@2@B
CONST	SEGMENT
?LawnGreen@Colors@DirectX@@3UXMVECTORF32@2@B DD 03ef8f8far ; 0.486275 ; DirectX::Colors::LawnGreen
	DD	03f7cfcfer			; 0.988235
	DD	000000000r			; 0
	DD	03f800000r			; 1
CONST	ENDS
;	COMDAT ?g_XMLogEst6@DirectX@@3UXMVECTORF32@1@B
CONST	SEGMENT
?g_XMLogEst6@DirectX@@3UXMVECTORF32@1@B DD 03d6a1405r ; 0.057148 ; DirectX::g_XMLogEst6
	DD	03d6a1405r			; 0.057148
	DD	03d6a1405r			; 0.057148
	DD	03d6a1405r			; 0.057148
CONST	ENDS
;	COMDAT ?traps@_Num_base@std@@2_NB
CONST	SEGMENT
?traps@_Num_base@std@@2_NB DB 00H			; std::_Num_base::traps
CONST	ENDS
;	COMDAT _IID_ID3D11Device
CONST	SEGMENT
_IID_ID3D11Device DD 0db6f6ddbH
	DW	0ac77H
	DW	04e88H
	DB	082H
	DB	053H
	DB	081H
	DB	09dH
	DB	0f9H
	DB	0bbH
	DB	0f1H
	DB	040H
CONST	ENDS
;	COMDAT ?g_XMLogEst5@DirectX@@3UXMVECTORF32@1@B
CONST	SEGMENT
?g_XMLogEst5@DirectX@@3UXMVECTORF32@1@B DD 0be153261r ; -0.1457 ; DirectX::g_XMLogEst5
	DD	0be153261r			; -0.1457
	DD	0be153261r			; -0.1457
	DD	0be153261r			; -0.1457
CONST	ENDS
;	COMDAT ?LavenderBlush@Colors@DirectX@@3UXMVECTORF32@2@B
CONST	SEGMENT
?LavenderBlush@Colors@DirectX@@3UXMVECTORF32@2@B DD 03f800000r ; 1 ; DirectX::Colors::LavenderBlush
	DD	03f70f0f2r			; 0.941177
	DD	03f75f5f7r			; 0.960784
	DD	03f800000r			; 1
CONST	ENDS
;	COMDAT ?Lavender@Colors@DirectX@@3UXMVECTORF32@2@B
CONST	SEGMENT
?Lavender@Colors@DirectX@@3UXMVECTORF32@2@B DD 03f66e6e8r ; 0.901961 ; DirectX::Colors::Lavender
	DD	03f66e6e8r			; 0.901961
	DD	03f7afafcr			; 0.980392
	DD	03f800000r			; 1
CONST	ENDS
;	COMDAT ?g_XMLogEst4@DirectX@@3UXMVECTORF32@1@B
CONST	SEGMENT
?g_XMLogEst4@DirectX@@3UXMVECTORF32@1@B DD 03e7e8e61r ; 0.24859 ; DirectX::g_XMLogEst4
	DD	03e7e8e61r			; 0.24859
	DD	03e7e8e61r			; 0.24859
	DD	03e7e8e61r			; 0.24859
CONST	ENDS
;	COMDAT ?Khaki@Colors@DirectX@@3UXMVECTORF32@2@B
CONST	SEGMENT
?Khaki@Colors@DirectX@@3UXMVECTORF32@2@B DD 03f70f0f2r ; 0.941177 ; DirectX::Colors::Khaki
	DD	03f66e6e8r			; 0.901961
	DD	03f0c8c8dr			; 0.54902
	DD	03f800000r			; 1
CONST	ENDS
;	COMDAT ?g_XMLogEst3@DirectX@@3UXMVECTORF32@1@B
CONST	SEGMENT
?g_XMLogEst3@DirectX@@3UXMVECTORF32@1@B DD 0beb359der ; -0.350295 ; DirectX::g_XMLogEst3
	DD	0beb359der			; -0.350295
	DD	0beb359der			; -0.350295
	DD	0beb359der			; -0.350295
CONST	ENDS
;	COMDAT ?tinyness_before@_Num_base@std@@2_NB
CONST	SEGMENT
?tinyness_before@_Num_base@std@@2_NB DB 00H		; std::_Num_base::tinyness_before
CONST	ENDS
;	COMDAT ?Ivory@Colors@DirectX@@3UXMVECTORF32@2@B
CONST	SEGMENT
?Ivory@Colors@DirectX@@3UXMVECTORF32@2@B DD 03f800000r ; 1 ; DirectX::Colors::Ivory
	DD	03f800000r			; 1
	DD	03f70f0f2r			; 0.941177
	DD	03f800000r			; 1
CONST	ENDS
;	COMDAT ?g_XMLogEst2@DirectX@@3UXMVECTORF32@1@B
CONST	SEGMENT
?g_XMLogEst2@DirectX@@3UXMVECTORF32@1@B DD 03ef571d2r ; 0.479384 ; DirectX::g_XMLogEst2
	DD	03ef571d2r			; 0.479384
	DD	03ef571d2r			; 0.479384
	DD	03ef571d2r			; 0.479384
CONST	ENDS
;	COMDAT ?Indigo@Colors@DirectX@@3UXMVECTORF32@2@B
CONST	SEGMENT
?Indigo@Colors@DirectX@@3UXMVECTORF32@2@B DD 03e969697r ; 0.294118 ; DirectX::Colors::Indigo
	DD	000000000r			; 0
	DD	03f028283r			; 0.509804
	DD	03f800000r			; 1
CONST	ENDS
;	COMDAT ?g_XMLogEst1@DirectX@@3UXMVECTORF32@1@B
CONST	SEGMENT
?g_XMLogEst1@DirectX@@3UXMVECTORF32@1@B DD 0bf38a351r ; -0.721242 ; DirectX::g_XMLogEst1
	DD	0bf38a351r			; -0.721242
	DD	0bf38a351r			; -0.721242
	DD	0bf38a351r			; -0.721242
CONST	ENDS
;	COMDAT _IID_ID3D10Buffer
CONST	SEGMENT
_IID_ID3D10Buffer DD 09b7e4c02H
	DW	0342cH
	DW	04106H
	DB	0a1H
	DB	09fH
	DB	04fH
	DB	027H
	DB	04H
	DB	0f6H
	DB	089H
	DB	0f0H
CONST	ENDS
;	COMDAT ?g_XMLogEst0@DirectX@@3UXMVECTORF32@1@B
CONST	SEGMENT
?g_XMLogEst0@DirectX@@3UXMVECTORF32@1@B DD 03fb8aa2ar ; 1.44269 ; DirectX::g_XMLogEst0
	DD	03fb8aa2ar			; 1.44269
	DD	03fb8aa2ar			; 1.44269
	DD	03fb8aa2ar			; 1.44269
CONST	ENDS
;	COMDAT ?IndianRed@Colors@DirectX@@3UXMVECTORF32@2@B
CONST	SEGMENT
?IndianRed@Colors@DirectX@@3UXMVECTORF32@2@B DD 03f4dcdcfr ; 0.803922 ; DirectX::Colors::IndianRed
	DD	03eb8b8b9r			; 0.360784
	DD	03eb8b8b9r			; 0.360784
	DD	03f800000r			; 1
CONST	ENDS
;	COMDAT ?is_specialized@_Num_base@std@@2_NB
CONST	SEGMENT
?is_specialized@_Num_base@std@@2_NB DB 00H		; std::_Num_base::is_specialized
CONST	ENDS
;	COMDAT ?g_XMExpEst7@DirectX@@3UXMVECTORF32@1@B
CONST	SEGMENT
?g_XMExpEst7@DirectX@@3UXMVECTORF32@1@B DD 0b7364261r ; -1.08635e-005 ; DirectX::g_XMExpEst7
	DD	0b7364261r			; -1.08635e-005
	DD	0b7364261r			; -1.08635e-005
	DD	0b7364261r			; -1.08635e-005
CONST	ENDS
;	COMDAT ?HotPink@Colors@DirectX@@3UXMVECTORF32@2@B
CONST	SEGMENT
?HotPink@Colors@DirectX@@3UXMVECTORF32@2@B DD 03f800000r ; 1 ; DirectX::Colors::HotPink
	DD	03ed2d2d4r			; 0.411765
	DD	03f34b4b5r			; 0.705882
	DD	03f800000r			; 1
CONST	ENDS
;	COMDAT ?Honeydew@Colors@DirectX@@3UXMVECTORF32@2@B
CONST	SEGMENT
?Honeydew@Colors@DirectX@@3UXMVECTORF32@2@B DD 03f70f0f2r ; 0.941177 ; DirectX::Colors::Honeydew
	DD	03f800000r			; 1
	DD	03f70f0f2r			; 0.941177
	DD	03f800000r			; 1
CONST	ENDS
;	COMDAT ?g_XMExpEst6@DirectX@@3UXMVECTORF32@1@B
CONST	SEGMENT
?g_XMExpEst6@DirectX@@3UXMVECTORF32@1@B DD 0391aa7d7r ; 0.000147491 ; DirectX::g_XMExpEst6
	DD	0391aa7d7r			; 0.000147491
	DD	0391aa7d7r			; 0.000147491
	DD	0391aa7d7r			; 0.000147491
CONST	ENDS
;	COMDAT ?GreenYellow@Colors@DirectX@@3UXMVECTORF32@2@B
CONST	SEGMENT
?GreenYellow@Colors@DirectX@@3UXMVECTORF32@2@B DD 03f2dadaer ; 0.678431 ; DirectX::Colors::GreenYellow
	DD	03f800000r			; 1
	DD	03e3cbcbdr			; 0.184314
	DD	03f800000r			; 1
CONST	ENDS
;	COMDAT ?g_XMExpEst5@DirectX@@3UXMVECTORF32@1@B
CONST	SEGMENT
?g_XMExpEst5@DirectX@@3UXMVECTORF32@1@B DD 0baae1854r ; -0.00132824 ; DirectX::g_XMExpEst5
	DD	0baae1854r			; -0.00132824
	DD	0baae1854r			; -0.00132824
	DD	0baae1854r			; -0.00132824
CONST	ENDS
;	COMDAT ?is_signed@_Num_base@std@@2_NB
CONST	SEGMENT
?is_signed@_Num_base@std@@2_NB DB 00H			; std::_Num_base::is_signed
CONST	ENDS
;	COMDAT ?Green@Colors@DirectX@@3UXMVECTORF32@2@B
CONST	SEGMENT
?Green@Colors@DirectX@@3UXMVECTORF32@2@B DD 000000000r ; 0 ; DirectX::Colors::Green
	DD	03f008081r			; 0.501961
	DD	000000000r			; 0
	DD	03f800000r			; 1
CONST	ENDS
;	COMDAT ?g_XMExpEst4@DirectX@@3UXMVECTORF32@1@B
CONST	SEGMENT
?g_XMExpEst4@DirectX@@3UXMVECTORF32@1@B DD 03c1d8c54r ; 0.00961598 ; DirectX::g_XMExpEst4
	DD	03c1d8c54r			; 0.00961598
	DD	03c1d8c54r			; 0.00961598
	DD	03c1d8c54r			; 0.00961598
CONST	ENDS
;	COMDAT ?Gray@Colors@DirectX@@3UXMVECTORF32@2@B
CONST	SEGMENT
?Gray@Colors@DirectX@@3UXMVECTORF32@2@B DD 03f008081r ; 0.501961 ; DirectX::Colors::Gray
	DD	03f008081r			; 0.501961
	DD	03f008081r			; 0.501961
	DD	03f800000r			; 1
CONST	ENDS
;	COMDAT ?g_XMExpEst3@DirectX@@3UXMVECTORF32@1@B
CONST	SEGMENT
?g_XMExpEst3@DirectX@@3UXMVECTORF32@1@B DD 0bd6357car ; -0.0555036 ; DirectX::g_XMExpEst3
	DD	0bd6357car			; -0.0555036
	DD	0bd6357car			; -0.0555036
	DD	0bd6357car			; -0.0555036
CONST	ENDS
;	COMDAT ?Goldenrod@Colors@DirectX@@3UXMVECTORF32@2@B
CONST	SEGMENT
?Goldenrod@Colors@DirectX@@3UXMVECTORF32@2@B DD 03f5adadcr ; 0.854902 ; DirectX::Colors::Goldenrod
	DD	03f25a5a6r			; 0.647059
	DD	03e008081r			; 0.12549
	DD	03f800000r			; 1
CONST	ENDS
;	COMDAT ?g_XMExpEst2@DirectX@@3UXMVECTORF32@1@B
CONST	SEGMENT
?g_XMExpEst2@DirectX@@3UXMVECTORF32@1@B DD 03e75fdedr ; 0.240226 ; DirectX::g_XMExpEst2
	DD	03e75fdedr			; 0.240226
	DD	03e75fdedr			; 0.240226
	DD	03e75fdedr			; 0.240226
CONST	ENDS
;	COMDAT ?is_modulo@_Num_base@std@@2_NB
CONST	SEGMENT
?is_modulo@_Num_base@std@@2_NB DB 00H			; std::_Num_base::is_modulo
CONST	ENDS
;	COMDAT ?Gold@Colors@DirectX@@3UXMVECTORF32@2@B
CONST	SEGMENT
?Gold@Colors@DirectX@@3UXMVECTORF32@2@B DD 03f800000r ; 1 ; DirectX::Colors::Gold
	DD	03f57d7d9r			; 0.843137
	DD	000000000r			; 0
	DD	03f800000r			; 1
CONST	ENDS
;	COMDAT ?g_XMExpEst1@DirectX@@3UXMVECTORF32@1@B
CONST	SEGMENT
?g_XMExpEst1@DirectX@@3UXMVECTORF32@1@B DD 0bf317218r ; -0.693147 ; DirectX::g_XMExpEst1
	DD	0bf317218r			; -0.693147
	DD	0bf317218r			; -0.693147
	DD	0bf317218r			; -0.693147
CONST	ENDS
;	COMDAT ?GhostWhite@Colors@DirectX@@3UXMVECTORF32@2@B
CONST	SEGMENT
?GhostWhite@Colors@DirectX@@3UXMVECTORF32@2@B DD 03f78f8far ; 0.972549 ; DirectX::Colors::GhostWhite
	DD	03f78f8far			; 0.972549
	DD	03f800000r			; 1
	DD	03f800000r			; 1
CONST	ENDS
;	COMDAT ?g_XM253@DirectX@@3UXMVECTORI32@1@B
CONST	SEGMENT
?g_XM253@DirectX@@3UXMVECTORI32@1@B DD 0fdH		; DirectX::g_XM253
	DD	0fdH
	DD	0fdH
	DD	0fdH
CONST	ENDS
;	COMDAT ?Gainsboro@Colors@DirectX@@3UXMVECTORF32@2@B
CONST	SEGMENT
?Gainsboro@Colors@DirectX@@3UXMVECTORF32@2@B DD 03f5cdcder ; 0.862745 ; DirectX::Colors::Gainsboro
	DD	03f5cdcder			; 0.862745
	DD	03f5cdcder			; 0.862745
	DD	03f800000r			; 1
CONST	ENDS
;	COMDAT ?g_XMBinNeg150@DirectX@@3UXMVECTORI32@1@B
CONST	SEGMENT
?g_XMBinNeg150@DirectX@@3UXMVECTORI32@1@B DD 0c3160000H	; DirectX::g_XMBinNeg150
	DD	0c3160000H
	DD	0c3160000H
	DD	0c3160000H
CONST	ENDS
;	COMDAT ?is_integer@_Num_base@std@@2_NB
CONST	SEGMENT
?is_integer@_Num_base@std@@2_NB DB 00H			; std::_Num_base::is_integer
CONST	ENDS
;	COMDAT ?Fuchsia@Colors@DirectX@@3UXMVECTORF32@2@B
CONST	SEGMENT
?Fuchsia@Colors@DirectX@@3UXMVECTORF32@2@B DD 03f800000r ; 1 ; DirectX::Colors::Fuchsia
	DD	000000000r			; 0
	DD	03f800000r			; 1
	DD	03f800000r			; 1
CONST	ENDS
;	COMDAT ?g_XMBin128@DirectX@@3UXMVECTORI32@1@B
CONST	SEGMENT
?g_XMBin128@DirectX@@3UXMVECTORI32@1@B DD 043000000H	; DirectX::g_XMBin128
	DD	043000000H
	DD	043000000H
	DD	043000000H
CONST	ENDS
;	COMDAT ?ForestGreen@Colors@DirectX@@3UXMVECTORF32@2@B
CONST	SEGMENT
?ForestGreen@Colors@DirectX@@3UXMVECTORF32@2@B DD 03e088889r ; 0.133333 ; DirectX::Colors::ForestGreen
	DD	03f0b8b8cr			; 0.545098
	DD	03e088889r			; 0.133333
	DD	03f800000r			; 1
CONST	ENDS
;	COMDAT ?g_XMNegQNaN@DirectX@@3UXMVECTORI32@1@B
CONST	SEGMENT
?g_XMNegQNaN@DirectX@@3UXMVECTORI32@1@B DD 0ffc00000H	; DirectX::g_XMNegQNaN
	DD	0ffc00000H
	DD	0ffc00000H
	DD	0ffc00000H
CONST	ENDS
;	COMDAT ?FloralWhite@Colors@DirectX@@3UXMVECTORF32@2@B
CONST	SEGMENT
?FloralWhite@Colors@DirectX@@3UXMVECTORF32@2@B DD 03f800000r ; 1 ; DirectX::Colors::FloralWhite
	DD	03f7afafcr			; 0.980392
	DD	03f70f0f2r			; 0.941177
	DD	03f800000r			; 1
CONST	ENDS
;	COMDAT ?g_XMNegInfinity@DirectX@@3UXMVECTORI32@1@B
CONST	SEGMENT
?g_XMNegInfinity@DirectX@@3UXMVECTORI32@1@B DD 0ff800000H ; DirectX::g_XMNegInfinity
	DD	0ff800000H
	DD	0ff800000H
	DD	0ff800000H
CONST	ENDS
;	COMDAT ?is_iec559@_Num_base@std@@2_NB
CONST	SEGMENT
?is_iec559@_Num_base@std@@2_NB DB 00H			; std::_Num_base::is_iec559
CONST	ENDS
;	COMDAT ?Firebrick@Colors@DirectX@@3UXMVECTORF32@2@B
CONST	SEGMENT
?Firebrick@Colors@DirectX@@3UXMVECTORF32@2@B DD 03f32b2b3r ; 0.698039 ; DirectX::Colors::Firebrick
	DD	03e088889r			; 0.133333
	DD	03e088889r			; 0.133333
	DD	03f800000r			; 1
CONST	ENDS
;	COMDAT ?g_XMMinNormal@DirectX@@3UXMVECTORI32@1@B
CONST	SEGMENT
?g_XMMinNormal@DirectX@@3UXMVECTORI32@1@B DD 0800000H	; DirectX::g_XMMinNormal
	DD	0800000H
	DD	0800000H
	DD	0800000H
CONST	ENDS
;	COMDAT ?DodgerBlue@Colors@DirectX@@3UXMVECTORF32@2@B
CONST	SEGMENT
?DodgerBlue@Colors@DirectX@@3UXMVECTORF32@2@B DD 03df0f0f2r ; 0.117647 ; DirectX::Colors::DodgerBlue
	DD	03f109091r			; 0.564706
	DD	03f800000r			; 1
	DD	03f800000r			; 1
CONST	ENDS
;	COMDAT ?g_XMNumTrailing@DirectX@@3UXMVECTORI32@1@B
CONST	SEGMENT
?g_XMNumTrailing@DirectX@@3UXMVECTORI32@1@B DD 017H	; DirectX::g_XMNumTrailing
	DD	017H
	DD	017H
	DD	017H
CONST	ENDS
;	COMDAT ?DimGray@Colors@DirectX@@3UXMVECTORF32@2@B
CONST	SEGMENT
?DimGray@Colors@DirectX@@3UXMVECTORF32@2@B DD 03ed2d2d4r ; 0.411765 ; DirectX::Colors::DimGray
	DD	03ed2d2d4r			; 0.411765
	DD	03ed2d2d4r			; 0.411765
	DD	03f800000r			; 1
CONST	ENDS
;	COMDAT ?g_XMSubnormalExponent@DirectX@@3UXMVECTORI32@1@B
CONST	SEGMENT
?g_XMSubnormalExponent@DirectX@@3UXMVECTORI32@1@B DD 0ffffff82H ; DirectX::g_XMSubnormalExponent
	DD	0ffffff82H
	DD	0ffffff82H
	DD	0ffffff82H
CONST	ENDS
;	COMDAT ?is_exact@_Num_base@std@@2_NB
CONST	SEGMENT
?is_exact@_Num_base@std@@2_NB DB 00H			; std::_Num_base::is_exact
CONST	ENDS
;	COMDAT ?DeepSkyBlue@Colors@DirectX@@3UXMVECTORF32@2@B
CONST	SEGMENT
?DeepSkyBlue@Colors@DirectX@@3UXMVECTORF32@2@B DD 000000000r ; 0 ; DirectX::Colors::DeepSkyBlue
	DD	03f3fbfc0r			; 0.74902
	DD	03f800000r			; 1
	DD	03f800000r			; 1
CONST	ENDS
;	COMDAT ?g_XMExponentBias@DirectX@@3UXMVECTORI32@1@B
CONST	SEGMENT
?g_XMExponentBias@DirectX@@3UXMVECTORI32@1@B DD 07fH	; DirectX::g_XMExponentBias
	DD	07fH
	DD	07fH
	DD	07fH
CONST	ENDS
;	COMDAT ?DeepPink@Colors@DirectX@@3UXMVECTORF32@2@B
CONST	SEGMENT
?DeepPink@Colors@DirectX@@3UXMVECTORF32@2@B DD 03f800000r ; 1 ; DirectX::Colors::DeepPink
	DD	03da0a0a1r			; 0.0784314
	DD	03f139394r			; 0.576471
	DD	03f800000r			; 1
CONST	ENDS
;	COMDAT ?g_XMsrgbA1@DirectX@@3UXMVECTORF32@1@B
CONST	SEGMENT
?g_XMsrgbA1@DirectX@@3UXMVECTORF32@1@B DD 03f870a3dr ; 1.055 ; DirectX::g_XMsrgbA1
	DD	03f870a3dr			; 1.055
	DD	03f870a3dr			; 1.055
	DD	03f800000r			; 1
CONST	ENDS
;	COMDAT ?g_XMsrgbA@DirectX@@3UXMVECTORF32@1@B
CONST	SEGMENT
?g_XMsrgbA@DirectX@@3UXMVECTORF32@1@B DD 03d6147aer ; 0.055 ; DirectX::g_XMsrgbA
	DD	03d6147aer			; 0.055
	DD	03d6147aer			; 0.055
	DD	000000000r			; 0
CONST	ENDS
;	COMDAT ?DarkViolet@Colors@DirectX@@3UXMVECTORF32@2@B
CONST	SEGMENT
?DarkViolet@Colors@DirectX@@3UXMVECTORF32@2@B DD 03f149495r ; 0.580392 ; DirectX::Colors::DarkViolet
	DD	000000000r			; 0
	DD	03f53d3d5r			; 0.827451
	DD	03f800000r			; 1
CONST	ENDS
;	COMDAT ?is_bounded@_Num_base@std@@2_NB
CONST	SEGMENT
?is_bounded@_Num_base@std@@2_NB DB 00H			; std::_Num_base::is_bounded
CONST	ENDS
;	COMDAT ?DarkTurquoise@Colors@DirectX@@3UXMVECTORF32@2@B
CONST	SEGMENT
?DarkTurquoise@Colors@DirectX@@3UXMVECTORF32@2@B DD 000000000r ; 0 ; DirectX::Colors::DarkTurquoise
	DD	03f4eced0r			; 0.807843
	DD	03f51d1d3r			; 0.819608
	DD	03f800000r			; 1
CONST	ENDS
;	COMDAT ?g_XMsrgbScale@DirectX@@3UXMVECTORF32@1@B
CONST	SEGMENT
?g_XMsrgbScale@DirectX@@3UXMVECTORF32@1@B DD 0414eb852r ; 12.92 ; DirectX::g_XMsrgbScale
	DD	0414eb852r			; 12.92
	DD	0414eb852r			; 12.92
	DD	03f800000r			; 1
CONST	ENDS
;	COMDAT ?DarkSlateGray@Colors@DirectX@@3UXMVECTORF32@2@B
CONST	SEGMENT
?DarkSlateGray@Colors@DirectX@@3UXMVECTORF32@2@B DD 03e3cbcbdr ; 0.184314 ; DirectX::Colors::DarkSlateGray
	DD	03e9e9e9fr			; 0.309804
	DD	03e9e9e9fr			; 0.309804
	DD	03f800000r			; 1
CONST	ENDS
;	COMDAT ?g_XMUnsignedFix@DirectX@@3UXMVECTORF32@1@B
CONST	SEGMENT
?g_XMUnsignedFix@DirectX@@3UXMVECTORF32@1@B DD 04f000000r ; 2.14748e+009 ; DirectX::g_XMUnsignedFix
	DD	04f000000r			; 2.14748e+009
	DD	04f000000r			; 2.14748e+009
	DD	04f000000r			; 2.14748e+009
CONST	ENDS
;	COMDAT ?g_XMMaxUInt@DirectX@@3UXMVECTORF32@1@B
CONST	SEGMENT
?g_XMMaxUInt@DirectX@@3UXMVECTORF32@1@B DD 04f7fffffr ; 4.29497e+009 ; DirectX::g_XMMaxUInt
	DD	04f7fffffr			; 4.29497e+009
	DD	04f7fffffr			; 4.29497e+009
	DD	04f7fffffr			; 4.29497e+009
CONST	ENDS
;	COMDAT ?DarkSlateBlue@Colors@DirectX@@3UXMVECTORF32@2@B
CONST	SEGMENT
?DarkSlateBlue@Colors@DirectX@@3UXMVECTORF32@2@B DD 03e909091r ; 0.282353 ; DirectX::Colors::DarkSlateBlue
	DD	03e74f4f6r			; 0.239216
	DD	03f0b8b8cr			; 0.545098
	DD	03f800000r			; 1
CONST	ENDS
;	COMDAT ?has_signaling_NaN@_Num_base@std@@2_NB
CONST	SEGMENT
?has_signaling_NaN@_Num_base@std@@2_NB DB 00H		; std::_Num_base::has_signaling_NaN
CONST	ENDS
;	COMDAT ?g_XMMaxInt@DirectX@@3UXMVECTORF32@1@B
CONST	SEGMENT
?g_XMMaxInt@DirectX@@3UXMVECTORF32@1@B DD 04effffffr ; 2.14748e+009 ; DirectX::g_XMMaxInt
	DD	04effffffr			; 2.14748e+009
	DD	04effffffr			; 2.14748e+009
	DD	04effffffr			; 2.14748e+009
CONST	ENDS
;	COMDAT ?DarkSeaGreen@Colors@DirectX@@3UXMVECTORF32@2@B
CONST	SEGMENT
?DarkSeaGreen@Colors@DirectX@@3UXMVECTORF32@2@B DD 03f0f8f90r ; 0.560784 ; DirectX::Colors::DarkSeaGreen
	DD	03f3cbcbdr			; 0.737255
	DD	03f0b8b8cr			; 0.545098
	DD	03f800000r			; 1
CONST	ENDS
;	COMDAT ?g_XMFixUnsigned@DirectX@@3UXMVECTORF32@1@B
CONST	SEGMENT
?g_XMFixUnsigned@DirectX@@3UXMVECTORF32@1@B DD 04f000000r ; 2.14748e+009 ; DirectX::g_XMFixUnsigned
	DD	04f000000r			; 2.14748e+009
	DD	04f000000r			; 2.14748e+009
	DD	04f000000r			; 2.14748e+009
CONST	ENDS
;	COMDAT ?DarkSalmon@Colors@DirectX@@3UXMVECTORF32@2@B
CONST	SEGMENT
?DarkSalmon@Colors@DirectX@@3UXMVECTORF32@2@B DD 03f69e9ebr ; 0.913726 ; DirectX::Colors::DarkSalmon
	DD	03f169697r			; 0.588235
	DD	03ef4f4f6r			; 0.478431
	DD	03f800000r			; 1
CONST	ENDS
;	COMDAT ?DarkRed@Colors@DirectX@@3UXMVECTORF32@2@B
CONST	SEGMENT
?DarkRed@Colors@DirectX@@3UXMVECTORF32@2@B DD 03f0b8b8cr ; 0.545098 ; DirectX::Colors::DarkRed
	DD	000000000r			; 0
	DD	000000000r			; 0
	DD	03f800000r			; 1
CONST	ENDS
;	COMDAT ?g_XMAddByte4@DirectX@@3UXMVECTORF32@1@B
CONST	SEGMENT
?g_XMAddByte4@DirectX@@3UXMVECTORF32@1@B DD 0c3000000r ; -128 ; DirectX::g_XMAddByte4
	DD	0c7000000r			; -32768
	DD	0cb000000r			; -8.38861e+006
	DD	000000000r			; 0
CONST	ENDS
;	COMDAT ?has_quiet_NaN@_Num_base@std@@2_NB
CONST	SEGMENT
?has_quiet_NaN@_Num_base@std@@2_NB DB 00H		; std::_Num_base::has_quiet_NaN
CONST	ENDS
;	COMDAT ?DarkOrchid@Colors@DirectX@@3UXMVECTORF32@2@B
CONST	SEGMENT
?DarkOrchid@Colors@DirectX@@3UXMVECTORF32@2@B DD 03f19999ar ; 0.6 ; DirectX::Colors::DarkOrchid
	DD	03e48c8car			; 0.196078
	DD	03f4ccccer			; 0.8
	DD	03f800000r			; 1
CONST	ENDS
;	COMDAT ?g_XMXorByte4@DirectX@@3UXMVECTORI32@1@B
CONST	SEGMENT
?g_XMXorByte4@DirectX@@3UXMVECTORI32@1@B DD 080H	; DirectX::g_XMXorByte4
	DD	08000H
	DD	0800000H
	DD	00H
CONST	ENDS
;	COMDAT ?DarkOrange@Colors@DirectX@@3UXMVECTORF32@2@B
CONST	SEGMENT
?DarkOrange@Colors@DirectX@@3UXMVECTORF32@2@B DD 03f800000r ; 1 ; DirectX::Colors::DarkOrange
	DD	03f0c8c8dr			; 0.54902
	DD	000000000r			; 0
	DD	03f800000r			; 1
CONST	ENDS
;	COMDAT ?g_XMMaskByte4@DirectX@@3UXMVECTORI32@1@B
CONST	SEGMENT
?g_XMMaskByte4@DirectX@@3UXMVECTORI32@1@B DD 0ffH	; DirectX::g_XMMaskByte4
	DD	0ff00H
	DD	0ff0000H
	DD	0ff000000H
CONST	ENDS
;	COMDAT _IID_ID3D11FunctionLinkingGraph
CONST	SEGMENT
_IID_ID3D11FunctionLinkingGraph DD 054133220H
	DW	01ce8H
	DW	043d3H
	DB	082H
	DB	036H
	DB	098H
	DB	055H
	DB	0c5H
	DB	0ceH
	DB	0ecH
	DB	0ffH
CONST	ENDS
;	COMDAT ?g_XMMulDec4@DirectX@@3UXMVECTORF32@1@B
CONST	SEGMENT
?g_XMMulDec4@DirectX@@3UXMVECTORF32@1@B DD 03f800000r ; 1 ; DirectX::g_XMMulDec4
	DD	03a800000r			; 0.000976563
	DD	035800000r			; 9.53674e-007
	DD	030800000r			; 9.31323e-010
CONST	ENDS
;	COMDAT ?DarkOliveGreen@Colors@DirectX@@3UXMVECTORF32@2@B
CONST	SEGMENT
?DarkOliveGreen@Colors@DirectX@@3UXMVECTORF32@2@B DD 03eaaaaabr ; 0.333333 ; DirectX::Colors::DarkOliveGreen
	DD	03ed6d6d8r			; 0.419608
	DD	03e3cbcbdr			; 0.184314
	DD	03f800000r			; 1
CONST	ENDS
;	COMDAT ?has_infinity@_Num_base@std@@2_NB
CONST	SEGMENT
?has_infinity@_Num_base@std@@2_NB DB 00H		; std::_Num_base::has_infinity
CONST	ENDS
;	COMDAT ?g_XMAddDec4@DirectX@@3UXMVECTORF32@1@B
CONST	SEGMENT
?g_XMAddDec4@DirectX@@3UXMVECTORF32@1@B DD 0c4000000r ; -512 ; DirectX::g_XMAddDec4
	DD	0c9000000r			; -524288
	DD	0ce000000r			; -5.36871e+008
	DD	000000000r			; 0
CONST	ENDS
;	COMDAT ?DarkMagenta@Colors@DirectX@@3UXMVECTORF32@2@B
CONST	SEGMENT
?DarkMagenta@Colors@DirectX@@3UXMVECTORF32@2@B DD 03f0b8b8cr ; 0.545098 ; DirectX::Colors::DarkMagenta
	DD	000000000r			; 0
	DD	03f0b8b8cr			; 0.545098
	DD	03f800000r			; 1
CONST	ENDS
;	COMDAT _IID_ID3D10ShaderReflection1
CONST	SEGMENT
_IID_ID3D10ShaderReflection1 DD 0c3457783H
	DW	0a846H
	DW	047ceH
	DB	095H
	DB	020H
	DB	0ceH
	DB	0a6H
	DB	0f6H
	DB	06eH
	DB	074H
	DB	047H
CONST	ENDS
;	COMDAT ?DarkKhaki@Colors@DirectX@@3UXMVECTORF32@2@B
CONST	SEGMENT
?DarkKhaki@Colors@DirectX@@3UXMVECTORF32@2@B DD 03f3dbdber ; 0.741176 ; DirectX::Colors::DarkKhaki
	DD	03f37b7b8r			; 0.717647
	DD	03ed6d6d8r			; 0.419608
	DD	03f800000r			; 1
CONST	ENDS
;	COMDAT ?g_XMAddUDec4@DirectX@@3UXMVECTORF32@1@B
CONST	SEGMENT
?g_XMAddUDec4@DirectX@@3UXMVECTORF32@1@B DD 000000000r ; 0 ; DirectX::g_XMAddUDec4
	DD	000000000r			; 0
	DD	000000000r			; 0
	DD	04f000000r			; 2.14748e+009
CONST	ENDS
;	COMDAT ?DarkGreen@Colors@DirectX@@3UXMVECTORF32@2@B
CONST	SEGMENT
?DarkGreen@Colors@DirectX@@3UXMVECTORF32@2@B DD 000000000r ; 0 ; DirectX::Colors::DarkGreen
	DD	03ec8c8car			; 0.392157
	DD	000000000r			; 0
	DD	03f800000r			; 1
CONST	ENDS
;	COMDAT ?g_XMXorDec4@DirectX@@3UXMVECTORI32@1@B
CONST	SEGMENT
?g_XMXorDec4@DirectX@@3UXMVECTORI32@1@B DD 0200H	; DirectX::g_XMXorDec4
	DD	080000H
	DD	020000000H
	DD	00H
CONST	ENDS
;	COMDAT ?has_denorm_loss@_Num_base@std@@2_NB
CONST	SEGMENT
?has_denorm_loss@_Num_base@std@@2_NB DB 00H		; std::_Num_base::has_denorm_loss
CONST	ENDS
;	COMDAT ?DarkGray@Colors@DirectX@@3UXMVECTORF32@2@B
CONST	SEGMENT
?DarkGray@Colors@DirectX@@3UXMVECTORF32@2@B DD 03f29a9aar ; 0.662745 ; DirectX::Colors::DarkGray
	DD	03f29a9aar			; 0.662745
	DD	03f29a9aar			; 0.662745
	DD	03f800000r			; 1
CONST	ENDS
;	COMDAT ?g_XMMaskDec4@DirectX@@3UXMVECTORI32@1@B
CONST	SEGMENT
?g_XMMaskDec4@DirectX@@3UXMVECTORI32@1@B DD 03ffH	; DirectX::g_XMMaskDec4
	DD	0ffc00H
	DD	03ff00000H
	DD	0c0000000H
CONST	ENDS
;	COMDAT ?DarkGoldenrod@Colors@DirectX@@3UXMVECTORF32@2@B
CONST	SEGMENT
?DarkGoldenrod@Colors@DirectX@@3UXMVECTORF32@2@B DD 03f38b8b9r ; 0.721569 ; DirectX::Colors::DarkGoldenrod
	DD	03f068687r			; 0.52549
	DD	03d30b0b1r			; 0.0431373
	DD	03f800000r			; 1
CONST	ENDS
;	COMDAT ?g_XMFlipYW@DirectX@@3UXMVECTORI32@1@B
CONST	SEGMENT
?g_XMFlipYW@DirectX@@3UXMVECTORI32@1@B DD 00H		; DirectX::g_XMFlipYW
	DD	080000000H
	DD	00H
	DD	080000000H
CONST	ENDS
;	COMDAT ?DarkCyan@Colors@DirectX@@3UXMVECTORF32@2@B
CONST	SEGMENT
?DarkCyan@Colors@DirectX@@3UXMVECTORF32@2@B DD 000000000r ; 0 ; DirectX::Colors::DarkCyan
	DD	03f0b8b8cr			; 0.545098
	DD	03f0b8b8cr			; 0.545098
	DD	03f800000r			; 1
CONST	ENDS
;	COMDAT ?g_XMFlipZW@DirectX@@3UXMVECTORI32@1@B
CONST	SEGMENT
?g_XMFlipZW@DirectX@@3UXMVECTORI32@1@B DD 00H		; DirectX::g_XMFlipZW
	DD	00H
	DD	080000000H
	DD	080000000H
CONST	ENDS
;	COMDAT ?has_denorm@_Num_base@std@@2W4float_denorm_style@2@B
CONST	SEGMENT
?has_denorm@_Num_base@std@@2W4float_denorm_style@2@B DD 00H ; std::_Num_base::has_denorm
CONST	ENDS
;	COMDAT ?DarkBlue@Colors@DirectX@@3UXMVECTORF32@2@B
CONST	SEGMENT
?DarkBlue@Colors@DirectX@@3UXMVECTORF32@2@B DD 000000000r ; 0 ; DirectX::Colors::DarkBlue
	DD	000000000r			; 0
	DD	03f0b8b8cr			; 0.545098
	DD	03f800000r			; 1
CONST	ENDS
;	COMDAT ?g_XMFlipYZ@DirectX@@3UXMVECTORI32@1@B
CONST	SEGMENT
?g_XMFlipYZ@DirectX@@3UXMVECTORI32@1@B DD 00H		; DirectX::g_XMFlipYZ
	DD	080000000H
	DD	080000000H
	DD	00H
CONST	ENDS
;	COMDAT _IID_ID3D10EffectDepthStencilViewVariable
CONST	SEGMENT
_IID_ID3D10EffectDepthStencilViewVariable DD 03e02c918H
	DW	0cc79H
	DW	04985H
	DB	0b6H
	DB	022H
	DB	02dH
	DB	092H
	DB	0adH
	DB	070H
	DB	016H
	DB	023H
CONST	ENDS
;	COMDAT ?Cyan@Colors@DirectX@@3UXMVECTORF32@2@B
CONST	SEGMENT
?Cyan@Colors@DirectX@@3UXMVECTORF32@2@B DD 000000000r ; 0 ; DirectX::Colors::Cyan
	DD	03f800000r			; 1
	DD	03f800000r			; 1
	DD	03f800000r			; 1
CONST	ENDS
;	COMDAT ?g_XMFlipW@DirectX@@3UXMVECTORI32@1@B
CONST	SEGMENT
?g_XMFlipW@DirectX@@3UXMVECTORI32@1@B DD 00H		; DirectX::g_XMFlipW
	DD	00H
	DD	00H
	DD	080000000H
CONST	ENDS
;	COMDAT ?Crimson@Colors@DirectX@@3UXMVECTORF32@2@B
CONST	SEGMENT
?Crimson@Colors@DirectX@@3UXMVECTORF32@2@B DD 03f5cdcder ; 0.862745 ; DirectX::Colors::Crimson
	DD	03da0a0a1r			; 0.0784314
	DD	03e70f0f2r			; 0.235294
	DD	03f800000r			; 1
CONST	ENDS
;	COMDAT ?g_XMFlipZ@DirectX@@3UXMVECTORI32@1@B
CONST	SEGMENT
?g_XMFlipZ@DirectX@@3UXMVECTORI32@1@B DD 00H		; DirectX::g_XMFlipZ
	DD	00H
	DD	080000000H
	DD	00H
CONST	ENDS
;	COMDAT ?Cornsilk@Colors@DirectX@@3UXMVECTORF32@2@B
CONST	SEGMENT
?Cornsilk@Colors@DirectX@@3UXMVECTORF32@2@B DD 03f800000r ; 1 ; DirectX::Colors::Cornsilk
	DD	03f78f8far			; 0.972549
	DD	03f5cdcder			; 0.862745
	DD	03f800000r			; 1
CONST	ENDS
;	COMDAT ?g_XMFlipY@DirectX@@3UXMVECTORI32@1@B
CONST	SEGMENT
?g_XMFlipY@DirectX@@3UXMVECTORI32@1@B DD 00H		; DirectX::g_XMFlipY
	DD	080000000H
	DD	00H
	DD	00H
CONST	ENDS
;	COMDAT ?CornflowerBlue@Colors@DirectX@@3UXMVECTORF32@2@B
CONST	SEGMENT
?CornflowerBlue@Colors@DirectX@@3UXMVECTORF32@2@B DD 03ec8c8car ; 0.392157 ; DirectX::Colors::CornflowerBlue
	DD	03f159596r			; 0.584314
	DD	03f6dedefr			; 0.929412
	DD	03f800000r			; 1
CONST	ENDS
;	COMDAT ?g_XMFixupY16W16@DirectX@@3UXMVECTORF32@1@B
CONST	SEGMENT
?g_XMFixupY16W16@DirectX@@3UXMVECTORF32@1@B DD 03f800000r ; 1 ; DirectX::g_XMFixupY16W16
	DD	03f800000r			; 1
	DD	037800000r			; 1.52588e-005
	DD	037800000r			; 1.52588e-005
CONST	ENDS
;	COMDAT ?g_XMFixupY16@DirectX@@3UXMVECTORF32@1@B
CONST	SEGMENT
?g_XMFixupY16@DirectX@@3UXMVECTORF32@1@B DD 03f800000r ; 1 ; DirectX::g_XMFixupY16
	DD	037800000r			; 1.52588e-005
	DD	000000000r			; 0
	DD	000000000r			; 0
CONST	ENDS
;	COMDAT ?Coral@Colors@DirectX@@3UXMVECTORF32@2@B
CONST	SEGMENT
?Coral@Colors@DirectX@@3UXMVECTORF32@2@B DD 03f800000r ; 1 ; DirectX::Colors::Coral
	DD	03efeff00r			; 0.498039
	DD	03ea0a0a1r			; 0.313726
	DD	03f800000r			; 1
CONST	ENDS
;	COMDAT ?Chocolate@Colors@DirectX@@3UXMVECTORF32@2@B
CONST	SEGMENT
?Chocolate@Colors@DirectX@@3UXMVECTORF32@2@B DD 03f52d2d4r ; 0.823529 ; DirectX::Colors::Chocolate
	DD	03ed2d2d4r			; 0.411765
	DD	03df0f0f2r			; 0.117647
	DD	03f800000r			; 1
CONST	ENDS
;	COMDAT ?g_XMSelect1011@DirectX@@3UXMVECTORI32@1@B
CONST	SEGMENT
?g_XMSelect1011@DirectX@@3UXMVECTORI32@1@B DD 0ffffffffH ; DirectX::g_XMSelect1011
	DD	00H
	DD	0ffffffffH
	DD	0ffffffffH
CONST	ENDS
;	COMDAT ?g_XMSelect1110@DirectX@@3UXMVECTORI32@1@B
CONST	SEGMENT
?g_XMSelect1110@DirectX@@3UXMVECTORI32@1@B DD 0ffffffffH ; DirectX::g_XMSelect1110
	DD	0ffffffffH
	DD	0ffffffffH
	DD	00H
CONST	ENDS
;	COMDAT ?Chartreuse@Colors@DirectX@@3UXMVECTORF32@2@B
CONST	SEGMENT
?Chartreuse@Colors@DirectX@@3UXMVECTORF32@2@B DD 03efeff00r ; 0.498039 ; DirectX::Colors::Chartreuse
	DD	03f800000r			; 1
	DD	000000000r			; 0
	DD	03f800000r			; 1
CONST	ENDS
;	COMDAT ?CadetBlue@Colors@DirectX@@3UXMVECTORF32@2@B
CONST	SEGMENT
?CadetBlue@Colors@DirectX@@3UXMVECTORF32@2@B DD 03ebebebfr ; 0.372549 ; DirectX::Colors::CadetBlue
	DD	03f1e9e9fr			; 0.619608
	DD	03f20a0a1r			; 0.627451
	DD	03f800000r			; 1
CONST	ENDS
;	COMDAT ?g_XMSelect1100@DirectX@@3UXMVECTORI32@1@B
CONST	SEGMENT
?g_XMSelect1100@DirectX@@3UXMVECTORI32@1@B DD 0ffffffffH ; DirectX::g_XMSelect1100
	DD	0ffffffffH
	DD	00H
	DD	00H
CONST	ENDS
;	COMDAT ?BurlyWood@Colors@DirectX@@3UXMVECTORF32@2@B
CONST	SEGMENT
?BurlyWood@Colors@DirectX@@3UXMVECTORF32@2@B DD 03f5edee0r ; 0.870588 ; DirectX::Colors::BurlyWood
	DD	03f38b8b9r			; 0.721569
	DD	03f078788r			; 0.529412
	DD	03f800000r			; 1
CONST	ENDS
;	COMDAT ?g_XMSelect1000@DirectX@@3UXMVECTORI32@1@B
CONST	SEGMENT
?g_XMSelect1000@DirectX@@3UXMVECTORI32@1@B DD 0ffffffffH ; DirectX::g_XMSelect1000
	DD	00H
	DD	00H
	DD	00H
CONST	ENDS
;	COMDAT _IID_ID3D11LinkingNode
CONST	SEGMENT
_IID_ID3D11LinkingNode DD 0d80dd70cH
	DW	08d2fH
	DW	04751H
	DB	094H
	DB	0a1H
	DB	03H
	DB	0c7H
	DB	09bH
	DB	035H
	DB	056H
	DB	0dbH
CONST	ENDS
;	COMDAT ?Brown@Colors@DirectX@@3UXMVECTORF32@2@B
CONST	SEGMENT
?Brown@Colors@DirectX@@3UXMVECTORF32@2@B DD 03f25a5a6r ; 0.647059 ; DirectX::Colors::Brown
	DD	03e28a8a9r			; 0.164706
	DD	03e28a8a9r			; 0.164706
	DD	03f800000r			; 1
CONST	ENDS
;	COMDAT ?g_XMOneHalfMinusEpsilon@DirectX@@3UXMVECTORI32@1@B
CONST	SEGMENT
?g_XMOneHalfMinusEpsilon@DirectX@@3UXMVECTORI32@1@B DD 03efffffdH ; DirectX::g_XMOneHalfMinusEpsilon
	DD	03efffffdH
	DD	03efffffdH
	DD	03efffffdH
CONST	ENDS
;	COMDAT ?g_XMSelect1010@DirectX@@3UXMVECTORI32@1@B
CONST	SEGMENT
?g_XMSelect1010@DirectX@@3UXMVECTORI32@1@B DD 0ffffffffH ; DirectX::g_XMSelect1010
	DD	00H
	DD	0ffffffffH
	DD	00H
CONST	ENDS
;	COMDAT ?BlueViolet@Colors@DirectX@@3UXMVECTORF32@2@B
CONST	SEGMENT
?BlueViolet@Colors@DirectX@@3UXMVECTORF32@2@B DD 03f0a8a8br ; 0.541176 ; DirectX::Colors::BlueViolet
	DD	03e2cacadr			; 0.168627
	DD	03f62e2e4r			; 0.886275
	DD	03f800000r			; 1
CONST	ENDS
;	COMDAT ?Blue@Colors@DirectX@@3UXMVECTORF32@2@B
CONST	SEGMENT
?Blue@Colors@DirectX@@3UXMVECTORF32@2@B DD 000000000r ; 0 ; DirectX::Colors::Blue
	DD	000000000r			; 0
	DD	03f800000r			; 1
	DD	03f800000r			; 1
CONST	ENDS
;	COMDAT ?g_XMSelect0101@DirectX@@3UXMVECTORI32@1@B
CONST	SEGMENT
?g_XMSelect0101@DirectX@@3UXMVECTORI32@1@B DD 00H	; DirectX::g_XMSelect0101
	DD	0ffffffffH
	DD	00H
	DD	0ffffffffH
CONST	ENDS
;	COMDAT ?BlanchedAlmond@Colors@DirectX@@3UXMVECTORF32@2@B
CONST	SEGMENT
?BlanchedAlmond@Colors@DirectX@@3UXMVECTORF32@2@B DD 03f800000r ; 1 ; DirectX::Colors::BlanchedAlmond
	DD	03f6bebedr			; 0.921569
	DD	03f4dcdcfr			; 0.803922
	DD	03f800000r			; 1
CONST	ENDS
;	COMDAT ?g_XMNegateW@DirectX@@3UXMVECTORF32@1@B
CONST	SEGMENT
?g_XMNegateW@DirectX@@3UXMVECTORF32@1@B DD 03f800000r ; 1 ; DirectX::g_XMNegateW
	DD	03f800000r			; 1
	DD	03f800000r			; 1
	DD	0bf800000r			; -1
CONST	ENDS
;	COMDAT ?Black@Colors@DirectX@@3UXMVECTORF32@2@B
CONST	SEGMENT
?Black@Colors@DirectX@@3UXMVECTORF32@2@B DD 000000000r ; 0 ; DirectX::Colors::Black
	DD	000000000r			; 0
	DD	000000000r			; 0
	DD	03f800000r			; 1
CONST	ENDS
;	COMDAT ?g_XMNegateZ@DirectX@@3UXMVECTORF32@1@B
CONST	SEGMENT
?g_XMNegateZ@DirectX@@3UXMVECTORF32@1@B DD 03f800000r ; 1 ; DirectX::g_XMNegateZ
	DD	03f800000r			; 1
	DD	0bf800000r			; -1
	DD	03f800000r			; 1
CONST	ENDS
;	COMDAT ?Bisque@Colors@DirectX@@3UXMVECTORF32@2@B
CONST	SEGMENT
?Bisque@Colors@DirectX@@3UXMVECTORF32@2@B DD 03f800000r ; 1 ; DirectX::Colors::Bisque
	DD	03f64e4e6r			; 0.894118
	DD	03f44c4c6r			; 0.768628
	DD	03f800000r			; 1
CONST	ENDS
;	COMDAT ?g_XMNegateY@DirectX@@3UXMVECTORF32@1@B
CONST	SEGMENT
?g_XMNegateY@DirectX@@3UXMVECTORF32@1@B DD 03f800000r ; 1 ; DirectX::g_XMNegateY
	DD	0bf800000r			; -1
	DD	03f800000r			; 1
	DD	03f800000r			; 1
CONST	ENDS
;	COMDAT ?Beige@Colors@DirectX@@3UXMVECTORF32@2@B
CONST	SEGMENT
?Beige@Colors@DirectX@@3UXMVECTORF32@2@B DD 03f75f5f7r ; 0.960784 ; DirectX::Colors::Beige
	DD	03f75f5f7r			; 0.960784
	DD	03f5cdcder			; 0.862745
	DD	03f800000r			; 1
CONST	ENDS
;	COMDAT ?g_XMNegateX@DirectX@@3UXMVECTORF32@1@B
CONST	SEGMENT
?g_XMNegateX@DirectX@@3UXMVECTORF32@1@B DD 0bf800000r ; -1 ; DirectX::g_XMNegateX
	DD	03f800000r			; 1
	DD	03f800000r			; 1
	DD	03f800000r			; 1
CONST	ENDS
;	COMDAT ?Azure@Colors@DirectX@@3UXMVECTORF32@2@B
CONST	SEGMENT
?Azure@Colors@DirectX@@3UXMVECTORF32@2@B DD 03f70f0f2r ; 0.941177 ; DirectX::Colors::Azure
	DD	03f800000r			; 1
	DD	03f800000r			; 1
	DD	03f800000r			; 1
CONST	ENDS
;	COMDAT ?g_XMMaskByte@DirectX@@3UXMVECTORI32@1@B
CONST	SEGMENT
?g_XMMaskByte@DirectX@@3UXMVECTORI32@1@B DD 0ffH	; DirectX::g_XMMaskByte
	DD	0ffH
	DD	0ffH
	DD	0ffH
CONST	ENDS
;	COMDAT ?Aquamarine@Colors@DirectX@@3UXMVECTORF32@2@B
CONST	SEGMENT
?Aquamarine@Colors@DirectX@@3UXMVECTORF32@2@B DD 03efeff00r ; 0.498039 ; DirectX::Colors::Aquamarine
	DD	03f800000r			; 1
	DD	03f54d4d6r			; 0.831373
	DD	03f800000r			; 1
CONST	ENDS
;	COMDAT ?g_XMNoFraction@DirectX@@3UXMVECTORF32@1@B
CONST	SEGMENT
?g_XMNoFraction@DirectX@@3UXMVECTORF32@1@B DD 04b000000r ; 8.38861e+006 ; DirectX::g_XMNoFraction
	DD	04b000000r			; 8.38861e+006
	DD	04b000000r			; 8.38861e+006
	DD	04b000000r			; 8.38861e+006
CONST	ENDS
;	COMDAT ?Aqua@Colors@DirectX@@3UXMVECTORF32@2@B
CONST	SEGMENT
?Aqua@Colors@DirectX@@3UXMVECTORF32@2@B DD 000000000r ; 0 ; DirectX::Colors::Aqua
	DD	03f800000r			; 1
	DD	03f800000r			; 1
	DD	03f800000r			; 1
CONST	ENDS
;	COMDAT ?g_XMNormalizeX16Y16Z16W16@DirectX@@3UXMVECTORF32@1@B
CONST	SEGMENT
?g_XMNormalizeX16Y16Z16W16@DirectX@@3UXMVECTORF32@1@B DD 038000100r ; 3.05185e-005 ; DirectX::g_XMNormalizeX16Y16Z16W16
	DD	038000100r			; 3.05185e-005
	DD	030000100r			; 4.65675e-010
	DD	030000100r			; 4.65675e-010
CONST	ENDS
;	COMDAT ?AntiqueWhite@Colors@DirectX@@3UXMVECTORF32@2@B
CONST	SEGMENT
?AntiqueWhite@Colors@DirectX@@3UXMVECTORF32@2@B DD 03f7afafcr ; 0.980392 ; DirectX::Colors::AntiqueWhite
	DD	03f6bebedr			; 0.921569
	DD	03f57d7d9r			; 0.843137
	DD	03f800000r			; 1
CONST	ENDS
;	COMDAT ?g_XMFixX16Y16Z16W16@DirectX@@3UXMVECTORF32@1@B
CONST	SEGMENT
?g_XMFixX16Y16Z16W16@DirectX@@3UXMVECTORF32@1@B DD 0c7000000r ; -32768 ; DirectX::g_XMFixX16Y16Z16W16
	DD	0c7000000r			; -32768
	DD	000000000r			; 0
	DD	000000000r			; 0
CONST	ENDS
;	COMDAT ?AliceBlue@Colors@DirectX@@3UXMVECTORF32@2@B
CONST	SEGMENT
?AliceBlue@Colors@DirectX@@3UXMVECTORF32@2@B DD 03f70f0f2r ; 0.941177 ; DirectX::Colors::AliceBlue
	DD	03f78f8far			; 0.972549
	DD	03f800000r			; 1
	DD	03f800000r			; 1
CONST	ENDS
;	COMDAT ?g_XMFlipX16Y16Z16W16@DirectX@@3UXMVECTORI32@1@B
CONST	SEGMENT
?g_XMFlipX16Y16Z16W16@DirectX@@3UXMVECTORI32@1@B DD 08000H ; DirectX::g_XMFlipX16Y16Z16W16
	DD	08000H
	DD	00H
	DD	00H
CONST	ENDS
;	COMDAT _IID_ID3D11Predicate
CONST	SEGMENT
_IID_ID3D11Predicate DD 09eb576ddH
	DW	09f77H
	DW	04d86H
	DB	081H
	DB	0aaH
	DB	08bH
	DB	0abH
	DB	05fH
	DB	0e4H
	DB	090H
	DB	0e2H
CONST	ENDS
;	COMDAT ?g_XMMaskX16Y16Z16W16@DirectX@@3UXMVECTORI32@1@B
CONST	SEGMENT
?g_XMMaskX16Y16Z16W16@DirectX@@3UXMVECTORI32@1@B DD 0ffffH ; DirectX::g_XMMaskX16Y16Z16W16
	DD	0ffffH
	DD	0ffff0000H
	DD	0ffff0000H
CONST	ENDS
;	COMDAT _D3D11_CRYPTO_TYPE_AES128_CTR
CONST	SEGMENT
_D3D11_CRYPTO_TYPE_AES128_CTR DD 09b6bd711H
	DW	04f74H
	DW	041c9H
	DB	09eH
	DB	07bH
	DB	0bH
	DB	0e2H
	DB	0d7H
	DB	0d9H
	DB	03bH
	DB	04fH
CONST	ENDS
;	COMDAT ?g_XMNormalizeX16Y16@DirectX@@3UXMVECTORF32@1@B
CONST	SEGMENT
?g_XMNormalizeX16Y16@DirectX@@3UXMVECTORF32@1@B DD 038000100r ; 3.05185e-005 ; DirectX::g_XMNormalizeX16Y16
	DD	030000100r			; 4.65675e-010
	DD	000000000r			; 0
	DD	000000000r			; 0
CONST	ENDS
;	COMDAT ?g_XMFixX16Y16@DirectX@@3UXMVECTORF32@1@B
CONST	SEGMENT
?g_XMFixX16Y16@DirectX@@3UXMVECTORF32@1@B DD 0c7000000r ; -32768 ; DirectX::g_XMFixX16Y16
	DD	000000000r			; 0
	DD	000000000r			; 0
	DD	000000000r			; 0
CONST	ENDS
;	COMDAT _IID_ID3D10Resource
CONST	SEGMENT
_IID_ID3D10Resource DD 09b7e4c01H
	DW	0342cH
	DW	04106H
	DB	0a1H
	DB	09fH
	DB	04fH
	DB	027H
	DB	04H
	DB	0f6H
	DB	089H
	DB	0f0H
CONST	ENDS
;	COMDAT ?g_XMFlipX16Y16@DirectX@@3UXMVECTORI32@1@B
CONST	SEGMENT
?g_XMFlipX16Y16@DirectX@@3UXMVECTORI32@1@B DD 08000H	; DirectX::g_XMFlipX16Y16
	DD	00H
	DD	00H
	DD	00H
CONST	ENDS
;	COMDAT ?g_XMMaskX16Y16@DirectX@@3UXMVECTORI32@1@B
CONST	SEGMENT
?g_XMMaskX16Y16@DirectX@@3UXMVECTORI32@1@B DD 0ffffH	; DirectX::g_XMMaskX16Y16
	DD	0ffff0000H
	DD	00H
	DD	00H
CONST	ENDS
;	COMDAT ?g_XMNormalizeA2B10G10R10@DirectX@@3UXMVECTORF32@1@B
CONST	SEGMENT
?g_XMNormalizeA2B10G10R10@DirectX@@3UXMVECTORF32@1@B DD 03b004020r ; 0.00195695 ; DirectX::g_XMNormalizeA2B10G10R10
	DD	036004020r			; 1.91108e-006
	DD	031004020r			; 1.86629e-009
	DD	02faaaaabr			; 3.10441e-010
CONST	ENDS
;	COMDAT _IID_ID3D11Query
CONST	SEGMENT
_IID_ID3D11Query DD 0d6c00747H
	DW	087b7H
	DW	0425eH
	DB	0b8H
	DB	04dH
	DB	044H
	DB	0d1H
	DB	08H
	DB	056H
	DB	0aH
	DB	0fdH
CONST	ENDS
;	COMDAT _GUID_DeviceType
CONST	SEGMENT
_GUID_DeviceType DD 0d722fb4dH
	DW	07a68H
	DW	0437aH
	DB	0b2H
	DB	0cH
	DB	058H
	DB	04H
	DB	0eeH
	DB	024H
	DB	094H
	DB	0a6H
CONST	ENDS
;	COMDAT ?g_XMFixAA2B10G10R10@DirectX@@3UXMVECTORF32@1@B
CONST	SEGMENT
?g_XMFixAA2B10G10R10@DirectX@@3UXMVECTORF32@1@B DD 0c4000000r ; -512 ; DirectX::g_XMFixAA2B10G10R10
	DD	0c9000000r			; -524288
	DD	0ce000000r			; -5.36871e+008
	DD	04f000000r			; 2.14748e+009
CONST	ENDS
;	COMDAT ?g_XMFlipA2B10G10R10@DirectX@@3UXMVECTORI32@1@B
CONST	SEGMENT
?g_XMFlipA2B10G10R10@DirectX@@3UXMVECTORI32@1@B DD 0200H ; DirectX::g_XMFlipA2B10G10R10
	DD	080000H
	DD	020000000H
	DD	080000000H
CONST	ENDS
;	COMDAT ?g_XMMaskA2B10G10R10@DirectX@@3UXMVECTORI32@1@B
CONST	SEGMENT
?g_XMMaskA2B10G10R10@DirectX@@3UXMVECTORI32@1@B DD 03ffH ; DirectX::g_XMMaskA2B10G10R10
	DD	0ffc00H
	DD	03ff00000H
	DD	0c0000000H
CONST	ENDS
;	COMDAT _IID_ID3D11VideoDevice
CONST	SEGMENT
_IID_ID3D11VideoDevice DD 010ec4d5bH
	DW	0975aH
	DW	04689H
	DB	0b9H
	DB	0e4H
	DB	0d0H
	DB	0aaH
	DB	0c3H
	DB	0fH
	DB	0e3H
	DB	033H
CONST	ENDS
;	COMDAT _IID_ID3D11Linker
CONST	SEGMENT
_IID_ID3D11Linker DD 059a6cd0eH
	DW	0e10dH
	DW	04c1fH
	DB	088H
	DB	0c0H
	DB	063H
	DB	0abH
	DB	0a1H
	DB	0daH
	DB	0f3H
	DB	0eH
CONST	ENDS
;	COMDAT ?g_XMNormalizeA8R8G8B8@DirectX@@3UXMVECTORF32@1@B
CONST	SEGMENT
?g_XMNormalizeA8R8G8B8@DirectX@@3UXMVECTORF32@1@B DD 033808081r ; 5.98384e-008 ; DirectX::g_XMNormalizeA8R8G8B8
	DD	037808081r			; 1.53186e-005
	DD	03b808081r			; 0.00392157
	DD	02f808081r			; 2.33744e-010
CONST	ENDS
;	COMDAT ?g_XMFixAA8R8G8B8@DirectX@@3UXMVECTORF32@1@B
CONST	SEGMENT
?g_XMFixAA8R8G8B8@DirectX@@3UXMVECTORF32@1@B DD 000000000r ; 0 ; DirectX::g_XMFixAA8R8G8B8
	DD	000000000r			; 0
	DD	000000000r			; 0
	DD	04f000000r			; 2.14748e+009
CONST	ENDS
;	COMDAT _IID_ID3D11ShaderResourceView
CONST	SEGMENT
_IID_ID3D11ShaderResourceView DD 0b0e06fe0H
	DW	08192H
	DW	04e1aH
	DB	0b1H
	DB	0caH
	DB	036H
	DB	0d7H
	DB	041H
	DB	047H
	DB	010H
	DB	0b2H
CONST	ENDS
;	COMDAT ?g_XMFlipA8R8G8B8@DirectX@@3UXMVECTORI32@1@B
CONST	SEGMENT
?g_XMFlipA8R8G8B8@DirectX@@3UXMVECTORI32@1@B DD 00H	; DirectX::g_XMFlipA8R8G8B8
	DD	00H
	DD	00H
	DD	080000000H
CONST	ENDS
;	COMDAT ?g_XMMaskA8R8G8B8@DirectX@@3UXMVECTORI32@1@B
CONST	SEGMENT
?g_XMMaskA8R8G8B8@DirectX@@3UXMVECTORI32@1@B DD 0ff0000H ; DirectX::g_XMMaskA8R8G8B8
	DD	0ff00H
	DD	0ffH
	DD	0ff000000H
CONST	ENDS
;	COMDAT ?g_XMNegOneMask@DirectX@@3UXMVECTORI32@1@B
CONST	SEGMENT
?g_XMNegOneMask@DirectX@@3UXMVECTORI32@1@B DD 0ffffffffH ; DirectX::g_XMNegOneMask
	DD	0ffffffffH
	DD	0ffffffffH
	DD	0ffffffffH
CONST	ENDS
;	COMDAT ?g_XMFltMax@DirectX@@3UXMVECTORI32@1@B
CONST	SEGMENT
?g_XMFltMax@DirectX@@3UXMVECTORI32@1@B DD 07f7fffffH	; DirectX::g_XMFltMax
	DD	07f7fffffH
	DD	07f7fffffH
	DD	07f7fffffH
CONST	ENDS
;	COMDAT ?g_XMFltMin@DirectX@@3UXMVECTORI32@1@B
CONST	SEGMENT
?g_XMFltMin@DirectX@@3UXMVECTORI32@1@B DD 0800000H	; DirectX::g_XMFltMin
	DD	0800000H
	DD	0800000H
	DD	0800000H
CONST	ENDS
;	COMDAT ?g_XMAbsMask@DirectX@@3UXMVECTORI32@1@B
CONST	SEGMENT
?g_XMAbsMask@DirectX@@3UXMVECTORI32@1@B DD 07fffffffH	; DirectX::g_XMAbsMask
	DD	07fffffffH
	DD	07fffffffH
	DD	07fffffffH
CONST	ENDS
;	COMDAT ?g_XMQNaNTest@DirectX@@3UXMVECTORI32@1@B
CONST	SEGMENT
?g_XMQNaNTest@DirectX@@3UXMVECTORI32@1@B DD 07fffffH	; DirectX::g_XMQNaNTest
	DD	07fffffH
	DD	07fffffH
	DD	07fffffH
CONST	ENDS
;	COMDAT ?g_XMQNaN@DirectX@@3UXMVECTORI32@1@B
CONST	SEGMENT
?g_XMQNaN@DirectX@@3UXMVECTORI32@1@B DD 07fc00000H	; DirectX::g_XMQNaN
	DD	07fc00000H
	DD	07fc00000H
	DD	07fc00000H
CONST	ENDS
;	COMDAT ?g_XMInfinity@DirectX@@3UXMVECTORI32@1@B
CONST	SEGMENT
?g_XMInfinity@DirectX@@3UXMVECTORI32@1@B DD 07f800000H	; DirectX::g_XMInfinity
	DD	07f800000H
	DD	07f800000H
	DD	07f800000H
CONST	ENDS
;	COMDAT ?g_XMEpsilon@DirectX@@3UXMVECTORF32@1@B
CONST	SEGMENT
?g_XMEpsilon@DirectX@@3UXMVECTORF32@1@B DD 034000000r ; 1.19209e-007 ; DirectX::g_XMEpsilon
	DD	034000000r			; 1.19209e-007
	DD	034000000r			; 1.19209e-007
	DD	034000000r			; 1.19209e-007
CONST	ENDS
;	COMDAT _IID_ID3D10RasterizerState
CONST	SEGMENT
_IID_ID3D10RasterizerState DD 0a2a07292H
	DW	089afH
	DW	04345H
	DB	0beH
	DB	02eH
	DB	0c5H
	DB	03dH
	DB	09fH
	DB	0bbH
	DB	06eH
	DB	09fH
CONST	ENDS
;	COMDAT _GUID_WICPixelFormat16bppCbCr
CONST	SEGMENT
_GUID_WICPixelFormat16bppCbCr DD 0ff95ba6eH
	DW	011e0H
	DW	04263H
	DB	0bbH
	DB	045H
	DB	01H
	DB	072H
	DB	01fH
	DB	034H
	DB	060H
	DB	0a4H
CONST	ENDS
;	COMDAT _GUID_WICPixelFormat8bppCr
CONST	SEGMENT
_GUID_WICPixelFormat8bppCr DD 0b8145053H
	DW	02116H
	DW	049f0H
	DB	088H
	DB	035H
	DB	0edH
	DB	084H
	DB	04bH
	DB	020H
	DB	05cH
	DB	051H
CONST	ENDS
;	COMDAT _GUID_WICPixelFormat8bppCb
CONST	SEGMENT
_GUID_WICPixelFormat8bppCb DD 01339f224H
	DW	06bfeH
	DW	04c3eH
	DB	093H
	DB	02H
	DB	0e4H
	DB	0f3H
	DB	0a6H
	DB	0d0H
	DB	0caH
	DB	02aH
CONST	ENDS
;	COMDAT _GUID_WICPixelFormat8bppY
CONST	SEGMENT
_GUID_WICPixelFormat8bppY DD 091b4db54H
	DW	02df9H
	DW	042f0H
	DB	0b4H
	DB	049H
	DB	029H
	DB	09H
	DB	0bbH
	DB	03dH
	DB	0f8H
	DB	08eH
CONST	ENDS
;	COMDAT _GUID_WICPixelFormat144bpp8ChannelsAlpha
CONST	SEGMENT
_GUID_WICPixelFormat144bpp8ChannelsAlpha DD 06fddc324H
	DW	04e03H
	DW	04bfeH
	DB	0b1H
	DB	085H
	DB	03dH
	DB	077H
	DB	076H
	DB	08dH
	DB	0c9H
	DB	039H
CONST	ENDS
;	COMDAT _GUID_WICPixelFormat128bpp7ChannelsAlpha
CONST	SEGMENT
_GUID_WICPixelFormat128bpp7ChannelsAlpha DD 06fddc324H
	DW	04e03H
	DW	04bfeH
	DB	0b1H
	DB	085H
	DB	03dH
	DB	077H
	DB	076H
	DB	08dH
	DB	0c9H
	DB	038H
CONST	ENDS
;	COMDAT _GUID_WICPixelFormat112bpp6ChannelsAlpha
CONST	SEGMENT
_GUID_WICPixelFormat112bpp6ChannelsAlpha DD 06fddc324H
	DW	04e03H
	DW	04bfeH
	DB	0b1H
	DB	085H
	DB	03dH
	DB	077H
	DB	076H
	DB	08dH
	DB	0c9H
	DB	037H
CONST	ENDS
;	COMDAT _GUID_WICPixelFormat96bpp5ChannelsAlpha
CONST	SEGMENT
_GUID_WICPixelFormat96bpp5ChannelsAlpha DD 06fddc324H
	DW	04e03H
	DW	04bfeH
	DB	0b1H
	DB	085H
	DB	03dH
	DB	077H
	DB	076H
	DB	08dH
	DB	0c9H
	DB	036H
CONST	ENDS
;	COMDAT _GUID_WICPixelFormat80bpp4ChannelsAlpha
CONST	SEGMENT
_GUID_WICPixelFormat80bpp4ChannelsAlpha DD 06fddc324H
	DW	04e03H
	DW	04bfeH
	DB	0b1H
	DB	085H
	DB	03dH
	DB	077H
	DB	076H
	DB	08dH
	DB	0c9H
	DB	035H
CONST	ENDS
;	COMDAT _GUID_WICPixelFormat64bpp3ChannelsAlpha
CONST	SEGMENT
_GUID_WICPixelFormat64bpp3ChannelsAlpha DD 06fddc324H
	DW	04e03H
	DW	04bfeH
	DB	0b1H
	DB	085H
	DB	03dH
	DB	077H
	DB	076H
	DB	08dH
	DB	0c9H
	DB	034H
CONST	ENDS
;	COMDAT _GUID_WICPixelFormat72bpp8ChannelsAlpha
CONST	SEGMENT
_GUID_WICPixelFormat72bpp8ChannelsAlpha DD 06fddc324H
	DW	04e03H
	DW	04bfeH
	DB	0b1H
	DB	085H
	DB	03dH
	DB	077H
	DB	076H
	DB	08dH
	DB	0c9H
	DB	033H
CONST	ENDS
;	COMDAT _GUID_WICPixelFormat64bpp7ChannelsAlpha
CONST	SEGMENT
_GUID_WICPixelFormat64bpp7ChannelsAlpha DD 06fddc324H
	DW	04e03H
	DW	04bfeH
	DB	0b1H
	DB	085H
	DB	03dH
	DB	077H
	DB	076H
	DB	08dH
	DB	0c9H
	DB	032H
CONST	ENDS
;	COMDAT _GUID_WICPixelFormat56bpp6ChannelsAlpha
CONST	SEGMENT
_GUID_WICPixelFormat56bpp6ChannelsAlpha DD 06fddc324H
	DW	04e03H
	DW	04bfeH
	DB	0b1H
	DB	085H
	DB	03dH
	DB	077H
	DB	076H
	DB	08dH
	DB	0c9H
	DB	031H
CONST	ENDS
;	COMDAT _GUID_WICPixelFormat48bpp5ChannelsAlpha
CONST	SEGMENT
_GUID_WICPixelFormat48bpp5ChannelsAlpha DD 06fddc324H
	DW	04e03H
	DW	04bfeH
	DB	0b1H
	DB	085H
	DB	03dH
	DB	077H
	DB	076H
	DB	08dH
	DB	0c9H
	DB	030H
CONST	ENDS
;	COMDAT _GUID_WICPixelFormat40bpp4ChannelsAlpha
CONST	SEGMENT
_GUID_WICPixelFormat40bpp4ChannelsAlpha DD 06fddc324H
	DW	04e03H
	DW	04bfeH
	DB	0b1H
	DB	085H
	DB	03dH
	DB	077H
	DB	076H
	DB	08dH
	DB	0c9H
	DB	02fH
CONST	ENDS
;	COMDAT _GUID_WICPixelFormat32bpp3ChannelsAlpha
CONST	SEGMENT
_GUID_WICPixelFormat32bpp3ChannelsAlpha DD 06fddc324H
	DW	04e03H
	DW	04bfeH
	DB	0b1H
	DB	085H
	DB	03dH
	DB	077H
	DB	076H
	DB	08dH
	DB	0c9H
	DB	02eH
CONST	ENDS
;	COMDAT _GUID_WICPixelFormat80bppCMYKAlpha
CONST	SEGMENT
_GUID_WICPixelFormat80bppCMYKAlpha DD 06fddc324H
	DW	04e03H
	DW	04bfeH
	DB	0b1H
	DB	085H
	DB	03dH
	DB	077H
	DB	076H
	DB	08dH
	DB	0c9H
	DB	02dH
CONST	ENDS
;	COMDAT _GUID_WICPixelFormat40bppCMYKAlpha
CONST	SEGMENT
_GUID_WICPixelFormat40bppCMYKAlpha DD 06fddc324H
	DW	04e03H
	DW	04bfeH
	DB	0b1H
	DB	085H
	DB	03dH
	DB	077H
	DB	076H
	DB	08dH
	DB	0c9H
	DB	02cH
CONST	ENDS
;	COMDAT _GUID_WICPixelFormat128bpp8Channels
CONST	SEGMENT
_GUID_WICPixelFormat128bpp8Channels DD 06fddc324H
	DW	04e03H
	DW	04bfeH
	DB	0b1H
	DB	085H
	DB	03dH
	DB	077H
	DB	076H
	DB	08dH
	DB	0c9H
	DB	02bH
CONST	ENDS
;	COMDAT _GUID_WICPixelFormat112bpp7Channels
CONST	SEGMENT
_GUID_WICPixelFormat112bpp7Channels DD 06fddc324H
	DW	04e03H
	DW	04bfeH
	DB	0b1H
	DB	085H
	DB	03dH
	DB	077H
	DB	076H
	DB	08dH
	DB	0c9H
	DB	02aH
CONST	ENDS
;	COMDAT _GUID_WICPixelFormat96bpp6Channels
CONST	SEGMENT
_GUID_WICPixelFormat96bpp6Channels DD 06fddc324H
	DW	04e03H
	DW	04bfeH
	DB	0b1H
	DB	085H
	DB	03dH
	DB	077H
	DB	076H
	DB	08dH
	DB	0c9H
	DB	029H
CONST	ENDS
;	COMDAT _GUID_WICPixelFormat80bpp5Channels
CONST	SEGMENT
_GUID_WICPixelFormat80bpp5Channels DD 06fddc324H
	DW	04e03H
	DW	04bfeH
	DB	0b1H
	DB	085H
	DB	03dH
	DB	077H
	DB	076H
	DB	08dH
	DB	0c9H
	DB	028H
CONST	ENDS
;	COMDAT _GUID_WICPixelFormat64bpp4Channels
CONST	SEGMENT
_GUID_WICPixelFormat64bpp4Channels DD 06fddc324H
	DW	04e03H
	DW	04bfeH
	DB	0b1H
	DB	085H
	DB	03dH
	DB	077H
	DB	076H
	DB	08dH
	DB	0c9H
	DB	027H
CONST	ENDS
;	COMDAT _IID_ID3D10EffectRenderTargetViewVariable
CONST	SEGMENT
_IID_ID3D10EffectRenderTargetViewVariable DD 028ca0cc3H
	DW	0c2c9H
	DW	040bbH
	DB	0b5H
	DB	07fH
	DB	067H
	DB	0b7H
	DB	037H
	DB	012H
	DB	02bH
	DB	017H
CONST	ENDS
;	COMDAT _GUID_WICPixelFormat48bpp3Channels
CONST	SEGMENT
_GUID_WICPixelFormat48bpp3Channels DD 06fddc324H
	DW	04e03H
	DW	04bfeH
	DB	0b1H
	DB	085H
	DB	03dH
	DB	077H
	DB	076H
	DB	08dH
	DB	0c9H
	DB	026H
CONST	ENDS
;	COMDAT _GUID_WICPixelFormat64bpp8Channels
CONST	SEGMENT
_GUID_WICPixelFormat64bpp8Channels DD 06fddc324H
	DW	04e03H
	DW	04bfeH
	DB	0b1H
	DB	085H
	DB	03dH
	DB	077H
	DB	076H
	DB	08dH
	DB	0c9H
	DB	025H
CONST	ENDS
;	COMDAT _GUID_WICPixelFormat56bpp7Channels
CONST	SEGMENT
_GUID_WICPixelFormat56bpp7Channels DD 06fddc324H
	DW	04e03H
	DW	04bfeH
	DB	0b1H
	DB	085H
	DB	03dH
	DB	077H
	DB	076H
	DB	08dH
	DB	0c9H
	DB	024H
CONST	ENDS
;	COMDAT _GUID_WICPixelFormat48bpp6Channels
CONST	SEGMENT
_GUID_WICPixelFormat48bpp6Channels DD 06fddc324H
	DW	04e03H
	DW	04bfeH
	DB	0b1H
	DB	085H
	DB	03dH
	DB	077H
	DB	076H
	DB	08dH
	DB	0c9H
	DB	023H
CONST	ENDS
;	COMDAT ?g_XMNegativeOneHalf@DirectX@@3UXMVECTORF32@1@B
CONST	SEGMENT
?g_XMNegativeOneHalf@DirectX@@3UXMVECTORF32@1@B DD 0bf000000r ; -0.5 ; DirectX::g_XMNegativeOneHalf
	DD	0bf000000r			; -0.5
	DD	0bf000000r			; -0.5
	DD	0bf000000r			; -0.5
CONST	ENDS
;	COMDAT _GUID_WICPixelFormat40bpp5Channels
CONST	SEGMENT
_GUID_WICPixelFormat40bpp5Channels DD 06fddc324H
	DW	04e03H
	DW	04bfeH
	DB	0b1H
	DB	085H
	DB	03dH
	DB	077H
	DB	076H
	DB	08dH
	DB	0c9H
	DB	022H
CONST	ENDS
;	COMDAT ?g_XMOneHalf@DirectX@@3UXMVECTORF32@1@B
CONST	SEGMENT
?g_XMOneHalf@DirectX@@3UXMVECTORF32@1@B DD 03f000000r ; 0.5 ; DirectX::g_XMOneHalf
	DD	03f000000r			; 0.5
	DD	03f000000r			; 0.5
	DD	03f000000r			; 0.5
CONST	ENDS
;	COMDAT _IID_ID3D10BlendState
CONST	SEGMENT
_IID_ID3D10BlendState DD 0edad8d19H
	DW	08a35H
	DW	04d6dH
	DB	085H
	DB	066H
	DB	02eH
	DB	0a2H
	DB	076H
	DB	0cdH
	DB	0e1H
	DB	061H
CONST	ENDS
;	COMDAT _GUID_WICPixelFormat32bpp4Channels
CONST	SEGMENT
_GUID_WICPixelFormat32bpp4Channels DD 06fddc324H
	DW	04e03H
	DW	04bfeH
	DB	0b1H
	DB	085H
	DB	03dH
	DB	077H
	DB	076H
	DB	08dH
	DB	0c9H
	DB	021H
CONST	ENDS
;	COMDAT ?g_XMNegativeOne@DirectX@@3UXMVECTORF32@1@B
CONST	SEGMENT
?g_XMNegativeOne@DirectX@@3UXMVECTORF32@1@B DD 0bf800000r ; -1 ; DirectX::g_XMNegativeOne
	DD	0bf800000r			; -1
	DD	0bf800000r			; -1
	DD	0bf800000r			; -1
CONST	ENDS
;	COMDAT ?g_XMSix@DirectX@@3UXMVECTORF32@1@B
CONST	SEGMENT
?g_XMSix@DirectX@@3UXMVECTORF32@1@B DD 040c00000r ; 6	; DirectX::g_XMSix
	DD	040c00000r			; 6
	DD	040c00000r			; 6
	DD	040c00000r			; 6
CONST	ENDS
;	COMDAT _GUID_WICPixelFormat24bpp3Channels
CONST	SEGMENT
_GUID_WICPixelFormat24bpp3Channels DD 06fddc324H
	DW	04e03H
	DW	04bfeH
	DB	0b1H
	DB	085H
	DB	03dH
	DB	077H
	DB	076H
	DB	08dH
	DB	0c9H
	DB	020H
CONST	ENDS
;	COMDAT ?g_XMFour@DirectX@@3UXMVECTORF32@1@B
CONST	SEGMENT
?g_XMFour@DirectX@@3UXMVECTORF32@1@B DD 040800000r ; 4	; DirectX::g_XMFour
	DD	040800000r			; 4
	DD	040800000r			; 4
	DD	040800000r			; 4
CONST	ENDS
;	COMDAT _GUID_WICPixelFormat64bppCMYK
CONST	SEGMENT
_GUID_WICPixelFormat64bppCMYK DD 06fddc324H
	DW	04e03H
	DW	04bfeH
	DB	0b1H
	DB	085H
	DB	03dH
	DB	077H
	DB	076H
	DB	08dH
	DB	0c9H
	DB	01fH
CONST	ENDS
;	COMDAT _GUID_WICPixelFormat32bppRGBA1010102XR
CONST	SEGMENT
_GUID_WICPixelFormat32bppRGBA1010102XR DD 0de6b9aH
	DW	0c101H
	DW	0434bH
	DB	0b5H
	DB	02H
	DB	0d0H
	DB	016H
	DB	05eH
	DB	0e1H
	DB	012H
	DB	02cH
CONST	ENDS
;	COMDAT ?g_XMTwo@DirectX@@3UXMVECTORF32@1@B
CONST	SEGMENT
?g_XMTwo@DirectX@@3UXMVECTORF32@1@B DD 040000000r ; 2	; DirectX::g_XMTwo
	DD	040000000r			; 2
	DD	040000000r			; 2
	DD	040000000r			; 2
CONST	ENDS
;	COMDAT _GUID_WICPixelFormat32bppRGBA1010102
CONST	SEGMENT
_GUID_WICPixelFormat32bppRGBA1010102 DD 025238d72H
	DW	0fcf9H
	DW	04522H
	DB	0b5H
	DB	014H
	DB	055H
	DB	078H
	DB	0e5H
	DB	0adH
	DB	055H
	DB	0e0H
CONST	ENDS
;	COMDAT ?g_XMZero@DirectX@@3UXMVECTORF32@1@B
CONST	SEGMENT
?g_XMZero@DirectX@@3UXMVECTORF32@1@B DD 000000000r ; 0	; DirectX::g_XMZero
	DD	000000000r			; 0
	DD	000000000r			; 0
	DD	000000000r			; 0
CONST	ENDS
;	COMDAT _GUID_WICPixelFormat32bppGrayFixedPoint
CONST	SEGMENT
_GUID_WICPixelFormat32bppGrayFixedPoint DD 06fddc324H
	DW	04e03H
	DW	04bfeH
	DB	0b1H
	DB	085H
	DB	03dH
	DB	077H
	DB	076H
	DB	08dH
	DB	0c9H
	DB	03fH
CONST	ENDS
;	COMDAT ?g_XMOne3@DirectX@@3UXMVECTORF32@1@B
CONST	SEGMENT
?g_XMOne3@DirectX@@3UXMVECTORF32@1@B DD 03f800000r ; 1	; DirectX::g_XMOne3
	DD	03f800000r			; 1
	DD	03f800000r			; 1
	DD	000000000r			; 0
CONST	ENDS
;	COMDAT _GUID_WICPixelFormat16bppGrayHalf
CONST	SEGMENT
_GUID_WICPixelFormat16bppGrayHalf DD 06fddc324H
	DW	04e03H
	DW	04bfeH
	DB	0b1H
	DB	085H
	DB	03dH
	DB	077H
	DB	076H
	DB	08dH
	DB	0c9H
	DB	03eH
CONST	ENDS
;	COMDAT ?g_XMOne@DirectX@@3UXMVECTORF32@1@B
CONST	SEGMENT
?g_XMOne@DirectX@@3UXMVECTORF32@1@B DD 03f800000r ; 1	; DirectX::g_XMOne
	DD	03f800000r			; 1
	DD	03f800000r			; 1
	DD	03f800000r			; 1
CONST	ENDS
;	COMDAT _GUID_WICPixelFormat32bppRGBE
CONST	SEGMENT
_GUID_WICPixelFormat32bppRGBE DD 06fddc324H
	DW	04e03H
	DW	04bfeH
	DB	0b1H
	DB	085H
	DB	03dH
	DB	077H
	DB	076H
	DB	08dH
	DB	0c9H
	DB	03dH
CONST	ENDS
;	COMDAT ?g_XMMaskW@DirectX@@3UXMVECTORI32@1@B
CONST	SEGMENT
?g_XMMaskW@DirectX@@3UXMVECTORI32@1@B DD 00H		; DirectX::g_XMMaskW
	DD	00H
	DD	00H
	DD	0ffffffffH
CONST	ENDS
;	COMDAT _GUID_WICPixelFormat48bppRGBHalf
CONST	SEGMENT
_GUID_WICPixelFormat48bppRGBHalf DD 06fddc324H
	DW	04e03H
	DW	04bfeH
	DB	0b1H
	DB	085H
	DB	03dH
	DB	077H
	DB	076H
	DB	08dH
	DB	0c9H
	DB	03bH
CONST	ENDS
;	COMDAT ?g_XMMaskZ@DirectX@@3UXMVECTORI32@1@B
CONST	SEGMENT
?g_XMMaskZ@DirectX@@3UXMVECTORI32@1@B DD 00H		; DirectX::g_XMMaskZ
	DD	00H
	DD	0ffffffffH
	DD	00H
CONST	ENDS
;	COMDAT _GUID_WICPixelFormat64bppRGBHalf
CONST	SEGMENT
_GUID_WICPixelFormat64bppRGBHalf DD 06fddc324H
	DW	04e03H
	DW	04bfeH
	DB	0b1H
	DB	085H
	DB	03dH
	DB	077H
	DB	076H
	DB	08dH
	DB	0c9H
	DB	042H
CONST	ENDS
;	COMDAT ?g_XMMaskY@DirectX@@3UXMVECTORI32@1@B
CONST	SEGMENT
?g_XMMaskY@DirectX@@3UXMVECTORI32@1@B DD 00H		; DirectX::g_XMMaskY
	DD	0ffffffffH
	DD	00H
	DD	00H
CONST	ENDS
;	COMDAT _GUID_WICPixelFormat64bppRGBAHalf
CONST	SEGMENT
_GUID_WICPixelFormat64bppRGBAHalf DD 06fddc324H
	DW	04e03H
	DW	04bfeH
	DB	0b1H
	DB	085H
	DB	03dH
	DB	077H
	DB	076H
	DB	08dH
	DB	0c9H
	DB	03aH
CONST	ENDS
;	COMDAT ?g_XMMaskX@DirectX@@3UXMVECTORI32@1@B
CONST	SEGMENT
?g_XMMaskX@DirectX@@3UXMVECTORI32@1@B DD 0ffffffffH	; DirectX::g_XMMaskX
	DD	00H
	DD	00H
	DD	00H
CONST	ENDS
;	COMDAT _GUID_WICPixelFormat128bppRGBFixedPoint
CONST	SEGMENT
_GUID_WICPixelFormat128bppRGBFixedPoint DD 06fddc324H
	DW	04e03H
	DW	04bfeH
	DB	0b1H
	DB	085H
	DB	03dH
	DB	077H
	DB	076H
	DB	08dH
	DB	0c9H
	DB	041H
CONST	ENDS
;	COMDAT ?g_XMMask3@DirectX@@3UXMVECTORI32@1@B
CONST	SEGMENT
?g_XMMask3@DirectX@@3UXMVECTORI32@1@B DD 0ffffffffH	; DirectX::g_XMMask3
	DD	0ffffffffH
	DD	0ffffffffH
	DD	00H
CONST	ENDS
;	COMDAT _GUID_WICPixelFormat128bppRGBAFixedPoint
CONST	SEGMENT
_GUID_WICPixelFormat128bppRGBAFixedPoint DD 06fddc324H
	DW	04e03H
	DW	04bfeH
	DB	0b1H
	DB	085H
	DB	03dH
	DB	077H
	DB	076H
	DB	08dH
	DB	0c9H
	DB	01eH
CONST	ENDS
;	COMDAT ?g_XMNegate3@DirectX@@3UXMVECTORI32@1@B
CONST	SEGMENT
?g_XMNegate3@DirectX@@3UXMVECTORI32@1@B DD 080000000H	; DirectX::g_XMNegate3
	DD	080000000H
	DD	080000000H
	DD	00H
CONST	ENDS
;	COMDAT _GUID_WICPixelFormat64bppRGBFixedPoint
CONST	SEGMENT
_GUID_WICPixelFormat64bppRGBFixedPoint DD 06fddc324H
	DW	04e03H
	DW	04bfeH
	DB	0b1H
	DB	085H
	DB	03dH
	DB	077H
	DB	076H
	DB	08dH
	DB	0c9H
	DB	040H
CONST	ENDS
;	COMDAT _IID_ID3D10Device
CONST	SEGMENT
_IID_ID3D10Device DD 09b7e4c0fH
	DW	0342cH
	DW	04106H
	DB	0a1H
	DB	09fH
	DB	04fH
	DB	027H
	DB	04H
	DB	0f6H
	DB	089H
	DB	0f0H
CONST	ENDS
;	COMDAT ?g_XMNegativeZero@DirectX@@3UXMVECTORI32@1@B
CONST	SEGMENT
?g_XMNegativeZero@DirectX@@3UXMVECTORI32@1@B DD 080000000H ; DirectX::g_XMNegativeZero
	DD	080000000H
	DD	080000000H
	DD	080000000H
CONST	ENDS
;	COMDAT _IID_ID3D11ModuleInstance
CONST	SEGMENT
_IID_ID3D11ModuleInstance DD 0469e07f7H
	DW	045aH
	DW	048d5H
	DB	0aaH
	DB	012H
	DB	068H
	DB	0a4H
	DB	078H
	DB	0cdH
	DB	0f7H
	DB	05dH
CONST	ENDS
;	COMDAT _GUID_WICPixelFormat64bppBGRAFixedPoint
CONST	SEGMENT
_GUID_WICPixelFormat64bppBGRAFixedPoint DD 0356de33cH
	DW	054d2H
	DW	04a23H
	DB	0bbH
	DB	04H
	DB	09bH
	DB	07bH
	DB	0f9H
	DB	0b1H
	DB	0d4H
	DB	02dH
CONST	ENDS
;	COMDAT ?g_XMNegIdentityR3@DirectX@@3UXMVECTORF32@1@B
CONST	SEGMENT
?g_XMNegIdentityR3@DirectX@@3UXMVECTORF32@1@B DD 000000000r ; 0 ; DirectX::g_XMNegIdentityR3
	DD	000000000r			; 0
	DD	000000000r			; 0
	DD	0bf800000r			; -1
CONST	ENDS
;	COMDAT _GUID_WICPixelFormat64bppRGBAFixedPoint
CONST	SEGMENT
_GUID_WICPixelFormat64bppRGBAFixedPoint DD 06fddc324H
	DW	04e03H
	DW	04bfeH
	DB	0b1H
	DB	085H
	DB	03dH
	DB	077H
	DB	076H
	DB	08dH
	DB	0c9H
	DB	01dH
CONST	ENDS
;	COMDAT ?g_XMNegIdentityR2@DirectX@@3UXMVECTORF32@1@B
CONST	SEGMENT
?g_XMNegIdentityR2@DirectX@@3UXMVECTORF32@1@B DD 000000000r ; 0 ; DirectX::g_XMNegIdentityR2
	DD	000000000r			; 0
	DD	0bf800000r			; -1
	DD	000000000r			; 0
CONST	ENDS
;	COMDAT ?g_XMNegIdentityR1@DirectX@@3UXMVECTORF32@1@B
CONST	SEGMENT
?g_XMNegIdentityR1@DirectX@@3UXMVECTORF32@1@B DD 000000000r ; 0 ; DirectX::g_XMNegIdentityR1
	DD	0bf800000r			; -1
	DD	000000000r			; 0
	DD	000000000r			; 0
CONST	ENDS
;	COMDAT _GUID_WICPixelFormat32bppCMYK
CONST	SEGMENT
_GUID_WICPixelFormat32bppCMYK DD 06fddc324H
	DW	04e03H
	DW	04bfeH
	DB	0b1H
	DB	085H
	DB	03dH
	DB	077H
	DB	076H
	DB	08dH
	DB	0c9H
	DB	01cH
CONST	ENDS
;	COMDAT _GUID_WICPixelFormat128bppRGBFloat
CONST	SEGMENT
_GUID_WICPixelFormat128bppRGBFloat DD 06fddc324H
	DW	04e03H
	DW	04bfeH
	DB	0b1H
	DB	085H
	DB	03dH
	DB	077H
	DB	076H
	DB	08dH
	DB	0c9H
	DB	01bH
CONST	ENDS
;	COMDAT ?g_XMNegIdentityR0@DirectX@@3UXMVECTORF32@1@B
CONST	SEGMENT
?g_XMNegIdentityR0@DirectX@@3UXMVECTORF32@1@B DD 0bf800000r ; -1 ; DirectX::g_XMNegIdentityR0
	DD	000000000r			; 0
	DD	000000000r			; 0
	DD	000000000r			; 0
CONST	ENDS
;	COMDAT _GUID_WICPixelFormat128bppPRGBAFloat
CONST	SEGMENT
_GUID_WICPixelFormat128bppPRGBAFloat DD 06fddc324H
	DW	04e03H
	DW	04bfeH
	DB	0b1H
	DB	085H
	DB	03dH
	DB	077H
	DB	076H
	DB	08dH
	DB	0c9H
	DB	01aH
CONST	ENDS
;	COMDAT ?g_XMIdentityR3@DirectX@@3UXMVECTORF32@1@B
CONST	SEGMENT
?g_XMIdentityR3@DirectX@@3UXMVECTORF32@1@B DD 000000000r ; 0 ; DirectX::g_XMIdentityR3
	DD	000000000r			; 0
	DD	000000000r			; 0
	DD	03f800000r			; 1
CONST	ENDS
;	COMDAT _GUID_WICPixelFormat128bppRGBAFloat
CONST	SEGMENT
_GUID_WICPixelFormat128bppRGBAFloat DD 06fddc324H
	DW	04e03H
	DW	04bfeH
	DB	0b1H
	DB	085H
	DB	03dH
	DB	077H
	DB	076H
	DB	08dH
	DB	0c9H
	DB	019H
CONST	ENDS
;	COMDAT ?g_XMIdentityR2@DirectX@@3UXMVECTORF32@1@B
CONST	SEGMENT
?g_XMIdentityR2@DirectX@@3UXMVECTORF32@1@B DD 000000000r ; 0 ; DirectX::g_XMIdentityR2
	DD	000000000r			; 0
	DD	03f800000r			; 1
	DD	000000000r			; 0
CONST	ENDS
;	COMDAT _IID_ID3D11Asynchronous
CONST	SEGMENT
_IID_ID3D11Asynchronous DD 04b35d0cdH
	DW	01e15H
	DW	04258H
	DB	09cH
	DB	098H
	DB	01bH
	DB	013H
	DB	033H
	DB	0f6H
	DB	0ddH
	DB	03bH
CONST	ENDS
;	COMDAT ?g_XMIdentityR1@DirectX@@3UXMVECTORF32@1@B
CONST	SEGMENT
?g_XMIdentityR1@DirectX@@3UXMVECTORF32@1@B DD 000000000r ; 0 ; DirectX::g_XMIdentityR1
	DD	03f800000r			; 1
	DD	000000000r			; 0
	DD	000000000r			; 0
CONST	ENDS
;	COMDAT _GUID_WICPixelFormat96bppRGBFixedPoint
CONST	SEGMENT
_GUID_WICPixelFormat96bppRGBFixedPoint DD 06fddc324H
	DW	04e03H
	DW	04bfeH
	DB	0b1H
	DB	085H
	DB	03dH
	DB	077H
	DB	076H
	DB	08dH
	DB	0c9H
	DB	018H
CONST	ENDS
;	COMDAT ?g_XMIdentityR0@DirectX@@3UXMVECTORF32@1@B
CONST	SEGMENT
?g_XMIdentityR0@DirectX@@3UXMVECTORF32@1@B DD 03f800000r ; 1 ; DirectX::g_XMIdentityR0
	DD	000000000r			; 0
	DD	000000000r			; 0
	DD	000000000r			; 0
CONST	ENDS
;	COMDAT _GUID_WICPixelFormat48bppBGRFixedPoint
CONST	SEGMENT
_GUID_WICPixelFormat48bppBGRFixedPoint DD 049ca140eH
	DW	0cab6H
	DW	0493bH
	DB	09dH
	DB	0dfH
	DB	060H
	DB	018H
	DB	07cH
	DB	037H
	DB	053H
	DB	02aH
CONST	ENDS
;	COMDAT _GUID_WICPixelFormat48bppRGBFixedPoint
CONST	SEGMENT
_GUID_WICPixelFormat48bppRGBFixedPoint DD 06fddc324H
	DW	04e03H
	DW	04bfeH
	DB	0b1H
	DB	085H
	DB	03dH
	DB	077H
	DB	076H
	DB	08dH
	DB	0c9H
	DB	012H
CONST	ENDS
;	COMDAT _GUID_WICPixelFormat32bppBGR101010
CONST	SEGMENT
_GUID_WICPixelFormat32bppBGR101010 DD 06fddc324H
	DW	04e03H
	DW	04bfeH
	DB	0b1H
	DB	085H
	DB	03dH
	DB	077H
	DB	076H
	DB	08dH
	DB	0c9H
	DB	014H
CONST	ENDS
;	COMDAT _GUID_WICPixelFormat16bppGrayFixedPoint
CONST	SEGMENT
_GUID_WICPixelFormat16bppGrayFixedPoint DD 06fddc324H
	DW	04e03H
	DW	04bfeH
	DB	0b1H
	DB	085H
	DB	03dH
	DB	077H
	DB	076H
	DB	08dH
	DB	0c9H
	DB	013H
CONST	ENDS
;	COMDAT _IID_ID3D10Counter
CONST	SEGMENT
_IID_ID3D10Counter DD 09b7e4c11H
	DW	0342cH
	DW	04106H
	DB	0a1H
	DB	09fH
	DB	04fH
	DB	027H
	DB	04H
	DB	0f6H
	DB	089H
	DB	0f0H
CONST	ENDS
;	COMDAT _GUID_WICPixelFormat64bppPBGRA
CONST	SEGMENT
_GUID_WICPixelFormat64bppPBGRA DD 08c518e8eH
	DW	0a4ecH
	DW	0468bH
	DB	0aeH
	DB	070H
	DB	0c9H
	DB	0a3H
	DB	05aH
	DB	09cH
	DB	055H
	DB	030H
CONST	ENDS
;	COMDAT ?g_XMArcEstCoefficients@DirectX@@3UXMVECTORF32@1@B
CONST	SEGMENT
?g_XMArcEstCoefficients@DirectX@@3UXMVECTORF32@1@B DD 03fc90da4r ; 1.57073 ; DirectX::g_XMArcEstCoefficients
	DD	0be593484r			; -0.212114
	DD	03d981627r			; 0.074261
	DD	0bc996e30r			; -0.0187293
CONST	ENDS
;	COMDAT _GUID_WICPixelFormat64bppPRGBA
CONST	SEGMENT
_GUID_WICPixelFormat64bppPRGBA DD 06fddc324H
	DW	04e03H
	DW	04bfeH
	DB	0b1H
	DB	085H
	DB	03dH
	DB	077H
	DB	076H
	DB	08dH
	DB	0c9H
	DB	017H
CONST	ENDS
;	COMDAT _GUID_WICPixelFormat64bppBGRA
CONST	SEGMENT
_GUID_WICPixelFormat64bppBGRA DD 01562ff7cH
	DW	0d352H
	DW	046f9H
	DB	097H
	DB	09eH
	DB	042H
	DB	097H
	DB	06bH
	DB	079H
	DB	022H
	DB	046H
CONST	ENDS
;	COMDAT _GUID_WICPixelFormat64bppRGBA
CONST	SEGMENT
_GUID_WICPixelFormat64bppRGBA DD 06fddc324H
	DW	04e03H
	DW	04bfeH
	DB	0b1H
	DB	085H
	DB	03dH
	DB	077H
	DB	076H
	DB	08dH
	DB	0c9H
	DB	016H
CONST	ENDS
;	COMDAT _GUID_WICPixelFormat48bppBGR
CONST	SEGMENT
_GUID_WICPixelFormat48bppBGR DD 0e605a384H
	DW	0b468H
	DW	046ceH
	DB	0bbH
	DB	02eH
	DB	036H
	DB	0f1H
	DB	080H
	DB	0e6H
	DB	043H
	DB	013H
CONST	ENDS
;	COMDAT _GUID_WICPixelFormat48bppRGB
CONST	SEGMENT
_GUID_WICPixelFormat48bppRGB DD 06fddc324H
	DW	04e03H
	DW	04bfeH
	DB	0b1H
	DB	085H
	DB	03dH
	DB	077H
	DB	076H
	DB	08dH
	DB	0c9H
	DB	015H
CONST	ENDS
;	COMDAT _GUID_WICPixelFormat32bppPRGBA
CONST	SEGMENT
_GUID_WICPixelFormat32bppPRGBA DD 03cc4a650H
	DW	0a527H
	DW	04d37H
	DB	0a9H
	DB	016H
	DB	031H
	DB	042H
	DB	0c7H
	DB	0ebH
	DB	0edH
	DB	0baH
CONST	ENDS
;	COMDAT _GUID_WICPixelFormat32bppRGBA
CONST	SEGMENT
_GUID_WICPixelFormat32bppRGBA DD 0f5c7ad2dH
	DW	06a8dH
	DW	043ddH
	DB	0a7H
	DB	0a8H
	DB	0a2H
	DB	099H
	DB	035H
	DB	026H
	DB	01aH
	DB	0e9H
CONST	ENDS
;	COMDAT _IID_ID3D11Module
CONST	SEGMENT
_IID_ID3D11Module DD 0cac701eeH
	DW	080fcH
	DW	04122H
	DB	082H
	DB	042H
	DB	010H
	DB	0b3H
	DB	09cH
	DB	08cH
	DB	0ecH
	DB	034H
CONST	ENDS
;	COMDAT _GUID_WICPixelFormat32bppGrayFloat
CONST	SEGMENT
_GUID_WICPixelFormat32bppGrayFloat DD 06fddc324H
	DW	04e03H
	DW	04bfeH
	DB	0b1H
	DB	085H
	DB	03dH
	DB	077H
	DB	076H
	DB	08dH
	DB	0c9H
	DB	011H
CONST	ENDS
;	COMDAT _GUID_WICPixelFormat32bppPBGRA
CONST	SEGMENT
_GUID_WICPixelFormat32bppPBGRA DD 06fddc324H
	DW	04e03H
	DW	04bfeH
	DB	0b1H
	DB	085H
	DB	03dH
	DB	077H
	DB	076H
	DB	08dH
	DB	0c9H
	DB	010H
CONST	ENDS
;	COMDAT _GUID_WICPixelFormat32bppBGRA
CONST	SEGMENT
_GUID_WICPixelFormat32bppBGRA DD 06fddc324H
	DW	04e03H
	DW	04bfeH
	DB	0b1H
	DB	085H
	DB	03dH
	DB	077H
	DB	076H
	DB	08dH
	DB	0c9H
	DB	0fH
CONST	ENDS
;	COMDAT _GUID_WICPixelFormat32bppBGR
CONST	SEGMENT
_GUID_WICPixelFormat32bppBGR DD 06fddc324H
	DW	04e03H
	DW	04bfeH
	DB	0b1H
	DB	085H
	DB	03dH
	DB	077H
	DB	076H
	DB	08dH
	DB	0c9H
	DB	0eH
CONST	ENDS
;	COMDAT _GUID_WICPixelFormat24bppRGB
CONST	SEGMENT
_GUID_WICPixelFormat24bppRGB DD 06fddc324H
	DW	04e03H
	DW	04bfeH
	DB	0b1H
	DB	085H
	DB	03dH
	DB	077H
	DB	076H
	DB	08dH
	DB	0c9H
	DB	0dH
CONST	ENDS
;	COMDAT _GUID_WICPixelFormat24bppBGR
CONST	SEGMENT
_GUID_WICPixelFormat24bppBGR DD 06fddc324H
	DW	04e03H
	DW	04bfeH
	DB	0b1H
	DB	085H
	DB	03dH
	DB	077H
	DB	076H
	DB	08dH
	DB	0c9H
	DB	0cH
CONST	ENDS
;	COMDAT _GUID_WICPixelFormat16bppGray
CONST	SEGMENT
_GUID_WICPixelFormat16bppGray DD 06fddc324H
	DW	04e03H
	DW	04bfeH
	DB	0b1H
	DB	085H
	DB	03dH
	DB	077H
	DB	076H
	DB	08dH
	DB	0c9H
	DB	0bH
CONST	ENDS
;	COMDAT _GUID_WICPixelFormat16bppBGRA5551
CONST	SEGMENT
_GUID_WICPixelFormat16bppBGRA5551 DD 05ec7c2bH
	DW	0f1e6H
	DW	04961H
	DB	0adH
	DB	046H
	DB	0e1H
	DB	0ccH
	DB	081H
	DB	0aH
	DB	087H
	DB	0d2H
CONST	ENDS
;	COMDAT _GUID_WICPixelFormat16bppBGR565
CONST	SEGMENT
_GUID_WICPixelFormat16bppBGR565 DD 06fddc324H
	DW	04e03H
	DW	04bfeH
	DB	0b1H
	DB	085H
	DB	03dH
	DB	077H
	DB	076H
	DB	08dH
	DB	0c9H
	DB	0aH
CONST	ENDS
;	COMDAT _GUID_WICPixelFormat16bppBGR555
CONST	SEGMENT
_GUID_WICPixelFormat16bppBGR555 DD 06fddc324H
	DW	04e03H
	DW	04bfeH
	DB	0b1H
	DB	085H
	DB	03dH
	DB	077H
	DB	076H
	DB	08dH
	DB	0c9H
	DB	09H
CONST	ENDS
;	COMDAT _GUID_WICPixelFormat8bppAlpha
CONST	SEGMENT
_GUID_WICPixelFormat8bppAlpha DD 0e6cd0116H
	DW	0eebaH
	DW	04161H
	DB	0aaH
	DB	085H
	DB	027H
	DB	0ddH
	DB	09fH
	DB	0b3H
	DB	0a8H
	DB	095H
CONST	ENDS
;	COMDAT _GUID_WICPixelFormat8bppGray
CONST	SEGMENT
_GUID_WICPixelFormat8bppGray DD 06fddc324H
	DW	04e03H
	DW	04bfeH
	DB	0b1H
	DB	085H
	DB	03dH
	DB	077H
	DB	076H
	DB	08dH
	DB	0c9H
	DB	08H
CONST	ENDS
;	COMDAT _GUID_WICPixelFormat4bppGray
CONST	SEGMENT
_GUID_WICPixelFormat4bppGray DD 06fddc324H
	DW	04e03H
	DW	04bfeH
	DB	0b1H
	DB	085H
	DB	03dH
	DB	077H
	DB	076H
	DB	08dH
	DB	0c9H
	DB	07H
CONST	ENDS
;	COMDAT _IID_ID3D11FunctionParameterReflection
CONST	SEGMENT
_IID_ID3D11FunctionParameterReflection DD 042757488H
	DW	0334fH
	DW	047feH
	DB	098H
	DB	02eH
	DB	01aH
	DB	065H
	DB	0d0H
	DB	08cH
	DB	0c4H
	DB	062H
CONST	ENDS
;	COMDAT _GUID_WICPixelFormat2bppGray
CONST	SEGMENT
_GUID_WICPixelFormat2bppGray DD 06fddc324H
	DW	04e03H
	DW	04bfeH
	DB	0b1H
	DB	085H
	DB	03dH
	DB	077H
	DB	076H
	DB	08dH
	DB	0c9H
	DB	06H
CONST	ENDS
;	COMDAT _GUID_WICPixelFormatBlackWhite
CONST	SEGMENT
_GUID_WICPixelFormatBlackWhite DD 06fddc324H
	DW	04e03H
	DW	04bfeH
	DB	0b1H
	DB	085H
	DB	03dH
	DB	077H
	DB	076H
	DB	08dH
	DB	0c9H
	DB	05H
CONST	ENDS
;	COMDAT _GUID_WICPixelFormat8bppIndexed
CONST	SEGMENT
_GUID_WICPixelFormat8bppIndexed DD 06fddc324H
	DW	04e03H
	DW	04bfeH
	DB	0b1H
	DB	085H
	DB	03dH
	DB	077H
	DB	076H
	DB	08dH
	DB	0c9H
	DB	04H
CONST	ENDS
;	COMDAT _IID_ID3D10InfoQueue
CONST	SEGMENT
_IID_ID3D10InfoQueue DD 01b940b17H
	DW	02642H
	DW	04d1fH
	DB	0abH
	DB	01fH
	DB	0b9H
	DB	09bH
	DB	0adH
	DB	0cH
	DB	039H
	DB	05fH
CONST	ENDS
;	COMDAT _GUID_WICPixelFormat4bppIndexed
CONST	SEGMENT
_GUID_WICPixelFormat4bppIndexed DD 06fddc324H
	DW	04e03H
	DW	04bfeH
	DB	0b1H
	DB	085H
	DB	03dH
	DB	077H
	DB	076H
	DB	08dH
	DB	0c9H
	DB	03H
CONST	ENDS
;	COMDAT _GUID_WICPixelFormat2bppIndexed
CONST	SEGMENT
_GUID_WICPixelFormat2bppIndexed DD 06fddc324H
	DW	04e03H
	DW	04bfeH
	DB	0b1H
	DB	085H
	DB	03dH
	DB	077H
	DB	076H
	DB	08dH
	DB	0c9H
	DB	02H
CONST	ENDS
;	COMDAT _GUID_WICPixelFormat1bppIndexed
CONST	SEGMENT
_GUID_WICPixelFormat1bppIndexed DD 06fddc324H
	DW	04e03H
	DW	04bfeH
	DB	0b1H
	DB	085H
	DB	03dH
	DB	077H
	DB	076H
	DB	08dH
	DB	0c9H
	DB	01H
CONST	ENDS
;	COMDAT _GUID_WICPixelFormatDontCare
CONST	SEGMENT
_GUID_WICPixelFormatDontCare DD 06fddc324H
	DW	04e03H
	DW	04bfeH
	DB	0b1H
	DB	085H
	DB	03dH
	DB	077H
	DB	076H
	DB	08dH
	DB	0c9H
	DB	00H
CONST	ENDS
;	COMDAT ?g_XMATanEstCoefficients1@DirectX@@3UXMVECTORF32@1@B
CONST	SEGMENT
?g_XMATanEstCoefficients1@DirectX@@3UXMVECTORF32@1@B DD 0bea91d04r ; -0.330299 ; DirectX::g_XMATanEstCoefficients1
	DD	03e3876e2r			; 0.180141
	DD	0bdae5a36r			; -0.085133
	DD	03caaae5fr			; 0.0208351
CONST	ENDS
;	COMDAT ?g_XMATanEstCoefficients0@DirectX@@3UXMVECTORF32@1@B
CONST	SEGMENT
?g_XMATanEstCoefficients0@DirectX@@3UXMVECTORF32@1@B DD 03f7ff738r ; 0.999866 ; DirectX::g_XMATanEstCoefficients0
	DD	03f7ff738r			; 0.999866
	DD	03f7ff738r			; 0.999866
	DD	03f7ff738r			; 0.999866
CONST	ENDS
;	COMDAT ?g_XMATanCoefficients1@DirectX@@3UXMVECTORF32@1@B
CONST	SEGMENT
?g_XMATanCoefficients1@DirectX@@3UXMVECTORF32@1@B DD 0bd9a3174r ; -0.0752896 ; DirectX::g_XMATanCoefficients1
	DD	03d2fc1fer			; 0.0429096
	DD	0bc846e02r			; -0.0161657
	DD	03b3bd74ar			; 0.00286623
CONST	ENDS
;	COMDAT ?g_XMATanCoefficients0@DirectX@@3UXMVECTORF32@1@B
CONST	SEGMENT
?g_XMATanCoefficients0@DirectX@@3UXMVECTORF32@1@B DD 0beaaaa6cr ; -0.333331 ; DirectX::g_XMATanCoefficients0
	DD	03e4cbbe5r			; 0.199936
	DD	0be117fc7r			; -0.142089
	DD	03dda3d83r			; 0.106563
CONST	ENDS
;	COMDAT _IID_ID3D10DepthStencilState
CONST	SEGMENT
_IID_ID3D10DepthStencilState DD 02b4b1cc8H
	DW	0a4adH
	DW	041f8H
	DB	083H
	DB	022H
	DB	0caH
	DB	086H
	DB	0fcH
	DB	03eH
	DB	0c6H
	DB	075H
CONST	ENDS
;	COMDAT ?g_XMArcCoefficients1@DirectX@@3UXMVECTORF32@1@B
CONST	SEGMENT
?g_XMArcCoefficients1@DirectX@@3UXMVECTORF32@1@B DD 03cfd10f8r ; 0.0308919 ; DirectX::g_XMArcCoefficients1
	DD	0bc8bfc66r			; -0.0170881
	DD	03bda90c5r			; 0.00667009
	DD	0baa57a2cr			; -0.00126249
CONST	ENDS
;	COMDAT _IID_ID3D11VideoDecoder
CONST	SEGMENT
_IID_ID3D11VideoDecoder DD 03c9c5b51H
	DW	0995dH
	DW	048d1H
	DB	09bH
	DB	08dH
	DB	0faH
	DB	05cH
	DB	0aeH
	DB	0deH
	DB	0d6H
	DB	05cH
CONST	ENDS
;	COMDAT ?g_XMArcCoefficients0@DirectX@@3UXMVECTORF32@1@B
CONST	SEGMENT
?g_XMArcCoefficients0@DirectX@@3UXMVECTORF32@1@B DD 03fc90fdar ; 1.5708 ; DirectX::g_XMArcCoefficients0
	DD	0be5bbfcar			; -0.214599
	DD	03db63a9er			; 0.088979
	DD	0bd4d8392r			; -0.0501743
CONST	ENDS
;	COMDAT ?g_XMTanCoefficients2@DirectX@@3UXMVECTORF32@1@B
CONST	SEGMENT
?g_XMTanCoefficients2@DirectX@@3UXMVECTORF32@1@B DD 03a1aac12r ; 0.000590027 ; DirectX::g_XMTanCoefficients2
	DD	0397abeb9r			; 0.000239129
	DD	038cb3f0cr			; 9.69154e-005
	DD	03824bec9r			; 3.92783e-005
CONST	ENDS
;	COMDAT ?g_XMTanCoefficients1@DirectX@@3UXMVECTORF32@1@B
CONST	SEGMENT
?g_XMTanCoefficients1@DirectX@@3UXMVECTORF32@1@B DD 03cb327a4r ; 0.0218695 ; DirectX::g_XMTanCoefficients1
	DD	03c11371br			; 0.00886324
	DD	03b6b69e9r			; 0.00359213
	DD	03abed1b3r			; 0.00145583
CONST	ENDS
;	COMDAT ?g_XMTanCoefficients0@DirectX@@3UXMVECTORF32@1@B
CONST	SEGMENT
?g_XMTanCoefficients0@DirectX@@3UXMVECTORF32@1@B DD 03f800000r ; 1 ; DirectX::g_XMTanCoefficients0
	DD	03eaaaaabr			; 0.333333
	DD	03e088889r			; 0.133333
	DD	03d5d0dd1r			; 0.0539683
CONST	ENDS
;	COMDAT ?g_XMCosCoefficients1@DirectX@@3UXMVECTORF32@1@B
CONST	SEGMENT
?g_XMCosCoefficients1@DirectX@@3UXMVECTORF32@1@B DD 0b48bdd11r ; -2.60516e-007 ; DirectX::g_XMCosCoefficients1
	DD	0befff67er			; -0.499927
	DD	03d29f587r			; 0.0414939
	DD	0baa69fdbr			; -0.00127124
CONST	ENDS
;	COMDAT ?g_XMCosCoefficients0@DirectX@@3UXMVECTORF32@1@B
CONST	SEGMENT
?g_XMCosCoefficients0@DirectX@@3UXMVECTORF32@1@B DD 0bf000000r ; -0.5 ; DirectX::g_XMCosCoefficients0
	DD	03d2aaaa3r			; 0.0416666
	DD	0bab609aar			; -0.00138884
	DD	037cfb4c2r			; 2.47605e-005
CONST	ENDS
;	COMDAT ?g_XMSinCoefficients1@DirectX@@3UXMVECTORF32@1@B
CONST	SEGMENT
?g_XMSinCoefficients1@DirectX@@3UXMVECTORF32@1@B DD 0b2cd365br ; -2.38899e-008 ; DirectX::g_XMSinCoefficients1
	DD	0be2aa888r			; -0.166659
	DD	03c08373cr			; 0.00831395
	DD	0b9423ec8r			; -0.000185247
CONST	ENDS
;	COMDAT ?g_XMSinCoefficients0@DirectX@@3UXMVECTORF32@1@B
CONST	SEGMENT
?g_XMSinCoefficients0@DirectX@@3UXMVECTORF32@1@B DD 0be2aaaabr ; -0.166667 ; DirectX::g_XMSinCoefficients0
	DD	03c088886r			; 0.00833333
	DD	0b9500bf1r			; -0.000198409
	DD	03638b88er			; 2.75256e-006
CONST	ENDS
;	COMDAT _IID_ID3D10EffectShaderResourceVariable
CONST	SEGMENT
_IID_ID3D10EffectShaderResourceVariable DD 0c0a7157bH
	DW	0d872H
	DW	04b1dH
	DB	080H
	DB	073H
	DB	0efH
	DB	0c2H
	DB	0acH
	DB	0d4H
	DB	0b1H
	DB	0fcH
CONST	ENDS
;	COMDAT _IID_ID3D11FunctionReflection
CONST	SEGMENT
_IID_ID3D11FunctionReflection DD 0207bcecbH
	DW	0d683H
	DW	04a06H
	DB	0a8H
	DB	0a3H
	DB	09bH
	DB	014H
	DB	09bH
	DB	09fH
	DB	073H
	DB	0a4H
CONST	ENDS
;	COMDAT _CLSID_WICPlanarFormatConverter
CONST	SEGMENT
_CLSID_WICPlanarFormatConverter DD 0184132b8H
	DW	032f8H
	DW	04784H
	DB	091H
	DB	031H
	DB	0ddH
	DB	072H
	DB	024H
	DB	0b2H
	DB	034H
	DB	038H
CONST	ENDS
;	COMDAT _CLSID_WICFormatConverterWMPhoto
CONST	SEGMENT
_CLSID_WICFormatConverterWMPhoto DD 09cb5172bH
	DW	0d600H
	DW	046baH
	DB	0abH
	DB	077H
	DB	077H
	DB	0bbH
	DB	07eH
	DB	03aH
	DB	00H
	DB	0d9H
CONST	ENDS
;	COMDAT _CLSID_WICFormatConverterNChannel
CONST	SEGMENT
_CLSID_WICFormatConverterNChannel DD 0c17cabb2H
	DW	0d4a3H
	DW	047d7H
	DB	0a5H
	DB	057H
	DB	033H
	DB	09bH
	DB	02eH
	DB	0fbH
	DB	0d4H
	DB	0f1H
CONST	ENDS
;	COMDAT _CLSID_WICFormatConverterHighColor
CONST	SEGMENT
_CLSID_WICFormatConverterHighColor DD 0ac75d454H
	DW	09f37H
	DW	048f8H
	DB	0b9H
	DB	072H
	DB	04eH
	DB	019H
	DB	0bcH
	DB	085H
	DB	060H
	DB	011H
CONST	ENDS
;	COMDAT _IID_ID3D11SamplerState
CONST	SEGMENT
_IID_ID3D11SamplerState DD 0da6fea51H
	DW	0564cH
	DW	04487H
	DB	098H
	DB	010H
	DB	0f0H
	DB	0d0H
	DB	0f9H
	DB	0b4H
	DB	0e3H
	DB	0a5H
CONST	ENDS
;	COMDAT _CLSID_WICDefaultFormatConverter
CONST	SEGMENT
_CLSID_WICDefaultFormatConverter DD 01a3f11dcH
	DW	0b514H
	DW	04b17H
	DB	08cH
	DB	05fH
	DB	021H
	DB	054H
	DB	051H
	DB	038H
	DB	052H
	DB	0f1H
CONST	ENDS
;	COMDAT _CATID_WICMetadataWriter
CONST	SEGMENT
_CATID_WICMetadataWriter DD 0abe3b9a4H
	DW	0257dH
	DW	04b97H
	DB	0bdH
	DB	01aH
	DB	029H
	DB	04aH
	DB	0f4H
	DB	096H
	DB	022H
	DB	02eH
CONST	ENDS
;	COMDAT _CATID_WICMetadataReader
CONST	SEGMENT
_CATID_WICMetadataReader DD 05af94d8H
	DW	07174H
	DW	04cd2H
	DB	0beH
	DB	04aH
	DB	041H
	DB	024H
	DB	0b8H
	DB	0eH
	DB	0e4H
	DB	0b8H
CONST	ENDS
;	COMDAT _CATID_WICFormatConverters
CONST	SEGMENT
_CATID_WICFormatConverters DD 07835eae8H
	DW	0bf14H
	DW	049d1H
	DB	093H
	DB	0ceH
	DB	053H
	DB	03aH
	DB	040H
	DB	07bH
	DB	022H
	DB	048H
CONST	ENDS
;	COMDAT _CATID_WICPixelFormats
CONST	SEGMENT
_CATID_WICPixelFormats DD 02b46e70fH
	DW	0cda7H
	DW	0473eH
	DB	089H
	DB	0f6H
	DB	0dcH
	DB	096H
	DB	030H
	DB	0a2H
	DB	039H
	DB	0bH
CONST	ENDS
;	COMDAT _CATID_WICBitmapEncoders
CONST	SEGMENT
_CATID_WICBitmapEncoders DD 0ac757296H
	DW	03522H
	DW	04e11H
	DB	098H
	DB	062H
	DB	0c1H
	DB	07bH
	DB	0e5H
	DB	0a1H
	DB	076H
	DB	07eH
CONST	ENDS
;	COMDAT _CATID_WICBitmapDecoders
CONST	SEGMENT
_CATID_WICBitmapDecoders DD 07ed96837H
	DW	096f0H
	DW	04812H
	DB	0b2H
	DB	011H
	DB	0f1H
	DB	03cH
	DB	024H
	DB	011H
	DB	07eH
	DB	0d3H
CONST	ENDS
;	COMDAT _CLSID_WICImagingCategories
CONST	SEGMENT
_CLSID_WICImagingCategories DD 0fae3d380H
	DW	0fea4H
	DW	04623H
	DB	08cH
	DB	075H
	DB	0c6H
	DB	0b6H
	DB	011H
	DB	010H
	DB	0b6H
	DB	081H
CONST	ENDS
;	COMDAT _GUID_ContainerFormatDds
CONST	SEGMENT
_GUID_ContainerFormatDds DD 09967cb95H
	DW	02e85H
	DW	04ac8H
	DB	08cH
	DB	0a2H
	DB	083H
	DB	0d7H
	DB	0ccH
	DB	0d4H
	DB	025H
	DB	0c9H
CONST	ENDS
;	COMDAT _GUID_ContainerFormatWmp
CONST	SEGMENT
_GUID_ContainerFormatWmp DD 057a37caaH
	DW	0367aH
	DW	04540H
	DB	091H
	DB	06bH
	DB	0f1H
	DB	083H
	DB	0c5H
	DB	09H
	DB	03aH
	DB	04bH
CONST	ENDS
;	COMDAT _GUID_ContainerFormatGif
CONST	SEGMENT
_GUID_ContainerFormatGif DD 01f8a5601H
	DW	07d4dH
	DW	04cbdH
	DB	09cH
	DB	082H
	DB	01bH
	DB	0c8H
	DB	0d4H
	DB	0eeH
	DB	0b9H
	DB	0a5H
CONST	ENDS
;	COMDAT _GUID_ContainerFormatTiff
CONST	SEGMENT
_GUID_ContainerFormatTiff DD 0163bcc30H
	DW	0e2e9H
	DW	04f0bH
	DB	096H
	DB	01dH
	DB	0a3H
	DB	0e9H
	DB	0fdH
	DB	0b7H
	DB	088H
	DB	0a3H
CONST	ENDS
;	COMDAT _GUID_ContainerFormatJpeg
CONST	SEGMENT
_GUID_ContainerFormatJpeg DD 019e4a5aaH
	DW	05662H
	DW	04fc5H
	DB	0a0H
	DB	0c0H
	DB	017H
	DB	058H
	DB	02H
	DB	08eH
	DB	010H
	DB	057H
CONST	ENDS
;	COMDAT _GUID_ContainerFormatIco
CONST	SEGMENT
_GUID_ContainerFormatIco DD 0a3a860c4H
	DW	0338fH
	DW	04c17H
	DB	091H
	DB	09aH
	DB	0fbH
	DB	0a4H
	DB	0b5H
	DB	062H
	DB	08fH
	DB	021H
CONST	ENDS
;	COMDAT _GUID_ContainerFormatPng
CONST	SEGMENT
_GUID_ContainerFormatPng DD 01b7cfaf4H
	DW	0713fH
	DW	0473cH
	DB	0bbH
	DB	0cdH
	DB	061H
	DB	037H
	DB	042H
	DB	05fH
	DB	0aeH
	DB	0afH
CONST	ENDS
;	COMDAT _IID_ID3D11LibraryReflection
CONST	SEGMENT
_IID_ID3D11LibraryReflection DD 054384f1bH
	DW	05b3eH
	DW	04bb7H
	DB	0aeH
	DB	01H
	DB	060H
	DB	0baH
	DB	030H
	DB	097H
	DB	0cbH
	DB	0b6H
CONST	ENDS
;	COMDAT _GUID_ContainerFormatBmp
CONST	SEGMENT
_GUID_ContainerFormatBmp DD 0af1d87eH
	DW	0fcfeH
	DW	04188H
	DB	0bdH
	DB	0ebH
	DB	0a7H
	DB	090H
	DB	064H
	DB	071H
	DB	0cbH
	DB	0e3H
CONST	ENDS
CONST	SEGMENT
$SG152594 DB	'D', 00H, 'X', 00H, 'U', 00H, 'T', 00H, '.', 00H, 'c', 00H
	DB	'p', 00H, 'p', 00H, 00H, 00H
	ORG $+6
$SG152595 DB	'D', 00H, 'X', 00H, 'U', 00H, 'T', 00H, 'G', 00H, 'e', 00H
	DB	't', 00H, 'D', 00H, 'X', 00H, 'G', 00H, 'I', 00H, 'B', 00H, 'a'
	DB	00H, 'c', 00H, 'k', 00H, 'B', 00H, 'u', 00H, 'f', 00H, 'f', 00H
	DB	'e', 00H, 'r', 00H, 'S', 00H, 'u', 00H, 'r', 00H, 'f', 00H, 'a'
	DB	00H, 'c', 00H, 'e', 00H, 'D', 00H, 'e', 00H, 's', 00H, 'c', 00H
	DB	'(', 00H, ')', 00H, '-', 00H, '>', 00H, 'W', 00H, 'i', 00H, 'd'
	DB	00H, 't', 00H, 'h', 00H, ' ', 00H, '=', 00H, '=', 00H, ' ', 00H
	DB	'(', 00H, 'U', 00H, 'I', 00H, 'N', 00H, 'T', 00H, ')', 00H, 'r'
	DB	00H, 'c', 00H, 'C', 00H, 'l', 00H, 'i', 00H, 'e', 00H, 'n', 00H
	DB	't', 00H, '.', 00H, 'r', 00H, 'i', 00H, 'g', 00H, 'h', 00H, 't'
	DB	00H, 00H, 00H
$SG152598 DB	'D', 00H, 'X', 00H, 'U', 00H, 'T', 00H, '.', 00H, 'c', 00H
	DB	'p', 00H, 'p', 00H, 00H, 00H
	ORG $+2
$SG152599 DB	'D', 00H, 'X', 00H, 'U', 00H, 'T', 00H, 'G', 00H, 'e', 00H
	DB	't', 00H, 'D', 00H, 'X', 00H, 'G', 00H, 'I', 00H, 'B', 00H, 'a'
	DB	00H, 'c', 00H, 'k', 00H, 'B', 00H, 'u', 00H, 'f', 00H, 'f', 00H
	DB	'e', 00H, 'r', 00H, 'S', 00H, 'u', 00H, 'r', 00H, 'f', 00H, 'a'
	DB	00H, 'c', 00H, 'e', 00H, 'D', 00H, 'e', 00H, 's', 00H, 'c', 00H
	DB	'(', 00H, ')', 00H, '-', 00H, '>', 00H, 'H', 00H, 'e', 00H, 'i'
	DB	00H, 'g', 00H, 'h', 00H, 't', 00H, ' ', 00H, '=', 00H, '=', 00H
	DB	' ', 00H, '(', 00H, 'U', 00H, 'I', 00H, 'N', 00H, 'T', 00H, ')'
	DB	00H, 'r', 00H, 'c', 00H, 'C', 00H, 'l', 00H, 'i', 00H, 'e', 00H
	DB	'n', 00H, 't', 00H, '.', 00H, 'b', 00H, 'o', 00H, 't', 00H, 't'
	DB	00H, 'o', 00H, 'm', 00H, 00H, 00H
$SG153632 DB	' ', 00H, '(', 00H, 'M', 00H, 'S', 00H, '%', 00H, 'u', 00H
	DB	',', 00H, ' ', 00H, 'Q', 00H, '%', 00H, 'u', 00H, ')', 00H, 00H
	DB	00H
	ORG $+2
$SG153635 DB	'o', 00H, 'f', 00H, 'f', 00H, 00H, 00H
$SG153636 DB	'o', 00H, 'n', 00H, 00H, 00H
	ORG $+2
$SG153656 DB	00H, 00H
	ORG $+2
$SG153637 DB	'D', 00H, '3', 00H, 'D', 00H, '1', 00H, '1', 00H, ' ', 00H
	DB	'%', 00H, '%', 00H, 's', 00H, 'V', 00H, 's', 00H, 'y', 00H, 'n'
	DB	00H, 'c', 00H, ' ', 00H, '%', 00H, 's', 00H, ' ', 00H, '(', 00H
	DB	'%', 00H, 'u', 00H, 'x', 00H, '%', 00H, 'u', 00H, ')', 00H, ','
	DB	00H, ' ', 00H, '%', 00H, 's', 00H, '%', 00H, 's', 00H, 00H, 00H
$SG153649 DB	'%', 00H, '0', 00H, '.', 00H, '2', 00H, 'f', 00H, ' ', 00H
	DB	'f', 00H, 'p', 00H, 's', 00H, ' ', 00H, 00H, 00H
	ORG $+2
$SG151611 DB	'f', 00H, 'o', 00H, 'r', 00H, 'c', 00H, 'e', 00H, 'f', 00H
	DB	'e', 00H, 'a', 00H, 't', 00H, 'u', 00H, 'r', 00H, 'e', 00H, 'l'
	DB	00H, 'e', 00H, 'v', 00H, 'e', 00H, 'l', 00H, 00H, 00H
$SG151614 DB	'D', 00H, '3', 00H, 'D', 00H, '_', 00H, 'F', 00H, 'E', 00H
	DB	'A', 00H, 'T', 00H, 'U', 00H, 'R', 00H, 'E', 00H, '_', 00H, 'L'
	DB	00H, 'E', 00H, 'V', 00H, 'E', 00H, 'L', 00H, '_', 00H, '1', 00H
	DB	'1', 00H, '_', 00H, '1', 00H, 00H, 00H
	ORG $+2
$SG151617 DB	'D', 00H, '3', 00H, 'D', 00H, '_', 00H, 'F', 00H, 'E', 00H
	DB	'A', 00H, 'T', 00H, 'U', 00H, 'R', 00H, 'E', 00H, '_', 00H, 'L'
	DB	00H, 'E', 00H, 'V', 00H, 'E', 00H, 'L', 00H, '_', 00H, '1', 00H
	DB	'1', 00H, '_', 00H, '0', 00H, 00H, 00H
	ORG $+2
$SG153666 DB	'R', 00H, 'E', 00H, 'F', 00H, 'E', 00H, 'R', 00H, 'E', 00H
	DB	'N', 00H, 'C', 00H, 'E', 00H, 00H, 00H
$SG151620 DB	'D', 00H, '3', 00H, 'D', 00H, '_', 00H, 'F', 00H, 'E', 00H
	DB	'A', 00H, 'T', 00H, 'U', 00H, 'R', 00H, 'E', 00H, '_', 00H, 'L'
	DB	00H, 'E', 00H, 'V', 00H, 'E', 00H, 'L', 00H, '_', 00H, '1', 00H
	DB	'0', 00H, '_', 00H, '1', 00H, 00H, 00H
	ORG $+2
$SG153669 DB	'H', 00H, 'A', 00H, 'R', 00H, 'D', 00H, 'W', 00H, 'A', 00H
	DB	'R', 00H, 'E', 00H, 00H, 00H
	ORG $+2
$SG151623 DB	'D', 00H, '3', 00H, 'D', 00H, '_', 00H, 'F', 00H, 'E', 00H
	DB	'A', 00H, 'T', 00H, 'U', 00H, 'R', 00H, 'E', 00H, '_', 00H, 'L'
	DB	00H, 'E', 00H, 'V', 00H, 'E', 00H, 'L', 00H, '_', 00H, '1', 00H
	DB	'0', 00H, '_', 00H, '0', 00H, 00H, 00H
	ORG $+2
$SG153672 DB	'S', 00H, 'O', 00H, 'F', 00H, 'T', 00H, 'W', 00H, 'A', 00H
	DB	'R', 00H, 'E', 00H, 00H, 00H
	ORG $+2
$SG151626 DB	'D', 00H, '3', 00H, 'D', 00H, '_', 00H, 'F', 00H, 'E', 00H
	DB	'A', 00H, 'T', 00H, 'U', 00H, 'R', 00H, 'E', 00H, '_', 00H, 'L'
	DB	00H, 'E', 00H, 'V', 00H, 'E', 00H, 'L', 00H, '_', 00H, '9', 00H
	DB	'_', 00H, '3', 00H, 00H, 00H
$SG153675 DB	'W', 00H, 'A', 00H, 'R', 00H, 'P', 00H, 00H, 00H
	ORG $+2
$SG153677 DB	':', 00H, ' ', 00H, 00H, 00H
	ORG $+2
$SG151629 DB	'D', 00H, '3', 00H, 'D', 00H, '_', 00H, 'F', 00H, 'E', 00H
	DB	'A', 00H, 'T', 00H, 'U', 00H, 'R', 00H, 'E', 00H, '_', 00H, 'L'
	DB	00H, 'E', 00H, 'V', 00H, 'E', 00H, 'L', 00H, '_', 00H, '9', 00H
	DB	'_', 00H, '2', 00H, 00H, 00H
$SG151632 DB	'D', 00H, '3', 00H, 'D', 00H, '_', 00H, 'F', 00H, 'E', 00H
	DB	'A', 00H, 'T', 00H, 'U', 00H, 'R', 00H, 'E', 00H, '_', 00H, 'L'
	DB	00H, 'E', 00H, 'V', 00H, 'E', 00H, 'L', 00H, '_', 00H, '9', 00H
	DB	'_', 00H, '1', 00H, 00H, 00H
$SG151634 DB	'a', 00H, 'd', 00H, 'a', 00H, 'p', 00H, 't', 00H, 'e', 00H
	DB	'r', 00H, 00H, 00H
$SG153684 DB	'D', 00H, 'X', 00H, 'U', 00H, 'T', 00H, '.', 00H, 'c', 00H
	DB	'p', 00H, 'p', 00H, 00H, 00H
	ORG $+2
$SG153685 DB	'p', 00H, 'd', 00H, '3', 00H, 'd', 00H, 'E', 00H, 'n', 00H
	DB	'u', 00H, 'm', 00H, 00H, 00H
	ORG $+2
$SG151638 DB	'w', 00H, 'i', 00H, 'n', 00H, 'd', 00H, 'o', 00H, 'w', 00H
	DB	'e', 00H, 'd', 00H, 00H, 00H
	ORG $+2
$SG151640 DB	'o', 00H, 'u', 00H, 't', 00H, 'p', 00H, 'u', 00H, 't', 00H
	DB	00H, 00H
	ORG $+2
$SG151644 DB	'f', 00H, 'u', 00H, 'l', 00H, 'l', 00H, 's', 00H, 'c', 00H
	DB	'r', 00H, 'e', 00H, 'e', 00H, 'n', 00H, 00H, 00H
	ORG $+2
$SG151646 DB	'f', 00H, 'o', 00H, 'r', 00H, 'c', 00H, 'e', 00H, 'h', 00H
	DB	'a', 00H, 'l', 00H, 00H, 00H
	ORG $+2
$SG153695 DB	' ', 00H, '(', 00H, 'F', 00H, 'L', 00H, ' ', 00H, '9', 00H
	DB	'.', 00H, '1', 00H, ')', 00H, 00H, 00H
$SG151648 DB	's', 00H, 'c', 00H, 'r', 00H, 'e', 00H, 'e', 00H, 'n', 00H
	DB	's', 00H, 'h', 00H, 'o', 00H, 't', 00H, 'e', 00H, 'x', 00H, 'i'
	DB	00H, 't', 00H, 00H, 00H
	ORG $+2
$SG153697 DB	' ', 00H, '(', 00H, 'F', 00H, 'L', 00H, ' ', 00H, '9', 00H
	DB	'.', 00H, '2', 00H, ')', 00H, 00H, 00H
$SG151650 DB	'%', 00H, 's', 00H, '.', 00H, 'b', 00H, 'm', 00H, 'p', 00H
	DB	00H, 00H
	ORG $+2
$SG153699 DB	' ', 00H, '(', 00H, 'F', 00H, 'L', 00H, ' ', 00H, '9', 00H
	DB	'.', 00H, '3', 00H, ')', 00H, 00H, 00H
$SG151652 DB	'f', 00H, 'o', 00H, 'r', 00H, 'c', 00H, 'e', 00H, 'r', 00H
	DB	'e', 00H, 'f', 00H, 00H, 00H
	ORG $+2
$SG153701 DB	' ', 00H, '(', 00H, 'F', 00H, 'L', 00H, ' ', 00H, '1', 00H
	DB	'0', 00H, '.', 00H, '0', 00H, ')', 00H, 00H, 00H
	ORG $+2
$SG151654 DB	'f', 00H, 'o', 00H, 'r', 00H, 'c', 00H, 'e', 00H, 'w', 00H
	DB	'a', 00H, 'r', 00H, 'p', 00H, 00H, 00H
$SG153703 DB	' ', 00H, '(', 00H, 'F', 00H, 'L', 00H, ' ', 00H, '1', 00H
	DB	'0', 00H, '.', 00H, '1', 00H, ')', 00H, 00H, 00H
	ORG $+2
$SG151656 DB	'f', 00H, 'o', 00H, 'r', 00H, 'c', 00H, 'e', 00H, 'v', 00H
	DB	's', 00H, 'y', 00H, 'n', 00H, 'c', 00H, 00H, 00H
	ORG $+2
$SG153705 DB	' ', 00H, '(', 00H, 'F', 00H, 'L', 00H, ' ', 00H, '1', 00H
	DB	'1', 00H, '.', 00H, '0', 00H, ')', 00H, 00H, 00H
	ORG $+2
$SG153707 DB	' ', 00H, '(', 00H, 'F', 00H, 'L', 00H, ' ', 00H, '1', 00H
	DB	'1', 00H, '.', 00H, '1', 00H, ')', 00H, 00H, 00H
	ORG $+2
$SG151660 DB	'w', 00H, 'i', 00H, 'd', 00H, 't', 00H, 'h', 00H, 00H, 00H
$SG152686 DB	'D', 00H, 'X', 00H, 'U', 00H, 'T', 00H, '.', 00H, 'c', 00H
	DB	'p', 00H, 'p', 00H, 00H, 00H
	ORG $+2
$SG152687 DB	'p', 00H, 'I', 00H, 'm', 00H, 'm', 00H, 'e', 00H, 'd', 00H
	DB	'i', 00H, 'a', 00H, 't', 00H, 'e', 00H, 'C', 00H, 'o', 00H, 'n'
	DB	00H, 't', 00H, 'e', 00H, 'x', 00H, 't', 00H, 00H, 00H
$SG151664 DB	'h', 00H, 'e', 00H, 'i', 00H, 'g', 00H, 'h', 00H, 't', 00H
	DB	00H, 00H
	ORG $+2
$SG151668 DB	's', 00H, 't', 00H, 'a', 00H, 'r', 00H, 't', 00H, 'x', 00H
	DB	00H, 00H
	ORG $+2
$SG151672 DB	's', 00H, 't', 00H, 'a', 00H, 'r', 00H, 't', 00H, 'y', 00H
	DB	00H, 00H
	ORG $+2
$SG151676 DB	'c', 00H, 'o', 00H, 'n', 00H, 's', 00H, 't', 00H, 'a', 00H
	DB	'n', 00H, 't', 00H, 'f', 00H, 'r', 00H, 'a', 00H, 'm', 00H, 'e'
	DB	00H, 't', 00H, 'i', 00H, 'm', 00H, 'e', 00H, 00H, 00H
$SG151682 DB	'q', 00H, 'u', 00H, 'i', 00H, 't', 00H, 'a', 00H, 'f', 00H
	DB	't', 00H, 'e', 00H, 'r', 00H, 'f', 00H, 'r', 00H, 'a', 00H, 'm'
	DB	00H, 'e', 00H, 00H, 00H
	ORG $+2
$SG151686 DB	'n', 00H, 'o', 00H, 'e', 00H, 'r', 00H, 'r', 00H, 'o', 00H
	DB	'r', 00H, 'm', 00H, 's', 00H, 'g', 00H, 'b', 00H, 'o', 00H, 'x'
	DB	00H, 'e', 00H, 's', 00H, 00H, 00H
$SG152711 DB	'D', 00H, 'X', 00H, 'U', 00H, 'T', 00H, 'C', 00H, 'l', 00H
	DB	'e', 00H, 'a', 00H, 'n', 00H, 'u', 00H, 'p', 00H, '3', 00H, 'D'
	DB	00H, 'E', 00H, 'n', 00H, 'v', 00H, 'i', 00H, 'r', 00H, 'o', 00H
	DB	'n', 00H, 'm', 00H, 'e', 00H, 'n', 00H, 't', 00H, 00H, 00H
	ORG $+2
$SG152712 DB	'DXUT.cpp', 00H
	ORG $+3
$SG151688 DB	'n', 00H, 'o', 00H, 's', 00H, 't', 00H, 'a', 00H, 't', 00H
	DB	's', 00H, 00H, 00H
$SG151690 DB	'a', 00H, 'u', 00H, 't', 00H, 'o', 00H, 'm', 00H, 'a', 00H
	DB	't', 00H, 'i', 00H, 'o', 00H, 'n', 00H, 00H, 00H
	ORG $+2
$SG151695 DB	'U', 00H, 'n', 00H, 'r', 00H, 'e', 00H, 'c', 00H, 'o', 00H
	DB	'g', 00H, 'n', 00H, 'i', 00H, 'z', 00H, 'e', 00H, 'd', 00H, ' '
	DB	00H, 'f', 00H, 'l', 00H, 'a', 00H, 'g', 00H, ':', 00H, ' ', 00H
	DB	'%', 00H, 's', 00H, 00H, 00H
$SG151728 DB	'D', 00H, 'X', 00H, 'U', 00H, 'T', 00H, 'C', 00H, 'r', 00H
	DB	'e', 00H, 'a', 00H, 't', 00H, 'e', 00H, 'W', 00H, 'i', 00H, 'n'
	DB	00H, 'd', 00H, 'o', 00H, 'w', 00H, 00H, 00H
	ORG $+2
$SG151729 DB	'DXUT.cpp', 00H
	ORG $+3
$SG151745 DB	'D', 00H, 'i', 00H, 'r', 00H, 'e', 00H, 'c', 00H, 't', 00H
	DB	'3', 00H, 'D', 00H, 'W', 00H, 'i', 00H, 'n', 00H, 'd', 00H, 'o'
	DB	00H, 'w', 00H, 'C', 00H, 'l', 00H, 'a', 00H, 's', 00H, 's', 00H
	DB	00H, 00H
$SG151750 DB	'R', 00H, 'e', 00H, 'g', 00H, 'i', 00H, 's', 00H, 't', 00H
	DB	'e', 00H, 'r', 00H, 'C', 00H, 'l', 00H, 'a', 00H, 's', 00H, 's'
	DB	00H, 00H, 00H
$SG151751 DB	'DXUT.cpp', 00H
	ORG $+3
$SG151764 DB	'D', 00H, 'i', 00H, 'r', 00H, 'e', 00H, 'c', 00H, 't', 00H
	DB	'3', 00H, 'D', 00H, 'W', 00H, 'i', 00H, 'n', 00H, 'd', 00H, 'o'
	DB	00H, 'w', 00H, 'C', 00H, 'l', 00H, 'a', 00H, 's', 00H, 's', 00H
	DB	00H, 00H
$SG151768 DB	'C', 00H, 'r', 00H, 'e', 00H, 'a', 00H, 't', 00H, 'e', 00H
	DB	'W', 00H, 'i', 00H, 'n', 00H, 'd', 00H, 'o', 00H, 'w', 00H, 00H
	DB	00H
	ORG $+2
$SG151769 DB	'DXUT.cpp', 00H
	ORG $+3
$SG152802 DB	'D', 00H, 'X', 00H, 'U', 00H, 'T', 00H, 'S', 00H, 'e', 00H
	DB	't', 00H, 'T', 00H, 'i', 00H, 'm', 00H, 'e', 00H, 'r', 00H, 00H
	DB	00H
	ORG $+2
$SG152803 DB	'DXUT.cpp', 00H
	ORG $+3
$SG151781 DB	'D', 00H, 'X', 00H, 'U', 00H, 'T', 00H, 'C', 00H, 'r', 00H
	DB	'e', 00H, 'a', 00H, 't', 00H, 'e', 00H, 'W', 00H, 'i', 00H, 'n'
	DB	00H, 'd', 00H, 'o', 00H, 'w', 00H, 00H, 00H
	ORG $+2
$SG151782 DB	'DXUT.cpp', 00H
	ORG $+3
$SG151787 DB	'D', 00H, 'X', 00H, 'U', 00H, 'T', 00H, 'S', 00H, 'e', 00H
	DB	't', 00H, 'W', 00H, 'i', 00H, 'n', 00H, 'd', 00H, 'o', 00H, 'w'
	DB	00H, 00H, 00H
$SG151788 DB	'DXUT.cpp', 00H
	ORG $+3
$SG151795 DB	'S', 00H, 'e', 00H, 't', 00H, 'W', 00H, 'i', 00H, 'n', 00H
	DB	'd', 00H, 'o', 00H, 'w', 00H, 'L', 00H, 'o', 00H, 'n', 00H, 'g'
	DB	00H, 'P', 00H, 't', 00H, 'r', 00H, 00H, 00H
	ORG $+2
$SG151796 DB	'DXUT.cpp', 00H
	ORG $+3
$SG151955 DB	'D', 00H, 'i', 00H, 'r', 00H, 'e', 00H, 'c', 00H, 't', 00H
	DB	'3', 00H, 'D', 00H, 'W', 00H, 'i', 00H, 'n', 00H, 'd', 00H, 'o'
	DB	00H, 'w', 00H, 'C', 00H, 'l', 00H, 'a', 00H, 's', 00H, 's', 00H
	DB	00H, 00H
$SG152980 DB	'D', 00H, 'X', 00H, 'U', 00H, 'T', 00H, 'K', 00H, 'i', 00H
	DB	'l', 00H, 'l', 00H, 'T', 00H, 'i', 00H, 'm', 00H, 'e', 00H, 'r'
	DB	00H, 00H, 00H
$SG152981 DB	'DXUT.cpp', 00H
	ORG $+3
$SG151971 DB	'D', 00H, 'X', 00H, 'U', 00H, 'T', 00H, 'M', 00H, 'a', 00H
	DB	'i', 00H, 'n', 00H, 'L', 00H, 'o', 00H, 'o', 00H, 'p', 00H, 00H
	DB	00H
	ORG $+2
$SG151972 DB	'DXUT.cpp', 00H
	ORG $+3
$SG151989 DB	'D', 00H, 'X', 00H, 'U', 00H, 'T', 00H, 'M', 00H, 'a', 00H
	DB	'i', 00H, 'n', 00H, 'L', 00H, 'o', 00H, 'o', 00H, 'p', 00H, 00H
	DB	00H
	ORG $+2
$SG151990 DB	'DXUT.cpp', 00H
	ORG $+3
$SG153026 DB	'C', 00H, 'o', 00H, 'u', 00H, 'l', 00H, 'd', 00H, ' ', 00H
	DB	'n', 00H, 'o', 00H, 't', 00H, ' ', 00H, 'i', 00H, 'n', 00H, 'i'
	DB	00H, 't', 00H, 'i', 00H, 'a', 00H, 'l', 00H, 'i', 00H, 'z', 00H
	DB	'e', 00H, ' ', 00H, 'D', 00H, 'i', 00H, 'r', 00H, 'e', 00H, 'c'
	DB	00H, 't', 00H, '3', 00H, 'D', 00H, ' ', 00H, '1', 00H, '1', 00H
	DB	'.', 00H, ' ', 00H, 00H, 00H
	ORG $+2
$SG153033 DB	'D', 00H, 'i', 00H, 'r', 00H, 'e', 00H, 'c', 00H, 't', 00H
	DB	'3', 00H, 'D', 00H, ' ', 00H, 'd', 00H, 'o', 00H, 'e', 00H, 's'
	DB	00H, ' ', 00H, 'n', 00H, 'o', 00H, 't', 00H, ' ', 00H, 'w', 00H
	DB	'o', 00H, 'r', 00H, 'k', 00H, ' ', 00H, 'o', 00H, 'v', 00H, 'e'
	DB	00H, 'r', 00H, ' ', 00H, 'a', 00H, ' ', 00H, 'r', 00H, 'e', 00H
	DB	'm', 00H, 'o', 00H, 't', 00H, 'e', 00H, ' ', 00H, 's', 00H, 'e'
	DB	00H, 's', 00H, 's', 00H, 'i', 00H, 'o', 00H, 'n', 00H, '.', 00H
	DB	00H, 00H
$SG152013 DB	'D', 00H, 'X', 00H, 'U', 00H, 'T', 00H, 'C', 00H, 'r', 00H
	DB	'e', 00H, 'a', 00H, 't', 00H, 'e', 00H, 'D', 00H, 'e', 00H, 'v'
	DB	00H, 'i', 00H, 'c', 00H, 'e', 00H, 00H, 00H
	ORG $+2
$SG153035 DB	'C', 00H, 'o', 00H, 'u', 00H, 'l', 00H, 'd', 00H, ' ', 00H
	DB	'n', 00H, 'o', 00H, 't', 00H, ' ', 00H, 'f', 00H, 'i', 00H, 'n'
	DB	00H, 'd', 00H, ' ', 00H, 'a', 00H, 'n', 00H, 'y', 00H, ' ', 00H
	DB	'c', 00H, 'o', 00H, 'm', 00H, 'p', 00H, 'a', 00H, 't', 00H, 'i'
	DB	00H, 'b', 00H, 'l', 00H, 'e', 00H, ' ', 00H, 'D', 00H, 'i', 00H
	DB	'r', 00H, 'e', 00H, 'c', 00H, 't', 00H, '3', 00H, 'D', 00H, ' '
	DB	00H, 'd', 00H, 'e', 00H, 'v', 00H, 'i', 00H, 'c', 00H, 'e', 00H
	DB	's', 00H, '.', 00H, 00H, 00H
$SG152014 DB	'DXUT.cpp', 00H
	ORG $+3
$SG153041 DB	'C', 00H, 'o', 00H, 'u', 00H, 'l', 00H, 'd', 00H, ' ', 00H
	DB	'n', 00H, 'o', 00H, 't', 00H, ' ', 00H, 'f', 00H, 'i', 00H, 'n'
	DB	00H, 'd', 00H, ' ', 00H, 'r', 00H, 'e', 00H, 'q', 00H, 'u', 00H
	DB	'i', 00H, 'r', 00H, 'e', 00H, 'd', 00H, ' ', 00H, 'm', 00H, 'e'
	DB	00H, 'd', 00H, 'i', 00H, 'a', 00H, '.', 00H, 00H, 00H
	ORG $+2
$SG152018 DB	'D', 00H, 'i', 00H, 'r', 00H, 'e', 00H, 'c', 00H, 't', 00H
	DB	'3', 00H, 'D', 00H, ' ', 00H, 'W', 00H, 'i', 00H, 'n', 00H, 'd'
	DB	00H, 'o', 00H, 'w', 00H, 00H, 00H
$SG152032 DB	'E', 00H, 'r', 00H, 'r', 00H, 'o', 00H, 'r', 00H, 00H, 00H
$SG153047 DB	'T', 00H, 'h', 00H, 'e', 00H, ' ', 00H, 'D', 00H, 'i', 00H
	DB	'r', 00H, 'e', 00H, 'c', 00H, 't', 00H, '3', 00H, 'D', 00H, ' '
	DB	00H, 'd', 00H, 'e', 00H, 'v', 00H, 'i', 00H, 'c', 00H, 'e', 00H
	DB	' ', 00H, 'h', 00H, 'a', 00H, 's', 00H, ' ', 00H, 'a', 00H, ' '
	DB	00H, 'n', 00H, 'o', 00H, 'n', 00H, '-', 00H, 'z', 00H, 'e', 00H
	DB	'r', 00H, 'o', 00H, ' ', 00H, 'r', 00H, 'e', 00H, 'f', 00H, 'e'
	DB	00H, 'r', 00H, 'e', 00H, 'n', 00H, 'c', 00H, 'e', 00H, ' ', 00H
	DB	'c', 00H, 'o', 00H, 'u', 00H, 'n', 00H, 't', 00H, ',', 00H, ' '
	DB	00H, 'm', 00H, 'e', 00H, 'a', 00H, 'n', 00H, 'i', 00H, 'n', 00H
	DB	'g', 00H, ' ', 00H, 's', 00H, 'o', 00H, 'm', 00H, 'e', 00H, ' '
	DB	00H, 'o', 00H, 'b', 00H, 'j', 00H, 'e', 00H, 'c', 00H, 't', 00H
	DB	's', 00H, ' ', 00H, 'w', 00H, 'e', 00H, 'r', 00H, 'e', 00H, ' '
	DB	00H, 'n', 00H, 'o', 00H, 't', 00H, ' ', 00H, 'r', 00H, 'e', 00H
	DB	'l', 00H, 'e', 00H, 'a', 00H, 's', 00H, 'e', 00H, 'd', 00H, '.'
	DB	00H, 00H, 00H
$SG153053 DB	'F', 00H, 'a', 00H, 'i', 00H, 'l', 00H, 'e', 00H, 'd', 00H
	DB	' ', 00H, 'c', 00H, 'r', 00H, 'e', 00H, 'a', 00H, 't', 00H, 'i'
	DB	00H, 'n', 00H, 'g', 00H, ' ', 00H, 't', 00H, 'h', 00H, 'e', 00H
	DB	' ', 00H, 'D', 00H, 'i', 00H, 'r', 00H, 'e', 00H, 'c', 00H, 't'
	DB	00H, '3', 00H, 'D', 00H, ' ', 00H, 'd', 00H, 'e', 00H, 'v', 00H
	DB	'i', 00H, 'c', 00H, 'e', 00H, '.', 00H, 00H, 00H
	ORG $+2
$SG152036 DB	'E', 00H, 'r', 00H, 'r', 00H, 'o', 00H, 'r', 00H, 00H, 00H
$SG152033 DB	'D', 00H, 'i', 00H, 'r', 00H, 'e', 00H, 'c', 00H, 't', 00H
	DB	'3', 00H, 'D', 00H, ' ', 00H, '1', 00H, '1', 00H, ' ', 00H, 'c'
	DB	00H, 'o', 00H, 'm', 00H, 'p', 00H, 'o', 00H, 'n', 00H, 'e', 00H
	DB	'n', 00H, 't', 00H, 's', 00H, ' ', 00H, 'w', 00H, 'e', 00H, 'r'
	DB	00H, 'e', 00H, ' ', 00H, 'n', 00H, 'o', 00H, 't', 00H, ' ', 00H
	DB	'f', 00H, 'o', 00H, 'u', 00H, 'n', 00H, 'd', 00H, '.', 00H, 00H
	DB	00H
	ORG $+2
$SG153059 DB	'F', 00H, 'a', 00H, 'i', 00H, 'l', 00H, 'e', 00H, 'd', 00H
	DB	' ', 00H, 'r', 00H, 'e', 00H, 's', 00H, 'e', 00H, 't', 00H, 't'
	DB	00H, 'i', 00H, 'n', 00H, 'g', 00H, ' ', 00H, 't', 00H, 'h', 00H
	DB	'e', 00H, ' ', 00H, 'D', 00H, 'i', 00H, 'r', 00H, 'e', 00H, 'c'
	DB	00H, 't', 00H, '3', 00H, 'D', 00H, ' ', 00H, 'd', 00H, 'e', 00H
	DB	'v', 00H, 'i', 00H, 'c', 00H, 'e', 00H, '.', 00H, 00H, 00H
$SG152040 DB	'E', 00H, 'r', 00H, 'r', 00H, 'o', 00H, 'r', 00H, 00H, 00H
$SG152037 DB	'D', 00H, 'i', 00H, 'r', 00H, 'e', 00H, 'c', 00H, 't', 00H
	DB	'3', 00H, 'D', 00H, ' ', 00H, '1', 00H, '1', 00H, ' ', 00H, 'c'
	DB	00H, 'o', 00H, 'm', 00H, 'p', 00H, 'o', 00H, 'n', 00H, 'e', 00H
	DB	'n', 00H, 't', 00H, 's', 00H, ' ', 00H, 'w', 00H, 'e', 00H, 'r'
	DB	00H, 'e', 00H, ' ', 00H, 'n', 00H, 'o', 00H, 't', 00H, ' ', 00H
	DB	'f', 00H, 'o', 00H, 'u', 00H, 'n', 00H, 'd', 00H, ',', 00H, ' '
	DB	00H, 'b', 00H, 'u', 00H, 't', 00H, ' ', 00H, 'a', 00H, 'r', 00H
	DB	'e', 00H, ' ', 00H, 'a', 00H, 'v', 00H, 'a', 00H, 'i', 00H, 'l'
	DB	00H, 'a', 00H, 'b', 00H, 'l', 00H, 'e', 00H, ' ', 00H, 'f', 00H
	DB	'o', 00H, 'r', 00H, ' ', 00H, 't', 00H, 'h', 00H, 'i', 00H, 's'
	DB	00H, ' ', 00H, 'v', 00H, 'e', 00H, 'r', 00H, 's', 00H, 'i', 00H
	DB	'o', 00H, 'n', 00H, ' ', 00H, 'o', 00H, 'f', 00H, ' ', 00H, 'W'
	DB	00H, 'i', 00H, 'n', 00H, 'd', 00H, 'o', 00H, 'w', 00H, 's', 00H
	DB	'.', 00H, 0aH, 00H, 'F', 00H, 'o', 00H, 'r', 00H, ' ', 00H, 'd'
	DB	00H, 'e', 00H, 't', 00H, 'a', 00H, 'i', 00H, 'l', 00H, 's', 00H
	DB	' ', 00H, 's', 00H, 'e', 00H, 'e', 00H, ' ', 00H, 'M', 00H, 'i'
	DB	00H, 'c', 00H, 'r', 00H, 'o', 00H, 's', 00H, 'o', 00H, 'f', 00H
	DB	't', 00H, ' ', 00H, 'K', 00H, 'n', 00H, 'o', 00H, 'w', 00H, 'l'
	DB	00H, 'e', 00H, 'd', 00H, 'g', 00H, 'e', 00H, ' ', 00H, 'B', 00H
	DB	'a', 00H, 's', 00H, 'e', 00H, ' ', 00H, 'A', 00H, 'r', 00H, 't'
	DB	00H, 'i', 00H, 'c', 00H, 'l', 00H, 'e', 00H, ' ', 00H, '#', 00H
	DB	'9', 00H, '7', 00H, '1', 00H, '6', 00H, '4', 00H, '4', 00H, 0aH
	DB	00H, 'h', 00H, 't', 00H, 't', 00H, 'p', 00H, ':', 00H, '/', 00H
	DB	'/', 00H, 'g', 00H, 'o', 00H, '.', 00H, 'm', 00H, 'i', 00H, 'c'
	DB	00H, 'r', 00H, 'o', 00H, 's', 00H, 'o', 00H, 'f', 00H, 't', 00H
	DB	'.', 00H, 'c', 00H, 'o', 00H, 'm', 00H, '/', 00H, 'f', 00H, 'w'
	DB	00H, 'l', 00H, 'i', 00H, 'n', 00H, 'k', 00H, '/', 00H, '?', 00H
	DB	'L', 00H, 'i', 00H, 'n', 00H, 'k', 00H, 'I', 00H, 'd', 00H, '='
	DB	00H, '1', 00H, '6', 00H, '0', 00H, '1', 00H, '8', 00H, '9', 00H
	DB	00H, 00H
	ORG $+2
$SG152043 DB	'E', 00H, 'r', 00H, 'r', 00H, 'o', 00H, 'r', 00H, 00H, 00H
$SG153065 DB	'A', 00H, 'n', 00H, ' ', 00H, 'e', 00H, 'r', 00H, 'r', 00H
	DB	'o', 00H, 'r', 00H, ' ', 00H, 'o', 00H, 'c', 00H, 'c', 00H, 'u'
	DB	00H, 'r', 00H, 'r', 00H, 'e', 00H, 'd', 00H, ' ', 00H, 'i', 00H
	DB	'n', 00H, ' ', 00H, 't', 00H, 'h', 00H, 'e', 00H, ' ', 00H, 'd'
	DB	00H, 'e', 00H, 'v', 00H, 'i', 00H, 'c', 00H, 'e', 00H, ' ', 00H
	DB	'c', 00H, 'r', 00H, 'e', 00H, 'a', 00H, 't', 00H, 'e', 00H, ' '
	DB	00H, 'c', 00H, 'a', 00H, 'l', 00H, 'l', 00H, 'b', 00H, 'a', 00H
	DB	'c', 00H, 'k', 00H, ' ', 00H, 'f', 00H, 'u', 00H, 'n', 00H, 'c'
	DB	00H, 't', 00H, 'i', 00H, 'o', 00H, 'n', 00H, '.', 00H, 00H, 00H
$SG153082 DB	'D', 00H, 'X', 00H, 'U', 00H, 'T', 00H, ' ', 00H, 'A', 00H
	DB	'p', 00H, 'p', 00H, 'l', 00H, 'i', 00H, 'c', 00H, 'a', 00H, 't'
	DB	00H, 'i', 00H, 'o', 00H, 'n', 00H, 00H, 00H
	ORG $+2
$SG152041 DB	'D', 00H, 'i', 00H, 'r', 00H, 'e', 00H, 'c', 00H, 't', 00H
	DB	'3', 00H, 'D', 00H, ' ', 00H, '1', 00H, '1', 00H, ' ', 00H, 'c'
	DB	00H, 'o', 00H, 'm', 00H, 'p', 00H, 'o', 00H, 'n', 00H, 'e', 00H
	DB	'n', 00H, 't', 00H, 's', 00H, ' ', 00H, 'w', 00H, 'e', 00H, 'r'
	DB	00H, 'e', 00H, ' ', 00H, 'n', 00H, 'o', 00H, 't', 00H, ' ', 00H
	DB	'f', 00H, 'o', 00H, 'u', 00H, 'n', 00H, 'd', 00H, '.', 00H, ' '
	DB	00H, 'P', 00H, 'l', 00H, 'e', 00H, 'a', 00H, 's', 00H, 'e', 00H
	DB	' ', 00H, 'i', 00H, 'n', 00H, 's', 00H, 't', 00H, 'a', 00H, 'l'
	DB	00H, 'l', 00H, ' ', 00H, 't', 00H, 'h', 00H, 'e', 00H, ' ', 00H
	DB	'l', 00H, 'a', 00H, 't', 00H, 'e', 00H, 's', 00H, 't', 00H, ' '
	DB	00H, 'S', 00H, 'e', 00H, 'r', 00H, 'v', 00H, 'i', 00H, 'c', 00H
	DB	'e', 00H, ' ', 00H, 'P', 00H, 'a', 00H, 'c', 00H, 'k', 00H, '.'
	DB	00H, 0aH, 00H, 'F', 00H, 'o', 00H, 'r', 00H, ' ', 00H, 'd', 00H
	DB	'e', 00H, 't', 00H, 'a', 00H, 'i', 00H, 'l', 00H, 's', 00H, ' '
	DB	00H, 's', 00H, 'e', 00H, 'e', 00H, ' ', 00H, 'M', 00H, 'i', 00H
	DB	'c', 00H, 'r', 00H, 'o', 00H, 's', 00H, 'o', 00H, 'f', 00H, 't'
	DB	00H, ' ', 00H, 'K', 00H, 'n', 00H, 'o', 00H, 'w', 00H, 'l', 00H
	DB	'e', 00H, 'd', 00H, 'g', 00H, 'e', 00H, ' ', 00H, 'B', 00H, 'a'
	DB	00H, 's', 00H, 'e', 00H, ' ', 00H, 'A', 00H, 'r', 00H, 't', 00H
	DB	'i', 00H, 'c', 00H, 'l', 00H, 'e', 00H, ' ', 00H, '#', 00H, '9'
	DB	00H, '3', 00H, '5', 00H, '7', 00H, '9', 00H, '1', 00H, 0aH, 00H
	DB	'h', 00H, 't', 00H, 't', 00H, 'p', 00H, ':', 00H, '/', 00H, '/'
	DB	00H, 's', 00H, 'u', 00H, 'p', 00H, 'p', 00H, 'o', 00H, 'r', 00H
	DB	't', 00H, '.', 00H, 'm', 00H, 'i', 00H, 'c', 00H, 'r', 00H, 'o'
	DB	00H, 's', 00H, 'o', 00H, 'f', 00H, 't', 00H, '.', 00H, 'c', 00H
	DB	'o', 00H, 'm', 00H, '/', 00H, 'k', 00H, 'b', 00H, '/', 00H, '9'
	DB	00H, '3', 00H, '5', 00H, '7', 00H, '9', 00H, '1', 00H, '/', 00H
	DB	00H, 00H
$SG152044 DB	'D', 00H, 'i', 00H, 'r', 00H, 'e', 00H, 'c', 00H, 't', 00H
	DB	'3', 00H, 'D', 00H, ' ', 00H, '1', 00H, '1', 00H, ' ', 00H, 'i'
	DB	00H, 's', 00H, ' ', 00H, 'n', 00H, 'o', 00H, 't', 00H, ' ', 00H
	DB	's', 00H, 'u', 00H, 'p', 00H, 'p', 00H, 'o', 00H, 'r', 00H, 't'
	DB	00H, 'e', 00H, 'd', 00H, ' ', 00H, 'o', 00H, 'n', 00H, ' ', 00H
	DB	't', 00H, 'h', 00H, 'i', 00H, 's', 00H, ' ', 00H, 'O', 00H, 'S'
	DB	00H, '.', 00H, 00H, 00H
	ORG $+2
$SG152059 DB	'D', 00H, 'i', 00H, 'r', 00H, 'e', 00H, 'c', 00H, 't', 00H
	DB	'3', 00H, 'D', 00H, ' ', 00H, 'W', 00H, 'i', 00H, 'n', 00H, 'd'
	DB	00H, 'o', 00H, 'w', 00H, 00H, 00H
$SG152088 DB	'DXUT.cpp', 00H
	ORG $+3
$SG153071 DB	'A', 00H, 'n', 00H, ' ', 00H, 'e', 00H, 'r', 00H, 'r', 00H
	DB	'o', 00H, 'r', 00H, ' ', 00H, 'o', 00H, 'c', 00H, 'c', 00H, 'u'
	DB	00H, 'r', 00H, 'r', 00H, 'e', 00H, 'd', 00H, ' ', 00H, 'i', 00H
	DB	'n', 00H, ' ', 00H, 't', 00H, 'h', 00H, 'e', 00H, ' ', 00H, 'd'
	DB	00H, 'e', 00H, 'v', 00H, 'i', 00H, 'c', 00H, 'e', 00H, ' ', 00H
	DB	'r', 00H, 'e', 00H, 's', 00H, 'e', 00H, 't', 00H, ' ', 00H, 'c'
	DB	00H, 'a', 00H, 'l', 00H, 'l', 00H, 'b', 00H, 'a', 00H, 'c', 00H
	DB	'k', 00H, ' ', 00H, 'f', 00H, 'u', 00H, 'n', 00H, 'c', 00H, 't'
	DB	00H, 'i', 00H, 'o', 00H, 'n', 00H, '.', 00H, 00H, 00H
	ORG $+2
$SG152087 DB	'D', 00H, 'X', 00H, 'U', 00H, 'T', 00H, 'F', 00H, 'i', 00H
	DB	'n', 00H, 'd', 00H, 'V', 00H, 'a', 00H, 'l', 00H, 'i', 00H, 'd'
	DB	00H, 'D', 00H, 'e', 00H, 'v', 00H, 'i', 00H, 'c', 00H, 'e', 00H
	DB	'S', 00H, 'e', 00H, 't', 00H, 't', 00H, 'i', 00H, 'n', 00H, 'g'
	DB	00H, 's', 00H, 00H, 00H
$SG152109 DB	'DXUT.cpp', 00H
	ORG $+3
$SG153077 DB	'T', 00H, 'h', 00H, 'e', 00H, ' ', 00H, 'D', 00H, 'i', 00H
	DB	'r', 00H, 'e', 00H, 'c', 00H, 't', 00H, '3', 00H, 'D', 00H, ' '
	DB	00H, 'd', 00H, 'e', 00H, 'v', 00H, 'i', 00H, 'c', 00H, 'e', 00H
	DB	' ', 00H, 'w', 00H, 'a', 00H, 's', 00H, ' ', 00H, 'r', 00H, 'e'
	DB	00H, 'm', 00H, 'o', 00H, 'v', 00H, 'e', 00H, 'd', 00H, '.', 00H
	DB	00H, 00H
	ORG $+2
$SG152108 DB	'D', 00H, 'X', 00H, 'U', 00H, 'T', 00H, 'F', 00H, 'i', 00H
	DB	'n', 00H, 'd', 00H, 'V', 00H, 'a', 00H, 'l', 00H, 'i', 00H, 'd'
	DB	00H, 'D', 00H, 'e', 00H, 'v', 00H, 'i', 00H, 'c', 00H, 'e', 00H
	DB	'S', 00H, 'e', 00H, 't', 00H, 't', 00H, 'i', 00H, 'n', 00H, 'g'
	DB	00H, 's', 00H, 00H, 00H
$SG153176 DB	'D', 00H, 'X', 00H, 'U', 00H, 'T', 00H, '.', 00H, 'c', 00H
	DB	'p', 00H, 'p', 00H, 00H, 00H
	ORG $+2
$SG153177 DB	'p', 00H, 'S', 00H, 'w', 00H, 'a', 00H, 'p', 00H, 'C', 00H
	DB	'h', 00H, 'a', 00H, 'i', 00H, 'n', 00H, 00H, 00H
	ORG $+2
$SG153200 DB	'D', 00H, 'X', 00H, 'U', 00H, 'T', 00H, '.', 00H, 'c', 00H
	DB	'p', 00H, 'p', 00H, 00H, 00H
	ORG $+2
$SG153201 DB	'p', 00H, 'D', 00H, 'e', 00H, 'v', 00H, 'S', 00H, 'e', 00H
	DB	't', 00H, 't', 00H, 'i', 00H, 'n', 00H, 'g', 00H, 's', 00H, 00H
	DB	00H
	ORG $+2
$SG153207 DB	'D', 00H, 'X', 00H, 'U', 00H, 'T', 00H, '.', 00H, 'c', 00H
	DB	'p', 00H, 'p', 00H, 00H, 00H
	ORG $+2
$SG153208 DB	'p', 00H, 'd', 00H, '3', 00H, 'd', 00H, 'D', 00H, 'e', 00H
	DB	'v', 00H, 'i', 00H, 'c', 00H, 'e', 00H, 00H, 00H
	ORG $+2
$SG153212 DB	'D', 00H, 'X', 00H, 'U', 00H, 'T', 00H, '.', 00H, 'c', 00H
	DB	'p', 00H, 'p', 00H, 00H, 00H
	ORG $+2
$SG153213 DB	'p', 00H, 'd', 00H, '3', 00H, 'd', 00H, 'I', 00H, 'm', 00H
	DB	'm', 00H, 'e', 00H, 'd', 00H, 'i', 00H, 'a', 00H, 't', 00H, 'e'
	DB	00H, 'C', 00H, 'o', 00H, 'n', 00H, 't', 00H, 'e', 00H, 'x', 00H
	DB	't', 00H, 00H, 00H
	ORG $+2
$SG153231 DB	'DXUT.cpp', 00H
	ORG $+3
$SG153230 DB	'p', 00H, 'S', 00H, 'w', 00H, 'a', 00H, 'p', 00H, 'C', 00H
	DB	'h', 00H, 'a', 00H, 'i', 00H, 'n', 00H, '-', 00H, '>', 00H, 'R'
	DB	00H, 'e', 00H, 's', 00H, 'i', 00H, 'z', 00H, 'e', 00H, 'B', 00H
	DB	'u', 00H, 'f', 00H, 'f', 00H, 'e', 00H, 'r', 00H, 's', 00H, '('
	DB	00H, ' ', 00H, 'p', 00H, 'D', 00H, 'e', 00H, 'v', 00H, 'S', 00H
	DB	'e', 00H, 't', 00H, 't', 00H, 'i', 00H, 'n', 00H, 'g', 00H, 's'
	DB	00H, '-', 00H, '>', 00H, 'd', 00H, '3', 00H, 'd', 00H, '1', 00H
	DB	'1', 00H, '.', 00H, 's', 00H, 'd', 00H, '.', 00H, 'B', 00H, 'u'
	DB	00H, 'f', 00H, 'f', 00H, 'e', 00H, 'r', 00H, 'C', 00H, 'o', 00H
	DB	'u', 00H, 'n', 00H, 't', 00H, ',', 00H, ' ', 00H, 'W', 00H, 'i'
	DB	00H, 'd', 00H, 't', 00H, 'h', 00H, ',', 00H, ' ', 00H, 'H', 00H
	DB	'e', 00H, 'i', 00H, 'g', 00H, 'h', 00H, 't', 00H, ',', 00H, ' '
	DB	00H, 'p', 00H, 'D', 00H, 'e', 00H, 'v', 00H, 'S', 00H, 'e', 00H
	DB	't', 00H, 't', 00H, 'i', 00H, 'n', 00H, 'g', 00H, 's', 00H, '-'
	DB	00H, '>', 00H, 'd', 00H, '3', 00H, 'd', 00H, '1', 00H, '1', 00H
	DB	'.', 00H, 's', 00H, 'd', 00H, '.', 00H, 'B', 00H, 'u', 00H, 'f'
	DB	00H, 'f', 00H, 'e', 00H, 'r', 00H, 'D', 00H, 'e', 00H, 's', 00H
	DB	'c', 00H, '.', 00H, 'F', 00H, 'o', 00H, 'r', 00H, 'm', 00H, 'a'
	DB	00H, 't', 00H, ',', 00H, ' ', 00H, 'F', 00H, 'l', 00H, 'a', 00H
	DB	'g', 00H, 's', 00H, ' ', 00H, ')', 00H, 00H, 00H
$SG153238 DB	'D', 00H, 'X', 00H, 'U', 00H, 'T', 00H, 'C', 00H, 'r', 00H
	DB	'e', 00H, 'a', 00H, 't', 00H, 'e', 00H, 'D', 00H, '3', 00H, 'D'
	DB	00H, '1', 00H, '1', 00H, 'V', 00H, 'i', 00H, 'e', 00H, 'w', 00H
	DB	's', 00H, 00H, 00H
	ORG $+2
$SG153239 DB	'DXUT.cpp', 00H
	ORG $+3
$SG153248 DB	'D', 00H, 'e', 00H, 'v', 00H, 'i', 00H, 'c', 00H, 'e', 00H
	DB	'R', 00H, 'e', 00H, 's', 00H, 'e', 00H, 't', 00H, 'C', 00H, 'a'
	DB	00H, 'l', 00H, 'l', 00H, 'b', 00H, 'a', 00H, 'c', 00H, 'k', 00H
	DB	00H, 00H
$SG153249 DB	'DXUT.cpp', 00H
	ORG $+3
$SG153267 DB	'D', 00H, 'X', 00H, 'U', 00H, 'T', 00H, '.', 00H, 'c', 00H
	DB	'p', 00H, 'p', 00H, 00H, 00H
	ORG $+2
$SG153268 DB	'p', 00H, 'S', 00H, 'w', 00H, 'a', 00H, 'p', 00H, 'C', 00H
	DB	'h', 00H, 'a', 00H, 'i', 00H, 'n', 00H, 00H, 00H
	ORG $+2
$SG152279 DB	'DXUT', 00H
	ORG $+3
$SG153306 DB	'D', 00H, 'X', 00H, 'U', 00H, 'T', 00H, '.', 00H, 'c', 00H
	DB	'p', 00H, 'p', 00H, 00H, 00H
	ORG $+2
$SG153307 DB	'p', 00H, 'D', 00H, '3', 00H, 'D', 00H, 'E', 00H, 'n', 00H
	DB	'u', 00H, 'm', 00H, 00H, 00H
	ORG $+2
$SG152285 DB	'DXUT', 00H
	ORG $+3
$SG152291 DB	'DXUT', 00H
	ORG $+3
_XM_PI	DD	040490fdbr			; 3.14159
_XM_2PI	DD	040c90fdbr			; 6.28319
_XM_1DIVPI DD	03ea2f983r			; 0.31831
_XM_1DIV2PI DD	03e22f983r			; 0.159155
_XM_PIDIV2 DD	03fc90fdbr			; 1.5708
_XM_PIDIV4 DD	03f490fdbr			; 0.785398
$SG152305 DB	'D', 00H, 'X', 00H, 'U', 00H, 'T', 00H, '.', 00H, 'c', 00H
	DB	'p', 00H, 'p', 00H, 00H, 00H
	ORG $+2
$SG152306 DB	'p', 00H, 'N', 00H, 'e', 00H, 'w', 00H, 'D', 00H, 'e', 00H
	DB	'v', 00H, 'i', 00H, 'c', 00H, 'e', 00H, 'S', 00H, 'e', 00H, 't'
	DB	00H, 't', 00H, 'i', 00H, 'n', 00H, 'g', 00H, 's', 00H, 00H, 00H
	ORG $+2
$SG152310 DB	'D', 00H, 'X', 00H, 'U', 00H, 'T', 00H, '.', 00H, 'c', 00H
	DB	'p', 00H, 'p', 00H, 00H, 00H
	ORG $+2
$SG152311 DB	'p', 00H, 'D', 00H, 'X', 00H, 'G', 00H, 'I', 00H, 'F', 00H
	DB	'a', 00H, 'c', 00H, 't', 00H, 'o', 00H, 'r', 00H, 'y', 00H, 00H
	DB	00H
	ORG $+2
$SG152333 DB	'D', 00H, '3', 00H, 'D', 00H, '1', 00H, '1', 00H, 'C', 00H
	DB	'r', 00H, 'e', 00H, 'a', 00H, 't', 00H, 'e', 00H, 'D', 00H, 'e'
	DB	00H, 'v', 00H, 'i', 00H, 'c', 00H, 'e', 00H, 00H, 00H
$SG152334 DB	'DXUT.cpp', 00H
	ORG $+3
$SG152371 DB	'DXUT.cpp', 00H
	ORG $+3
$SG152370 DB	'p', 00H, 'D', 00H, 'X', 00H, 'G', 00H, 'I', 00H, 'D', 00H
	DB	'e', 00H, 'v', 00H, '-', 00H, '>', 00H, 'G', 00H, 'e', 00H, 't'
	DB	00H, 'A', 00H, 'd', 00H, 'a', 00H, 'p', 00H, 't', 00H, 'e', 00H
	DB	'r', 00H, '(', 00H, ' ', 00H, '&', 00H, 'p', 00H, 'T', 00H, 'e'
	DB	00H, 'm', 00H, 'p', 00H, 'A', 00H, 'd', 00H, 'a', 00H, 'p', 00H
	DB	't', 00H, 'e', 00H, 'r', 00H, ' ', 00H, ')', 00H, 00H, 00H
$SG152378 DB	'DXUT.cpp', 00H
	ORG $+3
$SG152377 DB	'p', 00H, 'T', 00H, 'e', 00H, 'm', 00H, 'p', 00H, 'A', 00H
	DB	'd', 00H, 'a', 00H, 'p', 00H, 't', 00H, 'e', 00H, 'r', 00H, '-'
	DB	00H, '>', 00H, 'Q', 00H, 'u', 00H, 'e', 00H, 'r', 00H, 'y', 00H
	DB	'I', 00H, 'n', 00H, 't', 00H, 'e', 00H, 'r', 00H, 'f', 00H, 'a'
	DB	00H, 'c', 00H, 'e', 00H, '(', 00H, ' ', 00H, '_', 00H, '_', 00H
	DB	'u', 00H, 'u', 00H, 'i', 00H, 'd', 00H, 'o', 00H, 'f', 00H, '('
	DB	00H, ' ', 00H, 'I', 00H, 'D', 00H, 'X', 00H, 'G', 00H, 'I', 00H
	DB	'A', 00H, 'd', 00H, 'a', 00H, 'p', 00H, 't', 00H, 'e', 00H, 'r'
	DB	00H, '1', 00H, ' ', 00H, ')', 00H, ',', 00H, ' ', 00H, '(', 00H
	DB	'L', 00H, 'P', 00H, 'V', 00H, 'O', 00H, 'I', 00H, 'D', 00H, '*'
	DB	00H, ')', 00H, ' ', 00H, '&', 00H, 'p', 00H, 'A', 00H, 'd', 00H
	DB	'a', 00H, 'p', 00H, 't', 00H, 'e', 00H, 'r', 00H, ' ', 00H, ')'
	DB	00H, 00H, 00H
	ORG $+2
$SG151355 DB	'D', 00H, 'X', 00H, 'U', 00H, 'T', 00H, '.', 00H, 'c', 00H
	DB	'p', 00H, 'p', 00H, 00H, 00H
	ORG $+2
$SG151356 DB	'g', 00H, '_', 00H, 'p', 00H, 'D', 00H, 'X', 00H, 'U', 00H
	DB	'T', 00H, 'S', 00H, 't', 00H, 'a', 00H, 't', 00H, 'e', 00H, 00H
	DB	00H
	ORG $+2
$SG152383 DB	'p', 00H, 'A', 00H, 'd', 00H, 'a', 00H, 'p', 00H, 't', 00H
	DB	'e', 00H, 'r', 00H, '-', 00H, '>', 00H, 'G', 00H, 'e', 00H, 't'
	DB	00H, 'P', 00H, 'a', 00H, 'r', 00H, 'e', 00H, 'n', 00H, 't', 00H
	DB	'(', 00H, ' ', 00H, '_', 00H, '_', 00H, 'u', 00H, 'u', 00H, 'i'
	DB	00H, 'd', 00H, 'o', 00H, 'f', 00H, '(', 00H, ' ', 00H, 'I', 00H
	DB	'D', 00H, 'X', 00H, 'G', 00H, 'I', 00H, 'F', 00H, 'a', 00H, 'c'
	DB	00H, 't', 00H, 'o', 00H, 'r', 00H, 'y', 00H, '1', 00H, ' ', 00H
	DB	')', 00H, ',', 00H, ' ', 00H, '(', 00H, 'L', 00H, 'P', 00H, 'V'
	DB	00H, 'O', 00H, 'I', 00H, 'D', 00H, '*', 00H, ')', 00H, ' ', 00H
	DB	'&', 00H, 'p', 00H, 'D', 00H, 'X', 00H, 'G', 00H, 'I', 00H, 'F'
	DB	00H, 'a', 00H, 'c', 00H, 't', 00H, 'o', 00H, 'r', 00H, 'y', 00H
	DB	' ', 00H, ')', 00H, 00H, 00H
$SG152384 DB	'DXUT.cpp', 00H
	ORG $+3
$SG152391 DB	'D', 00H, '3', 00H, 'D', 00H, '1', 00H, '1', 00H, 'C', 00H
	DB	'r', 00H, 'e', 00H, 'a', 00H, 't', 00H, 'e', 00H, 'D', 00H, 'e'
	DB	00H, 'v', 00H, 'i', 00H, 'c', 00H, 'e', 00H, 00H, 00H
$SG152392 DB	'DXUT.cpp', 00H
	ORG $+3
$SG152402 DB	'C', 00H, 'r', 00H, 'e', 00H, 'a', 00H, 't', 00H, 'e', 00H
	DB	'R', 00H, 'a', 00H, 's', 00H, 't', 00H, 'e', 00H, 'r', 00H, 'i'
	DB	00H, 'z', 00H, 'e', 00H, 'r', 00H, 'S', 00H, 't', 00H, 'a', 00H
	DB	't', 00H, 'e', 00H, 00H, 00H
$SG152403 DB	'DXUT.cpp', 00H
	ORG $+3
$SG152408 DB	'DXUT Default', 00H
	ORG $+3
$SG152430 DB	'C', 00H, 'r', 00H, 'e', 00H, 'a', 00H, 't', 00H, 'e', 00H
	DB	'S', 00H, 'w', 00H, 'a', 00H, 'p', 00H, 'C', 00H, 'h', 00H, 'a'
	DB	00H, 'i', 00H, 'n', 00H, 00H, 00H
$SG152431 DB	'DXUT.cpp', 00H
	ORG $+3
$SG152437 DB	'D', 00H, 'X', 00H, 'U', 00H, 'T', 00H, '.', 00H, 'c', 00H
	DB	'p', 00H, 'p', 00H, 00H, 00H
	ORG $+2
$SG152438 DB	'p', 00H, 'd', 00H, '3', 00H, 'd', 00H, '1', 00H, '1', 00H
	DB	'D', 00H, 'e', 00H, 'v', 00H, 'i', 00H, 'c', 00H, 'e', 00H, 00H
	DB	00H
	ORG $+2
$SG152440 DB	'D', 00H, 'X', 00H, 'U', 00H, 'T', 00H, '.', 00H, 'c', 00H
	DB	'p', 00H, 'p', 00H, 00H, 00H
	ORG $+2
$SG152441 DB	'p', 00H, 'd', 00H, '3', 00H, 'd', 00H, 'I', 00H, 'm', 00H
	DB	'm', 00H, 'e', 00H, 'd', 00H, 'i', 00H, 'a', 00H, 't', 00H, 'e'
	DB	00H, 'C', 00H, 'o', 00H, 'n', 00H, 't', 00H, 'e', 00H, 'x', 00H
	DB	't', 00H, 00H, 00H
	ORG $+2
$SG152458 DB	'D', 00H, 'X', 00H, 'U', 00H, 'T', 00H, '.', 00H, 'c', 00H
	DB	'p', 00H, 'p', 00H, 00H, 00H
	ORG $+2
$SG152459 DB	'p', 00H, 'd', 00H, '3', 00H, 'd', 00H, 'E', 00H, 'n', 00H
	DB	'u', 00H, 'm', 00H, 00H, 00H
	ORG $+2
$SG152473 DB	'D', 00H, 'e', 00H, 'v', 00H, 'i', 00H, 'c', 00H, 'e', 00H
	DB	'C', 00H, 'r', 00H, 'e', 00H, 'a', 00H, 't', 00H, 'e', 00H, 'd'
	DB	00H, ' ', 00H, 'c', 00H, 'a', 00H, 'l', 00H, 'l', 00H, 'b', 00H
	DB	'a', 00H, 'c', 00H, 'k', 00H, 00H, 00H
	ORG $+2
$SG152474 DB	'DXUT.cpp', 00H
	ORG $+3
$SG152490 DB	'D', 00H, 'X', 00H, 'U', 00H, 'T', 00H, 'C', 00H, 'r', 00H
	DB	'e', 00H, 'a', 00H, 't', 00H, 'e', 00H, 'D', 00H, '3', 00H, 'D'
	DB	00H, '1', 00H, '1', 00H, 'V', 00H, 'i', 00H, 'e', 00H, 'w', 00H
	DB	's', 00H, 00H, 00H
	ORG $+2
$SG152491 DB	'DXUT.cpp', 00H
	ORG $+3
$SG152504 DB	'D', 00H, 'e', 00H, 'v', 00H, 'i', 00H, 'c', 00H, 'e', 00H
	DB	'R', 00H, 'e', 00H, 's', 00H, 'e', 00H, 't', 00H, ' ', 00H, 'c'
	DB	00H, 'a', 00H, 'l', 00H, 'l', 00H, 'b', 00H, 'a', 00H, 'c', 00H
	DB	'k', 00H, 00H, 00H
	ORG $+2
$SG152505 DB	'DXUT.cpp', 00H
	ORG $+3
$SG152528 DB	'D', 00H, 'X', 00H, 'U', 00H, 'T', 00H, '.', 00H, 'c', 00H
	DB	'p', 00H, 'p', 00H, 00H, 00H
	ORG $+2
$SG152529 DB	'p', 00H, 'S', 00H, 'w', 00H, 'a', 00H, 'p', 00H, 'C', 00H
	DB	'h', 00H, 'a', 00H, 'i', 00H, 'n', 00H, 00H, 00H
	ORG $+2
$SG152541 DB	'DXUT.cpp', 00H
	ORG $+3
$SG152540 DB	'p', 00H, 'S', 00H, 'w', 00H, 'a', 00H, 'p', 00H, 'C', 00H
	DB	'h', 00H, 'a', 00H, 'i', 00H, 'n', 00H, '-', 00H, '>', 00H, 'S'
	DB	00H, 'e', 00H, 't', 00H, 'F', 00H, 'u', 00H, 'l', 00H, 'l', 00H
	DB	's', 00H, 'c', 00H, 'r', 00H, 'e', 00H, 'e', 00H, 'n', 00H, 'S'
	DB	00H, 't', 00H, 'a', 00H, 't', 00H, 'e', 00H, '(', 00H, ' ', 00H
	DB	'F', 00H, 'A', 00H, 'L', 00H, 'S', 00H, 'E', 00H, ',', 00H, ' '
	DB	00H, 'n', 00H, 'u', 00H, 'l', 00H, 'l', 00H, 'p', 00H, 't', 00H
	DB	'r', 00H, ' ', 00H, ')', 00H, 00H, 00H
	ORG $+2
$SG152547 DB	'DXUT.cpp', 00H
	ORG $+3
$SG152546 DB	'p', 00H, 'S', 00H, 'w', 00H, 'a', 00H, 'p', 00H, 'C', 00H
	DB	'h', 00H, 'a', 00H, 'i', 00H, 'n', 00H, '-', 00H, '>', 00H, 'S'
	DB	00H, 'e', 00H, 't', 00H, 'F', 00H, 'u', 00H, 'l', 00H, 'l', 00H
	DB	's', 00H, 'c', 00H, 'r', 00H, 'e', 00H, 'e', 00H, 'n', 00H, 'S'
	DB	00H, 't', 00H, 'a', 00H, 't', 00H, 'e', 00H, '(', 00H, ' ', 00H
	DB	'T', 00H, 'R', 00H, 'U', 00H, 'E', 00H, ',', 00H, ' ', 00H, 'n'
	DB	00H, 'u', 00H, 'l', 00H, 'l', 00H, 'p', 00H, 't', 00H, 'r', 00H
	DB	' ', 00H, ')', 00H, 00H, 00H
$SG152551 DB	'p', 00H, 'S', 00H, 'w', 00H, 'a', 00H, 'p', 00H, 'C', 00H
	DB	'h', 00H, 'a', 00H, 'i', 00H, 'n', 00H, '-', 00H, '>', 00H, 'R'
	DB	00H, 'e', 00H, 's', 00H, 'i', 00H, 'z', 00H, 'e', 00H, 'T', 00H
	DB	'a', 00H, 'r', 00H, 'g', 00H, 'e', 00H, 't', 00H, '(', 00H, ' '
	DB	00H, '&', 00H, 'p', 00H, 'D', 00H, 'e', 00H, 'v', 00H, 'i', 00H
	DB	'c', 00H, 'e', 00H, 'S', 00H, 'e', 00H, 't', 00H, 't', 00H, 'i'
	DB	00H, 'n', 00H, 'g', 00H, 's', 00H, '-', 00H, '>', 00H, 'd', 00H
	DB	'3', 00H, 'd', 00H, '1', 00H, '1', 00H, '.', 00H, 's', 00H, 'd'
	DB	00H, '.', 00H, 'B', 00H, 'u', 00H, 'f', 00H, 'f', 00H, 'e', 00H
	DB	'r', 00H, 'D', 00H, 'e', 00H, 's', 00H, 'c', 00H, ' ', 00H, ')'
	DB	00H, 00H, 00H
$SG152552 DB	'DXUT.cpp', 00H
	ORG $+3
$SG152561 DB	'p', 00H, 'S', 00H, 'w', 00H, 'a', 00H, 'p', 00H, 'C', 00H
	DB	'h', 00H, 'a', 00H, 'i', 00H, 'n', 00H, '-', 00H, '>', 00H, 'R'
	DB	00H, 'e', 00H, 's', 00H, 'i', 00H, 'z', 00H, 'e', 00H, 'T', 00H
	DB	'a', 00H, 'r', 00H, 'g', 00H, 'e', 00H, 't', 00H, '(', 00H, ' '
	DB	00H, '&', 00H, 'p', 00H, 'D', 00H, 'e', 00H, 'v', 00H, 'i', 00H
	DB	'c', 00H, 'e', 00H, 'S', 00H, 'e', 00H, 't', 00H, 't', 00H, 'i'
	DB	00H, 'n', 00H, 'g', 00H, 's', 00H, '-', 00H, '>', 00H, 'd', 00H
	DB	'3', 00H, 'd', 00H, '1', 00H, '1', 00H, '.', 00H, 's', 00H, 'd'
	DB	00H, '.', 00H, 'B', 00H, 'u', 00H, 'f', 00H, 'f', 00H, 'e', 00H
	DB	'r', 00H, 'D', 00H, 'e', 00H, 's', 00H, 'c', 00H, ' ', 00H, ')'
	DB	00H, 00H, 00H
$SG152562 DB	'DXUT.cpp', 00H
	ORG $+3
$SG153596 DB	'D', 00H, 'X', 00H, 'U', 00H, 'T', 00H, '.', 00H, 'c', 00H
	DB	'p', 00H, 'p', 00H, 00H, 00H
	ORG $+2
$SG153597 DB	'p', 00H, 'S', 00H, 'w', 00H, 'a', 00H, 'p', 00H, 'C', 00H
	DB	'h', 00H, 'a', 00H, 'i', 00H, 'n', 00H, 00H, 00H
CONST	ENDS
;	COMDAT _CLSID_WICDdsEncoder
CONST	SEGMENT
_CLSID_WICDdsEncoder DD 0a61dde94H
	DW	066ceH
	DW	04ac1H
	DB	088H
	DB	01bH
	DB	071H
	DB	068H
	DB	05H
	DB	088H
	DB	089H
	DB	05eH
CONST	ENDS
;	COMDAT _CLSID_WICWmpEncoder
CONST	SEGMENT
_CLSID_WICWmpEncoder DD 0ac4ce3cbH
	DW	0e1c1H
	DW	044cdH
	DB	082H
	DB	015H
	DB	05aH
	DB	016H
	DB	065H
	DB	050H
	DB	09eH
	DB	0c2H
CONST	ENDS
;	COMDAT _CLSID_WICTiffEncoder
CONST	SEGMENT
_CLSID_WICTiffEncoder DD 0131be10H
	DW	02001H
	DW	04c5fH
	DB	0a9H
	DB	0b0H
	DB	0ccH
	DB	088H
	DB	0faH
	DB	0b6H
	DB	04cH
	DB	0e8H
CONST	ENDS
;	COMDAT _CLSID_WICGifEncoder
CONST	SEGMENT
_CLSID_WICGifEncoder DD 0114f5598H
	DW	0b22H
	DW	040a0H
	DB	086H
	DB	0a1H
	DB	0c8H
	DB	03eH
	DB	0a4H
	DB	095H
	DB	0adH
	DB	0bdH
CONST	ENDS
;	COMDAT _CLSID_WICJpegEncoder
CONST	SEGMENT
_CLSID_WICJpegEncoder DD 01a34f5c1H
	DW	04a5aH
	DW	046dcH
	DB	0b6H
	DB	044H
	DB	01fH
	DB	045H
	DB	067H
	DB	0e7H
	DB	0a6H
	DB	076H
CONST	ENDS
;	COMDAT _CLSID_WICPngEncoder
CONST	SEGMENT
_CLSID_WICPngEncoder DD 027949969H
	DW	0876aH
	DW	041d7H
	DB	094H
	DB	047H
	DB	056H
	DB	08fH
	DB	06aH
	DB	035H
	DB	0a4H
	DB	0dcH
CONST	ENDS
;	COMDAT _CLSID_WICBmpEncoder
CONST	SEGMENT
_CLSID_WICBmpEncoder DD 069be8bb4H
	DW	0d66dH
	DW	047c8H
	DB	086H
	DB	05aH
	DB	0edH
	DB	015H
	DB	089H
	DB	043H
	DB	037H
	DB	082H
CONST	ENDS
;	COMDAT _CLSID_WICDdsDecoder
CONST	SEGMENT
_CLSID_WICDdsDecoder DD 09053699fH
	DW	0a341H
	DW	0429dH
	DB	09eH
	DB	090H
	DB	0eeH
	DB	043H
	DB	07cH
	DB	0f8H
	DB	0cH
	DB	073H
CONST	ENDS
;	COMDAT _CLSID_WICWmpDecoder
CONST	SEGMENT
_CLSID_WICWmpDecoder DD 0a26cec36H
	DW	0234cH
	DW	04950H
	DB	0aeH
	DB	016H
	DB	0e3H
	DB	04aH
	DB	0acH
	DB	0e7H
	DB	01dH
	DB	0dH
CONST	ENDS
;	COMDAT _CLSID_WICTiffDecoder
CONST	SEGMENT
_CLSID_WICTiffDecoder DD 0b54e85d9H
	DW	0fe23H
	DW	0499fH
	DB	08bH
	DB	088H
	DB	06aH
	DB	0ceH
	DB	0a7H
	DB	013H
	DB	075H
	DB	02bH
CONST	ENDS
;	COMDAT _CLSID_WICGifDecoder
CONST	SEGMENT
_CLSID_WICGifDecoder DD 0381dda3cH
	DW	09ce9H
	DW	04834H
	DB	0a2H
	DB	03eH
	DB	01fH
	DB	098H
	DB	0f8H
	DB	0fcH
	DB	052H
	DB	0beH
CONST	ENDS
;	COMDAT _CLSID_WICJpegDecoder
CONST	SEGMENT
_CLSID_WICJpegDecoder DD 09456a480H
	DW	0e88bH
	DW	043eaH
	DB	09eH
	DB	073H
	DB	0bH
	DB	02dH
	DB	09bH
	DB	071H
	DB	0b1H
	DB	0caH
CONST	ENDS
;	COMDAT _CLSID_WICIcoDecoder
CONST	SEGMENT
_CLSID_WICIcoDecoder DD 0c61bfcdfH
	DW	02e0fH
	DW	04aadH
	DB	0a8H
	DB	0d7H
	DB	0e0H
	DB	06bH
	DB	0afH
	DB	0ebH
	DB	0cdH
	DB	0feH
CONST	ENDS
;	COMDAT _CLSID_WICBmpDecoder
CONST	SEGMENT
_CLSID_WICBmpDecoder DD 06b462062H
	DW	07cbfH
	DW	0400dH
	DB	09fH
	DB	0dbH
	DB	081H
	DB	03dH
	DB	0d1H
	DB	0fH
	DB	027H
	DB	078H
CONST	ENDS
;	COMDAT _CLSID_WICPngDecoder2
CONST	SEGMENT
_CLSID_WICPngDecoder2 DD 0e018945bH
	DW	0aa86H
	DW	04008H
	DB	09bH
	DB	0d4H
	DB	067H
	DB	077H
	DB	0a1H
	DB	0e4H
	DB	0cH
	DB	011H
CONST	ENDS
;	COMDAT _CLSID_WICPngDecoder1
CONST	SEGMENT
_CLSID_WICPngDecoder1 DD 0389ea17bH
	DW	05078H
	DW	04cdeH
	DB	0b6H
	DB	0efH
	DB	025H
	DB	0c1H
	DB	051H
	DB	075H
	DB	0c7H
	DB	051H
CONST	ENDS
;	COMDAT _CLSID_WICPngDecoder
CONST	SEGMENT
_CLSID_WICPngDecoder DD 0389ea17bH
	DW	05078H
	DW	04cdeH
	DB	0b6H
	DB	0efH
	DB	025H
	DB	0c1H
	DB	051H
	DB	075H
	DB	0c7H
	DB	051H
CONST	ENDS
;	COMDAT _GUID_VendorMicrosoftBuiltIn
CONST	SEGMENT
_GUID_VendorMicrosoftBuiltIn DD 0257a30fdH
	DW	06b6H
	DW	0462bH
	DB	0aeH
	DB	0a4H
	DB	063H
	DB	0f7H
	DB	0bH
	DB	086H
	DB	0e5H
	DB	033H
CONST	ENDS
;	COMDAT _IID_ID3D10Predicate
CONST	SEGMENT
_IID_ID3D10Predicate DD 09b7e4c10H
	DW	0342cH
	DW	04106H
	DB	0a1H
	DB	09fH
	DB	04fH
	DB	027H
	DB	04H
	DB	0f6H
	DB	089H
	DB	0f0H
CONST	ENDS
;	COMDAT _GUID_VendorMicrosoft
CONST	SEGMENT
_GUID_VendorMicrosoft DD 0f0e749caH
	DW	0edefH
	DW	04589H
	DB	0a7H
	DB	03aH
	DB	0eeH
	DB	0eH
	DB	062H
	DB	06aH
	DB	02aH
	DB	02bH
CONST	ENDS
PUBLIC	_HRESULT_FROM_WIN32
PUBLIC	??2@YAPAXIPAX@Z					; operator new
PUBLIC	??3@YAXPAX0@Z					; operator delete
PUBLIC	_hypot
PUBLIC	_|
PUBLIC	??0_Container_proxy@std@@QAE@XZ			; std::_Container_proxy::_Container_proxy
PUBLIC	??0_Iterator_base12@std@@QAE@XZ			; std::_Iterator_base12::_Iterator_base12
PUBLIC	??1_Iterator_base12@std@@QAE@XZ			; std::_Iterator_base12::~_Iterator_base12
PUBLIC	?_Adopt@_Iterator_base12@std@@QAEXPBU_Container_base12@2@@Z ; std::_Iterator_base12::_Adopt
PUBLIC	?_Clrcont@_Iterator_base12@std@@QAEXXZ		; std::_Iterator_base12::_Clrcont
PUBLIC	?_Getcont@_Iterator_base12@std@@QBEPBU_Container_base12@2@XZ ; std::_Iterator_base12::_Getcont
PUBLIC	?_Getpnext@_Iterator_base12@std@@QAEPAPAU12@XZ	; std::_Iterator_base12::_Getpnext
PUBLIC	?_Orphan_me@_Iterator_base12@std@@QAEXXZ	; std::_Iterator_base12::_Orphan_me
PUBLIC	?DXUTSetCallbackFrameMove@@YGXP6GXNMPAX@Z0@Z	; DXUTSetCallbackFrameMove
PUBLIC	?DXUTSetCallbackKeyboard@@YGXP6GXI_N0PAX@Z1@Z	; DXUTSetCallbackKeyboard
PUBLIC	?DXUTSetCallbackMouse@@YGXP6GX_N0000HHHPAX@Z01@Z ; DXUTSetCallbackMouse
PUBLIC	?DXUTSetCallbackMsgProc@@YGXP6GJPAUHWND__@@IIJPA_NPAX@Z2@Z ; DXUTSetCallbackMsgProc
PUBLIC	?DXUTSetCallbackDeviceChanging@@YGXP6G_NPAUDXUTDeviceSettings@@PAX@Z1@Z ; DXUTSetCallbackDeviceChanging
PUBLIC	?DXUTSetCallbackDeviceRemoved@@YGXP6G_NPAX@Z0@Z	; DXUTSetCallbackDeviceRemoved
PUBLIC	?DXUTSetCallbackD3D11DeviceAcceptable@@YGXP6G_NPBVCD3D11EnumAdapterInfo@@IPBVCD3D11EnumDeviceInfo@@W4DXGI_FORMAT@@_NPAX@Z4@Z ; DXUTSetCallbackD3D11DeviceAcceptable
PUBLIC	?DXUTSetCallbackD3D11DeviceCreated@@YGXP6GJPAUID3D11Device@@PBUDXGI_SURFACE_DESC@@PAX@Z2@Z ; DXUTSetCallbackD3D11DeviceCreated
PUBLIC	?DXUTSetCallbackD3D11SwapChainResized@@YGXP6GJPAUID3D11Device@@PAUIDXGISwapChain@@PBUDXGI_SURFACE_DESC@@PAX@Z3@Z ; DXUTSetCallbackD3D11SwapChainResized
PUBLIC	?DXUTSetCallbackD3D11FrameRender@@YGXP6GXPAUID3D11Device@@PAUID3D11DeviceContext@@NMPAX@Z2@Z ; DXUTSetCallbackD3D11FrameRender
PUBLIC	?DXUTSetCallbackD3D11SwapChainReleasing@@YGXP6GXPAX@Z0@Z ; DXUTSetCallbackD3D11SwapChainReleasing
PUBLIC	?DXUTSetCallbackD3D11DeviceDestroyed@@YGXP6GXPAX@Z0@Z ; DXUTSetCallbackD3D11DeviceDestroyed
PUBLIC	?DXUTInit@@YGJ_N0PA_W0@Z			; DXUTInit
PUBLIC	?DXUTCreateWindow@@YGJPB_WPAUHINSTANCE__@@PAUHICON__@@PAUHMENU__@@HH@Z ; DXUTCreateWindow
PUBLIC	?DXUTSetWindow@@YGJPAUHWND__@@00_N@Z		; DXUTSetWindow
PUBLIC	?DXUTStaticWndProc@@YGJPAUHWND__@@IIJ@Z		; DXUTStaticWndProc
PUBLIC	?DXUTCreateDevice@@YGJW4D3D_FEATURE_LEVEL@@_NHH@Z ; DXUTCreateDevice
PUBLIC	?DXUTCreateDeviceFromSettings@@YGJPAUDXUTDeviceSettings@@_N@Z ; DXUTCreateDeviceFromSettings
PUBLIC	?DXUTMainLoop@@YGJPAUHACCEL__@@@Z		; DXUTMainLoop
PUBLIC	?DXUTRender3DEnvironment@@YGXXZ			; DXUTRender3DEnvironment
PUBLIC	?DXUTToggleFullScreen@@YGJXZ			; DXUTToggleFullScreen
PUBLIC	?DXUTToggleREF@@YGJXZ				; DXUTToggleREF
PUBLIC	?DXUTToggleWARP@@YGJXZ				; DXUTToggleWARP
PUBLIC	?DXUTPause@@YGX_N0@Z				; DXUTPause
PUBLIC	?DXUTSetConstantFrameTime@@YGX_NM@Z		; DXUTSetConstantFrameTime
PUBLIC	?DXUTSetCursorSettings@@YGX_N0@Z		; DXUTSetCursorSettings
PUBLIC	?DXUTSetHotkeyHandling@@YGX_N00@Z		; DXUTSetHotkeyHandling
PUBLIC	?DXUTSetMultimonSettings@@YGX_N@Z		; DXUTSetMultimonSettings
PUBLIC	?DXUTSetShortcutKeySettings@@YGX_N0@Z		; DXUTSetShortcutKeySettings
PUBLIC	?DXUTSetWindowSettings@@YGX_N@Z			; DXUTSetWindowSettings
PUBLIC	?DXUTSetTimer@@YGJP6GXIPAX@ZMPAI0@Z		; DXUTSetTimer
PUBLIC	?DXUTKillTimer@@YGJI@Z				; DXUTKillTimer
PUBLIC	?DXUTResetFrameworkState@@YGXXZ			; DXUTResetFrameworkState
PUBLIC	?DXUTShutdown@@YGXH@Z				; DXUTShutdown
PUBLIC	?DXUTSetIsInGammaCorrectMode@@YGX_N@Z		; DXUTSetIsInGammaCorrectMode
PUBLIC	?DXUTGetMSAASwapChainCreated@@YG_NXZ		; DXUTGetMSAASwapChainCreated
PUBLIC	?DXUTGetDXGIFactory@@YGPAUIDXGIFactory1@@XZ	; DXUTGetDXGIFactory
PUBLIC	?DXUTGetDXGISwapChain@@YGPAUIDXGISwapChain@@XZ	; DXUTGetDXGISwapChain
PUBLIC	?DXUTGetDXGIBackBufferSurfaceDesc@@YGPBUDXGI_SURFACE_DESC@@XZ ; DXUTGetDXGIBackBufferSurfaceDesc
PUBLIC	?DXUTSetupD3D11Views@@YGJPAUID3D11DeviceContext@@@Z ; DXUTSetupD3D11Views
PUBLIC	?DXUTGetD3D11DeviceFeatureLevel@@YG?AW4D3D_FEATURE_LEVEL@@XZ ; DXUTGetD3D11DeviceFeatureLevel
PUBLIC	?DXUTGetD3D11RenderTargetView@@YGPAUID3D11RenderTargetView@@XZ ; DXUTGetD3D11RenderTargetView
PUBLIC	?DXUTGetD3D11DepthStencilView@@YGPAUID3D11DepthStencilView@@XZ ; DXUTGetD3D11DepthStencilView
PUBLIC	?DXUTGetD3D11Device@@YGPAUID3D11Device@@XZ	; DXUTGetD3D11Device
PUBLIC	?DXUTGetD3D11DeviceContext@@YGPAUID3D11DeviceContext@@XZ ; DXUTGetD3D11DeviceContext
PUBLIC	?DXUTGetD3D11Device1@@YGPAUID3D11Device1@@XZ	; DXUTGetD3D11Device1
PUBLIC	?DXUTGetD3D11DeviceContext1@@YGPAUID3D11DeviceContext1@@XZ ; DXUTGetD3D11DeviceContext1
PUBLIC	?DXUTGetDeviceSettings@@YG?AUDXUTDeviceSettings@@XZ ; DXUTGetDeviceSettings
PUBLIC	?DXUTGetHINSTANCE@@YGPAUHINSTANCE__@@XZ		; DXUTGetHINSTANCE
PUBLIC	?DXUTGetHWND@@YGPAUHWND__@@XZ			; DXUTGetHWND
PUBLIC	?DXUTGetHWNDFocus@@YGPAUHWND__@@XZ		; DXUTGetHWNDFocus
PUBLIC	?DXUTGetHWNDDeviceFullScreen@@YGPAUHWND__@@XZ	; DXUTGetHWNDDeviceFullScreen
PUBLIC	?DXUTGetHWNDDeviceWindowed@@YGPAUHWND__@@XZ	; DXUTGetHWNDDeviceWindowed
PUBLIC	?DXUTGetWindowClientRect@@YG?AUtagRECT@@XZ	; DXUTGetWindowClientRect
PUBLIC	?DXUTGetWindowWidth@@YGJXZ			; DXUTGetWindowWidth
PUBLIC	?DXUTGetWindowHeight@@YGJXZ			; DXUTGetWindowHeight
PUBLIC	?DXUTGetWindowClientRectAtModeChange@@YG?AUtagRECT@@XZ ; DXUTGetWindowClientRectAtModeChange
PUBLIC	?DXUTGetFullsceenClientRectAtModeChange@@YG?AUtagRECT@@XZ ; DXUTGetFullsceenClientRectAtModeChange
PUBLIC	?DXUTGetTime@@YGNXZ				; DXUTGetTime
PUBLIC	?DXUTGetElapsedTime@@YGMXZ			; DXUTGetElapsedTime
PUBLIC	?DXUTIsWindowed@@YG_NXZ				; DXUTIsWindowed
PUBLIC	?DXUTIsInGammaCorrectMode@@YG_NXZ		; DXUTIsInGammaCorrectMode
PUBLIC	?DXUTGetFPS@@YGMXZ				; DXUTGetFPS
PUBLIC	?DXUTGetWindowTitle@@YGPB_WXZ			; DXUTGetWindowTitle
PUBLIC	?DXUTGetFrameStats@@YGPB_W_N@Z			; DXUTGetFrameStats
PUBLIC	?DXUTGetDeviceStats@@YGPB_WXZ			; DXUTGetDeviceStats
PUBLIC	?DXUTIsVsyncEnabled@@YG_NXZ			; DXUTIsVsyncEnabled
PUBLIC	?DXUTIsRenderingPaused@@YG_NXZ			; DXUTIsRenderingPaused
PUBLIC	?DXUTIsTimePaused@@YG_NXZ			; DXUTIsTimePaused
PUBLIC	?DXUTIsActive@@YG_NXZ				; DXUTIsActive
PUBLIC	?DXUTGetExitCode@@YGHXZ				; DXUTGetExitCode
PUBLIC	?DXUTGetShowMsgBoxOnError@@YG_NXZ		; DXUTGetShowMsgBoxOnError
PUBLIC	?DXUTGetAutomation@@YG_NXZ			; DXUTGetAutomation
PUBLIC	?DXUTIsKeyDown@@YG_NE@Z				; DXUTIsKeyDown
PUBLIC	?DXUTWasKeyPressed@@YG_NE@Z			; DXUTWasKeyPressed
PUBLIC	?DXUTIsMouseButtonDown@@YG_NE@Z			; DXUTIsMouseButtonDown
PUBLIC	?DXUTCreateState@@YGJXZ				; DXUTCreateState
PUBLIC	?DXUTDestroyState@@YGXXZ			; DXUTDestroyState
PUBLIC	?DXUT_SetDebugName@@YAXPAUID3D11DeviceChild@@PBD@Z ; DXUT_SetDebugName
PUBLIC	?DXUTApplyDefaultDeviceSettings@@YAXPAUDXUTDeviceSettings@@@Z ; DXUTApplyDefaultDeviceSettings
PUBLIC	?GetWARPFeaturevel@CD3D11Enumeration@@QBE?AW4D3D_FEATURE_LEVEL@@XZ ; CD3D11Enumeration::GetWARPFeaturevel
PUBLIC	?GetREFFeaturevel@CD3D11Enumeration@@QBE?AW4D3D_FEATURE_LEVEL@@XZ ; CD3D11Enumeration::GetREFFeaturevel
PUBLIC	?begin@?$vector@PAVCD3D11EnumAdapterInfo@@V?$allocator@PAVCD3D11EnumAdapterInfo@@@std@@@std@@QBE?AV?$_Vector_const_iterator@V?$_Vector_val@U?$_Simple_types@PAVCD3D11EnumAdapterInfo@@@std@@@std@@@2@XZ ; std::vector<CD3D11EnumAdapterInfo *,std::allocator<CD3D11EnumAdapterInfo *> >::begin
PUBLIC	?end@?$vector@PAVCD3D11EnumAdapterInfo@@V?$allocator@PAVCD3D11EnumAdapterInfo@@@std@@@std@@QBE?AV?$_Vector_const_iterator@V?$_Vector_val@U?$_Simple_types@PAVCD3D11EnumAdapterInfo@@@std@@@std@@@2@XZ ; std::vector<CD3D11EnumAdapterInfo *,std::allocator<CD3D11EnumAdapterInfo *> >::end
PUBLIC	?cbegin@?$vector@PAVCD3D11EnumAdapterInfo@@V?$allocator@PAVCD3D11EnumAdapterInfo@@@std@@@std@@QBE?AV?$_Vector_const_iterator@V?$_Vector_val@U?$_Simple_types@PAVCD3D11EnumAdapterInfo@@@std@@@std@@@2@XZ ; std::vector<CD3D11EnumAdapterInfo *,std::allocator<CD3D11EnumAdapterInfo *> >::cbegin
PUBLIC	?cend@?$vector@PAVCD3D11EnumAdapterInfo@@V?$allocator@PAVCD3D11EnumAdapterInfo@@@std@@@std@@QBE?AV?$_Vector_const_iterator@V?$_Vector_val@U?$_Simple_types@PAVCD3D11EnumAdapterInfo@@@std@@@std@@@2@XZ ; std::vector<CD3D11EnumAdapterInfo *,std::allocator<CD3D11EnumAdapterInfo *> >::cend
PUBLIC	?empty@?$vector@PAVCD3D11EnumAdapterInfo@@V?$allocator@PAVCD3D11EnumAdapterInfo@@@std@@@std@@QBE_NXZ ; std::vector<CD3D11EnumAdapterInfo *,std::allocator<CD3D11EnumAdapterInfo *> >::empty
PUBLIC	?begin@?$vector@PAVCD3D11EnumOutputInfo@@V?$allocator@PAVCD3D11EnumOutputInfo@@@std@@@std@@QBE?AV?$_Vector_const_iterator@V?$_Vector_val@U?$_Simple_types@PAVCD3D11EnumOutputInfo@@@std@@@std@@@2@XZ ; std::vector<CD3D11EnumOutputInfo *,std::allocator<CD3D11EnumOutputInfo *> >::begin
PUBLIC	?end@?$vector@PAVCD3D11EnumOutputInfo@@V?$allocator@PAVCD3D11EnumOutputInfo@@@std@@@std@@QBE?AV?$_Vector_const_iterator@V?$_Vector_val@U?$_Simple_types@PAVCD3D11EnumOutputInfo@@@std@@@std@@@2@XZ ; std::vector<CD3D11EnumOutputInfo *,std::allocator<CD3D11EnumOutputInfo *> >::end
PUBLIC	?cbegin@?$vector@PAVCD3D11EnumOutputInfo@@V?$allocator@PAVCD3D11EnumOutputInfo@@@std@@@std@@QBE?AV?$_Vector_const_iterator@V?$_Vector_val@U?$_Simple_types@PAVCD3D11EnumOutputInfo@@@std@@@std@@@2@XZ ; std::vector<CD3D11EnumOutputInfo *,std::allocator<CD3D11EnumOutputInfo *> >::cbegin
PUBLIC	?cend@?$vector@PAVCD3D11EnumOutputInfo@@V?$allocator@PAVCD3D11EnumOutputInfo@@@std@@@std@@QBE?AV?$_Vector_const_iterator@V?$_Vector_val@U?$_Simple_types@PAVCD3D11EnumOutputInfo@@@std@@@std@@@2@XZ ; std::vector<CD3D11EnumOutputInfo *,std::allocator<CD3D11EnumOutputInfo *> >::cend
PUBLIC	?size@?$vector@PAUCD3D11EnumDeviceSettingsCombo@@V?$allocator@PAUCD3D11EnumDeviceSettingsCombo@@@std@@@std@@QBEIXZ ; std::vector<CD3D11EnumDeviceSettingsCombo *,std::allocator<CD3D11EnumDeviceSettingsCombo *> >::size
PUBLIC	??A?$vector@PAUCD3D11EnumDeviceSettingsCombo@@V?$allocator@PAUCD3D11EnumDeviceSettingsCombo@@@std@@@std@@QAEAAPAUCD3D11EnumDeviceSettingsCombo@@I@Z ; std::vector<CD3D11EnumDeviceSettingsCombo *,std::allocator<CD3D11EnumDeviceSettingsCombo *> >::operator[]
PUBLIC	?size@?$vector@UDXGI_MODE_DESC@@V?$allocator@UDXGI_MODE_DESC@@@std@@@std@@QBEIXZ ; std::vector<DXGI_MODE_DESC,std::allocator<DXGI_MODE_DESC> >::size
PUBLIC	??A?$vector@UDXGI_MODE_DESC@@V?$allocator@UDXGI_MODE_DESC@@@std@@@std@@QAEAAUDXGI_MODE_DESC@@I@Z ; std::vector<DXGI_MODE_DESC,std::allocator<DXGI_MODE_DESC> >::operator[]
PUBLIC	?size@?$vector@IV?$allocator@I@std@@@std@@QBEIXZ ; std::vector<unsigned int,std::allocator<unsigned int> >::size
PUBLIC	??A?$vector@IV?$allocator@I@std@@@std@@QAEAAII@Z ; std::vector<unsigned int,std::allocator<unsigned int> >::operator[]
PUBLIC	??0?$allocator@U_Container_proxy@std@@@std@@QAE@XZ ; std::allocator<std::_Container_proxy>::allocator<std::_Container_proxy>
PUBLIC	?deallocate@?$allocator@U_Container_proxy@std@@@std@@QAEXPAU_Container_proxy@2@I@Z ; std::allocator<std::_Container_proxy>::deallocate
PUBLIC	?allocate@?$allocator@U_Container_proxy@std@@@std@@QAEPAU_Container_proxy@2@I@Z ; std::allocator<std::_Container_proxy>::allocate
PUBLIC	??0?$_Wrap_alloc@V?$allocator@U_Container_proxy@std@@@std@@@std@@QAE@XZ ; std::_Wrap_alloc<std::allocator<std::_Container_proxy> >::_Wrap_alloc<std::allocator<std::_Container_proxy> >
PUBLIC	?allocate@?$_Wrap_alloc@V?$allocator@U_Container_proxy@std@@@std@@@std@@QAEPAU_Container_proxy@2@I@Z ; std::_Wrap_alloc<std::allocator<std::_Container_proxy> >::allocate
PUBLIC	?deallocate@?$_Wrap_alloc@V?$allocator@U_Container_proxy@std@@@std@@@std@@QAEXPAU_Container_proxy@2@I@Z ; std::_Wrap_alloc<std::allocator<std::_Container_proxy> >::deallocate
PUBLIC	??$construct@U_Container_proxy@std@@U12@@?$_Wrap_alloc@V?$allocator@U_Container_proxy@std@@@std@@@std@@QAEXPAU_Container_proxy@1@$$QAU21@@Z ; std::_Wrap_alloc<std::allocator<std::_Container_proxy> >::construct<std::_Container_proxy,std::_Container_proxy>
PUBLIC	??$destroy@U_Container_proxy@std@@@?$_Wrap_alloc@V?$allocator@U_Container_proxy@std@@@std@@@std@@QAEXPAU_Container_proxy@1@@Z ; std::_Wrap_alloc<std::allocator<std::_Container_proxy> >::destroy<std::_Container_proxy>
PUBLIC	??$_Allocate@U_Container_proxy@std@@@std@@YAPAU_Container_proxy@0@IPAU10@@Z ; std::_Allocate<std::_Container_proxy>
PUBLIC	??$forward@U_Container_proxy@std@@@std@@YA$$QAU_Container_proxy@0@AAU10@@Z ; std::forward<std::_Container_proxy>
PUBLIC	??$construct@U_Container_proxy@std@@U12@@?$allocator_traits@V?$allocator@U_Container_proxy@std@@@std@@@std@@SAXAAV?$allocator@U_Container_proxy@std@@@1@PAU_Container_proxy@1@$$QAU31@@Z ; std::allocator_traits<std::allocator<std::_Container_proxy> >::construct<std::_Container_proxy,std::_Container_proxy>
PUBLIC	??$destroy@U_Container_proxy@std@@@?$allocator_traits@V?$allocator@U_Container_proxy@std@@@std@@@std@@SAXAAV?$allocator@U_Container_proxy@std@@@1@PAU_Container_proxy@1@@Z ; std::allocator_traits<std::allocator<std::_Container_proxy> >::destroy<std::_Container_proxy>
PUBLIC	??$construct@U_Container_proxy@std@@U12@@?$allocator@U_Container_proxy@std@@@std@@QAEXPAU_Container_proxy@1@$$QAU21@@Z ; std::allocator<std::_Container_proxy>::construct<std::_Container_proxy,std::_Container_proxy>
PUBLIC	??$destroy@U_Container_proxy@std@@@?$allocator@U_Container_proxy@std@@@std@@QAEXPAU_Container_proxy@1@@Z ; std::allocator<std::_Container_proxy>::destroy<std::_Container_proxy>
PUBLIC	??0DXUTLock@@QAE@XZ				; DXUTLock::DXUTLock
PUBLIC	??1DXUTLock@@QAE@XZ				; DXUTLock::~DXUTLock
PUBLIC	??0DXUTState@@QAE@XZ				; DXUTState::DXUTState
PUBLIC	??1DXUTState@@QAE@XZ				; DXUTState::~DXUTState
PUBLIC	?Create@DXUTState@@QAEXXZ			; DXUTState::Create
PUBLIC	?Destroy@DXUTState@@QAEXXZ			; DXUTState::Destroy
PUBLIC	?SetCurrentDeviceSettings@DXUTState@@QAEXPAUDXUTDeviceSettings@@@Z ; DXUTState::SetCurrentDeviceSettings
PUBLIC	?GetCurrentDeviceSettings@DXUTState@@QAEPAUDXUTDeviceSettings@@XZ ; DXUTState::GetCurrentDeviceSettings
PUBLIC	?SetDXGIFactory@DXUTState@@QAEXPAUIDXGIFactory1@@@Z ; DXUTState::SetDXGIFactory
PUBLIC	?GetDXGIFactory@DXUTState@@QAEPAUIDXGIFactory1@@XZ ; DXUTState::GetDXGIFactory
PUBLIC	?SetDXGIAdapter@DXUTState@@QAEXPAUIDXGIAdapter1@@@Z ; DXUTState::SetDXGIAdapter
PUBLIC	?GetDXGIAdapter@DXUTState@@QAEPAUIDXGIAdapter1@@XZ ; DXUTState::GetDXGIAdapter
PUBLIC	?SetDXGIOutputArray@DXUTState@@QAEXPAPAUIDXGIOutput@@@Z ; DXUTState::SetDXGIOutputArray
PUBLIC	?GetDXGIOutputArray@DXUTState@@QAEPAPAUIDXGIOutput@@XZ ; DXUTState::GetDXGIOutputArray
PUBLIC	?SetDXGIOutputArraySize@DXUTState@@QAEXI@Z	; DXUTState::SetDXGIOutputArraySize
PUBLIC	?GetDXGIOutputArraySize@DXUTState@@QAEIXZ	; DXUTState::GetDXGIOutputArraySize
PUBLIC	?SetDXGISwapChain@DXUTState@@QAEXPAUIDXGISwapChain@@@Z ; DXUTState::SetDXGISwapChain
PUBLIC	?GetDXGISwapChain@DXUTState@@QAEPAUIDXGISwapChain@@XZ ; DXUTState::GetDXGISwapChain
PUBLIC	?GetBackBufferSurfaceDescDXGI@DXUTState@@QAEPAUDXGI_SURFACE_DESC@@XZ ; DXUTState::GetBackBufferSurfaceDescDXGI
PUBLIC	?SetRenderingOccluded@DXUTState@@QAEX_N@Z	; DXUTState::SetRenderingOccluded
PUBLIC	?GetRenderingOccluded@DXUTState@@QAE_NXZ	; DXUTState::GetRenderingOccluded
PUBLIC	?SetDoNotStoreBufferSize@DXUTState@@QAEX_N@Z	; DXUTState::SetDoNotStoreBufferSize
PUBLIC	?GetDoNotStoreBufferSize@DXUTState@@QAE_NXZ	; DXUTState::GetDoNotStoreBufferSize
PUBLIC	?SetD3D11Device@DXUTState@@QAEXPAUID3D11Device@@@Z ; DXUTState::SetD3D11Device
PUBLIC	?GetD3D11Device@DXUTState@@QAEPAUID3D11Device@@XZ ; DXUTState::GetD3D11Device
PUBLIC	?SetD3D11DeviceContext@DXUTState@@QAEXPAUID3D11DeviceContext@@@Z ; DXUTState::SetD3D11DeviceContext
PUBLIC	?GetD3D11DeviceContext@DXUTState@@QAEPAUID3D11DeviceContext@@XZ ; DXUTState::GetD3D11DeviceContext
PUBLIC	?SetD3D11FeatureLevel@DXUTState@@QAEXW4D3D_FEATURE_LEVEL@@@Z ; DXUTState::SetD3D11FeatureLevel
PUBLIC	?GetD3D11FeatureLevel@DXUTState@@QAE?AW4D3D_FEATURE_LEVEL@@XZ ; DXUTState::GetD3D11FeatureLevel
PUBLIC	?SetD3D11DepthStencil@DXUTState@@QAEXPAUID3D11Texture2D@@@Z ; DXUTState::SetD3D11DepthStencil
PUBLIC	?GetD3D11DepthStencil@DXUTState@@QAEPAUID3D11Texture2D@@XZ ; DXUTState::GetD3D11DepthStencil
PUBLIC	?SetD3D11DepthStencilView@DXUTState@@QAEXPAUID3D11DepthStencilView@@@Z ; DXUTState::SetD3D11DepthStencilView
PUBLIC	?GetD3D11DepthStencilView@DXUTState@@QAEPAUID3D11DepthStencilView@@XZ ; DXUTState::GetD3D11DepthStencilView
PUBLIC	?SetD3D11RenderTargetView@DXUTState@@QAEXPAUID3D11RenderTargetView@@@Z ; DXUTState::SetD3D11RenderTargetView
PUBLIC	?GetD3D11RenderTargetView@DXUTState@@QAEPAUID3D11RenderTargetView@@XZ ; DXUTState::GetD3D11RenderTargetView
PUBLIC	?SetD3D11RasterizerState@DXUTState@@QAEXPAUID3D11RasterizerState@@@Z ; DXUTState::SetD3D11RasterizerState
PUBLIC	?GetD3D11RasterizerState@DXUTState@@QAEPAUID3D11RasterizerState@@XZ ; DXUTState::GetD3D11RasterizerState
PUBLIC	?SetD3D11Device1@DXUTState@@QAEXPAUID3D11Device1@@@Z ; DXUTState::SetD3D11Device1
PUBLIC	?GetD3D11Device1@DXUTState@@QAEPAUID3D11Device1@@XZ ; DXUTState::GetD3D11Device1
PUBLIC	?SetD3D11DeviceContext1@DXUTState@@QAEXPAUID3D11DeviceContext1@@@Z ; DXUTState::SetD3D11DeviceContext1
PUBLIC	?GetD3D11DeviceContext1@DXUTState@@QAEPAUID3D11DeviceContext1@@XZ ; DXUTState::GetD3D11DeviceContext1
PUBLIC	?SetHWNDFocus@DXUTState@@QAEXPAUHWND__@@@Z	; DXUTState::SetHWNDFocus
PUBLIC	?GetHWNDFocus@DXUTState@@QAEPAUHWND__@@XZ	; DXUTState::GetHWNDFocus
PUBLIC	?SetHWNDDeviceFullScreen@DXUTState@@QAEXPAUHWND__@@@Z ; DXUTState::SetHWNDDeviceFullScreen
PUBLIC	?GetHWNDDeviceFullScreen@DXUTState@@QAEPAUHWND__@@XZ ; DXUTState::GetHWNDDeviceFullScreen
PUBLIC	?SetHWNDDeviceWindowed@DXUTState@@QAEXPAUHWND__@@@Z ; DXUTState::SetHWNDDeviceWindowed
PUBLIC	?GetHWNDDeviceWindowed@DXUTState@@QAEPAUHWND__@@XZ ; DXUTState::GetHWNDDeviceWindowed
PUBLIC	?SetAdapterMonitor@DXUTState@@QAEXPAUHMONITOR__@@@Z ; DXUTState::SetAdapterMonitor
PUBLIC	?GetAdapterMonitor@DXUTState@@QAEPAUHMONITOR__@@XZ ; DXUTState::GetAdapterMonitor
PUBLIC	?GetMenu@DXUTState@@QAEPAUHMENU__@@XZ		; DXUTState::GetMenu
PUBLIC	?SetFullScreenBackBufferWidthAtModeChange@DXUTState@@QAEXI@Z ; DXUTState::SetFullScreenBackBufferWidthAtModeChange
PUBLIC	?GetFullScreenBackBufferWidthAtModeChange@DXUTState@@QAEIXZ ; DXUTState::GetFullScreenBackBufferWidthAtModeChange
PUBLIC	?SetFullScreenBackBufferHeightAtModeChange@DXUTState@@QAEXI@Z ; DXUTState::SetFullScreenBackBufferHeightAtModeChange
PUBLIC	?GetFullScreenBackBufferHeightAtModeChange@DXUTState@@QAEIXZ ; DXUTState::GetFullScreenBackBufferHeightAtModeChange
PUBLIC	?SetWindowBackBufferWidthAtModeChange@DXUTState@@QAEXI@Z ; DXUTState::SetWindowBackBufferWidthAtModeChange
PUBLIC	?GetWindowBackBufferWidthAtModeChange@DXUTState@@QAEIXZ ; DXUTState::GetWindowBackBufferWidthAtModeChange
PUBLIC	?SetWindowBackBufferHeightAtModeChange@DXUTState@@QAEXI@Z ; DXUTState::SetWindowBackBufferHeightAtModeChange
PUBLIC	?GetWindowBackBufferHeightAtModeChange@DXUTState@@QAEIXZ ; DXUTState::GetWindowBackBufferHeightAtModeChange
PUBLIC	?GetWindowedPlacement@DXUTState@@QAEPAUtagWINDOWPLACEMENT@@XZ ; DXUTState::GetWindowedPlacement
PUBLIC	?GetWindowedStyleAtModeChange@DXUTState@@QAEKXZ	; DXUTState::GetWindowedStyleAtModeChange
PUBLIC	?GetTopmostWhileWindowed@DXUTState@@QAE_NXZ	; DXUTState::GetTopmostWhileWindowed
PUBLIC	?SetMinimized@DXUTState@@QAEX_N@Z		; DXUTState::SetMinimized
PUBLIC	?GetMinimized@DXUTState@@QAE_NXZ		; DXUTState::GetMinimized
PUBLIC	?SetMaximized@DXUTState@@QAEX_N@Z		; DXUTState::SetMaximized
PUBLIC	?GetMaximized@DXUTState@@QAE_NXZ		; DXUTState::GetMaximized
PUBLIC	?SetMinimizedWhileFullscreen@DXUTState@@QAEX_N@Z ; DXUTState::SetMinimizedWhileFullscreen
PUBLIC	?GetMinimizedWhileFullscreen@DXUTState@@QAE_NXZ	; DXUTState::GetMinimizedWhileFullscreen
PUBLIC	?SetIgnoreSizeChange@DXUTState@@QAEX_N@Z	; DXUTState::SetIgnoreSizeChange
PUBLIC	?GetIgnoreSizeChange@DXUTState@@QAE_NXZ		; DXUTState::GetIgnoreSizeChange
PUBLIC	?SetTime@DXUTState@@QAEXN@Z			; DXUTState::SetTime
PUBLIC	?GetTime@DXUTState@@QAENXZ			; DXUTState::GetTime
PUBLIC	?SetAbsoluteTime@DXUTState@@QAEXN@Z		; DXUTState::SetAbsoluteTime
PUBLIC	?GetAbsoluteTime@DXUTState@@QAENXZ		; DXUTState::GetAbsoluteTime
PUBLIC	?SetElapsedTime@DXUTState@@QAEXM@Z		; DXUTState::SetElapsedTime
PUBLIC	?GetElapsedTime@DXUTState@@QAEMXZ		; DXUTState::GetElapsedTime
PUBLIC	?SetHInstance@DXUTState@@QAEXPAUHINSTANCE__@@@Z	; DXUTState::SetHInstance
PUBLIC	?GetHInstance@DXUTState@@QAEPAUHINSTANCE__@@XZ	; DXUTState::GetHInstance
PUBLIC	?SetLastStatsUpdateTime@DXUTState@@QAEXN@Z	; DXUTState::SetLastStatsUpdateTime
PUBLIC	?GetLastStatsUpdateTime@DXUTState@@QAENXZ	; DXUTState::GetLastStatsUpdateTime
PUBLIC	?SetLastStatsUpdateFrames@DXUTState@@QAEXK@Z	; DXUTState::SetLastStatsUpdateFrames
