; Listing generated by Microsoft (R) Optimizing Compiler Version 18.00.30501.0 

	TITLE	D:\Engine Class\Assignment 1\New Scratch\DXUT\Core\Screengrab.cpp
	.686P
	.XMM
	include listing.inc
	.model	flat

INCLUDELIB MSVCRTD
INCLUDELIB OLDNAMES

PUBLIC	_GUID_ContainerFormatBmp
PUBLIC	_GUID_ContainerFormatPng
PUBLIC	_GUID_WICPixelFormat8bppGray
PUBLIC	_GUID_WICPixelFormat8bppAlpha
PUBLIC	_GUID_WICPixelFormat16bppBGR555
PUBLIC	_GUID_WICPixelFormat16bppBGR565
PUBLIC	_GUID_WICPixelFormat16bppBGRA5551
PUBLIC	_GUID_WICPixelFormat16bppGray
PUBLIC	_GUID_WICPixelFormat24bppBGR
PUBLIC	_GUID_WICPixelFormat32bppBGR
PUBLIC	_GUID_WICPixelFormat32bppBGRA
PUBLIC	_GUID_WICPixelFormat32bppGrayFloat
PUBLIC	_GUID_WICPixelFormat32bppRGBA
PUBLIC	_GUID_WICPixelFormat48bppBGR
PUBLIC	_GUID_WICPixelFormat64bppRGBA
PUBLIC	_GUID_WICPixelFormat128bppRGBAFloat
PUBLIC	_GUID_WICPixelFormat64bppRGBAHalf
PUBLIC	_GUID_WICPixelFormat16bppGrayHalf
PUBLIC	_GUID_WICPixelFormat32bppRGBA1010102
PUBLIC	_GUID_WICPixelFormat32bppRGBA1010102XR
PUBLIC	__GUID_6f15aaf2_d208_4e89_9ab4_489535d34f9c
PUBLIC	?value@?$integral_constant@H$0A@@std@@2HB	; std::integral_constant<int,0>::value
PUBLIC	__GUID_ec5ec8a9_c395_4314_9c77_54d7a935ff70
PUBLIC	___pobjectentryfirst
PUBLIC	___pobjectentrymid
PUBLIC	___pobjectentrylast
PUBLIC	__GUID_94ea2b94_e9cc_49e0_c0ff_ee64ca8f5b90
PUBLIC	?moduleLock_@ModuleBase@Details@WRL@Microsoft@@0PAXA ; Microsoft::WRL::Details::ModuleBase::moduleLock_
PUBLIC	?objectCount_@ModuleBase@Details@WRL@Microsoft@@1KC ; Microsoft::WRL::Details::ModuleBase::objectCount_
PUBLIC	?module_@ModuleBase@Details@WRL@Microsoft@@2PAV1234@A ; Microsoft::WRL::Details::ModuleBase::module_
PUBLIC	?value@?$RuntimeClassFlags@$02@WRL@Microsoft@@2IB ; Microsoft::WRL::RuntimeClassFlags<3>::value
PUBLIC	__GUID_00000003_0000_0000_c000_000000000046
PUBLIC	?DefaultDelegateCheckMode@WRL@Microsoft@@3W4DelegateCheckMode@12@B ; Microsoft::WRL::DefaultDelegateCheckMode
PUBLIC	?IidCount@?$InterfaceTraits@VNil@Details@WRL@Microsoft@@@Details@WRL@Microsoft@@2KB ; Microsoft::WRL::Details::InterfaceTraits<Microsoft::WRL::Details::Nil>::IidCount
PUBLIC	__GUID_00000146_0000_0000_c000_000000000046
PUBLIC	?value@?$RuntimeClassFlags@$03@WRL@Microsoft@@2IB ; Microsoft::WRL::RuntimeClassFlags<4>::value
PUBLIC	__GUID_00000000_0000_0000_c000_000000000046
PUBLIC	?value@?$RuntimeClassFlags@$05@WRL@Microsoft@@2IB ; Microsoft::WRL::RuntimeClassFlags<6>::value
PUBLIC	?value@?$RuntimeClassFlags@$0N@@WRL@Microsoft@@2IB ; Microsoft::WRL::RuntimeClassFlags<13>::value
PUBLIC	?value@?$RuntimeClassFlags@$00@WRL@Microsoft@@2IB ; Microsoft::WRL::RuntimeClassFlags<1>::value
PUBLIC	?value@?$RuntimeClassFlags@$01@WRL@Microsoft@@2IB ; Microsoft::WRL::RuntimeClassFlags<2>::value
PUBLIC	__GUID_00000037_0000_0000_c000_000000000046
PUBLIC	_CLSID_WICImagingFactory
_BSS	SEGMENT
_g_WIC2	DB	01H DUP (?)
_BSS	ENDS
;	COMDAT ?moduleLock_@ModuleBase@Details@WRL@Microsoft@@0PAXA
_BSS	SEGMENT
?moduleLock_@ModuleBase@Details@WRL@Microsoft@@0PAXA DD 01H DUP (?) ; Microsoft::WRL::Details::ModuleBase::moduleLock_
_BSS	ENDS
;	COMDAT ?objectCount_@ModuleBase@Details@WRL@Microsoft@@1KC
_BSS	SEGMENT
?objectCount_@ModuleBase@Details@WRL@Microsoft@@1KC DD 01H DUP (?) ; Microsoft::WRL::Details::ModuleBase::objectCount_
_BSS	ENDS
;	COMDAT ?module_@ModuleBase@Details@WRL@Microsoft@@2PAV1234@A
_BSS	SEGMENT
?module_@ModuleBase@Details@WRL@Microsoft@@2PAV1234@A DD 01H DUP (?) ; Microsoft::WRL::Details::ModuleBase::module_
_BSS	ENDS
;	COMDAT _CLSID_WICImagingFactory
CONST	SEGMENT
_CLSID_WICImagingFactory DD 0cacaf262H
	DW	09370H
	DW	04615H
	DB	0a1H
	DB	03bH
	DB	09fH
	DB	055H
	DB	039H
	DB	0daH
	DB	04cH
	DB	0aH
CONST	ENDS
;	COMDAT __GUID_00000037_0000_0000_c000_000000000046
CONST	SEGMENT
__GUID_00000037_0000_0000_c000_000000000046 DD 037H
	DW	00H
	DW	00H
	DB	0c0H
	DB	00H
	DB	00H
	DB	00H
	DB	00H
	DB	00H
	DB	00H
	DB	046H
CONST	ENDS
;	COMDAT ?value@?$RuntimeClassFlags@$01@WRL@Microsoft@@2IB
CONST	SEGMENT
?value@?$RuntimeClassFlags@$01@WRL@Microsoft@@2IB DD 02H ; Microsoft::WRL::RuntimeClassFlags<2>::value
CONST	ENDS
;	COMDAT ?value@?$RuntimeClassFlags@$00@WRL@Microsoft@@2IB
CONST	SEGMENT
?value@?$RuntimeClassFlags@$00@WRL@Microsoft@@2IB DD 01H ; Microsoft::WRL::RuntimeClassFlags<1>::value
CONST	ENDS
;	COMDAT ?value@?$RuntimeClassFlags@$0N@@WRL@Microsoft@@2IB
CONST	SEGMENT
?value@?$RuntimeClassFlags@$0N@@WRL@Microsoft@@2IB DD 0dH ; Microsoft::WRL::RuntimeClassFlags<13>::value
CONST	ENDS
;	COMDAT ?value@?$RuntimeClassFlags@$05@WRL@Microsoft@@2IB
CONST	SEGMENT
?value@?$RuntimeClassFlags@$05@WRL@Microsoft@@2IB DD 06H ; Microsoft::WRL::RuntimeClassFlags<6>::value
CONST	ENDS
;	COMDAT __GUID_00000000_0000_0000_c000_000000000046
CONST	SEGMENT
__GUID_00000000_0000_0000_c000_000000000046 DD 00H
	DW	00H
	DW	00H
	DB	0c0H
	DB	00H
	DB	00H
	DB	00H
	DB	00H
	DB	00H
	DB	00H
	DB	046H
CONST	ENDS
;	COMDAT ?value@?$RuntimeClassFlags@$03@WRL@Microsoft@@2IB
CONST	SEGMENT
?value@?$RuntimeClassFlags@$03@WRL@Microsoft@@2IB DD 04H ; Microsoft::WRL::RuntimeClassFlags<4>::value
CONST	ENDS
;	COMDAT __GUID_00000146_0000_0000_c000_000000000046
CONST	SEGMENT
__GUID_00000146_0000_0000_c000_000000000046 DD 0146H
	DW	00H
	DW	00H
	DB	0c0H
	DB	00H
	DB	00H
	DB	00H
	DB	00H
	DB	00H
	DB	00H
	DB	046H
CONST	ENDS
;	COMDAT ?IidCount@?$InterfaceTraits@VNil@Details@WRL@Microsoft@@@Details@WRL@Microsoft@@2KB
CONST	SEGMENT
?IidCount@?$InterfaceTraits@VNil@Details@WRL@Microsoft@@@Details@WRL@Microsoft@@2KB DD 00H ; Microsoft::WRL::Details::InterfaceTraits<Microsoft::WRL::Details::Nil>::IidCount
CONST	ENDS
;	COMDAT ?DefaultDelegateCheckMode@WRL@Microsoft@@3W4DelegateCheckMode@12@B
CONST	SEGMENT
?DefaultDelegateCheckMode@WRL@Microsoft@@3W4DelegateCheckMode@12@B DD 01H ; Microsoft::WRL::DefaultDelegateCheckMode
CONST	ENDS
;	COMDAT __GUID_00000003_0000_0000_c000_000000000046
CONST	SEGMENT
__GUID_00000003_0000_0000_c000_000000000046 DD 03H
	DW	00H
	DW	00H
	DB	0c0H
	DB	00H
	DB	00H
	DB	00H
	DB	00H
	DB	00H
	DB	00H
	DB	046H
CONST	ENDS
;	COMDAT ?value@?$RuntimeClassFlags@$02@WRL@Microsoft@@2IB
CONST	SEGMENT
?value@?$RuntimeClassFlags@$02@WRL@Microsoft@@2IB DD 03H ; Microsoft::WRL::RuntimeClassFlags<3>::value
CONST	ENDS
;	COMDAT __GUID_94ea2b94_e9cc_49e0_c0ff_ee64ca8f5b90
CONST	SEGMENT
__GUID_94ea2b94_e9cc_49e0_c0ff_ee64ca8f5b90 DD 094ea2b94H
	DW	0e9ccH
	DW	049e0H
	DB	0c0H
	DB	0ffH
	DB	0eeH
	DB	064H
	DB	0caH
	DB	08fH
	DB	05bH
	DB	090H
CONST	ENDS
;	COMDAT ___pobjectentrylast
minATL$__z	SEGMENT
___pobjectentrylast DD 00H
minATL$__z	ENDS
;	COMDAT ___pobjectentrymid
minATL$__m	SEGMENT
___pobjectentrymid DD 00H
minATL$__m	ENDS
;	COMDAT ___pobjectentryfirst
minATL$__a	SEGMENT
___pobjectentryfirst DD 00H
minATL$__a	ENDS
;	COMDAT __GUID_ec5ec8a9_c395_4314_9c77_54d7a935ff70
CONST	SEGMENT
__GUID_ec5ec8a9_c395_4314_9c77_54d7a935ff70 DD 0ec5ec8a9H
	DW	0c395H
	DW	04314H
	DB	09cH
	DB	077H
	DB	054H
	DB	0d7H
	DB	0a9H
	DB	035H
	DB	0ffH
	DB	070H
CONST	ENDS
;	COMDAT ?value@?$integral_constant@H$0A@@std@@2HB
CONST	SEGMENT
?value@?$integral_constant@H$0A@@std@@2HB DD 00H	; std::integral_constant<int,0>::value
CONST	ENDS
CONST	SEGMENT
$SG158859 DB	'S', 00H, 'c', 00H, 'r', 00H, 'e', 00H, 'e', 00H, 'n', 00H
	DB	'g', 00H, 'r', 00H, 'a', 00H, 'b', 00H, '.', 00H, 'c', 00H, 'p'
	DB	00H, 'p', 00H, 00H, 00H
	ORG $+2
$SG158860 DB	'p', 00H, 'T', 00H, 'e', 00H, 'x', 00H, 't', 00H, 'u', 00H
	DB	'r', 00H, 'e', 00H, 00H, 00H
	ORG $+2
$SG159002 DB	'S', 00H, 'c', 00H, 'r', 00H, 'e', 00H, 'e', 00H, 'n', 00H
	DB	'g', 00H, 'r', 00H, 'a', 00H, 'b', 00H, '.', 00H, 'c', 00H, 'p'
	DB	00H, 'p', 00H, 00H, 00H
	ORG $+2
$SG159003 DB	'p', 00H, 'T', 00H, 'e', 00H, 'm', 00H, 'p', 00H, 00H, 00H
$SG159025 DB	'S', 00H, 'c', 00H, 'r', 00H, 'e', 00H, 'e', 00H, 'n', 00H
	DB	'g', 00H, 'r', 00H, 'a', 00H, 'b', 00H, '.', 00H, 'c', 00H, 'p'
	DB	00H, 'p', 00H, 00H, 00H
	ORG $+2
$SG159026 DB	'p', 00H, 'S', 00H, 't', 00H, 'a', 00H, 'g', 00H, 'i', 00H
	DB	'n', 00H, 'g', 00H, 00H, 00H
	ORG $+2
$SG159042 DB	'S', 00H, 'c', 00H, 'r', 00H, 'e', 00H, 'e', 00H, 'n', 00H
	DB	'g', 00H, 'r', 00H, 'a', 00H, 'b', 00H, '.', 00H, 'c', 00H, 'p'
	DB	00H, 'p', 00H, 00H, 00H
	ORG $+2
$SG159043 DB	'p', 00H, 'S', 00H, 't', 00H, 'a', 00H, 'g', 00H, 'i', 00H
	DB	'n', 00H, 'g', 00H, 00H, 00H
	ORG $+2
$SG160180 DB	'E', 00H, 'n', 00H, 'a', 00H, 'b', 00H, 'l', 00H, 'e', 00H
	DB	'V', 00H, '5', 00H, 'H', 00H, 'e', 00H, 'a', 00H, 'd', 00H, 'e'
	DB	00H, 'r', 00H, '3', 00H, '2', 00H, 'b', 00H, 'p', 00H, 'p', 00H
	DB	'B', 00H, 'G', 00H, 'R', 00H, 'A', 00H, 00H, 00H
$SG160350 DB	'DirectXTK', 00H
	ORG $+2
$SG160368 DB	'/', 00H, 't', 00H, 'E', 00H, 'X', 00H, 't', 00H, '/', 00H
	DB	'{', 00H, 's', 00H, 't', 00H, 'r', 00H, '=', 00H, 'S', 00H, 'o'
	DB	00H, 'f', 00H, 't', 00H, 'w', 00H, 'a', 00H, 'r', 00H, 'e', 00H
	DB	'}', 00H, 00H, 00H
	ORG $+2
$SG160371 DB	'/', 00H, 's', 00H, 'R', 00H, 'G', 00H, 'B', 00H, '/', 00H
	DB	'R', 00H, 'e', 00H, 'n', 00H, 'd', 00H, 'e', 00H, 'r', 00H, 'i'
	DB	00H, 'n', 00H, 'g', 00H, 'I', 00H, 'n', 00H, 't', 00H, 'e', 00H
	DB	'n', 00H, 't', 00H, 00H, 00H
$SG160374 DB	'S', 00H, 'y', 00H, 's', 00H, 't', 00H, 'e', 00H, 'm', 00H
	DB	'.', 00H, 'A', 00H, 'p', 00H, 'p', 00H, 'l', 00H, 'i', 00H, 'c'
	DB	00H, 'a', 00H, 't', 00H, 'i', 00H, 'o', 00H, 'n', 00H, 'N', 00H
	DB	'a', 00H, 'm', 00H, 'e', 00H, 00H, 00H
	ORG $+2
$SG160377 DB	'S', 00H, 'y', 00H, 's', 00H, 't', 00H, 'e', 00H, 'm', 00H
	DB	'.', 00H, 'I', 00H, 'm', 00H, 'a', 00H, 'g', 00H, 'e', 00H, '.'
	DB	00H, 'C', 00H, 'o', 00H, 'l', 00H, 'o', 00H, 'r', 00H, 'S', 00H
	DB	'p', 00H, 'a', 00H, 'c', 00H, 'e', 00H, 00H, 00H
_DDSPF_DXT1 DD	020H
	DD	04H
	DD	031545844H
	DD	00H
	DD	00H
	DD	00H
	DD	00H
	DD	00H
_DDSPF_DXT3 DD	020H
	DD	04H
	DD	033545844H
	DD	00H
	DD	00H
	DD	00H
	DD	00H
	DD	00H
_DDSPF_DXT5 DD	020H
	DD	04H
	DD	035545844H
	DD	00H
	DD	00H
	DD	00H
	DD	00H
	DD	00H
_DDSPF_BC4_UNORM DD 020H
	DD	04H
	DD	055344342H
	DD	00H
	DD	00H
	DD	00H
	DD	00H
	DD	00H
_DDSPF_BC4_SNORM DD 020H
	DD	04H
	DD	053344342H
	DD	00H
	DD	00H
	DD	00H
	DD	00H
	DD	00H
_DDSPF_BC5_UNORM DD 020H
	DD	04H
	DD	055354342H
	DD	00H
	DD	00H
	DD	00H
	DD	00H
	DD	00H
_DDSPF_BC5_SNORM DD 020H
	DD	04H
	DD	053354342H
	DD	00H
	DD	00H
	DD	00H
	DD	00H
	DD	00H
_DDSPF_R8G8_B8G8 DD 020H
	DD	04H
	DD	047424752H
	DD	00H
	DD	00H
	DD	00H
	DD	00H
	DD	00H
_DDSPF_G8R8_G8B8 DD 020H
	DD	04H
	DD	042475247H
	DD	00H
	DD	00H
	DD	00H
	DD	00H
	DD	00H
_DDSPF_YUY2 DD	020H
	DD	04H
	DD	032595559H
	DD	00H
	DD	00H
	DD	00H
	DD	00H
	DD	00H
_DDSPF_A8R8G8B8 DD 020H
	DD	041H
	DD	00H
	DD	020H
	DD	0ff0000H
	DD	0ff00H
	DD	0ffH
	DD	0ff000000H
_DDSPF_X8R8G8B8 DD 020H
	DD	040H
	DD	00H
	DD	020H
	DD	0ff0000H
	DD	0ff00H
	DD	0ffH
	DD	00H
_DDSPF_A8B8G8R8 DD 020H
	DD	041H
	DD	00H
	DD	020H
	DD	0ffH
	DD	0ff00H
	DD	0ff0000H
	DD	0ff000000H
_DDSPF_G16R16 DD 020H
	DD	040H
	DD	00H
	DD	020H
	DD	0ffffH
	DD	0ffff0000H
	DD	00H
	DD	00H
_DDSPF_R5G6B5 DD 020H
	DD	040H
	DD	00H
	DD	010H
	DD	0f800H
	DD	07e0H
	DD	01fH
	DD	00H
_DDSPF_A1R5G5B5 DD 020H
	DD	041H
	DD	00H
	DD	010H
	DD	07c00H
	DD	03e0H
	DD	01fH
	DD	08000H
_DDSPF_A4R4G4B4 DD 020H
	DD	041H
	DD	00H
	DD	010H
	DD	0f00H
	DD	0f0H
	DD	0fH
	DD	0f000H
_DDSPF_L8 DD	020H
	DD	020000H
	DD	00H
	DD	08H
	DD	0ffH
	DD	00H
	DD	00H
	DD	00H
_DDSPF_L16 DD	020H
	DD	020000H
	DD	00H
	DD	010H
	DD	0ffffH
	DD	00H
	DD	00H
	DD	00H
_DDSPF_A8L8 DD	020H
	DD	020001H
	DD	00H
	DD	010H
	DD	0ffH
	DD	00H
	DD	00H
	DD	0ff00H
_DDSPF_A8 DD	020H
	DD	02H
	DD	00H
	DD	08H
	DD	00H
	DD	00H
	DD	00H
	DD	0ffH
_DDSPF_DX10 DD	020H
	DD	04H
	DD	030315844H
	DD	00H
	DD	00H
	DD	00H
	DD	00H
	DD	00H
CONST	ENDS
;	COMDAT __GUID_6f15aaf2_d208_4e89_9ab4_489535d34f9c
CONST	SEGMENT
__GUID_6f15aaf2_d208_4e89_9ab4_489535d34f9c DD 06f15aaf2H
	DW	0d208H
	DW	04e89H
	DB	09aH
	DB	0b4H
	DB	048H
	DB	095H
	DB	035H
	DB	0d3H
	DB	04fH
	DB	09cH
CONST	ENDS
;	COMDAT _GUID_WICPixelFormat32bppRGBA1010102XR
CONST	SEGMENT
_GUID_WICPixelFormat32bppRGBA1010102XR DD 0de6b9aH
	DW	0c101H
	DW	0434bH
	DB	0b5H
	DB	02H
	DB	0d0H
	DB	016H
	DB	05eH
	DB	0e1H
	DB	012H
	DB	02cH
CONST	ENDS
;	COMDAT _GUID_WICPixelFormat32bppRGBA1010102
CONST	SEGMENT
_GUID_WICPixelFormat32bppRGBA1010102 DD 025238d72H
	DW	0fcf9H
	DW	04522H
	DB	0b5H
	DB	014H
	DB	055H
	DB	078H
	DB	0e5H
	DB	0adH
	DB	055H
	DB	0e0H
CONST	ENDS
;	COMDAT _GUID_WICPixelFormat16bppGrayHalf
CONST	SEGMENT
_GUID_WICPixelFormat16bppGrayHalf DD 06fddc324H
	DW	04e03H
	DW	04bfeH
	DB	0b1H
	DB	085H
	DB	03dH
	DB	077H
	DB	076H
	DB	08dH
	DB	0c9H
	DB	03eH
CONST	ENDS
;	COMDAT _GUID_WICPixelFormat64bppRGBAHalf
CONST	SEGMENT
_GUID_WICPixelFormat64bppRGBAHalf DD 06fddc324H
	DW	04e03H
	DW	04bfeH
	DB	0b1H
	DB	085H
	DB	03dH
	DB	077H
	DB	076H
	DB	08dH
	DB	0c9H
	DB	03aH
CONST	ENDS
;	COMDAT _GUID_WICPixelFormat128bppRGBAFloat
CONST	SEGMENT
_GUID_WICPixelFormat128bppRGBAFloat DD 06fddc324H
	DW	04e03H
	DW	04bfeH
	DB	0b1H
	DB	085H
	DB	03dH
	DB	077H
	DB	076H
	DB	08dH
	DB	0c9H
	DB	019H
CONST	ENDS
;	COMDAT _GUID_WICPixelFormat64bppRGBA
CONST	SEGMENT
_GUID_WICPixelFormat64bppRGBA DD 06fddc324H
	DW	04e03H
	DW	04bfeH
	DB	0b1H
	DB	085H
	DB	03dH
	DB	077H
	DB	076H
	DB	08dH
	DB	0c9H
	DB	016H
CONST	ENDS
;	COMDAT _GUID_WICPixelFormat48bppBGR
CONST	SEGMENT
_GUID_WICPixelFormat48bppBGR DD 0e605a384H
	DW	0b468H
	DW	046ceH
	DB	0bbH
	DB	02eH
	DB	036H
	DB	0f1H
	DB	080H
	DB	0e6H
	DB	043H
	DB	013H
CONST	ENDS
;	COMDAT _GUID_WICPixelFormat32bppRGBA
CONST	SEGMENT
_GUID_WICPixelFormat32bppRGBA DD 0f5c7ad2dH
	DW	06a8dH
	DW	043ddH
	DB	0a7H
	DB	0a8H
	DB	0a2H
	DB	099H
	DB	035H
	DB	026H
	DB	01aH
	DB	0e9H
CONST	ENDS
;	COMDAT _GUID_WICPixelFormat32bppGrayFloat
CONST	SEGMENT
_GUID_WICPixelFormat32bppGrayFloat DD 06fddc324H
	DW	04e03H
	DW	04bfeH
	DB	0b1H
	DB	085H
	DB	03dH
	DB	077H
	DB	076H
	DB	08dH
	DB	0c9H
	DB	011H
CONST	ENDS
;	COMDAT _GUID_WICPixelFormat32bppBGRA
CONST	SEGMENT
_GUID_WICPixelFormat32bppBGRA DD 06fddc324H
	DW	04e03H
	DW	04bfeH
	DB	0b1H
	DB	085H
	DB	03dH
	DB	077H
	DB	076H
	DB	08dH
	DB	0c9H
	DB	0fH
CONST	ENDS
;	COMDAT _GUID_WICPixelFormat32bppBGR
CONST	SEGMENT
_GUID_WICPixelFormat32bppBGR DD 06fddc324H
	DW	04e03H
	DW	04bfeH
	DB	0b1H
	DB	085H
	DB	03dH
	DB	077H
	DB	076H
	DB	08dH
	DB	0c9H
	DB	0eH
CONST	ENDS
;	COMDAT _GUID_WICPixelFormat24bppBGR
CONST	SEGMENT
_GUID_WICPixelFormat24bppBGR DD 06fddc324H
	DW	04e03H
	DW	04bfeH
	DB	0b1H
	DB	085H
	DB	03dH
	DB	077H
	DB	076H
	DB	08dH
	DB	0c9H
	DB	0cH
CONST	ENDS
;	COMDAT _GUID_WICPixelFormat16bppGray
CONST	SEGMENT
_GUID_WICPixelFormat16bppGray DD 06fddc324H
	DW	04e03H
	DW	04bfeH
	DB	0b1H
	DB	085H
	DB	03dH
	DB	077H
	DB	076H
	DB	08dH
	DB	0c9H
	DB	0bH
CONST	ENDS
;	COMDAT _GUID_WICPixelFormat16bppBGRA5551
CONST	SEGMENT
_GUID_WICPixelFormat16bppBGRA5551 DD 05ec7c2bH
	DW	0f1e6H
	DW	04961H
	DB	0adH
	DB	046H
	DB	0e1H
	DB	0ccH
	DB	081H
	DB	0aH
	DB	087H
	DB	0d2H
CONST	ENDS
;	COMDAT _GUID_WICPixelFormat16bppBGR565
CONST	SEGMENT
_GUID_WICPixelFormat16bppBGR565 DD 06fddc324H
	DW	04e03H
	DW	04bfeH
	DB	0b1H
	DB	085H
	DB	03dH
	DB	077H
	DB	076H
	DB	08dH
	DB	0c9H
	DB	0aH
CONST	ENDS
;	COMDAT _GUID_WICPixelFormat16bppBGR555
CONST	SEGMENT
_GUID_WICPixelFormat16bppBGR555 DD 06fddc324H
	DW	04e03H
	DW	04bfeH
	DB	0b1H
	DB	085H
	DB	03dH
	DB	077H
	DB	076H
	DB	08dH
	DB	0c9H
	DB	09H
CONST	ENDS
;	COMDAT _GUID_WICPixelFormat8bppAlpha
CONST	SEGMENT
_GUID_WICPixelFormat8bppAlpha DD 0e6cd0116H
	DW	0eebaH
	DW	04161H
	DB	0aaH
	DB	085H
	DB	027H
	DB	0ddH
	DB	09fH
	DB	0b3H
	DB	0a8H
	DB	095H
CONST	ENDS
;	COMDAT _GUID_WICPixelFormat8bppGray
CONST	SEGMENT
_GUID_WICPixelFormat8bppGray DD 06fddc324H
	DW	04e03H
	DW	04bfeH
	DB	0b1H
	DB	085H
	DB	03dH
	DB	077H
	DB	076H
	DB	08dH
	DB	0c9H
	DB	08H
CONST	ENDS
;	COMDAT _GUID_ContainerFormatPng
CONST	SEGMENT
_GUID_ContainerFormatPng DD 01b7cfaf4H
	DW	0713fH
	DW	0473cH
	DB	0bbH
	DB	0cdH
	DB	061H
	DB	037H
	DB	042H
	DB	05fH
	DB	0aeH
	DB	0afH
CONST	ENDS
;	COMDAT _GUID_ContainerFormatBmp
CONST	SEGMENT
_GUID_ContainerFormatBmp DD 0af1d87eH
	DW	0fcfeH
	DW	04188H
	DB	0bdH
	DB	0ebH
	DB	0a7H
	DB	090H
	DB	064H
	DB	071H
	DB	0cbH
	DB	0e3H
CONST	ENDS
PUBLIC	_HRESULT_FROM_WIN32
PUBLIC	_PropVariantInit
PUBLIC	?D3D11CalcSubresource@@YAIIII@Z			; D3D11CalcSubresource
PUBLIC	?InternalRelease@?$ComPtr@UIUnknown@@@WRL@Microsoft@@IAEKXZ ; Microsoft::WRL::ComPtr<IUnknown>::InternalRelease
PUBLIC	??1?$ComPtr@UIUnknown@@@WRL@Microsoft@@QAE@XZ	; Microsoft::WRL::ComPtr<IUnknown>::~ComPtr<IUnknown>
PUBLIC	??_E?$ComPtr@UIUnknown@@@WRL@Microsoft@@QAEPAXI@Z ; Microsoft::WRL::ComPtr<IUnknown>::`vector deleting destructor'
PUBLIC	??0_Ignore@std@@QAE@XZ				; std::_Ignore::_Ignore
PUBLIC	?SaveDDSTextureToFile@DirectX@@YAJPAUID3D11DeviceContext@@PAUID3D11Resource@@PB_W@Z ; DirectX::SaveDDSTextureToFile
PUBLIC	??R?$_Func_class@XPAUIPropertyBag2@@@std@@QBEXPAUIPropertyBag2@@@Z ; std::_Func_class<void,IPropertyBag2 *>::operator()
PUBLIC	?_Empty@?$_Func_class@XPAUIPropertyBag2@@@std@@QBE_NXZ ; std::_Func_class<void,IPropertyBag2 *>::_Empty
PUBLIC	??1?$_Func_class@XPAUIPropertyBag2@@@std@@QAE@XZ ; std::_Func_class<void,IPropertyBag2 *>::~_Func_class<void,IPropertyBag2 *>
PUBLIC	?_Tidy@?$_Func_class@XPAUIPropertyBag2@@@std@@IAEXXZ ; std::_Func_class<void,IPropertyBag2 *>::_Tidy
PUBLIC	?_Local@?$_Func_class@XPAUIPropertyBag2@@@std@@ABE_NXZ ; std::_Func_class<void,IPropertyBag2 *>::_Local
PUBLIC	??1?$function@$$A6AXPAUIPropertyBag2@@@Z@std@@QAE@XZ ; std::function<void __cdecl(IPropertyBag2 *)>::~function<void __cdecl(IPropertyBag2 *)>
PUBLIC	??B?$function@$$A6AXPAUIPropertyBag2@@@Z@std@@QBE_NXZ ; std::function<void __cdecl(IPropertyBag2 *)>::operator bool
PUBLIC	?SaveWICTextureToFile@DirectX@@YAJPAUID3D11DeviceContext@@PAUID3D11Resource@@ABU_GUID@@PB_WPBU4@V?$function@$$A6AXPAUIPropertyBag2@@@Z@std@@@Z ; DirectX::SaveWICTextureToFile
PUBLIC	??Rhandle_closer@@QAEXPAX@Z			; handle_closer::operator()
PUBLIC	?safe_handle@@YAPAXPAX@Z			; safe_handle
PUBLIC	??$max@I@std@@YAABIABI0@Z			; std::max<unsigned int>
PUBLIC	?InternalAddRef@?$ComPtr@UID3D11Texture2D@@@WRL@Microsoft@@IBEXXZ ; Microsoft::WRL::ComPtr<ID3D11Texture2D>::InternalAddRef
PUBLIC	?InternalRelease@?$ComPtr@UID3D11Texture2D@@@WRL@Microsoft@@IAEKXZ ; Microsoft::WRL::ComPtr<ID3D11Texture2D>::InternalRelease
PUBLIC	??0?$ComPtr@UID3D11Texture2D@@@WRL@Microsoft@@QAE@XZ ; Microsoft::WRL::ComPtr<ID3D11Texture2D>::ComPtr<ID3D11Texture2D>
PUBLIC	??0?$ComPtr@UID3D11Texture2D@@@WRL@Microsoft@@QAE@ABV012@@Z ; Microsoft::WRL::ComPtr<ID3D11Texture2D>::ComPtr<ID3D11Texture2D>
PUBLIC	??1?$ComPtr@UID3D11Texture2D@@@WRL@Microsoft@@QAE@XZ ; Microsoft::WRL::ComPtr<ID3D11Texture2D>::~ComPtr<ID3D11Texture2D>
PUBLIC	??4?$ComPtr@UID3D11Texture2D@@@WRL@Microsoft@@QAEAAV012@ABV012@@Z ; Microsoft::WRL::ComPtr<ID3D11Texture2D>::operator=
PUBLIC	?Swap@?$ComPtr@UID3D11Texture2D@@@WRL@Microsoft@@QAEXAAV123@@Z ; Microsoft::WRL::ComPtr<ID3D11Texture2D>::Swap
PUBLIC	??B?$ComPtr@UID3D11Texture2D@@@WRL@Microsoft@@QBEPQBoolStruct@Details@12@HXZ ; Microsoft::WRL::ComPtr<ID3D11Texture2D>::operator int Microsoft::WRL::Details::BoolStruct::*
PUBLIC	?Get@?$ComPtr@UID3D11Texture2D@@@WRL@Microsoft@@QBEPAUID3D11Texture2D@@XZ ; Microsoft::WRL::ComPtr<ID3D11Texture2D>::Get
PUBLIC	??C?$ComPtr@UID3D11Texture2D@@@WRL@Microsoft@@QBEPAV?$RemoveIUnknownBase@UID3D11Texture2D@@@Details@12@XZ ; Microsoft::WRL::ComPtr<ID3D11Texture2D>::operator->
PUBLIC	?GetAddressOf@?$ComPtr@UID3D11Texture2D@@@WRL@Microsoft@@QAEPAPAUID3D11Texture2D@@XZ ; Microsoft::WRL::ComPtr<ID3D11Texture2D>::GetAddressOf
PUBLIC	?InternalRelease@?$ComPtr@UID3D11Device@@@WRL@Microsoft@@IAEKXZ ; Microsoft::WRL::ComPtr<ID3D11Device>::InternalRelease
PUBLIC	??0?$ComPtr@UID3D11Device@@@WRL@Microsoft@@QAE@XZ ; Microsoft::WRL::ComPtr<ID3D11Device>::ComPtr<ID3D11Device>
PUBLIC	??1?$ComPtr@UID3D11Device@@@WRL@Microsoft@@QAE@XZ ; Microsoft::WRL::ComPtr<ID3D11Device>::~ComPtr<ID3D11Device>
PUBLIC	??C?$ComPtr@UID3D11Device@@@WRL@Microsoft@@QBEPAV?$RemoveIUnknownBase@UID3D11Device@@@Details@12@XZ ; Microsoft::WRL::ComPtr<ID3D11Device>::operator->
PUBLIC	?GetAddressOf@?$ComPtr@UID3D11Device@@@WRL@Microsoft@@QAEPAPAUID3D11Device@@XZ ; Microsoft::WRL::ComPtr<ID3D11Device>::GetAddressOf
PUBLIC	??0?$_Unique_ptr_base@XUhandle_closer@@$00@std@@QAE@PAX@Z ; std::_Unique_ptr_base<void,handle_closer,1>::_Unique_ptr_base<void,handle_closer,1>
PUBLIC	?get_deleter@?$_Unique_ptr_base@XUhandle_closer@@$00@std@@QAEAAUhandle_closer@@XZ ; std::_Unique_ptr_base<void,handle_closer,1>::get_deleter
PUBLIC	??0?$unique_ptr@XUhandle_closer@@@std@@QAE@PAX@Z ; std::unique_ptr<void,handle_closer>::unique_ptr<void,handle_closer>
PUBLIC	??1?$unique_ptr@XUhandle_closer@@@std@@QAE@XZ	; std::unique_ptr<void,handle_closer>::~unique_ptr<void,handle_closer>
PUBLIC	?get@?$unique_ptr@XUhandle_closer@@@std@@QBEPAXXZ ; std::unique_ptr<void,handle_closer>::get
PUBLIC	??B?$unique_ptr@XUhandle_closer@@@std@@QBE_NXZ	; std::unique_ptr<void,handle_closer>::operator bool
PUBLIC	??0?$default_delete@$$BY0A@E@std@@QAE@XZ	; std::default_delete<unsigned char [0]>::default_delete<unsigned char [0]>
PUBLIC	??R?$default_delete@$$BY0A@E@std@@QBEXPAE@Z	; std::default_delete<unsigned char [0]>::operator()
PUBLIC	??0?$_Unique_ptr_base@EU?$default_delete@$$BY0A@E@std@@$00@std@@QAE@PAE@Z ; std::_Unique_ptr_base<unsigned char,std::default_delete<unsigned char [0]>,1>::_Unique_ptr_base<unsigned char,std::default_delete<unsigned char [0]>,1>
PUBLIC	?get_deleter@?$_Unique_ptr_base@EU?$default_delete@$$BY0A@E@std@@$00@std@@QAEAAU?$default_delete@$$BY0A@E@2@XZ ; std::_Unique_ptr_base<unsigned char,std::default_delete<unsigned char [0]>,1>::get_deleter
PUBLIC	??0?$unique_ptr@$$BY0A@EU?$default_delete@$$BY0A@E@std@@@std@@QAE@PAE@Z ; std::unique_ptr<unsigned char [0],std::default_delete<unsigned char [0]> >::unique_ptr<unsigned char [0],std::default_delete<unsigned char [0]> >
PUBLIC	??1?$unique_ptr@$$BY0A@EU?$default_delete@$$BY0A@E@std@@@std@@QAE@XZ ; std::unique_ptr<unsigned char [0],std::default_delete<unsigned char [0]> >::~unique_ptr<unsigned char [0],std::default_delete<unsigned char [0]> >
PUBLIC	?get@?$unique_ptr@$$BY0A@EU?$default_delete@$$BY0A@E@std@@@std@@QBEPAEXZ ; std::unique_ptr<unsigned char [0],std::default_delete<unsigned char [0]> >::get
PUBLIC	??B?$unique_ptr@$$BY0A@EU?$default_delete@$$BY0A@E@std@@@std@@QBE_NXZ ; std::unique_ptr<unsigned char [0],std::default_delete<unsigned char [0]> >::operator bool
PUBLIC	?_Delete@?$unique_ptr@$$BY0A@EU?$default_delete@$$BY0A@E@std@@@std@@AAEXXZ ; std::unique_ptr<unsigned char [0],std::default_delete<unsigned char [0]> >::_Delete
PUBLIC	??$min@I@std@@YAABIABI0@Z			; std::min<unsigned int>
PUBLIC	?InternalRelease@?$ComPtr@UIWICStream@@@WRL@Microsoft@@IAEKXZ ; Microsoft::WRL::ComPtr<IWICStream>::InternalRelease
PUBLIC	??0?$ComPtr@UIWICStream@@@WRL@Microsoft@@QAE@XZ	; Microsoft::WRL::ComPtr<IWICStream>::ComPtr<IWICStream>
PUBLIC	??1?$ComPtr@UIWICStream@@@WRL@Microsoft@@QAE@XZ	; Microsoft::WRL::ComPtr<IWICStream>::~ComPtr<IWICStream>
PUBLIC	?Get@?$ComPtr@UIWICStream@@@WRL@Microsoft@@QBEPAUIWICStream@@XZ ; Microsoft::WRL::ComPtr<IWICStream>::Get
PUBLIC	??C?$ComPtr@UIWICStream@@@WRL@Microsoft@@QBEPAV?$RemoveIUnknownBase@UIWICStream@@@Details@12@XZ ; Microsoft::WRL::ComPtr<IWICStream>::operator->
PUBLIC	?GetAddressOf@?$ComPtr@UIWICStream@@@WRL@Microsoft@@QAEPAPAUIWICStream@@XZ ; Microsoft::WRL::ComPtr<IWICStream>::GetAddressOf
PUBLIC	?InternalRelease@?$ComPtr@UIWICBitmapEncoder@@@WRL@Microsoft@@IAEKXZ ; Microsoft::WRL::ComPtr<IWICBitmapEncoder>::InternalRelease
PUBLIC	??0?$ComPtr@UIWICBitmapEncoder@@@WRL@Microsoft@@QAE@XZ ; Microsoft::WRL::ComPtr<IWICBitmapEncoder>::ComPtr<IWICBitmapEncoder>
PUBLIC	??1?$ComPtr@UIWICBitmapEncoder@@@WRL@Microsoft@@QAE@XZ ; Microsoft::WRL::ComPtr<IWICBitmapEncoder>::~ComPtr<IWICBitmapEncoder>
PUBLIC	??C?$ComPtr@UIWICBitmapEncoder@@@WRL@Microsoft@@QBEPAV?$RemoveIUnknownBase@UIWICBitmapEncoder@@@Details@12@XZ ; Microsoft::WRL::ComPtr<IWICBitmapEncoder>::operator->
PUBLIC	?GetAddressOf@?$ComPtr@UIWICBitmapEncoder@@@WRL@Microsoft@@QAEPAPAUIWICBitmapEncoder@@XZ ; Microsoft::WRL::ComPtr<IWICBitmapEncoder>::GetAddressOf
PUBLIC	?InternalRelease@?$ComPtr@UIWICBitmapFrameEncode@@@WRL@Microsoft@@IAEKXZ ; Microsoft::WRL::ComPtr<IWICBitmapFrameEncode>::InternalRelease
PUBLIC	??0?$ComPtr@UIWICBitmapFrameEncode@@@WRL@Microsoft@@QAE@XZ ; Microsoft::WRL::ComPtr<IWICBitmapFrameEncode>::ComPtr<IWICBitmapFrameEncode>
PUBLIC	??1?$ComPtr@UIWICBitmapFrameEncode@@@WRL@Microsoft@@QAE@XZ ; Microsoft::WRL::ComPtr<IWICBitmapFrameEncode>::~ComPtr<IWICBitmapFrameEncode>
PUBLIC	??C?$ComPtr@UIWICBitmapFrameEncode@@@WRL@Microsoft@@QBEPAV?$RemoveIUnknownBase@UIWICBitmapFrameEncode@@@Details@12@XZ ; Microsoft::WRL::ComPtr<IWICBitmapFrameEncode>::operator->
PUBLIC	?GetAddressOf@?$ComPtr@UIWICBitmapFrameEncode@@@WRL@Microsoft@@QAEPAPAUIWICBitmapFrameEncode@@XZ ; Microsoft::WRL::ComPtr<IWICBitmapFrameEncode>::GetAddressOf
PUBLIC	?InternalRelease@?$ComPtr@UIPropertyBag2@@@WRL@Microsoft@@IAEKXZ ; Microsoft::WRL::ComPtr<IPropertyBag2>::InternalRelease
PUBLIC	??0?$ComPtr@UIPropertyBag2@@@WRL@Microsoft@@QAE@XZ ; Microsoft::WRL::ComPtr<IPropertyBag2>::ComPtr<IPropertyBag2>
PUBLIC	??1?$ComPtr@UIPropertyBag2@@@WRL@Microsoft@@QAE@XZ ; Microsoft::WRL::ComPtr<IPropertyBag2>::~ComPtr<IPropertyBag2>
PUBLIC	?Get@?$ComPtr@UIPropertyBag2@@@WRL@Microsoft@@QBEPAUIPropertyBag2@@XZ ; Microsoft::WRL::ComPtr<IPropertyBag2>::Get
PUBLIC	??C?$ComPtr@UIPropertyBag2@@@WRL@Microsoft@@QBEPAV?$RemoveIUnknownBase@UIPropertyBag2@@@Details@12@XZ ; Microsoft::WRL::ComPtr<IPropertyBag2>::operator->
PUBLIC	?GetAddressOf@?$ComPtr@UIPropertyBag2@@@WRL@Microsoft@@QAEPAPAUIPropertyBag2@@XZ ; Microsoft::WRL::ComPtr<IPropertyBag2>::GetAddressOf
PUBLIC	?InternalRelease@?$ComPtr@UIWICMetadataQueryWriter@@@WRL@Microsoft@@IAEKXZ ; Microsoft::WRL::ComPtr<IWICMetadataQueryWriter>::InternalRelease
PUBLIC	??0?$ComPtr@UIWICMetadataQueryWriter@@@WRL@Microsoft@@QAE@XZ ; Microsoft::WRL::ComPtr<IWICMetadataQueryWriter>::ComPtr<IWICMetadataQueryWriter>
PUBLIC	??1?$ComPtr@UIWICMetadataQueryWriter@@@WRL@Microsoft@@QAE@XZ ; Microsoft::WRL::ComPtr<IWICMetadataQueryWriter>::~ComPtr<IWICMetadataQueryWriter>
PUBLIC	??C?$ComPtr@UIWICMetadataQueryWriter@@@WRL@Microsoft@@QBEPAV?$RemoveIUnknownBase@UIWICMetadataQueryWriter@@@Details@12@XZ ; Microsoft::WRL::ComPtr<IWICMetadataQueryWriter>::operator->
PUBLIC	?GetAddressOf@?$ComPtr@UIWICMetadataQueryWriter@@@WRL@Microsoft@@QAEPAPAUIWICMetadataQueryWriter@@XZ ; Microsoft::WRL::ComPtr<IWICMetadataQueryWriter>::GetAddressOf
PUBLIC	?InternalRelease@?$ComPtr@UIWICBitmap@@@WRL@Microsoft@@IAEKXZ ; Microsoft::WRL::ComPtr<IWICBitmap>::InternalRelease
PUBLIC	??0?$ComPtr@UIWICBitmap@@@WRL@Microsoft@@QAE@XZ	; Microsoft::WRL::ComPtr<IWICBitmap>::ComPtr<IWICBitmap>
PUBLIC	??1?$ComPtr@UIWICBitmap@@@WRL@Microsoft@@QAE@XZ	; Microsoft::WRL::ComPtr<IWICBitmap>::~ComPtr<IWICBitmap>
PUBLIC	?Get@?$ComPtr@UIWICBitmap@@@WRL@Microsoft@@QBEPAUIWICBitmap@@XZ ; Microsoft::WRL::ComPtr<IWICBitmap>::Get
PUBLIC	?GetAddressOf@?$ComPtr@UIWICBitmap@@@WRL@Microsoft@@QAEPAPAUIWICBitmap@@XZ ; Microsoft::WRL::ComPtr<IWICBitmap>::GetAddressOf
PUBLIC	?InternalRelease@?$ComPtr@UIWICFormatConverter@@@WRL@Microsoft@@IAEKXZ ; Microsoft::WRL::ComPtr<IWICFormatConverter>::InternalRelease
PUBLIC	??0?$ComPtr@UIWICFormatConverter@@@WRL@Microsoft@@QAE@XZ ; Microsoft::WRL::ComPtr<IWICFormatConverter>::ComPtr<IWICFormatConverter>
PUBLIC	??1?$ComPtr@UIWICFormatConverter@@@WRL@Microsoft@@QAE@XZ ; Microsoft::WRL::ComPtr<IWICFormatConverter>::~ComPtr<IWICFormatConverter>
PUBLIC	?Get@?$ComPtr@UIWICFormatConverter@@@WRL@Microsoft@@QBEPAUIWICFormatConverter@@XZ ; Microsoft::WRL::ComPtr<IWICFormatConverter>::Get
PUBLIC	??C?$ComPtr@UIWICFormatConverter@@@WRL@Microsoft@@QBEPAV?$RemoveIUnknownBase@UIWICFormatConverter@@@Details@12@XZ ; Microsoft::WRL::ComPtr<IWICFormatConverter>::operator->
PUBLIC	?GetAddressOf@?$ComPtr@UIWICFormatConverter@@@WRL@Microsoft@@QAEPAPAUIWICFormatConverter@@XZ ; Microsoft::WRL::ComPtr<IWICFormatConverter>::GetAddressOf
PUBLIC	??$forward@PAUIPropertyBag2@@@std@@YA$$QAPAUIPropertyBag2@@AAPAU1@@Z ; std::forward<IPropertyBag2 *>
PUBLIC	??$_Debug_lt@ABIABI@std@@YA_NABI0PB_WI@Z	; std::_Debug_lt<unsigned int const &,unsigned int const &>
PUBLIC	??$forward@ABI@std@@YAABIABI@Z			; std::forward<unsigned int const &>
PUBLIC	??$_Debug_lt_pred@U?$less@X@std@@ABIABI@std@@YA_NU?$less@X@0@ABI1PB_WI@Z ; std::_Debug_lt_pred<std::less<void>,unsigned int const &,unsigned int const &>
PUBLIC	??$?RABIABI@?$less@X@std@@QBE_NABI0@Z		; std::less<void>::operator()<unsigned int const &,unsigned int const &>
PUBLIC	??_C@_1JC@HALMDPKM@?$AAC?$AA?3?$AA?2?$AAP?$AAr?$AAo?$AAg?$AAr?$AAa?$AAm?$AA?5?$AAF?$AAi?$AAl?$AAe?$AAs?$AA?5?$AA?$CI?$AAx?$AA8?$AA6?$AA?$CJ?$AA?2?$AAM?$AAi?$AAc?$AAr?$AAo?$AAs?$AAo?$AAf?$AAt@ ; `string'
PUBLIC	??_C@_1CE@IGJMOCCK@?$AAi?$AAn?$AAv?$AAa?$AAl?$AAi?$AAd?$AA?5?$AAo?$AAp?$AAe?$AAr?$AAa?$AAt?$AAo?$AAr?$AA?$DM?$AA?$AA@ ; `string'
PUBLIC	__real@0000000000000000
PUBLIC	__real@4052000000000000
EXTRN	??_M@YGXPAXIHP6EX0@Z@Z:PROC			; `eh vector destructor iterator'
EXTRN	??3@YAXPAX@Z:PROC				; operator delete
EXTRN	__imp__memcpy_s:PROC
EXTRN	__imp__CreateFileW@28:PROC
EXTRN	__imp__WriteFile@20:PROC
EXTRN	__imp__CloseHandle@4:PROC
EXTRN	__imp__GetLastError@0:PROC
EXTRN	__imp__CoCreateInstance@20:PROC
EXTRN	__imp___wassert:PROC
EXTRN	??_U@YAPAXIABUnothrow_t@std@@@Z:PROC		; operator new[]
EXTRN	??_V@YAXPAX@Z:PROC				; operator delete[]
EXTRN	__imp_?_Debug_message@std@@YAXPB_W0I@Z:PROC
EXTRN	__imp_?_Xbad_function_call@std@@YAXXZ:PROC
EXTRN	@_RTC_CheckStackVars@8:PROC
EXTRN	@__security_check_cookie@4:PROC
EXTRN	__RTC_CheckEsp:PROC
EXTRN	__RTC_InitBase:PROC
EXTRN	__RTC_Shutdown:PROC
EXTRN	___CxxFrameHandler3:PROC
EXTRN	_memcmp:PROC
EXTRN	_memset:PROC
EXTRN	?nothrow@std@@3Unothrow_t@1@B:BYTE		; std::nothrow
EXTRN	___security_cookie:DWORD
EXTRN	__fltused:DWORD
_BSS	SEGMENT
_ignore	DB	01H DUP (?)
__Tuple_alloc DB 01H DUP (?)
_BSS	ENDS
;	COMDAT ?s_Factory@?1??_GetWIC@@YAPAUIWICImagingFactory@@XZ@4PAU2@A
_BSS	SEGMENT
?s_Factory@?1??_GetWIC@@YAPAUIWICImagingFactory@@XZ@4PAU2@A DD 01H DUP (?) ; `_GetWIC'::`2'::s_Factory
_BSS	ENDS
CRT$XCU	SEGMENT
_ignore$initializer$ DD FLAT:??__Eignore@std@@YAXXZ
CRT$XCU	ENDS
;	COMDAT __real@4052000000000000
CONST	SEGMENT
__real@4052000000000000 DQ 04052000000000000r	; 72
CONST	ENDS
;	COMDAT __real@0000000000000000
CONST	SEGMENT
__real@0000000000000000 DQ 00000000000000000r	; 0
CONST	ENDS
;	COMDAT rtc$TMZ
rtc$TMZ	SEGMENT
__RTC_Shutdown.rtc$TMZ DD FLAT:__RTC_Shutdown
rtc$TMZ	ENDS
;	COMDAT rtc$IMZ
rtc$IMZ	SEGMENT
__RTC_InitBase.rtc$IMZ DD FLAT:__RTC_InitBase
rtc$IMZ	ENDS
;	COMDAT ??_C@_1CE@IGJMOCCK@?$AAi?$AAn?$AAv?$AAa?$AAl?$AAi?$AAd?$AA?5?$AAo?$AAp?$AAe?$AAr?$AAa?$AAt?$AAo?$AAr?$AA?$DM?$AA?$AA@
CONST	SEGMENT
??_C@_1CE@IGJMOCCK@?$AAi?$AAn?$AAv?$AAa?$AAl?$AAi?$AAd?$AA?5?$AAo?$AAp?$AAe?$AAr?$AAa?$AAt?$AAo?$AAr?$AA?$DM?$AA?$AA@ DB 'i'
	DB	00H, 'n', 00H, 'v', 00H, 'a', 00H, 'l', 00H, 'i', 00H, 'd', 00H
	DB	' ', 00H, 'o', 00H, 'p', 00H, 'e', 00H, 'r', 00H, 'a', 00H, 't'
	DB	00H, 'o', 00H, 'r', 00H, '<', 00H, 00H, 00H	; `string'
CONST	ENDS
;	COMDAT ??_C@_1JC@HALMDPKM@?$AAC?$AA?3?$AA?2?$AAP?$AAr?$AAo?$AAg?$AAr?$AAa?$AAm?$AA?5?$AAF?$AAi?$AAl?$AAe?$AAs?$AA?5?$AA?$CI?$AAx?$AA8?$AA6?$AA?$CJ?$AA?2?$AAM?$AAi?$AAc?$AAr?$AAo?$AAs?$AAo?$AAf?$AAt@
CONST	SEGMENT
??_C@_1JC@HALMDPKM@?$AAC?$AA?3?$AA?2?$AAP?$AAr?$AAo?$AAg?$AAr?$AAa?$AAm?$AA?5?$AAF?$AAi?$AAl?$AAe?$AAs?$AA?5?$AA?$CI?$AAx?$AA8?$AA6?$AA?$CJ?$AA?2?$AAM?$AAi?$AAc?$AAr?$AAo?$AAs?$AAo?$AAf?$AAt@ DB 'C'
	DB	00H, ':', 00H, '\', 00H, 'P', 00H, 'r', 00H, 'o', 00H, 'g', 00H
	DB	'r', 00H, 'a', 00H, 'm', 00H, ' ', 00H, 'F', 00H, 'i', 00H, 'l'
	DB	00H, 'e', 00H, 's', 00H, ' ', 00H, '(', 00H, 'x', 00H, '8', 00H
	DB	'6', 00H, ')', 00H, '\', 00H, 'M', 00H, 'i', 00H, 'c', 00H, 'r'
	DB	00H, 'o', 00H, 's', 00H, 'o', 00H, 'f', 00H, 't', 00H, ' ', 00H
	DB	'V', 00H, 'i', 00H, 's', 00H, 'u', 00H, 'a', 00H, 'l', 00H, ' '
	DB	00H, 'S', 00H, 't', 00H, 'u', 00H, 'd', 00H, 'i', 00H, 'o', 00H
	DB	' ', 00H, '1', 00H, '2', 00H, '.', 00H, '0', 00H, '\', 00H, 'V'
	DB	00H, 'C', 00H, '\', 00H, 'i', 00H, 'n', 00H, 'c', 00H, 'l', 00H
	DB	'u', 00H, 'd', 00H, 'e', 00H, '\', 00H, 'a', 00H, 'l', 00H, 'g'
	DB	00H, 'o', 00H, 'r', 00H, 'i', 00H, 't', 00H, 'h', 00H, 'm', 00H
	DB	00H, 00H					; `string'
CONST	ENDS
xdata$x	SEGMENT
__unwindtable$?CaptureTexture@@YAJPAUID3D11DeviceContext@@PAUID3D11Resource@@AAUD3D11_TEXTURE2D_DESC@@AAV?$ComPtr@UID3D11Texture2D@@@WRL@Microsoft@@@Z DD 0ffffffffH
	DD	FLAT:__unwindfunclet$?CaptureTexture@@YAJPAUID3D11DeviceContext@@PAUID3D11Resource@@AAUD3D11_TEXTURE2D_DESC@@AAV?$ComPtr@UID3D11Texture2D@@@WRL@Microsoft@@@Z$0
	DD	00H
	DD	FLAT:__unwindfunclet$?CaptureTexture@@YAJPAUID3D11DeviceContext@@PAUID3D11Resource@@AAUD3D11_TEXTURE2D_DESC@@AAV?$ComPtr@UID3D11Texture2D@@@WRL@Microsoft@@@Z$1
	DD	01H
	DD	FLAT:__unwindfunclet$?CaptureTexture@@YAJPAUID3D11DeviceContext@@PAUID3D11Resource@@AAUD3D11_TEXTURE2D_DESC@@AAV?$ComPtr@UID3D11Texture2D@@@WRL@Microsoft@@@Z$2
__unwindtable$?SaveDDSTextureToFile@DirectX@@YAJPAUID3D11DeviceContext@@PAUID3D11Resource@@PB_W@Z DD 0ffffffffH
	DD	FLAT:__unwindfunclet$?SaveDDSTextureToFile@DirectX@@YAJPAUID3D11DeviceContext@@PAUID3D11Resource@@PB_W@Z$0
	DD	00H
	DD	FLAT:__unwindfunclet$?SaveDDSTextureToFile@DirectX@@YAJPAUID3D11DeviceContext@@PAUID3D11Resource@@PB_W@Z$1
	DD	01H
	DD	FLAT:__unwindfunclet$?SaveDDSTextureToFile@DirectX@@YAJPAUID3D11DeviceContext@@PAUID3D11Resource@@PB_W@Z$2
__ehfuncinfo$?CaptureTexture@@YAJPAUID3D11DeviceContext@@PAUID3D11Resource@@AAUD3D11_TEXTURE2D_DESC@@AAV?$ComPtr@UID3D11Texture2D@@@WRL@Microsoft@@@Z DD 019930522H
	DD	03H
	DD	FLAT:__unwindtable$?CaptureTexture@@YAJPAUID3D11DeviceContext@@PAUID3D11Resource@@AAUD3D11_TEXTURE2D_DESC@@AAV?$ComPtr@UID3D11Texture2D@@@WRL@Microsoft@@@Z
	DD	2 DUP(00H)
	DD	2 DUP(00H)
	DD	00H
	DD	01H
__ehfuncinfo$?SaveWICTextureToFile@DirectX@@YAJPAUID3D11DeviceContext@@PAUID3D11Resource@@ABU_GUID@@PB_WPBU4@V?$function@$$A6AXPAUIPropertyBag2@@@Z@std@@@Z DD 019930522H
	DD	09H
	DD	FLAT:__unwindtable$?SaveWICTextureToFile@DirectX@@YAJPAUID3D11DeviceContext@@PAUID3D11Resource@@ABU_GUID@@PB_WPBU4@V?$function@$$A6AXPAUIPropertyBag2@@@Z@std@@@Z
	DD	2 DUP(00H)
	DD	2 DUP(00H)
	DD	00H
	DD	01H
__ehfuncinfo$?SaveDDSTextureToFile@DirectX@@YAJPAUID3D11DeviceContext@@PAUID3D11Resource@@PB_W@Z DD 019930522H
	DD	03H
	DD	FLAT:__unwindtable$?SaveDDSTextureToFile@DirectX@@YAJPAUID3D11DeviceContext@@PAUID3D11Resource@@PB_W@Z
	DD	2 DUP(00H)
	DD	2 DUP(00H)
	DD	00H
	DD	01H
__unwindtable$?SaveWICTextureToFile@DirectX@@YAJPAUID3D11DeviceContext@@PAUID3D11Resource@@ABU_GUID@@PB_WPBU4@V?$function@$$A6AXPAUIPropertyBag2@@@Z@std@@@Z DD 0ffffffffH
	DD	FLAT:__unwindfunclet$?SaveWICTextureToFile@DirectX@@YAJPAUID3D11DeviceContext@@PAUID3D11Resource@@ABU_GUID@@PB_WPBU4@V?$function@$$A6AXPAUIPropertyBag2@@@Z@std@@@Z$0
	DD	00H
	DD	FLAT:__unwindfunclet$?SaveWICTextureToFile@DirectX@@YAJPAUID3D11DeviceContext@@PAUID3D11Resource@@ABU_GUID@@PB_WPBU4@V?$function@$$A6AXPAUIPropertyBag2@@@Z@std@@@Z$1
	DD	01H
	DD	FLAT:__unwindfunclet$?SaveWICTextureToFile@DirectX@@YAJPAUID3D11DeviceContext@@PAUID3D11Resource@@ABU_GUID@@PB_WPBU4@V?$function@$$A6AXPAUIPropertyBag2@@@Z@std@@@Z$2
	DD	02H
	DD	FLAT:__unwindfunclet$?SaveWICTextureToFile@DirectX@@YAJPAUID3D11DeviceContext@@PAUID3D11Resource@@ABU_GUID@@PB_WPBU4@V?$function@$$A6AXPAUIPropertyBag2@@@Z@std@@@Z$3
	DD	03H
	DD	FLAT:__unwindfunclet$?SaveWICTextureToFile@DirectX@@YAJPAUID3D11DeviceContext@@PAUID3D11Resource@@ABU_GUID@@PB_WPBU4@V?$function@$$A6AXPAUIPropertyBag2@@@Z@std@@@Z$4
	DD	04H
	DD	FLAT:__unwindfunclet$?SaveWICTextureToFile@DirectX@@YAJPAUID3D11DeviceContext@@PAUID3D11Resource@@ABU_GUID@@PB_WPBU4@V?$function@$$A6AXPAUIPropertyBag2@@@Z@std@@@Z$5
	DD	05H
	DD	FLAT:__unwindfunclet$?SaveWICTextureToFile@DirectX@@YAJPAUID3D11DeviceContext@@PAUID3D11Resource@@ABU_GUID@@PB_WPBU4@V?$function@$$A6AXPAUIPropertyBag2@@@Z@std@@@Z$6
	DD	06H
	DD	FLAT:__unwindfunclet$?SaveWICTextureToFile@DirectX@@YAJPAUID3D11DeviceContext@@PAUID3D11Resource@@ABU_GUID@@PB_WPBU4@V?$function@$$A6AXPAUIPropertyBag2@@@Z@std@@@Z$7
	DD	07H
	DD	FLAT:__unwindfunclet$?SaveWICTextureToFile@DirectX@@YAJPAUID3D11DeviceContext@@PAUID3D11Resource@@ABU_GUID@@PB_WPBU4@V?$function@$$A6AXPAUIPropertyBag2@@@Z@std@@@Z$8
xdata$x	ENDS
CRT$XCU	SEGMENT
__Tuple_alloc$initializer$ DD FLAT:??__E_Tuple_alloc@std@@YAXXZ
CRT$XCU	ENDS
; Function compile flags: /Odtp /RTCsu
;	COMDAT ??$?RABIABI@?$less@X@std@@QBE_NABI0@Z
_TEXT	SEGMENT
tv65 = -8						; size = 4
_this$ = -4						; size = 4
__Left$ = 8						; size = 4
__Right$ = 12						; size = 4
??$?RABIABI@?$less@X@std@@QBE_NABI0@Z PROC		; std::less<void>::operator()<unsigned int const &,unsigned int const &>, COMDAT
; _this$ = ecx
; File c:\program files (x86)\microsoft visual studio 12.0\vc\include\xstddef
; Line 263
  00000	55		 push	 ebp
  00001	8b ec		 mov	 ebp, esp
  00003	83 ec 08	 sub	 esp, 8
  00006	c7 45 f8 cc cc
	cc cc		 mov	 DWORD PTR [ebp-8], -858993460 ; ccccccccH
  0000d	c7 45 fc cc cc
	cc cc		 mov	 DWORD PTR [ebp-4], -858993460 ; ccccccccH
  00014	89 4d fc	 mov	 DWORD PTR _this$[ebp], ecx
; Line 268
  00017	8b 45 08	 mov	 eax, DWORD PTR __Left$[ebp]
  0001a	8b 4d 0c	 mov	 ecx, DWORD PTR __Right$[ebp]
  0001d	8b 10		 mov	 edx, DWORD PTR [eax]
  0001f	3b 11		 cmp	 edx, DWORD PTR [ecx]
  00021	73 09		 jae	 SHORT $LN3@operator
  00023	c7 45 f8 01 00
	00 00		 mov	 DWORD PTR tv65[ebp], 1
  0002a	eb 07		 jmp	 SHORT $LN4@operator
$LN3@operator:
  0002c	c7 45 f8 00 00
	00 00		 mov	 DWORD PTR tv65[ebp], 0
$LN4@operator:
  00033	8a 45 f8	 mov	 al, BYTE PTR tv65[ebp]
; Line 269
  00036	8b e5		 mov	 esp, ebp
  00038	5d		 pop	 ebp
  00039	c2 08 00	 ret	 8
??$?RABIABI@?$less@X@std@@QBE_NABI0@Z ENDP		; std::less<void>::operator()<unsigned int const &,unsigned int const &>
_TEXT	ENDS
; Function compile flags: /Odtp /RTCsu
;	COMDAT ??$_Debug_lt_pred@U?$less@X@std@@ABIABI@std@@YA_NU?$less@X@0@ABI1PB_WI@Z
_TEXT	SEGMENT
__Pred$ = 8						; size = 1
__Left$ = 12						; size = 4
__Right$ = 16						; size = 4
__File$ = 20						; size = 4
__Line$ = 24						; size = 4
??$_Debug_lt_pred@U?$less@X@std@@ABIABI@std@@YA_NU?$less@X@0@ABI1PB_WI@Z PROC ; std::_Debug_lt_pred<std::less<void>,unsigned int const &,unsigned int const &>, COMDAT
; File c:\program files (x86)\microsoft visual studio 12.0\vc\include\xutility
; Line 520
  00000	55		 push	 ebp
  00001	8b ec		 mov	 ebp, esp
  00003	56		 push	 esi
; Line 521
  00004	8b 45 10	 mov	 eax, DWORD PTR __Right$[ebp]
  00007	50		 push	 eax
  00008	e8 00 00 00 00	 call	 ??$forward@ABI@std@@YAABIABI@Z ; std::forward<unsigned int const &>
  0000d	83 c4 04	 add	 esp, 4
  00010	50		 push	 eax
  00011	8b 4d 0c	 mov	 ecx, DWORD PTR __Left$[ebp]
  00014	51		 push	 ecx
  00015	e8 00 00 00 00	 call	 ??$forward@ABI@std@@YAABIABI@Z ; std::forward<unsigned int const &>
  0001a	83 c4 04	 add	 esp, 4
  0001d	50		 push	 eax
  0001e	8d 4d 08	 lea	 ecx, DWORD PTR __Pred$[ebp]
  00021	e8 00 00 00 00	 call	 ??$?RABIABI@?$less@X@std@@QBE_NABI0@Z ; std::less<void>::operator()<unsigned int const &,unsigned int const &>
  00026	0f b6 d0	 movzx	 edx, al
  00029	85 d2		 test	 edx, edx
  0002b	75 06		 jne	 SHORT $LN3@Debug_lt_p
; Line 522
  0002d	32 c0		 xor	 al, al
  0002f	eb 4c		 jmp	 SHORT $LN4@Debug_lt_p
  00031	eb 48		 jmp	 SHORT $LN2@Debug_lt_p
$LN3@Debug_lt_p:
; Line 523
  00033	8b 45 0c	 mov	 eax, DWORD PTR __Left$[ebp]
  00036	50		 push	 eax
  00037	e8 00 00 00 00	 call	 ??$forward@ABI@std@@YAABIABI@Z ; std::forward<unsigned int const &>
  0003c	83 c4 04	 add	 esp, 4
  0003f	50		 push	 eax
  00040	8b 4d 10	 mov	 ecx, DWORD PTR __Right$[ebp]
  00043	51		 push	 ecx
  00044	e8 00 00 00 00	 call	 ??$forward@ABI@std@@YAABIABI@Z ; std::forward<unsigned int const &>
  00049	83 c4 04	 add	 esp, 4
  0004c	50		 push	 eax
  0004d	8d 4d 08	 lea	 ecx, DWORD PTR __Pred$[ebp]
  00050	e8 00 00 00 00	 call	 ??$?RABIABI@?$less@X@std@@QBE_NABI0@Z ; std::less<void>::operator()<unsigned int const &,unsigned int const &>
  00055	0f b6 d0	 movzx	 edx, al
  00058	85 d2		 test	 edx, edx
  0005a	74 1f		 je	 SHORT $LN2@Debug_lt_p
; Line 524
  0005c	8b f4		 mov	 esi, esp
  0005e	8b 45 18	 mov	 eax, DWORD PTR __Line$[ebp]
  00061	50		 push	 eax
  00062	8b 4d 14	 mov	 ecx, DWORD PTR __File$[ebp]
  00065	51		 push	 ecx
  00066	68 00 00 00 00	 push	 OFFSET ??_C@_1CE@IGJMOCCK@?$AAi?$AAn?$AAv?$AAa?$AAl?$AAi?$AAd?$AA?5?$AAo?$AAp?$AAe?$AAr?$AAa?$AAt?$AAo?$AAr?$AA?$DM?$AA?$AA@
  0006b	ff 15 00 00 00
	00		 call	 DWORD PTR __imp_?_Debug_message@std@@YAXPB_W0I@Z
  00071	83 c4 0c	 add	 esp, 12			; 0000000cH
  00074	3b f4		 cmp	 esi, esp
  00076	e8 00 00 00 00	 call	 __RTC_CheckEsp
$LN2@Debug_lt_p:
; Line 525
  0007b	b0 01		 mov	 al, 1
$LN4@Debug_lt_p:
; Line 526
  0007d	5e		 pop	 esi
  0007e	3b ec		 cmp	 ebp, esp
  00080	e8 00 00 00 00	 call	 __RTC_CheckEsp
  00085	5d		 pop	 ebp
  00086	c3		 ret	 0
??$_Debug_lt_pred@U?$less@X@std@@ABIABI@std@@YA_NU?$less@X@0@ABI1PB_WI@Z ENDP ; std::_Debug_lt_pred<std::less<void>,unsigned int const &,unsigned int const &>
_TEXT	ENDS
; Function compile flags: /Odtp /RTCsu
;	COMDAT ??$forward@ABI@std@@YAABIABI@Z
_TEXT	SEGMENT
__Arg$ = 8						; size = 4
??$forward@ABI@std@@YAABIABI@Z PROC			; std::forward<unsigned int const &>, COMDAT
; File c:\program files (x86)\microsoft visual studio 12.0\vc\include\type_traits
; Line 1504
  00000	55		 push	 ebp
  00001	8b ec		 mov	 ebp, esp
; Line 1505
  00003	8b 45 08	 mov	 eax, DWORD PTR __Arg$[ebp]
; Line 1506
  00006	5d		 pop	 ebp
  00007	c3		 ret	 0
??$forward@ABI@std@@YAABIABI@Z ENDP			; std::forward<unsigned int const &>
_TEXT	ENDS
; Function compile flags: /Odtp /RTCsu
;	COMDAT ??$_Debug_lt@ABIABI@std@@YA_NABI0PB_WI@Z
_TEXT	SEGMENT
$T1 = -1						; size = 1
__Left$ = 8						; size = 4
__Right$ = 12						; size = 4
__File$ = 16						; size = 4
__Line$ = 20						; size = 4
??$_Debug_lt@ABIABI@std@@YA_NABI0PB_WI@Z PROC		; std::_Debug_lt<unsigned int const &,unsigned int const &>, COMDAT
; File c:\program files (x86)\microsoft visual studio 12.0\vc\include\xutility
; Line 532
  00000	55		 push	 ebp
  00001	8b ec		 mov	 ebp, esp
  00003	51		 push	 ecx
  00004	c7 45 fc cc cc
	cc cc		 mov	 DWORD PTR [ebp-4], -858993460 ; ccccccccH
; Line 534
  0000b	33 c0		 xor	 eax, eax
  0000d	88 45 ff	 mov	 BYTE PTR $T1[ebp], al
  00010	8b 4d 14	 mov	 ecx, DWORD PTR __Line$[ebp]
  00013	51		 push	 ecx
  00014	8b 55 10	 mov	 edx, DWORD PTR __File$[ebp]
  00017	52		 push	 edx
  00018	8b 45 0c	 mov	 eax, DWORD PTR __Right$[ebp]
  0001b	50		 push	 eax
  0001c	e8 00 00 00 00	 call	 ??$forward@ABI@std@@YAABIABI@Z ; std::forward<unsigned int const &>
  00021	83 c4 04	 add	 esp, 4
  00024	50		 push	 eax
  00025	8b 4d 08	 mov	 ecx, DWORD PTR __Left$[ebp]
  00028	51		 push	 ecx
  00029	e8 00 00 00 00	 call	 ??$forward@ABI@std@@YAABIABI@Z ; std::forward<unsigned int const &>
  0002e	83 c4 04	 add	 esp, 4
  00031	50		 push	 eax
  00032	0f b6 55 ff	 movzx	 edx, BYTE PTR $T1[ebp]
  00036	52		 push	 edx
  00037	e8 00 00 00 00	 call	 ??$_Debug_lt_pred@U?$less@X@std@@ABIABI@std@@YA_NU?$less@X@0@ABI1PB_WI@Z ; std::_Debug_lt_pred<std::less<void>,unsigned int const &,unsigned int const &>
  0003c	83 c4 14	 add	 esp, 20			; 00000014H
; Line 535
  0003f	83 c4 04	 add	 esp, 4
  00042	3b ec		 cmp	 ebp, esp
  00044	e8 00 00 00 00	 call	 __RTC_CheckEsp
  00049	8b e5		 mov	 esp, ebp
  0004b	5d		 pop	 ebp
  0004c	c3		 ret	 0
??$_Debug_lt@ABIABI@std@@YA_NABI0PB_WI@Z ENDP		; std::_Debug_lt<unsigned int const &,unsigned int const &>
_TEXT	ENDS
; Function compile flags: /Odtp /RTCsu
;	COMDAT ??$forward@PAUIPropertyBag2@@@std@@YA$$QAPAUIPropertyBag2@@AAPAU1@@Z
_TEXT	SEGMENT
__Arg$ = 8						; size = 4
??$forward@PAUIPropertyBag2@@@std@@YA$$QAPAUIPropertyBag2@@AAPAU1@@Z PROC ; std::forward<IPropertyBag2 *>, COMDAT
; File c:\program files (x86)\microsoft visual studio 12.0\vc\include\type_traits
; Line 1504
  00000	55		 push	 ebp
  00001	8b ec		 mov	 ebp, esp
; Line 1505
  00003	8b 45 08	 mov	 eax, DWORD PTR __Arg$[ebp]
; Line 1506
  00006	5d		 pop	 ebp
  00007	c3		 ret	 0
??$forward@PAUIPropertyBag2@@@std@@YA$$QAPAUIPropertyBag2@@AAPAU1@@Z ENDP ; std::forward<IPropertyBag2 *>
_TEXT	ENDS
; Function compile flags: /Odtp /RTCsu
;	COMDAT ?GetAddressOf@?$ComPtr@UIWICFormatConverter@@@WRL@Microsoft@@QAEPAPAUIWICFormatConverter@@XZ
_TEXT	SEGMENT
_this$ = -4						; size = 4
?GetAddressOf@?$ComPtr@UIWICFormatConverter@@@WRL@Microsoft@@QAEPAPAUIWICFormatConverter@@XZ PROC ; Microsoft::WRL::ComPtr<IWICFormatConverter>::GetAddressOf, COMDAT
; _this$ = ecx
; File c:\program files (x86)\windows kits\8.1\include\winrt\wrl\client.h
; Line 353
  00000	55		 push	 ebp
  00001	8b ec		 mov	 ebp, esp
  00003	51		 push	 ecx
  00004	c7 45 fc cc cc
	cc cc		 mov	 DWORD PTR [ebp-4], -858993460 ; ccccccccH
  0000b	89 4d fc	 mov	 DWORD PTR _this$[ebp], ecx
; Line 354
  0000e	8b 45 fc	 mov	 eax, DWORD PTR _this$[ebp]
; Line 355
  00011	8b e5		 mov	 esp, ebp
  00013	5d		 pop	 ebp
  00014	c3		 ret	 0
?GetAddressOf@?$ComPtr@UIWICFormatConverter@@@WRL@Microsoft@@QAEPAPAUIWICFormatConverter@@XZ ENDP ; Microsoft::WRL::ComPtr<IWICFormatConverter>::GetAddressOf
_TEXT	ENDS
; Function compile flags: /Odtp /RTCsu
;	COMDAT ??C?$ComPtr@UIWICFormatConverter@@@WRL@Microsoft@@QBEPAV?$RemoveIUnknownBase@UIWICFormatConverter@@@Details@12@XZ
_TEXT	SEGMENT
_this$ = -4						; size = 4
??C?$ComPtr@UIWICFormatConverter@@@WRL@Microsoft@@QBEPAV?$RemoveIUnknownBase@UIWICFormatConverter@@@Details@12@XZ PROC ; Microsoft::WRL::ComPtr<IWICFormatConverter>::operator->, COMDAT
; _this$ = ecx
; File c:\program files (x86)\windows kits\8.1\include\winrt\wrl\client.h
; Line 326
  00000	55		 push	 ebp
  00001	8b ec		 mov	 ebp, esp
  00003	51		 push	 ecx
  00004	c7 45 fc cc cc
	cc cc		 mov	 DWORD PTR [ebp-4], -858993460 ; ccccccccH
  0000b	89 4d fc	 mov	 DWORD PTR _this$[ebp], ecx
; Line 327
  0000e	8b 45 fc	 mov	 eax, DWORD PTR _this$[ebp]
  00011	8b 00		 mov	 eax, DWORD PTR [eax]
; Line 328
  00013	8b e5		 mov	 esp, ebp
  00015	5d		 pop	 ebp
  00016	c3		 ret	 0
??C?$ComPtr@UIWICFormatConverter@@@WRL@Microsoft@@QBEPAV?$RemoveIUnknownBase@UIWICFormatConverter@@@Details@12@XZ ENDP ; Microsoft::WRL::ComPtr<IWICFormatConverter>::operator->
_TEXT	ENDS
; Function compile flags: /Odtp /RTCsu
;	COMDAT ?Get@?$ComPtr@UIWICFormatConverter@@@WRL@Microsoft@@QBEPAUIWICFormatConverter@@XZ
_TEXT	SEGMENT
_this$ = -4						; size = 4
?Get@?$ComPtr@UIWICFormatConverter@@@WRL@Microsoft@@QBEPAUIWICFormatConverter@@XZ PROC ; Microsoft::WRL::ComPtr<IWICFormatConverter>::Get, COMDAT
; _this$ = ecx
; File c:\program files (x86)\windows kits\8.1\include\winrt\wrl\client.h
; Line 320
  00000	55		 push	 ebp
  00001	8b ec		 mov	 ebp, esp
  00003	51		 push	 ecx
  00004	c7 45 fc cc cc
	cc cc		 mov	 DWORD PTR [ebp-4], -858993460 ; ccccccccH
  0000b	89 4d fc	 mov	 DWORD PTR _this$[ebp], ecx
; Line 321
  0000e	8b 45 fc	 mov	 eax, DWORD PTR _this$[ebp]
  00011	8b 00		 mov	 eax, DWORD PTR [eax]
; Line 322
  00013	8b e5		 mov	 esp, ebp
  00015	5d		 pop	 ebp
  00016	c3		 ret	 0
?Get@?$ComPtr@UIWICFormatConverter@@@WRL@Microsoft@@QBEPAUIWICFormatConverter@@XZ ENDP ; Microsoft::WRL::ComPtr<IWICFormatConverter>::Get
_TEXT	ENDS
; Function compile flags: /Odtp /RTCsu
;	COMDAT ??1?$ComPtr@UIWICFormatConverter@@@WRL@Microsoft@@QAE@XZ
_TEXT	SEGMENT
_this$ = -4						; size = 4
??1?$ComPtr@UIWICFormatConverter@@@WRL@Microsoft@@QAE@XZ PROC ; Microsoft::WRL::ComPtr<IWICFormatConverter>::~ComPtr<IWICFormatConverter>, COMDAT
; _this$ = ecx
; File c:\program files (x86)\windows kits\8.1\include\winrt\wrl\client.h
; Line 240
  00000	55		 push	 ebp
  00001	8b ec		 mov	 ebp, esp
  00003	51		 push	 ecx
  00004	c7 45 fc cc cc
	cc cc		 mov	 DWORD PTR [ebp-4], -858993460 ; ccccccccH
  0000b	89 4d fc	 mov	 DWORD PTR _this$[ebp], ecx
; Line 241
  0000e	8b 4d fc	 mov	 ecx, DWORD PTR _this$[ebp]
  00011	e8 00 00 00 00	 call	 ?InternalRelease@?$ComPtr@UIWICFormatConverter@@@WRL@Microsoft@@IAEKXZ ; Microsoft::WRL::ComPtr<IWICFormatConverter>::InternalRelease
; Line 242
  00016	83 c4 04	 add	 esp, 4
  00019	3b ec		 cmp	 ebp, esp
  0001b	e8 00 00 00 00	 call	 __RTC_CheckEsp
  00020	8b e5		 mov	 esp, ebp
  00022	5d		 pop	 ebp
  00023	c3		 ret	 0
??1?$ComPtr@UIWICFormatConverter@@@WRL@Microsoft@@QAE@XZ ENDP ; Microsoft::WRL::ComPtr<IWICFormatConverter>::~ComPtr<IWICFormatConverter>
_TEXT	ENDS
; Function compile flags: /Odtp /RTCsu
;	COMDAT ??0?$ComPtr@UIWICFormatConverter@@@WRL@Microsoft@@QAE@XZ
_TEXT	SEGMENT
_this$ = -4						; size = 4
??0?$ComPtr@UIWICFormatConverter@@@WRL@Microsoft@@QAE@XZ PROC ; Microsoft::WRL::ComPtr<IWICFormatConverter>::ComPtr<IWICFormatConverter>, COMDAT
; _this$ = ecx
; File c:\program files (x86)\windows kits\8.1\include\winrt\wrl\client.h
; Line 195
  00000	55		 push	 ebp
  00001	8b ec		 mov	 ebp, esp
  00003	51		 push	 ecx
  00004	c7 45 fc cc cc
	cc cc		 mov	 DWORD PTR [ebp-4], -858993460 ; ccccccccH
  0000b	89 4d fc	 mov	 DWORD PTR _this$[ebp], ecx
  0000e	8b 45 fc	 mov	 eax, DWORD PTR _this$[ebp]
  00011	c7 00 00 00 00
	00		 mov	 DWORD PTR [eax], 0
; Line 196
  00017	8b 45 fc	 mov	 eax, DWORD PTR _this$[ebp]
  0001a	8b e5		 mov	 esp, ebp
  0001c	5d		 pop	 ebp
  0001d	c3		 ret	 0
??0?$ComPtr@UIWICFormatConverter@@@WRL@Microsoft@@QAE@XZ ENDP ; Microsoft::WRL::ComPtr<IWICFormatConverter>::ComPtr<IWICFormatConverter>
_TEXT	ENDS
; Function compile flags: /Odtp /RTCsu
;	COMDAT ?InternalRelease@?$ComPtr@UIWICFormatConverter@@@WRL@Microsoft@@IAEKXZ
_TEXT	SEGMENT
_temp$ = -12						; size = 4
_ref$ = -8						; size = 4
_this$ = -4						; size = 4
?InternalRelease@?$ComPtr@UIWICFormatConverter@@@WRL@Microsoft@@IAEKXZ PROC ; Microsoft::WRL::ComPtr<IWICFormatConverter>::InternalRelease, COMDAT
; _this$ = ecx
; File c:\program files (x86)\windows kits\8.1\include\winrt\wrl\client.h
; Line 179
  00000	55		 push	 ebp
  00001	8b ec		 mov	 ebp, esp
  00003	83 ec 0c	 sub	 esp, 12			; 0000000cH
  00006	56		 push	 esi
  00007	c7 45 f4 cc cc
	cc cc		 mov	 DWORD PTR [ebp-12], -858993460 ; ccccccccH
  0000e	c7 45 f8 cc cc
	cc cc		 mov	 DWORD PTR [ebp-8], -858993460 ; ccccccccH
  00015	c7 45 fc cc cc
	cc cc		 mov	 DWORD PTR [ebp-4], -858993460 ; ccccccccH
  0001c	89 4d fc	 mov	 DWORD PTR _this$[ebp], ecx
; Line 180
  0001f	c7 45 f8 00 00
	00 00		 mov	 DWORD PTR _ref$[ebp], 0
; Line 181
  00026	8b 45 fc	 mov	 eax, DWORD PTR _this$[ebp]
  00029	8b 08		 mov	 ecx, DWORD PTR [eax]
  0002b	89 4d f4	 mov	 DWORD PTR _temp$[ebp], ecx
; Line 183
  0002e	83 7d f4 00	 cmp	 DWORD PTR _temp$[ebp], 0
  00032	74 23		 je	 SHORT $LN1@InternalRe
; Line 185
  00034	8b 55 fc	 mov	 edx, DWORD PTR _this$[ebp]
  00037	c7 02 00 00 00
	00		 mov	 DWORD PTR [edx], 0
; Line 186
  0003d	8b 45 f4	 mov	 eax, DWORD PTR _temp$[ebp]
  00040	8b 08		 mov	 ecx, DWORD PTR [eax]
  00042	8b f4		 mov	 esi, esp
  00044	8b 55 f4	 mov	 edx, DWORD PTR _temp$[ebp]
  00047	52		 push	 edx
  00048	8b 41 08	 mov	 eax, DWORD PTR [ecx+8]
  0004b	ff d0		 call	 eax
  0004d	3b f4		 cmp	 esi, esp
  0004f	e8 00 00 00 00	 call	 __RTC_CheckEsp
  00054	89 45 f8	 mov	 DWORD PTR _ref$[ebp], eax
$LN1@InternalRe:
; Line 189
  00057	8b 45 f8	 mov	 eax, DWORD PTR _ref$[ebp]
; Line 190
  0005a	5e		 pop	 esi
  0005b	83 c4 0c	 add	 esp, 12			; 0000000cH
  0005e	3b ec		 cmp	 ebp, esp
  00060	e8 00 00 00 00	 call	 __RTC_CheckEsp
  00065	8b e5		 mov	 esp, ebp
  00067	5d		 pop	 ebp
  00068	c3		 ret	 0
?InternalRelease@?$ComPtr@UIWICFormatConverter@@@WRL@Microsoft@@IAEKXZ ENDP ; Microsoft::WRL::ComPtr<IWICFormatConverter>::InternalRelease
_TEXT	ENDS
; Function compile flags: /Odtp /RTCsu
;	COMDAT ?GetAddressOf@?$ComPtr@UIWICBitmap@@@WRL@Microsoft@@QAEPAPAUIWICBitmap@@XZ
_TEXT	SEGMENT
_this$ = -4						; size = 4
?GetAddressOf@?$ComPtr@UIWICBitmap@@@WRL@Microsoft@@QAEPAPAUIWICBitmap@@XZ PROC ; Microsoft::WRL::ComPtr<IWICBitmap>::GetAddressOf, COMDAT
; _this$ = ecx
; File c:\program files (x86)\windows kits\8.1\include\winrt\wrl\client.h
; Line 353
  00000	55		 push	 ebp
  00001	8b ec		 mov	 ebp, esp
  00003	51		 push	 ecx
  00004	c7 45 fc cc cc
	cc cc		 mov	 DWORD PTR [ebp-4], -858993460 ; ccccccccH
  0000b	89 4d fc	 mov	 DWORD PTR _this$[ebp], ecx
; Line 354
  0000e	8b 45 fc	 mov	 eax, DWORD PTR _this$[ebp]
; Line 355
  00011	8b e5		 mov	 esp, ebp
  00013	5d		 pop	 ebp
  00014	c3		 ret	 0
?GetAddressOf@?$ComPtr@UIWICBitmap@@@WRL@Microsoft@@QAEPAPAUIWICBitmap@@XZ ENDP ; Microsoft::WRL::ComPtr<IWICBitmap>::GetAddressOf
_TEXT	ENDS
; Function compile flags: /Odtp /RTCsu
;	COMDAT ?Get@?$ComPtr@UIWICBitmap@@@WRL@Microsoft@@QBEPAUIWICBitmap@@XZ
_TEXT	SEGMENT
_this$ = -4						; size = 4
?Get@?$ComPtr@UIWICBitmap@@@WRL@Microsoft@@QBEPAUIWICBitmap@@XZ PROC ; Microsoft::WRL::ComPtr<IWICBitmap>::Get, COMDAT
; _this$ = ecx
; File c:\program files (x86)\windows kits\8.1\include\winrt\wrl\client.h
; Line 320
  00000	55		 push	 ebp
  00001	8b ec		 mov	 ebp, esp
  00003	51		 push	 ecx
  00004	c7 45 fc cc cc
	cc cc		 mov	 DWORD PTR [ebp-4], -858993460 ; ccccccccH
  0000b	89 4d fc	 mov	 DWORD PTR _this$[ebp], ecx
; Line 321
  0000e	8b 45 fc	 mov	 eax, DWORD PTR _this$[ebp]
  00011	8b 00		 mov	 eax, DWORD PTR [eax]
; Line 322
  00013	8b e5		 mov	 esp, ebp
  00015	5d		 pop	 ebp
  00016	c3		 ret	 0
?Get@?$ComPtr@UIWICBitmap@@@WRL@Microsoft@@QBEPAUIWICBitmap@@XZ ENDP ; Microsoft::WRL::ComPtr<IWICBitmap>::Get
_TEXT	ENDS
; Function compile flags: /Odtp /RTCsu
;	COMDAT ??1?$ComPtr@UIWICBitmap@@@WRL@Microsoft@@QAE@XZ
_TEXT	SEGMENT
_this$ = -4						; size = 4
??1?$ComPtr@UIWICBitmap@@@WRL@Microsoft@@QAE@XZ PROC	; Microsoft::WRL::ComPtr<IWICBitmap>::~ComPtr<IWICBitmap>, COMDAT
; _this$ = ecx
; File c:\program files (x86)\windows kits\8.1\include\winrt\wrl\client.h
; Line 240
  00000	55		 push	 ebp
  00001	8b ec		 mov	 ebp, esp
  00003	51		 push	 ecx
  00004	c7 45 fc cc cc
	cc cc		 mov	 DWORD PTR [ebp-4], -858993460 ; ccccccccH
  0000b	89 4d fc	 mov	 DWORD PTR _this$[ebp], ecx
; Line 241
  0000e	8b 4d fc	 mov	 ecx, DWORD PTR _this$[ebp]
  00011	e8 00 00 00 00	 call	 ?InternalRelease@?$ComPtr@UIWICBitmap@@@WRL@Microsoft@@IAEKXZ ; Microsoft::WRL::ComPtr<IWICBitmap>::InternalRelease
; Line 242
  00016	83 c4 04	 add	 esp, 4
  00019	3b ec		 cmp	 ebp, esp
  0001b	e8 00 00 00 00	 call	 __RTC_CheckEsp
  00020	8b e5		 mov	 esp, ebp
  00022	5d		 pop	 ebp
  00023	c3		 ret	 0
??1?$ComPtr@UIWICBitmap@@@WRL@Microsoft@@QAE@XZ ENDP	; Microsoft::WRL::ComPtr<IWICBitmap>::~ComPtr<IWICBitmap>
_TEXT	ENDS
; Function compile flags: /Odtp /RTCsu
;	COMDAT ??0?$ComPtr@UIWICBitmap@@@WRL@Microsoft@@QAE@XZ
_TEXT	SEGMENT
_this$ = -4						; size = 4
??0?$ComPtr@UIWICBitmap@@@WRL@Microsoft@@QAE@XZ PROC	; Microsoft::WRL::ComPtr<IWICBitmap>::ComPtr<IWICBitmap>, COMDAT
; _this$ = ecx
; File c:\program files (x86)\windows kits\8.1\include\winrt\wrl\client.h
; Line 195
  00000	55		 push	 ebp
  00001	8b ec		 mov	 ebp, esp
  00003	51		 push	 ecx
  00004	c7 45 fc cc cc
	cc cc		 mov	 DWORD PTR [ebp-4], -858993460 ; ccccccccH
  0000b	89 4d fc	 mov	 DWORD PTR _this$[ebp], ecx
  0000e	8b 45 fc	 mov	 eax, DWORD PTR _this$[ebp]
  00011	c7 00 00 00 00
	00		 mov	 DWORD PTR [eax], 0
; Line 196
  00017	8b 45 fc	 mov	 eax, DWORD PTR _this$[ebp]
  0001a	8b e5		 mov	 esp, ebp
  0001c	5d		 pop	 ebp
  0001d	c3		 ret	 0
??0?$ComPtr@UIWICBitmap@@@WRL@Microsoft@@QAE@XZ ENDP	; Microsoft::WRL::ComPtr<IWICBitmap>::ComPtr<IWICBitmap>
_TEXT	ENDS
; Function compile flags: /Odtp /RTCsu
;	COMDAT ?InternalRelease@?$ComPtr@UIWICBitmap@@@WRL@Microsoft@@IAEKXZ
_TEXT	SEGMENT
_temp$ = -12						; size = 4
_ref$ = -8						; size = 4
_this$ = -4						; size = 4
?InternalRelease@?$ComPtr@UIWICBitmap@@@WRL@Microsoft@@IAEKXZ PROC ; Microsoft::WRL::ComPtr<IWICBitmap>::InternalRelease, COMDAT
; _this$ = ecx
; File c:\program files (x86)\windows kits\8.1\include\winrt\wrl\client.h
; Line 179
  00000	55		 push	 ebp
  00001	8b ec		 mov	 ebp, esp
  00003	83 ec 0c	 sub	 esp, 12			; 0000000cH
  00006	56		 push	 esi
  00007	c7 45 f4 cc cc
	cc cc		 mov	 DWORD PTR [ebp-12], -858993460 ; ccccccccH
  0000e	c7 45 f8 cc cc
	cc cc		 mov	 DWORD PTR [ebp-8], -858993460 ; ccccccccH
  00015	c7 45 fc cc cc
	cc cc		 mov	 DWORD PTR [ebp-4], -858993460 ; ccccccccH
  0001c	89 4d fc	 mov	 DWORD PTR _this$[ebp], ecx
; Line 180
  0001f	c7 45 f8 00 00
	00 00		 mov	 DWORD PTR _ref$[ebp], 0
; Line 181
  00026	8b 45 fc	 mov	 eax, DWORD PTR _this$[ebp]
  00029	8b 08		 mov	 ecx, DWORD PTR [eax]
  0002b	89 4d f4	 mov	 DWORD PTR _temp$[ebp], ecx
; Line 183
  0002e	83 7d f4 00	 cmp	 DWORD PTR _temp$[ebp], 0
  00032	74 23		 je	 SHORT $LN1@InternalRe
; Line 185
  00034	8b 55 fc	 mov	 edx, DWORD PTR _this$[ebp]
  00037	c7 02 00 00 00
	00		 mov	 DWORD PTR [edx], 0
; Line 186
  0003d	8b 45 f4	 mov	 eax, DWORD PTR _temp$[ebp]
  00040	8b 08		 mov	 ecx, DWORD PTR [eax]
  00042	8b f4		 mov	 esi, esp
  00044	8b 55 f4	 mov	 edx, DWORD PTR _temp$[ebp]
  00047	52		 push	 edx
  00048	8b 41 08	 mov	 eax, DWORD PTR [ecx+8]
  0004b	ff d0		 call	 eax
  0004d	3b f4		 cmp	 esi, esp
  0004f	e8 00 00 00 00	 call	 __RTC_CheckEsp
  00054	89 45 f8	 mov	 DWORD PTR _ref$[ebp], eax
$LN1@InternalRe:
; Line 189
  00057	8b 45 f8	 mov	 eax, DWORD PTR _ref$[ebp]
; Line 190
  0005a	5e		 pop	 esi
  0005b	83 c4 0c	 add	 esp, 12			; 0000000cH
  0005e	3b ec		 cmp	 ebp, esp
  00060	e8 00 00 00 00	 call	 __RTC_CheckEsp
  00065	8b e5		 mov	 esp, ebp
  00067	5d		 pop	 ebp
  00068	c3		 ret	 0
?InternalRelease@?$ComPtr@UIWICBitmap@@@WRL@Microsoft@@IAEKXZ ENDP ; Microsoft::WRL::ComPtr<IWICBitmap>::InternalRelease
_TEXT	ENDS
; Function compile flags: /Odtp /RTCsu
;	COMDAT ?GetAddressOf@?$ComPtr@UIWICMetadataQueryWriter@@@WRL@Microsoft@@QAEPAPAUIWICMetadataQueryWriter@@XZ
_TEXT	SEGMENT
_this$ = -4						; size = 4
?GetAddressOf@?$ComPtr@UIWICMetadataQueryWriter@@@WRL@Microsoft@@QAEPAPAUIWICMetadataQueryWriter@@XZ PROC ; Microsoft::WRL::ComPtr<IWICMetadataQueryWriter>::GetAddressOf, COMDAT
; _this$ = ecx
; File c:\program files (x86)\windows kits\8.1\include\winrt\wrl\client.h
; Line 353
  00000	55		 push	 ebp
  00001	8b ec		 mov	 ebp, esp
  00003	51		 push	 ecx
  00004	c7 45 fc cc cc
	cc cc		 mov	 DWORD PTR [ebp-4], -858993460 ; ccccccccH
  0000b	89 4d fc	 mov	 DWORD PTR _this$[ebp], ecx
; Line 354
  0000e	8b 45 fc	 mov	 eax, DWORD PTR _this$[ebp]
; Line 355
  00011	8b e5		 mov	 esp, ebp
  00013	5d		 pop	 ebp
  00014	c3		 ret	 0
?GetAddressOf@?$ComPtr@UIWICMetadataQueryWriter@@@WRL@Microsoft@@QAEPAPAUIWICMetadataQueryWriter@@XZ ENDP ; Microsoft::WRL::ComPtr<IWICMetadataQueryWriter>::GetAddressOf
_TEXT	ENDS
; Function compile flags: /Odtp /RTCsu
;	COMDAT ??C?$ComPtr@UIWICMetadataQueryWriter@@@WRL@Microsoft@@QBEPAV?$RemoveIUnknownBase@UIWICMetadataQueryWriter@@@Details@12@XZ
_TEXT	SEGMENT
_this$ = -4						; size = 4
??C?$ComPtr@UIWICMetadataQueryWriter@@@WRL@Microsoft@@QBEPAV?$RemoveIUnknownBase@UIWICMetadataQueryWriter@@@Details@12@XZ PROC ; Microsoft::WRL::ComPtr<IWICMetadataQueryWriter>::operator->, COMDAT
; _this$ = ecx
; File c:\program files (x86)\windows kits\8.1\include\winrt\wrl\client.h
; Line 326
  00000	55		 push	 ebp
  00001	8b ec		 mov	 ebp, esp
  00003	51		 push	 ecx
  00004	c7 45 fc cc cc
	cc cc		 mov	 DWORD PTR [ebp-4], -858993460 ; ccccccccH
  0000b	89 4d fc	 mov	 DWORD PTR _this$[ebp], ecx
; Line 327
  0000e	8b 45 fc	 mov	 eax, DWORD PTR _this$[ebp]
  00011	8b 00		 mov	 eax, DWORD PTR [eax]
; Line 328
  00013	8b e5		 mov	 esp, ebp
  00015	5d		 pop	 ebp
  00016	c3		 ret	 0
??C?$ComPtr@UIWICMetadataQueryWriter@@@WRL@Microsoft@@QBEPAV?$RemoveIUnknownBase@UIWICMetadataQueryWriter@@@Details@12@XZ ENDP ; Microsoft::WRL::ComPtr<IWICMetadataQueryWriter>::operator->
_TEXT	ENDS
; Function compile flags: /Odtp /RTCsu
;	COMDAT ??1?$ComPtr@UIWICMetadataQueryWriter@@@WRL@Microsoft@@QAE@XZ
_TEXT	SEGMENT
_this$ = -4						; size = 4
??1?$ComPtr@UIWICMetadataQueryWriter@@@WRL@Microsoft@@QAE@XZ PROC ; Microsoft::WRL::ComPtr<IWICMetadataQueryWriter>::~ComPtr<IWICMetadataQueryWriter>, COMDAT
; _this$ = ecx
; File c:\program files (x86)\windows kits\8.1\include\winrt\wrl\client.h
; Line 240
  00000	55		 push	 ebp
  00001	8b ec		 mov	 ebp, esp
  00003	51		 push	 ecx
  00004	c7 45 fc cc cc
	cc cc		 mov	 DWORD PTR [ebp-4], -858993460 ; ccccccccH
  0000b	89 4d fc	 mov	 DWORD PTR _this$[ebp], ecx
; Line 241
  0000e	8b 4d fc	 mov	 ecx, DWORD PTR _this$[ebp]
  00011	e8 00 00 00 00	 call	 ?InternalRelease@?$ComPtr@UIWICMetadataQueryWriter@@@WRL@Microsoft@@IAEKXZ ; Microsoft::WRL::ComPtr<IWICMetadataQueryWriter>::InternalRelease
; Line 242
  00016	83 c4 04	 add	 esp, 4
  00019	3b ec		 cmp	 ebp, esp
  0001b	e8 00 00 00 00	 call	 __RTC_CheckEsp
  00020	8b e5		 mov	 esp, ebp
  00022	5d		 pop	 ebp
  00023	c3		 ret	 0
??1?$ComPtr@UIWICMetadataQueryWriter@@@WRL@Microsoft@@QAE@XZ ENDP ; Microsoft::WRL::ComPtr<IWICMetadataQueryWriter>::~ComPtr<IWICMetadataQueryWriter>
_TEXT	ENDS
; Function compile flags: /Odtp /RTCsu
;	COMDAT ??0?$ComPtr@UIWICMetadataQueryWriter@@@WRL@Microsoft@@QAE@XZ
_TEXT	SEGMENT
_this$ = -4						; size = 4
??0?$ComPtr@UIWICMetadataQueryWriter@@@WRL@Microsoft@@QAE@XZ PROC ; Microsoft::WRL::ComPtr<IWICMetadataQueryWriter>::ComPtr<IWICMetadataQueryWriter>, COMDAT
; _this$ = ecx
; File c:\program files (x86)\windows kits\8.1\include\winrt\wrl\client.h
; Line 195
  00000	55		 push	 ebp
  00001	8b ec		 mov	 ebp, esp
  00003	51		 push	 ecx
  00004	c7 45 fc cc cc
	cc cc		 mov	 DWORD PTR [ebp-4], -858993460 ; ccccccccH
  0000b	89 4d fc	 mov	 DWORD PTR _this$[ebp], ecx
  0000e	8b 45 fc	 mov	 eax, DWORD PTR _this$[ebp]
  00011	c7 00 00 00 00
	00		 mov	 DWORD PTR [eax], 0
; Line 196
  00017	8b 45 fc	 mov	 eax, DWORD PTR _this$[ebp]
  0001a	8b e5		 mov	 esp, ebp
  0001c	5d		 pop	 ebp
  0001d	c3		 ret	 0
??0?$ComPtr@UIWICMetadataQueryWriter@@@WRL@Microsoft@@QAE@XZ ENDP ; Microsoft::WRL::ComPtr<IWICMetadataQueryWriter>::ComPtr<IWICMetadataQueryWriter>
_TEXT	ENDS
; Function compile flags: /Odtp /RTCsu
;	COMDAT ?InternalRelease@?$ComPtr@UIWICMetadataQueryWriter@@@WRL@Microsoft@@IAEKXZ
_TEXT	SEGMENT
_temp$ = -12						; size = 4
_ref$ = -8						; size = 4
_this$ = -4						; size = 4
?InternalRelease@?$ComPtr@UIWICMetadataQueryWriter@@@WRL@Microsoft@@IAEKXZ PROC ; Microsoft::WRL::ComPtr<IWICMetadataQueryWriter>::InternalRelease, COMDAT
; _this$ = ecx
; File c:\program files (x86)\windows kits\8.1\include\winrt\wrl\client.h
; Line 179
  00000	55		 push	 ebp
  00001	8b ec		 mov	 ebp, esp
  00003	83 ec 0c	 sub	 esp, 12			; 0000000cH
  00006	56		 push	 esi
  00007	c7 45 f4 cc cc
	cc cc		 mov	 DWORD PTR [ebp-12], -858993460 ; ccccccccH
  0000e	c7 45 f8 cc cc
	cc cc		 mov	 DWORD PTR [ebp-8], -858993460 ; ccccccccH
  00015	c7 45 fc cc cc
	cc cc		 mov	 DWORD PTR [ebp-4], -858993460 ; ccccccccH
  0001c	89 4d fc	 mov	 DWORD PTR _this$[ebp], ecx
; Line 180
  0001f	c7 45 f8 00 00
	00 00		 mov	 DWORD PTR _ref$[ebp], 0
; Line 181
  00026	8b 45 fc	 mov	 eax, DWORD PTR _this$[ebp]
  00029	8b 08		 mov	 ecx, DWORD PTR [eax]
  0002b	89 4d f4	 mov	 DWORD PTR _temp$[ebp], ecx
; Line 183
  0002e	83 7d f4 00	 cmp	 DWORD PTR _temp$[ebp], 0
  00032	74 23		 je	 SHORT $LN1@InternalRe
; Line 185
  00034	8b 55 fc	 mov	 edx, DWORD PTR _this$[ebp]
  00037	c7 02 00 00 00
	00		 mov	 DWORD PTR [edx], 0
; Line 186
  0003d	8b 45 f4	 mov	 eax, DWORD PTR _temp$[ebp]
  00040	8b 08		 mov	 ecx, DWORD PTR [eax]
  00042	8b f4		 mov	 esi, esp
  00044	8b 55 f4	 mov	 edx, DWORD PTR _temp$[ebp]
  00047	52		 push	 edx
  00048	8b 41 08	 mov	 eax, DWORD PTR [ecx+8]
  0004b	ff d0		 call	 eax
  0004d	3b f4		 cmp	 esi, esp
  0004f	e8 00 00 00 00	 call	 __RTC_CheckEsp
  00054	89 45 f8	 mov	 DWORD PTR _ref$[ebp], eax
$LN1@InternalRe:
; Line 189
  00057	8b 45 f8	 mov	 eax, DWORD PTR _ref$[ebp]
; Line 190
  0005a	5e		 pop	 esi
  0005b	83 c4 0c	 add	 esp, 12			; 0000000cH
  0005e	3b ec		 cmp	 ebp, esp
  00060	e8 00 00 00 00	 call	 __RTC_CheckEsp
  00065	8b e5		 mov	 esp, ebp
  00067	5d		 pop	 ebp
  00068	c3		 ret	 0
?InternalRelease@?$ComPtr@UIWICMetadataQueryWriter@@@WRL@Microsoft@@IAEKXZ ENDP ; Microsoft::WRL::ComPtr<IWICMetadataQueryWriter>::InternalRelease
_TEXT	ENDS
; Function compile flags: /Odtp /RTCsu
;	COMDAT ?GetAddressOf@?$ComPtr@UIPropertyBag2@@@WRL@Microsoft@@QAEPAPAUIPropertyBag2@@XZ
_TEXT	SEGMENT
_this$ = -4						; size = 4
?GetAddressOf@?$ComPtr@UIPropertyBag2@@@WRL@Microsoft@@QAEPAPAUIPropertyBag2@@XZ PROC ; Microsoft::WRL::ComPtr<IPropertyBag2>::GetAddressOf, COMDAT
; _this$ = ecx
; File c:\program files (x86)\windows kits\8.1\include\winrt\wrl\client.h
; Line 353
  00000	55		 push	 ebp
  00001	8b ec		 mov	 ebp, esp
  00003	51		 push	 ecx
  00004	c7 45 fc cc cc
	cc cc		 mov	 DWORD PTR [ebp-4], -858993460 ; ccccccccH
  0000b	89 4d fc	 mov	 DWORD PTR _this$[ebp], ecx
; Line 354
  0000e	8b 45 fc	 mov	 eax, DWORD PTR _this$[ebp]
; Line 355
  00011	8b e5		 mov	 esp, ebp
  00013	5d		 pop	 ebp
  00014	c3		 ret	 0
?GetAddressOf@?$ComPtr@UIPropertyBag2@@@WRL@Microsoft@@QAEPAPAUIPropertyBag2@@XZ ENDP ; Microsoft::WRL::ComPtr<IPropertyBag2>::GetAddressOf
_TEXT	ENDS
; Function compile flags: /Odtp /RTCsu
;	COMDAT ??C?$ComPtr@UIPropertyBag2@@@WRL@Microsoft@@QBEPAV?$RemoveIUnknownBase@UIPropertyBag2@@@Details@12@XZ
_TEXT	SEGMENT
_this$ = -4						; size = 4
??C?$ComPtr@UIPropertyBag2@@@WRL@Microsoft@@QBEPAV?$RemoveIUnknownBase@UIPropertyBag2@@@Details@12@XZ PROC ; Microsoft::WRL::ComPtr<IPropertyBag2>::operator->, COMDAT
; _this$ = ecx
; File c:\program files (x86)\windows kits\8.1\include\winrt\wrl\client.h
; Line 326
  00000	55		 push	 ebp
  00001	8b ec		 mov	 ebp, esp
  00003	51		 push	 ecx
  00004	c7 45 fc cc cc
	cc cc		 mov	 DWORD PTR [ebp-4], -858993460 ; ccccccccH
  0000b	89 4d fc	 mov	 DWORD PTR _this$[ebp], ecx
; Line 327
  0000e	8b 45 fc	 mov	 eax, DWORD PTR _this$[ebp]
  00011	8b 00		 mov	 eax, DWORD PTR [eax]
; Line 328
  00013	8b e5		 mov	 esp, ebp
  00015	5d		 pop	 ebp
  00016	c3		 ret	 0
??C?$ComPtr@UIPropertyBag2@@@WRL@Microsoft@@QBEPAV?$RemoveIUnknownBase@UIPropertyBag2@@@Details@12@XZ ENDP ; Microsoft::WRL::ComPtr<IPropertyBag2>::operator->
_TEXT	ENDS
; Function compile flags: /Odtp /RTCsu
;	COMDAT ?Get@?$ComPtr@UIPropertyBag2@@@WRL@Microsoft@@QBEPAUIPropertyBag2@@XZ
_TEXT	SEGMENT
_this$ = -4						; size = 4
?Get@?$ComPtr@UIPropertyBag2@@@WRL@Microsoft@@QBEPAUIPropertyBag2@@XZ PROC ; Microsoft::WRL::ComPtr<IPropertyBag2>::Get, COMDAT
; _this$ = ecx
; File c:\program files (x86)\windows kits\8.1\include\winrt\wrl\client.h
; Line 320
  00000	55		 push	 ebp
  00001	8b ec		 mov	 ebp, esp
  00003	51		 push	 ecx
  00004	c7 45 fc cc cc
	cc cc		 mov	 DWORD PTR [ebp-4], -858993460 ; ccccccccH
  0000b	89 4d fc	 mov	 DWORD PTR _this$[ebp], ecx
; Line 321
  0000e	8b 45 fc	 mov	 eax, DWORD PTR _this$[ebp]
  00011	8b 00		 mov	 eax, DWORD PTR [eax]
; Line 322
  00013	8b e5		 mov	 esp, ebp
  00015	5d		 pop	 ebp
  00016	c3		 ret	 0
?Get@?$ComPtr@UIPropertyBag2@@@WRL@Microsoft@@QBEPAUIPropertyBag2@@XZ ENDP ; Microsoft::WRL::ComPtr<IPropertyBag2>::Get
_TEXT	ENDS
; Function compile flags: /Odtp /RTCsu
;	COMDAT ??1?$ComPtr@UIPropertyBag2@@@WRL@Microsoft@@QAE@XZ
_TEXT	SEGMENT
_this$ = -4						; size = 4
??1?$ComPtr@UIPropertyBag2@@@WRL@Microsoft@@QAE@XZ PROC	; Microsoft::WRL::ComPtr<IPropertyBag2>::~ComPtr<IPropertyBag2>, COMDAT
; _this$ = ecx
; File c:\program files (x86)\windows kits\8.1\include\winrt\wrl\client.h
; Line 240
  00000	55		 push	 ebp
  00001	8b ec		 mov	 ebp, esp
  00003	51		 push	 ecx
  00004	c7 45 fc cc cc
	cc cc		 mov	 DWORD PTR [ebp-4], -858993460 ; ccccccccH
  0000b	89 4d fc	 mov	 DWORD PTR _this$[ebp], ecx
; Line 241
  0000e	8b 4d fc	 mov	 ecx, DWORD PTR _this$[ebp]
  00011	e8 00 00 00 00	 call	 ?InternalRelease@?$ComPtr@UIPropertyBag2@@@WRL@Microsoft@@IAEKXZ ; Microsoft::WRL::ComPtr<IPropertyBag2>::InternalRelease
; Line 242
  00016	83 c4 04	 add	 esp, 4
  00019	3b ec		 cmp	 ebp, esp
  0001b	e8 00 00 00 00	 call	 __RTC_CheckEsp
  00020	8b e5		 mov	 esp, ebp
  00022	5d		 pop	 ebp
  00023	c3		 ret	 0
??1?$ComPtr@UIPropertyBag2@@@WRL@Microsoft@@QAE@XZ ENDP	; Microsoft::WRL::ComPtr<IPropertyBag2>::~ComPtr<IPropertyBag2>
_TEXT	ENDS
; Function compile flags: /Odtp /RTCsu
;	COMDAT ??0?$ComPtr@UIPropertyBag2@@@WRL@Microsoft@@QAE@XZ
_TEXT	SEGMENT
_this$ = -4						; size = 4
??0?$ComPtr@UIPropertyBag2@@@WRL@Microsoft@@QAE@XZ PROC	; Microsoft::WRL::ComPtr<IPropertyBag2>::ComPtr<IPropertyBag2>, COMDAT
; _this$ = ecx
; File c:\program files (x86)\windows kits\8.1\include\winrt\wrl\client.h
; Line 195
  00000	55		 push	 ebp
  00001	8b ec		 mov	 ebp, esp
  00003	51		 push	 ecx
  00004	c7 45 fc cc cc
	cc cc		 mov	 DWORD PTR [ebp-4], -858993460 ; ccccccccH
  0000b	89 4d fc	 mov	 DWORD PTR _this$[ebp], ecx
  0000e	8b 45 fc	 mov	 eax, DWORD PTR _this$[ebp]
  00011	c7 00 00 00 00
	00		 mov	 DWORD PTR [eax], 0
; Line 196
  00017	8b 45 fc	 mov	 eax, DWORD PTR _this$[ebp]
  0001a	8b e5		 mov	 esp, ebp
  0001c	5d		 pop	 ebp
  0001d	c3		 ret	 0
??0?$ComPtr@UIPropertyBag2@@@WRL@Microsoft@@QAE@XZ ENDP	; Microsoft::WRL::ComPtr<IPropertyBag2>::ComPtr<IPropertyBag2>
_TEXT	ENDS
; Function compile flags: /Odtp /RTCsu
;	COMDAT ?InternalRelease@?$ComPtr@UIPropertyBag2@@@WRL@Microsoft@@IAEKXZ
_TEXT	SEGMENT
_temp$ = -12						; size = 4
_ref$ = -8						; size = 4
_this$ = -4						; size = 4
?InternalRelease@?$ComPtr@UIPropertyBag2@@@WRL@Microsoft@@IAEKXZ PROC ; Microsoft::WRL::ComPtr<IPropertyBag2>::InternalRelease, COMDAT
; _this$ = ecx
; File c:\program files (x86)\windows kits\8.1\include\winrt\wrl\client.h
; Line 179
  00000	55		 push	 ebp
  00001	8b ec		 mov	 ebp, esp
  00003	83 ec 0c	 sub	 esp, 12			; 0000000cH
  00006	56		 push	 esi
  00007	c7 45 f4 cc cc
	cc cc		 mov	 DWORD PTR [ebp-12], -858993460 ; ccccccccH
  0000e	c7 45 f8 cc cc
	cc cc		 mov	 DWORD PTR [ebp-8], -858993460 ; ccccccccH
  00015	c7 45 fc cc cc
	cc cc		 mov	 DWORD PTR [ebp-4], -858993460 ; ccccccccH
  0001c	89 4d fc	 mov	 DWORD PTR _this$[ebp], ecx
; Line 180
  0001f	c7 45 f8 00 00
	00 00		 mov	 DWORD PTR _ref$[ebp], 0
; Line 181
  00026	8b 45 fc	 mov	 eax, DWORD PTR _this$[ebp]
  00029	8b 08		 mov	 ecx, DWORD PTR [eax]
  0002b	89 4d f4	 mov	 DWORD PTR _temp$[ebp], ecx
; Line 183
  0002e	83 7d f4 00	 cmp	 DWORD PTR _temp$[ebp], 0
  00032	74 23		 je	 SHORT $LN1@InternalRe
; Line 185
  00034	8b 55 fc	 mov	 edx, DWORD PTR _this$[ebp]
  00037	c7 02 00 00 00
	00		 mov	 DWORD PTR [edx], 0
; Line 186
  0003d	8b 45 f4	 mov	 eax, DWORD PTR _temp$[ebp]
  00040	8b 08		 mov	 ecx, DWORD PTR [eax]
  00042	8b f4		 mov	 esi, esp
  00044	8b 55 f4	 mov	 edx, DWORD PTR _temp$[ebp]
  00047	52		 push	 edx
  00048	8b 41 08	 mov	 eax, DWORD PTR [ecx+8]
  0004b	ff d0		 call	 eax
  0004d	3b f4		 cmp	 esi, esp
  0004f	e8 00 00 00 00	 call	 __RTC_CheckEsp
  00054	89 45 f8	 mov	 DWORD PTR _ref$[ebp], eax
$LN1@InternalRe:
; Line 189
  00057	8b 45 f8	 mov	 eax, DWORD PTR _ref$[ebp]
; Line 190
  0005a	5e		 pop	 esi
  0005b	83 c4 0c	 add	 esp, 12			; 0000000cH
  0005e	3b ec		 cmp	 ebp, esp
  00060	e8 00 00 00 00	 call	 __RTC_CheckEsp
  00065	8b e5		 mov	 esp, ebp
  00067	5d		 pop	 ebp
  00068	c3		 ret	 0
?InternalRelease@?$ComPtr@UIPropertyBag2@@@WRL@Microsoft@@IAEKXZ ENDP ; Microsoft::WRL::ComPtr<IPropertyBag2>::InternalRelease
_TEXT	ENDS
; Function compile flags: /Odtp /RTCsu
;	COMDAT ?GetAddressOf@?$ComPtr@UIWICBitmapFrameEncode@@@WRL@Microsoft@@QAEPAPAUIWICBitmapFrameEncode@@XZ
_TEXT	SEGMENT
_this$ = -4						; size = 4
?GetAddressOf@?$ComPtr@UIWICBitmapFrameEncode@@@WRL@Microsoft@@QAEPAPAUIWICBitmapFrameEncode@@XZ PROC ; Microsoft::WRL::ComPtr<IWICBitmapFrameEncode>::GetAddressOf, COMDAT
; _this$ = ecx
; File c:\program files (x86)\windows kits\8.1\include\winrt\wrl\client.h
; Line 353
  00000	55		 push	 ebp
  00001	8b ec		 mov	 ebp, esp
  00003	51		 push	 ecx
  00004	c7 45 fc cc cc
	cc cc		 mov	 DWORD PTR [ebp-4], -858993460 ; ccccccccH
  0000b	89 4d fc	 mov	 DWORD PTR _this$[ebp], ecx
; Line 354
  0000e	8b 45 fc	 mov	 eax, DWORD PTR _this$[ebp]
; Line 355
  00011	8b e5		 mov	 esp, ebp
  00013	5d		 pop	 ebp
  00014	c3		 ret	 0
?GetAddressOf@?$ComPtr@UIWICBitmapFrameEncode@@@WRL@Microsoft@@QAEPAPAUIWICBitmapFrameEncode@@XZ ENDP ; Microsoft::WRL::ComPtr<IWICBitmapFrameEncode>::GetAddressOf
_TEXT	ENDS
; Function compile flags: /Odtp /RTCsu
;	COMDAT ??C?$ComPtr@UIWICBitmapFrameEncode@@@WRL@Microsoft@@QBEPAV?$RemoveIUnknownBase@UIWICBitmapFrameEncode@@@Details@12@XZ
_TEXT	SEGMENT
_this$ = -4						; size = 4
??C?$ComPtr@UIWICBitmapFrameEncode@@@WRL@Microsoft@@QBEPAV?$RemoveIUnknownBase@UIWICBitmapFrameEncode@@@Details@12@XZ PROC ; Microsoft::WRL::ComPtr<IWICBitmapFrameEncode>::operator->, COMDAT
; _this$ = ecx
; File c:\program files (x86)\windows kits\8.1\include\winrt\wrl\client.h
; Line 326
  00000	55		 push	 ebp
  00001	8b ec		 mov	 ebp, esp
  00003	51		 push	 ecx
  00004	c7 45 fc cc cc
	cc cc		 mov	 DWORD PTR [ebp-4], -858993460 ; ccccccccH
  0000b	89 4d fc	 mov	 DWORD PTR _this$[ebp], ecx
; Line 327
  0000e	8b 45 fc	 mov	 eax, DWORD PTR _this$[ebp]
  00011	8b 00		 mov	 eax, DWORD PTR [eax]
; Line 328
  00013	8b e5		 mov	 esp, ebp
  00015	5d		 pop	 ebp
  00016	c3		 ret	 0
??C?$ComPtr@UIWICBitmapFrameEncode@@@WRL@Microsoft@@QBEPAV?$RemoveIUnknownBase@UIWICBitmapFrameEncode@@@Details@12@XZ ENDP ; Microsoft::WRL::ComPtr<IWICBitmapFrameEncode>::operator->
_TEXT	ENDS
; Function compile flags: /Odtp /RTCsu
;	COMDAT ??1?$ComPtr@UIWICBitmapFrameEncode@@@WRL@Microsoft@@QAE@XZ
_TEXT	SEGMENT
_this$ = -4						; size = 4
??1?$ComPtr@UIWICBitmapFrameEncode@@@WRL@Microsoft@@QAE@XZ PROC ; Microsoft::WRL::ComPtr<IWICBitmapFrameEncode>::~ComPtr<IWICBitmapFrameEncode>, COMDAT
; _this$ = ecx
; File c:\program files (x86)\windows kits\8.1\include\winrt\wrl\client.h
; Line 240
  00000	55		 push	 ebp
  00001	8b ec		 mov	 ebp, esp
  00003	51		 push	 ecx
  00004	c7 45 fc cc cc
	cc cc		 mov	 DWORD PTR [ebp-4], -858993460 ; ccccccccH
  0000b	89 4d fc	 mov	 DWORD PTR _this$[ebp], ecx
; Line 241
  0000e	8b 4d fc	 mov	 ecx, DWORD PTR _this$[ebp]
  00011	e8 00 00 00 00	 call	 ?InternalRelease@?$ComPtr@UIWICBitmapFrameEncode@@@WRL@Microsoft@@IAEKXZ ; Microsoft::WRL::ComPtr<IWICBitmapFrameEncode>::InternalRelease
; Line 242
  00016	83 c4 04	 add	 esp, 4
  00019	3b ec		 cmp	 ebp, esp
  0001b	e8 00 00 00 00	 call	 __RTC_CheckEsp
  00020	8b e5		 mov	 esp, ebp
  00022	5d		 pop	 ebp
  00023	c3		 ret	 0
??1?$ComPtr@UIWICBitmapFrameEncode@@@WRL@Microsoft@@QAE@XZ ENDP ; Microsoft::WRL::ComPtr<IWICBitmapFrameEncode>::~ComPtr<IWICBitmapFrameEncode>
_TEXT	ENDS
; Function compile flags: /Odtp /RTCsu
;	COMDAT ??0?$ComPtr@UIWICBitmapFrameEncode@@@WRL@Microsoft@@QAE@XZ
_TEXT	SEGMENT
_this$ = -4						; size = 4
??0?$ComPtr@UIWICBitmapFrameEncode@@@WRL@Microsoft@@QAE@XZ PROC ; Microsoft::WRL::ComPtr<IWICBitmapFrameEncode>::ComPtr<IWICBitmapFrameEncode>, COMDAT
; _this$ = ecx
; File c:\program files (x86)\windows kits\8.1\include\winrt\wrl\client.h
; Line 195
  00000	55		 push	 ebp
  00001	8b ec		 mov	 ebp, esp
  00003	51		 push	 ecx
  00004	c7 45 fc cc cc
	cc cc		 mov	 DWORD PTR [ebp-4], -858993460 ; ccccccccH
  0000b	89 4d fc	 mov	 DWORD PTR _this$[ebp], ecx
  0000e	8b 45 fc	 mov	 eax, DWORD PTR _this$[ebp]
  00011	c7 00 00 00 00
	00		 mov	 DWORD PTR [eax], 0
; Line 196
  00017	8b 45 fc	 mov	 eax, DWORD PTR _this$[ebp]
  0001a	8b e5		 mov	 esp, ebp
  0001c	5d		 pop	 ebp
  0001d	c3		 ret	 0
??0?$ComPtr@UIWICBitmapFrameEncode@@@WRL@Microsoft@@QAE@XZ ENDP ; Microsoft::WRL::ComPtr<IWICBitmapFrameEncode>::ComPtr<IWICBitmapFrameEncode>
_TEXT	ENDS
; Function compile flags: /Odtp /RTCsu
;	COMDAT ?InternalRelease@?$ComPtr@UIWICBitmapFrameEncode@@@WRL@Microsoft@@IAEKXZ
_TEXT	SEGMENT
_temp$ = -12						; size = 4
_ref$ = -8						; size = 4
_this$ = -4						; size = 4
?InternalRelease@?$ComPtr@UIWICBitmapFrameEncode@@@WRL@Microsoft@@IAEKXZ PROC ; Microsoft::WRL::ComPtr<IWICBitmapFrameEncode>::InternalRelease, COMDAT
; _this$ = ecx
; File c:\program files (x86)\windows kits\8.1\include\winrt\wrl\client.h
; Line 179
  00000	55		 push	 ebp
  00001	8b ec		 mov	 ebp, esp
  00003	83 ec 0c	 sub	 esp, 12			; 0000000cH
  00006	56		 push	 esi
  00007	c7 45 f4 cc cc
	cc cc		 mov	 DWORD PTR [ebp-12], -858993460 ; ccccccccH
  0000e	c7 45 f8 cc cc
	cc cc		 mov	 DWORD PTR [ebp-8], -858993460 ; ccccccccH
  00015	c7 45 fc cc cc
	cc cc		 mov	 DWORD PTR [ebp-4], -858993460 ; ccccccccH
  0001c	89 4d fc	 mov	 DWORD PTR _this$[ebp], ecx
; Line 180
  0001f	c7 45 f8 00 00
	00 00		 mov	 DWORD PTR _ref$[ebp], 0
; Line 181
  00026	8b 45 fc	 mov	 eax, DWORD PTR _this$[ebp]
  00029	8b 08		 mov	 ecx, DWORD PTR [eax]
  0002b	89 4d f4	 mov	 DWORD PTR _temp$[ebp], ecx
; Line 183
  0002e	83 7d f4 00	 cmp	 DWORD PTR _temp$[ebp], 0
  00032	74 23		 je	 SHORT $LN1@InternalRe
; Line 185
  00034	8b 55 fc	 mov	 edx, DWORD PTR _this$[ebp]
  00037	c7 02 00 00 00
	00		 mov	 DWORD PTR [edx], 0
; Line 186
  0003d	8b 45 f4	 mov	 eax, DWORD PTR _temp$[ebp]
  00040	8b 08		 mov	 ecx, DWORD PTR [eax]
  00042	8b f4		 mov	 esi, esp
  00044	8b 55 f4	 mov	 edx, DWORD PTR _temp$[ebp]
  00047	52		 push	 edx
  00048	8b 41 08	 mov	 eax, DWORD PTR [ecx+8]
  0004b	ff d0		 call	 eax
  0004d	3b f4		 cmp	 esi, esp
  0004f	e8 00 00 00 00	 call	 __RTC_CheckEsp
  00054	89 45 f8	 mov	 DWORD PTR _ref$[ebp], eax
$LN1@InternalRe:
; Line 189
  00057	8b 45 f8	 mov	 eax, DWORD PTR _ref$[ebp]
; Line 190
  0005a	5e		 pop	 esi
  0005b	83 c4 0c	 add	 esp, 12			; 0000000cH
  0005e	3b ec		 cmp	 ebp, esp
  00060	e8 00 00 00 00	 call	 __RTC_CheckEsp
  00065	8b e5		 mov	 esp, ebp
  00067	5d		 pop	 ebp
  00068	c3		 ret	 0
?InternalRelease@?$ComPtr@UIWICBitmapFrameEncode@@@WRL@Microsoft@@IAEKXZ ENDP ; Microsoft::WRL::ComPtr<IWICBitmapFrameEncode>::InternalRelease
_TEXT	ENDS
; Function compile flags: /Odtp /RTCsu
;	COMDAT ?GetAddressOf@?$ComPtr@UIWICBitmapEncoder@@@WRL@Microsoft@@QAEPAPAUIWICBitmapEncoder@@XZ
_TEXT	SEGMENT
_this$ = -4						; size = 4
?GetAddressOf@?$ComPtr@UIWICBitmapEncoder@@@WRL@Microsoft@@QAEPAPAUIWICBitmapEncoder@@XZ PROC ; Microsoft::WRL::ComPtr<IWICBitmapEncoder>::GetAddressOf, COMDAT
; _this$ = ecx
; File c:\program files (x86)\windows kits\8.1\include\winrt\wrl\client.h
; Line 353
  00000	55		 push	 ebp
  00001	8b ec		 mov	 ebp, esp
  00003	51		 push	 ecx
  00004	c7 45 fc cc cc
	cc cc		 mov	 DWORD PTR [ebp-4], -858993460 ; ccccccccH
  0000b	89 4d fc	 mov	 DWORD PTR _this$[ebp], ecx
; Line 354
  0000e	8b 45 fc	 mov	 eax, DWORD PTR _this$[ebp]
; Line 355
  00011	8b e5		 mov	 esp, ebp
  00013	5d		 pop	 ebp
  00014	c3		 ret	 0
?GetAddressOf@?$ComPtr@UIWICBitmapEncoder@@@WRL@Microsoft@@QAEPAPAUIWICBitmapEncoder@@XZ ENDP ; Microsoft::WRL::ComPtr<IWICBitmapEncoder>::GetAddressOf
_TEXT	ENDS
; Function compile flags: /Odtp /RTCsu
;	COMDAT ??C?$ComPtr@UIWICBitmapEncoder@@@WRL@Microsoft@@QBEPAV?$RemoveIUnknownBase@UIWICBitmapEncoder@@@Details@12@XZ
_TEXT	SEGMENT
_this$ = -4						; size = 4
??C?$ComPtr@UIWICBitmapEncoder@@@WRL@Microsoft@@QBEPAV?$RemoveIUnknownBase@UIWICBitmapEncoder@@@Details@12@XZ PROC ; Microsoft::WRL::ComPtr<IWICBitmapEncoder>::operator->, COMDAT
; _this$ = ecx
; File c:\program files (x86)\windows kits\8.1\include\winrt\wrl\client.h
; Line 326
  00000	55		 push	 ebp
  00001	8b ec		 mov	 ebp, esp
  00003	51		 push	 ecx
  00004	c7 45 fc cc cc
	cc cc		 mov	 DWORD PTR [ebp-4], -858993460 ; ccccccccH
  0000b	89 4d fc	 mov	 DWORD PTR _this$[ebp], ecx
; Line 327
  0000e	8b 45 fc	 mov	 eax, DWORD PTR _this$[ebp]
  00011	8b 00		 mov	 eax, DWORD PTR [eax]
; Line 328
  00013	8b e5		 mov	 esp, ebp
  00015	5d		 pop	 ebp
  00016	c3		 ret	 0
??C?$ComPtr@UIWICBitmapEncoder@@@WRL@Microsoft@@QBEPAV?$RemoveIUnknownBase@UIWICBitmapEncoder@@@Details@12@XZ ENDP ; Microsoft::WRL::ComPtr<IWICBitmapEncoder>::operator->
_TEXT	ENDS
; Function compile flags: /Odtp /RTCsu
;	COMDAT ??1?$ComPtr@UIWICBitmapEncoder@@@WRL@Microsoft@@QAE@XZ
_TEXT	SEGMENT
_this$ = -4						; size = 4
??1?$ComPtr@UIWICBitmapEncoder@@@WRL@Microsoft@@QAE@XZ PROC ; Microsoft::WRL::ComPtr<IWICBitmapEncoder>::~ComPtr<IWICBitmapEncoder>, COMDAT
; _this$ = ecx
; File c:\program files (x86)\windows kits\8.1\include\winrt\wrl\client.h
; Line 240
  00000	55		 push	 ebp
  00001	8b ec		 mov	 ebp, esp
  00003	51		 push	 ecx
  00004	c7 45 fc cc cc
	cc cc		 mov	 DWORD PTR [ebp-4], -858993460 ; ccccccccH
  0000b	89 4d fc	 mov	 DWORD PTR _this$[ebp], ecx
; Line 241
  0000e	8b 4d fc	 mov	 ecx, DWORD PTR _this$[ebp]
  00011	e8 00 00 00 00	 call	 ?InternalRelease@?$ComPtr@UIWICBitmapEncoder@@@WRL@Microsoft@@IAEKXZ ; Microsoft::WRL::ComPtr<IWICBitmapEncoder>::InternalRelease
; Line 242
  00016	83 c4 04	 add	 esp, 4
  00019	3b ec		 cmp	 ebp, esp
  0001b	e8 00 00 00 00	 call	 __RTC_CheckEsp
  00020	8b e5		 mov	 esp, ebp
  00022	5d		 pop	 ebp
  00023	c3		 ret	 0
??1?$ComPtr@UIWICBitmapEncoder@@@WRL@Microsoft@@QAE@XZ ENDP ; Microsoft::WRL::ComPtr<IWICBitmapEncoder>::~ComPtr<IWICBitmapEncoder>
_TEXT	ENDS
; Function compile flags: /Odtp /RTCsu
;	COMDAT ??0?$ComPtr@UIWICBitmapEncoder@@@WRL@Microsoft@@QAE@XZ
_TEXT	SEGMENT
_this$ = -4						; size = 4
??0?$ComPtr@UIWICBitmapEncoder@@@WRL@Microsoft@@QAE@XZ PROC ; Microsoft::WRL::ComPtr<IWICBitmapEncoder>::ComPtr<IWICBitmapEncoder>, COMDAT
; _this$ = ecx
; File c:\program files (x86)\windows kits\8.1\include\winrt\wrl\client.h
; Line 195
  00000	55		 push	 ebp
  00001	8b ec		 mov	 ebp, esp
  00003	51		 push	 ecx
  00004	c7 45 fc cc cc
	cc cc		 mov	 DWORD PTR [ebp-4], -858993460 ; ccccccccH
  0000b	89 4d fc	 mov	 DWORD PTR _this$[ebp], ecx
  0000e	8b 45 fc	 mov	 eax, DWORD PTR _this$[ebp]
  00011	c7 00 00 00 00
	00		 mov	 DWORD PTR [eax], 0
; Line 196
  00017	8b 45 fc	 mov	 eax, DWORD PTR _this$[ebp]
  0001a	8b e5		 mov	 esp, ebp
  0001c	5d		 pop	 ebp
  0001d	c3		 ret	 0
??0?$ComPtr@UIWICBitmapEncoder@@@WRL@Microsoft@@QAE@XZ ENDP ; Microsoft::WRL::ComPtr<IWICBitmapEncoder>::ComPtr<IWICBitmapEncoder>
_TEXT	ENDS
; Function compile flags: /Odtp /RTCsu
;	COMDAT ?InternalRelease@?$ComPtr@UIWICBitmapEncoder@@@WRL@Microsoft@@IAEKXZ
_TEXT	SEGMENT
_temp$ = -12						; size = 4
_ref$ = -8						; size = 4
_this$ = -4						; size = 4
?InternalRelease@?$ComPtr@UIWICBitmapEncoder@@@WRL@Microsoft@@IAEKXZ PROC ; Microsoft::WRL::ComPtr<IWICBitmapEncoder>::InternalRelease, COMDAT
; _this$ = ecx
; File c:\program files (x86)\windows kits\8.1\include\winrt\wrl\client.h
; Line 179
  00000	55		 push	 ebp
  00001	8b ec		 mov	 ebp, esp
  00003	83 ec 0c	 sub	 esp, 12			; 0000000cH
  00006	56		 push	 esi
  00007	c7 45 f4 cc cc
	cc cc		 mov	 DWORD PTR [ebp-12], -858993460 ; ccccccccH
  0000e	c7 45 f8 cc cc
	cc cc		 mov	 DWORD PTR [ebp-8], -858993460 ; ccccccccH
  00015	c7 45 fc cc cc
	cc cc		 mov	 DWORD PTR [ebp-4], -858993460 ; ccccccccH
  0001c	89 4d fc	 mov	 DWORD PTR _this$[ebp], ecx
; Line 180
  0001f	c7 45 f8 00 00
	00 00		 mov	 DWORD PTR _ref$[ebp], 0
; Line 181
  00026	8b 45 fc	 mov	 eax, DWORD PTR _this$[ebp]
  00029	8b 08		 mov	 ecx, DWORD PTR [eax]
  0002b	89 4d f4	 mov	 DWORD PTR _temp$[ebp], ecx
; Line 183
  0002e	83 7d f4 00	 cmp	 DWORD PTR _temp$[ebp], 0
  00032	74 23		 je	 SHORT $LN1@InternalRe
; Line 185
  00034	8b 55 fc	 mov	 edx, DWORD PTR _this$[ebp]
  00037	c7 02 00 00 00
	00		 mov	 DWORD PTR [edx], 0
; Line 186
  0003d	8b 45 f4	 mov	 eax, DWORD PTR _temp$[ebp]
  00040	8b 08		 mov	 ecx, DWORD PTR [eax]
  00042	8b f4		 mov	 esi, esp
  00044	8b 55 f4	 mov	 edx, DWORD PTR _temp$[ebp]
  00047	52		 push	 edx
  00048	8b 41 08	 mov	 eax, DWORD PTR [ecx+8]
  0004b	ff d0		 call	 eax
  0004d	3b f4		 cmp	 esi, esp
  0004f	e8 00 00 00 00	 call	 __RTC_CheckEsp
  00054	89 45 f8	 mov	 DWORD PTR _ref$[ebp], eax
$LN1@InternalRe:
; Line 189
  00057	8b 45 f8	 mov	 eax, DWORD PTR _ref$[ebp]
; Line 190
  0005a	5e		 pop	 esi
  0005b	83 c4 0c	 add	 esp, 12			; 0000000cH
  0005e	3b ec		 cmp	 ebp, esp
  00060	e8 00 00 00 00	 call	 __RTC_CheckEsp
  00065	8b e5		 mov	 esp, ebp
  00067	5d		 pop	 ebp
  00068	c3		 ret	 0
?InternalRelease@?$ComPtr@UIWICBitmapEncoder@@@WRL@Microsoft@@IAEKXZ ENDP ; Microsoft::WRL::ComPtr<IWICBitmapEncoder>::InternalRelease
_TEXT	ENDS
; Function compile flags: /Odtp /RTCsu
;	COMDAT ?GetAddressOf@?$ComPtr@UIWICStream@@@WRL@Microsoft@@QAEPAPAUIWICStream@@XZ
_TEXT	SEGMENT
_this$ = -4						; size = 4
?GetAddressOf@?$ComPtr@UIWICStream@@@WRL@Microsoft@@QAEPAPAUIWICStream@@XZ PROC ; Microsoft::WRL::ComPtr<IWICStream>::GetAddressOf, COMDAT
; _this$ = ecx
; File c:\program files (x86)\windows kits\8.1\include\winrt\wrl\client.h
; Line 353
  00000	55		 push	 ebp
  00001	8b ec		 mov	 ebp, esp
  00003	51		 push	 ecx
  00004	c7 45 fc cc cc
	cc cc		 mov	 DWORD PTR [ebp-4], -858993460 ; ccccccccH
  0000b	89 4d fc	 mov	 DWORD PTR _this$[ebp], ecx
; Line 354
  0000e	8b 45 fc	 mov	 eax, DWORD PTR _this$[ebp]
; Line 355
  00011	8b e5		 mov	 esp, ebp
  00013	5d		 pop	 ebp
  00014	c3		 ret	 0
?GetAddressOf@?$ComPtr@UIWICStream@@@WRL@Microsoft@@QAEPAPAUIWICStream@@XZ ENDP ; Microsoft::WRL::ComPtr<IWICStream>::GetAddressOf
_TEXT	ENDS
; Function compile flags: /Odtp /RTCsu
;	COMDAT ??C?$ComPtr@UIWICStream@@@WRL@Microsoft@@QBEPAV?$RemoveIUnknownBase@UIWICStream@@@Details@12@XZ
_TEXT	SEGMENT
_this$ = -4						; size = 4
??C?$ComPtr@UIWICStream@@@WRL@Microsoft@@QBEPAV?$RemoveIUnknownBase@UIWICStream@@@Details@12@XZ PROC ; Microsoft::WRL::ComPtr<IWICStream>::operator->, COMDAT
; _this$ = ecx
; File c:\program files (x86)\windows kits\8.1\include\winrt\wrl\client.h
; Line 326
  00000	55		 push	 ebp
  00001	8b ec		 mov	 ebp, esp
  00003	51		 push	 ecx
  00004	c7 45 fc cc cc
	cc cc		 mov	 DWORD PTR [ebp-4], -858993460 ; ccccccccH
  0000b	89 4d fc	 mov	 DWORD PTR _this$[ebp], ecx
; Line 327
  0000e	8b 45 fc	 mov	 eax, DWORD PTR _this$[ebp]
  00011	8b 00		 mov	 eax, DWORD PTR [eax]
; Line 328
  00013	8b e5		 mov	 esp, ebp
  00015	5d		 pop	 ebp
  00016	c3		 ret	 0
??C?$ComPtr@UIWICStream@@@WRL@Microsoft@@QBEPAV?$RemoveIUnknownBase@UIWICStream@@@Details@12@XZ ENDP ; Microsoft::WRL::ComPtr<IWICStream>::operator->
_TEXT	ENDS
; Function compile flags: /Odtp /RTCsu
;	COMDAT ?Get@?$ComPtr@UIWICStream@@@WRL@Microsoft@@QBEPAUIWICStream@@XZ
_TEXT	SEGMENT
_this$ = -4						; size = 4
?Get@?$ComPtr@UIWICStream@@@WRL@Microsoft@@QBEPAUIWICStream@@XZ PROC ; Microsoft::WRL::ComPtr<IWICStream>::Get, COMDAT
; _this$ = ecx
; File c:\program files (x86)\windows kits\8.1\include\winrt\wrl\client.h
; Line 320
  00000	55		 push	 ebp
  00001	8b ec		 mov	 ebp, esp
  00003	51		 push	 ecx
  00004	c7 45 fc cc cc
	cc cc		 mov	 DWORD PTR [ebp-4], -858993460 ; ccccccccH
  0000b	89 4d fc	 mov	 DWORD PTR _this$[ebp], ecx
; Line 321
  0000e	8b 45 fc	 mov	 eax, DWORD PTR _this$[ebp]
  00011	8b 00		 mov	 eax, DWORD PTR [eax]
; Line 322
  00013	8b e5		 mov	 esp, ebp
  00015	5d		 pop	 ebp
  00016	c3		 ret	 0
?Get@?$ComPtr@UIWICStream@@@WRL@Microsoft@@QBEPAUIWICStream@@XZ ENDP ; Microsoft::WRL::ComPtr<IWICStream>::Get
_TEXT	ENDS
; Function compile flags: /Odtp /RTCsu
;	COMDAT ??1?$ComPtr@UIWICStream@@@WRL@Microsoft@@QAE@XZ
_TEXT	SEGMENT
_this$ = -4						; size = 4
??1?$ComPtr@UIWICStream@@@WRL@Microsoft@@QAE@XZ PROC	; Microsoft::WRL::ComPtr<IWICStream>::~ComPtr<IWICStream>, COMDAT
; _this$ = ecx
; File c:\program files (x86)\windows kits\8.1\include\winrt\wrl\client.h
; Line 240
  00000	55		 push	 ebp
  00001	8b ec		 mov	 ebp, esp
  00003	51		 push	 ecx
  00004	c7 45 fc cc cc
	cc cc		 mov	 DWORD PTR [ebp-4], -858993460 ; ccccccccH
  0000b	89 4d fc	 mov	 DWORD PTR _this$[ebp], ecx
; Line 241
  0000e	8b 4d fc	 mov	 ecx, DWORD PTR _this$[ebp]
  00011	e8 00 00 00 00	 call	 ?InternalRelease@?$ComPtr@UIWICStream@@@WRL@Microsoft@@IAEKXZ ; Microsoft::WRL::ComPtr<IWICStream>::InternalRelease
; Line 242
  00016	83 c4 04	 add	 esp, 4
  00019	3b ec		 cmp	 ebp, esp
  0001b	e8 00 00 00 00	 call	 __RTC_CheckEsp
  00020	8b e5		 mov	 esp, ebp
  00022	5d		 pop	 ebp
  00023	c3		 ret	 0
??1?$ComPtr@UIWICStream@@@WRL@Microsoft@@QAE@XZ ENDP	; Microsoft::WRL::ComPtr<IWICStream>::~ComPtr<IWICStream>
_TEXT	ENDS
; Function compile flags: /Odtp /RTCsu
;	COMDAT ??0?$ComPtr@UIWICStream@@@WRL@Microsoft@@QAE@XZ
_TEXT	SEGMENT
_this$ = -4						; size = 4
??0?$ComPtr@UIWICStream@@@WRL@Microsoft@@QAE@XZ PROC	; Microsoft::WRL::ComPtr<IWICStream>::ComPtr<IWICStream>, COMDAT
; _this$ = ecx
; File c:\program files (x86)\windows kits\8.1\include\winrt\wrl\client.h
; Line 195
  00000	55		 push	 ebp
  00001	8b ec		 mov	 ebp, esp
  00003	51		 push	 ecx
  00004	c7 45 fc cc cc
	cc cc		 mov	 DWORD PTR [ebp-4], -858993460 ; ccccccccH
  0000b	89 4d fc	 mov	 DWORD PTR _this$[ebp], ecx
  0000e	8b 45 fc	 mov	 eax, DWORD PTR _this$[ebp]
  00011	c7 00 00 00 00
	00		 mov	 DWORD PTR [eax], 0
; Line 196
  00017	8b 45 fc	 mov	 eax, DWORD PTR _this$[ebp]
  0001a	8b e5		 mov	 esp, ebp
  0001c	5d		 pop	 ebp
  0001d	c3		 ret	 0
??0?$ComPtr@UIWICStream@@@WRL@Microsoft@@QAE@XZ ENDP	; Microsoft::WRL::ComPtr<IWICStream>::ComPtr<IWICStream>
_TEXT	ENDS
; Function compile flags: /Odtp /RTCsu
;	COMDAT ?InternalRelease@?$ComPtr@UIWICStream@@@WRL@Microsoft@@IAEKXZ
_TEXT	SEGMENT
_temp$ = -12						; size = 4
_ref$ = -8						; size = 4
_this$ = -4						; size = 4
?InternalRelease@?$ComPtr@UIWICStream@@@WRL@Microsoft@@IAEKXZ PROC ; Microsoft::WRL::ComPtr<IWICStream>::InternalRelease, COMDAT
; _this$ = ecx
; File c:\program files (x86)\windows kits\8.1\include\winrt\wrl\client.h
; Line 179
  00000	55		 push	 ebp
  00001	8b ec		 mov	 ebp, esp
  00003	83 ec 0c	 sub	 esp, 12			; 0000000cH
  00006	56		 push	 esi
  00007	c7 45 f4 cc cc
	cc cc		 mov	 DWORD PTR [ebp-12], -858993460 ; ccccccccH
  0000e	c7 45 f8 cc cc
	cc cc		 mov	 DWORD PTR [ebp-8], -858993460 ; ccccccccH
  00015	c7 45 fc cc cc
	cc cc		 mov	 DWORD PTR [ebp-4], -858993460 ; ccccccccH
  0001c	89 4d fc	 mov	 DWORD PTR _this$[ebp], ecx
; Line 180
  0001f	c7 45 f8 00 00
	00 00		 mov	 DWORD PTR _ref$[ebp], 0
; Line 181
  00026	8b 45 fc	 mov	 eax, DWORD PTR _this$[ebp]
  00029	8b 08		 mov	 ecx, DWORD PTR [eax]
  0002b	89 4d f4	 mov	 DWORD PTR _temp$[ebp], ecx
; Line 183
  0002e	83 7d f4 00	 cmp	 DWORD PTR _temp$[ebp], 0
  00032	74 23		 je	 SHORT $LN1@InternalRe
; Line 185
  00034	8b 55 fc	 mov	 edx, DWORD PTR _this$[ebp]
  00037	c7 02 00 00 00
	00		 mov	 DWORD PTR [edx], 0
; Line 186
  0003d	8b 45 f4	 mov	 eax, DWORD PTR _temp$[ebp]
  00040	8b 08		 mov	 ecx, DWORD PTR [eax]
  00042	8b f4		 mov	 esi, esp
  00044	8b 55 f4	 mov	 edx, DWORD PTR _temp$[ebp]
  00047	52		 push	 edx
  00048	8b 41 08	 mov	 eax, DWORD PTR [ecx+8]
  0004b	ff d0		 call	 eax
  0004d	3b f4		 cmp	 esi, esp
  0004f	e8 00 00 00 00	 call	 __RTC_CheckEsp
  00054	89 45 f8	 mov	 DWORD PTR _ref$[ebp], eax
$LN1@InternalRe:
; Line 189
  00057	8b 45 f8	 mov	 eax, DWORD PTR _ref$[ebp]
; Line 190
  0005a	5e		 pop	 esi
  0005b	83 c4 0c	 add	 esp, 12			; 0000000cH
  0005e	3b ec		 cmp	 ebp, esp
  00060	e8 00 00 00 00	 call	 __RTC_CheckEsp
  00065	8b e5		 mov	 esp, ebp
  00067	5d		 pop	 ebp
  00068	c3		 ret	 0
?InternalRelease@?$ComPtr@UIWICStream@@@WRL@Microsoft@@IAEKXZ ENDP ; Microsoft::WRL::ComPtr<IWICStream>::InternalRelease
_TEXT	ENDS
; Function compile flags: /Odtp /RTCsu
;	COMDAT ??$min@I@std@@YAABIABI0@Z
_TEXT	SEGMENT
tv71 = -8						; size = 4
$T1 = -4						; size = 4
__Left$ = 8						; size = 4
__Right$ = 12						; size = 4
??$min@I@std@@YAABIABI0@Z PROC				; std::min<unsigned int>, COMDAT
; File c:\program files (x86)\microsoft visual studio 12.0\vc\include\algorithm
; Line 4120
  00000	55		 push	 ebp
  00001	8b ec		 mov	 ebp, esp
  00003	83 ec 08	 sub	 esp, 8
  00006	c7 45 f8 cc cc
	cc cc		 mov	 DWORD PTR [ebp-8], -858993460 ; ccccccccH
  0000d	c7 45 fc cc cc
	cc cc		 mov	 DWORD PTR [ebp-4], -858993460 ; ccccccccH
; Line 4121
  00014	68 19 10 00 00	 push	 4121			; 00001019H
  00019	68 00 00 00 00	 push	 OFFSET ??_C@_1JC@HALMDPKM@?$AAC?$AA?3?$AA?2?$AAP?$AAr?$AAo?$AAg?$AAr?$AAa?$AAm?$AA?5?$AAF?$AAi?$AAl?$AAe?$AAs?$AA?5?$AA?$CI?$AAx?$AA8?$AA6?$AA?$CJ?$AA?2?$AAM?$AAi?$AAc?$AAr?$AAo?$AAs?$AAo?$AAf?$AAt@
  0001e	8b 45 08	 mov	 eax, DWORD PTR __Left$[ebp]
  00021	50		 push	 eax
  00022	8b 4d 0c	 mov	 ecx, DWORD PTR __Right$[ebp]
  00025	51		 push	 ecx
  00026	e8 00 00 00 00	 call	 ??$_Debug_lt@ABIABI@std@@YA_NABI0PB_WI@Z ; std::_Debug_lt<unsigned int const &,unsigned int const &>
  0002b	83 c4 10	 add	 esp, 16			; 00000010H
  0002e	0f b6 d0	 movzx	 edx, al
  00031	85 d2		 test	 edx, edx
  00033	74 08		 je	 SHORT $LN3@min
  00035	8b 45 0c	 mov	 eax, DWORD PTR __Right$[ebp]
  00038	89 45 f8	 mov	 DWORD PTR tv71[ebp], eax
  0003b	eb 06		 jmp	 SHORT $LN4@min
$LN3@min:
  0003d	8b 4d 08	 mov	 ecx, DWORD PTR __Left$[ebp]
  00040	89 4d f8	 mov	 DWORD PTR tv71[ebp], ecx
$LN4@min:
  00043	8b 55 f8	 mov	 edx, DWORD PTR tv71[ebp]
  00046	89 55 fc	 mov	 DWORD PTR $T1[ebp], edx
  00049	8b 45 fc	 mov	 eax, DWORD PTR $T1[ebp]
; Line 4122
  0004c	83 c4 08	 add	 esp, 8
  0004f	3b ec		 cmp	 ebp, esp
  00051	e8 00 00 00 00	 call	 __RTC_CheckEsp
  00056	8b e5		 mov	 esp, ebp
  00058	5d		 pop	 ebp
  00059	c3		 ret	 0
??$min@I@std@@YAABIABI0@Z ENDP				; std::min<unsigned int>
_TEXT	ENDS
; Function compile flags: /Odtp /RTCsu
;	COMDAT ?_Delete@?$unique_ptr@$$BY0A@EU?$default_delete@$$BY0A@E@std@@@std@@AAEXXZ
_TEXT	SEGMENT
_this$ = -4						; size = 4
?_Delete@?$unique_ptr@$$BY0A@EU?$default_delete@$$BY0A@E@std@@@std@@AAEXXZ PROC ; std::unique_ptr<unsigned char [0],std::default_delete<unsigned char [0]> >::_Delete, COMDAT
; _this$ = ecx
; File c:\program files (x86)\microsoft visual studio 12.0\vc\include\memory
; Line 1627
  00000	55		 push	 ebp
  00001	8b ec		 mov	 ebp, esp
  00003	51		 push	 ecx
  00004	c7 45 fc cc cc
	cc cc		 mov	 DWORD PTR [ebp-4], -858993460 ; ccccccccH
  0000b	89 4d fc	 mov	 DWORD PTR _this$[ebp], ecx
; Line 1628
  0000e	8b 45 fc	 mov	 eax, DWORD PTR _this$[ebp]
  00011	83 38 00	 cmp	 DWORD PTR [eax], 0
  00014	74 15		 je	 SHORT $LN2@Delete
; Line 1629
  00016	8b 4d fc	 mov	 ecx, DWORD PTR _this$[ebp]
  00019	8b 11		 mov	 edx, DWORD PTR [ecx]
  0001b	52		 push	 edx
  0001c	8b 4d fc	 mov	 ecx, DWORD PTR _this$[ebp]
  0001f	e8 00 00 00 00	 call	 ?get_deleter@?$_Unique_ptr_base@EU?$default_delete@$$BY0A@E@std@@$00@std@@QAEAAU?$default_delete@$$BY0A@E@2@XZ ; std::_Unique_ptr_base<unsigned char,std::default_delete<unsigned char [0]>,1>::get_deleter
  00024	8b c8		 mov	 ecx, eax
  00026	e8 00 00 00 00	 call	 ??R?$default_delete@$$BY0A@E@std@@QBEXPAE@Z ; std::default_delete<unsigned char [0]>::operator()
$LN2@Delete:
; Line 1630
  0002b	83 c4 04	 add	 esp, 4
  0002e	3b ec		 cmp	 ebp, esp
  00030	e8 00 00 00 00	 call	 __RTC_CheckEsp
  00035	8b e5		 mov	 esp, ebp
  00037	5d		 pop	 ebp
  00038	c3		 ret	 0
?_Delete@?$unique_ptr@$$BY0A@EU?$default_delete@$$BY0A@E@std@@@std@@AAEXXZ ENDP ; std::unique_ptr<unsigned char [0],std::default_delete<unsigned char [0]> >::_Delete
_TEXT	ENDS
; Function compile flags: /Odtp /RTCsu
;	COMDAT ??B?$unique_ptr@$$BY0A@EU?$default_delete@$$BY0A@E@std@@@std@@QBE_NXZ
_TEXT	SEGMENT
tv70 = -8						; size = 4
_this$ = -4						; size = 4
??B?$unique_ptr@$$BY0A@EU?$default_delete@$$BY0A@E@std@@@std@@QBE_NXZ PROC ; std::unique_ptr<unsigned char [0],std::default_delete<unsigned char [0]> >::operator bool, COMDAT
; _this$ = ecx
; File c:\program files (x86)\microsoft visual studio 12.0\vc\include\memory
; Line 1594
  00000	55		 push	 ebp
  00001	8b ec		 mov	 ebp, esp
  00003	83 ec 08	 sub	 esp, 8
  00006	c7 45 f8 cc cc
	cc cc		 mov	 DWORD PTR [ebp-8], -858993460 ; ccccccccH
  0000d	c7 45 fc cc cc
	cc cc		 mov	 DWORD PTR [ebp-4], -858993460 ; ccccccccH
  00014	89 4d fc	 mov	 DWORD PTR _this$[ebp], ecx
; Line 1595
  00017	8b 45 fc	 mov	 eax, DWORD PTR _this$[ebp]
  0001a	83 38 00	 cmp	 DWORD PTR [eax], 0
  0001d	74 09		 je	 SHORT $LN3@operator
  0001f	c7 45 f8 01 00
	00 00		 mov	 DWORD PTR tv70[ebp], 1
  00026	eb 07		 jmp	 SHORT $LN4@operator
$LN3@operator:
  00028	c7 45 f8 00 00
	00 00		 mov	 DWORD PTR tv70[ebp], 0
$LN4@operator:
  0002f	8a 45 f8	 mov	 al, BYTE PTR tv70[ebp]
; Line 1596
  00032	8b e5		 mov	 esp, ebp
  00034	5d		 pop	 ebp
  00035	c3		 ret	 0
??B?$unique_ptr@$$BY0A@EU?$default_delete@$$BY0A@E@std@@@std@@QBE_NXZ ENDP ; std::unique_ptr<unsigned char [0],std::default_delete<unsigned char [0]> >::operator bool
_TEXT	ENDS
; Function compile flags: /Odtp /RTCsu
;	COMDAT ?get@?$unique_ptr@$$BY0A@EU?$default_delete@$$BY0A@E@std@@@std@@QBEPAEXZ
_TEXT	SEGMENT
_this$ = -4						; size = 4
?get@?$unique_ptr@$$BY0A@EU?$default_delete@$$BY0A@E@std@@@std@@QBEPAEXZ PROC ; std::unique_ptr<unsigned char [0],std::default_delete<unsigned char [0]> >::get, COMDAT
; _this$ = ecx
; File c:\program files (x86)\microsoft visual studio 12.0\vc\include\memory
; Line 1589
  00000	55		 push	 ebp
  00001	8b ec		 mov	 ebp, esp
  00003	51		 push	 ecx
  00004	c7 45 fc cc cc
	cc cc		 mov	 DWORD PTR [ebp-4], -858993460 ; ccccccccH
  0000b	89 4d fc	 mov	 DWORD PTR _this$[ebp], ecx
; Line 1590
  0000e	8b 45 fc	 mov	 eax, DWORD PTR _this$[ebp]
  00011	8b 00		 mov	 eax, DWORD PTR [eax]
; Line 1591
  00013	8b e5		 mov	 esp, ebp
  00015	5d		 pop	 ebp
  00016	c3		 ret	 0
?get@?$unique_ptr@$$BY0A@EU?$default_delete@$$BY0A@E@std@@@std@@QBEPAEXZ ENDP ; std::unique_ptr<unsigned char [0],std::default_delete<unsigned char [0]> >::get
_TEXT	ENDS
; Function compile flags: /Odtp /RTCsu
;	COMDAT ??1?$unique_ptr@$$BY0A@EU?$default_delete@$$BY0A@E@std@@@std@@QAE@XZ
_TEXT	SEGMENT
_this$ = -4						; size = 4
??1?$unique_ptr@$$BY0A@EU?$default_delete@$$BY0A@E@std@@@std@@QAE@XZ PROC ; std::unique_ptr<unsigned char [0],std::default_delete<unsigned char [0]> >::~unique_ptr<unsigned char [0],std::default_delete<unsigned char [0]> >, COMDAT
; _this$ = ecx
; File c:\program files (x86)\microsoft visual studio 12.0\vc\include\memory
; Line 1579
  00000	55		 push	 ebp
  00001	8b ec		 mov	 ebp, esp
  00003	51		 push	 ecx
  00004	c7 45 fc cc cc
	cc cc		 mov	 DWORD PTR [ebp-4], -858993460 ; ccccccccH
  0000b	89 4d fc	 mov	 DWORD PTR _this$[ebp], ecx
; Line 1580
  0000e	8b 4d fc	 mov	 ecx, DWORD PTR _this$[ebp]
  00011	e8 00 00 00 00	 call	 ?_Delete@?$unique_ptr@$$BY0A@EU?$default_delete@$$BY0A@E@std@@@std@@AAEXXZ ; std::unique_ptr<unsigned char [0],std::default_delete<unsigned char [0]> >::_Delete
; Line 1581
  00016	83 c4 04	 add	 esp, 4
  00019	3b ec		 cmp	 ebp, esp
  0001b	e8 00 00 00 00	 call	 __RTC_CheckEsp
  00020	8b e5		 mov	 esp, ebp
  00022	5d		 pop	 ebp
  00023	c3		 ret	 0
??1?$unique_ptr@$$BY0A@EU?$default_delete@$$BY0A@E@std@@@std@@QAE@XZ ENDP ; std::unique_ptr<unsigned char [0],std::default_delete<unsigned char [0]> >::~unique_ptr<unsigned char [0],std::default_delete<unsigned char [0]> >
_TEXT	ENDS
; Function compile flags: /Odtp /RTCsu
;	COMDAT ??0?$unique_ptr@$$BY0A@EU?$default_delete@$$BY0A@E@std@@@std@@QAE@PAE@Z
_TEXT	SEGMENT
_this$ = -4						; size = 4
__Ptr$ = 8						; size = 4
??0?$unique_ptr@$$BY0A@EU?$default_delete@$$BY0A@E@std@@@std@@QAE@PAE@Z PROC ; std::unique_ptr<unsigned char [0],std::default_delete<unsigned char [0]> >::unique_ptr<unsigned char [0],std::default_delete<unsigned char [0]> >, COMDAT
; _this$ = ecx
; File c:\program files (x86)\microsoft visual studio 12.0\vc\include\memory
; Line 1518
  00000	55		 push	 ebp
  00001	8b ec		 mov	 ebp, esp
  00003	51		 push	 ecx
  00004	c7 45 fc cc cc
	cc cc		 mov	 DWORD PTR [ebp-4], -858993460 ; ccccccccH
  0000b	89 4d fc	 mov	 DWORD PTR _this$[ebp], ecx
  0000e	8b 45 08	 mov	 eax, DWORD PTR __Ptr$[ebp]
  00011	50		 push	 eax
  00012	8b 4d fc	 mov	 ecx, DWORD PTR _this$[ebp]
  00015	e8 00 00 00 00	 call	 ??0?$_Unique_ptr_base@EU?$default_delete@$$BY0A@E@std@@$00@std@@QAE@PAE@Z ; std::_Unique_ptr_base<unsigned char,std::default_delete<unsigned char [0]>,1>::_Unique_ptr_base<unsigned char,std::default_delete<unsigned char [0]>,1>
; Line 1521
  0001a	8b 45 fc	 mov	 eax, DWORD PTR _this$[ebp]
  0001d	83 c4 04	 add	 esp, 4
  00020	3b ec		 cmp	 ebp, esp
  00022	e8 00 00 00 00	 call	 __RTC_CheckEsp
  00027	8b e5		 mov	 esp, ebp
  00029	5d		 pop	 ebp
  0002a	c2 04 00	 ret	 4
??0?$unique_ptr@$$BY0A@EU?$default_delete@$$BY0A@E@std@@@std@@QAE@PAE@Z ENDP ; std::unique_ptr<unsigned char [0],std::default_delete<unsigned char [0]> >::unique_ptr<unsigned char [0],std::default_delete<unsigned char [0]> >
_TEXT	ENDS
; Function compile flags: /Odtp /RTCsu
;	COMDAT ?get_deleter@?$_Unique_ptr_base@EU?$default_delete@$$BY0A@E@std@@$00@std@@QAEAAU?$default_delete@$$BY0A@E@2@XZ
_TEXT	SEGMENT
_this$ = -4						; size = 4
?get_deleter@?$_Unique_ptr_base@EU?$default_delete@$$BY0A@E@std@@$00@std@@QAEAAU?$default_delete@$$BY0A@E@2@XZ PROC ; std::_Unique_ptr_base<unsigned char,std::default_delete<unsigned char [0]>,1>::get_deleter, COMDAT
; _this$ = ecx
; File c:\program files (x86)\microsoft visual studio 12.0\vc\include\memory
; Line 1312
  00000	55		 push	 ebp
  00001	8b ec		 mov	 ebp, esp
  00003	51		 push	 ecx
  00004	c7 45 fc cc cc
	cc cc		 mov	 DWORD PTR [ebp-4], -858993460 ; ccccccccH
  0000b	89 4d fc	 mov	 DWORD PTR _this$[ebp], ecx
; Line 1313
  0000e	8b 45 fc	 mov	 eax, DWORD PTR _this$[ebp]
; Line 1314
  00011	8b e5		 mov	 esp, ebp
  00013	5d		 pop	 ebp
  00014	c3		 ret	 0
?get_deleter@?$_Unique_ptr_base@EU?$default_delete@$$BY0A@E@std@@$00@std@@QAEAAU?$default_delete@$$BY0A@E@2@XZ ENDP ; std::_Unique_ptr_base<unsigned char,std::default_delete<unsigned char [0]>,1>::get_deleter
_TEXT	ENDS
; Function compile flags: /Odtp /RTCsu
;	COMDAT ??0?$_Unique_ptr_base@EU?$default_delete@$$BY0A@E@std@@$00@std@@QAE@PAE@Z
_TEXT	SEGMENT
_this$ = -4						; size = 4
__Ptr$ = 8						; size = 4
??0?$_Unique_ptr_base@EU?$default_delete@$$BY0A@E@std@@$00@std@@QAE@PAE@Z PROC ; std::_Unique_ptr_base<unsigned char,std::default_delete<unsigned char [0]>,1>::_Unique_ptr_base<unsigned char,std::default_delete<unsigned char [0]>,1>, COMDAT
; _this$ = ecx
; File c:\program files (x86)\microsoft visual studio 12.0\vc\include\memory
; Line 1295
  00000	55		 push	 ebp
  00001	8b ec		 mov	 ebp, esp
  00003	51		 push	 ecx
  00004	c7 45 fc cc cc
	cc cc		 mov	 DWORD PTR [ebp-4], -858993460 ; ccccccccH
  0000b	89 4d fc	 mov	 DWORD PTR _this$[ebp], ecx
  0000e	8b 4d fc	 mov	 ecx, DWORD PTR _this$[ebp]
  00011	e8 00 00 00 00	 call	 ??0?$default_delete@$$BY0A@E@std@@QAE@XZ ; std::default_delete<unsigned char [0]>::default_delete<unsigned char [0]>
  00016	8b 45 fc	 mov	 eax, DWORD PTR _this$[ebp]
  00019	8b 4d 08	 mov	 ecx, DWORD PTR __Ptr$[ebp]
  0001c	89 08		 mov	 DWORD PTR [eax], ecx
; Line 1296
  0001e	8b 45 fc	 mov	 eax, DWORD PTR _this$[ebp]
  00021	83 c4 04	 add	 esp, 4
  00024	3b ec		 cmp	 ebp, esp
  00026	e8 00 00 00 00	 call	 __RTC_CheckEsp
  0002b	8b e5		 mov	 esp, ebp
  0002d	5d		 pop	 ebp
  0002e	c2 04 00	 ret	 4
??0?$_Unique_ptr_base@EU?$default_delete@$$BY0A@E@std@@$00@std@@QAE@PAE@Z ENDP ; std::_Unique_ptr_base<unsigned char,std::default_delete<unsigned char [0]>,1>::_Unique_ptr_base<unsigned char,std::default_delete<unsigned char [0]>,1>
_TEXT	ENDS
; Function compile flags: /Odtp /RTCsu
;	COMDAT ??R?$default_delete@$$BY0A@E@std@@QBEXPAE@Z
_TEXT	SEGMENT
$T1 = -8						; size = 4
_this$ = -4						; size = 4
__Ptr$ = 8						; size = 4
??R?$default_delete@$$BY0A@E@std@@QBEXPAE@Z PROC	; std::default_delete<unsigned char [0]>::operator(), COMDAT
; _this$ = ecx
; File c:\program files (x86)\microsoft visual studio 12.0\vc\include\memory
; Line 1217
  00000	55		 push	 ebp
  00001	8b ec		 mov	 ebp, esp
  00003	83 ec 08	 sub	 esp, 8
  00006	c7 45 f8 cc cc
	cc cc		 mov	 DWORD PTR [ebp-8], -858993460 ; ccccccccH
  0000d	c7 45 fc cc cc
	cc cc		 mov	 DWORD PTR [ebp-4], -858993460 ; ccccccccH
  00014	89 4d fc	 mov	 DWORD PTR _this$[ebp], ecx
; Line 1220
  00017	8b 45 08	 mov	 eax, DWORD PTR __Ptr$[ebp]
  0001a	89 45 f8	 mov	 DWORD PTR $T1[ebp], eax
  0001d	8b 4d f8	 mov	 ecx, DWORD PTR $T1[ebp]
  00020	51		 push	 ecx
  00021	e8 00 00 00 00	 call	 ??_V@YAXPAX@Z		; operator delete[]
  00026	83 c4 04	 add	 esp, 4
; Line 1221
  00029	83 c4 08	 add	 esp, 8
  0002c	3b ec		 cmp	 ebp, esp
  0002e	e8 00 00 00 00	 call	 __RTC_CheckEsp
  00033	8b e5		 mov	 esp, ebp
  00035	5d		 pop	 ebp
  00036	c2 04 00	 ret	 4
??R?$default_delete@$$BY0A@E@std@@QBEXPAE@Z ENDP	; std::default_delete<unsigned char [0]>::operator()
_TEXT	ENDS
; Function compile flags: /Odtp /RTCsu
;	COMDAT ??0?$default_delete@$$BY0A@E@std@@QAE@XZ
_TEXT	SEGMENT
_this$ = -4						; size = 4
??0?$default_delete@$$BY0A@E@std@@QAE@XZ PROC		; std::default_delete<unsigned char [0]>::default_delete<unsigned char [0]>, COMDAT
; _this$ = ecx
; File c:\program files (x86)\microsoft visual studio 12.0\vc\include\memory
; Line 1209
  00000	55		 push	 ebp
  00001	8b ec		 mov	 ebp, esp
  00003	51		 push	 ecx
  00004	c7 45 fc cc cc
	cc cc		 mov	 DWORD PTR [ebp-4], -858993460 ; ccccccccH
  0000b	89 4d fc	 mov	 DWORD PTR _this$[ebp], ecx
; Line 1211
  0000e	8b 45 fc	 mov	 eax, DWORD PTR _this$[ebp]
  00011	8b e5		 mov	 esp, ebp
  00013	5d		 pop	 ebp
  00014	c3		 ret	 0
??0?$default_delete@$$BY0A@E@std@@QAE@XZ ENDP		; std::default_delete<unsigned char [0]>::default_delete<unsigned char [0]>
_TEXT	ENDS
; Function compile flags: /Odtp /RTCsu
;	COMDAT ??B?$unique_ptr@XUhandle_closer@@@std@@QBE_NXZ
_TEXT	SEGMENT
tv70 = -8						; size = 4
_this$ = -4						; size = 4
??B?$unique_ptr@XUhandle_closer@@@std@@QBE_NXZ PROC	; std::unique_ptr<void,handle_closer>::operator bool, COMDAT
; _this$ = ecx
; File c:\program files (x86)\microsoft visual studio 12.0\vc\include\memory
; Line 1467
  00000	55		 push	 ebp
  00001	8b ec		 mov	 ebp, esp
  00003	83 ec 08	 sub	 esp, 8
  00006	c7 45 f8 cc cc
	cc cc		 mov	 DWORD PTR [ebp-8], -858993460 ; ccccccccH
  0000d	c7 45 fc cc cc
	cc cc		 mov	 DWORD PTR [ebp-4], -858993460 ; ccccccccH
  00014	89 4d fc	 mov	 DWORD PTR _this$[ebp], ecx
; Line 1468
  00017	8b 45 fc	 mov	 eax, DWORD PTR _this$[ebp]
  0001a	83 38 00	 cmp	 DWORD PTR [eax], 0
  0001d	74 09		 je	 SHORT $LN3@operator
  0001f	c7 45 f8 01 00
	00 00		 mov	 DWORD PTR tv70[ebp], 1
  00026	eb 07		 jmp	 SHORT $LN4@operator
$LN3@operator:
  00028	c7 45 f8 00 00
	00 00		 mov	 DWORD PTR tv70[ebp], 0
$LN4@operator:
  0002f	8a 45 f8	 mov	 al, BYTE PTR tv70[ebp]
; Line 1469
  00032	8b e5		 mov	 esp, ebp
  00034	5d		 pop	 ebp
  00035	c3		 ret	 0
??B?$unique_ptr@XUhandle_closer@@@std@@QBE_NXZ ENDP	; std::unique_ptr<void,handle_closer>::operator bool
_TEXT	ENDS
; Function compile flags: /Odtp /RTCsu
;	COMDAT ?get@?$unique_ptr@XUhandle_closer@@@std@@QBEPAXXZ
_TEXT	SEGMENT
_this$ = -4						; size = 4
?get@?$unique_ptr@XUhandle_closer@@@std@@QBEPAXXZ PROC	; std::unique_ptr<void,handle_closer>::get, COMDAT
; _this$ = ecx
; File c:\program files (x86)\microsoft visual studio 12.0\vc\include\memory
; Line 1462
  00000	55		 push	 ebp
  00001	8b ec		 mov	 ebp, esp
  00003	51		 push	 ecx
  00004	c7 45 fc cc cc
	cc cc		 mov	 DWORD PTR [ebp-4], -858993460 ; ccccccccH
  0000b	89 4d fc	 mov	 DWORD PTR _this$[ebp], ecx
; Line 1463
  0000e	8b 45 fc	 mov	 eax, DWORD PTR _this$[ebp]
  00011	8b 00		 mov	 eax, DWORD PTR [eax]
; Line 1464
  00013	8b e5		 mov	 esp, ebp
  00015	5d		 pop	 ebp
  00016	c3		 ret	 0
?get@?$unique_ptr@XUhandle_closer@@@std@@QBEPAXXZ ENDP	; std::unique_ptr<void,handle_closer>::get
_TEXT	ENDS
; Function compile flags: /Odtp /RTCsu
;	COMDAT ??1?$unique_ptr@XUhandle_closer@@@std@@QAE@XZ
_TEXT	SEGMENT
_this$ = -4						; size = 4
??1?$unique_ptr@XUhandle_closer@@@std@@QAE@XZ PROC	; std::unique_ptr<void,handle_closer>::~unique_ptr<void,handle_closer>, COMDAT
; _this$ = ecx
; File c:\program files (x86)\microsoft visual studio 12.0\vc\include\memory
; Line 1446
  00000	55		 push	 ebp
  00001	8b ec		 mov	 ebp, esp
  00003	51		 push	 ecx
  00004	c7 45 fc cc cc
	cc cc		 mov	 DWORD PTR [ebp-4], -858993460 ; ccccccccH
  0000b	89 4d fc	 mov	 DWORD PTR _this$[ebp], ecx
; Line 1447
  0000e	8b 45 fc	 mov	 eax, DWORD PTR _this$[ebp]
  00011	83 38 00	 cmp	 DWORD PTR [eax], 0
  00014	74 15		 je	 SHORT $LN2@unique_ptr
; Line 1448
  00016	8b 4d fc	 mov	 ecx, DWORD PTR _this$[ebp]
  00019	8b 11		 mov	 edx, DWORD PTR [ecx]
  0001b	52		 push	 edx
  0001c	8b 4d fc	 mov	 ecx, DWORD PTR _this$[ebp]
  0001f	e8 00 00 00 00	 call	 ?get_deleter@?$_Unique_ptr_base@XUhandle_closer@@$00@std@@QAEAAUhandle_closer@@XZ ; std::_Unique_ptr_base<void,handle_closer,1>::get_deleter
  00024	8b c8		 mov	 ecx, eax
  00026	e8 00 00 00 00	 call	 ??Rhandle_closer@@QAEXPAX@Z ; handle_closer::operator()
$LN2@unique_ptr:
; Line 1449
  0002b	83 c4 04	 add	 esp, 4
  0002e	3b ec		 cmp	 ebp, esp
  00030	e8 00 00 00 00	 call	 __RTC_CheckEsp
  00035	8b e5		 mov	 esp, ebp
  00037	5d		 pop	 ebp
  00038	c3		 ret	 0
??1?$unique_ptr@XUhandle_closer@@@std@@QAE@XZ ENDP	; std::unique_ptr<void,handle_closer>::~unique_ptr<void,handle_closer>
_TEXT	ENDS
; Function compile flags: /Odtp /RTCsu
;	COMDAT ??0?$unique_ptr@XUhandle_closer@@@std@@QAE@PAX@Z
_TEXT	SEGMENT
_this$ = -4						; size = 4
__Ptr$ = 8						; size = 4
??0?$unique_ptr@XUhandle_closer@@@std@@QAE@PAX@Z PROC	; std::unique_ptr<void,handle_closer>::unique_ptr<void,handle_closer>, COMDAT
; _this$ = ecx
; File c:\program files (x86)\microsoft visual studio 12.0\vc\include\memory
; Line 1365
  00000	55		 push	 ebp
  00001	8b ec		 mov	 ebp, esp
  00003	51		 push	 ecx
  00004	c7 45 fc cc cc
	cc cc		 mov	 DWORD PTR [ebp-4], -858993460 ; ccccccccH
  0000b	89 4d fc	 mov	 DWORD PTR _this$[ebp], ecx
  0000e	8b 45 08	 mov	 eax, DWORD PTR __Ptr$[ebp]
  00011	50		 push	 eax
  00012	8b 4d fc	 mov	 ecx, DWORD PTR _this$[ebp]
  00015	e8 00 00 00 00	 call	 ??0?$_Unique_ptr_base@XUhandle_closer@@$00@std@@QAE@PAX@Z ; std::_Unique_ptr_base<void,handle_closer,1>::_Unique_ptr_base<void,handle_closer,1>
; Line 1368
  0001a	8b 45 fc	 mov	 eax, DWORD PTR _this$[ebp]
  0001d	83 c4 04	 add	 esp, 4
  00020	3b ec		 cmp	 ebp, esp
  00022	e8 00 00 00 00	 call	 __RTC_CheckEsp
  00027	8b e5		 mov	 esp, ebp
  00029	5d		 pop	 ebp
  0002a	c2 04 00	 ret	 4
??0?$unique_ptr@XUhandle_closer@@@std@@QAE@PAX@Z ENDP	; std::unique_ptr<void,handle_closer>::unique_ptr<void,handle_closer>
_TEXT	ENDS
; Function compile flags: /Odtp /RTCsu
;	COMDAT ?get_deleter@?$_Unique_ptr_base@XUhandle_closer@@$00@std@@QAEAAUhandle_closer@@XZ
_TEXT	SEGMENT
_this$ = -4						; size = 4
?get_deleter@?$_Unique_ptr_base@XUhandle_closer@@$00@std@@QAEAAUhandle_closer@@XZ PROC ; std::_Unique_ptr_base<void,handle_closer,1>::get_deleter, COMDAT
; _this$ = ecx
; File c:\program files (x86)\microsoft visual studio 12.0\vc\include\memory
; Line 1312
  00000	55		 push	 ebp
  00001	8b ec		 mov	 ebp, esp
  00003	51		 push	 ecx
  00004	c7 45 fc cc cc
	cc cc		 mov	 DWORD PTR [ebp-4], -858993460 ; ccccccccH
  0000b	89 4d fc	 mov	 DWORD PTR _this$[ebp], ecx
; Line 1313
  0000e	8b 45 fc	 mov	 eax, DWORD PTR _this$[ebp]
; Line 1314
  00011	8b e5		 mov	 esp, ebp
  00013	5d		 pop	 ebp
  00014	c3		 ret	 0
?get_deleter@?$_Unique_ptr_base@XUhandle_closer@@$00@std@@QAEAAUhandle_closer@@XZ ENDP ; std::_Unique_ptr_base<void,handle_closer,1>::get_deleter
_TEXT	ENDS
; Function compile flags: /Odtp /RTCsu
;	COMDAT ??0?$_Unique_ptr_base@XUhandle_closer@@$00@std@@QAE@PAX@Z
_TEXT	SEGMENT
_this$ = -4						; size = 4
__Ptr$ = 8						; size = 4
??0?$_Unique_ptr_base@XUhandle_closer@@$00@std@@QAE@PAX@Z PROC ; std::_Unique_ptr_base<void,handle_closer,1>::_Unique_ptr_base<void,handle_closer,1>, COMDAT
; _this$ = ecx
; File c:\program files (x86)\microsoft visual studio 12.0\vc\include\memory
; Line 1295
  00000	55		 push	 ebp
  00001	8b ec		 mov	 ebp, esp
  00003	51		 push	 ecx
  00004	c7 45 fc cc cc
	cc cc		 mov	 DWORD PTR [ebp-4], -858993460 ; ccccccccH
  0000b	89 4d fc	 mov	 DWORD PTR _this$[ebp], ecx
  0000e	8b 45 fc	 mov	 eax, DWORD PTR _this$[ebp]
  00011	8b 4d 08	 mov	 ecx, DWORD PTR __Ptr$[ebp]
  00014	89 08		 mov	 DWORD PTR [eax], ecx
; Line 1296
  00016	8b 45 fc	 mov	 eax, DWORD PTR _this$[ebp]
  00019	8b e5		 mov	 esp, ebp
  0001b	5d		 pop	 ebp
  0001c	c2 04 00	 ret	 4
??0?$_Unique_ptr_base@XUhandle_closer@@$00@std@@QAE@PAX@Z ENDP ; std::_Unique_ptr_base<void,handle_closer,1>::_Unique_ptr_base<void,handle_closer,1>
_TEXT	ENDS
; Function compile flags: /Odtp /RTCsu
_TEXT	SEGMENT
_hr$ = -4						; size = 4
?_GetWIC@@YAPAUIWICImagingFactory@@XZ PROC		; _GetWIC
; File d:\engine class\assignment 1\new scratch\dxut\core\screengrab.cpp
; Line 672
  00000	55		 push	 ebp
  00001	8b ec		 mov	 ebp, esp
  00003	51		 push	 ecx
  00004	56		 push	 esi
  00005	c7 45 fc cc cc
	cc cc		 mov	 DWORD PTR [ebp-4], -858993460 ; ccccccccH
; Line 675
  0000c	83 3d 00 00 00
	00 00		 cmp	 DWORD PTR ?s_Factory@?1??_GetWIC@@YAPAUIWICImagingFactory@@XZ@4PAU2@A, 0
  00013	74 07		 je	 SHORT $LN2@GetWIC
; Line 676
  00015	a1 00 00 00 00	 mov	 eax, DWORD PTR ?s_Factory@?1??_GetWIC@@YAPAUIWICImagingFactory@@XZ@4PAU2@A
  0001a	eb 3e		 jmp	 SHORT $LN3@GetWIC
$LN2@GetWIC:
; Line 715
  0001c	8b f4		 mov	 esi, esp
  0001e	68 00 00 00 00	 push	 OFFSET ?s_Factory@?1??_GetWIC@@YAPAUIWICImagingFactory@@XZ@4PAU2@A
  00023	68 00 00 00 00	 push	 OFFSET __GUID_ec5ec8a9_c395_4314_9c77_54d7a935ff70
  00028	6a 01		 push	 1
  0002a	6a 00		 push	 0
  0002c	68 00 00 00 00	 push	 OFFSET _CLSID_WICImagingFactory
  00031	ff 15 00 00 00
	00		 call	 DWORD PTR __imp__CoCreateInstance@20
  00037	3b f4		 cmp	 esi, esp
  00039	e8 00 00 00 00	 call	 __RTC_CheckEsp
  0003e	89 45 fc	 mov	 DWORD PTR _hr$[ebp], eax
; Line 717
  00041	83 7d fc 00	 cmp	 DWORD PTR _hr$[ebp], 0
  00045	7d 0e		 jge	 SHORT $LN1@GetWIC
; Line 719
  00047	c7 05 00 00 00
	00 00 00 00 00	 mov	 DWORD PTR ?s_Factory@?1??_GetWIC@@YAPAUIWICImagingFactory@@XZ@4PAU2@A, 0
; Line 720
  00051	33 c0		 xor	 eax, eax
  00053	eb 05		 jmp	 SHORT $LN3@GetWIC
$LN1@GetWIC:
; Line 724
  00055	a1 00 00 00 00	 mov	 eax, DWORD PTR ?s_Factory@?1??_GetWIC@@YAPAUIWICImagingFactory@@XZ@4PAU2@A
$LN3@GetWIC:
; Line 725
  0005a	5e		 pop	 esi
  0005b	83 c4 04	 add	 esp, 4
  0005e	3b ec		 cmp	 ebp, esp
  00060	e8 00 00 00 00	 call	 __RTC_CheckEsp
  00065	8b e5		 mov	 esp, ebp
  00067	5d		 pop	 ebp
  00068	c3		 ret	 0
?_GetWIC@@YAPAUIWICImagingFactory@@XZ ENDP		; _GetWIC
_TEXT	ENDS
; Function compile flags: /Odtp /RTCsu
;	COMDAT ?GetAddressOf@?$ComPtr@UID3D11Device@@@WRL@Microsoft@@QAEPAPAUID3D11Device@@XZ
_TEXT	SEGMENT
_this$ = -4						; size = 4
?GetAddressOf@?$ComPtr@UID3D11Device@@@WRL@Microsoft@@QAEPAPAUID3D11Device@@XZ PROC ; Microsoft::WRL::ComPtr<ID3D11Device>::GetAddressOf, COMDAT
; _this$ = ecx
; File c:\program files (x86)\windows kits\8.1\include\winrt\wrl\client.h
; Line 353
  00000	55		 push	 ebp
  00001	8b ec		 mov	 ebp, esp
  00003	51		 push	 ecx
  00004	c7 45 fc cc cc
	cc cc		 mov	 DWORD PTR [ebp-4], -858993460 ; ccccccccH
  0000b	89 4d fc	 mov	 DWORD PTR _this$[ebp], ecx
; Line 354
  0000e	8b 45 fc	 mov	 eax, DWORD PTR _this$[ebp]
; Line 355
  00011	8b e5		 mov	 esp, ebp
  00013	5d		 pop	 ebp
  00014	c3		 ret	 0
?GetAddressOf@?$ComPtr@UID3D11Device@@@WRL@Microsoft@@QAEPAPAUID3D11Device@@XZ ENDP ; Microsoft::WRL::ComPtr<ID3D11Device>::GetAddressOf
_TEXT	ENDS
; Function compile flags: /Odtp /RTCsu
;	COMDAT ??C?$ComPtr@UID3D11Device@@@WRL@Microsoft@@QBEPAV?$RemoveIUnknownBase@UID3D11Device@@@Details@12@XZ
_TEXT	SEGMENT
_this$ = -4						; size = 4
??C?$ComPtr@UID3D11Device@@@WRL@Microsoft@@QBEPAV?$RemoveIUnknownBase@UID3D11Device@@@Details@12@XZ PROC ; Microsoft::WRL::ComPtr<ID3D11Device>::operator->, COMDAT
; _this$ = ecx
; File c:\program files (x86)\windows kits\8.1\include\winrt\wrl\client.h
; Line 326
  00000	55		 push	 ebp
  00001	8b ec		 mov	 ebp, esp
  00003	51		 push	 ecx
  00004	c7 45 fc cc cc
	cc cc		 mov	 DWORD PTR [ebp-4], -858993460 ; ccccccccH
  0000b	89 4d fc	 mov	 DWORD PTR _this$[ebp], ecx
; Line 327
  0000e	8b 45 fc	 mov	 eax, DWORD PTR _this$[ebp]
  00011	8b 00		 mov	 eax, DWORD PTR [eax]
; Line 328
  00013	8b e5		 mov	 esp, ebp
  00015	5d		 pop	 ebp
  00016	c3		 ret	 0
??C?$ComPtr@UID3D11Device@@@WRL@Microsoft@@QBEPAV?$RemoveIUnknownBase@UID3D11Device@@@Details@12@XZ ENDP ; Microsoft::WRL::ComPtr<ID3D11Device>::operator->
_TEXT	ENDS
; Function compile flags: /Odtp /RTCsu
;	COMDAT ??1?$ComPtr@UID3D11Device@@@WRL@Microsoft@@QAE@XZ
_TEXT	SEGMENT
_this$ = -4						; size = 4
??1?$ComPtr@UID3D11Device@@@WRL@Microsoft@@QAE@XZ PROC	; Microsoft::WRL::ComPtr<ID3D11Device>::~ComPtr<ID3D11Device>, COMDAT
; _this$ = ecx
; File c:\program files (x86)\windows kits\8.1\include\winrt\wrl\client.h
; Line 240
  00000	55		 push	 ebp
  00001	8b ec		 mov	 ebp, esp
  00003	51		 push	 ecx
  00004	c7 45 fc cc cc
	cc cc		 mov	 DWORD PTR [ebp-4], -858993460 ; ccccccccH
  0000b	89 4d fc	 mov	 DWORD PTR _this$[ebp], ecx
; Line 241
  0000e	8b 4d fc	 mov	 ecx, DWORD PTR _this$[ebp]
  00011	e8 00 00 00 00	 call	 ?InternalRelease@?$ComPtr@UID3D11Device@@@WRL@Microsoft@@IAEKXZ ; Microsoft::WRL::ComPtr<ID3D11Device>::InternalRelease
; Line 242
  00016	83 c4 04	 add	 esp, 4
  00019	3b ec		 cmp	 ebp, esp
  0001b	e8 00 00 00 00	 call	 __RTC_CheckEsp
  00020	8b e5		 mov	 esp, ebp
  00022	5d		 pop	 ebp
  00023	c3		 ret	 0
??1?$ComPtr@UID3D11Device@@@WRL@Microsoft@@QAE@XZ ENDP	; Microsoft::WRL::ComPtr<ID3D11Device>::~ComPtr<ID3D11Device>
_TEXT	ENDS
; Function compile flags: /Odtp /RTCsu
;	COMDAT ??0?$ComPtr@UID3D11Device@@@WRL@Microsoft@@QAE@XZ
_TEXT	SEGMENT
_this$ = -4						; size = 4
??0?$ComPtr@UID3D11Device@@@WRL@Microsoft@@QAE@XZ PROC	; Microsoft::WRL::ComPtr<ID3D11Device>::ComPtr<ID3D11Device>, COMDAT
; _this$ = ecx
; File c:\program files (x86)\windows kits\8.1\include\winrt\wrl\client.h
; Line 195
  00000	55		 push	 ebp
  00001	8b ec		 mov	 ebp, esp
  00003	51		 push	 ecx
  00004	c7 45 fc cc cc
	cc cc		 mov	 DWORD PTR [ebp-4], -858993460 ; ccccccccH
  0000b	89 4d fc	 mov	 DWORD PTR _this$[ebp], ecx
  0000e	8b 45 fc	 mov	 eax, DWORD PTR _this$[ebp]
  00011	c7 00 00 00 00
	00		 mov	 DWORD PTR [eax], 0
; Line 196
  00017	8b 45 fc	 mov	 eax, DWORD PTR _this$[ebp]
  0001a	8b e5		 mov	 esp, ebp
  0001c	5d		 pop	 ebp
  0001d	c3		 ret	 0
??0?$ComPtr@UID3D11Device@@@WRL@Microsoft@@QAE@XZ ENDP	; Microsoft::WRL::ComPtr<ID3D11Device>::ComPtr<ID3D11Device>
_TEXT	ENDS
; Function compile flags: /Odtp /RTCsu
;	COMDAT ?InternalRelease@?$ComPtr@UID3D11Device@@@WRL@Microsoft@@IAEKXZ
_TEXT	SEGMENT
_temp$ = -12						; size = 4
_ref$ = -8						; size = 4
_this$ = -4						; size = 4
?InternalRelease@?$ComPtr@UID3D11Device@@@WRL@Microsoft@@IAEKXZ PROC ; Microsoft::WRL::ComPtr<ID3D11Device>::InternalRelease, COMDAT
; _this$ = ecx
; File c:\program files (x86)\windows kits\8.1\include\winrt\wrl\client.h
; Line 179
  00000	55		 push	 ebp
  00001	8b ec		 mov	 ebp, esp
  00003	83 ec 0c	 sub	 esp, 12			; 0000000cH
  00006	56		 push	 esi
  00007	c7 45 f4 cc cc
	cc cc		 mov	 DWORD PTR [ebp-12], -858993460 ; ccccccccH
  0000e	c7 45 f8 cc cc
	cc cc		 mov	 DWORD PTR [ebp-8], -858993460 ; ccccccccH
  00015	c7 45 fc cc cc
	cc cc		 mov	 DWORD PTR [ebp-4], -858993460 ; ccccccccH
  0001c	89 4d fc	 mov	 DWORD PTR _this$[ebp], ecx
; Line 180
  0001f	c7 45 f8 00 00
	00 00		 mov	 DWORD PTR _ref$[ebp], 0
; Line 181
  00026	8b 45 fc	 mov	 eax, DWORD PTR _this$[ebp]
  00029	8b 08		 mov	 ecx, DWORD PTR [eax]
  0002b	89 4d f4	 mov	 DWORD PTR _temp$[ebp], ecx
; Line 183
  0002e	83 7d f4 00	 cmp	 DWORD PTR _temp$[ebp], 0
  00032	74 23		 je	 SHORT $LN1@InternalRe
; Line 185
  00034	8b 55 fc	 mov	 edx, DWORD PTR _this$[ebp]
  00037	c7 02 00 00 00
	00		 mov	 DWORD PTR [edx], 0
; Line 186
  0003d	8b 45 f4	 mov	 eax, DWORD PTR _temp$[ebp]
  00040	8b 08		 mov	 ecx, DWORD PTR [eax]
  00042	8b f4		 mov	 esi, esp
  00044	8b 55 f4	 mov	 edx, DWORD PTR _temp$[ebp]
  00047	52		 push	 edx
  00048	8b 41 08	 mov	 eax, DWORD PTR [ecx+8]
  0004b	ff d0		 call	 eax
  0004d	3b f4		 cmp	 esi, esp
  0004f	e8 00 00 00 00	 call	 __RTC_CheckEsp
  00054	89 45 f8	 mov	 DWORD PTR _ref$[ebp], eax
$LN1@InternalRe:
; Line 189
  00057	8b 45 f8	 mov	 eax, DWORD PTR _ref$[ebp]
; Line 190
  0005a	5e		 pop	 esi
  0005b	83 c4 0c	 add	 esp, 12			; 0000000cH
  0005e	3b ec		 cmp	 ebp, esp
  00060	e8 00 00 00 00	 call	 __RTC_CheckEsp
  00065	8b e5		 mov	 esp, ebp
  00067	5d		 pop	 ebp
  00068	c3		 ret	 0
?InternalRelease@?$ComPtr@UID3D11Device@@@WRL@Microsoft@@IAEKXZ ENDP ; Microsoft::WRL::ComPtr<ID3D11Device>::InternalRelease
_TEXT	ENDS
; Function compile flags: /Odtp /RTCsu
;	COMDAT ?GetAddressOf@?$ComPtr@UID3D11Texture2D@@@WRL@Microsoft@@QAEPAPAUID3D11Texture2D@@XZ
_TEXT	SEGMENT
_this$ = -4						; size = 4
?GetAddressOf@?$ComPtr@UID3D11Texture2D@@@WRL@Microsoft@@QAEPAPAUID3D11Texture2D@@XZ PROC ; Microsoft::WRL::ComPtr<ID3D11Texture2D>::GetAddressOf, COMDAT
; _this$ = ecx
; File c:\program files (x86)\windows kits\8.1\include\winrt\wrl\client.h
; Line 353
  00000	55		 push	 ebp
  00001	8b ec		 mov	 ebp, esp
  00003	51		 push	 ecx
  00004	c7 45 fc cc cc
	cc cc		 mov	 DWORD PTR [ebp-4], -858993460 ; ccccccccH
  0000b	89 4d fc	 mov	 DWORD PTR _this$[ebp], ecx
; Line 354
  0000e	8b 45 fc	 mov	 eax, DWORD PTR _this$[ebp]
; Line 355
  00011	8b e5		 mov	 esp, ebp
  00013	5d		 pop	 ebp
  00014	c3		 ret	 0
?GetAddressOf@?$ComPtr@UID3D11Texture2D@@@WRL@Microsoft@@QAEPAPAUID3D11Texture2D@@XZ ENDP ; Microsoft::WRL::ComPtr<ID3D11Texture2D>::GetAddressOf
_TEXT	ENDS
; Function compile flags: /Odtp /RTCsu
;	COMDAT ??C?$ComPtr@UID3D11Texture2D@@@WRL@Microsoft@@QBEPAV?$RemoveIUnknownBase@UID3D11Texture2D@@@Details@12@XZ
_TEXT	SEGMENT
_this$ = -4						; size = 4
??C?$ComPtr@UID3D11Texture2D@@@WRL@Microsoft@@QBEPAV?$RemoveIUnknownBase@UID3D11Texture2D@@@Details@12@XZ PROC ; Microsoft::WRL::ComPtr<ID3D11Texture2D>::operator->, COMDAT
; _this$ = ecx
; File c:\program files (x86)\windows kits\8.1\include\winrt\wrl\client.h
; Line 326
  00000	55		 push	 ebp
  00001	8b ec		 mov	 ebp, esp
  00003	51		 push	 ecx
  00004	c7 45 fc cc cc
	cc cc		 mov	 DWORD PTR [ebp-4], -858993460 ; ccccccccH
  0000b	89 4d fc	 mov	 DWORD PTR _this$[ebp], ecx
; Line 327
  0000e	8b 45 fc	 mov	 eax, DWORD PTR _this$[ebp]
  00011	8b 00		 mov	 eax, DWORD PTR [eax]
; Line 328
  00013	8b e5		 mov	 esp, ebp
  00015	5d		 pop	 ebp
  00016	c3		 ret	 0
??C?$ComPtr@UID3D11Texture2D@@@WRL@Microsoft@@QBEPAV?$RemoveIUnknownBase@UID3D11Texture2D@@@Details@12@XZ ENDP ; Microsoft::WRL::ComPtr<ID3D11Texture2D>::operator->
_TEXT	ENDS
; Function compile flags: /Odtp /RTCsu
;	COMDAT ?Get@?$ComPtr@UID3D11Texture2D@@@WRL@Microsoft@@QBEPAUID3D11Texture2D@@XZ
_TEXT	SEGMENT
_this$ = -4						; size = 4
?Get@?$ComPtr@UID3D11Texture2D@@@WRL@Microsoft@@QBEPAUID3D11Texture2D@@XZ PROC ; Microsoft::WRL::ComPtr<ID3D11Texture2D>::Get, COMDAT
; _this$ = ecx
; File c:\program files (x86)\windows kits\8.1\include\winrt\wrl\client.h
; Line 320
  00000	55		 push	 ebp
  00001	8b ec		 mov	 ebp, esp
  00003	51		 push	 ecx
  00004	c7 45 fc cc cc
	cc cc		 mov	 DWORD PTR [ebp-4], -858993460 ; ccccccccH
  0000b	89 4d fc	 mov	 DWORD PTR _this$[ebp], ecx
; Line 321
  0000e	8b 45 fc	 mov	 eax, DWORD PTR _this$[ebp]
  00011	8b 00		 mov	 eax, DWORD PTR [eax]
; Line 322
  00013	8b e5		 mov	 esp, ebp
  00015	5d		 pop	 ebp
  00016	c3		 ret	 0
?Get@?$ComPtr@UID3D11Texture2D@@@WRL@Microsoft@@QBEPAUID3D11Texture2D@@XZ ENDP ; Microsoft::WRL::ComPtr<ID3D11Texture2D>::Get
_TEXT	ENDS
; Function compile flags: /Odtp /RTCsu
;	COMDAT ??B?$ComPtr@UID3D11Texture2D@@@WRL@Microsoft@@QBEPQBoolStruct@Details@12@HXZ
_TEXT	SEGMENT
tv67 = -8						; size = 4
_this$ = -4						; size = 4
??B?$ComPtr@UID3D11Texture2D@@@WRL@Microsoft@@QBEPQBoolStruct@Details@12@HXZ PROC ; Microsoft::WRL::ComPtr<ID3D11Texture2D>::operator int Microsoft::WRL::Details::BoolStruct::*, COMDAT
; _this$ = ecx
; File c:\program files (x86)\windows kits\8.1\include\winrt\wrl\client.h
; Line 315
  00000	55		 push	 ebp
  00001	8b ec		 mov	 ebp, esp
  00003	83 ec 08	 sub	 esp, 8
  00006	c7 45 f8 cc cc
	cc cc		 mov	 DWORD PTR [ebp-8], -858993460 ; ccccccccH
  0000d	c7 45 fc cc cc
	cc cc		 mov	 DWORD PTR [ebp-4], -858993460 ; ccccccccH
  00014	89 4d fc	 mov	 DWORD PTR _this$[ebp], ecx
; Line 316
  00017	8b 4d fc	 mov	 ecx, DWORD PTR _this$[ebp]
  0001a	e8 00 00 00 00	 call	 ?Get@?$ComPtr@UID3D11Texture2D@@@WRL@Microsoft@@QBEPAUID3D11Texture2D@@XZ ; Microsoft::WRL::ComPtr<ID3D11Texture2D>::Get
  0001f	85 c0		 test	 eax, eax
  00021	74 09		 je	 SHORT $LN3@
  00023	c7 45 f8 00 00
	00 00		 mov	 DWORD PTR tv67[ebp], 0
  0002a	eb 07		 jmp	 SHORT $LN4@
$LN3@:
  0002c	c7 45 f8 ff ff
	ff ff		 mov	 DWORD PTR tv67[ebp], -1
$LN4@:
  00033	8b 45 f8	 mov	 eax, DWORD PTR tv67[ebp]
; Line 317
  00036	83 c4 08	 add	 esp, 8
  00039	3b ec		 cmp	 ebp, esp
  0003b	e8 00 00 00 00	 call	 __RTC_CheckEsp
  00040	8b e5		 mov	 esp, ebp
  00042	5d		 pop	 ebp
  00043	c3		 ret	 0
??B?$ComPtr@UID3D11Texture2D@@@WRL@Microsoft@@QBEPQBoolStruct@Details@12@HXZ ENDP ; Microsoft::WRL::ComPtr<ID3D11Texture2D>::operator int Microsoft::WRL::Details::BoolStruct::*
_TEXT	ENDS
; Function compile flags: /Odtp /RTCsu
;	COMDAT ?Swap@?$ComPtr@UID3D11Texture2D@@@WRL@Microsoft@@QAEXAAV123@@Z
_TEXT	SEGMENT
_tmp$ = -8						; size = 4
_this$ = -4						; size = 4
_r$ = 8							; size = 4
?Swap@?$ComPtr@UID3D11Texture2D@@@WRL@Microsoft@@QAEXAAV123@@Z PROC ; Microsoft::WRL::ComPtr<ID3D11Texture2D>::Swap, COMDAT
; _this$ = ecx
; File c:\program files (x86)\windows kits\8.1\include\winrt\wrl\client.h
; Line 307
  00000	55		 push	 ebp
  00001	8b ec		 mov	 ebp, esp
  00003	83 ec 08	 sub	 esp, 8
  00006	c7 45 f8 cc cc
	cc cc		 mov	 DWORD PTR [ebp-8], -858993460 ; ccccccccH
  0000d	c7 45 fc cc cc
	cc cc		 mov	 DWORD PTR [ebp-4], -858993460 ; ccccccccH
  00014	89 4d fc	 mov	 DWORD PTR _this$[ebp], ecx
; Line 308
  00017	8b 45 fc	 mov	 eax, DWORD PTR _this$[ebp]
  0001a	8b 08		 mov	 ecx, DWORD PTR [eax]
  0001c	89 4d f8	 mov	 DWORD PTR _tmp$[ebp], ecx
; Line 309
  0001f	8b 55 fc	 mov	 edx, DWORD PTR _this$[ebp]
  00022	8b 45 08	 mov	 eax, DWORD PTR _r$[ebp]
  00025	8b 08		 mov	 ecx, DWORD PTR [eax]
  00027	89 0a		 mov	 DWORD PTR [edx], ecx
; Line 310
  00029	8b 55 08	 mov	 edx, DWORD PTR _r$[ebp]
  0002c	8b 45 f8	 mov	 eax, DWORD PTR _tmp$[ebp]
  0002f	89 02		 mov	 DWORD PTR [edx], eax
; Line 311
  00031	8b e5		 mov	 esp, ebp
  00033	5d		 pop	 ebp
  00034	c2 04 00	 ret	 4
?Swap@?$ComPtr@UID3D11Texture2D@@@WRL@Microsoft@@QAEXAAV123@@Z ENDP ; Microsoft::WRL::ComPtr<ID3D11Texture2D>::Swap
_TEXT	ENDS
; Function compile flags: /Odtp /RTCsu
;	COMDAT ??4?$ComPtr@UID3D11Texture2D@@@WRL@Microsoft@@QAEAAV012@ABV012@@Z
_TEXT	SEGMENT
$T1 = -8						; size = 4
_this$ = -4						; size = 4
_other$ = 8						; size = 4
??4?$ComPtr@UID3D11Texture2D@@@WRL@Microsoft@@QAEAAV012@ABV012@@Z PROC ; Microsoft::WRL::ComPtr<ID3D11Texture2D>::operator=, COMDAT
; _this$ = ecx
; File c:\program files (x86)\windows kits\8.1\include\winrt\wrl\client.h
; Line 269
  00000	55		 push	 ebp
  00001	8b ec		 mov	 ebp, esp
  00003	83 ec 08	 sub	 esp, 8
  00006	c7 45 f8 cc cc
	cc cc		 mov	 DWORD PTR [ebp-8], -858993460 ; ccccccccH
  0000d	c7 45 fc cc cc
	cc cc		 mov	 DWORD PTR [ebp-4], -858993460 ; ccccccccH
  00014	89 4d fc	 mov	 DWORD PTR _this$[ebp], ecx
; Line 270
  00017	8b 45 fc	 mov	 eax, DWORD PTR _this$[ebp]
  0001a	8b 4d 08	 mov	 ecx, DWORD PTR _other$[ebp]
  0001d	8b 10		 mov	 edx, DWORD PTR [eax]
  0001f	3b 11		 cmp	 edx, DWORD PTR [ecx]
  00021	74 1f		 je	 SHORT $LN1@operator
; Line 272
  00023	8b 45 fc	 mov	 eax, DWORD PTR _this$[ebp]
  00026	50		 push	 eax
  00027	8b 4d 08	 mov	 ecx, DWORD PTR _other$[ebp]
  0002a	51		 push	 ecx
  0002b	8d 4d f8	 lea	 ecx, DWORD PTR $T1[ebp]
  0002e	e8 00 00 00 00	 call	 ??0?$ComPtr@UID3D11Texture2D@@@WRL@Microsoft@@QAE@ABV012@@Z ; Microsoft::WRL::ComPtr<ID3D11Texture2D>::ComPtr<ID3D11Texture2D>
  00033	8b c8		 mov	 ecx, eax
  00035	e8 00 00 00 00	 call	 ?Swap@?$ComPtr@UID3D11Texture2D@@@WRL@Microsoft@@QAEXAAV123@@Z ; Microsoft::WRL::ComPtr<ID3D11Texture2D>::Swap
  0003a	8d 4d f8	 lea	 ecx, DWORD PTR $T1[ebp]
  0003d	e8 00 00 00 00	 call	 ??1?$ComPtr@UID3D11Texture2D@@@WRL@Microsoft@@QAE@XZ ; Microsoft::WRL::ComPtr<ID3D11Texture2D>::~ComPtr<ID3D11Texture2D>
$LN1@operator:
; Line 274
  00042	8b 45 fc	 mov	 eax, DWORD PTR _this$[ebp]
; Line 275
  00045	83 c4 08	 add	 esp, 8
  00048	3b ec		 cmp	 ebp, esp
  0004a	e8 00 00 00 00	 call	 __RTC_CheckEsp
  0004f	8b e5		 mov	 esp, ebp
  00051	5d		 pop	 ebp
  00052	c2 04 00	 ret	 4
??4?$ComPtr@UID3D11Texture2D@@@WRL@Microsoft@@QAEAAV012@ABV012@@Z ENDP ; Microsoft::WRL::ComPtr<ID3D11Texture2D>::operator=
_TEXT	ENDS
; Function compile flags: /Odtp /RTCsu
;	COMDAT ??1?$ComPtr@UID3D11Texture2D@@@WRL@Microsoft@@QAE@XZ
_TEXT	SEGMENT
_this$ = -4						; size = 4
??1?$ComPtr@UID3D11Texture2D@@@WRL@Microsoft@@QAE@XZ PROC ; Microsoft::WRL::ComPtr<ID3D11Texture2D>::~ComPtr<ID3D11Texture2D>, COMDAT
; _this$ = ecx
; File c:\program files (x86)\windows kits\8.1\include\winrt\wrl\client.h
; Line 240
  00000	55		 push	 ebp
  00001	8b ec		 mov	 ebp, esp
  00003	51		 push	 ecx
  00004	c7 45 fc cc cc
	cc cc		 mov	 DWORD PTR [ebp-4], -858993460 ; ccccccccH
  0000b	89 4d fc	 mov	 DWORD PTR _this$[ebp], ecx
; Line 241
  0000e	8b 4d fc	 mov	 ecx, DWORD PTR _this$[ebp]
  00011	e8 00 00 00 00	 call	 ?InternalRelease@?$ComPtr@UID3D11Texture2D@@@WRL@Microsoft@@IAEKXZ ; Microsoft::WRL::ComPtr<ID3D11Texture2D>::InternalRelease
; Line 242
  00016	83 c4 04	 add	 esp, 4
  00019	3b ec		 cmp	 ebp, esp
  0001b	e8 00 00 00 00	 call	 __RTC_CheckEsp
  00020	8b e5		 mov	 esp, ebp
  00022	5d		 pop	 ebp
  00023	c3		 ret	 0
??1?$ComPtr@UID3D11Texture2D@@@WRL@Microsoft@@QAE@XZ ENDP ; Microsoft::WRL::ComPtr<ID3D11Texture2D>::~ComPtr<ID3D11Texture2D>
_TEXT	ENDS
; Function compile flags: /Odtp /RTCsu
;	COMDAT ??0?$ComPtr@UID3D11Texture2D@@@WRL@Microsoft@@QAE@ABV012@@Z
_TEXT	SEGMENT
_this$ = -4						; size = 4
_other$ = 8						; size = 4
??0?$ComPtr@UID3D11Texture2D@@@WRL@Microsoft@@QAE@ABV012@@Z PROC ; Microsoft::WRL::ComPtr<ID3D11Texture2D>::ComPtr<ID3D11Texture2D>, COMDAT
; _this$ = ecx
; File c:\program files (x86)\windows kits\8.1\include\winrt\wrl\client.h
; Line 209
  00000	55		 push	 ebp
  00001	8b ec		 mov	 ebp, esp
  00003	51		 push	 ecx
  00004	c7 45 fc cc cc
	cc cc		 mov	 DWORD PTR [ebp-4], -858993460 ; ccccccccH
  0000b	89 4d fc	 mov	 DWORD PTR _this$[ebp], ecx
  0000e	8b 45 fc	 mov	 eax, DWORD PTR _this$[ebp]
  00011	8b 4d 08	 mov	 ecx, DWORD PTR _other$[ebp]
  00014	8b 11		 mov	 edx, DWORD PTR [ecx]
  00016	89 10		 mov	 DWORD PTR [eax], edx
; Line 210
  00018	8b 4d fc	 mov	 ecx, DWORD PTR _this$[ebp]
  0001b	e8 00 00 00 00	 call	 ?InternalAddRef@?$ComPtr@UID3D11Texture2D@@@WRL@Microsoft@@IBEXXZ ; Microsoft::WRL::ComPtr<ID3D11Texture2D>::InternalAddRef
; Line 211
  00020	8b 45 fc	 mov	 eax, DWORD PTR _this$[ebp]
  00023	83 c4 04	 add	 esp, 4
  00026	3b ec		 cmp	 ebp, esp
  00028	e8 00 00 00 00	 call	 __RTC_CheckEsp
  0002d	8b e5		 mov	 esp, ebp
  0002f	5d		 pop	 ebp
  00030	c2 04 00	 ret	 4
??0?$ComPtr@UID3D11Texture2D@@@WRL@Microsoft@@QAE@ABV012@@Z ENDP ; Microsoft::WRL::ComPtr<ID3D11Texture2D>::ComPtr<ID3D11Texture2D>
_TEXT	ENDS
; Function compile flags: /Odtp /RTCsu
;	COMDAT ??0?$ComPtr@UID3D11Texture2D@@@WRL@Microsoft@@QAE@XZ
_TEXT	SEGMENT
_this$ = -4						; size = 4
??0?$ComPtr@UID3D11Texture2D@@@WRL@Microsoft@@QAE@XZ PROC ; Microsoft::WRL::ComPtr<ID3D11Texture2D>::ComPtr<ID3D11Texture2D>, COMDAT
; _this$ = ecx
; File c:\program files (x86)\windows kits\8.1\include\winrt\wrl\client.h
; Line 195
  00000	55		 push	 ebp
  00001	8b ec		 mov	 ebp, esp
  00003	51		 push	 ecx
  00004	c7 45 fc cc cc
	cc cc		 mov	 DWORD PTR [ebp-4], -858993460 ; ccccccccH
  0000b	89 4d fc	 mov	 DWORD PTR _this$[ebp], ecx
  0000e	8b 45 fc	 mov	 eax, DWORD PTR _this$[ebp]
  00011	c7 00 00 00 00
	00		 mov	 DWORD PTR [eax], 0
; Line 196
  00017	8b 45 fc	 mov	 eax, DWORD PTR _this$[ebp]
  0001a	8b e5		 mov	 esp, ebp
  0001c	5d		 pop	 ebp
  0001d	c3		 ret	 0
??0?$ComPtr@UID3D11Texture2D@@@WRL@Microsoft@@QAE@XZ ENDP ; Microsoft::WRL::ComPtr<ID3D11Texture2D>::ComPtr<ID3D11Texture2D>
_TEXT	ENDS
; Function compile flags: /Odtp /RTCsu
;	COMDAT ?InternalRelease@?$ComPtr@UID3D11Texture2D@@@WRL@Microsoft@@IAEKXZ
_TEXT	SEGMENT
_temp$ = -12						; size = 4
_ref$ = -8						; size = 4
_this$ = -4						; size = 4
?InternalRelease@?$ComPtr@UID3D11Texture2D@@@WRL@Microsoft@@IAEKXZ PROC ; Microsoft::WRL::ComPtr<ID3D11Texture2D>::InternalRelease, COMDAT
; _this$ = ecx
; File c:\program files (x86)\windows kits\8.1\include\winrt\wrl\client.h
; Line 179
  00000	55		 push	 ebp
  00001	8b ec		 mov	 ebp, esp
  00003	83 ec 0c	 sub	 esp, 12			; 0000000cH
  00006	56		 push	 esi
  00007	c7 45 f4 cc cc
	cc cc		 mov	 DWORD PTR [ebp-12], -858993460 ; ccccccccH
  0000e	c7 45 f8 cc cc
	cc cc		 mov	 DWORD PTR [ebp-8], -858993460 ; ccccccccH
  00015	c7 45 fc cc cc
	cc cc		 mov	 DWORD PTR [ebp-4], -858993460 ; ccccccccH
  0001c	89 4d fc	 mov	 DWORD PTR _this$[ebp], ecx
; Line 180
  0001f	c7 45 f8 00 00
	00 00		 mov	 DWORD PTR _ref$[ebp], 0
; Line 181
  00026	8b 45 fc	 mov	 eax, DWORD PTR _this$[ebp]
  00029	8b 08		 mov	 ecx, DWORD PTR [eax]
  0002b	89 4d f4	 mov	 DWORD PTR _temp$[ebp], ecx
; Line 183
  0002e	83 7d f4 00	 cmp	 DWORD PTR _temp$[ebp], 0
  00032	74 23		 je	 SHORT $LN1@InternalRe
; Line 185
  00034	8b 55 fc	 mov	 edx, DWORD PTR _this$[ebp]
  00037	c7 02 00 00 00
	00		 mov	 DWORD PTR [edx], 0
; Line 186
  0003d	8b 45 f4	 mov	 eax, DWORD PTR _temp$[ebp]
  00040	8b 08		 mov	 ecx, DWORD PTR [eax]
  00042	8b f4		 mov	 esi, esp
  00044	8b 55 f4	 mov	 edx, DWORD PTR _temp$[ebp]
  00047	52		 push	 edx
  00048	8b 41 08	 mov	 eax, DWORD PTR [ecx+8]
  0004b	ff d0		 call	 eax
  0004d	3b f4		 cmp	 esi, esp
  0004f	e8 00 00 00 00	 call	 __RTC_CheckEsp
  00054	89 45 f8	 mov	 DWORD PTR _ref$[ebp], eax
$LN1@InternalRe:
; Line 189
  00057	8b 45 f8	 mov	 eax, DWORD PTR _ref$[ebp]
; Line 190
  0005a	5e		 pop	 esi
  0005b	83 c4 0c	 add	 esp, 12			; 0000000cH
  0005e	3b ec		 cmp	 ebp, esp
  00060	e8 00 00 00 00	 call	 __RTC_CheckEsp
  00065	8b e5		 mov	 esp, ebp
  00067	5d		 pop	 ebp
  00068	c3		 ret	 0
?InternalRelease@?$ComPtr@UID3D11Texture2D@@@WRL@Microsoft@@IAEKXZ ENDP ; Microsoft::WRL::ComPtr<ID3D11Texture2D>::InternalRelease
_TEXT	ENDS
; Function compile flags: /Odtp /RTCsu
;	COMDAT ?InternalAddRef@?$ComPtr@UID3D11Texture2D@@@WRL@Microsoft@@IBEXXZ
_TEXT	SEGMENT
_this$ = -4						; size = 4
?InternalAddRef@?$ComPtr@UID3D11Texture2D@@@WRL@Microsoft@@IBEXXZ PROC ; Microsoft::WRL::ComPtr<ID3D11Texture2D>::InternalAddRef, COMDAT
; _this$ = ecx
; File c:\program files (x86)\windows kits\8.1\include\winrt\wrl\client.h
; Line 171
  00000	55		 push	 ebp
  00001	8b ec		 mov	 ebp, esp
  00003	51		 push	 ecx
  00004	56		 push	 esi
  00005	c7 45 fc cc cc
	cc cc		 mov	 DWORD PTR [ebp-4], -858993460 ; ccccccccH
  0000c	89 4d fc	 mov	 DWORD PTR _this$[ebp], ecx
; Line 172
  0000f	8b 45 fc	 mov	 eax, DWORD PTR _this$[ebp]
  00012	83 38 00	 cmp	 DWORD PTR [eax], 0
  00015	74 1b		 je	 SHORT $LN2@InternalAd
; Line 174
  00017	8b 4d fc	 mov	 ecx, DWORD PTR _this$[ebp]
  0001a	8b 11		 mov	 edx, DWORD PTR [ecx]
  0001c	8b 45 fc	 mov	 eax, DWORD PTR _this$[ebp]
  0001f	8b 08		 mov	 ecx, DWORD PTR [eax]
  00021	8b 12		 mov	 edx, DWORD PTR [edx]
  00023	8b f4		 mov	 esi, esp
  00025	51		 push	 ecx
  00026	8b 42 04	 mov	 eax, DWORD PTR [edx+4]
  00029	ff d0		 call	 eax
  0002b	3b f4		 cmp	 esi, esp
  0002d	e8 00 00 00 00	 call	 __RTC_CheckEsp
$LN2@InternalAd:
; Line 176
  00032	5e		 pop	 esi
  00033	83 c4 04	 add	 esp, 4
  00036	3b ec		 cmp	 ebp, esp
  00038	e8 00 00 00 00	 call	 __RTC_CheckEsp
  0003d	8b e5		 mov	 esp, ebp
  0003f	5d		 pop	 ebp
  00040	c3		 ret	 0
?InternalAddRef@?$ComPtr@UID3D11Texture2D@@@WRL@Microsoft@@IBEXXZ ENDP ; Microsoft::WRL::ComPtr<ID3D11Texture2D>::InternalAddRef
_TEXT	ENDS
; Function compile flags: /Odtp /RTCsu
_TEXT	SEGMENT
tv297 = -140						; size = 4
tv243 = -136						; size = 4
tv196 = -132						; size = 4
tv169 = -128						; size = 4
tv135 = -124						; size = 4
$T2 = -120						; size = 4
$T3 = -116						; size = 4
$T4 = -112						; size = 4
$T5 = -108						; size = 4
$T6 = -104						; size = 4
$T7 = -100						; size = 4
$T8 = -96						; size = 4
_index$9 = -92						; size = 4
_level$10 = -88						; size = 4
_item$11 = -84						; size = 4
_support$12 = -76					; size = 4
_fmt$13 = -68						; size = 4
_pTemp$14 = -60						; size = 4
_d3dDevice$ = -48					; size = 4
_hr$ = -40						; size = 4
_pTexture$ = -32					; size = 4
_resType$ = -20						; size = 4
__$EHRec$ = -12						; size = 12
_pContext$ = 8						; size = 4
_pSource$ = 12						; size = 4
_desc$ = 16						; size = 4
_pStaging$ = 20						; size = 4
?CaptureTexture@@YAJPAUID3D11DeviceContext@@PAUID3D11Resource@@AAUD3D11_TEXTURE2D_DESC@@AAV?$ComPtr@UID3D11Texture2D@@@WRL@Microsoft@@@Z PROC ; CaptureTexture
; File d:\engine class\assignment 1\new scratch\dxut\core\screengrab.cpp
; Line 575
  00000	55		 push	 ebp
  00001	8b ec		 mov	 ebp, esp
  00003	6a ff		 push	 -1
  00005	68 00 00 00 00	 push	 __ehhandler$?CaptureTexture@@YAJPAUID3D11DeviceContext@@PAUID3D11Resource@@AAUD3D11_TEXTURE2D_DESC@@AAV?$ComPtr@UID3D11Texture2D@@@WRL@Microsoft@@@Z
  0000a	64 a1 00 00 00
	00		 mov	 eax, DWORD PTR fs:0
  00010	50		 push	 eax
  00011	81 ec 80 00 00
	00		 sub	 esp, 128		; 00000080H
  00017	56		 push	 esi
  00018	57		 push	 edi
  00019	8d bd 74 ff ff
	ff		 lea	 edi, DWORD PTR [ebp-140]
  0001f	b9 20 00 00 00	 mov	 ecx, 32			; 00000020H
  00024	b8 cc cc cc cc	 mov	 eax, -858993460		; ccccccccH
  00029	f3 ab		 rep stosd
  0002b	a1 00 00 00 00	 mov	 eax, DWORD PTR ___security_cookie
  00030	33 c5		 xor	 eax, ebp
  00032	50		 push	 eax
  00033	8d 45 f4	 lea	 eax, DWORD PTR __$EHRec$[ebp]
  00036	64 a3 00 00 00
	00		 mov	 DWORD PTR fs:0, eax
; Line 576
  0003c	83 7d 08 00	 cmp	 DWORD PTR _pContext$[ebp], 0
  00040	74 06		 je	 SHORT $LN18@CaptureTex
  00042	83 7d 0c 00	 cmp	 DWORD PTR _pSource$[ebp], 0
  00046	75 0a		 jne	 SHORT $LN19@CaptureTex
$LN18@CaptureTex:
; Line 577
  00048	b8 57 00 07 80	 mov	 eax, -2147024809	; 80070057H
  0004d	e9 7a 05 00 00	 jmp	 $LN20@CaptureTex
$LN19@CaptureTex:
; Line 579
  00052	c7 45 ec 00 00
	00 00		 mov	 DWORD PTR _resType$[ebp], 0
; Line 580
  00059	8b f4		 mov	 esi, esp
  0005b	8d 45 ec	 lea	 eax, DWORD PTR _resType$[ebp]
  0005e	50		 push	 eax
  0005f	8b 4d 0c	 mov	 ecx, DWORD PTR _pSource$[ebp]
  00062	8b 11		 mov	 edx, DWORD PTR [ecx]
  00064	8b 45 0c	 mov	 eax, DWORD PTR _pSource$[ebp]
  00067	50		 push	 eax
  00068	8b 4a 1c	 mov	 ecx, DWORD PTR [edx+28]
  0006b	ff d1		 call	 ecx
  0006d	3b f4		 cmp	 esi, esp
  0006f	e8 00 00 00 00	 call	 __RTC_CheckEsp
; Line 582
  00074	83 7d ec 03	 cmp	 DWORD PTR _resType$[ebp], 3
  00078	74 0f		 je	 SHORT $LN17@CaptureTex
; Line 583
  0007a	6a 32		 push	 50			; 00000032H
  0007c	e8 00 00 00 00	 call	 _HRESULT_FROM_WIN32
  00081	83 c4 04	 add	 esp, 4
  00084	e9 43 05 00 00	 jmp	 $LN20@CaptureTex
$LN17@CaptureTex:
; Line 585
  00089	8d 4d e0	 lea	 ecx, DWORD PTR _pTexture$[ebp]
  0008c	e8 00 00 00 00	 call	 ??0?$ComPtr@UID3D11Texture2D@@@WRL@Microsoft@@QAE@XZ ; Microsoft::WRL::ComPtr<ID3D11Texture2D>::ComPtr<ID3D11Texture2D>
  00091	c7 45 fc 00 00
	00 00		 mov	 DWORD PTR __$EHRec$[ebp+8], 0
; Line 586
  00098	8d 4d e0	 lea	 ecx, DWORD PTR _pTexture$[ebp]
  0009b	e8 00 00 00 00	 call	 ?GetAddressOf@?$ComPtr@UID3D11Texture2D@@@WRL@Microsoft@@QAEPAPAUID3D11Texture2D@@XZ ; Microsoft::WRL::ComPtr<ID3D11Texture2D>::GetAddressOf
  000a0	8b f4		 mov	 esi, esp
  000a2	50		 push	 eax
  000a3	68 00 00 00 00	 push	 OFFSET __GUID_6f15aaf2_d208_4e89_9ab4_489535d34f9c
  000a8	8b 55 0c	 mov	 edx, DWORD PTR _pSource$[ebp]
  000ab	8b 02		 mov	 eax, DWORD PTR [edx]
  000ad	8b 4d 0c	 mov	 ecx, DWORD PTR _pSource$[ebp]
  000b0	51		 push	 ecx
  000b1	8b 10		 mov	 edx, DWORD PTR [eax]
  000b3	ff d2		 call	 edx
  000b5	3b f4		 cmp	 esi, esp
  000b7	e8 00 00 00 00	 call	 __RTC_CheckEsp
  000bc	89 45 d8	 mov	 DWORD PTR _hr$[ebp], eax
; Line 587
  000bf	83 7d d8 00	 cmp	 DWORD PTR _hr$[ebp], 0
  000c3	7d 1d		 jge	 SHORT $LN16@CaptureTex
; Line 588
  000c5	8b 45 d8	 mov	 eax, DWORD PTR _hr$[ebp]
  000c8	89 45 a0	 mov	 DWORD PTR $T8[ebp], eax
  000cb	c7 45 fc ff ff
	ff ff		 mov	 DWORD PTR __$EHRec$[ebp+8], -1
  000d2	8d 4d e0	 lea	 ecx, DWORD PTR _pTexture$[ebp]
  000d5	e8 00 00 00 00	 call	 ??1?$ComPtr@UID3D11Texture2D@@@WRL@Microsoft@@QAE@XZ ; Microsoft::WRL::ComPtr<ID3D11Texture2D>::~ComPtr<ID3D11Texture2D>
  000da	8b 45 a0	 mov	 eax, DWORD PTR $T8[ebp]
  000dd	e9 ea 04 00 00	 jmp	 $LN20@CaptureTex
$LN16@CaptureTex:
; Line 590
  000e2	8d 4d e0	 lea	 ecx, DWORD PTR _pTexture$[ebp]
  000e5	e8 00 00 00 00	 call	 ??B?$ComPtr@UID3D11Texture2D@@@WRL@Microsoft@@QBEPQBoolStruct@Details@12@HXZ ; Microsoft::WRL::ComPtr<ID3D11Texture2D>::operator int Microsoft::WRL::Details::BoolStruct::*
  000ea	83 f8 ff	 cmp	 eax, -1
  000ed	75 21		 jne	 SHORT $LN22@CaptureTex
  000ef	8b f4		 mov	 esi, esp
  000f1	68 4e 02 00 00	 push	 590			; 0000024eH
  000f6	68 00 00 00 00	 push	 OFFSET $SG158859
  000fb	68 00 00 00 00	 push	 OFFSET $SG158860
  00100	ff 15 00 00 00
	00		 call	 DWORD PTR __imp___wassert
  00106	83 c4 0c	 add	 esp, 12			; 0000000cH
  00109	3b f4		 cmp	 esi, esp
  0010b	e8 00 00 00 00	 call	 __RTC_CheckEsp
$LN22@CaptureTex:
; Line 592
  00110	8d 4d e0	 lea	 ecx, DWORD PTR _pTexture$[ebp]
  00113	e8 00 00 00 00	 call	 ??C?$ComPtr@UID3D11Texture2D@@@WRL@Microsoft@@QBEPAV?$RemoveIUnknownBase@UID3D11Texture2D@@@Details@12@XZ ; Microsoft::WRL::ComPtr<ID3D11Texture2D>::operator->
  00118	89 45 84	 mov	 DWORD PTR tv135[ebp], eax
  0011b	8b f4		 mov	 esi, esp
  0011d	8b 55 10	 mov	 edx, DWORD PTR _desc$[ebp]
  00120	52		 push	 edx
  00121	8b 45 84	 mov	 eax, DWORD PTR tv135[ebp]
  00124	50		 push	 eax
  00125	8b 4d 84	 mov	 ecx, DWORD PTR tv135[ebp]
  00128	8b 11		 mov	 edx, DWORD PTR [ecx]
  0012a	8b 42 28	 mov	 eax, DWORD PTR [edx+40]
  0012d	ff d0		 call	 eax
  0012f	3b f4		 cmp	 esi, esp
  00131	e8 00 00 00 00	 call	 __RTC_CheckEsp
; Line 594
  00136	8d 4d d0	 lea	 ecx, DWORD PTR _d3dDevice$[ebp]
  00139	e8 00 00 00 00	 call	 ??0?$ComPtr@UID3D11Device@@@WRL@Microsoft@@QAE@XZ ; Microsoft::WRL::ComPtr<ID3D11Device>::ComPtr<ID3D11Device>
  0013e	c6 45 fc 01	 mov	 BYTE PTR __$EHRec$[ebp+8], 1
; Line 595
  00142	8d 4d d0	 lea	 ecx, DWORD PTR _d3dDevice$[ebp]
  00145	e8 00 00 00 00	 call	 ?GetAddressOf@?$ComPtr@UID3D11Device@@@WRL@Microsoft@@QAEPAPAUID3D11Device@@XZ ; Microsoft::WRL::ComPtr<ID3D11Device>::GetAddressOf
  0014a	8b f4		 mov	 esi, esp
  0014c	50		 push	 eax
  0014d	8b 4d 08	 mov	 ecx, DWORD PTR _pContext$[ebp]
  00150	8b 11		 mov	 edx, DWORD PTR [ecx]
  00152	8b 45 08	 mov	 eax, DWORD PTR _pContext$[ebp]
  00155	50		 push	 eax
  00156	8b 4a 0c	 mov	 ecx, DWORD PTR [edx+12]
  00159	ff d1		 call	 ecx
  0015b	3b f4		 cmp	 esi, esp
  0015d	e8 00 00 00 00	 call	 __RTC_CheckEsp
; Line 597
  00162	8b 55 10	 mov	 edx, DWORD PTR _desc$[ebp]
  00165	83 7a 14 01	 cmp	 DWORD PTR [edx+20], 1
  00169	0f 86 25 03 00
	00		 jbe	 $LN15@CaptureTex
; Line 600
  0016f	8b 45 10	 mov	 eax, DWORD PTR _desc$[ebp]
  00172	c7 40 14 01 00
	00 00		 mov	 DWORD PTR [eax+20], 1
; Line 601
  00179	8b 4d 10	 mov	 ecx, DWORD PTR _desc$[ebp]
  0017c	c7 41 18 00 00
	00 00		 mov	 DWORD PTR [ecx+24], 0
; Line 603
  00183	8d 4d c4	 lea	 ecx, DWORD PTR _pTemp$14[ebp]
  00186	e8 00 00 00 00	 call	 ??0?$ComPtr@UID3D11Texture2D@@@WRL@Microsoft@@QAE@XZ ; Microsoft::WRL::ComPtr<ID3D11Texture2D>::ComPtr<ID3D11Texture2D>
  0018b	c6 45 fc 02	 mov	 BYTE PTR __$EHRec$[ebp+8], 2
; Line 604
  0018f	8d 4d d0	 lea	 ecx, DWORD PTR _d3dDevice$[ebp]
  00192	e8 00 00 00 00	 call	 ??C?$ComPtr@UID3D11Device@@@WRL@Microsoft@@QBEPAV?$RemoveIUnknownBase@UID3D11Device@@@Details@12@XZ ; Microsoft::WRL::ComPtr<ID3D11Device>::operator->
  00197	89 45 80	 mov	 DWORD PTR tv169[ebp], eax
  0019a	8d 4d c4	 lea	 ecx, DWORD PTR _pTemp$14[ebp]
  0019d	e8 00 00 00 00	 call	 ?GetAddressOf@?$ComPtr@UID3D11Texture2D@@@WRL@Microsoft@@QAEPAPAUID3D11Texture2D@@XZ ; Microsoft::WRL::ComPtr<ID3D11Texture2D>::GetAddressOf
  001a2	8b f4		 mov	 esi, esp
  001a4	50		 push	 eax
  001a5	6a 00		 push	 0
  001a7	8b 55 10	 mov	 edx, DWORD PTR _desc$[ebp]
  001aa	52		 push	 edx
  001ab	8b 45 80	 mov	 eax, DWORD PTR tv169[ebp]
  001ae	50		 push	 eax
  001af	8b 4d 80	 mov	 ecx, DWORD PTR tv169[ebp]
  001b2	8b 11		 mov	 edx, DWORD PTR [ecx]
  001b4	8b 42 14	 mov	 eax, DWORD PTR [edx+20]
  001b7	ff d0		 call	 eax
  001b9	3b f4		 cmp	 esi, esp
  001bb	e8 00 00 00 00	 call	 __RTC_CheckEsp
  001c0	89 45 d8	 mov	 DWORD PTR _hr$[ebp], eax
; Line 605
  001c3	83 7d d8 00	 cmp	 DWORD PTR _hr$[ebp], 0
  001c7	7d 35		 jge	 SHORT $LN14@CaptureTex
; Line 606
  001c9	8b 4d d8	 mov	 ecx, DWORD PTR _hr$[ebp]
  001cc	89 4d 9c	 mov	 DWORD PTR $T7[ebp], ecx
  001cf	c6 45 fc 01	 mov	 BYTE PTR __$EHRec$[ebp+8], 1
  001d3	8d 4d c4	 lea	 ecx, DWORD PTR _pTemp$14[ebp]
  001d6	e8 00 00 00 00	 call	 ??1?$ComPtr@UID3D11Texture2D@@@WRL@Microsoft@@QAE@XZ ; Microsoft::WRL::ComPtr<ID3D11Texture2D>::~ComPtr<ID3D11Texture2D>
  001db	c6 45 fc 00	 mov	 BYTE PTR __$EHRec$[ebp+8], 0
  001df	8d 4d d0	 lea	 ecx, DWORD PTR _d3dDevice$[ebp]
  001e2	e8 00 00 00 00	 call	 ??1?$ComPtr@UID3D11Device@@@WRL@Microsoft@@QAE@XZ ; Microsoft::WRL::ComPtr<ID3D11Device>::~ComPtr<ID3D11Device>
  001e7	c7 45 fc ff ff
	ff ff		 mov	 DWORD PTR __$EHRec$[ebp+8], -1
  001ee	8d 4d e0	 lea	 ecx, DWORD PTR _pTexture$[ebp]
  001f1	e8 00 00 00 00	 call	 ??1?$ComPtr@UID3D11Texture2D@@@WRL@Microsoft@@QAE@XZ ; Microsoft::WRL::ComPtr<ID3D11Texture2D>::~ComPtr<ID3D11Texture2D>
  001f6	8b 45 9c	 mov	 eax, DWORD PTR $T7[ebp]
  001f9	e9 ce 03 00 00	 jmp	 $LN20@CaptureTex
$LN14@CaptureTex:
; Line 608
  001fe	8d 4d c4	 lea	 ecx, DWORD PTR _pTemp$14[ebp]
  00201	e8 00 00 00 00	 call	 ??B?$ComPtr@UID3D11Texture2D@@@WRL@Microsoft@@QBEPQBoolStruct@Details@12@HXZ ; Microsoft::WRL::ComPtr<ID3D11Texture2D>::operator int Microsoft::WRL::Details::BoolStruct::*
  00206	83 f8 ff	 cmp	 eax, -1
  00209	75 21		 jne	 SHORT $LN23@CaptureTex
  0020b	8b f4		 mov	 esi, esp
  0020d	68 60 02 00 00	 push	 608			; 00000260H
  00212	68 00 00 00 00	 push	 OFFSET $SG159002
  00217	68 00 00 00 00	 push	 OFFSET $SG159003
  0021c	ff 15 00 00 00
	00		 call	 DWORD PTR __imp___wassert
  00222	83 c4 0c	 add	 esp, 12			; 0000000cH
  00225	3b f4		 cmp	 esi, esp
  00227	e8 00 00 00 00	 call	 __RTC_CheckEsp
$LN23@CaptureTex:
; Line 610
  0022c	8b 45 10	 mov	 eax, DWORD PTR _desc$[ebp]
  0022f	8b 48 10	 mov	 ecx, DWORD PTR [eax+16]
  00232	51		 push	 ecx
  00233	e8 00 00 00 00	 call	 ?EnsureNotTypeless@@YA?AW4DXGI_FORMAT@@W41@@Z ; EnsureNotTypeless
  00238	83 c4 04	 add	 esp, 4
  0023b	89 45 bc	 mov	 DWORD PTR _fmt$13[ebp], eax
; Line 612
  0023e	c7 45 b4 00 00
	00 00		 mov	 DWORD PTR _support$12[ebp], 0
; Line 613
  00245	8d 4d d0	 lea	 ecx, DWORD PTR _d3dDevice$[ebp]
  00248	e8 00 00 00 00	 call	 ??C?$ComPtr@UID3D11Device@@@WRL@Microsoft@@QBEPAV?$RemoveIUnknownBase@UID3D11Device@@@Details@12@XZ ; Microsoft::WRL::ComPtr<ID3D11Device>::operator->
  0024d	89 85 7c ff ff
	ff		 mov	 DWORD PTR tv196[ebp], eax
  00253	8b f4		 mov	 esi, esp
  00255	8d 55 b4	 lea	 edx, DWORD PTR _support$12[ebp]
  00258	52		 push	 edx
  00259	8b 45 bc	 mov	 eax, DWORD PTR _fmt$13[ebp]
  0025c	50		 push	 eax
  0025d	8b 8d 7c ff ff
	ff		 mov	 ecx, DWORD PTR tv196[ebp]
  00263	51		 push	 ecx
  00264	8b 95 7c ff ff
	ff		 mov	 edx, DWORD PTR tv196[ebp]
  0026a	8b 02		 mov	 eax, DWORD PTR [edx]
  0026c	8b 48 74	 mov	 ecx, DWORD PTR [eax+116]
  0026f	ff d1		 call	 ecx
  00271	3b f4		 cmp	 esi, esp
  00273	e8 00 00 00 00	 call	 __RTC_CheckEsp
  00278	89 45 d8	 mov	 DWORD PTR _hr$[ebp], eax
; Line 614
  0027b	83 7d d8 00	 cmp	 DWORD PTR _hr$[ebp], 0
  0027f	7d 35		 jge	 SHORT $LN13@CaptureTex
; Line 615
  00281	8b 55 d8	 mov	 edx, DWORD PTR _hr$[ebp]
  00284	89 55 98	 mov	 DWORD PTR $T6[ebp], edx
  00287	c6 45 fc 01	 mov	 BYTE PTR __$EHRec$[ebp+8], 1
  0028b	8d 4d c4	 lea	 ecx, DWORD PTR _pTemp$14[ebp]
  0028e	e8 00 00 00 00	 call	 ??1?$ComPtr@UID3D11Texture2D@@@WRL@Microsoft@@QAE@XZ ; Microsoft::WRL::ComPtr<ID3D11Texture2D>::~ComPtr<ID3D11Texture2D>
  00293	c6 45 fc 00	 mov	 BYTE PTR __$EHRec$[ebp+8], 0
  00297	8d 4d d0	 lea	 ecx, DWORD PTR _d3dDevice$[ebp]
  0029a	e8 00 00 00 00	 call	 ??1?$ComPtr@UID3D11Device@@@WRL@Microsoft@@QAE@XZ ; Microsoft::WRL::ComPtr<ID3D11Device>::~ComPtr<ID3D11Device>
  0029f	c7 45 fc ff ff
	ff ff		 mov	 DWORD PTR __$EHRec$[ebp+8], -1
  002a6	8d 4d e0	 lea	 ecx, DWORD PTR _pTexture$[ebp]
  002a9	e8 00 00 00 00	 call	 ??1?$ComPtr@UID3D11Texture2D@@@WRL@Microsoft@@QAE@XZ ; Microsoft::WRL::ComPtr<ID3D11Texture2D>::~ComPtr<ID3D11Texture2D>
  002ae	8b 45 98	 mov	 eax, DWORD PTR $T6[ebp]
  002b1	e9 16 03 00 00	 jmp	 $LN20@CaptureTex
$LN13@CaptureTex:
; Line 617
  002b6	8b 45 b4	 mov	 eax, DWORD PTR _support$12[ebp]
  002b9	25 00 00 04 00	 and	 eax, 262144		; 00040000H
  002be	75 36		 jne	 SHORT $LN12@CaptureTex
; Line 618
  002c0	c7 45 94 05 40
	00 80		 mov	 DWORD PTR $T5[ebp], -2147467259 ; 80004005H
  002c7	c6 45 fc 01	 mov	 BYTE PTR __$EHRec$[ebp+8], 1
  002cb	8d 4d c4	 lea	 ecx, DWORD PTR _pTemp$14[ebp]
  002ce	e8 00 00 00 00	 call	 ??1?$ComPtr@UID3D11Texture2D@@@WRL@Microsoft@@QAE@XZ ; Microsoft::WRL::ComPtr<ID3D11Texture2D>::~ComPtr<ID3D11Texture2D>
  002d3	c6 45 fc 00	 mov	 BYTE PTR __$EHRec$[ebp+8], 0
  002d7	8d 4d d0	 lea	 ecx, DWORD PTR _d3dDevice$[ebp]
  002da	e8 00 00 00 00	 call	 ??1?$ComPtr@UID3D11Device@@@WRL@Microsoft@@QAE@XZ ; Microsoft::WRL::ComPtr<ID3D11Device>::~ComPtr<ID3D11Device>
  002df	c7 45 fc ff ff
	ff ff		 mov	 DWORD PTR __$EHRec$[ebp+8], -1
  002e6	8d 4d e0	 lea	 ecx, DWORD PTR _pTexture$[ebp]
  002e9	e8 00 00 00 00	 call	 ??1?$ComPtr@UID3D11Texture2D@@@WRL@Microsoft@@QAE@XZ ; Microsoft::WRL::ComPtr<ID3D11Texture2D>::~ComPtr<ID3D11Texture2D>
  002ee	8b 45 94	 mov	 eax, DWORD PTR $T5[ebp]
  002f1	e9 d6 02 00 00	 jmp	 $LN20@CaptureTex
$LN12@CaptureTex:
; Line 620
  002f6	c7 45 ac 00 00
	00 00		 mov	 DWORD PTR _item$11[ebp], 0
  002fd	eb 09		 jmp	 SHORT $LN11@CaptureTex
$LN10@CaptureTex:
  002ff	8b 4d ac	 mov	 ecx, DWORD PTR _item$11[ebp]
  00302	83 c1 01	 add	 ecx, 1
  00305	89 4d ac	 mov	 DWORD PTR _item$11[ebp], ecx
$LN11@CaptureTex:
  00308	8b 55 10	 mov	 edx, DWORD PTR _desc$[ebp]
  0030b	8b 45 ac	 mov	 eax, DWORD PTR _item$11[ebp]
  0030e	3b 42 0c	 cmp	 eax, DWORD PTR [edx+12]
  00311	73 71		 jae	 SHORT $LN9@CaptureTex
; Line 622
  00313	c7 45 a8 00 00
	00 00		 mov	 DWORD PTR _level$10[ebp], 0
  0031a	eb 09		 jmp	 SHORT $LN8@CaptureTex
$LN7@CaptureTex:
  0031c	8b 4d a8	 mov	 ecx, DWORD PTR _level$10[ebp]
  0031f	83 c1 01	 add	 ecx, 1
  00322	89 4d a8	 mov	 DWORD PTR _level$10[ebp], ecx
$LN8@CaptureTex:
  00325	8b 55 10	 mov	 edx, DWORD PTR _desc$[ebp]
  00328	8b 45 a8	 mov	 eax, DWORD PTR _level$10[ebp]
  0032b	3b 42 08	 cmp	 eax, DWORD PTR [edx+8]
  0032e	73 4f		 jae	 SHORT $LN6@CaptureTex
; Line 624
  00330	8b 4d 10	 mov	 ecx, DWORD PTR _desc$[ebp]
  00333	8b 51 08	 mov	 edx, DWORD PTR [ecx+8]
  00336	52		 push	 edx
  00337	8b 45 ac	 mov	 eax, DWORD PTR _item$11[ebp]
  0033a	50		 push	 eax
  0033b	8b 4d a8	 mov	 ecx, DWORD PTR _level$10[ebp]
  0033e	51		 push	 ecx
  0033f	e8 00 00 00 00	 call	 ?D3D11CalcSubresource@@YAIIII@Z ; D3D11CalcSubresource
  00344	83 c4 0c	 add	 esp, 12			; 0000000cH
  00347	89 45 a4	 mov	 DWORD PTR _index$9[ebp], eax
; Line 625
  0034a	8b f4		 mov	 esi, esp
  0034c	8b 55 bc	 mov	 edx, DWORD PTR _fmt$13[ebp]
  0034f	52		 push	 edx
  00350	8b 45 a4	 mov	 eax, DWORD PTR _index$9[ebp]
  00353	50		 push	 eax
  00354	8b 4d 0c	 mov	 ecx, DWORD PTR _pSource$[ebp]
  00357	51		 push	 ecx
  00358	8b 55 a4	 mov	 edx, DWORD PTR _index$9[ebp]
  0035b	52		 push	 edx
  0035c	8d 4d c4	 lea	 ecx, DWORD PTR _pTemp$14[ebp]
  0035f	e8 00 00 00 00	 call	 ?Get@?$ComPtr@UID3D11Texture2D@@@WRL@Microsoft@@QBEPAUID3D11Texture2D@@XZ ; Microsoft::WRL::ComPtr<ID3D11Texture2D>::Get
  00364	50		 push	 eax
  00365	8b 45 08	 mov	 eax, DWORD PTR _pContext$[ebp]
  00368	8b 08		 mov	 ecx, DWORD PTR [eax]
  0036a	8b 55 08	 mov	 edx, DWORD PTR _pContext$[ebp]
  0036d	52		 push	 edx
  0036e	8b 81 e4 00 00
	00		 mov	 eax, DWORD PTR [ecx+228]
  00374	ff d0		 call	 eax
  00376	3b f4		 cmp	 esi, esp
  00378	e8 00 00 00 00	 call	 __RTC_CheckEsp
; Line 626
  0037d	eb 9d		 jmp	 SHORT $LN7@CaptureTex
$LN6@CaptureTex:
; Line 627
  0037f	e9 7b ff ff ff	 jmp	 $LN10@CaptureTex
$LN9@CaptureTex:
; Line 629
  00384	8b 4d 10	 mov	 ecx, DWORD PTR _desc$[ebp]
  00387	c7 41 20 00 00
	00 00		 mov	 DWORD PTR [ecx+32], 0
; Line 630
  0038e	8b 55 10	 mov	 edx, DWORD PTR _desc$[ebp]
  00391	8b 42 28	 mov	 eax, DWORD PTR [edx+40]
  00394	83 e0 04	 and	 eax, 4
  00397	8b 4d 10	 mov	 ecx, DWORD PTR _desc$[ebp]
  0039a	89 41 28	 mov	 DWORD PTR [ecx+40], eax
; Line 631
  0039d	8b 55 10	 mov	 edx, DWORD PTR _desc$[ebp]
  003a0	c7 42 24 00 00
	02 00		 mov	 DWORD PTR [edx+36], 131072 ; 00020000H
; Line 632
  003a7	8b 45 10	 mov	 eax, DWORD PTR _desc$[ebp]
  003aa	c7 40 1c 03 00
	00 00		 mov	 DWORD PTR [eax+28], 3
; Line 634
  003b1	8d 4d d0	 lea	 ecx, DWORD PTR _d3dDevice$[ebp]
  003b4	e8 00 00 00 00	 call	 ??C?$ComPtr@UID3D11Device@@@WRL@Microsoft@@QBEPAV?$RemoveIUnknownBase@UID3D11Device@@@Details@12@XZ ; Microsoft::WRL::ComPtr<ID3D11Device>::operator->
  003b9	89 85 78 ff ff
	ff		 mov	 DWORD PTR tv243[ebp], eax
  003bf	8b 4d 14	 mov	 ecx, DWORD PTR _pStaging$[ebp]
  003c2	e8 00 00 00 00	 call	 ?GetAddressOf@?$ComPtr@UID3D11Texture2D@@@WRL@Microsoft@@QAEPAPAUID3D11Texture2D@@XZ ; Microsoft::WRL::ComPtr<ID3D11Texture2D>::GetAddressOf
  003c7	8b f4		 mov	 esi, esp
  003c9	50		 push	 eax
  003ca	6a 00		 push	 0
  003cc	8b 4d 10	 mov	 ecx, DWORD PTR _desc$[ebp]
  003cf	51		 push	 ecx
  003d0	8b 95 78 ff ff
	ff		 mov	 edx, DWORD PTR tv243[ebp]
  003d6	52		 push	 edx
  003d7	8b 85 78 ff ff
	ff		 mov	 eax, DWORD PTR tv243[ebp]
  003dd	8b 08		 mov	 ecx, DWORD PTR [eax]
  003df	8b 51 14	 mov	 edx, DWORD PTR [ecx+20]
  003e2	ff d2		 call	 edx
  003e4	3b f4		 cmp	 esi, esp
  003e6	e8 00 00 00 00	 call	 __RTC_CheckEsp
  003eb	89 45 d8	 mov	 DWORD PTR _hr$[ebp], eax
; Line 635
  003ee	83 7d d8 00	 cmp	 DWORD PTR _hr$[ebp], 0
  003f2	7d 35		 jge	 SHORT $LN5@CaptureTex
; Line 636
  003f4	8b 45 d8	 mov	 eax, DWORD PTR _hr$[ebp]
  003f7	89 45 90	 mov	 DWORD PTR $T4[ebp], eax
  003fa	c6 45 fc 01	 mov	 BYTE PTR __$EHRec$[ebp+8], 1
  003fe	8d 4d c4	 lea	 ecx, DWORD PTR _pTemp$14[ebp]
  00401	e8 00 00 00 00	 call	 ??1?$ComPtr@UID3D11Texture2D@@@WRL@Microsoft@@QAE@XZ ; Microsoft::WRL::ComPtr<ID3D11Texture2D>::~ComPtr<ID3D11Texture2D>
  00406	c6 45 fc 00	 mov	 BYTE PTR __$EHRec$[ebp+8], 0
  0040a	8d 4d d0	 lea	 ecx, DWORD PTR _d3dDevice$[ebp]
  0040d	e8 00 00 00 00	 call	 ??1?$ComPtr@UID3D11Device@@@WRL@Microsoft@@QAE@XZ ; Microsoft::WRL::ComPtr<ID3D11Device>::~ComPtr<ID3D11Device>
  00412	c7 45 fc ff ff
	ff ff		 mov	 DWORD PTR __$EHRec$[ebp+8], -1
  00419	8d 4d e0	 lea	 ecx, DWORD PTR _pTexture$[ebp]
  0041c	e8 00 00 00 00	 call	 ??1?$ComPtr@UID3D11Texture2D@@@WRL@Microsoft@@QAE@XZ ; Microsoft::WRL::ComPtr<ID3D11Texture2D>::~ComPtr<ID3D11Texture2D>
  00421	8b 45 90	 mov	 eax, DWORD PTR $T4[ebp]
  00424	e9 a3 01 00 00	 jmp	 $LN20@CaptureTex
$LN5@CaptureTex:
; Line 638
  00429	8b 4d 14	 mov	 ecx, DWORD PTR _pStaging$[ebp]
  0042c	e8 00 00 00 00	 call	 ??B?$ComPtr@UID3D11Texture2D@@@WRL@Microsoft@@QBEPQBoolStruct@Details@12@HXZ ; Microsoft::WRL::ComPtr<ID3D11Texture2D>::operator int Microsoft::WRL::Details::BoolStruct::*
  00431	83 f8 ff	 cmp	 eax, -1
  00434	75 21		 jne	 SHORT $LN24@CaptureTex
  00436	8b f4		 mov	 esi, esp
  00438	68 7e 02 00 00	 push	 638			; 0000027eH
  0043d	68 00 00 00 00	 push	 OFFSET $SG159025
  00442	68 00 00 00 00	 push	 OFFSET $SG159026
  00447	ff 15 00 00 00
	00		 call	 DWORD PTR __imp___wassert
  0044d	83 c4 0c	 add	 esp, 12			; 0000000cH
  00450	3b f4		 cmp	 esi, esp
  00452	e8 00 00 00 00	 call	 __RTC_CheckEsp
$LN24@CaptureTex:
; Line 640
  00457	8d 4d c4	 lea	 ecx, DWORD PTR _pTemp$14[ebp]
  0045a	e8 00 00 00 00	 call	 ?Get@?$ComPtr@UID3D11Texture2D@@@WRL@Microsoft@@QBEPAUID3D11Texture2D@@XZ ; Microsoft::WRL::ComPtr<ID3D11Texture2D>::Get
  0045f	8b f4		 mov	 esi, esp
  00461	50		 push	 eax
  00462	8b 4d 14	 mov	 ecx, DWORD PTR _pStaging$[ebp]
  00465	e8 00 00 00 00	 call	 ?Get@?$ComPtr@UID3D11Texture2D@@@WRL@Microsoft@@QBEPAUID3D11Texture2D@@XZ ; Microsoft::WRL::ComPtr<ID3D11Texture2D>::Get
  0046a	50		 push	 eax
  0046b	8b 55 08	 mov	 edx, DWORD PTR _pContext$[ebp]
  0046e	8b 02		 mov	 eax, DWORD PTR [edx]
  00470	8b 4d 08	 mov	 ecx, DWORD PTR _pContext$[ebp]
  00473	51		 push	 ecx
  00474	8b 90 bc 00 00
	00		 mov	 edx, DWORD PTR [eax+188]
  0047a	ff d2		 call	 edx
  0047c	3b f4		 cmp	 esi, esp
  0047e	e8 00 00 00 00	 call	 __RTC_CheckEsp
; Line 641
  00483	c6 45 fc 01	 mov	 BYTE PTR __$EHRec$[ebp+8], 1
  00487	8d 4d c4	 lea	 ecx, DWORD PTR _pTemp$14[ebp]
  0048a	e8 00 00 00 00	 call	 ??1?$ComPtr@UID3D11Texture2D@@@WRL@Microsoft@@QAE@XZ ; Microsoft::WRL::ComPtr<ID3D11Texture2D>::~ComPtr<ID3D11Texture2D>
  0048f	e9 13 01 00 00	 jmp	 $LN4@CaptureTex
$LN15@CaptureTex:
; Line 642
  00494	8b 45 10	 mov	 eax, DWORD PTR _desc$[ebp]
  00497	83 78 1c 03	 cmp	 DWORD PTR [eax+28], 3
  0049b	75 1f		 jne	 SHORT $LN3@CaptureTex
  0049d	8b 4d 10	 mov	 ecx, DWORD PTR _desc$[ebp]
  004a0	8b 51 24	 mov	 edx, DWORD PTR [ecx+36]
  004a3	81 e2 00 00 02
	00		 and	 edx, 131072		; 00020000H
  004a9	74 11		 je	 SHORT $LN3@CaptureTex
; Line 645
  004ab	8d 45 e0	 lea	 eax, DWORD PTR _pTexture$[ebp]
  004ae	50		 push	 eax
  004af	8b 4d 14	 mov	 ecx, DWORD PTR _pStaging$[ebp]
  004b2	e8 00 00 00 00	 call	 ??4?$ComPtr@UID3D11Texture2D@@@WRL@Microsoft@@QAEAAV012@ABV012@@Z ; Microsoft::WRL::ComPtr<ID3D11Texture2D>::operator=
; Line 647
  004b7	e9 eb 00 00 00	 jmp	 $LN4@CaptureTex
$LN3@CaptureTex:
; Line 650
  004bc	8b 4d 10	 mov	 ecx, DWORD PTR _desc$[ebp]
  004bf	c7 41 20 00 00
	00 00		 mov	 DWORD PTR [ecx+32], 0
; Line 651
  004c6	8b 55 10	 mov	 edx, DWORD PTR _desc$[ebp]
  004c9	8b 42 28	 mov	 eax, DWORD PTR [edx+40]
  004cc	83 e0 04	 and	 eax, 4
  004cf	8b 4d 10	 mov	 ecx, DWORD PTR _desc$[ebp]
  004d2	89 41 28	 mov	 DWORD PTR [ecx+40], eax
; Line 652
  004d5	8b 55 10	 mov	 edx, DWORD PTR _desc$[ebp]
  004d8	c7 42 24 00 00
	02 00		 mov	 DWORD PTR [edx+36], 131072 ; 00020000H
; Line 653
  004df	8b 45 10	 mov	 eax, DWORD PTR _desc$[ebp]
  004e2	c7 40 1c 03 00
	00 00		 mov	 DWORD PTR [eax+28], 3
; Line 655
  004e9	8d 4d d0	 lea	 ecx, DWORD PTR _d3dDevice$[ebp]
  004ec	e8 00 00 00 00	 call	 ??C?$ComPtr@UID3D11Device@@@WRL@Microsoft@@QBEPAV?$RemoveIUnknownBase@UID3D11Device@@@Details@12@XZ ; Microsoft::WRL::ComPtr<ID3D11Device>::operator->
  004f1	89 85 74 ff ff
	ff		 mov	 DWORD PTR tv297[ebp], eax
  004f7	8b 4d 14	 mov	 ecx, DWORD PTR _pStaging$[ebp]
  004fa	e8 00 00 00 00	 call	 ?GetAddressOf@?$ComPtr@UID3D11Texture2D@@@WRL@Microsoft@@QAEPAPAUID3D11Texture2D@@XZ ; Microsoft::WRL::ComPtr<ID3D11Texture2D>::GetAddressOf
  004ff	8b f4		 mov	 esi, esp
  00501	50		 push	 eax
  00502	6a 00		 push	 0
  00504	8b 4d 10	 mov	 ecx, DWORD PTR _desc$[ebp]
  00507	51		 push	 ecx
  00508	8b 95 74 ff ff
	ff		 mov	 edx, DWORD PTR tv297[ebp]
  0050e	52		 push	 edx
  0050f	8b 85 74 ff ff
	ff		 mov	 eax, DWORD PTR tv297[ebp]
  00515	8b 08		 mov	 ecx, DWORD PTR [eax]
  00517	8b 51 14	 mov	 edx, DWORD PTR [ecx+20]
  0051a	ff d2		 call	 edx
  0051c	3b f4		 cmp	 esi, esp
  0051e	e8 00 00 00 00	 call	 __RTC_CheckEsp
  00523	89 45 d8	 mov	 DWORD PTR _hr$[ebp], eax
; Line 656
  00526	83 7d d8 00	 cmp	 DWORD PTR _hr$[ebp], 0
  0052a	7d 26		 jge	 SHORT $LN1@CaptureTex
; Line 657
  0052c	8b 45 d8	 mov	 eax, DWORD PTR _hr$[ebp]
  0052f	89 45 8c	 mov	 DWORD PTR $T3[ebp], eax
  00532	c6 45 fc 00	 mov	 BYTE PTR __$EHRec$[ebp+8], 0
  00536	8d 4d d0	 lea	 ecx, DWORD PTR _d3dDevice$[ebp]
  00539	e8 00 00 00 00	 call	 ??1?$ComPtr@UID3D11Device@@@WRL@Microsoft@@QAE@XZ ; Microsoft::WRL::ComPtr<ID3D11Device>::~ComPtr<ID3D11Device>
  0053e	c7 45 fc ff ff
	ff ff		 mov	 DWORD PTR __$EHRec$[ebp+8], -1
  00545	8d 4d e0	 lea	 ecx, DWORD PTR _pTexture$[ebp]
  00548	e8 00 00 00 00	 call	 ??1?$ComPtr@UID3D11Texture2D@@@WRL@Microsoft@@QAE@XZ ; Microsoft::WRL::ComPtr<ID3D11Texture2D>::~ComPtr<ID3D11Texture2D>
  0054d	8b 45 8c	 mov	 eax, DWORD PTR $T3[ebp]
  00550	eb 7a		 jmp	 SHORT $LN20@CaptureTex
$LN1@CaptureTex:
; Line 659
  00552	8b 4d 14	 mov	 ecx, DWORD PTR _pStaging$[ebp]
  00555	e8 00 00 00 00	 call	 ??B?$ComPtr@UID3D11Texture2D@@@WRL@Microsoft@@QBEPQBoolStruct@Details@12@HXZ ; Microsoft::WRL::ComPtr<ID3D11Texture2D>::operator int Microsoft::WRL::Details::BoolStruct::*
  0055a	83 f8 ff	 cmp	 eax, -1
  0055d	75 21		 jne	 SHORT $LN25@CaptureTex
  0055f	8b f4		 mov	 esi, esp
  00561	68 93 02 00 00	 push	 659			; 00000293H
  00566	68 00 00 00 00	 push	 OFFSET $SG159042
  0056b	68 00 00 00 00	 push	 OFFSET $SG159043
  00570	ff 15 00 00 00
	00		 call	 DWORD PTR __imp___wassert
  00576	83 c4 0c	 add	 esp, 12			; 0000000cH
  00579	3b f4		 cmp	 esi, esp
  0057b	e8 00 00 00 00	 call	 __RTC_CheckEsp
$LN25@CaptureTex:
; Line 661
  00580	8b f4		 mov	 esi, esp
  00582	8b 55 0c	 mov	 edx, DWORD PTR _pSource$[ebp]
  00585	52		 push	 edx
  00586	8b 4d 14	 mov	 ecx, DWORD PTR _pStaging$[ebp]
  00589	e8 00 00 00 00	 call	 ?Get@?$ComPtr@UID3D11Texture2D@@@WRL@Microsoft@@QBEPAUID3D11Texture2D@@XZ ; Microsoft::WRL::ComPtr<ID3D11Texture2D>::Get
  0058e	50		 push	 eax
  0058f	8b 45 08	 mov	 eax, DWORD PTR _pContext$[ebp]
  00592	8b 08		 mov	 ecx, DWORD PTR [eax]
  00594	8b 55 08	 mov	 edx, DWORD PTR _pContext$[ebp]
  00597	52		 push	 edx
  00598	8b 81 bc 00 00
	00		 mov	 eax, DWORD PTR [ecx+188]
  0059e	ff d0		 call	 eax
  005a0	3b f4		 cmp	 esi, esp
  005a2	e8 00 00 00 00	 call	 __RTC_CheckEsp
$LN4@CaptureTex:
; Line 664
  005a7	c7 45 88 00 00
	00 00		 mov	 DWORD PTR $T2[ebp], 0
  005ae	c6 45 fc 00	 mov	 BYTE PTR __$EHRec$[ebp+8], 0
  005b2	8d 4d d0	 lea	 ecx, DWORD PTR _d3dDevice$[ebp]
  005b5	e8 00 00 00 00	 call	 ??1?$ComPtr@UID3D11Device@@@WRL@Microsoft@@QAE@XZ ; Microsoft::WRL::ComPtr<ID3D11Device>::~ComPtr<ID3D11Device>
  005ba	c7 45 fc ff ff
	ff ff		 mov	 DWORD PTR __$EHRec$[ebp+8], -1
  005c1	8d 4d e0	 lea	 ecx, DWORD PTR _pTexture$[ebp]
  005c4	e8 00 00 00 00	 call	 ??1?$ComPtr@UID3D11Texture2D@@@WRL@Microsoft@@QAE@XZ ; Microsoft::WRL::ComPtr<ID3D11Texture2D>::~ComPtr<ID3D11Texture2D>
  005c9	8b 45 88	 mov	 eax, DWORD PTR $T2[ebp]
$LN20@CaptureTex:
; Line 665
  005cc	52		 push	 edx
  005cd	8b cd		 mov	 ecx, ebp
  005cf	50		 push	 eax
  005d0	8d 15 00 00 00
	00		 lea	 edx, DWORD PTR $LN36@CaptureTex
  005d6	e8 00 00 00 00	 call	 @_RTC_CheckStackVars@8
  005db	58		 pop	 eax
  005dc	5a		 pop	 edx
  005dd	8b 4d f4	 mov	 ecx, DWORD PTR __$EHRec$[ebp]
  005e0	64 89 0d 00 00
	00 00		 mov	 DWORD PTR fs:0, ecx
  005e7	59		 pop	 ecx
  005e8	5f		 pop	 edi
  005e9	5e		 pop	 esi
  005ea	81 c4 8c 00 00
	00		 add	 esp, 140		; 0000008cH
  005f0	3b ec		 cmp	 ebp, esp
  005f2	e8 00 00 00 00	 call	 __RTC_CheckEsp
  005f7	8b e5		 mov	 esp, ebp
  005f9	5d		 pop	 ebp
  005fa	c3		 ret	 0
  005fb	90		 npad	 1
$LN36@CaptureTex:
  005fc	05 00 00 00	 DD	 5
  00600	00 00 00 00	 DD	 $LN35@CaptureTex
$LN35@CaptureTex:
  00604	ec ff ff ff	 DD	 -20			; ffffffecH
  00608	04 00 00 00	 DD	 4
  0060c	00 00 00 00	 DD	 $LN29@CaptureTex
  00610	e0 ff ff ff	 DD	 -32			; ffffffe0H
  00614	04 00 00 00	 DD	 4
  00618	00 00 00 00	 DD	 $LN30@CaptureTex
  0061c	d0 ff ff ff	 DD	 -48			; ffffffd0H
  00620	04 00 00 00	 DD	 4
  00624	00 00 00 00	 DD	 $LN31@CaptureTex
  00628	c4 ff ff ff	 DD	 -60			; ffffffc4H
  0062c	04 00 00 00	 DD	 4
  00630	00 00 00 00	 DD	 $LN32@CaptureTex
  00634	b4 ff ff ff	 DD	 -76			; ffffffb4H
  00638	04 00 00 00	 DD	 4
  0063c	00 00 00 00	 DD	 $LN33@CaptureTex
$LN33@CaptureTex:
  00640	73		 DB	 115			; 00000073H
  00641	75		 DB	 117			; 00000075H
  00642	70		 DB	 112			; 00000070H
  00643	70		 DB	 112			; 00000070H
  00644	6f		 DB	 111			; 0000006fH
  00645	72		 DB	 114			; 00000072H
  00646	74		 DB	 116			; 00000074H
  00647	00		 DB	 0
$LN32@CaptureTex:
  00648	70		 DB	 112			; 00000070H
  00649	54		 DB	 84			; 00000054H
  0064a	65		 DB	 101			; 00000065H
  0064b	6d		 DB	 109			; 0000006dH
  0064c	70		 DB	 112			; 00000070H
  0064d	00		 DB	 0
$LN31@CaptureTex:
  0064e	64		 DB	 100			; 00000064H
  0064f	33		 DB	 51			; 00000033H
  00650	64		 DB	 100			; 00000064H
  00651	44		 DB	 68			; 00000044H
  00652	65		 DB	 101			; 00000065H
  00653	76		 DB	 118			; 00000076H
  00654	69		 DB	 105			; 00000069H
  00655	63		 DB	 99			; 00000063H
  00656	65		 DB	 101			; 00000065H
  00657	00		 DB	 0
$LN30@CaptureTex:
  00658	70		 DB	 112			; 00000070H
  00659	54		 DB	 84			; 00000054H
  0065a	65		 DB	 101			; 00000065H
  0065b	78		 DB	 120			; 00000078H
  0065c	74		 DB	 116			; 00000074H
  0065d	75		 DB	 117			; 00000075H
  0065e	72		 DB	 114			; 00000072H
  0065f	65		 DB	 101			; 00000065H
  00660	00		 DB	 0
$LN29@CaptureTex:
  00661	72		 DB	 114			; 00000072H
  00662	65		 DB	 101			; 00000065H
  00663	73		 DB	 115			; 00000073H
  00664	54		 DB	 84			; 00000054H
  00665	79		 DB	 121			; 00000079H
  00666	70		 DB	 112			; 00000070H
  00667	65		 DB	 101			; 00000065H
  00668	00		 DB	 0
_TEXT	ENDS
text$x	SEGMENT
__unwindfunclet$?CaptureTexture@@YAJPAUID3D11DeviceContext@@PAUID3D11Resource@@AAUD3D11_TEXTURE2D_DESC@@AAV?$ComPtr@UID3D11Texture2D@@@WRL@Microsoft@@@Z$0:
  00000	8d 4d e0	 lea	 ecx, DWORD PTR _pTexture$[ebp]
  00003	e9 00 00 00 00	 jmp	 ??1?$ComPtr@UID3D11Texture2D@@@WRL@Microsoft@@QAE@XZ ; Microsoft::WRL::ComPtr<ID3D11Texture2D>::~ComPtr<ID3D11Texture2D>
__unwindfunclet$?CaptureTexture@@YAJPAUID3D11DeviceContext@@PAUID3D11Resource@@AAUD3D11_TEXTURE2D_DESC@@AAV?$ComPtr@UID3D11Texture2D@@@WRL@Microsoft@@@Z$1:
  00008	8d 4d d0	 lea	 ecx, DWORD PTR _d3dDevice$[ebp]
  0000b	e9 00 00 00 00	 jmp	 ??1?$ComPtr@UID3D11Device@@@WRL@Microsoft@@QAE@XZ ; Microsoft::WRL::ComPtr<ID3D11Device>::~ComPtr<ID3D11Device>
__unwindfunclet$?CaptureTexture@@YAJPAUID3D11DeviceContext@@PAUID3D11Resource@@AAUD3D11_TEXTURE2D_DESC@@AAV?$ComPtr@UID3D11Texture2D@@@WRL@Microsoft@@@Z$2:
  00010	8d 4d c4	 lea	 ecx, DWORD PTR _pTemp$14[ebp]
  00013	e9 00 00 00 00	 jmp	 ??1?$ComPtr@UID3D11Texture2D@@@WRL@Microsoft@@QAE@XZ ; Microsoft::WRL::ComPtr<ID3D11Texture2D>::~ComPtr<ID3D11Texture2D>
__ehhandler$?CaptureTexture@@YAJPAUID3D11DeviceContext@@PAUID3D11Resource@@AAUD3D11_TEXTURE2D_DESC@@AAV?$ComPtr@UID3D11Texture2D@@@WRL@Microsoft@@@Z:
  00018	8b 54 24 08	 mov	 edx, DWORD PTR [esp+8]
  0001c	8d 42 0c	 lea	 eax, DWORD PTR [edx+12]
  0001f	8b 8a 74 ff ff
	ff		 mov	 ecx, DWORD PTR [edx-140]
  00025	33 c8		 xor	 ecx, eax
  00027	e8 00 00 00 00	 call	 @__security_check_cookie@4
  0002c	b8 00 00 00 00	 mov	 eax, OFFSET __ehfuncinfo$?CaptureTexture@@YAJPAUID3D11DeviceContext@@PAUID3D11Resource@@AAUD3D11_TEXTURE2D_DESC@@AAV?$ComPtr@UID3D11Texture2D@@@WRL@Microsoft@@@Z
  00031	e9 00 00 00 00	 jmp	 ___CxxFrameHandler3
text$x	ENDS
?CaptureTexture@@YAJPAUID3D11DeviceContext@@PAUID3D11Resource@@AAUD3D11_TEXTURE2D_DESC@@AAV?$ComPtr@UID3D11Texture2D@@@WRL@Microsoft@@@Z ENDP ; CaptureTexture
; Function compile flags: /Odtp /RTCsu
_TEXT	SEGMENT
tv64 = -4						; size = 4
_fmt$ = 8						; size = 4
?EnsureNotTypeless@@YA?AW4DXGI_FORMAT@@W41@@Z PROC	; EnsureNotTypeless
; File d:\engine class\assignment 1\new scratch\dxut\core\screengrab.cpp
; Line 542
  00000	55		 push	 ebp
  00001	8b ec		 mov	 ebp, esp
  00003	51		 push	 ecx
  00004	c7 45 fc cc cc
	cc cc		 mov	 DWORD PTR [ebp-4], -858993460 ; ccccccccH
; Line 544
  0000b	8b 45 08	 mov	 eax, DWORD PTR _fmt$[ebp]
  0000e	89 45 fc	 mov	 DWORD PTR tv64[ebp], eax
  00011	8b 4d fc	 mov	 ecx, DWORD PTR tv64[ebp]
  00014	83 e9 01	 sub	 ecx, 1
  00017	89 4d fc	 mov	 DWORD PTR tv64[ebp], ecx
  0001a	83 7d fc 60	 cmp	 DWORD PTR tv64[ebp], 96	; 00000060H
  0001e	0f 87 99 00 00
	00		 ja	 $LN1@EnsureNotT
  00024	8b 55 fc	 mov	 edx, DWORD PTR tv64[ebp]
  00027	0f b6 82 00 00
	00 00		 movzx	 eax, BYTE PTR $LN25@EnsureNotT[edx]
  0002e	ff 24 85 00 00
	00 00		 jmp	 DWORD PTR $LN26@EnsureNotT[eax*4]
$LN20@EnsureNotT:
; Line 546
  00035	b8 02 00 00 00	 mov	 eax, 2
  0003a	e9 81 00 00 00	 jmp	 $LN23@EnsureNotT
$LN19@EnsureNotT:
; Line 547
  0003f	b8 06 00 00 00	 mov	 eax, 6
  00044	eb 7a		 jmp	 SHORT $LN23@EnsureNotT
$LN18@EnsureNotT:
; Line 548
  00046	b8 0b 00 00 00	 mov	 eax, 11			; 0000000bH
  0004b	eb 73		 jmp	 SHORT $LN23@EnsureNotT
$LN17@EnsureNotT:
; Line 549
  0004d	b8 10 00 00 00	 mov	 eax, 16			; 00000010H
  00052	eb 6c		 jmp	 SHORT $LN23@EnsureNotT
$LN16@EnsureNotT:
; Line 550
  00054	b8 18 00 00 00	 mov	 eax, 24			; 00000018H
  00059	eb 65		 jmp	 SHORT $LN23@EnsureNotT
$LN15@EnsureNotT:
; Line 551
  0005b	b8 1c 00 00 00	 mov	 eax, 28			; 0000001cH
  00060	eb 5e		 jmp	 SHORT $LN23@EnsureNotT
$LN14@EnsureNotT:
; Line 552
  00062	b8 23 00 00 00	 mov	 eax, 35			; 00000023H
  00067	eb 57		 jmp	 SHORT $LN23@EnsureNotT
$LN13@EnsureNotT:
; Line 553
  00069	b8 29 00 00 00	 mov	 eax, 41			; 00000029H
  0006e	eb 50		 jmp	 SHORT $LN23@EnsureNotT
$LN12@EnsureNotT:
; Line 554
  00070	b8 31 00 00 00	 mov	 eax, 49			; 00000031H
  00075	eb 49		 jmp	 SHORT $LN23@EnsureNotT
$LN11@EnsureNotT:
; Line 555
  00077	b8 38 00 00 00	 mov	 eax, 56			; 00000038H
  0007c	eb 42		 jmp	 SHORT $LN23@EnsureNotT
$LN10@EnsureNotT:
; Line 556
  0007e	b8 3d 00 00 00	 mov	 eax, 61			; 0000003dH
  00083	eb 3b		 jmp	 SHORT $LN23@EnsureNotT
$LN9@EnsureNotT:
; Line 557
  00085	b8 47 00 00 00	 mov	 eax, 71			; 00000047H
  0008a	eb 34		 jmp	 SHORT $LN23@EnsureNotT
$LN8@EnsureNotT:
; Line 558
  0008c	b8 4a 00 00 00	 mov	 eax, 74			; 0000004aH
  00091	eb 2d		 jmp	 SHORT $LN23@EnsureNotT
$LN7@EnsureNotT:
; Line 559
  00093	b8 4d 00 00 00	 mov	 eax, 77			; 0000004dH
  00098	eb 26		 jmp	 SHORT $LN23@EnsureNotT
$LN6@EnsureNotT:
; Line 560
  0009a	b8 50 00 00 00	 mov	 eax, 80			; 00000050H
  0009f	eb 1f		 jmp	 SHORT $LN23@EnsureNotT
$LN5@EnsureNotT:
; Line 561
  000a1	b8 53 00 00 00	 mov	 eax, 83			; 00000053H
  000a6	eb 18		 jmp	 SHORT $LN23@EnsureNotT
$LN4@EnsureNotT:
; Line 562
  000a8	b8 57 00 00 00	 mov	 eax, 87			; 00000057H
  000ad	eb 11		 jmp	 SHORT $LN23@EnsureNotT
$LN3@EnsureNotT:
; Line 563
  000af	b8 58 00 00 00	 mov	 eax, 88			; 00000058H
  000b4	eb 0a		 jmp	 SHORT $LN23@EnsureNotT
$LN2@EnsureNotT:
; Line 564
  000b6	b8 62 00 00 00	 mov	 eax, 98			; 00000062H
  000bb	eb 03		 jmp	 SHORT $LN23@EnsureNotT
$LN1@EnsureNotT:
; Line 565
  000bd	8b 45 08	 mov	 eax, DWORD PTR _fmt$[ebp]
$LN23@EnsureNotT:
; Line 567
  000c0	8b e5		 mov	 esp, ebp
  000c2	5d		 pop	 ebp
  000c3	c3		 ret	 0
$LN26@EnsureNotT:
  000c4	00 00 00 00	 DD	 $LN20@EnsureNotT
  000c8	00 00 00 00	 DD	 $LN19@EnsureNotT
  000cc	00 00 00 00	 DD	 $LN18@EnsureNotT
  000d0	00 00 00 00	 DD	 $LN17@EnsureNotT
  000d4	00 00 00 00	 DD	 $LN16@EnsureNotT
  000d8	00 00 00 00	 DD	 $LN15@EnsureNotT
  000dc	00 00 00 00	 DD	 $LN14@EnsureNotT
  000e0	00 00 00 00	 DD	 $LN13@EnsureNotT
  000e4	00 00 00 00	 DD	 $LN12@EnsureNotT
  000e8	00 00 00 00	 DD	 $LN11@EnsureNotT
  000ec	00 00 00 00	 DD	 $LN10@EnsureNotT
  000f0	00 00 00 00	 DD	 $LN9@EnsureNotT
  000f4	00 00 00 00	 DD	 $LN8@EnsureNotT
  000f8	00 00 00 00	 DD	 $LN7@EnsureNotT
  000fc	00 00 00 00	 DD	 $LN6@EnsureNotT
  00100	00 00 00 00	 DD	 $LN5@EnsureNotT
  00104	00 00 00 00	 DD	 $LN4@EnsureNotT
  00108	00 00 00 00	 DD	 $LN3@EnsureNotT
  0010c	00 00 00 00	 DD	 $LN2@EnsureNotT
  00110	00 00 00 00	 DD	 $LN1@EnsureNotT
$LN25@EnsureNotT:
  00114	00		 DB	 0
  00115	13		 DB	 19			; 00000013H
  00116	13		 DB	 19			; 00000013H
  00117	13		 DB	 19			; 00000013H
  00118	01		 DB	 1
  00119	13		 DB	 19			; 00000013H
  0011a	13		 DB	 19			; 00000013H
  0011b	13		 DB	 19			; 00000013H
  0011c	02		 DB	 2
  0011d	13		 DB	 19			; 00000013H
  0011e	13		 DB	 19			; 00000013H
  0011f	13		 DB	 19			; 00000013H
  00120	13		 DB	 19			; 00000013H
  00121	13		 DB	 19			; 00000013H
  00122	03		 DB	 3
  00123	13		 DB	 19			; 00000013H
  00124	13		 DB	 19			; 00000013H
  00125	13		 DB	 19			; 00000013H
  00126	13		 DB	 19			; 00000013H
  00127	13		 DB	 19			; 00000013H
  00128	13		 DB	 19			; 00000013H
  00129	13		 DB	 19			; 00000013H
  0012a	04		 DB	 4
  0012b	13		 DB	 19			; 00000013H
  0012c	13		 DB	 19			; 00000013H
  0012d	13		 DB	 19			; 00000013H
  0012e	05		 DB	 5
  0012f	13		 DB	 19			; 00000013H
  00130	13		 DB	 19			; 00000013H
  00131	13		 DB	 19			; 00000013H
  00132	13		 DB	 19			; 00000013H
  00133	13		 DB	 19			; 00000013H
  00134	06		 DB	 6
  00135	13		 DB	 19			; 00000013H
  00136	13		 DB	 19			; 00000013H
  00137	13		 DB	 19			; 00000013H
  00138	13		 DB	 19			; 00000013H
  00139	13		 DB	 19			; 00000013H
  0013a	07		 DB	 7
  0013b	13		 DB	 19			; 00000013H
  0013c	13		 DB	 19			; 00000013H
  0013d	13		 DB	 19			; 00000013H
  0013e	13		 DB	 19			; 00000013H
  0013f	13		 DB	 19			; 00000013H
  00140	13		 DB	 19			; 00000013H
  00141	13		 DB	 19			; 00000013H
  00142	13		 DB	 19			; 00000013H
  00143	08		 DB	 8
  00144	13		 DB	 19			; 00000013H
  00145	13		 DB	 19			; 00000013H
  00146	13		 DB	 19			; 00000013H
  00147	13		 DB	 19			; 00000013H
  00148	09		 DB	 9
  00149	13		 DB	 19			; 00000013H
  0014a	13		 DB	 19			; 00000013H
  0014b	13		 DB	 19			; 00000013H
  0014c	13		 DB	 19			; 00000013H
  0014d	13		 DB	 19			; 00000013H
  0014e	13		 DB	 19			; 00000013H
  0014f	0a		 DB	 10			; 0000000aH
  00150	13		 DB	 19			; 00000013H
  00151	13		 DB	 19			; 00000013H
  00152	13		 DB	 19			; 00000013H
  00153	13		 DB	 19			; 00000013H
  00154	13		 DB	 19			; 00000013H
  00155	13		 DB	 19			; 00000013H
  00156	13		 DB	 19			; 00000013H
  00157	13		 DB	 19			; 00000013H
  00158	13		 DB	 19			; 00000013H
  00159	0b		 DB	 11			; 0000000bH
  0015a	13		 DB	 19			; 00000013H
  0015b	13		 DB	 19			; 00000013H
  0015c	0c		 DB	 12			; 0000000cH
  0015d	13		 DB	 19			; 00000013H
  0015e	13		 DB	 19			; 00000013H
  0015f	0d		 DB	 13			; 0000000dH
  00160	13		 DB	 19			; 00000013H
  00161	13		 DB	 19			; 00000013H
  00162	0e		 DB	 14			; 0000000eH
  00163	13		 DB	 19			; 00000013H
  00164	13		 DB	 19			; 00000013H
  00165	0f		 DB	 15			; 0000000fH
  00166	13		 DB	 19			; 00000013H
  00167	13		 DB	 19			; 00000013H
  00168	13		 DB	 19			; 00000013H
  00169	13		 DB	 19			; 00000013H
  0016a	13		 DB	 19			; 00000013H
  0016b	13		 DB	 19			; 00000013H
  0016c	13		 DB	 19			; 00000013H
  0016d	10		 DB	 16			; 00000010H
  0016e	13		 DB	 19			; 00000013H
  0016f	11		 DB	 17			; 00000011H
  00170	13		 DB	 19			; 00000013H
  00171	13		 DB	 19			; 00000013H
  00172	13		 DB	 19			; 00000013H
  00173	13		 DB	 19			; 00000013H
  00174	12		 DB	 18			; 00000012H
?EnsureNotTypeless@@YA?AW4DXGI_FORMAT@@W41@@Z ENDP	; EnsureNotTypeless
_TEXT	ENDS
; Function compile flags: /Odtp /RTCsu
;	COMDAT ??$max@I@std@@YAABIABI0@Z
_TEXT	SEGMENT
tv71 = -8						; size = 4
$T1 = -4						; size = 4
__Left$ = 8						; size = 4
__Right$ = 12						; size = 4
??$max@I@std@@YAABIABI0@Z PROC				; std::max<unsigned int>, COMDAT
; File c:\program files (x86)\microsoft visual studio 12.0\vc\include\algorithm
; Line 4087
  00000	55		 push	 ebp
  00001	8b ec		 mov	 ebp, esp
  00003	83 ec 08	 sub	 esp, 8
  00006	c7 45 f8 cc cc
	cc cc		 mov	 DWORD PTR [ebp-8], -858993460 ; ccccccccH
  0000d	c7 45 fc cc cc
	cc cc		 mov	 DWORD PTR [ebp-4], -858993460 ; ccccccccH
; Line 4088
  00014	68 f8 0f 00 00	 push	 4088			; 00000ff8H
  00019	68 00 00 00 00	 push	 OFFSET ??_C@_1JC@HALMDPKM@?$AAC?$AA?3?$AA?2?$AAP?$AAr?$AAo?$AAg?$AAr?$AAa?$AAm?$AA?5?$AAF?$AAi?$AAl?$AAe?$AAs?$AA?5?$AA?$CI?$AAx?$AA8?$AA6?$AA?$CJ?$AA?2?$AAM?$AAi?$AAc?$AAr?$AAo?$AAs?$AAo?$AAf?$AAt@
  0001e	8b 45 0c	 mov	 eax, DWORD PTR __Right$[ebp]
  00021	50		 push	 eax
  00022	8b 4d 08	 mov	 ecx, DWORD PTR __Left$[ebp]
  00025	51		 push	 ecx
  00026	e8 00 00 00 00	 call	 ??$_Debug_lt@ABIABI@std@@YA_NABI0PB_WI@Z ; std::_Debug_lt<unsigned int const &,unsigned int const &>
  0002b	83 c4 10	 add	 esp, 16			; 00000010H
  0002e	0f b6 d0	 movzx	 edx, al
  00031	85 d2		 test	 edx, edx
  00033	74 08		 je	 SHORT $LN3@max
  00035	8b 45 0c	 mov	 eax, DWORD PTR __Right$[ebp]
  00038	89 45 f8	 mov	 DWORD PTR tv71[ebp], eax
  0003b	eb 06		 jmp	 SHORT $LN4@max
$LN3@max:
  0003d	8b 4d 08	 mov	 ecx, DWORD PTR __Left$[ebp]
  00040	89 4d f8	 mov	 DWORD PTR tv71[ebp], ecx
$LN4@max:
  00043	8b 55 f8	 mov	 edx, DWORD PTR tv71[ebp]
  00046	89 55 fc	 mov	 DWORD PTR $T1[ebp], edx
  00049	8b 45 fc	 mov	 eax, DWORD PTR $T1[ebp]
; Line 4089
  0004c	83 c4 08	 add	 esp, 8
  0004f	3b ec		 cmp	 ebp, esp
  00051	e8 00 00 00 00	 call	 __RTC_CheckEsp
  00056	8b e5		 mov	 esp, ebp
  00058	5d		 pop	 ebp
  00059	c3		 ret	 0
??$max@I@std@@YAABIABI0@Z ENDP				; std::max<unsigned int>
_TEXT	ENDS
; Function compile flags: /Odtp /RTCsu
_TEXT	SEGMENT
tv64 = -52						; size = 4
$T1 = -48						; size = 4
$T2 = -44						; size = 4
$T3 = -40						; size = 4
$T4 = -36						; size = 4
_bpp$5 = -32						; size = 4
_numBlocksHigh$6 = -28					; size = 4
_numBlocksWide$7 = -24					; size = 4
_bpe$ = -20						; size = 4
_planar$ = -15						; size = 1
_packed$ = -14						; size = 1
_bc$ = -13						; size = 1
_numRows$ = -12						; size = 4
_rowBytes$ = -8						; size = 4
_numBytes$ = -4						; size = 4
_width$ = 8						; size = 4
_height$ = 12						; size = 4
_fmt$ = 16						; size = 4
_outNumBytes$ = 20					; size = 4
_outRowBytes$ = 24					; size = 4
_outNumRows$ = 28					; size = 4
?GetSurfaceInfo@@YAXIIW4DXGI_FORMAT@@PAI11@Z PROC	; GetSurfaceInfo
; File d:\engine class\assignment 1\new scratch\dxut\core\screengrab.cpp
; Line 406
  00000	55		 push	 ebp
  00001	8b ec		 mov	 ebp, esp
  00003	83 ec 34	 sub	 esp, 52			; 00000034H
  00006	57		 push	 edi
  00007	8d 7d cc	 lea	 edi, DWORD PTR [ebp-52]
  0000a	b9 0d 00 00 00	 mov	 ecx, 13			; 0000000dH
  0000f	b8 cc cc cc cc	 mov	 eax, -858993460		; ccccccccH
  00014	f3 ab		 rep stosd
; Line 407
  00016	c7 45 fc 00 00
	00 00		 mov	 DWORD PTR _numBytes$[ebp], 0
; Line 408
  0001d	c7 45 f8 00 00
	00 00		 mov	 DWORD PTR _rowBytes$[ebp], 0
; Line 409
  00024	c7 45 f4 00 00
	00 00		 mov	 DWORD PTR _numRows$[ebp], 0
; Line 411
  0002b	c6 45 f3 00	 mov	 BYTE PTR _bc$[ebp], 0
; Line 412
  0002f	c6 45 f2 00	 mov	 BYTE PTR _packed$[ebp], 0
; Line 413
  00033	c6 45 f1 00	 mov	 BYTE PTR _planar$[ebp], 0
; Line 414
  00037	c7 45 ec 00 00
	00 00		 mov	 DWORD PTR _bpe$[ebp], 0
; Line 415
  0003e	8b 45 10	 mov	 eax, DWORD PTR _fmt$[ebp]
  00041	89 45 cc	 mov	 DWORD PTR tv64[ebp], eax
  00044	8b 4d cc	 mov	 ecx, DWORD PTR tv64[ebp]
  00047	83 e9 44	 sub	 ecx, 68			; 00000044H
  0004a	89 4d cc	 mov	 DWORD PTR tv64[ebp], ecx
  0004d	83 7d cc 29	 cmp	 DWORD PTR tv64[ebp], 41	; 00000029H
  00051	77 5d		 ja	 SHORT $LN20@GetSurface
  00053	8b 55 cc	 mov	 edx, DWORD PTR tv64[ebp]
  00056	0f b6 82 00 00
	00 00		 movzx	 eax, BYTE PTR $LN24@GetSurface[edx]
  0005d	ff 24 85 00 00
	00 00		 jmp	 DWORD PTR $LN25@GetSurface[eax*4]
$LN19@GetSurface:
; Line 423
  00064	c6 45 f3 01	 mov	 BYTE PTR _bc$[ebp], 1
; Line 424
  00068	c7 45 ec 08 00
	00 00		 mov	 DWORD PTR _bpe$[ebp], 8
; Line 425
  0006f	eb 3f		 jmp	 SHORT $LN20@GetSurface
$LN18@GetSurface:
; Line 442
  00071	c6 45 f3 01	 mov	 BYTE PTR _bc$[ebp], 1
; Line 443
  00075	c7 45 ec 10 00
	00 00		 mov	 DWORD PTR _bpe$[ebp], 16 ; 00000010H
; Line 444
  0007c	eb 32		 jmp	 SHORT $LN20@GetSurface
$LN17@GetSurface:
; Line 449
  0007e	c6 45 f2 01	 mov	 BYTE PTR _packed$[ebp], 1
; Line 450
  00082	c7 45 ec 04 00
	00 00		 mov	 DWORD PTR _bpe$[ebp], 4
; Line 451
  00089	eb 25		 jmp	 SHORT $LN20@GetSurface
$LN16@GetSurface:
; Line 455
  0008b	c6 45 f2 01	 mov	 BYTE PTR _packed$[ebp], 1
; Line 456
  0008f	c7 45 ec 08 00
	00 00		 mov	 DWORD PTR _bpe$[ebp], 8
; Line 457
  00096	eb 18		 jmp	 SHORT $LN20@GetSurface
$LN15@GetSurface:
; Line 461
  00098	c6 45 f1 01	 mov	 BYTE PTR _planar$[ebp], 1
; Line 462
  0009c	c7 45 ec 02 00
	00 00		 mov	 DWORD PTR _bpe$[ebp], 2
; Line 463
  000a3	eb 0b		 jmp	 SHORT $LN20@GetSurface
$LN14@GetSurface:
; Line 467
  000a5	c6 45 f1 01	 mov	 BYTE PTR _planar$[ebp], 1
; Line 468
  000a9	c7 45 ec 04 00
	00 00		 mov	 DWORD PTR _bpe$[ebp], 4
$LN20@GetSurface:
; Line 483
  000b0	0f b6 4d f3	 movzx	 ecx, BYTE PTR _bc$[ebp]
  000b4	85 c9		 test	 ecx, ecx
  000b6	0f 84 89 00 00
	00		 je	 $LN13@GetSurface
; Line 485
  000bc	c7 45 e8 00 00
	00 00		 mov	 DWORD PTR _numBlocksWide$7[ebp], 0
; Line 486
  000c3	83 7d 08 00	 cmp	 DWORD PTR _width$[ebp], 0
  000c7	76 28		 jbe	 SHORT $LN12@GetSurface
; Line 488
  000c9	8b 55 08	 mov	 edx, DWORD PTR _width$[ebp]
  000cc	83 c2 03	 add	 edx, 3
  000cf	c1 ea 02	 shr	 edx, 2
  000d2	89 55 dc	 mov	 DWORD PTR $T4[ebp], edx
  000d5	c7 45 d8 01 00
	00 00		 mov	 DWORD PTR $T3[ebp], 1
  000dc	8d 45 dc	 lea	 eax, DWORD PTR $T4[ebp]
  000df	50		 push	 eax
  000e0	8d 4d d8	 lea	 ecx, DWORD PTR $T3[ebp]
  000e3	51		 push	 ecx
  000e4	e8 00 00 00 00	 call	 ??$max@I@std@@YAABIABI0@Z ; std::max<unsigned int>
  000e9	83 c4 08	 add	 esp, 8
  000ec	8b 10		 mov	 edx, DWORD PTR [eax]
  000ee	89 55 e8	 mov	 DWORD PTR _numBlocksWide$7[ebp], edx
$LN12@GetSurface:
; Line 490
  000f1	c7 45 e4 00 00
	00 00		 mov	 DWORD PTR _numBlocksHigh$6[ebp], 0
; Line 491
  000f8	83 7d 0c 00	 cmp	 DWORD PTR _height$[ebp], 0
  000fc	76 28		 jbe	 SHORT $LN11@GetSurface
; Line 493
  000fe	8b 45 0c	 mov	 eax, DWORD PTR _height$[ebp]
  00101	83 c0 03	 add	 eax, 3
  00104	c1 e8 02	 shr	 eax, 2
  00107	89 45 d4	 mov	 DWORD PTR $T2[ebp], eax
  0010a	c7 45 d0 01 00
	00 00		 mov	 DWORD PTR $T1[ebp], 1
  00111	8d 4d d4	 lea	 ecx, DWORD PTR $T2[ebp]
  00114	51		 push	 ecx
  00115	8d 55 d0	 lea	 edx, DWORD PTR $T1[ebp]
  00118	52		 push	 edx
  00119	e8 00 00 00 00	 call	 ??$max@I@std@@YAABIABI0@Z ; std::max<unsigned int>
  0011e	83 c4 08	 add	 esp, 8
  00121	8b 00		 mov	 eax, DWORD PTR [eax]
  00123	89 45 e4	 mov	 DWORD PTR _numBlocksHigh$6[ebp], eax
$LN11@GetSurface:
; Line 495
  00126	8b 4d e8	 mov	 ecx, DWORD PTR _numBlocksWide$7[ebp]
  00129	0f af 4d ec	 imul	 ecx, DWORD PTR _bpe$[ebp]
  0012d	89 4d f8	 mov	 DWORD PTR _rowBytes$[ebp], ecx
; Line 496
  00130	8b 55 e4	 mov	 edx, DWORD PTR _numBlocksHigh$6[ebp]
  00133	89 55 f4	 mov	 DWORD PTR _numRows$[ebp], edx
; Line 497
  00136	8b 45 f8	 mov	 eax, DWORD PTR _rowBytes$[ebp]
  00139	0f af 45 e4	 imul	 eax, DWORD PTR _numBlocksHigh$6[ebp]
  0013d	89 45 fc	 mov	 DWORD PTR _numBytes$[ebp], eax
  00140	e9 c3 00 00 00	 jmp	 $LN10@GetSurface
$LN13@GetSurface:
; Line 499
  00145	0f b6 4d f2	 movzx	 ecx, BYTE PTR _packed$[ebp]
  00149	85 c9		 test	 ecx, ecx
  0014b	74 24		 je	 SHORT $LN9@GetSurface
; Line 501
  0014d	8b 55 08	 mov	 edx, DWORD PTR _width$[ebp]
  00150	83 c2 01	 add	 edx, 1
  00153	d1 ea		 shr	 edx, 1
  00155	0f af 55 ec	 imul	 edx, DWORD PTR _bpe$[ebp]
  00159	89 55 f8	 mov	 DWORD PTR _rowBytes$[ebp], edx
; Line 502
  0015c	8b 45 0c	 mov	 eax, DWORD PTR _height$[ebp]
  0015f	89 45 f4	 mov	 DWORD PTR _numRows$[ebp], eax
; Line 503
  00162	8b 4d f8	 mov	 ecx, DWORD PTR _rowBytes$[ebp]
  00165	0f af 4d 0c	 imul	 ecx, DWORD PTR _height$[ebp]
  00169	89 4d fc	 mov	 DWORD PTR _numBytes$[ebp], ecx
  0016c	e9 97 00 00 00	 jmp	 $LN10@GetSurface
$LN9@GetSurface:
; Line 505
  00171	83 7d 10 6e	 cmp	 DWORD PTR _fmt$[ebp], 110 ; 0000006eH
  00175	75 23		 jne	 SHORT $LN7@GetSurface
; Line 507
  00177	8b 55 08	 mov	 edx, DWORD PTR _width$[ebp]
  0017a	83 c2 03	 add	 edx, 3
  0017d	c1 ea 02	 shr	 edx, 2
  00180	c1 e2 02	 shl	 edx, 2
  00183	89 55 f8	 mov	 DWORD PTR _rowBytes$[ebp], edx
; Line 508
  00186	8b 45 0c	 mov	 eax, DWORD PTR _height$[ebp]
  00189	d1 e0		 shl	 eax, 1
  0018b	89 45 f4	 mov	 DWORD PTR _numRows$[ebp], eax
; Line 509
  0018e	8b 4d f8	 mov	 ecx, DWORD PTR _rowBytes$[ebp]
  00191	0f af 4d f4	 imul	 ecx, DWORD PTR _numRows$[ebp]
  00195	89 4d fc	 mov	 DWORD PTR _numBytes$[ebp], ecx
  00198	eb 6e		 jmp	 SHORT $LN10@GetSurface
$LN7@GetSurface:
; Line 511
  0019a	0f b6 55 f1	 movzx	 edx, BYTE PTR _planar$[ebp]
  0019e	85 d2		 test	 edx, edx
  001a0	74 37		 je	 SHORT $LN5@GetSurface
; Line 513
  001a2	8b 45 08	 mov	 eax, DWORD PTR _width$[ebp]
  001a5	83 c0 01	 add	 eax, 1
  001a8	d1 e8		 shr	 eax, 1
  001aa	0f af 45 ec	 imul	 eax, DWORD PTR _bpe$[ebp]
  001ae	89 45 f8	 mov	 DWORD PTR _rowBytes$[ebp], eax
; Line 514
  001b1	8b 4d f8	 mov	 ecx, DWORD PTR _rowBytes$[ebp]
  001b4	0f af 4d 0c	 imul	 ecx, DWORD PTR _height$[ebp]
  001b8	8b 55 f8	 mov	 edx, DWORD PTR _rowBytes$[ebp]
  001bb	0f af 55 0c	 imul	 edx, DWORD PTR _height$[ebp]
  001bf	83 c2 01	 add	 edx, 1
  001c2	d1 ea		 shr	 edx, 1
  001c4	03 ca		 add	 ecx, edx
  001c6	89 4d fc	 mov	 DWORD PTR _numBytes$[ebp], ecx
; Line 515
  001c9	8b 45 0c	 mov	 eax, DWORD PTR _height$[ebp]
  001cc	83 c0 01	 add	 eax, 1
  001cf	d1 e8		 shr	 eax, 1
  001d1	03 45 0c	 add	 eax, DWORD PTR _height$[ebp]
  001d4	89 45 f4	 mov	 DWORD PTR _numRows$[ebp], eax
; Line 517
  001d7	eb 2f		 jmp	 SHORT $LN10@GetSurface
$LN5@GetSurface:
; Line 519
  001d9	8b 4d 10	 mov	 ecx, DWORD PTR _fmt$[ebp]
  001dc	51		 push	 ecx
  001dd	e8 00 00 00 00	 call	 ?BitsPerPixel@@YAIW4DXGI_FORMAT@@@Z ; BitsPerPixel
  001e2	83 c4 04	 add	 esp, 4
  001e5	89 45 e0	 mov	 DWORD PTR _bpp$5[ebp], eax
; Line 520
  001e8	8b 55 08	 mov	 edx, DWORD PTR _width$[ebp]
  001eb	0f af 55 e0	 imul	 edx, DWORD PTR _bpp$5[ebp]
  001ef	83 c2 07	 add	 edx, 7
  001f2	c1 ea 03	 shr	 edx, 3
  001f5	89 55 f8	 mov	 DWORD PTR _rowBytes$[ebp], edx
; Line 521
  001f8	8b 45 0c	 mov	 eax, DWORD PTR _height$[ebp]
  001fb	89 45 f4	 mov	 DWORD PTR _numRows$[ebp], eax
; Line 522
  001fe	8b 4d f8	 mov	 ecx, DWORD PTR _rowBytes$[ebp]
  00201	0f af 4d 0c	 imul	 ecx, DWORD PTR _height$[ebp]
  00205	89 4d fc	 mov	 DWORD PTR _numBytes$[ebp], ecx
$LN10@GetSurface:
; Line 525
  00208	83 7d 14 00	 cmp	 DWORD PTR _outNumBytes$[ebp], 0
  0020c	74 08		 je	 SHORT $LN3@GetSurface
; Line 527
  0020e	8b 55 14	 mov	 edx, DWORD PTR _outNumBytes$[ebp]
  00211	8b 45 fc	 mov	 eax, DWORD PTR _numBytes$[ebp]
  00214	89 02		 mov	 DWORD PTR [edx], eax
$LN3@GetSurface:
; Line 529
  00216	83 7d 18 00	 cmp	 DWORD PTR _outRowBytes$[ebp], 0
  0021a	74 08		 je	 SHORT $LN2@GetSurface
; Line 531
  0021c	8b 4d 18	 mov	 ecx, DWORD PTR _outRowBytes$[ebp]
  0021f	8b 55 f8	 mov	 edx, DWORD PTR _rowBytes$[ebp]
  00222	89 11		 mov	 DWORD PTR [ecx], edx
$LN2@GetSurface:
; Line 533
  00224	83 7d 1c 00	 cmp	 DWORD PTR _outNumRows$[ebp], 0
  00228	74 08		 je	 SHORT $LN22@GetSurface
; Line 535
  0022a	8b 45 1c	 mov	 eax, DWORD PTR _outNumRows$[ebp]
  0022d	8b 4d f4	 mov	 ecx, DWORD PTR _numRows$[ebp]
  00230	89 08		 mov	 DWORD PTR [eax], ecx
$LN22@GetSurface:
; Line 537
  00232	5f		 pop	 edi
  00233	83 c4 34	 add	 esp, 52			; 00000034H
  00236	3b ec		 cmp	 ebp, esp
  00238	e8 00 00 00 00	 call	 __RTC_CheckEsp
  0023d	8b e5		 mov	 esp, ebp
  0023f	5d		 pop	 ebp
  00240	c3		 ret	 0
  00241	8d 49 00	 npad	 3
$LN25@GetSurface:
  00244	00 00 00 00	 DD	 $LN17@GetSurface
  00248	00 00 00 00	 DD	 $LN19@GetSurface
  0024c	00 00 00 00	 DD	 $LN18@GetSurface
  00250	00 00 00 00	 DD	 $LN15@GetSurface
  00254	00 00 00 00	 DD	 $LN14@GetSurface
  00258	00 00 00 00	 DD	 $LN16@GetSurface
  0025c	00 00 00 00	 DD	 $LN20@GetSurface
$LN24@GetSurface:
  00260	00		 DB	 0
  00261	00		 DB	 0
  00262	01		 DB	 1
  00263	01		 DB	 1
  00264	01		 DB	 1
  00265	02		 DB	 2
  00266	02		 DB	 2
  00267	02		 DB	 2
  00268	02		 DB	 2
  00269	02		 DB	 2
  0026a	02		 DB	 2
  0026b	01		 DB	 1
  0026c	01		 DB	 1
  0026d	01		 DB	 1
  0026e	02		 DB	 2
  0026f	02		 DB	 2
  00270	02		 DB	 2
  00271	06		 DB	 6
  00272	06		 DB	 6
  00273	06		 DB	 6
  00274	06		 DB	 6
  00275	06		 DB	 6
  00276	06		 DB	 6
  00277	06		 DB	 6
  00278	06		 DB	 6
  00279	06		 DB	 6
  0027a	02		 DB	 2
  0027b	02		 DB	 2
  0027c	02		 DB	 2
  0027d	02		 DB	 2
  0027e	02		 DB	 2
  0027f	02		 DB	 2
  00280	06		 DB	 6
  00281	06		 DB	 6
  00282	06		 DB	 6
  00283	03		 DB	 3
  00284	04		 DB	 4
  00285	04		 DB	 4
  00286	03		 DB	 3
  00287	00		 DB	 0
  00288	05		 DB	 5
  00289	05		 DB	 5
?GetSurfaceInfo@@YAXIIW4DXGI_FORMAT@@PAI11@Z ENDP	; GetSurfaceInfo
_TEXT	ENDS
; Function compile flags: /Odtp /RTCsu
_TEXT	SEGMENT
tv64 = -4						; size = 4
_fmt$ = 8						; size = 4
?IsCompressed@@YA_NW4DXGI_FORMAT@@@Z PROC		; IsCompressed
; File d:\engine class\assignment 1\new scratch\dxut\core\screengrab.cpp
; Line 365
  00000	55		 push	 ebp
  00001	8b ec		 mov	 ebp, esp
  00003	51		 push	 ecx
  00004	c7 45 fc cc cc
	cc cc		 mov	 DWORD PTR [ebp-4], -858993460 ; ccccccccH
; Line 366
  0000b	8b 45 08	 mov	 eax, DWORD PTR _fmt$[ebp]
  0000e	89 45 fc	 mov	 DWORD PTR tv64[ebp], eax
  00011	8b 4d fc	 mov	 ecx, DWORD PTR tv64[ebp]
  00014	83 e9 46	 sub	 ecx, 70			; 00000046H
  00017	89 4d fc	 mov	 DWORD PTR tv64[ebp], ecx
  0001a	83 7d fc 1d	 cmp	 DWORD PTR tv64[ebp], 29	; 0000001dH
  0001e	77 15		 ja	 SHORT $LN1@IsCompress
  00020	8b 55 fc	 mov	 edx, DWORD PTR tv64[ebp]
  00023	0f b6 82 00 00
	00 00		 movzx	 eax, BYTE PTR $LN7@IsCompress[edx]
  0002a	ff 24 85 00 00
	00 00		 jmp	 DWORD PTR $LN8@IsCompress[eax*4]
$LN2@IsCompress:
; Line 389
  00031	b0 01		 mov	 al, 1
  00033	eb 02		 jmp	 SHORT $LN5@IsCompress
$LN1@IsCompress:
; Line 392
  00035	32 c0		 xor	 al, al
$LN5@IsCompress:
; Line 394
  00037	8b e5		 mov	 esp, ebp
  00039	5d		 pop	 ebp
  0003a	c3		 ret	 0
  0003b	90		 npad	 1
$LN8@IsCompress:
  0003c	00 00 00 00	 DD	 $LN2@IsCompress
  00040	00 00 00 00	 DD	 $LN1@IsCompress
$LN7@IsCompress:
  00044	00		 DB	 0
  00045	00		 DB	 0
  00046	00		 DB	 0
  00047	00		 DB	 0
  00048	00		 DB	 0
  00049	00		 DB	 0
  0004a	00		 DB	 0
  0004b	00		 DB	 0
  0004c	00		 DB	 0
  0004d	00		 DB	 0
  0004e	00		 DB	 0
  0004f	00		 DB	 0
  00050	00		 DB	 0
  00051	00		 DB	 0
  00052	00		 DB	 0
  00053	01		 DB	 1
  00054	01		 DB	 1
  00055	01		 DB	 1
  00056	01		 DB	 1
  00057	01		 DB	 1
  00058	01		 DB	 1
  00059	01		 DB	 1
  0005a	01		 DB	 1
  0005b	01		 DB	 1
  0005c	00		 DB	 0
  0005d	00		 DB	 0
  0005e	00		 DB	 0
  0005f	00		 DB	 0
  00060	00		 DB	 0
  00061	00		 DB	 0
?IsCompressed@@YA_NW4DXGI_FORMAT@@@Z ENDP		; IsCompressed
_TEXT	ENDS
; Function compile flags: /Odtp /RTCsu
_TEXT	SEGMENT
tv64 = -4						; size = 4
_fmt$ = 8						; size = 4
?BitsPerPixel@@YAIW4DXGI_FORMAT@@@Z PROC		; BitsPerPixel
; File d:\engine class\assignment 1\new scratch\dxut\core\screengrab.cpp
; Line 202
  00000	55		 push	 ebp
  00001	8b ec		 mov	 ebp, esp
  00003	51		 push	 ecx
  00004	c7 45 fc cc cc
	cc cc		 mov	 DWORD PTR [ebp-4], -858993460 ; ccccccccH
; Line 203
  0000b	8b 45 08	 mov	 eax, DWORD PTR _fmt$[ebp]
  0000e	89 45 fc	 mov	 DWORD PTR tv64[ebp], eax
  00011	8b 4d fc	 mov	 ecx, DWORD PTR tv64[ebp]
  00014	83 e9 01	 sub	 ecx, 1
  00017	89 4d fc	 mov	 DWORD PTR tv64[ebp], ecx
  0001a	83 7d fc 72	 cmp	 DWORD PTR tv64[ebp], 114 ; 00000072H
  0001e	77 5e		 ja	 SHORT $LN1@BitsPerPix
  00020	8b 55 fc	 mov	 edx, DWORD PTR tv64[ebp]
  00023	0f b6 82 00 00
	00 00		 movzx	 eax, BYTE PTR $LN17@BitsPerPix[edx]
  0002a	ff 24 85 00 00
	00 00		 jmp	 DWORD PTR $LN18@BitsPerPix[eax*4]
$LN12@BitsPerPix:
; Line 209
  00031	b8 80 00 00 00	 mov	 eax, 128		; 00000080H
  00036	eb 48		 jmp	 SHORT $LN15@BitsPerPix
$LN11@BitsPerPix:
; Line 215
  00038	b8 60 00 00 00	 mov	 eax, 96			; 00000060H
  0003d	eb 41		 jmp	 SHORT $LN15@BitsPerPix
$LN10@BitsPerPix:
; Line 234
  0003f	b8 40 00 00 00	 mov	 eax, 64			; 00000040H
  00044	eb 3a		 jmp	 SHORT $LN15@BitsPerPix
$LN9@BitsPerPix:
; Line 274
  00046	b8 20 00 00 00	 mov	 eax, 32			; 00000020H
  0004b	eb 33		 jmp	 SHORT $LN15@BitsPerPix
$LN8@BitsPerPix:
; Line 278
  0004d	b8 18 00 00 00	 mov	 eax, 24			; 00000018H
  00052	eb 2c		 jmp	 SHORT $LN15@BitsPerPix
$LN7@BitsPerPix:
; Line 296
  00054	b8 10 00 00 00	 mov	 eax, 16			; 00000010H
  00059	eb 25		 jmp	 SHORT $LN15@BitsPerPix
$LN6@BitsPerPix:
; Line 301
  0005b	b8 0c 00 00 00	 mov	 eax, 12			; 0000000cH
  00060	eb 1e		 jmp	 SHORT $LN15@BitsPerPix
$LN5@BitsPerPix:
; Line 312
  00062	b8 08 00 00 00	 mov	 eax, 8
  00067	eb 17		 jmp	 SHORT $LN15@BitsPerPix
$LN4@BitsPerPix:
; Line 315
  00069	b8 01 00 00 00	 mov	 eax, 1
  0006e	eb 10		 jmp	 SHORT $LN15@BitsPerPix
$LN3@BitsPerPix:
; Line 323
  00070	b8 04 00 00 00	 mov	 eax, 4
  00075	eb 09		 jmp	 SHORT $LN15@BitsPerPix
$LN2@BitsPerPix:
; Line 340
  00077	b8 08 00 00 00	 mov	 eax, 8
  0007c	eb 02		 jmp	 SHORT $LN15@BitsPerPix
$LN1@BitsPerPix:
; Line 356
  0007e	33 c0		 xor	 eax, eax
$LN15@BitsPerPix:
; Line 358
  00080	8b e5		 mov	 esp, ebp
  00082	5d		 pop	 ebp
  00083	c3		 ret	 0
$LN18@BitsPerPix:
  00084	00 00 00 00	 DD	 $LN12@BitsPerPix
  00088	00 00 00 00	 DD	 $LN11@BitsPerPix
  0008c	00 00 00 00	 DD	 $LN10@BitsPerPix
  00090	00 00 00 00	 DD	 $LN9@BitsPerPix
  00094	00 00 00 00	 DD	 $LN7@BitsPerPix
  00098	00 00 00 00	 DD	 $LN5@BitsPerPix
  0009c	00 00 00 00	 DD	 $LN4@BitsPerPix
  000a0	00 00 00 00	 DD	 $LN3@BitsPerPix
  000a4	00 00 00 00	 DD	 $LN2@BitsPerPix
  000a8	00 00 00 00	 DD	 $LN6@BitsPerPix
  000ac	00 00 00 00	 DD	 $LN8@BitsPerPix
$LN17@BitsPerPix:
  000b0	00		 DB	 0
  000b1	00		 DB	 0
  000b2	00		 DB	 0
  000b3	00		 DB	 0
  000b4	01		 DB	 1
  000b5	01		 DB	 1
  000b6	01		 DB	 1
  000b7	01		 DB	 1
  000b8	02		 DB	 2
  000b9	02		 DB	 2
  000ba	02		 DB	 2
  000bb	02		 DB	 2
  000bc	02		 DB	 2
  000bd	02		 DB	 2
  000be	02		 DB	 2
  000bf	02		 DB	 2
  000c0	02		 DB	 2
  000c1	02		 DB	 2
  000c2	02		 DB	 2
  000c3	02		 DB	 2
  000c4	02		 DB	 2
  000c5	02		 DB	 2
  000c6	03		 DB	 3
  000c7	03		 DB	 3
  000c8	03		 DB	 3
  000c9	03		 DB	 3
  000ca	03		 DB	 3
  000cb	03		 DB	 3
  000cc	03		 DB	 3
  000cd	03		 DB	 3
  000ce	03		 DB	 3
  000cf	03		 DB	 3
  000d0	03		 DB	 3
  000d1	03		 DB	 3
  000d2	03		 DB	 3
  000d3	03		 DB	 3
  000d4	03		 DB	 3
  000d5	03		 DB	 3
  000d6	03		 DB	 3
  000d7	03		 DB	 3
  000d8	03		 DB	 3
  000d9	03		 DB	 3
  000da	03		 DB	 3
  000db	03		 DB	 3
  000dc	03		 DB	 3
  000dd	03		 DB	 3
  000de	03		 DB	 3
  000df	04		 DB	 4
  000e0	04		 DB	 4
  000e1	04		 DB	 4
  000e2	04		 DB	 4
  000e3	04		 DB	 4
  000e4	04		 DB	 4
  000e5	04		 DB	 4
  000e6	04		 DB	 4
  000e7	04		 DB	 4
  000e8	04		 DB	 4
  000e9	04		 DB	 4
  000ea	04		 DB	 4
  000eb	05		 DB	 5
  000ec	05		 DB	 5
  000ed	05		 DB	 5
  000ee	05		 DB	 5
  000ef	05		 DB	 5
  000f0	05		 DB	 5
  000f1	06		 DB	 6
  000f2	03		 DB	 3
  000f3	03		 DB	 3
  000f4	03		 DB	 3
  000f5	07		 DB	 7
  000f6	07		 DB	 7
  000f7	07		 DB	 7
  000f8	08		 DB	 8
  000f9	08		 DB	 8
  000fa	08		 DB	 8
  000fb	08		 DB	 8
  000fc	08		 DB	 8
  000fd	08		 DB	 8
  000fe	07		 DB	 7
  000ff	07		 DB	 7
  00100	07		 DB	 7
  00101	08		 DB	 8
  00102	08		 DB	 8
  00103	08		 DB	 8
  00104	04		 DB	 4
  00105	04		 DB	 4
  00106	03		 DB	 3
  00107	03		 DB	 3
  00108	03		 DB	 3
  00109	03		 DB	 3
  0010a	03		 DB	 3
  0010b	03		 DB	 3
  0010c	03		 DB	 3
  0010d	08		 DB	 8
  0010e	08		 DB	 8
  0010f	08		 DB	 8
  00110	08		 DB	 8
  00111	08		 DB	 8
  00112	08		 DB	 8
  00113	03		 DB	 3
  00114	03		 DB	 3
  00115	02		 DB	 2
  00116	09		 DB	 9
  00117	0a		 DB	 10			; 0000000aH
  00118	0a		 DB	 10			; 0000000aH
  00119	09		 DB	 9
  0011a	03		 DB	 3
  0011b	02		 DB	 2
  0011c	02		 DB	 2
  0011d	09		 DB	 9
  0011e	05		 DB	 5
  0011f	05		 DB	 5
  00120	05		 DB	 5
  00121	04		 DB	 4
  00122	04		 DB	 4
?BitsPerPixel@@YAIW4DXGI_FORMAT@@@Z ENDP		; BitsPerPixel
_TEXT	ENDS
; Function compile flags: /Odtp /RTCsu
;	COMDAT ?safe_handle@@YAPAXPAX@Z
_TEXT	SEGMENT
tv65 = -4						; size = 4
_h$ = 8							; size = 4
?safe_handle@@YAPAXPAX@Z PROC				; safe_handle, COMDAT
; File d:\engine class\assignment 1\new scratch\dxut\core\screengrab.cpp
; Line 195
  00000	55		 push	 ebp
  00001	8b ec		 mov	 ebp, esp
  00003	51		 push	 ecx
  00004	c7 45 fc cc cc
	cc cc		 mov	 DWORD PTR [ebp-4], -858993460 ; ccccccccH
  0000b	83 7d 08 ff	 cmp	 DWORD PTR _h$[ebp], -1
  0000f	75 09		 jne	 SHORT $LN3@safe_handl
  00011	c7 45 fc 00 00
	00 00		 mov	 DWORD PTR tv65[ebp], 0
  00018	eb 06		 jmp	 SHORT $LN4@safe_handl
$LN3@safe_handl:
  0001a	8b 45 08	 mov	 eax, DWORD PTR _h$[ebp]
  0001d	89 45 fc	 mov	 DWORD PTR tv65[ebp], eax
$LN4@safe_handl:
  00020	8b 45 fc	 mov	 eax, DWORD PTR tv65[ebp]
  00023	8b e5		 mov	 esp, ebp
  00025	5d		 pop	 ebp
  00026	c3		 ret	 0
?safe_handle@@YAPAXPAX@Z ENDP				; safe_handle
_TEXT	ENDS
; Function compile flags: /Odtp /RTCsu
;	COMDAT ??Rhandle_closer@@QAEXPAX@Z
_TEXT	SEGMENT
_this$ = -4						; size = 4
_h$ = 8							; size = 4
??Rhandle_closer@@QAEXPAX@Z PROC			; handle_closer::operator(), COMDAT
; _this$ = ecx
; File d:\engine class\assignment 1\new scratch\dxut\core\screengrab.cpp
; Line 191
  00000	55		 push	 ebp
  00001	8b ec		 mov	 ebp, esp
  00003	51		 push	 ecx
  00004	56		 push	 esi
  00005	c7 45 fc cc cc
	cc cc		 mov	 DWORD PTR [ebp-4], -858993460 ; ccccccccH
  0000c	89 4d fc	 mov	 DWORD PTR _this$[ebp], ecx
  0000f	83 7d 08 00	 cmp	 DWORD PTR _h$[ebp], 0
  00013	74 13		 je	 SHORT $LN2@operator
  00015	8b f4		 mov	 esi, esp
  00017	8b 45 08	 mov	 eax, DWORD PTR _h$[ebp]
  0001a	50		 push	 eax
  0001b	ff 15 00 00 00
	00		 call	 DWORD PTR __imp__CloseHandle@4
  00021	3b f4		 cmp	 esi, esp
  00023	e8 00 00 00 00	 call	 __RTC_CheckEsp
$LN2@operator:
  00028	5e		 pop	 esi
  00029	83 c4 04	 add	 esp, 4
  0002c	3b ec		 cmp	 ebp, esp
  0002e	e8 00 00 00 00	 call	 __RTC_CheckEsp
  00033	8b e5		 mov	 esp, ebp
  00035	5d		 pop	 ebp
  00036	c2 04 00	 ret	 4
??Rhandle_closer@@QAEXPAX@Z ENDP			; handle_closer::operator()
_TEXT	ENDS
; Function compile flags: /Odtp /RTCsu
_TEXT	SEGMENT
tv631 = -544						; size = 4
tv619 = -540						; size = 4
tv591 = -536						; size = 4
tv528 = -532						; size = 4
tv493 = -528						; size = 4
tv433 = -524						; size = 4
tv408 = -520						; size = 4
tv394 = -516						; size = 4
tv382 = -512						; size = 4
tv368 = -508						; size = 4
tv359 = -504						; size = 4
tv346 = -500						; size = 4
tv334 = -496						; size = 4
tv323 = -492						; size = 4
tv313 = -488						; size = 4
tv304 = -484						; size = 4
tv290 = -480						; size = 4
tv275 = -476						; size = 4
tv218 = -472						; size = 4
tv204 = -468						; size = 4
tv188 = -464						; size = 4
tv162 = -460						; size = 4
tv135 = -456						; size = 4
tv78 = -452						; size = 4
$T2 = -448						; size = 4
$T3 = -444						; size = 4
$T4 = -440						; size = 4
$T5 = -436						; size = 4
$T6 = -432						; size = 4
$T7 = -428						; size = 4
$T8 = -424						; size = 4
$T9 = -420						; size = 4
$T10 = -416						; size = 4
$T11 = -412						; size = 4
$T12 = -408						; size = 4
$T13 = -404						; size = 4
$T14 = -400						; size = 4
$T15 = -396						; size = 4
$T16 = -392						; size = 4
$T17 = -388						; size = 4
$T18 = -384						; size = 4
$T19 = -380						; size = 4
$T20 = -376						; size = 4
$T21 = -372						; size = 4
$T22 = -368						; size = 4
$T23 = -364						; size = 4
$T24 = -360						; size = 4
_rect$25 = -352						; size = 16
_FC$26 = -328						; size = 4
_source$27 = -316					; size = 4
_mapped$ = -304						; size = 12
_value$28 = -284					; size = 16
_metawriter$ = -260					; size = 4
_targetGuid$ = -248					; size = 16
_varValue$29 = -224					; size = 16
_option$30 = -200					; size = 32
_props$ = -160						; size = 4
_frame$ = -148						; size = 4
_encoder$ = -136					; size = 4
_stream$ = -124						; size = 4
_pWIC$ = -116						; size = 4
_sRGB$ = -109						; size = 1
_pfGuid$ = -104						; size = 16
_hr$ = -84						; size = 4
_pStaging$ = -76					; size = 4
_desc$ = -64						; size = 44
__$ArrayPad$ = -16					; size = 4
__$EHRec$ = -12						; size = 12
_pContext$ = 8						; size = 4
_pSource$ = 12						; size = 4
_guidContainerFormat$ = 16				; size = 4
_fileName$ = 20						; size = 4
_targetFormat$ = 24					; size = 4
_setCustomProps$ = 28					; size = 24
?SaveWICTextureToFile@DirectX@@YAJPAUID3D11DeviceContext@@PAUID3D11Resource@@ABU_GUID@@PB_WPBU4@V?$function@$$A6AXPAUIPropertyBag2@@@Z@std@@@Z PROC ; DirectX::SaveWICTextureToFile
; File d:\engine class\assignment 1\new scratch\dxut\core\screengrab.cpp
; Line 888
  00000	55		 push	 ebp
  00001	8b ec		 mov	 ebp, esp
  00003	6a ff		 push	 -1
  00005	68 00 00 00 00	 push	 __ehhandler$?SaveWICTextureToFile@DirectX@@YAJPAUID3D11DeviceContext@@PAUID3D11Resource@@ABU_GUID@@PB_WPBU4@V?$function@$$A6AXPAUIPropertyBag2@@@Z@std@@@Z
  0000a	64 a1 00 00 00
	00		 mov	 eax, DWORD PTR fs:0
  00010	50		 push	 eax
  00011	81 ec 14 02 00
	00		 sub	 esp, 532		; 00000214H
  00017	56		 push	 esi
  00018	57		 push	 edi
  00019	8d bd e0 fd ff
	ff		 lea	 edi, DWORD PTR [ebp-544]
  0001f	b9 85 00 00 00	 mov	 ecx, 133		; 00000085H
  00024	b8 cc cc cc cc	 mov	 eax, -858993460		; ccccccccH
  00029	f3 ab		 rep stosd
  0002b	a1 00 00 00 00	 mov	 eax, DWORD PTR ___security_cookie
  00030	33 c5		 xor	 eax, ebp
  00032	89 45 f0	 mov	 DWORD PTR __$ArrayPad$[ebp], eax
  00035	50		 push	 eax
  00036	8d 45 f4	 lea	 eax, DWORD PTR __$EHRec$[ebp]
  00039	64 a3 00 00 00
	00		 mov	 DWORD PTR fs:0, eax
  0003f	c7 45 fc 00 00
	00 00		 mov	 DWORD PTR __$EHRec$[ebp+8], 0
; Line 889
  00046	83 7d 14 00	 cmp	 DWORD PTR _fileName$[ebp], 0
  0004a	75 24		 jne	 SHORT $LN60@SaveWICTex
; Line 890
  0004c	c7 85 98 fe ff
	ff 57 00 07 80	 mov	 DWORD PTR $T24[ebp], -2147024809 ; 80070057H
  00056	c7 45 fc ff ff
	ff ff		 mov	 DWORD PTR __$EHRec$[ebp+8], -1
  0005d	8d 4d 1c	 lea	 ecx, DWORD PTR _setCustomProps$[ebp]
  00060	e8 00 00 00 00	 call	 ??1?$function@$$A6AXPAUIPropertyBag2@@@Z@std@@QAE@XZ ; std::function<void __cdecl(IPropertyBag2 *)>::~function<void __cdecl(IPropertyBag2 *)>
  00065	8b 85 98 fe ff
	ff		 mov	 eax, DWORD PTR $T24[ebp]
  0006b	e9 3b 16 00 00	 jmp	 $LN61@SaveWICTex
$LN60@SaveWICTex:
; Line 892
  00070	c7 45 c0 00 00
	00 00		 mov	 DWORD PTR _desc$[ebp], 0
  00077	33 c0		 xor	 eax, eax
  00079	89 45 c4	 mov	 DWORD PTR _desc$[ebp+4], eax
  0007c	89 45 c8	 mov	 DWORD PTR _desc$[ebp+8], eax
  0007f	89 45 cc	 mov	 DWORD PTR _desc$[ebp+12], eax
  00082	89 45 d0	 mov	 DWORD PTR _desc$[ebp+16], eax
  00085	89 45 d4	 mov	 DWORD PTR _desc$[ebp+20], eax
  00088	89 45 d8	 mov	 DWORD PTR _desc$[ebp+24], eax
  0008b	89 45 dc	 mov	 DWORD PTR _desc$[ebp+28], eax
  0008e	89 45 e0	 mov	 DWORD PTR _desc$[ebp+32], eax
  00091	89 45 e4	 mov	 DWORD PTR _desc$[ebp+36], eax
  00094	89 45 e8	 mov	 DWORD PTR _desc$[ebp+40], eax
; Line 893
  00097	8d 4d b4	 lea	 ecx, DWORD PTR _pStaging$[ebp]
  0009a	e8 00 00 00 00	 call	 ??0?$ComPtr@UID3D11Texture2D@@@WRL@Microsoft@@QAE@XZ ; Microsoft::WRL::ComPtr<ID3D11Texture2D>::ComPtr<ID3D11Texture2D>
  0009f	c6 45 fc 01	 mov	 BYTE PTR __$EHRec$[ebp+8], 1
; Line 894
  000a3	8d 4d b4	 lea	 ecx, DWORD PTR _pStaging$[ebp]
  000a6	51		 push	 ecx
  000a7	8d 55 c0	 lea	 edx, DWORD PTR _desc$[ebp]
  000aa	52		 push	 edx
  000ab	8b 45 0c	 mov	 eax, DWORD PTR _pSource$[ebp]
  000ae	50		 push	 eax
  000af	8b 4d 08	 mov	 ecx, DWORD PTR _pContext$[ebp]
  000b2	51		 push	 ecx
  000b3	e8 00 00 00 00	 call	 ?CaptureTexture@@YAJPAUID3D11DeviceContext@@PAUID3D11Resource@@AAUD3D11_TEXTURE2D_DESC@@AAV?$ComPtr@UID3D11Texture2D@@@WRL@Microsoft@@@Z ; CaptureTexture
  000b8	83 c4 10	 add	 esp, 16			; 00000010H
  000bb	89 45 ac	 mov	 DWORD PTR _hr$[ebp], eax
; Line 895
  000be	83 7d ac 00	 cmp	 DWORD PTR _hr$[ebp], 0
  000c2	7d 2f		 jge	 SHORT $LN59@SaveWICTex
; Line 896
  000c4	8b 55 ac	 mov	 edx, DWORD PTR _hr$[ebp]
  000c7	89 95 94 fe ff
	ff		 mov	 DWORD PTR $T23[ebp], edx
  000cd	c6 45 fc 00	 mov	 BYTE PTR __$EHRec$[ebp+8], 0
  000d1	8d 4d b4	 lea	 ecx, DWORD PTR _pStaging$[ebp]
  000d4	e8 00 00 00 00	 call	 ??1?$ComPtr@UID3D11Texture2D@@@WRL@Microsoft@@QAE@XZ ; Microsoft::WRL::ComPtr<ID3D11Texture2D>::~ComPtr<ID3D11Texture2D>
  000d9	c7 45 fc ff ff
	ff ff		 mov	 DWORD PTR __$EHRec$[ebp+8], -1
  000e0	8d 4d 1c	 lea	 ecx, DWORD PTR _setCustomProps$[ebp]
  000e3	e8 00 00 00 00	 call	 ??1?$function@$$A6AXPAUIPropertyBag2@@@Z@std@@QAE@XZ ; std::function<void __cdecl(IPropertyBag2 *)>::~function<void __cdecl(IPropertyBag2 *)>
  000e8	8b 85 94 fe ff
	ff		 mov	 eax, DWORD PTR $T23[ebp]
  000ee	e9 b8 15 00 00	 jmp	 $LN61@SaveWICTex
$LN59@SaveWICTex:
; Line 900
  000f3	c6 45 93 00	 mov	 BYTE PTR _sRGB$[ebp], 0
; Line 901
  000f7	8b 45 d0	 mov	 eax, DWORD PTR _desc$[ebp+16]
  000fa	89 85 3c fe ff
	ff		 mov	 DWORD PTR tv78[ebp], eax
  00100	8b 8d 3c fe ff
	ff		 mov	 ecx, DWORD PTR tv78[ebp]
  00106	83 e9 02	 sub	 ecx, 2
  00109	89 8d 3c fe ff
	ff		 mov	 DWORD PTR tv78[ebp], ecx
  0010f	83 bd 3c fe ff
	ff 5b		 cmp	 DWORD PTR tv78[ebp], 91	; 0000005bH
  00116	0f 87 e4 02 00
	00		 ja	 $LN38@SaveWICTex
  0011c	8b 95 3c fe ff
	ff		 mov	 edx, DWORD PTR tv78[ebp]
  00122	0f b6 82 00 00
	00 00		 movzx	 eax, BYTE PTR $LN72@SaveWICTex[edx]
  00129	ff 24 85 00 00
	00 00		 jmp	 DWORD PTR $LN93@SaveWICTex[eax*4]
$LN56@SaveWICTex:
; Line 903
  00130	8b 0d 00 00 00
	00		 mov	 ecx, DWORD PTR _GUID_WICPixelFormat128bppRGBAFloat
  00136	89 4d 98	 mov	 DWORD PTR _pfGuid$[ebp], ecx
  00139	8b 15 04 00 00
	00		 mov	 edx, DWORD PTR _GUID_WICPixelFormat128bppRGBAFloat+4
  0013f	89 55 9c	 mov	 DWORD PTR _pfGuid$[ebp+4], edx
  00142	a1 08 00 00 00	 mov	 eax, DWORD PTR _GUID_WICPixelFormat128bppRGBAFloat+8
  00147	89 45 a0	 mov	 DWORD PTR _pfGuid$[ebp+8], eax
  0014a	8b 0d 0c 00 00
	00		 mov	 ecx, DWORD PTR _GUID_WICPixelFormat128bppRGBAFloat+12
  00150	89 4d a4	 mov	 DWORD PTR _pfGuid$[ebp+12], ecx
  00153	e9 de 02 00 00	 jmp	 $LN57@SaveWICTex
$LN55@SaveWICTex:
; Line 904
  00158	8b 15 00 00 00
	00		 mov	 edx, DWORD PTR _GUID_WICPixelFormat64bppRGBAHalf
  0015e	89 55 98	 mov	 DWORD PTR _pfGuid$[ebp], edx
  00161	a1 04 00 00 00	 mov	 eax, DWORD PTR _GUID_WICPixelFormat64bppRGBAHalf+4
  00166	89 45 9c	 mov	 DWORD PTR _pfGuid$[ebp+4], eax
  00169	8b 0d 08 00 00
	00		 mov	 ecx, DWORD PTR _GUID_WICPixelFormat64bppRGBAHalf+8
  0016f	89 4d a0	 mov	 DWORD PTR _pfGuid$[ebp+8], ecx
  00172	8b 15 0c 00 00
	00		 mov	 edx, DWORD PTR _GUID_WICPixelFormat64bppRGBAHalf+12
  00178	89 55 a4	 mov	 DWORD PTR _pfGuid$[ebp+12], edx
  0017b	e9 b6 02 00 00	 jmp	 $LN57@SaveWICTex
$LN54@SaveWICTex:
; Line 905
  00180	a1 00 00 00 00	 mov	 eax, DWORD PTR _GUID_WICPixelFormat64bppRGBA
  00185	89 45 98	 mov	 DWORD PTR _pfGuid$[ebp], eax
  00188	8b 0d 04 00 00
	00		 mov	 ecx, DWORD PTR _GUID_WICPixelFormat64bppRGBA+4
  0018e	89 4d 9c	 mov	 DWORD PTR _pfGuid$[ebp+4], ecx
  00191	8b 15 08 00 00
	00		 mov	 edx, DWORD PTR _GUID_WICPixelFormat64bppRGBA+8
  00197	89 55 a0	 mov	 DWORD PTR _pfGuid$[ebp+8], edx
  0019a	a1 0c 00 00 00	 mov	 eax, DWORD PTR _GUID_WICPixelFormat64bppRGBA+12
  0019f	89 45 a4	 mov	 DWORD PTR _pfGuid$[ebp+12], eax
  001a2	e9 8f 02 00 00	 jmp	 $LN57@SaveWICTex
$LN53@SaveWICTex:
; Line 906
  001a7	8b 0d 00 00 00
	00		 mov	 ecx, DWORD PTR _GUID_WICPixelFormat32bppRGBA1010102XR
  001ad	89 4d 98	 mov	 DWORD PTR _pfGuid$[ebp], ecx
  001b0	8b 15 04 00 00
	00		 mov	 edx, DWORD PTR _GUID_WICPixelFormat32bppRGBA1010102XR+4
  001b6	89 55 9c	 mov	 DWORD PTR _pfGuid$[ebp+4], edx
  001b9	a1 08 00 00 00	 mov	 eax, DWORD PTR _GUID_WICPixelFormat32bppRGBA1010102XR+8
  001be	89 45 a0	 mov	 DWORD PTR _pfGuid$[ebp+8], eax
  001c1	8b 0d 0c 00 00
	00		 mov	 ecx, DWORD PTR _GUID_WICPixelFormat32bppRGBA1010102XR+12
  001c7	89 4d a4	 mov	 DWORD PTR _pfGuid$[ebp+12], ecx
  001ca	e9 67 02 00 00	 jmp	 $LN57@SaveWICTex
$LN52@SaveWICTex:
; Line 907
  001cf	8b 15 00 00 00
	00		 mov	 edx, DWORD PTR _GUID_WICPixelFormat32bppRGBA1010102
  001d5	89 55 98	 mov	 DWORD PTR _pfGuid$[ebp], edx
  001d8	a1 04 00 00 00	 mov	 eax, DWORD PTR _GUID_WICPixelFormat32bppRGBA1010102+4
  001dd	89 45 9c	 mov	 DWORD PTR _pfGuid$[ebp+4], eax
  001e0	8b 0d 08 00 00
	00		 mov	 ecx, DWORD PTR _GUID_WICPixelFormat32bppRGBA1010102+8
  001e6	89 4d a0	 mov	 DWORD PTR _pfGuid$[ebp+8], ecx
  001e9	8b 15 0c 00 00
	00		 mov	 edx, DWORD PTR _GUID_WICPixelFormat32bppRGBA1010102+12
  001ef	89 55 a4	 mov	 DWORD PTR _pfGuid$[ebp+12], edx
  001f2	e9 3f 02 00 00	 jmp	 $LN57@SaveWICTex
$LN51@SaveWICTex:
; Line 908
  001f7	a1 00 00 00 00	 mov	 eax, DWORD PTR _GUID_WICPixelFormat16bppBGRA5551
  001fc	89 45 98	 mov	 DWORD PTR _pfGuid$[ebp], eax
  001ff	8b 0d 04 00 00
	00		 mov	 ecx, DWORD PTR _GUID_WICPixelFormat16bppBGRA5551+4
  00205	89 4d 9c	 mov	 DWORD PTR _pfGuid$[ebp+4], ecx
  00208	8b 15 08 00 00
	00		 mov	 edx, DWORD PTR _GUID_WICPixelFormat16bppBGRA5551+8
  0020e	89 55 a0	 mov	 DWORD PTR _pfGuid$[ebp+8], edx
  00211	a1 0c 00 00 00	 mov	 eax, DWORD PTR _GUID_WICPixelFormat16bppBGRA5551+12
  00216	89 45 a4	 mov	 DWORD PTR _pfGuid$[ebp+12], eax
  00219	e9 18 02 00 00	 jmp	 $LN57@SaveWICTex
$LN50@SaveWICTex:
; Line 909
  0021e	8b 0d 00 00 00
	00		 mov	 ecx, DWORD PTR _GUID_WICPixelFormat16bppBGR565
  00224	89 4d 98	 mov	 DWORD PTR _pfGuid$[ebp], ecx
  00227	8b 15 04 00 00
	00		 mov	 edx, DWORD PTR _GUID_WICPixelFormat16bppBGR565+4
  0022d	89 55 9c	 mov	 DWORD PTR _pfGuid$[ebp+4], edx
  00230	a1 08 00 00 00	 mov	 eax, DWORD PTR _GUID_WICPixelFormat16bppBGR565+8
  00235	89 45 a0	 mov	 DWORD PTR _pfGuid$[ebp+8], eax
  00238	8b 0d 0c 00 00
	00		 mov	 ecx, DWORD PTR _GUID_WICPixelFormat16bppBGR565+12
  0023e	89 4d a4	 mov	 DWORD PTR _pfGuid$[ebp+12], ecx
  00241	e9 f0 01 00 00	 jmp	 $LN57@SaveWICTex
$LN49@SaveWICTex:
; Line 910
  00246	8b 15 00 00 00
	00		 mov	 edx, DWORD PTR _GUID_WICPixelFormat32bppGrayFloat
  0024c	89 55 98	 mov	 DWORD PTR _pfGuid$[ebp], edx
  0024f	a1 04 00 00 00	 mov	 eax, DWORD PTR _GUID_WICPixelFormat32bppGrayFloat+4
  00254	89 45 9c	 mov	 DWORD PTR _pfGuid$[ebp+4], eax
  00257	8b 0d 08 00 00
	00		 mov	 ecx, DWORD PTR _GUID_WICPixelFormat32bppGrayFloat+8
  0025d	89 4d a0	 mov	 DWORD PTR _pfGuid$[ebp+8], ecx
  00260	8b 15 0c 00 00
	00		 mov	 edx, DWORD PTR _GUID_WICPixelFormat32bppGrayFloat+12
  00266	89 55 a4	 mov	 DWORD PTR _pfGuid$[ebp+12], edx
  00269	e9 c8 01 00 00	 jmp	 $LN57@SaveWICTex
$LN48@SaveWICTex:
; Line 911
  0026e	a1 00 00 00 00	 mov	 eax, DWORD PTR _GUID_WICPixelFormat16bppGrayHalf
  00273	89 45 98	 mov	 DWORD PTR _pfGuid$[ebp], eax
  00276	8b 0d 04 00 00
	00		 mov	 ecx, DWORD PTR _GUID_WICPixelFormat16bppGrayHalf+4
  0027c	89 4d 9c	 mov	 DWORD PTR _pfGuid$[ebp+4], ecx
  0027f	8b 15 08 00 00
	00		 mov	 edx, DWORD PTR _GUID_WICPixelFormat16bppGrayHalf+8
  00285	89 55 a0	 mov	 DWORD PTR _pfGuid$[ebp+8], edx
  00288	a1 0c 00 00 00	 mov	 eax, DWORD PTR _GUID_WICPixelFormat16bppGrayHalf+12
  0028d	89 45 a4	 mov	 DWORD PTR _pfGuid$[ebp+12], eax
  00290	e9 a1 01 00 00	 jmp	 $LN57@SaveWICTex
$LN47@SaveWICTex:
; Line 912
  00295	8b 0d 00 00 00
	00		 mov	 ecx, DWORD PTR _GUID_WICPixelFormat16bppGray
  0029b	89 4d 98	 mov	 DWORD PTR _pfGuid$[ebp], ecx
  0029e	8b 15 04 00 00
	00		 mov	 edx, DWORD PTR _GUID_WICPixelFormat16bppGray+4
  002a4	89 55 9c	 mov	 DWORD PTR _pfGuid$[ebp+4], edx
  002a7	a1 08 00 00 00	 mov	 eax, DWORD PTR _GUID_WICPixelFormat16bppGray+8
  002ac	89 45 a0	 mov	 DWORD PTR _pfGuid$[ebp+8], eax
  002af	8b 0d 0c 00 00
	00		 mov	 ecx, DWORD PTR _GUID_WICPixelFormat16bppGray+12
  002b5	89 4d a4	 mov	 DWORD PTR _pfGuid$[ebp+12], ecx
  002b8	e9 79 01 00 00	 jmp	 $LN57@SaveWICTex
$LN46@SaveWICTex:
; Line 913
  002bd	8b 15 00 00 00
	00		 mov	 edx, DWORD PTR _GUID_WICPixelFormat8bppGray
  002c3	89 55 98	 mov	 DWORD PTR _pfGuid$[ebp], edx
  002c6	a1 04 00 00 00	 mov	 eax, DWORD PTR _GUID_WICPixelFormat8bppGray+4
  002cb	89 45 9c	 mov	 DWORD PTR _pfGuid$[ebp+4], eax
  002ce	8b 0d 08 00 00
	00		 mov	 ecx, DWORD PTR _GUID_WICPixelFormat8bppGray+8
  002d4	89 4d a0	 mov	 DWORD PTR _pfGuid$[ebp+8], ecx
  002d7	8b 15 0c 00 00
	00		 mov	 edx, DWORD PTR _GUID_WICPixelFormat8bppGray+12
  002dd	89 55 a4	 mov	 DWORD PTR _pfGuid$[ebp+12], edx
  002e0	e9 51 01 00 00	 jmp	 $LN57@SaveWICTex
$LN45@SaveWICTex:
; Line 914
  002e5	a1 00 00 00 00	 mov	 eax, DWORD PTR _GUID_WICPixelFormat8bppAlpha
  002ea	89 45 98	 mov	 DWORD PTR _pfGuid$[ebp], eax
  002ed	8b 0d 04 00 00
	00		 mov	 ecx, DWORD PTR _GUID_WICPixelFormat8bppAlpha+4
  002f3	89 4d 9c	 mov	 DWORD PTR _pfGuid$[ebp+4], ecx
  002f6	8b 15 08 00 00
	00		 mov	 edx, DWORD PTR _GUID_WICPixelFormat8bppAlpha+8
  002fc	89 55 a0	 mov	 DWORD PTR _pfGuid$[ebp+8], edx
  002ff	a1 0c 00 00 00	 mov	 eax, DWORD PTR _GUID_WICPixelFormat8bppAlpha+12
  00304	89 45 a4	 mov	 DWORD PTR _pfGuid$[ebp+12], eax
  00307	e9 2a 01 00 00	 jmp	 $LN57@SaveWICTex
$LN44@SaveWICTex:
; Line 917
  0030c	8b 0d 00 00 00
	00		 mov	 ecx, DWORD PTR _GUID_WICPixelFormat32bppRGBA
  00312	89 4d 98	 mov	 DWORD PTR _pfGuid$[ebp], ecx
  00315	8b 15 04 00 00
	00		 mov	 edx, DWORD PTR _GUID_WICPixelFormat32bppRGBA+4
  0031b	89 55 9c	 mov	 DWORD PTR _pfGuid$[ebp+4], edx
  0031e	a1 08 00 00 00	 mov	 eax, DWORD PTR _GUID_WICPixelFormat32bppRGBA+8
  00323	89 45 a0	 mov	 DWORD PTR _pfGuid$[ebp+8], eax
  00326	8b 0d 0c 00 00
	00		 mov	 ecx, DWORD PTR _GUID_WICPixelFormat32bppRGBA+12
  0032c	89 4d a4	 mov	 DWORD PTR _pfGuid$[ebp+12], ecx
; Line 918
  0032f	e9 02 01 00 00	 jmp	 $LN57@SaveWICTex
$LN43@SaveWICTex:
; Line 921
  00334	8b 15 00 00 00
	00		 mov	 edx, DWORD PTR _GUID_WICPixelFormat32bppRGBA
  0033a	89 55 98	 mov	 DWORD PTR _pfGuid$[ebp], edx
  0033d	a1 04 00 00 00	 mov	 eax, DWORD PTR _GUID_WICPixelFormat32bppRGBA+4
  00342	89 45 9c	 mov	 DWORD PTR _pfGuid$[ebp+4], eax
  00345	8b 0d 08 00 00
	00		 mov	 ecx, DWORD PTR _GUID_WICPixelFormat32bppRGBA+8
  0034b	89 4d a0	 mov	 DWORD PTR _pfGuid$[ebp+8], ecx
  0034e	8b 15 0c 00 00
	00		 mov	 edx, DWORD PTR _GUID_WICPixelFormat32bppRGBA+12
  00354	89 55 a4	 mov	 DWORD PTR _pfGuid$[ebp+12], edx
; Line 922
  00357	c6 45 93 01	 mov	 BYTE PTR _sRGB$[ebp], 1
; Line 923
  0035b	e9 d6 00 00 00	 jmp	 $LN57@SaveWICTex
$LN42@SaveWICTex:
; Line 926
  00360	a1 00 00 00 00	 mov	 eax, DWORD PTR _GUID_WICPixelFormat32bppBGRA
  00365	89 45 98	 mov	 DWORD PTR _pfGuid$[ebp], eax
  00368	8b 0d 04 00 00
	00		 mov	 ecx, DWORD PTR _GUID_WICPixelFormat32bppBGRA+4
  0036e	89 4d 9c	 mov	 DWORD PTR _pfGuid$[ebp+4], ecx
  00371	8b 15 08 00 00
	00		 mov	 edx, DWORD PTR _GUID_WICPixelFormat32bppBGRA+8
  00377	89 55 a0	 mov	 DWORD PTR _pfGuid$[ebp+8], edx
  0037a	a1 0c 00 00 00	 mov	 eax, DWORD PTR _GUID_WICPixelFormat32bppBGRA+12
  0037f	89 45 a4	 mov	 DWORD PTR _pfGuid$[ebp+12], eax
; Line 927
  00382	e9 af 00 00 00	 jmp	 $LN57@SaveWICTex
$LN41@SaveWICTex:
; Line 930
  00387	8b 0d 00 00 00
	00		 mov	 ecx, DWORD PTR _GUID_WICPixelFormat32bppBGRA
  0038d	89 4d 98	 mov	 DWORD PTR _pfGuid$[ebp], ecx
  00390	8b 15 04 00 00
	00		 mov	 edx, DWORD PTR _GUID_WICPixelFormat32bppBGRA+4
  00396	89 55 9c	 mov	 DWORD PTR _pfGuid$[ebp+4], edx
  00399	a1 08 00 00 00	 mov	 eax, DWORD PTR _GUID_WICPixelFormat32bppBGRA+8
  0039e	89 45 a0	 mov	 DWORD PTR _pfGuid$[ebp+8], eax
  003a1	8b 0d 0c 00 00
	00		 mov	 ecx, DWORD PTR _GUID_WICPixelFormat32bppBGRA+12
  003a7	89 4d a4	 mov	 DWORD PTR _pfGuid$[ebp+12], ecx
; Line 931
  003aa	c6 45 93 01	 mov	 BYTE PTR _sRGB$[ebp], 1
; Line 932
  003ae	e9 83 00 00 00	 jmp	 $LN57@SaveWICTex
$LN40@SaveWICTex:
; Line 935
  003b3	8b 15 00 00 00
	00		 mov	 edx, DWORD PTR _GUID_WICPixelFormat32bppBGR
  003b9	89 55 98	 mov	 DWORD PTR _pfGuid$[ebp], edx
  003bc	a1 04 00 00 00	 mov	 eax, DWORD PTR _GUID_WICPixelFormat32bppBGR+4
  003c1	89 45 9c	 mov	 DWORD PTR _pfGuid$[ebp+4], eax
  003c4	8b 0d 08 00 00
	00		 mov	 ecx, DWORD PTR _GUID_WICPixelFormat32bppBGR+8
  003ca	89 4d a0	 mov	 DWORD PTR _pfGuid$[ebp+8], ecx
  003cd	8b 15 0c 00 00
	00		 mov	 edx, DWORD PTR _GUID_WICPixelFormat32bppBGR+12
  003d3	89 55 a4	 mov	 DWORD PTR _pfGuid$[ebp+12], edx
; Line 936
  003d6	eb 5e		 jmp	 SHORT $LN57@SaveWICTex
$LN39@SaveWICTex:
; Line 939
  003d8	a1 00 00 00 00	 mov	 eax, DWORD PTR _GUID_WICPixelFormat32bppBGR
  003dd	89 45 98	 mov	 DWORD PTR _pfGuid$[ebp], eax
  003e0	8b 0d 04 00 00
	00		 mov	 ecx, DWORD PTR _GUID_WICPixelFormat32bppBGR+4
  003e6	89 4d 9c	 mov	 DWORD PTR _pfGuid$[ebp+4], ecx
  003e9	8b 15 08 00 00
	00		 mov	 edx, DWORD PTR _GUID_WICPixelFormat32bppBGR+8
  003ef	89 55 a0	 mov	 DWORD PTR _pfGuid$[ebp+8], edx
  003f2	a1 0c 00 00 00	 mov	 eax, DWORD PTR _GUID_WICPixelFormat32bppBGR+12
  003f7	89 45 a4	 mov	 DWORD PTR _pfGuid$[ebp+12], eax
; Line 940
  003fa	c6 45 93 01	 mov	 BYTE PTR _sRGB$[ebp], 1
; Line 941
  003fe	eb 36		 jmp	 SHORT $LN57@SaveWICTex
$LN38@SaveWICTex:
; Line 944
  00400	6a 32		 push	 50			; 00000032H
  00402	e8 00 00 00 00	 call	 _HRESULT_FROM_WIN32
  00407	83 c4 04	 add	 esp, 4
  0040a	89 85 90 fe ff
	ff		 mov	 DWORD PTR $T22[ebp], eax
  00410	c6 45 fc 00	 mov	 BYTE PTR __$EHRec$[ebp+8], 0
  00414	8d 4d b4	 lea	 ecx, DWORD PTR _pStaging$[ebp]
  00417	e8 00 00 00 00	 call	 ??1?$ComPtr@UID3D11Texture2D@@@WRL@Microsoft@@QAE@XZ ; Microsoft::WRL::ComPtr<ID3D11Texture2D>::~ComPtr<ID3D11Texture2D>
  0041c	c7 45 fc ff ff
	ff ff		 mov	 DWORD PTR __$EHRec$[ebp+8], -1
  00423	8d 4d 1c	 lea	 ecx, DWORD PTR _setCustomProps$[ebp]
  00426	e8 00 00 00 00	 call	 ??1?$function@$$A6AXPAUIPropertyBag2@@@Z@std@@QAE@XZ ; std::function<void __cdecl(IPropertyBag2 *)>::~function<void __cdecl(IPropertyBag2 *)>
  0042b	8b 85 90 fe ff
	ff		 mov	 eax, DWORD PTR $T22[ebp]
  00431	e9 75 12 00 00	 jmp	 $LN61@SaveWICTex
$LN57@SaveWICTex:
; Line 947
  00436	e8 00 00 00 00	 call	 ?_GetWIC@@YAPAUIWICImagingFactory@@XZ ; _GetWIC
  0043b	89 45 8c	 mov	 DWORD PTR _pWIC$[ebp], eax
; Line 948
  0043e	83 7d 8c 00	 cmp	 DWORD PTR _pWIC$[ebp], 0
  00442	75 30		 jne	 SHORT $LN37@SaveWICTex
; Line 949
  00444	c7 85 8c fe ff
	ff 02 40 00 80	 mov	 DWORD PTR $T21[ebp], -2147467262 ; 80004002H
  0044e	c6 45 fc 00	 mov	 BYTE PTR __$EHRec$[ebp+8], 0
  00452	8d 4d b4	 lea	 ecx, DWORD PTR _pStaging$[ebp]
  00455	e8 00 00 00 00	 call	 ??1?$ComPtr@UID3D11Texture2D@@@WRL@Microsoft@@QAE@XZ ; Microsoft::WRL::ComPtr<ID3D11Texture2D>::~ComPtr<ID3D11Texture2D>
  0045a	c7 45 fc ff ff
	ff ff		 mov	 DWORD PTR __$EHRec$[ebp+8], -1
  00461	8d 4d 1c	 lea	 ecx, DWORD PTR _setCustomProps$[ebp]
  00464	e8 00 00 00 00	 call	 ??1?$function@$$A6AXPAUIPropertyBag2@@@Z@std@@QAE@XZ ; std::function<void __cdecl(IPropertyBag2 *)>::~function<void __cdecl(IPropertyBag2 *)>
  00469	8b 85 8c fe ff
	ff		 mov	 eax, DWORD PTR $T21[ebp]
  0046f	e9 37 12 00 00	 jmp	 $LN61@SaveWICTex
$LN37@SaveWICTex:
; Line 951
  00474	8d 4d 84	 lea	 ecx, DWORD PTR _stream$[ebp]
  00477	e8 00 00 00 00	 call	 ??0?$ComPtr@UIWICStream@@@WRL@Microsoft@@QAE@XZ ; Microsoft::WRL::ComPtr<IWICStream>::ComPtr<IWICStream>
  0047c	c6 45 fc 02	 mov	 BYTE PTR __$EHRec$[ebp+8], 2
; Line 952
  00480	8d 4d 84	 lea	 ecx, DWORD PTR _stream$[ebp]
  00483	e8 00 00 00 00	 call	 ?GetAddressOf@?$ComPtr@UIWICStream@@@WRL@Microsoft@@QAEPAPAUIWICStream@@XZ ; Microsoft::WRL::ComPtr<IWICStream>::GetAddressOf
  00488	8b f4		 mov	 esi, esp
  0048a	50		 push	 eax
  0048b	8b 4d 8c	 mov	 ecx, DWORD PTR _pWIC$[ebp]
  0048e	8b 11		 mov	 edx, DWORD PTR [ecx]
  00490	8b 45 8c	 mov	 eax, DWORD PTR _pWIC$[ebp]
  00493	50		 push	 eax
  00494	8b 4a 38	 mov	 ecx, DWORD PTR [edx+56]
  00497	ff d1		 call	 ecx
  00499	3b f4		 cmp	 esi, esp
  0049b	e8 00 00 00 00	 call	 __RTC_CheckEsp
  004a0	89 45 ac	 mov	 DWORD PTR _hr$[ebp], eax
; Line 953
  004a3	83 7d ac 00	 cmp	 DWORD PTR _hr$[ebp], 0
  004a7	7d 3b		 jge	 SHORT $LN36@SaveWICTex
; Line 954
  004a9	8b 55 ac	 mov	 edx, DWORD PTR _hr$[ebp]
  004ac	89 95 88 fe ff
	ff		 mov	 DWORD PTR $T20[ebp], edx
  004b2	c6 45 fc 01	 mov	 BYTE PTR __$EHRec$[ebp+8], 1
  004b6	8d 4d 84	 lea	 ecx, DWORD PTR _stream$[ebp]
  004b9	e8 00 00 00 00	 call	 ??1?$ComPtr@UIWICStream@@@WRL@Microsoft@@QAE@XZ ; Microsoft::WRL::ComPtr<IWICStream>::~ComPtr<IWICStream>
  004be	c6 45 fc 00	 mov	 BYTE PTR __$EHRec$[ebp+8], 0
  004c2	8d 4d b4	 lea	 ecx, DWORD PTR _pStaging$[ebp]
  004c5	e8 00 00 00 00	 call	 ??1?$ComPtr@UID3D11Texture2D@@@WRL@Microsoft@@QAE@XZ ; Microsoft::WRL::ComPtr<ID3D11Texture2D>::~ComPtr<ID3D11Texture2D>
  004ca	c7 45 fc ff ff
	ff ff		 mov	 DWORD PTR __$EHRec$[ebp+8], -1
  004d1	8d 4d 1c	 lea	 ecx, DWORD PTR _setCustomProps$[ebp]
  004d4	e8 00 00 00 00	 call	 ??1?$function@$$A6AXPAUIPropertyBag2@@@Z@std@@QAE@XZ ; std::function<void __cdecl(IPropertyBag2 *)>::~function<void __cdecl(IPropertyBag2 *)>
  004d9	8b 85 88 fe ff
	ff		 mov	 eax, DWORD PTR $T20[ebp]
  004df	e9 c7 11 00 00	 jmp	 $LN61@SaveWICTex
$LN36@SaveWICTex:
; Line 956
  004e4	8d 4d 84	 lea	 ecx, DWORD PTR _stream$[ebp]
  004e7	e8 00 00 00 00	 call	 ??C?$ComPtr@UIWICStream@@@WRL@Microsoft@@QBEPAV?$RemoveIUnknownBase@UIWICStream@@@Details@12@XZ ; Microsoft::WRL::ComPtr<IWICStream>::operator->
  004ec	89 85 38 fe ff
	ff		 mov	 DWORD PTR tv135[ebp], eax
  004f2	8b f4		 mov	 esi, esp
  004f4	68 00 00 00 40	 push	 1073741824		; 40000000H
  004f9	8b 45 14	 mov	 eax, DWORD PTR _fileName$[ebp]
  004fc	50		 push	 eax
  004fd	8b 8d 38 fe ff
	ff		 mov	 ecx, DWORD PTR tv135[ebp]
  00503	51		 push	 ecx
  00504	8b 95 38 fe ff
	ff		 mov	 edx, DWORD PTR tv135[ebp]
  0050a	8b 02		 mov	 eax, DWORD PTR [edx]
  0050c	8b 48 3c	 mov	 ecx, DWORD PTR [eax+60]
  0050f	ff d1		 call	 ecx
  00511	3b f4		 cmp	 esi, esp
  00513	e8 00 00 00 00	 call	 __RTC_CheckEsp
  00518	89 45 ac	 mov	 DWORD PTR _hr$[ebp], eax
; Line 957
  0051b	83 7d ac 00	 cmp	 DWORD PTR _hr$[ebp], 0
  0051f	7d 3b		 jge	 SHORT $LN35@SaveWICTex
; Line 958
  00521	8b 55 ac	 mov	 edx, DWORD PTR _hr$[ebp]
  00524	89 95 84 fe ff
	ff		 mov	 DWORD PTR $T19[ebp], edx
  0052a	c6 45 fc 01	 mov	 BYTE PTR __$EHRec$[ebp+8], 1
  0052e	8d 4d 84	 lea	 ecx, DWORD PTR _stream$[ebp]
  00531	e8 00 00 00 00	 call	 ??1?$ComPtr@UIWICStream@@@WRL@Microsoft@@QAE@XZ ; Microsoft::WRL::ComPtr<IWICStream>::~ComPtr<IWICStream>
  00536	c6 45 fc 00	 mov	 BYTE PTR __$EHRec$[ebp+8], 0
  0053a	8d 4d b4	 lea	 ecx, DWORD PTR _pStaging$[ebp]
  0053d	e8 00 00 00 00	 call	 ??1?$ComPtr@UID3D11Texture2D@@@WRL@Microsoft@@QAE@XZ ; Microsoft::WRL::ComPtr<ID3D11Texture2D>::~ComPtr<ID3D11Texture2D>
  00542	c7 45 fc ff ff
	ff ff		 mov	 DWORD PTR __$EHRec$[ebp+8], -1
  00549	8d 4d 1c	 lea	 ecx, DWORD PTR _setCustomProps$[ebp]
  0054c	e8 00 00 00 00	 call	 ??1?$function@$$A6AXPAUIPropertyBag2@@@Z@std@@QAE@XZ ; std::function<void __cdecl(IPropertyBag2 *)>::~function<void __cdecl(IPropertyBag2 *)>
  00551	8b 85 84 fe ff
	ff		 mov	 eax, DWORD PTR $T19[ebp]
  00557	e9 4f 11 00 00	 jmp	 $LN61@SaveWICTex
$LN35@SaveWICTex:
; Line 960
  0055c	8d 8d 78 ff ff
	ff		 lea	 ecx, DWORD PTR _encoder$[ebp]
  00562	e8 00 00 00 00	 call	 ??0?$ComPtr@UIWICBitmapEncoder@@@WRL@Microsoft@@QAE@XZ ; Microsoft::WRL::ComPtr<IWICBitmapEncoder>::ComPtr<IWICBitmapEncoder>
  00567	c6 45 fc 03	 mov	 BYTE PTR __$EHRec$[ebp+8], 3
; Line 961
  0056b	8d 8d 78 ff ff
	ff		 lea	 ecx, DWORD PTR _encoder$[ebp]
  00571	e8 00 00 00 00	 call	 ?GetAddressOf@?$ComPtr@UIWICBitmapEncoder@@@WRL@Microsoft@@QAEPAPAUIWICBitmapEncoder@@XZ ; Microsoft::WRL::ComPtr<IWICBitmapEncoder>::GetAddressOf
  00576	8b f4		 mov	 esi, esp
  00578	50		 push	 eax
  00579	6a 00		 push	 0
  0057b	8b 45 10	 mov	 eax, DWORD PTR _guidContainerFormat$[ebp]
  0057e	50		 push	 eax
  0057f	8b 4d 8c	 mov	 ecx, DWORD PTR _pWIC$[ebp]
  00582	8b 11		 mov	 edx, DWORD PTR [ecx]
  00584	8b 45 8c	 mov	 eax, DWORD PTR _pWIC$[ebp]
  00587	50		 push	 eax
  00588	8b 4a 20	 mov	 ecx, DWORD PTR [edx+32]
  0058b	ff d1		 call	 ecx
  0058d	3b f4		 cmp	 esi, esp
  0058f	e8 00 00 00 00	 call	 __RTC_CheckEsp
  00594	89 45 ac	 mov	 DWORD PTR _hr$[ebp], eax
; Line 962
  00597	83 7d ac 00	 cmp	 DWORD PTR _hr$[ebp], 0
  0059b	7d 4a		 jge	 SHORT $LN34@SaveWICTex
; Line 963
  0059d	8b 55 ac	 mov	 edx, DWORD PTR _hr$[ebp]
  005a0	89 95 80 fe ff
	ff		 mov	 DWORD PTR $T18[ebp], edx
  005a6	c6 45 fc 02	 mov	 BYTE PTR __$EHRec$[ebp+8], 2
  005aa	8d 8d 78 ff ff
	ff		 lea	 ecx, DWORD PTR _encoder$[ebp]
  005b0	e8 00 00 00 00	 call	 ??1?$ComPtr@UIWICBitmapEncoder@@@WRL@Microsoft@@QAE@XZ ; Microsoft::WRL::ComPtr<IWICBitmapEncoder>::~ComPtr<IWICBitmapEncoder>
  005b5	c6 45 fc 01	 mov	 BYTE PTR __$EHRec$[ebp+8], 1
  005b9	8d 4d 84	 lea	 ecx, DWORD PTR _stream$[ebp]
  005bc	e8 00 00 00 00	 call	 ??1?$ComPtr@UIWICStream@@@WRL@Microsoft@@QAE@XZ ; Microsoft::WRL::ComPtr<IWICStream>::~ComPtr<IWICStream>
  005c1	c6 45 fc 00	 mov	 BYTE PTR __$EHRec$[ebp+8], 0
  005c5	8d 4d b4	 lea	 ecx, DWORD PTR _pStaging$[ebp]
  005c8	e8 00 00 00 00	 call	 ??1?$ComPtr@UID3D11Texture2D@@@WRL@Microsoft@@QAE@XZ ; Microsoft::WRL::ComPtr<ID3D11Texture2D>::~ComPtr<ID3D11Texture2D>
  005cd	c7 45 fc ff ff
	ff ff		 mov	 DWORD PTR __$EHRec$[ebp+8], -1
  005d4	8d 4d 1c	 lea	 ecx, DWORD PTR _setCustomProps$[ebp]
  005d7	e8 00 00 00 00	 call	 ??1?$function@$$A6AXPAUIPropertyBag2@@@Z@std@@QAE@XZ ; std::function<void __cdecl(IPropertyBag2 *)>::~function<void __cdecl(IPropertyBag2 *)>
  005dc	8b 85 80 fe ff
	ff		 mov	 eax, DWORD PTR $T18[ebp]
  005e2	e9 c4 10 00 00	 jmp	 $LN61@SaveWICTex
$LN34@SaveWICTex:
; Line 965
  005e7	8d 8d 78 ff ff
	ff		 lea	 ecx, DWORD PTR _encoder$[ebp]
  005ed	e8 00 00 00 00	 call	 ??C?$ComPtr@UIWICBitmapEncoder@@@WRL@Microsoft@@QBEPAV?$RemoveIUnknownBase@UIWICBitmapEncoder@@@Details@12@XZ ; Microsoft::WRL::ComPtr<IWICBitmapEncoder>::operator->
  005f2	89 85 34 fe ff
	ff		 mov	 DWORD PTR tv162[ebp], eax
  005f8	8b f4		 mov	 esi, esp
  005fa	6a 02		 push	 2
  005fc	8d 4d 84	 lea	 ecx, DWORD PTR _stream$[ebp]
  005ff	e8 00 00 00 00	 call	 ?Get@?$ComPtr@UIWICStream@@@WRL@Microsoft@@QBEPAUIWICStream@@XZ ; Microsoft::WRL::ComPtr<IWICStream>::Get
  00604	50		 push	 eax
  00605	8b 85 34 fe ff
	ff		 mov	 eax, DWORD PTR tv162[ebp]
  0060b	50		 push	 eax
  0060c	8b 8d 34 fe ff
	ff		 mov	 ecx, DWORD PTR tv162[ebp]
  00612	8b 11		 mov	 edx, DWORD PTR [ecx]
  00614	8b 42 0c	 mov	 eax, DWORD PTR [edx+12]
  00617	ff d0		 call	 eax
  00619	3b f4		 cmp	 esi, esp
  0061b	e8 00 00 00 00	 call	 __RTC_CheckEsp
  00620	89 45 ac	 mov	 DWORD PTR _hr$[ebp], eax
; Line 966
  00623	83 7d ac 00	 cmp	 DWORD PTR _hr$[ebp], 0
  00627	7d 4a		 jge	 SHORT $LN33@SaveWICTex
; Line 967
  00629	8b 4d ac	 mov	 ecx, DWORD PTR _hr$[ebp]
  0062c	89 8d 7c fe ff
	ff		 mov	 DWORD PTR $T17[ebp], ecx
  00632	c6 45 fc 02	 mov	 BYTE PTR __$EHRec$[ebp+8], 2
  00636	8d 8d 78 ff ff
	ff		 lea	 ecx, DWORD PTR _encoder$[ebp]
  0063c	e8 00 00 00 00	 call	 ??1?$ComPtr@UIWICBitmapEncoder@@@WRL@Microsoft@@QAE@XZ ; Microsoft::WRL::ComPtr<IWICBitmapEncoder>::~ComPtr<IWICBitmapEncoder>
  00641	c6 45 fc 01	 mov	 BYTE PTR __$EHRec$[ebp+8], 1
  00645	8d 4d 84	 lea	 ecx, DWORD PTR _stream$[ebp]
  00648	e8 00 00 00 00	 call	 ??1?$ComPtr@UIWICStream@@@WRL@Microsoft@@QAE@XZ ; Microsoft::WRL::ComPtr<IWICStream>::~ComPtr<IWICStream>
  0064d	c6 45 fc 00	 mov	 BYTE PTR __$EHRec$[ebp+8], 0
  00651	8d 4d b4	 lea	 ecx, DWORD PTR _pStaging$[ebp]
  00654	e8 00 00 00 00	 call	 ??1?$ComPtr@UID3D11Texture2D@@@WRL@Microsoft@@QAE@XZ ; Microsoft::WRL::ComPtr<ID3D11Texture2D>::~ComPtr<ID3D11Texture2D>
  00659	c7 45 fc ff ff
	ff ff		 mov	 DWORD PTR __$EHRec$[ebp+8], -1
  00660	8d 4d 1c	 lea	 ecx, DWORD PTR _setCustomProps$[ebp]
  00663	e8 00 00 00 00	 call	 ??1?$function@$$A6AXPAUIPropertyBag2@@@Z@std@@QAE@XZ ; std::function<void __cdecl(IPropertyBag2 *)>::~function<void __cdecl(IPropertyBag2 *)>
  00668	8b 85 7c fe ff
	ff		 mov	 eax, DWORD PTR $T17[ebp]
  0066e	e9 38 10 00 00	 jmp	 $LN61@SaveWICTex
$LN33@SaveWICTex:
; Line 969
  00673	8d 8d 6c ff ff
	ff		 lea	 ecx, DWORD PTR _frame$[ebp]
  00679	e8 00 00 00 00	 call	 ??0?$ComPtr@UIWICBitmapFrameEncode@@@WRL@Microsoft@@QAE@XZ ; Microsoft::WRL::ComPtr<IWICBitmapFrameEncode>::ComPtr<IWICBitmapFrameEncode>
  0067e	c6 45 fc 04	 mov	 BYTE PTR __$EHRec$[ebp+8], 4
; Line 970
  00682	8d 8d 60 ff ff
	ff		 lea	 ecx, DWORD PTR _props$[ebp]
  00688	e8 00 00 00 00	 call	 ??0?$ComPtr@UIPropertyBag2@@@WRL@Microsoft@@QAE@XZ ; Microsoft::WRL::ComPtr<IPropertyBag2>::ComPtr<IPropertyBag2>
  0068d	c6 45 fc 05	 mov	 BYTE PTR __$EHRec$[ebp+8], 5
; Line 971
  00691	8d 8d 78 ff ff
	ff		 lea	 ecx, DWORD PTR _encoder$[ebp]
  00697	e8 00 00 00 00	 call	 ??C?$ComPtr@UIWICBitmapEncoder@@@WRL@Microsoft@@QBEPAV?$RemoveIUnknownBase@UIWICBitmapEncoder@@@Details@12@XZ ; Microsoft::WRL::ComPtr<IWICBitmapEncoder>::operator->
  0069c	89 85 30 fe ff
	ff		 mov	 DWORD PTR tv188[ebp], eax
  006a2	8d 8d 60 ff ff
	ff		 lea	 ecx, DWORD PTR _props$[ebp]
  006a8	e8 00 00 00 00	 call	 ?GetAddressOf@?$ComPtr@UIPropertyBag2@@@WRL@Microsoft@@QAEPAPAUIPropertyBag2@@XZ ; Microsoft::WRL::ComPtr<IPropertyBag2>::GetAddressOf
  006ad	8b f4		 mov	 esi, esp
  006af	50		 push	 eax
  006b0	8d 8d 6c ff ff
	ff		 lea	 ecx, DWORD PTR _frame$[ebp]
  006b6	e8 00 00 00 00	 call	 ?GetAddressOf@?$ComPtr@UIWICBitmapFrameEncode@@@WRL@Microsoft@@QAEPAPAUIWICBitmapFrameEncode@@XZ ; Microsoft::WRL::ComPtr<IWICBitmapFrameEncode>::GetAddressOf
  006bb	50		 push	 eax
  006bc	8b 95 30 fe ff
	ff		 mov	 edx, DWORD PTR tv188[ebp]
  006c2	52		 push	 edx
  006c3	8b 85 30 fe ff
	ff		 mov	 eax, DWORD PTR tv188[ebp]
  006c9	8b 08		 mov	 ecx, DWORD PTR [eax]
  006cb	8b 51 28	 mov	 edx, DWORD PTR [ecx+40]
  006ce	ff d2		 call	 edx
  006d0	3b f4		 cmp	 esi, esp
  006d2	e8 00 00 00 00	 call	 __RTC_CheckEsp
  006d7	89 45 ac	 mov	 DWORD PTR _hr$[ebp], eax
; Line 972
  006da	83 7d ac 00	 cmp	 DWORD PTR _hr$[ebp], 0
  006de	7d 68		 jge	 SHORT $LN32@SaveWICTex
; Line 973
  006e0	8b 45 ac	 mov	 eax, DWORD PTR _hr$[ebp]
  006e3	89 85 78 fe ff
	ff		 mov	 DWORD PTR $T16[ebp], eax
  006e9	c6 45 fc 04	 mov	 BYTE PTR __$EHRec$[ebp+8], 4
  006ed	8d 8d 60 ff ff
	ff		 lea	 ecx, DWORD PTR _props$[ebp]
  006f3	e8 00 00 00 00	 call	 ??1?$ComPtr@UIPropertyBag2@@@WRL@Microsoft@@QAE@XZ ; Microsoft::WRL::ComPtr<IPropertyBag2>::~ComPtr<IPropertyBag2>
  006f8	c6 45 fc 03	 mov	 BYTE PTR __$EHRec$[ebp+8], 3
  006fc	8d 8d 6c ff ff
	ff		 lea	 ecx, DWORD PTR _frame$[ebp]
  00702	e8 00 00 00 00	 call	 ??1?$ComPtr@UIWICBitmapFrameEncode@@@WRL@Microsoft@@QAE@XZ ; Microsoft::WRL::ComPtr<IWICBitmapFrameEncode>::~ComPtr<IWICBitmapFrameEncode>
  00707	c6 45 fc 02	 mov	 BYTE PTR __$EHRec$[ebp+8], 2
  0070b	8d 8d 78 ff ff
	ff		 lea	 ecx, DWORD PTR _encoder$[ebp]
  00711	e8 00 00 00 00	 call	 ??1?$ComPtr@UIWICBitmapEncoder@@@WRL@Microsoft@@QAE@XZ ; Microsoft::WRL::ComPtr<IWICBitmapEncoder>::~ComPtr<IWICBitmapEncoder>
  00716	c6 45 fc 01	 mov	 BYTE PTR __$EHRec$[ebp+8], 1
  0071a	8d 4d 84	 lea	 ecx, DWORD PTR _stream$[ebp]
  0071d	e8 00 00 00 00	 call	 ??1?$ComPtr@UIWICStream@@@WRL@Microsoft@@QAE@XZ ; Microsoft::WRL::ComPtr<IWICStream>::~ComPtr<IWICStream>
  00722	c6 45 fc 00	 mov	 BYTE PTR __$EHRec$[ebp+8], 0
  00726	8d 4d b4	 lea	 ecx, DWORD PTR _pStaging$[ebp]
  00729	e8 00 00 00 00	 call	 ??1?$ComPtr@UID3D11Texture2D@@@WRL@Microsoft@@QAE@XZ ; Microsoft::WRL::ComPtr<ID3D11Texture2D>::~ComPtr<ID3D11Texture2D>
  0072e	c7 45 fc ff ff
	ff ff		 mov	 DWORD PTR __$EHRec$[ebp+8], -1
  00735	8d 4d 1c	 lea	 ecx, DWORD PTR _setCustomProps$[ebp]
  00738	e8 00 00 00 00	 call	 ??1?$function@$$A6AXPAUIPropertyBag2@@@Z@std@@QAE@XZ ; std::function<void __cdecl(IPropertyBag2 *)>::~function<void __cdecl(IPropertyBag2 *)>
  0073d	8b 85 78 fe ff
	ff		 mov	 eax, DWORD PTR $T16[ebp]
  00743	e9 63 0f 00 00	 jmp	 $LN61@SaveWICTex
$LN32@SaveWICTex:
; Line 975
  00748	83 7d 18 00	 cmp	 DWORD PTR _targetFormat$[ebp], 0
  0074c	0f 84 c9 00 00
	00		 je	 $LN31@SaveWICTex
  00752	6a 10		 push	 16			; 00000010H
  00754	68 00 00 00 00	 push	 OFFSET _GUID_ContainerFormatBmp
  00759	8b 4d 10	 mov	 ecx, DWORD PTR _guidContainerFormat$[ebp]
  0075c	51		 push	 ecx
  0075d	e8 00 00 00 00	 call	 _memcmp
  00762	83 c4 0c	 add	 esp, 12			; 0000000cH
  00765	89 85 2c fe ff
	ff		 mov	 DWORD PTR tv204[ebp], eax
  0076b	83 bd 2c fe ff
	ff 00		 cmp	 DWORD PTR tv204[ebp], 0
  00772	0f 85 a3 00 00
	00		 jne	 $LN31@SaveWICTex
  00778	0f b6 15 00 00
	00 00		 movzx	 edx, BYTE PTR _g_WIC2
  0077f	85 d2		 test	 edx, edx
  00781	0f 84 94 00 00
	00		 je	 $LN31@SaveWICTex
; Line 978
  00787	c7 85 38 ff ff
	ff 00 00 00 00	 mov	 DWORD PTR _option$30[ebp], 0
  00791	33 c0		 xor	 eax, eax
  00793	89 85 3c ff ff
	ff		 mov	 DWORD PTR _option$30[ebp+4], eax
  00799	89 85 40 ff ff
	ff		 mov	 DWORD PTR _option$30[ebp+8], eax
  0079f	89 85 44 ff ff
	ff		 mov	 DWORD PTR _option$30[ebp+12], eax
  007a5	89 85 48 ff ff
	ff		 mov	 DWORD PTR _option$30[ebp+16], eax
  007ab	89 85 4c ff ff
	ff		 mov	 DWORD PTR _option$30[ebp+20], eax
  007b1	89 85 50 ff ff
	ff		 mov	 DWORD PTR _option$30[ebp+24], eax
  007b7	89 85 54 ff ff
	ff		 mov	 DWORD PTR _option$30[ebp+28], eax
; Line 979
  007bd	c7 85 44 ff ff
	ff 00 00 00 00	 mov	 DWORD PTR _option$30[ebp+12], OFFSET $SG160180
; Line 982
  007c7	b9 0b 00 00 00	 mov	 ecx, 11			; 0000000bH
  007cc	66 89 8d 20 ff
	ff ff		 mov	 WORD PTR _varValue$29[ebp], cx
; Line 983
  007d3	83 ca ff	 or	 edx, -1
  007d6	66 89 95 28 ff
	ff ff		 mov	 WORD PTR _varValue$29[ebp+8], dx
; Line 984
  007dd	8d 8d 60 ff ff
	ff		 lea	 ecx, DWORD PTR _props$[ebp]
  007e3	e8 00 00 00 00	 call	 ??C?$ComPtr@UIPropertyBag2@@@WRL@Microsoft@@QBEPAV?$RemoveIUnknownBase@UIPropertyBag2@@@Details@12@XZ ; Microsoft::WRL::ComPtr<IPropertyBag2>::operator->
  007e8	89 85 28 fe ff
	ff		 mov	 DWORD PTR tv218[ebp], eax
  007ee	8b f4		 mov	 esi, esp
  007f0	8d 85 20 ff ff
	ff		 lea	 eax, DWORD PTR _varValue$29[ebp]
  007f6	50		 push	 eax
  007f7	8d 8d 38 ff ff
	ff		 lea	 ecx, DWORD PTR _option$30[ebp]
  007fd	51		 push	 ecx
  007fe	6a 01		 push	 1
  00800	8b 95 28 fe ff
	ff		 mov	 edx, DWORD PTR tv218[ebp]
  00806	52		 push	 edx
  00807	8b 85 28 fe ff
	ff		 mov	 eax, DWORD PTR tv218[ebp]
  0080d	8b 08		 mov	 ecx, DWORD PTR [eax]
  0080f	8b 51 10	 mov	 edx, DWORD PTR [ecx+16]
  00812	ff d2		 call	 edx
  00814	3b f4		 cmp	 esi, esp
  00816	e8 00 00 00 00	 call	 __RTC_CheckEsp
$LN31@SaveWICTex:
; Line 987
  0081b	8d 4d 1c	 lea	 ecx, DWORD PTR _setCustomProps$[ebp]
  0081e	e8 00 00 00 00	 call	 ??B?$function@$$A6AXPAUIPropertyBag2@@@Z@std@@QBE_NXZ ; std::function<void __cdecl(IPropertyBag2 *)>::operator bool
  00823	0f b6 c0	 movzx	 eax, al
  00826	85 c0		 test	 eax, eax
  00828	74 14		 je	 SHORT $LN30@SaveWICTex
; Line 989
  0082a	8d 8d 60 ff ff
	ff		 lea	 ecx, DWORD PTR _props$[ebp]
  00830	e8 00 00 00 00	 call	 ?Get@?$ComPtr@UIPropertyBag2@@@WRL@Microsoft@@QBEPAUIPropertyBag2@@XZ ; Microsoft::WRL::ComPtr<IPropertyBag2>::Get
  00835	50		 push	 eax
  00836	8d 4d 1c	 lea	 ecx, DWORD PTR _setCustomProps$[ebp]
  00839	e8 00 00 00 00	 call	 ??R?$_Func_class@XPAUIPropertyBag2@@@std@@QBEXPAUIPropertyBag2@@@Z ; std::_Func_class<void,IPropertyBag2 *>::operator()
$LN30@SaveWICTex:
; Line 992
  0083e	8d 8d 6c ff ff
	ff		 lea	 ecx, DWORD PTR _frame$[ebp]
  00844	e8 00 00 00 00	 call	 ??C?$ComPtr@UIWICBitmapFrameEncode@@@WRL@Microsoft@@QBEPAV?$RemoveIUnknownBase@UIWICBitmapFrameEncode@@@Details@12@XZ ; Microsoft::WRL::ComPtr<IWICBitmapFrameEncode>::operator->
  00849	89 85 24 fe ff
	ff		 mov	 DWORD PTR tv275[ebp], eax
  0084f	8d 8d 60 ff ff
	ff		 lea	 ecx, DWORD PTR _props$[ebp]
  00855	e8 00 00 00 00	 call	 ?Get@?$ComPtr@UIPropertyBag2@@@WRL@Microsoft@@QBEPAUIPropertyBag2@@XZ ; Microsoft::WRL::ComPtr<IPropertyBag2>::Get
  0085a	8b f4		 mov	 esi, esp
  0085c	50		 push	 eax
  0085d	8b 8d 24 fe ff
	ff		 mov	 ecx, DWORD PTR tv275[ebp]
  00863	51		 push	 ecx
  00864	8b 95 24 fe ff
	ff		 mov	 edx, DWORD PTR tv275[ebp]
  0086a	8b 02		 mov	 eax, DWORD PTR [edx]
  0086c	8b 48 0c	 mov	 ecx, DWORD PTR [eax+12]
  0086f	ff d1		 call	 ecx
  00871	3b f4		 cmp	 esi, esp
  00873	e8 00 00 00 00	 call	 __RTC_CheckEsp
  00878	89 45 ac	 mov	 DWORD PTR _hr$[ebp], eax
; Line 993
  0087b	83 7d ac 00	 cmp	 DWORD PTR _hr$[ebp], 0
  0087f	7d 68		 jge	 SHORT $LN29@SaveWICTex
; Line 994
  00881	8b 55 ac	 mov	 edx, DWORD PTR _hr$[ebp]
  00884	89 95 74 fe ff
	ff		 mov	 DWORD PTR $T15[ebp], edx
  0088a	c6 45 fc 04	 mov	 BYTE PTR __$EHRec$[ebp+8], 4
  0088e	8d 8d 60 ff ff
	ff		 lea	 ecx, DWORD PTR _props$[ebp]
  00894	e8 00 00 00 00	 call	 ??1?$ComPtr@UIPropertyBag2@@@WRL@Microsoft@@QAE@XZ ; Microsoft::WRL::ComPtr<IPropertyBag2>::~ComPtr<IPropertyBag2>
  00899	c6 45 fc 03	 mov	 BYTE PTR __$EHRec$[ebp+8], 3
  0089d	8d 8d 6c ff ff
	ff		 lea	 ecx, DWORD PTR _frame$[ebp]
  008a3	e8 00 00 00 00	 call	 ??1?$ComPtr@UIWICBitmapFrameEncode@@@WRL@Microsoft@@QAE@XZ ; Microsoft::WRL::ComPtr<IWICBitmapFrameEncode>::~ComPtr<IWICBitmapFrameEncode>
  008a8	c6 45 fc 02	 mov	 BYTE PTR __$EHRec$[ebp+8], 2
  008ac	8d 8d 78 ff ff
	ff		 lea	 ecx, DWORD PTR _encoder$[ebp]
  008b2	e8 00 00 00 00	 call	 ??1?$ComPtr@UIWICBitmapEncoder@@@WRL@Microsoft@@QAE@XZ ; Microsoft::WRL::ComPtr<IWICBitmapEncoder>::~ComPtr<IWICBitmapEncoder>
  008b7	c6 45 fc 01	 mov	 BYTE PTR __$EHRec$[ebp+8], 1
  008bb	8d 4d 84	 lea	 ecx, DWORD PTR _stream$[ebp]
  008be	e8 00 00 00 00	 call	 ??1?$ComPtr@UIWICStream@@@WRL@Microsoft@@QAE@XZ ; Microsoft::WRL::ComPtr<IWICStream>::~ComPtr<IWICStream>
  008c3	c6 45 fc 00	 mov	 BYTE PTR __$EHRec$[ebp+8], 0
  008c7	8d 4d b4	 lea	 ecx, DWORD PTR _pStaging$[ebp]
  008ca	e8 00 00 00 00	 call	 ??1?$ComPtr@UID3D11Texture2D@@@WRL@Microsoft@@QAE@XZ ; Microsoft::WRL::ComPtr<ID3D11Texture2D>::~ComPtr<ID3D11Texture2D>
  008cf	c7 45 fc ff ff
	ff ff		 mov	 DWORD PTR __$EHRec$[ebp+8], -1
  008d6	8d 4d 1c	 lea	 ecx, DWORD PTR _setCustomProps$[ebp]
  008d9	e8 00 00 00 00	 call	 ??1?$function@$$A6AXPAUIPropertyBag2@@@Z@std@@QAE@XZ ; std::function<void __cdecl(IPropertyBag2 *)>::~function<void __cdecl(IPropertyBag2 *)>
  008de	8b 85 74 fe ff
	ff		 mov	 eax, DWORD PTR $T15[ebp]
  008e4	e9 c2 0d 00 00	 jmp	 $LN61@SaveWICTex
$LN29@SaveWICTex:
; Line 996
  008e9	8d 8d 6c ff ff
	ff		 lea	 ecx, DWORD PTR _frame$[ebp]
  008ef	e8 00 00 00 00	 call	 ??C?$ComPtr@UIWICBitmapFrameEncode@@@WRL@Microsoft@@QBEPAV?$RemoveIUnknownBase@UIWICBitmapFrameEncode@@@Details@12@XZ ; Microsoft::WRL::ComPtr<IWICBitmapFrameEncode>::operator->
  008f4	89 85 20 fe ff
	ff		 mov	 DWORD PTR tv290[ebp], eax
  008fa	8b f4		 mov	 esi, esp
  008fc	8b 45 c4	 mov	 eax, DWORD PTR _desc$[ebp+4]
  008ff	50		 push	 eax
  00900	8b 4d c0	 mov	 ecx, DWORD PTR _desc$[ebp]
  00903	51		 push	 ecx
  00904	8b 95 20 fe ff
	ff		 mov	 edx, DWORD PTR tv290[ebp]
  0090a	52		 push	 edx
  0090b	8b 85 20 fe ff
	ff		 mov	 eax, DWORD PTR tv290[ebp]
  00911	8b 08		 mov	 ecx, DWORD PTR [eax]
  00913	8b 51 10	 mov	 edx, DWORD PTR [ecx+16]
  00916	ff d2		 call	 edx
  00918	3b f4		 cmp	 esi, esp
  0091a	e8 00 00 00 00	 call	 __RTC_CheckEsp
  0091f	89 45 ac	 mov	 DWORD PTR _hr$[ebp], eax
; Line 997
  00922	83 7d ac 00	 cmp	 DWORD PTR _hr$[ebp], 0
  00926	7d 68		 jge	 SHORT $LN28@SaveWICTex
; Line 998
  00928	8b 45 ac	 mov	 eax, DWORD PTR _hr$[ebp]
  0092b	89 85 70 fe ff
	ff		 mov	 DWORD PTR $T14[ebp], eax
  00931	c6 45 fc 04	 mov	 BYTE PTR __$EHRec$[ebp+8], 4
  00935	8d 8d 60 ff ff
	ff		 lea	 ecx, DWORD PTR _props$[ebp]
  0093b	e8 00 00 00 00	 call	 ??1?$ComPtr@UIPropertyBag2@@@WRL@Microsoft@@QAE@XZ ; Microsoft::WRL::ComPtr<IPropertyBag2>::~ComPtr<IPropertyBag2>
  00940	c6 45 fc 03	 mov	 BYTE PTR __$EHRec$[ebp+8], 3
  00944	8d 8d 6c ff ff
	ff		 lea	 ecx, DWORD PTR _frame$[ebp]
  0094a	e8 00 00 00 00	 call	 ??1?$ComPtr@UIWICBitmapFrameEncode@@@WRL@Microsoft@@QAE@XZ ; Microsoft::WRL::ComPtr<IWICBitmapFrameEncode>::~ComPtr<IWICBitmapFrameEncode>
  0094f	c6 45 fc 02	 mov	 BYTE PTR __$EHRec$[ebp+8], 2
  00953	8d 8d 78 ff ff
	ff		 lea	 ecx, DWORD PTR _encoder$[ebp]
  00959	e8 00 00 00 00	 call	 ??1?$ComPtr@UIWICBitmapEncoder@@@WRL@Microsoft@@QAE@XZ ; Microsoft::WRL::ComPtr<IWICBitmapEncoder>::~ComPtr<IWICBitmapEncoder>
  0095e	c6 45 fc 01	 mov	 BYTE PTR __$EHRec$[ebp+8], 1
  00962	8d 4d 84	 lea	 ecx, DWORD PTR _stream$[ebp]
  00965	e8 00 00 00 00	 call	 ??1?$ComPtr@UIWICStream@@@WRL@Microsoft@@QAE@XZ ; Microsoft::WRL::ComPtr<IWICStream>::~ComPtr<IWICStream>
  0096a	c6 45 fc 00	 mov	 BYTE PTR __$EHRec$[ebp+8], 0
  0096e	8d 4d b4	 lea	 ecx, DWORD PTR _pStaging$[ebp]
  00971	e8 00 00 00 00	 call	 ??1?$ComPtr@UID3D11Texture2D@@@WRL@Microsoft@@QAE@XZ ; Microsoft::WRL::ComPtr<ID3D11Texture2D>::~ComPtr<ID3D11Texture2D>
  00976	c7 45 fc ff ff
	ff ff		 mov	 DWORD PTR __$EHRec$[ebp+8], -1
  0097d	8d 4d 1c	 lea	 ecx, DWORD PTR _setCustomProps$[ebp]
  00980	e8 00 00 00 00	 call	 ??1?$function@$$A6AXPAUIPropertyBag2@@@Z@std@@QAE@XZ ; std::function<void __cdecl(IPropertyBag2 *)>::~function<void __cdecl(IPropertyBag2 *)>
  00985	8b 85 70 fe ff
	ff		 mov	 eax, DWORD PTR $T14[ebp]
  0098b	e9 1b 0d 00 00	 jmp	 $LN61@SaveWICTex
$LN28@SaveWICTex:
; Line 1000
  00990	8d 8d 6c ff ff
	ff		 lea	 ecx, DWORD PTR _frame$[ebp]
  00996	e8 00 00 00 00	 call	 ??C?$ComPtr@UIWICBitmapFrameEncode@@@WRL@Microsoft@@QBEPAV?$RemoveIUnknownBase@UIWICBitmapFrameEncode@@@Details@12@XZ ; Microsoft::WRL::ComPtr<IWICBitmapFrameEncode>::operator->
  0099b	89 85 1c fe ff
	ff		 mov	 DWORD PTR tv304[ebp], eax
  009a1	8b f4		 mov	 esi, esp
  009a3	83 ec 08	 sub	 esp, 8
  009a6	f2 0f 10 05 00
	00 00 00	 movsd	 xmm0, QWORD PTR __real@4052000000000000
  009ae	f2 0f 11 04 24	 movsd	 QWORD PTR [esp], xmm0
  009b3	83 ec 08	 sub	 esp, 8
  009b6	f2 0f 10 05 00
	00 00 00	 movsd	 xmm0, QWORD PTR __real@4052000000000000
  009be	f2 0f 11 04 24	 movsd	 QWORD PTR [esp], xmm0
  009c3	8b 8d 1c fe ff
	ff		 mov	 ecx, DWORD PTR tv304[ebp]
  009c9	51		 push	 ecx
  009ca	8b 95 1c fe ff
	ff		 mov	 edx, DWORD PTR tv304[ebp]
  009d0	8b 02		 mov	 eax, DWORD PTR [edx]
  009d2	8b 48 14	 mov	 ecx, DWORD PTR [eax+20]
  009d5	ff d1		 call	 ecx
  009d7	3b f4		 cmp	 esi, esp
  009d9	e8 00 00 00 00	 call	 __RTC_CheckEsp
  009de	89 45 ac	 mov	 DWORD PTR _hr$[ebp], eax
; Line 1001
  009e1	83 7d ac 00	 cmp	 DWORD PTR _hr$[ebp], 0
  009e5	7d 68		 jge	 SHORT $LN27@SaveWICTex
; Line 1002
  009e7	8b 55 ac	 mov	 edx, DWORD PTR _hr$[ebp]
  009ea	89 95 6c fe ff
	ff		 mov	 DWORD PTR $T13[ebp], edx
  009f0	c6 45 fc 04	 mov	 BYTE PTR __$EHRec$[ebp+8], 4
  009f4	8d 8d 60 ff ff
	ff		 lea	 ecx, DWORD PTR _props$[ebp]
  009fa	e8 00 00 00 00	 call	 ??1?$ComPtr@UIPropertyBag2@@@WRL@Microsoft@@QAE@XZ ; Microsoft::WRL::ComPtr<IPropertyBag2>::~ComPtr<IPropertyBag2>
  009ff	c6 45 fc 03	 mov	 BYTE PTR __$EHRec$[ebp+8], 3
  00a03	8d 8d 6c ff ff
	ff		 lea	 ecx, DWORD PTR _frame$[ebp]
  00a09	e8 00 00 00 00	 call	 ??1?$ComPtr@UIWICBitmapFrameEncode@@@WRL@Microsoft@@QAE@XZ ; Microsoft::WRL::ComPtr<IWICBitmapFrameEncode>::~ComPtr<IWICBitmapFrameEncode>
  00a0e	c6 45 fc 02	 mov	 BYTE PTR __$EHRec$[ebp+8], 2
  00a12	8d 8d 78 ff ff
	ff		 lea	 ecx, DWORD PTR _encoder$[ebp]
  00a18	e8 00 00 00 00	 call	 ??1?$ComPtr@UIWICBitmapEncoder@@@WRL@Microsoft@@QAE@XZ ; Microsoft::WRL::ComPtr<IWICBitmapEncoder>::~ComPtr<IWICBitmapEncoder>
  00a1d	c6 45 fc 01	 mov	 BYTE PTR __$EHRec$[ebp+8], 1
  00a21	8d 4d 84	 lea	 ecx, DWORD PTR _stream$[ebp]
  00a24	e8 00 00 00 00	 call	 ??1?$ComPtr@UIWICStream@@@WRL@Microsoft@@QAE@XZ ; Microsoft::WRL::ComPtr<IWICStream>::~ComPtr<IWICStream>
  00a29	c6 45 fc 00	 mov	 BYTE PTR __$EHRec$[ebp+8], 0
  00a2d	8d 4d b4	 lea	 ecx, DWORD PTR _pStaging$[ebp]
  00a30	e8 00 00 00 00	 call	 ??1?$ComPtr@UID3D11Texture2D@@@WRL@Microsoft@@QAE@XZ ; Microsoft::WRL::ComPtr<ID3D11Texture2D>::~ComPtr<ID3D11Texture2D>
  00a35	c7 45 fc ff ff
	ff ff		 mov	 DWORD PTR __$EHRec$[ebp+8], -1
  00a3c	8d 4d 1c	 lea	 ecx, DWORD PTR _setCustomProps$[ebp]
  00a3f	e8 00 00 00 00	 call	 ??1?$function@$$A6AXPAUIPropertyBag2@@@Z@std@@QAE@XZ ; std::function<void __cdecl(IPropertyBag2 *)>::~function<void __cdecl(IPropertyBag2 *)>
  00a44	8b 85 6c fe ff
	ff		 mov	 eax, DWORD PTR $T13[ebp]
  00a4a	e9 5c 0c 00 00	 jmp	 $LN61@SaveWICTex
$LN27@SaveWICTex:
; Line 1006
  00a4f	83 7d 18 00	 cmp	 DWORD PTR _targetFormat$[ebp], 0
  00a53	74 2b		 je	 SHORT $LN26@SaveWICTex
; Line 1008
  00a55	8b 45 18	 mov	 eax, DWORD PTR _targetFormat$[ebp]
  00a58	8b 08		 mov	 ecx, DWORD PTR [eax]
  00a5a	89 8d 08 ff ff
	ff		 mov	 DWORD PTR _targetGuid$[ebp], ecx
  00a60	8b 50 04	 mov	 edx, DWORD PTR [eax+4]
  00a63	89 95 0c ff ff
	ff		 mov	 DWORD PTR _targetGuid$[ebp+4], edx
  00a69	8b 48 08	 mov	 ecx, DWORD PTR [eax+8]
  00a6c	89 8d 10 ff ff
	ff		 mov	 DWORD PTR _targetGuid$[ebp+8], ecx
  00a72	8b 50 0c	 mov	 edx, DWORD PTR [eax+12]
  00a75	89 95 14 ff ff
	ff		 mov	 DWORD PTR _targetGuid$[ebp+12], edx
; Line 1010
  00a7b	e9 31 01 00 00	 jmp	 $LN23@SaveWICTex
$LN26@SaveWICTex:
; Line 1013
  00a80	8b 45 d0	 mov	 eax, DWORD PTR _desc$[ebp+16]
  00a83	89 85 18 fe ff
	ff		 mov	 DWORD PTR tv313[ebp], eax
  00a89	8b 8d 18 fe ff
	ff		 mov	 ecx, DWORD PTR tv313[ebp]
  00a8f	83 e9 0b	 sub	 ecx, 11			; 0000000bH
  00a92	89 8d 18 fe ff
	ff		 mov	 DWORD PTR tv313[ebp], ecx
  00a98	83 bd 18 fe ff
	ff 4b		 cmp	 DWORD PTR tv313[ebp], 75 ; 0000004bH
  00a9f	0f 87 dd 00 00
	00		 ja	 $LN18@SaveWICTex
  00aa5	8b 95 18 fe ff
	ff		 mov	 edx, DWORD PTR tv313[ebp]
  00aab	0f b6 82 00 00
	00 00		 movzx	 eax, BYTE PTR $LN73@SaveWICTex[edx]
  00ab2	ff 24 85 00 00
	00 00		 jmp	 DWORD PTR $LN94@SaveWICTex[eax*4]
$LN22@SaveWICTex:
; Line 1029
  00ab9	8b 0d 00 00 00
	00		 mov	 ecx, DWORD PTR _GUID_WICPixelFormat48bppBGR
  00abf	89 8d 08 ff ff
	ff		 mov	 DWORD PTR _targetGuid$[ebp], ecx
  00ac5	8b 15 04 00 00
	00		 mov	 edx, DWORD PTR _GUID_WICPixelFormat48bppBGR+4
  00acb	89 95 0c ff ff
	ff		 mov	 DWORD PTR _targetGuid$[ebp+4], edx
  00ad1	a1 08 00 00 00	 mov	 eax, DWORD PTR _GUID_WICPixelFormat48bppBGR+8
  00ad6	89 85 10 ff ff
	ff		 mov	 DWORD PTR _targetGuid$[ebp+8], eax
  00adc	8b 0d 0c 00 00
	00		 mov	 ecx, DWORD PTR _GUID_WICPixelFormat48bppBGR+12
  00ae2	89 8d 14 ff ff
	ff		 mov	 DWORD PTR _targetGuid$[ebp+12], ecx
  00ae8	e9 c4 00 00 00	 jmp	 $LN23@SaveWICTex
$LN21@SaveWICTex:
; Line 1030
  00aed	8b 15 00 00 00
	00		 mov	 edx, DWORD PTR _GUID_WICPixelFormat16bppBGR555
  00af3	89 95 08 ff ff
	ff		 mov	 DWORD PTR _targetGuid$[ebp], edx
  00af9	a1 04 00 00 00	 mov	 eax, DWORD PTR _GUID_WICPixelFormat16bppBGR555+4
  00afe	89 85 0c ff ff
	ff		 mov	 DWORD PTR _targetGuid$[ebp+4], eax
  00b04	8b 0d 08 00 00
	00		 mov	 ecx, DWORD PTR _GUID_WICPixelFormat16bppBGR555+8
  00b0a	89 8d 10 ff ff
	ff		 mov	 DWORD PTR _targetGuid$[ebp+8], ecx
  00b10	8b 15 0c 00 00
	00		 mov	 edx, DWORD PTR _GUID_WICPixelFormat16bppBGR555+12
  00b16	89 95 14 ff ff
	ff		 mov	 DWORD PTR _targetGuid$[ebp+12], edx
  00b1c	e9 90 00 00 00	 jmp	 $LN23@SaveWICTex
$LN20@SaveWICTex:
; Line 1031
  00b21	a1 00 00 00 00	 mov	 eax, DWORD PTR _GUID_WICPixelFormat16bppBGR565
  00b26	89 85 08 ff ff
	ff		 mov	 DWORD PTR _targetGuid$[ebp], eax
  00b2c	8b 0d 04 00 00
	00		 mov	 ecx, DWORD PTR _GUID_WICPixelFormat16bppBGR565+4
  00b32	89 8d 0c ff ff
	ff		 mov	 DWORD PTR _targetGuid$[ebp+4], ecx
  00b38	8b 15 08 00 00
	00		 mov	 edx, DWORD PTR _GUID_WICPixelFormat16bppBGR565+8
  00b3e	89 95 10 ff ff
	ff		 mov	 DWORD PTR _targetGuid$[ebp+8], edx
  00b44	a1 0c 00 00 00	 mov	 eax, DWORD PTR _GUID_WICPixelFormat16bppBGR565+12
  00b49	89 85 14 ff ff
	ff		 mov	 DWORD PTR _targetGuid$[ebp+12], eax
  00b4f	eb 60		 jmp	 SHORT $LN23@SaveWICTex
$LN19@SaveWICTex:
; Line 1038
  00b51	8b 0d 00 00 00
	00		 mov	 ecx, DWORD PTR _GUID_WICPixelFormat8bppGray
  00b57	89 8d 08 ff ff
	ff		 mov	 DWORD PTR _targetGuid$[ebp], ecx
  00b5d	8b 15 04 00 00
	00		 mov	 edx, DWORD PTR _GUID_WICPixelFormat8bppGray+4
  00b63	89 95 0c ff ff
	ff		 mov	 DWORD PTR _targetGuid$[ebp+4], edx
  00b69	a1 08 00 00 00	 mov	 eax, DWORD PTR _GUID_WICPixelFormat8bppGray+8
  00b6e	89 85 10 ff ff
	ff		 mov	 DWORD PTR _targetGuid$[ebp+8], eax
  00b74	8b 0d 0c 00 00
	00		 mov	 ecx, DWORD PTR _GUID_WICPixelFormat8bppGray+12
  00b7a	89 8d 14 ff ff
	ff		 mov	 DWORD PTR _targetGuid$[ebp+12], ecx
; Line 1039
  00b80	eb 2f		 jmp	 SHORT $LN23@SaveWICTex
$LN18@SaveWICTex:
; Line 1042
  00b82	8b 15 00 00 00
	00		 mov	 edx, DWORD PTR _GUID_WICPixelFormat24bppBGR
  00b88	89 95 08 ff ff
	ff		 mov	 DWORD PTR _targetGuid$[ebp], edx
  00b8e	a1 04 00 00 00	 mov	 eax, DWORD PTR _GUID_WICPixelFormat24bppBGR+4
  00b93	89 85 0c ff ff
	ff		 mov	 DWORD PTR _targetGuid$[ebp+4], eax
  00b99	8b 0d 08 00 00
	00		 mov	 ecx, DWORD PTR _GUID_WICPixelFormat24bppBGR+8
  00b9f	89 8d 10 ff ff
	ff		 mov	 DWORD PTR _targetGuid$[ebp+8], ecx
  00ba5	8b 15 0c 00 00
	00		 mov	 edx, DWORD PTR _GUID_WICPixelFormat24bppBGR+12
  00bab	89 95 14 ff ff
	ff		 mov	 DWORD PTR _targetGuid$[ebp+12], edx
$LN23@SaveWICTex:
; Line 1047
  00bb1	8d 8d 6c ff ff
	ff		 lea	 ecx, DWORD PTR _frame$[ebp]
  00bb7	e8 00 00 00 00	 call	 ??C?$ComPtr@UIWICBitmapFrameEncode@@@WRL@Microsoft@@QBEPAV?$RemoveIUnknownBase@UIWICBitmapFrameEncode@@@Details@12@XZ ; Microsoft::WRL::ComPtr<IWICBitmapFrameEncode>::operator->
  00bbc	89 85 14 fe ff
	ff		 mov	 DWORD PTR tv323[ebp], eax
  00bc2	8b f4		 mov	 esi, esp
  00bc4	8d 85 08 ff ff
	ff		 lea	 eax, DWORD PTR _targetGuid$[ebp]
  00bca	50		 push	 eax
  00bcb	8b 8d 14 fe ff
	ff		 mov	 ecx, DWORD PTR tv323[ebp]
  00bd1	51		 push	 ecx
  00bd2	8b 95 14 fe ff
	ff		 mov	 edx, DWORD PTR tv323[ebp]
  00bd8	8b 02		 mov	 eax, DWORD PTR [edx]
  00bda	8b 48 18	 mov	 ecx, DWORD PTR [eax+24]
  00bdd	ff d1		 call	 ecx
  00bdf	3b f4		 cmp	 esi, esp
  00be1	e8 00 00 00 00	 call	 __RTC_CheckEsp
  00be6	89 45 ac	 mov	 DWORD PTR _hr$[ebp], eax
; Line 1048
  00be9	83 7d ac 00	 cmp	 DWORD PTR _hr$[ebp], 0
  00bed	7d 68		 jge	 SHORT $LN17@SaveWICTex
; Line 1049
  00bef	8b 55 ac	 mov	 edx, DWORD PTR _hr$[ebp]
  00bf2	89 95 68 fe ff
	ff		 mov	 DWORD PTR $T12[ebp], edx
  00bf8	c6 45 fc 04	 mov	 BYTE PTR __$EHRec$[ebp+8], 4
  00bfc	8d 8d 60 ff ff
	ff		 lea	 ecx, DWORD PTR _props$[ebp]
  00c02	e8 00 00 00 00	 call	 ??1?$ComPtr@UIPropertyBag2@@@WRL@Microsoft@@QAE@XZ ; Microsoft::WRL::ComPtr<IPropertyBag2>::~ComPtr<IPropertyBag2>
  00c07	c6 45 fc 03	 mov	 BYTE PTR __$EHRec$[ebp+8], 3
  00c0b	8d 8d 6c ff ff
	ff		 lea	 ecx, DWORD PTR _frame$[ebp]
  00c11	e8 00 00 00 00	 call	 ??1?$ComPtr@UIWICBitmapFrameEncode@@@WRL@Microsoft@@QAE@XZ ; Microsoft::WRL::ComPtr<IWICBitmapFrameEncode>::~ComPtr<IWICBitmapFrameEncode>
  00c16	c6 45 fc 02	 mov	 BYTE PTR __$EHRec$[ebp+8], 2
  00c1a	8d 8d 78 ff ff
	ff		 lea	 ecx, DWORD PTR _encoder$[ebp]
  00c20	e8 00 00 00 00	 call	 ??1?$ComPtr@UIWICBitmapEncoder@@@WRL@Microsoft@@QAE@XZ ; Microsoft::WRL::ComPtr<IWICBitmapEncoder>::~ComPtr<IWICBitmapEncoder>
  00c25	c6 45 fc 01	 mov	 BYTE PTR __$EHRec$[ebp+8], 1
  00c29	8d 4d 84	 lea	 ecx, DWORD PTR _stream$[ebp]
  00c2c	e8 00 00 00 00	 call	 ??1?$ComPtr@UIWICStream@@@WRL@Microsoft@@QAE@XZ ; Microsoft::WRL::ComPtr<IWICStream>::~ComPtr<IWICStream>
  00c31	c6 45 fc 00	 mov	 BYTE PTR __$EHRec$[ebp+8], 0
  00c35	8d 4d b4	 lea	 ecx, DWORD PTR _pStaging$[ebp]
  00c38	e8 00 00 00 00	 call	 ??1?$ComPtr@UID3D11Texture2D@@@WRL@Microsoft@@QAE@XZ ; Microsoft::WRL::ComPtr<ID3D11Texture2D>::~ComPtr<ID3D11Texture2D>
  00c3d	c7 45 fc ff ff
	ff ff		 mov	 DWORD PTR __$EHRec$[ebp+8], -1
  00c44	8d 4d 1c	 lea	 ecx, DWORD PTR _setCustomProps$[ebp]
  00c47	e8 00 00 00 00	 call	 ??1?$function@$$A6AXPAUIPropertyBag2@@@Z@std@@QAE@XZ ; std::function<void __cdecl(IPropertyBag2 *)>::~function<void __cdecl(IPropertyBag2 *)>
  00c4c	8b 85 68 fe ff
	ff		 mov	 eax, DWORD PTR $T12[ebp]
  00c52	e9 54 0a 00 00	 jmp	 $LN61@SaveWICTex
$LN17@SaveWICTex:
; Line 1051
  00c57	83 7d 18 00	 cmp	 DWORD PTR _targetFormat$[ebp], 0
  00c5b	0f 84 8d 00 00
	00		 je	 $LN16@SaveWICTex
  00c61	6a 10		 push	 16			; 00000010H
  00c63	8d 85 08 ff ff
	ff		 lea	 eax, DWORD PTR _targetGuid$[ebp]
  00c69	50		 push	 eax
  00c6a	8b 4d 18	 mov	 ecx, DWORD PTR _targetFormat$[ebp]
  00c6d	51		 push	 ecx
  00c6e	e8 00 00 00 00	 call	 _memcmp
  00c73	83 c4 0c	 add	 esp, 12			; 0000000cH
  00c76	89 85 10 fe ff
	ff		 mov	 DWORD PTR tv334[ebp], eax
  00c7c	83 bd 10 fe ff
	ff 00		 cmp	 DWORD PTR tv334[ebp], 0
  00c83	74 69		 je	 SHORT $LN16@SaveWICTex
; Line 1054
  00c85	c7 85 64 fe ff
	ff 05 40 00 80	 mov	 DWORD PTR $T11[ebp], -2147467259 ; 80004005H
  00c8f	c6 45 fc 04	 mov	 BYTE PTR __$EHRec$[ebp+8], 4
  00c93	8d 8d 60 ff ff
	ff		 lea	 ecx, DWORD PTR _props$[ebp]
  00c99	e8 00 00 00 00	 call	 ??1?$ComPtr@UIPropertyBag2@@@WRL@Microsoft@@QAE@XZ ; Microsoft::WRL::ComPtr<IPropertyBag2>::~ComPtr<IPropertyBag2>
  00c9e	c6 45 fc 03	 mov	 BYTE PTR __$EHRec$[ebp+8], 3
  00ca2	8d 8d 6c ff ff
	ff		 lea	 ecx, DWORD PTR _frame$[ebp]
  00ca8	e8 00 00 00 00	 call	 ??1?$ComPtr@UIWICBitmapFrameEncode@@@WRL@Microsoft@@QAE@XZ ; Microsoft::WRL::ComPtr<IWICBitmapFrameEncode>::~ComPtr<IWICBitmapFrameEncode>
  00cad	c6 45 fc 02	 mov	 BYTE PTR __$EHRec$[ebp+8], 2
  00cb1	8d 8d 78 ff ff
	ff		 lea	 ecx, DWORD PTR _encoder$[ebp]
  00cb7	e8 00 00 00 00	 call	 ??1?$ComPtr@UIWICBitmapEncoder@@@WRL@Microsoft@@QAE@XZ ; Microsoft::WRL::ComPtr<IWICBitmapEncoder>::~ComPtr<IWICBitmapEncoder>
  00cbc	c6 45 fc 01	 mov	 BYTE PTR __$EHRec$[ebp+8], 1
  00cc0	8d 4d 84	 lea	 ecx, DWORD PTR _stream$[ebp]
  00cc3	e8 00 00 00 00	 call	 ??1?$ComPtr@UIWICStream@@@WRL@Microsoft@@QAE@XZ ; Microsoft::WRL::ComPtr<IWICStream>::~ComPtr<IWICStream>
  00cc8	c6 45 fc 00	 mov	 BYTE PTR __$EHRec$[ebp+8], 0
  00ccc	8d 4d b4	 lea	 ecx, DWORD PTR _pStaging$[ebp]
