; Listing generated by Microsoft (R) Optimizing Compiler Version 18.00.30501.0 

	TITLE	D:\Users\pn9623\Engine\SSE_fluid\FluidCS11\FluidCS11.cpp
	.686P
	.XMM
	include listing.inc
	.model	flat

INCLUDELIB MSVCRTD
INCLUDELIB OLDNAMES

PUBLIC	___@@_PchSym_@00@UfhvihUkmJGCDUvmtrmvUhhvPuofrwUuofrwxhBBUzhhvnyobwvyftUuofrwxhBBOlyq@28C41592EACE6808
PUBLIC	?MediumPurple@Colors@DirectX@@3UXMVECTORF32@2@B	; DirectX::Colors::MediumPurple
PUBLIC	?g_XMMulDec4@DirectX@@3UXMVECTORF32@1@B		; DirectX::g_XMMulDec4
PUBLIC	?g_XMMaskByte4@DirectX@@3UXMVECTORI32@1@B	; DirectX::g_XMMaskByte4
PUBLIC	?MediumSeaGreen@Colors@DirectX@@3UXMVECTORF32@2@B ; DirectX::Colors::MediumSeaGreen
PUBLIC	?g_XMXorByte4@DirectX@@3UXMVECTORI32@1@B	; DirectX::g_XMXorByte4
PUBLIC	?MediumSlateBlue@Colors@DirectX@@3UXMVECTORF32@2@B ; DirectX::Colors::MediumSlateBlue
PUBLIC	?g_XMAddByte4@DirectX@@3UXMVECTORF32@1@B	; DirectX::g_XMAddByte4
PUBLIC	?MediumSpringGreen@Colors@DirectX@@3UXMVECTORF32@2@B ; DirectX::Colors::MediumSpringGreen
PUBLIC	?has_denorm@_Num_base@std@@2W4float_denorm_style@2@B ; std::_Num_base::has_denorm
PUBLIC	?MediumTurquoise@Colors@DirectX@@3UXMVECTORF32@2@B ; DirectX::Colors::MediumTurquoise
PUBLIC	?g_XMFixUnsigned@DirectX@@3UXMVECTORF32@1@B	; DirectX::g_XMFixUnsigned
PUBLIC	?MediumVioletRed@Colors@DirectX@@3UXMVECTORF32@2@B ; DirectX::Colors::MediumVioletRed
PUBLIC	?g_XMMaxInt@DirectX@@3UXMVECTORF32@1@B		; DirectX::g_XMMaxInt
PUBLIC	_SID_SCommandBarState
PUBLIC	?MidnightBlue@Colors@DirectX@@3UXMVECTORF32@2@B	; DirectX::Colors::MidnightBlue
PUBLIC	?g_XMMaxUInt@DirectX@@3UXMVECTORF32@1@B		; DirectX::g_XMMaxUInt
PUBLIC	?has_denorm_loss@_Num_base@std@@2_NB		; std::_Num_base::has_denorm_loss
PUBLIC	?g_XMUnsignedFix@DirectX@@3UXMVECTORF32@1@B	; DirectX::g_XMUnsignedFix
PUBLIC	?MintCream@Colors@DirectX@@3UXMVECTORF32@2@B	; DirectX::Colors::MintCream
PUBLIC	?g_XMsrgbScale@DirectX@@3UXMVECTORF32@1@B	; DirectX::g_XMsrgbScale
PUBLIC	?MistyRose@Colors@DirectX@@3UXMVECTORF32@2@B	; DirectX::Colors::MistyRose
PUBLIC	?Moccasin@Colors@DirectX@@3UXMVECTORF32@2@B	; DirectX::Colors::Moccasin
PUBLIC	?g_XMsrgbA@DirectX@@3UXMVECTORF32@1@B		; DirectX::g_XMsrgbA
PUBLIC	?has_infinity@_Num_base@std@@2_NB		; std::_Num_base::has_infinity
PUBLIC	?g_XMsrgbA1@DirectX@@3UXMVECTORF32@1@B		; DirectX::g_XMsrgbA1
PUBLIC	?NavajoWhite@Colors@DirectX@@3UXMVECTORF32@2@B	; DirectX::Colors::NavajoWhite
PUBLIC	?g_XMExponentBias@DirectX@@3UXMVECTORI32@1@B	; DirectX::g_XMExponentBias
PUBLIC	?Navy@Colors@DirectX@@3UXMVECTORF32@2@B		; DirectX::Colors::Navy
PUBLIC	?g_XMSubnormalExponent@DirectX@@3UXMVECTORI32@1@B ; DirectX::g_XMSubnormalExponent
PUBLIC	?OldLace@Colors@DirectX@@3UXMVECTORF32@2@B	; DirectX::Colors::OldLace
PUBLIC	?has_quiet_NaN@_Num_base@std@@2_NB		; std::_Num_base::has_quiet_NaN
PUBLIC	?g_XMNumTrailing@DirectX@@3UXMVECTORI32@1@B	; DirectX::g_XMNumTrailing
PUBLIC	?Olive@Colors@DirectX@@3UXMVECTORF32@2@B	; DirectX::Colors::Olive
PUBLIC	?g_XMMinNormal@DirectX@@3UXMVECTORI32@1@B	; DirectX::g_XMMinNormal
PUBLIC	?OliveDrab@Colors@DirectX@@3UXMVECTORF32@2@B	; DirectX::Colors::OliveDrab
PUBLIC	?g_XMNegInfinity@DirectX@@3UXMVECTORI32@1@B	; DirectX::g_XMNegInfinity
PUBLIC	?Orange@Colors@DirectX@@3UXMVECTORF32@2@B	; DirectX::Colors::Orange
PUBLIC	?has_signaling_NaN@_Num_base@std@@2_NB		; std::_Num_base::has_signaling_NaN
PUBLIC	?g_XMNegQNaN@DirectX@@3UXMVECTORI32@1@B		; DirectX::g_XMNegQNaN
PUBLIC	?OrangeRed@Colors@DirectX@@3UXMVECTORF32@2@B	; DirectX::Colors::OrangeRed
PUBLIC	?g_XMBin128@DirectX@@3UXMVECTORI32@1@B		; DirectX::g_XMBin128
PUBLIC	?Orchid@Colors@DirectX@@3UXMVECTORF32@2@B	; DirectX::Colors::Orchid
PUBLIC	?g_XMBinNeg150@DirectX@@3UXMVECTORI32@1@B	; DirectX::g_XMBinNeg150
PUBLIC	?PaleGoldenrod@Colors@DirectX@@3UXMVECTORF32@2@B ; DirectX::Colors::PaleGoldenrod
PUBLIC	?is_bounded@_Num_base@std@@2_NB			; std::_Num_base::is_bounded
PUBLIC	?g_XM253@DirectX@@3UXMVECTORI32@1@B		; DirectX::g_XM253
PUBLIC	?PaleGreen@Colors@DirectX@@3UXMVECTORF32@2@B	; DirectX::Colors::PaleGreen
PUBLIC	?g_XMExpEst1@DirectX@@3UXMVECTORF32@1@B		; DirectX::g_XMExpEst1
PUBLIC	?PaleTurquoise@Colors@DirectX@@3UXMVECTORF32@2@B ; DirectX::Colors::PaleTurquoise
PUBLIC	?g_XMExpEst2@DirectX@@3UXMVECTORF32@1@B		; DirectX::g_XMExpEst2
PUBLIC	?PaleVioletRed@Colors@DirectX@@3UXMVECTORF32@2@B ; DirectX::Colors::PaleVioletRed
PUBLIC	?is_exact@_Num_base@std@@2_NB			; std::_Num_base::is_exact
PUBLIC	?g_XMExpEst3@DirectX@@3UXMVECTORF32@1@B		; DirectX::g_XMExpEst3
PUBLIC	?PapayaWhip@Colors@DirectX@@3UXMVECTORF32@2@B	; DirectX::Colors::PapayaWhip
PUBLIC	?g_XMExpEst4@DirectX@@3UXMVECTORF32@1@B		; DirectX::g_XMExpEst4
PUBLIC	?PeachPuff@Colors@DirectX@@3UXMVECTORF32@2@B	; DirectX::Colors::PeachPuff
PUBLIC	_IID_ID3D11ShaderReflectionVariable
PUBLIC	?g_XMExpEst5@DirectX@@3UXMVECTORF32@1@B		; DirectX::g_XMExpEst5
PUBLIC	?Peru@Colors@DirectX@@3UXMVECTORF32@2@B		; DirectX::Colors::Peru
PUBLIC	?is_iec559@_Num_base@std@@2_NB			; std::_Num_base::is_iec559
PUBLIC	?g_XMExpEst6@DirectX@@3UXMVECTORF32@1@B		; DirectX::g_XMExpEst6
PUBLIC	?Pink@Colors@DirectX@@3UXMVECTORF32@2@B		; DirectX::Colors::Pink
PUBLIC	?Plum@Colors@DirectX@@3UXMVECTORF32@2@B		; DirectX::Colors::Plum
PUBLIC	?g_XMExpEst7@DirectX@@3UXMVECTORF32@1@B		; DirectX::g_XMExpEst7
PUBLIC	?is_monotonic@steady_clock@chrono@std@@2_NB	; std::chrono::steady_clock::is_monotonic
PUBLIC	?PowderBlue@Colors@DirectX@@3UXMVECTORF32@2@B	; DirectX::Colors::PowderBlue
PUBLIC	?g_XMLogEst0@DirectX@@3UXMVECTORF32@1@B		; DirectX::g_XMLogEst0
PUBLIC	?is_integer@_Num_base@std@@2_NB			; std::_Num_base::is_integer
PUBLIC	?g_XMLogEst1@DirectX@@3UXMVECTORF32@1@B		; DirectX::g_XMLogEst1
PUBLIC	?Purple@Colors@DirectX@@3UXMVECTORF32@2@B	; DirectX::Colors::Purple
PUBLIC	?is_steady@steady_clock@chrono@std@@2_NB	; std::chrono::steady_clock::is_steady
PUBLIC	?g_XMLogEst2@DirectX@@3UXMVECTORF32@1@B		; DirectX::g_XMLogEst2
PUBLIC	?Red@Colors@DirectX@@3UXMVECTORF32@2@B		; DirectX::Colors::Red
PUBLIC	?g_XMLogEst3@DirectX@@3UXMVECTORF32@1@B		; DirectX::g_XMLogEst3
PUBLIC	?RosyBrown@Colors@DirectX@@3UXMVECTORF32@2@B	; DirectX::Colors::RosyBrown
PUBLIC	?is_modulo@_Num_base@std@@2_NB			; std::_Num_base::is_modulo
PUBLIC	?g_XMLogEst4@DirectX@@3UXMVECTORF32@1@B		; DirectX::g_XMLogEst4
PUBLIC	?RoyalBlue@Colors@DirectX@@3UXMVECTORF32@2@B	; DirectX::Colors::RoyalBlue
PUBLIC	?SaddleBrown@Colors@DirectX@@3UXMVECTORF32@2@B	; DirectX::Colors::SaddleBrown
PUBLIC	?g_XMLogEst5@DirectX@@3UXMVECTORF32@1@B		; DirectX::g_XMLogEst5
PUBLIC	?g_XMLogEst6@DirectX@@3UXMVECTORF32@1@B		; DirectX::g_XMLogEst6
PUBLIC	?Salmon@Colors@DirectX@@3UXMVECTORF32@2@B	; DirectX::Colors::Salmon
PUBLIC	?is_signed@_Num_base@std@@2_NB			; std::_Num_base::is_signed
PUBLIC	?g_XMLogEst7@DirectX@@3UXMVECTORF32@1@B		; DirectX::g_XMLogEst7
PUBLIC	?SandyBrown@Colors@DirectX@@3UXMVECTORF32@2@B	; DirectX::Colors::SandyBrown
PUBLIC	?g_XMLgE@DirectX@@3UXMVECTORF32@1@B		; DirectX::g_XMLgE
PUBLIC	?SeaGreen@Colors@DirectX@@3UXMVECTORF32@2@B	; DirectX::Colors::SeaGreen
PUBLIC	?g_XMInvLgE@DirectX@@3UXMVECTORF32@1@B		; DirectX::g_XMInvLgE
PUBLIC	?SeaShell@Colors@DirectX@@3UXMVECTORF32@2@B	; DirectX::Colors::SeaShell
PUBLIC	?is_specialized@_Num_base@std@@2_NB		; std::_Num_base::is_specialized
PUBLIC	?Sienna@Colors@DirectX@@3UXMVECTORF32@2@B	; DirectX::Colors::Sienna
PUBLIC	?Silver@Colors@DirectX@@3UXMVECTORF32@2@B	; DirectX::Colors::Silver
PUBLIC	?SkyBlue@Colors@DirectX@@3UXMVECTORF32@2@B	; DirectX::Colors::SkyBlue
PUBLIC	?tinyness_before@_Num_base@std@@2_NB		; std::_Num_base::tinyness_before
PUBLIC	?SlateBlue@Colors@DirectX@@3UXMVECTORF32@2@B	; DirectX::Colors::SlateBlue
PUBLIC	?SlateGray@Colors@DirectX@@3UXMVECTORF32@2@B	; DirectX::Colors::SlateGray
PUBLIC	_IID_ID3D11ShaderReflectionConstantBuffer
PUBLIC	?Snow@Colors@DirectX@@3UXMVECTORF32@2@B		; DirectX::Colors::Snow
PUBLIC	?traps@_Num_base@std@@2_NB			; std::_Num_base::traps
PUBLIC	?SpringGreen@Colors@DirectX@@3UXMVECTORF32@2@B	; DirectX::Colors::SpringGreen
PUBLIC	?SteelBlue@Colors@DirectX@@3UXMVECTORF32@2@B	; DirectX::Colors::SteelBlue
PUBLIC	?Tan@Colors@DirectX@@3UXMVECTORF32@2@B		; DirectX::Colors::Tan
PUBLIC	?round_style@_Num_base@std@@2W4float_round_style@2@B ; std::_Num_base::round_style
PUBLIC	?Teal@Colors@DirectX@@3UXMVECTORF32@2@B		; DirectX::Colors::Teal
PUBLIC	?Thistle@Colors@DirectX@@3UXMVECTORF32@2@B	; DirectX::Colors::Thistle
PUBLIC	?Tomato@Colors@DirectX@@3UXMVECTORF32@2@B	; DirectX::Colors::Tomato
PUBLIC	?digits@_Num_base@std@@2HB			; std::_Num_base::digits
PUBLIC	?Transparent@Colors@DirectX@@3UXMVECTORF32@2@B	; DirectX::Colors::Transparent
PUBLIC	?Turquoise@Colors@DirectX@@3UXMVECTORF32@2@B	; DirectX::Colors::Turquoise
PUBLIC	?Violet@Colors@DirectX@@3UXMVECTORF32@2@B	; DirectX::Colors::Violet
PUBLIC	?digits10@_Num_base@std@@2HB			; std::_Num_base::digits10
PUBLIC	?Wheat@Colors@DirectX@@3UXMVECTORF32@2@B	; DirectX::Colors::Wheat
PUBLIC	?White@Colors@DirectX@@3UXMVECTORF32@2@B	; DirectX::Colors::White
PUBLIC	?WhiteSmoke@Colors@DirectX@@3UXMVECTORF32@2@B	; DirectX::Colors::WhiteSmoke
PUBLIC	?max_digits10@_Num_base@std@@2HB		; std::_Num_base::max_digits10
PUBLIC	?Yellow@Colors@DirectX@@3UXMVECTORF32@2@B	; DirectX::Colors::Yellow
PUBLIC	?YellowGreen@Colors@DirectX@@3UXMVECTORF32@2@B	; DirectX::Colors::YellowGreen
PUBLIC	?value@?$integral_constant@I$07@std@@2IB	; std::integral_constant<unsigned int,8>::value
PUBLIC	_IID_ID3D11ShaderReflection
PUBLIC	?max_exponent@_Num_base@std@@2HB		; std::_Num_base::max_exponent
PUBLIC	?max_exponent10@_Num_base@std@@2HB		; std::_Num_base::max_exponent10
PUBLIC	?min_exponent@_Num_base@std@@2HB		; std::_Num_base::min_exponent
PUBLIC	?min_exponent10@_Num_base@std@@2HB		; std::_Num_base::min_exponent10
PUBLIC	?radix@_Num_base@std@@2HB			; std::_Num_base::radix
PUBLIC	?is_bounded@_Num_int_base@std@@2_NB		; std::_Num_int_base::is_bounded
PUBLIC	?is_exact@_Num_int_base@std@@2_NB		; std::_Num_int_base::is_exact
PUBLIC	?is_integer@_Num_int_base@std@@2_NB		; std::_Num_int_base::is_integer
PUBLIC	?is_modulo@_Num_int_base@std@@2_NB		; std::_Num_int_base::is_modulo
PUBLIC	?is_specialized@_Num_int_base@std@@2_NB		; std::_Num_int_base::is_specialized
PUBLIC	?radix@_Num_int_base@std@@2HB			; std::_Num_int_base::radix
PUBLIC	?value@?$integral_constant@I$03@std@@2IB	; std::integral_constant<unsigned int,4>::value
PUBLIC	_IID_ID3D11LibraryReflection
PUBLIC	?has_denorm@_Num_float_base@std@@2W4float_denorm_style@2@B ; std::_Num_float_base::has_denorm
PUBLIC	?has_denorm_loss@_Num_float_base@std@@2_NB	; std::_Num_float_base::has_denorm_loss
PUBLIC	?has_infinity@_Num_float_base@std@@2_NB		; std::_Num_float_base::has_infinity
PUBLIC	?has_quiet_NaN@_Num_float_base@std@@2_NB	; std::_Num_float_base::has_quiet_NaN
PUBLIC	?has_signaling_NaN@_Num_float_base@std@@2_NB	; std::_Num_float_base::has_signaling_NaN
PUBLIC	_IID_ID3D11FunctionReflection
PUBLIC	?is_bounded@_Num_float_base@std@@2_NB		; std::_Num_float_base::is_bounded
PUBLIC	?is_exact@_Num_float_base@std@@2_NB		; std::_Num_float_base::is_exact
PUBLIC	?is_iec559@_Num_float_base@std@@2_NB		; std::_Num_float_base::is_iec559
PUBLIC	?is_integer@_Num_float_base@std@@2_NB		; std::_Num_float_base::is_integer
PUBLIC	?is_modulo@_Num_float_base@std@@2_NB		; std::_Num_float_base::is_modulo
PUBLIC	?is_signed@_Num_float_base@std@@2_NB		; std::_Num_float_base::is_signed
PUBLIC	?is_specialized@_Num_float_base@std@@2_NB	; std::_Num_float_base::is_specialized
PUBLIC	?value@?$integral_constant@H$0A@@std@@2HB	; std::integral_constant<int,0>::value
PUBLIC	?tinyness_before@_Num_float_base@std@@2_NB	; std::_Num_float_base::tinyness_before
PUBLIC	?traps@_Num_float_base@std@@2_NB		; std::_Num_float_base::traps
PUBLIC	_IID_ID3D11FunctionParameterReflection
PUBLIC	?round_style@_Num_float_base@std@@2W4float_round_style@2@B ; std::_Num_float_base::round_style
PUBLIC	?radix@_Num_float_base@std@@2HB			; std::_Num_float_base::radix
PUBLIC	_IID_ID3D11Module
PUBLIC	?value@?$integral_constant@I$01@std@@2IB	; std::integral_constant<unsigned int,2>::value
PUBLIC	?is_signed@?$numeric_limits@D@std@@2_NB		; std::numeric_limits<char>::is_signed
PUBLIC	?digits@?$numeric_limits@D@std@@2HB		; std::numeric_limits<char>::digits
PUBLIC	?digits10@?$numeric_limits@D@std@@2HB		; std::numeric_limits<char>::digits10
PUBLIC	_IID_ID3D11ModuleInstance
PUBLIC	?value@?$_Is_ratio@U?$ratio@$00$0JIJGIA@@std@@@chrono@std@@2_NB ; std::chrono::_Is_ratio<std::ratio<1,10000000> >::value
PUBLIC	?is_signed@?$numeric_limits@_W@std@@2_NB	; std::numeric_limits<wchar_t>::is_signed
PUBLIC	?digits@?$numeric_limits@_W@std@@2HB		; std::numeric_limits<wchar_t>::digits
PUBLIC	?digits10@?$numeric_limits@_W@std@@2HB		; std::numeric_limits<wchar_t>::digits10
PUBLIC	?value@?$integral_constant@I$00@std@@2IB	; std::integral_constant<unsigned int,1>::value
PUBLIC	_IID_ID3D11Linker
PUBLIC	?value@?$_Maximum@$S@std@@2IB			; std::_Maximum<>::value
PUBLIC	?is_modulo@?$numeric_limits@_N@std@@2_NB	; std::numeric_limits<bool>::is_modulo
PUBLIC	?is_signed@?$numeric_limits@_N@std@@2_NB	; std::numeric_limits<bool>::is_signed
PUBLIC	?digits@?$numeric_limits@_N@std@@2HB		; std::numeric_limits<bool>::digits
PUBLIC	?digits10@?$numeric_limits@_N@std@@2HB		; std::numeric_limits<bool>::digits10
PUBLIC	_IID_ID3D11LinkingNode
PUBLIC	?value@?$integral_constant@_N$0A@@std@@2_NB	; std::integral_constant<bool,0>::value
PUBLIC	?value@?$integral_constant@I$0A@@std@@2IB	; std::integral_constant<unsigned int,0>::value
PUBLIC	_IID_ID3D11FunctionLinkingGraph
PUBLIC	?is_signed@?$numeric_limits@C@std@@2_NB		; std::numeric_limits<signed char>::is_signed
PUBLIC	?digits@?$numeric_limits@C@std@@2HB		; std::numeric_limits<signed char>::digits
PUBLIC	?value@?$integral_constant@_N$00@std@@2_NB	; std::integral_constant<bool,1>::value
PUBLIC	_ConcRT_ProviderGuid
PUBLIC	?digits10@?$numeric_limits@C@std@@2HB		; std::numeric_limits<signed char>::digits10
PUBLIC	_ConcRTEventGuid
PUBLIC	_SchedulerEventGuid
PUBLIC	_ScheduleGroupEventGuid
PUBLIC	_ContextEventGuid
PUBLIC	_ChoreEventGuid
PUBLIC	_VirtualProcessorEventGuid
PUBLIC	_LockEventGuid
PUBLIC	_ResourceManagerEventGuid
PUBLIC	_PPLParallelInvokeEventGuid
PUBLIC	?value@?$_Sign_of@$0GE@@std@@2_JB		; std::_Sign_of<100>::value
PUBLIC	_PPLParallelForEventGuid
PUBLIC	_PPLParallelForeachEventGuid
PUBLIC	_AgentEventGuid
PUBLIC	?value@?$_Sign_of@$00@std@@2_JB			; std::_Sign_of<1>::value
PUBLIC	?value@?$_Abs@$0GE@@std@@2_JB			; std::_Abs<100>::value
PUBLIC	?is_signed@?$numeric_limits@E@std@@2_NB		; std::numeric_limits<unsigned char>::is_signed
PUBLIC	?digits@?$numeric_limits@E@std@@2HB		; std::numeric_limits<unsigned char>::digits
PUBLIC	?digits10@?$numeric_limits@E@std@@2HB		; std::numeric_limits<unsigned char>::digits10
PUBLIC	?value@?$_Abs@$00@std@@2_JB			; std::_Abs<1>::value
PUBLIC	?value@?$_GcdX@$00$0A@@std@@2_JB		; std::_GcdX<1,0>::value
PUBLIC	?value@?$_GcdX@$0GE@$00@std@@2_JB		; std::_GcdX<100,1>::value
PUBLIC	?is_signed@?$numeric_limits@F@std@@2_NB		; std::numeric_limits<short>::is_signed
PUBLIC	?digits@?$numeric_limits@F@std@@2HB		; std::numeric_limits<short>::digits
PUBLIC	?value@?$_Gcd@$0GE@$00@std@@2_JB		; std::_Gcd<100,1>::value
PUBLIC	?digits10@?$numeric_limits@F@std@@2HB		; std::numeric_limits<short>::digits10
PUBLIC	?num@?$ratio@$0GE@$00@std@@2_JB			; std::ratio<100,1>::num
PUBLIC	?den@?$ratio@$0GE@$00@std@@2_JB			; std::ratio<100,1>::den
PUBLIC	?_N1@?$_Ratio_multiply@U?$ratio@$0GE@$00@std@@U?$ratio@$00$0DLJKMKAA@@2@@std@@2_JB ; std::_Ratio_multiply<std::ratio<100,1>,std::ratio<1,1000000000> >::_N1
PUBLIC	?resourceView@@3PAUID3D11ShaderResourceView@@A	; resourceView
PUBLIC	?_D1@?$_Ratio_multiply@U?$ratio@$0GE@$00@std@@U?$ratio@$00$0DLJKMKAA@@2@@std@@2_JB ; std::_Ratio_multiply<std::ratio<100,1>,std::ratio<1,1000000000> >::_D1
PUBLIC	?samplerState@@3PAUID3D11SamplerState@@A	; samplerState
PUBLIC	?sBufferDesc@@3UD3D11_SAMPLER_DESC@@A		; sBufferDesc
PUBLIC	?value@?$_Sign_of@$0DLJKMKAA@@std@@2_JB		; std::_Sign_of<1000000000>::value
PUBLIC	?g_iNullu32@@3IA				; g_iNullu32
PUBLIC	?g_pParticleVS@@3PAUID3D11VertexShader@@A	; g_pParticleVS
PUBLIC	?is_signed@?$numeric_limits@G@std@@2_NB		; std::numeric_limits<unsigned short>::is_signed
PUBLIC	?g_pParticleGS@@3PAUID3D11GeometryShader@@A	; g_pParticleGS
PUBLIC	?g_pParticlePS@@3PAUID3D11PixelShader@@A	; g_pParticlePS
PUBLIC	?g_pBuildGridCS@@3PAUID3D11ComputeShader@@A	; g_pBuildGridCS
PUBLIC	?g_pClearGridIndicesCS@@3PAUID3D11ComputeShader@@A ; g_pClearGridIndicesCS
PUBLIC	?digits@?$numeric_limits@G@std@@2HB		; std::numeric_limits<unsigned short>::digits
PUBLIC	?g_pBuildGridIndicesCS@@3PAUID3D11ComputeShader@@A ; g_pBuildGridIndicesCS
PUBLIC	?g_pRearrangeParticlesCS@@3PAUID3D11ComputeShader@@A ; g_pRearrangeParticlesCS
PUBLIC	?g_pRepositionParticlesCS@@3PAUID3D11ComputeShader@@A ; g_pRepositionParticlesCS
PUBLIC	?value@?$_Abs@$0DLJKMKAA@@std@@2_JB		; std::_Abs<1000000000>::value
PUBLIC	?g_pDensity_SimpleCS@@3PAUID3D11ComputeShader@@A ; g_pDensity_SimpleCS
PUBLIC	?g_pForce_SimpleCS@@3PAUID3D11ComputeShader@@A	; g_pForce_SimpleCS
PUBLIC	?digits10@?$numeric_limits@G@std@@2HB		; std::numeric_limits<unsigned short>::digits10
PUBLIC	?g_pDensity_SharedCS@@3PAUID3D11ComputeShader@@A ; g_pDensity_SharedCS
PUBLIC	?g_pForce_SharedCS@@3PAUID3D11ComputeShader@@A	; g_pForce_SharedCS
PUBLIC	?g_pDensity_GridCS@@3PAUID3D11ComputeShader@@A	; g_pDensity_GridCS
PUBLIC	?g_pForce_GridCS@@3PAUID3D11ComputeShader@@A	; g_pForce_GridCS
PUBLIC	?g_pIntegrateCS@@3PAUID3D11ComputeShader@@A	; g_pIntegrateCS
PUBLIC	?g_pSortBitonic@@3PAUID3D11ComputeShader@@A	; g_pSortBitonic
PUBLIC	?g_pSortTranspose@@3PAUID3D11ComputeShader@@A	; g_pSortTranspose
PUBLIC	?g_pParticles@@3PAUID3D11Buffer@@A		; g_pParticles
PUBLIC	?g_pParticlesSRV@@3PAUID3D11ShaderResourceView@@A ; g_pParticlesSRV
PUBLIC	?g_pParticlesUAV@@3PAUID3D11UnorderedAccessView@@A ; g_pParticlesUAV
PUBLIC	?g_pSortedParticles@@3PAUID3D11Buffer@@A	; g_pSortedParticles
PUBLIC	?g_pSortedParticlesSRV@@3PAUID3D11ShaderResourceView@@A ; g_pSortedParticlesSRV
PUBLIC	?value@?$_GcdX@$0DLJKMKAA@$00@std@@2_JB		; std::_GcdX<1000000000,1>::value
PUBLIC	?g_pSortedParticlesUAV@@3PAUID3D11UnorderedAccessView@@A ; g_pSortedParticlesUAV
PUBLIC	?g_pParticleDensity@@3PAUID3D11Buffer@@A	; g_pParticleDensity
PUBLIC	?g_pParticleDensitySRV@@3PAUID3D11ShaderResourceView@@A ; g_pParticleDensitySRV
PUBLIC	?g_pParticleDensityUAV@@3PAUID3D11UnorderedAccessView@@A ; g_pParticleDensityUAV
PUBLIC	?g_pParticleForces@@3PAUID3D11Buffer@@A		; g_pParticleForces
PUBLIC	?g_pParticleForcesSRV@@3PAUID3D11ShaderResourceView@@A ; g_pParticleForcesSRV
PUBLIC	?g_pParticleForcesUAV@@3PAUID3D11UnorderedAccessView@@A ; g_pParticleForcesUAV
PUBLIC	?g_pGrid@@3PAUID3D11Buffer@@A			; g_pGrid
PUBLIC	?value@?$_GcdX@$00$0DLJKMKAA@@std@@2_JB		; std::_GcdX<1,1000000000>::value
PUBLIC	?g_pGridSRV@@3PAUID3D11ShaderResourceView@@A	; g_pGridSRV
PUBLIC	?g_pGridUAV@@3PAUID3D11UnorderedAccessView@@A	; g_pGridUAV
PUBLIC	?g_pGridPingPong@@3PAUID3D11Buffer@@A		; g_pGridPingPong
PUBLIC	?g_pGridPingPongSRV@@3PAUID3D11ShaderResourceView@@A ; g_pGridPingPongSRV
PUBLIC	?g_pGridPingPongUAV@@3PAUID3D11UnorderedAccessView@@A ; g_pGridPingPongUAV
PUBLIC	?g_pGridIndices@@3PAUID3D11Buffer@@A		; g_pGridIndices
PUBLIC	?g_pGridIndicesSRV@@3PAUID3D11ShaderResourceView@@A ; g_pGridIndicesSRV
PUBLIC	?g_pGridIndicesUAV@@3PAUID3D11UnorderedAccessView@@A ; g_pGridIndicesUAV
PUBLIC	?value@?$_Gcd@$00$0DLJKMKAA@@std@@2_JB		; std::_Gcd<1,1000000000>::value
PUBLIC	?m_pProcessBuffer@@3PAUID3D11Buffer@@A		; m_pProcessBuffer
PUBLIC	?is_signed@?$numeric_limits@H@std@@2_NB		; std::numeric_limits<int>::is_signed
PUBLIC	?m_pProcessSRV@@3PAUID3D11ShaderResourceView@@A	; m_pProcessSRV
PUBLIC	?m_pProcessUAV@@3PAUID3D11UnorderedAccessView@@A ; m_pProcessUAV
PUBLIC	?m_pProcessCS@@3PAUID3D11ComputeShader@@A	; m_pProcessCS
PUBLIC	?digits@?$numeric_limits@H@std@@2HB		; std::numeric_limits<int>::digits
PUBLIC	?num@?$ratio@$00$0DLJKMKAA@@std@@2_JB		; std::ratio<1,1000000000>::num
PUBLIC	?digits10@?$numeric_limits@H@std@@2HB		; std::numeric_limits<int>::digits10
PUBLIC	?den@?$ratio@$00$0DLJKMKAA@@std@@2_JB		; std::ratio<1,1000000000>::den
PUBLIC	?_N2@?$_Ratio_multiply@U?$ratio@$0GE@$00@std@@U?$ratio@$00$0DLJKMKAA@@2@@std@@2_JB ; std::_Ratio_multiply<std::ratio<100,1>,std::ratio<1,1000000000> >::_N2
PUBLIC	?_D2@?$_Ratio_multiply@U?$ratio@$0GE@$00@std@@U?$ratio@$00$0DLJKMKAA@@2@@std@@2_JB ; std::_Ratio_multiply<std::ratio<100,1>,std::ratio<1,1000000000> >::_D2
PUBLIC	?value@?$_GcdX@$0GE@$0A@@std@@2_JB		; std::_GcdX<100,0>::value
PUBLIC	?is_signed@?$numeric_limits@I@std@@2_NB		; std::numeric_limits<unsigned int>::is_signed
PUBLIC	?value@?$_GcdX@$0DLJKMKAA@$0GE@@std@@2_JB	; std::_GcdX<1000000000,100>::value
PUBLIC	?digits@?$numeric_limits@I@std@@2HB		; std::numeric_limits<unsigned int>::digits
PUBLIC	?g_pcbSimulationConstants@@3PAUID3D11Buffer@@A	; g_pcbSimulationConstants
PUBLIC	?g_pcbRenderConstants@@3PAUID3D11Buffer@@A	; g_pcbRenderConstants
PUBLIC	?digits10@?$numeric_limits@I@std@@2HB		; std::numeric_limits<unsigned int>::digits10
PUBLIC	?g_pSortCB@@3PAUID3D11Buffer@@A			; g_pSortCB
PUBLIC	?value@?$_GcdX@$0GE@$0DLJKMKAA@@std@@2_JB	; std::_GcdX<100,1000000000>::value
PUBLIC	?value@?$_Gcd@$0GE@$0DLJKMKAA@@std@@2_JB	; std::_Gcd<100,1000000000>::value
PUBLIC	?_Gx@?$_Ratio_multiply@U?$ratio@$0GE@$00@std@@U?$ratio@$00$0DLJKMKAA@@2@@std@@2_JB ; std::_Ratio_multiply<std::ratio<100,1>,std::ratio<1,1000000000> >::_Gx
PUBLIC	?value@?$_GcdX@$00$00@std@@2_JB			; std::_GcdX<1,1>::value
PUBLIC	?is_signed@?$numeric_limits@J@std@@2_NB		; std::numeric_limits<long>::is_signed
PUBLIC	?digits@?$numeric_limits@J@std@@2HB		; std::numeric_limits<long>::digits
PUBLIC	?value@?$_Gcd@$00$00@std@@2_JB			; std::_Gcd<1,1>::value
PUBLIC	?digits10@?$numeric_limits@J@std@@2HB		; std::numeric_limits<long>::digits10
PUBLIC	?_Gy@?$_Ratio_multiply@U?$ratio@$0GE@$00@std@@U?$ratio@$00$0DLJKMKAA@@2@@std@@2_JB ; std::_Ratio_multiply<std::ratio<100,1>,std::ratio<1,1000000000> >::_Gy
PUBLIC	?value@?$_Safe_multX@$00$00$00@std@@2_JB	; std::_Safe_multX<1,1,1>::value
PUBLIC	?value@?$_Safe_mult@$00$00@std@@2_JB		; std::_Safe_mult<1,1>::value
PUBLIC	?is_signed@?$numeric_limits@K@std@@2_NB		; std::numeric_limits<unsigned long>::is_signed
PUBLIC	?digits@?$numeric_limits@K@std@@2HB		; std::numeric_limits<unsigned long>::digits
PUBLIC	?value@?$_Abs@$0JIJGIA@@std@@2_JB		; std::_Abs<10000000>::value
PUBLIC	?digits10@?$numeric_limits@K@std@@2HB		; std::numeric_limits<unsigned long>::digits10
PUBLIC	?value@?$_Safe_multX@$00$0JIJGIA@$00@std@@2_JB	; std::_Safe_multX<1,10000000,1>::value
PUBLIC	?value@?$_Safe_mult@$00$0JIJGIA@@std@@2_JB	; std::_Safe_mult<1,10000000>::value
PUBLIC	?is_signed@?$numeric_limits@_J@std@@2_NB	; std::numeric_limits<__int64>::is_signed
PUBLIC	?digits@?$numeric_limits@_J@std@@2HB		; std::numeric_limits<__int64>::digits
PUBLIC	?digits10@?$numeric_limits@_J@std@@2HB		; std::numeric_limits<__int64>::digits10
PUBLIC	?is_monotonic@system_clock@chrono@std@@2_NB	; std::chrono::system_clock::is_monotonic
PUBLIC	?is_steady@system_clock@chrono@std@@2_NB	; std::chrono::system_clock::is_steady
PUBLIC	?is_signed@?$numeric_limits@_K@std@@2_NB	; std::numeric_limits<unsigned __int64>::is_signed
PUBLIC	?digits@?$numeric_limits@_K@std@@2HB		; std::numeric_limits<unsigned __int64>::digits
PUBLIC	?digits10@?$numeric_limits@_K@std@@2HB		; std::numeric_limits<unsigned __int64>::digits10
PUBLIC	?g_iNumParticles@@3IA				; g_iNumParticles
PUBLIC	?timeout_infinite@event@Concurrency@@2IB	; Concurrency::event::timeout_infinite
PUBLIC	?digits@?$numeric_limits@M@std@@2HB		; std::numeric_limits<float>::digits
PUBLIC	?digits10@?$numeric_limits@M@std@@2HB		; std::numeric_limits<float>::digits10
PUBLIC	?max_digits10@?$numeric_limits@M@std@@2HB	; std::numeric_limits<float>::max_digits10
PUBLIC	?max_exponent@?$numeric_limits@M@std@@2HB	; std::numeric_limits<float>::max_exponent
PUBLIC	?g_eSimMode@@3W4eSimulationMode@@A		; g_eSimMode
PUBLIC	?max_exponent10@?$numeric_limits@M@std@@2HB	; std::numeric_limits<float>::max_exponent10
PUBLIC	?min_exponent@?$numeric_limits@M@std@@2HB	; std::numeric_limits<float>::min_exponent
PUBLIC	?min_exponent10@?$numeric_limits@M@std@@2HB	; std::numeric_limits<float>::min_exponent10
PUBLIC	?digits@?$numeric_limits@N@std@@2HB		; std::numeric_limits<double>::digits
PUBLIC	?digits10@?$numeric_limits@N@std@@2HB		; std::numeric_limits<double>::digits10
PUBLIC	?max_digits10@?$numeric_limits@N@std@@2HB	; std::numeric_limits<double>::max_digits10
PUBLIC	?max_exponent@?$numeric_limits@N@std@@2HB	; std::numeric_limits<double>::max_exponent
PUBLIC	?max_exponent10@?$numeric_limits@N@std@@2HB	; std::numeric_limits<double>::max_exponent10
PUBLIC	?min_exponent@?$numeric_limits@N@std@@2HB	; std::numeric_limits<double>::min_exponent
PUBLIC	?min_exponent10@?$numeric_limits@N@std@@2HB	; std::numeric_limits<double>::min_exponent10
PUBLIC	_CLSID_WICImagingFactory
PUBLIC	_CLSID_WICImagingFactory1
PUBLIC	_CLSID_WICImagingFactory2
PUBLIC	_GUID_VendorMicrosoft
PUBLIC	_GUID_VendorMicrosoftBuiltIn
PUBLIC	_CLSID_WICPngDecoder
PUBLIC	_CLSID_WICPngDecoder1
PUBLIC	_CLSID_WICPngDecoder2
PUBLIC	_CLSID_WICBmpDecoder
PUBLIC	_CLSID_WICIcoDecoder
PUBLIC	_CLSID_WICJpegDecoder
PUBLIC	_CLSID_WICGifDecoder
PUBLIC	_CLSID_WICTiffDecoder
PUBLIC	_CLSID_WICWmpDecoder
PUBLIC	_CLSID_WICDdsDecoder
PUBLIC	_CLSID_WICBmpEncoder
PUBLIC	_CLSID_WICPngEncoder
PUBLIC	_CLSID_WICJpegEncoder
PUBLIC	_CLSID_WICGifEncoder
PUBLIC	_CLSID_WICTiffEncoder
PUBLIC	_CLSID_WICWmpEncoder
PUBLIC	_CLSID_WICDdsEncoder
PUBLIC	_GUID_ContainerFormatBmp
PUBLIC	?digits@?$numeric_limits@O@std@@2HB		; std::numeric_limits<long double>::digits
PUBLIC	_GUID_ContainerFormatPng
PUBLIC	_GUID_ContainerFormatIco
PUBLIC	_GUID_ContainerFormatJpeg
PUBLIC	?digits10@?$numeric_limits@O@std@@2HB		; std::numeric_limits<long double>::digits10
PUBLIC	_GUID_ContainerFormatTiff
PUBLIC	_GUID_ContainerFormatGif
PUBLIC	_GUID_ContainerFormatWmp
PUBLIC	?max_digits10@?$numeric_limits@O@std@@2HB	; std::numeric_limits<long double>::max_digits10
PUBLIC	_GUID_ContainerFormatDds
PUBLIC	_CLSID_WICImagingCategories
PUBLIC	_CATID_WICBitmapDecoders
PUBLIC	_CATID_WICBitmapEncoders
PUBLIC	?max_exponent@?$numeric_limits@O@std@@2HB	; std::numeric_limits<long double>::max_exponent
PUBLIC	_CATID_WICPixelFormats
PUBLIC	_CATID_WICFormatConverters
PUBLIC	_CATID_WICMetadataReader
PUBLIC	_CATID_WICMetadataWriter
PUBLIC	?max_exponent10@?$numeric_limits@O@std@@2HB	; std::numeric_limits<long double>::max_exponent10
PUBLIC	_CLSID_WICDefaultFormatConverter
PUBLIC	_CLSID_WICFormatConverterHighColor
PUBLIC	_CLSID_WICFormatConverterNChannel
PUBLIC	_CLSID_WICFormatConverterWMPhoto
PUBLIC	?min_exponent@?$numeric_limits@O@std@@2HB	; std::numeric_limits<long double>::min_exponent
PUBLIC	_CLSID_WICPlanarFormatConverter
PUBLIC	?min_exponent10@?$numeric_limits@O@std@@2HB	; std::numeric_limits<long double>::min_exponent10
PUBLIC	_GUID_WICPixelFormatDontCare
PUBLIC	_GUID_WICPixelFormat1bppIndexed
PUBLIC	_GUID_WICPixelFormat2bppIndexed
PUBLIC	_GUID_WICPixelFormat4bppIndexed
PUBLIC	?value@?$_Sign_of@$0JIJGIA@@std@@2_JB		; std::_Sign_of<10000000>::value
PUBLIC	_GUID_WICPixelFormat8bppIndexed
PUBLIC	_GUID_WICPixelFormatBlackWhite
PUBLIC	_GUID_WICPixelFormat2bppGray
PUBLIC	_GUID_WICPixelFormat4bppGray
PUBLIC	_GUID_WICPixelFormat8bppGray
PUBLIC	_GUID_WICPixelFormat8bppAlpha
PUBLIC	_GUID_WICPixelFormat16bppBGR555
PUBLIC	_GUID_WICPixelFormat16bppBGR565
PUBLIC	_GUID_WICPixelFormat16bppBGRA5551
PUBLIC	_GUID_WICPixelFormat16bppGray
PUBLIC	_GUID_WICPixelFormat24bppBGR
PUBLIC	_GUID_WICPixelFormat24bppRGB
PUBLIC	_GUID_WICPixelFormat32bppBGR
PUBLIC	_GUID_WICPixelFormat32bppBGRA
PUBLIC	_GUID_WICPixelFormat32bppPBGRA
PUBLIC	_GUID_WICPixelFormat32bppGrayFloat
PUBLIC	_GUID_WICPixelFormat32bppRGBA
PUBLIC	?value@?$_GcdX@$0JIJGIA@$00@std@@2_JB		; std::_GcdX<10000000,1>::value
PUBLIC	_GUID_WICPixelFormat32bppPRGBA
PUBLIC	_GUID_WICPixelFormat48bppRGB
PUBLIC	_GUID_WICPixelFormat48bppBGR
PUBLIC	_GUID_WICPixelFormat64bppRGBA
PUBLIC	_GUID_WICPixelFormat64bppBGRA
PUBLIC	_GUID_WICPixelFormat64bppPRGBA
PUBLIC	_GUID_WICPixelFormat64bppPBGRA
PUBLIC	_GUID_WICPixelFormat16bppGrayFixedPoint
PUBLIC	?value@?$_GcdX@$00$0JIJGIA@@std@@2_JB		; std::_GcdX<1,10000000>::value
PUBLIC	_GUID_WICPixelFormat32bppBGR101010
PUBLIC	_GUID_WICPixelFormat48bppRGBFixedPoint
PUBLIC	_GUID_WICPixelFormat48bppBGRFixedPoint
PUBLIC	_GUID_WICPixelFormat96bppRGBFixedPoint
PUBLIC	_GUID_WICPixelFormat128bppRGBAFloat
PUBLIC	_GUID_WICPixelFormat128bppPRGBAFloat
PUBLIC	_GUID_WICPixelFormat128bppRGBFloat
PUBLIC	_GUID_WICPixelFormat32bppCMYK
PUBLIC	?value@?$_Gcd@$00$0JIJGIA@@std@@2_JB		; std::_Gcd<1,10000000>::value
PUBLIC	_GUID_WICPixelFormat64bppRGBAFixedPoint
PUBLIC	_GUID_WICPixelFormat64bppBGRAFixedPoint
PUBLIC	_GUID_WICPixelFormat64bppRGBFixedPoint
PUBLIC	_GUID_WICPixelFormat128bppRGBAFixedPoint
PUBLIC	_GUID_WICPixelFormat128bppRGBFixedPoint
PUBLIC	_GUID_WICPixelFormat64bppRGBAHalf
PUBLIC	_GUID_WICPixelFormat64bppRGBHalf
PUBLIC	_GUID_WICPixelFormat48bppRGBHalf
PUBLIC	?num@?$ratio@$00$0JIJGIA@@std@@2_JB		; std::ratio<1,10000000>::num
PUBLIC	_GUID_WICPixelFormat32bppRGBE
PUBLIC	_GUID_WICPixelFormat16bppGrayHalf
PUBLIC	?den@?$ratio@$00$0JIJGIA@@std@@2_JB		; std::ratio<1,10000000>::den
PUBLIC	_GUID_WICPixelFormat32bppGrayFixedPoint
PUBLIC	_GUID_WICPixelFormat32bppRGBA1010102
PUBLIC	_GUID_WICPixelFormat32bppRGBA1010102XR
PUBLIC	_GUID_WICPixelFormat64bppCMYK
PUBLIC	_GUID_WICPixelFormat24bpp3Channels
PUBLIC	_GUID_WICPixelFormat32bpp4Channels
PUBLIC	_GUID_WICPixelFormat40bpp5Channels
PUBLIC	_GUID_WICPixelFormat48bpp6Channels
PUBLIC	_GUID_WICPixelFormat56bpp7Channels
PUBLIC	?_N2@?$_Ratio_divide@U?$ratio@$00$0JIJGIA@@std@@U12@@std@@2_JB ; std::_Ratio_divide<std::ratio<1,10000000>,std::ratio<1,10000000> >::_N2
PUBLIC	_GUID_WICPixelFormat64bpp8Channels
PUBLIC	_GUID_WICPixelFormat48bpp3Channels
PUBLIC	?_D2@?$_Ratio_divide@U?$ratio@$00$0JIJGIA@@std@@U12@@std@@2_JB ; std::_Ratio_divide<std::ratio<1,10000000>,std::ratio<1,10000000> >::_D2
PUBLIC	_GUID_WICPixelFormat64bpp4Channels
PUBLIC	_GUID_WICPixelFormat80bpp5Channels
PUBLIC	_GUID_WICPixelFormat96bpp6Channels
PUBLIC	_GUID_WICPixelFormat112bpp7Channels
PUBLIC	_GUID_WICPixelFormat128bpp8Channels
PUBLIC	_GUID_WICPixelFormat40bppCMYKAlpha
PUBLIC	_GUID_WICPixelFormat80bppCMYKAlpha
PUBLIC	?g_XMSinCoefficients0@DirectX@@3UXMVECTORF32@1@B ; DirectX::g_XMSinCoefficients0
PUBLIC	_GUID_WICPixelFormat32bpp3ChannelsAlpha
PUBLIC	?g_XMSinCoefficients1@DirectX@@3UXMVECTORF32@1@B ; DirectX::g_XMSinCoefficients1
PUBLIC	_GUID_WICPixelFormat40bpp4ChannelsAlpha
PUBLIC	?g_XMCosCoefficients0@DirectX@@3UXMVECTORF32@1@B ; DirectX::g_XMCosCoefficients0
PUBLIC	_GUID_WICPixelFormat48bpp5ChannelsAlpha
PUBLIC	?g_XMCosCoefficients1@DirectX@@3UXMVECTORF32@1@B ; DirectX::g_XMCosCoefficients1
PUBLIC	_GUID_WICPixelFormat56bpp6ChannelsAlpha
PUBLIC	?g_XMTanCoefficients0@DirectX@@3UXMVECTORF32@1@B ; DirectX::g_XMTanCoefficients0
PUBLIC	_GUID_WICPixelFormat64bpp7ChannelsAlpha
PUBLIC	_GUID_WICPixelFormat72bpp8ChannelsAlpha
PUBLIC	?g_XMTanCoefficients1@DirectX@@3UXMVECTORF32@1@B ; DirectX::g_XMTanCoefficients1
PUBLIC	?g_XMTanCoefficients2@DirectX@@3UXMVECTORF32@1@B ; DirectX::g_XMTanCoefficients2
PUBLIC	_GUID_WICPixelFormat64bpp3ChannelsAlpha
PUBLIC	?g_XMArcCoefficients0@DirectX@@3UXMVECTORF32@1@B ; DirectX::g_XMArcCoefficients0
PUBLIC	_GUID_WICPixelFormat80bpp4ChannelsAlpha
PUBLIC	?g_XMArcCoefficients1@DirectX@@3UXMVECTORF32@1@B ; DirectX::g_XMArcCoefficients1
PUBLIC	_GUID_WICPixelFormat96bpp5ChannelsAlpha
PUBLIC	?g_XMATanCoefficients0@DirectX@@3UXMVECTORF32@1@B ; DirectX::g_XMATanCoefficients0
PUBLIC	_GUID_WICPixelFormat112bpp6ChannelsAlpha
PUBLIC	_GUID_WICPixelFormat128bpp7ChannelsAlpha
PUBLIC	?g_XMATanCoefficients1@DirectX@@3UXMVECTORF32@1@B ; DirectX::g_XMATanCoefficients1
PUBLIC	?g_XMATanEstCoefficients0@DirectX@@3UXMVECTORF32@1@B ; DirectX::g_XMATanEstCoefficients0
PUBLIC	_GUID_WICPixelFormat144bpp8ChannelsAlpha
PUBLIC	?g_XMATanEstCoefficients1@DirectX@@3UXMVECTORF32@1@B ; DirectX::g_XMATanEstCoefficients1
PUBLIC	_GUID_WICPixelFormat8bppY
PUBLIC	?skipws@?$_Iosb@H@std@@2W4_Fmtflags@12@B	; std::_Iosb<int>::skipws
PUBLIC	_GUID_WICPixelFormat8bppCb
PUBLIC	?_N1@?$_Ratio_multiply@U?$ratio@$00$0JIJGIA@@std@@U?$ratio@$0JIJGIA@$00@2@@std@@2_JB ; std::_Ratio_multiply<std::ratio<1,10000000>,std::ratio<10000000,1> >::_N1
PUBLIC	_GUID_WICPixelFormat8bppCr
PUBLIC	_GUID_WICPixelFormat16bppCbCr
PUBLIC	?_D1@?$_Ratio_multiply@U?$ratio@$00$0JIJGIA@@std@@U?$ratio@$0JIJGIA@$00@2@@std@@2_JB ; std::_Ratio_multiply<std::ratio<1,10000000>,std::ratio<10000000,1> >::_D1
PUBLIC	?unitbuf@?$_Iosb@H@std@@2W4_Fmtflags@12@B	; std::_Iosb<int>::unitbuf
PUBLIC	?g_XMArcEstCoefficients@DirectX@@3UXMVECTORF32@1@B ; DirectX::g_XMArcEstCoefficients
PUBLIC	?uppercase@?$_Iosb@H@std@@2W4_Fmtflags@12@B	; std::_Iosb<int>::uppercase
PUBLIC	?showbase@?$_Iosb@H@std@@2W4_Fmtflags@12@B	; std::_Iosb<int>::showbase
PUBLIC	?g_XMIdentityR0@DirectX@@3UXMVECTORF32@1@B	; DirectX::g_XMIdentityR0
PUBLIC	?value@?$_Gcd@$0JIJGIA@$00@std@@2_JB		; std::_Gcd<10000000,1>::value
PUBLIC	?g_XMIdentityR1@DirectX@@3UXMVECTORF32@1@B	; DirectX::g_XMIdentityR1
PUBLIC	?g_XMIdentityR2@DirectX@@3UXMVECTORF32@1@B	; DirectX::g_XMIdentityR2
PUBLIC	?showpoint@?$_Iosb@H@std@@2W4_Fmtflags@12@B	; std::_Iosb<int>::showpoint
PUBLIC	?g_XMIdentityR3@DirectX@@3UXMVECTORF32@1@B	; DirectX::g_XMIdentityR3
PUBLIC	?g_XMNegIdentityR0@DirectX@@3UXMVECTORF32@1@B	; DirectX::g_XMNegIdentityR0
PUBLIC	?g_XMNegIdentityR1@DirectX@@3UXMVECTORF32@1@B	; DirectX::g_XMNegIdentityR1
PUBLIC	?showpos@?$_Iosb@H@std@@2W4_Fmtflags@12@B	; std::_Iosb<int>::showpos
PUBLIC	?g_XMNegIdentityR2@DirectX@@3UXMVECTORF32@1@B	; DirectX::g_XMNegIdentityR2
PUBLIC	?g_XMNegIdentityR3@DirectX@@3UXMVECTORF32@1@B	; DirectX::g_XMNegIdentityR3
PUBLIC	?value@?$_Gcd@$0A@$0A@@std@@2_JB		; std::_Gcd<0,0>::value
PUBLIC	?g_XMNegativeZero@DirectX@@3UXMVECTORI32@1@B	; DirectX::g_XMNegativeZero
PUBLIC	?num@?$ratio@$0JIJGIA@$00@std@@2_JB		; std::ratio<10000000,1>::num
PUBLIC	?left@?$_Iosb@H@std@@2W4_Fmtflags@12@B		; std::_Iosb<int>::left
PUBLIC	?g_XMNegate3@DirectX@@3UXMVECTORI32@1@B		; DirectX::g_XMNegate3
PUBLIC	?g_XMMask3@DirectX@@3UXMVECTORI32@1@B		; DirectX::g_XMMask3
PUBLIC	?den@?$ratio@$0JIJGIA@$00@std@@2_JB		; std::ratio<10000000,1>::den
PUBLIC	?g_XMMaskX@DirectX@@3UXMVECTORI32@1@B		; DirectX::g_XMMaskX
PUBLIC	?right@?$_Iosb@H@std@@2W4_Fmtflags@12@B		; std::_Iosb<int>::right
PUBLIC	?g_XMMaskY@DirectX@@3UXMVECTORI32@1@B		; DirectX::g_XMMaskY
PUBLIC	?g_XMMaskZ@DirectX@@3UXMVECTORI32@1@B		; DirectX::g_XMMaskZ
PUBLIC	?g_XMMaskW@DirectX@@3UXMVECTORI32@1@B		; DirectX::g_XMMaskW
PUBLIC	?internal@?$_Iosb@H@std@@2W4_Fmtflags@12@B	; std::_Iosb<int>::internal
PUBLIC	?g_XMOne@DirectX@@3UXMVECTORF32@1@B		; DirectX::g_XMOne
PUBLIC	?g_XMOne3@DirectX@@3UXMVECTORF32@1@B		; DirectX::g_XMOne3
PUBLIC	?g_XMZero@DirectX@@3UXMVECTORF32@1@B		; DirectX::g_XMZero
PUBLIC	?dec@?$_Iosb@H@std@@2W4_Fmtflags@12@B		; std::_Iosb<int>::dec
PUBLIC	?g_XMTwo@DirectX@@3UXMVECTORF32@1@B		; DirectX::g_XMTwo
PUBLIC	?g_XMFour@DirectX@@3UXMVECTORF32@1@B		; DirectX::g_XMFour
PUBLIC	?_N2@?$_Ratio_multiply@U?$ratio@$00$0JIJGIA@@std@@U?$ratio@$0JIJGIA@$00@2@@std@@2_JB ; std::_Ratio_multiply<std::ratio<1,10000000>,std::ratio<10000000,1> >::_N2
PUBLIC	?g_XMSix@DirectX@@3UXMVECTORF32@1@B		; DirectX::g_XMSix
PUBLIC	?oct@?$_Iosb@H@std@@2W4_Fmtflags@12@B		; std::_Iosb<int>::oct
PUBLIC	?g_XMNegativeOne@DirectX@@3UXMVECTORF32@1@B	; DirectX::g_XMNegativeOne
PUBLIC	?_D2@?$_Ratio_multiply@U?$ratio@$00$0JIJGIA@@std@@U?$ratio@$0JIJGIA@$00@2@@std@@2_JB ; std::_Ratio_multiply<std::ratio<1,10000000>,std::ratio<10000000,1> >::_D2
PUBLIC	?g_XMOneHalf@DirectX@@3UXMVECTORF32@1@B		; DirectX::g_XMOneHalf
PUBLIC	?g_XMNegativeOneHalf@DirectX@@3UXMVECTORF32@1@B	; DirectX::g_XMNegativeOneHalf
PUBLIC	?hex@?$_Iosb@H@std@@2W4_Fmtflags@12@B		; std::_Iosb<int>::hex
PUBLIC	?_Gx@?$_Ratio_multiply@U?$ratio@$00$0JIJGIA@@std@@U?$ratio@$0JIJGIA@$00@2@@std@@2_JB ; std::_Ratio_multiply<std::ratio<1,10000000>,std::ratio<10000000,1> >::_Gx
PUBLIC	?scientific@?$_Iosb@H@std@@2W4_Fmtflags@12@B	; std::_Iosb<int>::scientific
PUBLIC	?AliceBlue@Colors@DirectX@@3UXMVECTORF32@2@B	; DirectX::Colors::AliceBlue
PUBLIC	?AntiqueWhite@Colors@DirectX@@3UXMVECTORF32@2@B	; DirectX::Colors::AntiqueWhite
PUBLIC	?Aqua@Colors@DirectX@@3UXMVECTORF32@2@B		; DirectX::Colors::Aqua
PUBLIC	?fixed@?$_Iosb@H@std@@2W4_Fmtflags@12@B		; std::_Iosb<int>::fixed
PUBLIC	?collate@?$_Locbase@H@std@@2HB			; std::_Locbase<int>::collate
PUBLIC	?Aquamarine@Colors@DirectX@@3UXMVECTORF32@2@B	; DirectX::Colors::Aquamarine
PUBLIC	?Azure@Colors@DirectX@@3UXMVECTORF32@2@B	; DirectX::Colors::Azure
PUBLIC	?ctype@?$_Locbase@H@std@@2HB			; std::_Locbase<int>::ctype
PUBLIC	?Beige@Colors@DirectX@@3UXMVECTORF32@2@B	; DirectX::Colors::Beige
PUBLIC	?hexfloat@?$_Iosb@H@std@@2W4_Fmtflags@12@B	; std::_Iosb<int>::hexfloat
PUBLIC	?Bisque@Colors@DirectX@@3UXMVECTORF32@2@B	; DirectX::Colors::Bisque
PUBLIC	?value@?$_GcdX@$0JIJGIA@$0A@@std@@2_JB		; std::_GcdX<10000000,0>::value
PUBLIC	?monetary@?$_Locbase@H@std@@2HB			; std::_Locbase<int>::monetary
PUBLIC	?Black@Colors@DirectX@@3UXMVECTORF32@2@B	; DirectX::Colors::Black
PUBLIC	?BlanchedAlmond@Colors@DirectX@@3UXMVECTORF32@2@B ; DirectX::Colors::BlanchedAlmond
PUBLIC	?numeric@?$_Locbase@H@std@@2HB			; std::_Locbase<int>::numeric
PUBLIC	?boolalpha@?$_Iosb@H@std@@2W4_Fmtflags@12@B	; std::_Iosb<int>::boolalpha
PUBLIC	?Blue@Colors@DirectX@@3UXMVECTORF32@2@B		; DirectX::Colors::Blue
PUBLIC	?BlueViolet@Colors@DirectX@@3UXMVECTORF32@2@B	; DirectX::Colors::BlueViolet
PUBLIC	?time@?$_Locbase@H@std@@2HB			; std::_Locbase<int>::time
PUBLIC	?Brown@Colors@DirectX@@3UXMVECTORF32@2@B	; DirectX::Colors::Brown
PUBLIC	?_Stdio@?$_Iosb@H@std@@2W4_Fmtflags@12@B	; std::_Iosb<int>::_Stdio
PUBLIC	?BurlyWood@Colors@DirectX@@3UXMVECTORF32@2@B	; DirectX::Colors::BurlyWood
PUBLIC	?messages@?$_Locbase@H@std@@2HB			; std::_Locbase<int>::messages
PUBLIC	?CadetBlue@Colors@DirectX@@3UXMVECTORF32@2@B	; DirectX::Colors::CadetBlue
PUBLIC	?Chartreuse@Colors@DirectX@@3UXMVECTORF32@2@B	; DirectX::Colors::Chartreuse
PUBLIC	?all@?$_Locbase@H@std@@2HB			; std::_Locbase<int>::all
PUBLIC	?value@?$_GcdX@$0JIJGIA@$0JIJGIA@@std@@2_JB	; std::_GcdX<10000000,10000000>::value
PUBLIC	?adjustfield@?$_Iosb@H@std@@2W4_Fmtflags@12@B	; std::_Iosb<int>::adjustfield
PUBLIC	?Chocolate@Colors@DirectX@@3UXMVECTORF32@2@B	; DirectX::Colors::Chocolate
PUBLIC	?Coral@Colors@DirectX@@3UXMVECTORF32@2@B	; DirectX::Colors::Coral
PUBLIC	?none@?$_Locbase@H@std@@2HB			; std::_Locbase<int>::none
PUBLIC	?CornflowerBlue@Colors@DirectX@@3UXMVECTORF32@2@B ; DirectX::Colors::CornflowerBlue
PUBLIC	?basefield@?$_Iosb@H@std@@2W4_Fmtflags@12@B	; std::_Iosb<int>::basefield
PUBLIC	?Cornsilk@Colors@DirectX@@3UXMVECTORF32@2@B	; DirectX::Colors::Cornsilk
PUBLIC	?particles@@3PAUParticle@@A			; particles
PUBLIC	?Crimson@Colors@DirectX@@3UXMVECTORF32@2@B	; DirectX::Colors::Crimson
PUBLIC	?Cyan@Colors@DirectX@@3UXMVECTORF32@2@B		; DirectX::Colors::Cyan
PUBLIC	?floatfield@?$_Iosb@H@std@@2W4_Fmtflags@12@B	; std::_Iosb<int>::floatfield
PUBLIC	?DarkBlue@Colors@DirectX@@3UXMVECTORF32@2@B	; DirectX::Colors::DarkBlue
PUBLIC	?_S_cancelBitsMask@_TaskCollectionBase@details@Concurrency@@1IB ; Concurrency::details::_TaskCollectionBase::_S_cancelBitsMask
PUBLIC	?DarkCyan@Colors@DirectX@@3UXMVECTORF32@2@B	; DirectX::Colors::DarkCyan
PUBLIC	?value@?$_Gcd@$0JIJGIA@$0JIJGIA@@std@@2_JB	; std::_Gcd<10000000,10000000>::value
PUBLIC	?DarkGoldenrod@Colors@DirectX@@3UXMVECTORF32@2@B ; DirectX::Colors::DarkGoldenrod
PUBLIC	?_S_cancelNone@_TaskCollectionBase@details@Concurrency@@1IB ; Concurrency::details::_TaskCollectionBase::_S_cancelNone
PUBLIC	?DarkGray@Colors@DirectX@@3UXMVECTORF32@2@B	; DirectX::Colors::DarkGray
PUBLIC	?DarkGreen@Colors@DirectX@@3UXMVECTORF32@2@B	; DirectX::Colors::DarkGreen
PUBLIC	?g_XMEpsilon@DirectX@@3UXMVECTORF32@1@B		; DirectX::g_XMEpsilon
PUBLIC	?_S_cancelStarted@_TaskCollectionBase@details@Concurrency@@1IB ; Concurrency::details::_TaskCollectionBase::_S_cancelStarted
PUBLIC	?goodbit@?$_Iosb@H@std@@2W4_Iostate@12@B	; std::_Iosb<int>::goodbit
PUBLIC	?g_XMInfinity@DirectX@@3UXMVECTORI32@1@B	; DirectX::g_XMInfinity
PUBLIC	?DarkKhaki@Colors@DirectX@@3UXMVECTORF32@2@B	; DirectX::Colors::DarkKhaki
PUBLIC	?DarkMagenta@Colors@DirectX@@3UXMVECTORF32@2@B	; DirectX::Colors::DarkMagenta
PUBLIC	?g_XMQNaN@DirectX@@3UXMVECTORI32@1@B		; DirectX::g_XMQNaN
PUBLIC	?_S_cancelDeferredShootdownOwner@_TaskCollectionBase@details@Concurrency@@1IB ; Concurrency::details::_TaskCollectionBase::_S_cancelDeferredShootdownOwner
PUBLIC	?g_XMQNaNTest@DirectX@@3UXMVECTORI32@1@B	; DirectX::g_XMQNaNTest
PUBLIC	?DarkOliveGreen@Colors@DirectX@@3UXMVECTORF32@2@B ; DirectX::Colors::DarkOliveGreen
PUBLIC	?eofbit@?$_Iosb@H@std@@2W4_Iostate@12@B		; std::_Iosb<int>::eofbit
PUBLIC	?g_XMAbsMask@DirectX@@3UXMVECTORI32@1@B		; DirectX::g_XMAbsMask
PUBLIC	?DarkOrange@Colors@DirectX@@3UXMVECTORF32@2@B	; DirectX::Colors::DarkOrange
PUBLIC	?_S_cancelShotdownOwner@_TaskCollectionBase@details@Concurrency@@1IB ; Concurrency::details::_TaskCollectionBase::_S_cancelShotdownOwner
PUBLIC	?g_XMFltMin@DirectX@@3UXMVECTORI32@1@B		; DirectX::g_XMFltMin
PUBLIC	?DarkOrchid@Colors@DirectX@@3UXMVECTORF32@2@B	; DirectX::Colors::DarkOrchid
PUBLIC	?_Gy@?$_Ratio_multiply@U?$ratio@$00$0JIJGIA@@std@@U?$ratio@$0JIJGIA@$00@2@@std@@2_JB ; std::_Ratio_multiply<std::ratio<1,10000000>,std::ratio<10000000,1> >::_Gy
PUBLIC	?g_XMFltMax@DirectX@@3UXMVECTORI32@1@B		; DirectX::g_XMFltMax
PUBLIC	?DarkRed@Colors@DirectX@@3UXMVECTORF32@2@B	; DirectX::Colors::DarkRed
PUBLIC	?_S_nonNull@_TaskCollectionBase@details@Concurrency@@1IB ; Concurrency::details::_TaskCollectionBase::_S_nonNull
PUBLIC	?failbit@?$_Iosb@H@std@@2W4_Iostate@12@B	; std::_Iosb<int>::failbit
PUBLIC	?g_XMNegOneMask@DirectX@@3UXMVECTORI32@1@B	; DirectX::g_XMNegOneMask
PUBLIC	?DarkSalmon@Colors@DirectX@@3UXMVECTORF32@2@B	; DirectX::Colors::DarkSalmon
PUBLIC	?g_XMMaskA8R8G8B8@DirectX@@3UXMVECTORI32@1@B	; DirectX::g_XMMaskA8R8G8B8
PUBLIC	?DarkSeaGreen@Colors@DirectX@@3UXMVECTORF32@2@B	; DirectX::Colors::DarkSeaGreen
PUBLIC	?_S_cancelException@_TaskCollectionBase@details@Concurrency@@1IB ; Concurrency::details::_TaskCollectionBase::_S_cancelException
PUBLIC	?g_XMFlipA8R8G8B8@DirectX@@3UXMVECTORI32@1@B	; DirectX::g_XMFlipA8R8G8B8
PUBLIC	?DarkSlateBlue@Colors@DirectX@@3UXMVECTORF32@2@B ; DirectX::Colors::DarkSlateBlue
PUBLIC	?badbit@?$_Iosb@H@std@@2W4_Iostate@12@B		; std::_Iosb<int>::badbit
PUBLIC	?g_XMFixAA8R8G8B8@DirectX@@3UXMVECTORF32@1@B	; DirectX::g_XMFixAA8R8G8B8
PUBLIC	?DarkSlateGray@Colors@DirectX@@3UXMVECTORF32@2@B ; DirectX::Colors::DarkSlateGray
PUBLIC	?_S_notInlined@_TaskCollectionBase@details@Concurrency@@1HB ; Concurrency::details::_TaskCollectionBase::_S_notInlined
PUBLIC	?DarkTurquoise@Colors@DirectX@@3UXMVECTORF32@2@B ; DirectX::Colors::DarkTurquoise
PUBLIC	?DarkViolet@Colors@DirectX@@3UXMVECTORF32@2@B	; DirectX::Colors::DarkViolet
PUBLIC	?g_XMNormalizeA8R8G8B8@DirectX@@3UXMVECTORF32@1@B ; DirectX::g_XMNormalizeA8R8G8B8
PUBLIC	?_S_structured@_TaskCollectionBase@details@Concurrency@@1HB ; Concurrency::details::_TaskCollectionBase::_S_structured
PUBLIC	?_Hardfail@?$_Iosb@H@std@@2W4_Iostate@12@B	; std::_Iosb<int>::_Hardfail
PUBLIC	?DeepPink@Colors@DirectX@@3UXMVECTORF32@2@B	; DirectX::Colors::DeepPink
PUBLIC	?DeepSkyBlue@Colors@DirectX@@3UXMVECTORF32@2@B	; DirectX::Colors::DeepSkyBlue
PUBLIC	?_S_localCancel@_TaskCollectionBase@details@Concurrency@@1HB ; Concurrency::details::_TaskCollectionBase::_S_localCancel
PUBLIC	?DimGray@Colors@DirectX@@3UXMVECTORF32@2@B	; DirectX::Colors::DimGray
PUBLIC	?g_XMMaskA2B10G10R10@DirectX@@3UXMVECTORI32@1@B	; DirectX::g_XMMaskA2B10G10R10
PUBLIC	?DodgerBlue@Colors@DirectX@@3UXMVECTORF32@2@B	; DirectX::Colors::DodgerBlue
PUBLIC	?_S_reserved@_TaskCollectionBase@details@Concurrency@@1HB ; Concurrency::details::_TaskCollectionBase::_S_reserved
PUBLIC	?g_XMFlipA2B10G10R10@DirectX@@3UXMVECTORI32@1@B	; DirectX::g_XMFlipA2B10G10R10
PUBLIC	?Firebrick@Colors@DirectX@@3UXMVECTORF32@2@B	; DirectX::Colors::Firebrick
PUBLIC	?in@?$_Iosb@H@std@@2W4_Openmode@12@B		; std::_Iosb<int>::in
PUBLIC	?g_XMFixAA2B10G10R10@DirectX@@3UXMVECTORF32@1@B	; DirectX::g_XMFixAA2B10G10R10
PUBLIC	?FloralWhite@Colors@DirectX@@3UXMVECTORF32@2@B	; DirectX::Colors::FloralWhite
PUBLIC	?ForestGreen@Colors@DirectX@@3UXMVECTORF32@2@B	; DirectX::Colors::ForestGreen
PUBLIC	?Fuchsia@Colors@DirectX@@3UXMVECTORF32@2@B	; DirectX::Colors::Fuchsia
PUBLIC	?out@?$_Iosb@H@std@@2W4_Openmode@12@B		; std::_Iosb<int>::out
PUBLIC	?Gainsboro@Colors@DirectX@@3UXMVECTORF32@2@B	; DirectX::Colors::Gainsboro
PUBLIC	?g_XMNormalizeA2B10G10R10@DirectX@@3UXMVECTORF32@1@B ; DirectX::g_XMNormalizeA2B10G10R10
PUBLIC	?GhostWhite@Colors@DirectX@@3UXMVECTORF32@2@B	; DirectX::Colors::GhostWhite
PUBLIC	?Gold@Colors@DirectX@@3UXMVECTORF32@2@B		; DirectX::Colors::Gold
PUBLIC	?ate@?$_Iosb@H@std@@2W4_Openmode@12@B		; std::_Iosb<int>::ate
PUBLIC	?num@?$ratio@$00$00@std@@2_JB			; std::ratio<1,1>::num
PUBLIC	?Goldenrod@Colors@DirectX@@3UXMVECTORF32@2@B	; DirectX::Colors::Goldenrod
PUBLIC	?Gray@Colors@DirectX@@3UXMVECTORF32@2@B		; DirectX::Colors::Gray
PUBLIC	?den@?$ratio@$00$00@std@@2_JB			; std::ratio<1,1>::den
PUBLIC	?Green@Colors@DirectX@@3UXMVECTORF32@2@B	; DirectX::Colors::Green
PUBLIC	?g_XMMaskX16Y16@DirectX@@3UXMVECTORI32@1@B	; DirectX::g_XMMaskX16Y16
PUBLIC	?app@?$_Iosb@H@std@@2W4_Openmode@12@B		; std::_Iosb<int>::app
PUBLIC	?GreenYellow@Colors@DirectX@@3UXMVECTORF32@2@B	; DirectX::Colors::GreenYellow
PUBLIC	?g_XMFlipX16Y16@DirectX@@3UXMVECTORI32@1@B	; DirectX::g_XMFlipX16Y16
PUBLIC	?g_XMFixX16Y16@DirectX@@3UXMVECTORF32@1@B	; DirectX::g_XMFixX16Y16
PUBLIC	?Honeydew@Colors@DirectX@@3UXMVECTORF32@2@B	; DirectX::Colors::Honeydew
PUBLIC	?g_XMNormalizeX16Y16@DirectX@@3UXMVECTORF32@1@B	; DirectX::g_XMNormalizeX16Y16
PUBLIC	?HotPink@Colors@DirectX@@3UXMVECTORF32@2@B	; DirectX::Colors::HotPink
PUBLIC	?trunc@?$_Iosb@H@std@@2W4_Openmode@12@B		; std::_Iosb<int>::trunc
PUBLIC	?g_XMMaskX16Y16Z16W16@DirectX@@3UXMVECTORI32@1@B ; DirectX::g_XMMaskX16Y16Z16W16
PUBLIC	?IndianRed@Colors@DirectX@@3UXMVECTORF32@2@B	; DirectX::Colors::IndianRed
PUBLIC	?g_XMFlipX16Y16Z16W16@DirectX@@3UXMVECTORI32@1@B ; DirectX::g_XMFlipX16Y16Z16W16
PUBLIC	?Indigo@Colors@DirectX@@3UXMVECTORF32@2@B	; DirectX::Colors::Indigo
PUBLIC	?g_XMFixX16Y16Z16W16@DirectX@@3UXMVECTORF32@1@B	; DirectX::g_XMFixX16Y16Z16W16
PUBLIC	?Ivory@Colors@DirectX@@3UXMVECTORF32@2@B	; DirectX::Colors::Ivory
PUBLIC	?_Nocreate@?$_Iosb@H@std@@2W4_Openmode@12@B	; std::_Iosb<int>::_Nocreate
PUBLIC	?g_XMNormalizeX16Y16Z16W16@DirectX@@3UXMVECTORF32@1@B ; DirectX::g_XMNormalizeX16Y16Z16W16
PUBLIC	?Khaki@Colors@DirectX@@3UXMVECTORF32@2@B	; DirectX::Colors::Khaki
PUBLIC	?g_XMNoFraction@DirectX@@3UXMVECTORF32@1@B	; DirectX::g_XMNoFraction
PUBLIC	?Lavender@Colors@DirectX@@3UXMVECTORF32@2@B	; DirectX::Colors::Lavender
PUBLIC	?g_XMMaskByte@DirectX@@3UXMVECTORI32@1@B	; DirectX::g_XMMaskByte
PUBLIC	?LavenderBlush@Colors@DirectX@@3UXMVECTORF32@2@B ; DirectX::Colors::LavenderBlush
PUBLIC	?_Noreplace@?$_Iosb@H@std@@2W4_Openmode@12@B	; std::_Iosb<int>::_Noreplace
PUBLIC	?g_XMNegateX@DirectX@@3UXMVECTORF32@1@B		; DirectX::g_XMNegateX
PUBLIC	?LawnGreen@Colors@DirectX@@3UXMVECTORF32@2@B	; DirectX::Colors::LawnGreen
PUBLIC	?g_XMNegateY@DirectX@@3UXMVECTORF32@1@B		; DirectX::g_XMNegateY
PUBLIC	?LemonChiffon@Colors@DirectX@@3UXMVECTORF32@2@B	; DirectX::Colors::LemonChiffon
PUBLIC	?g_XMNegateZ@DirectX@@3UXMVECTORF32@1@B		; DirectX::g_XMNegateZ
PUBLIC	?LightBlue@Colors@DirectX@@3UXMVECTORF32@2@B	; DirectX::Colors::LightBlue
PUBLIC	?binary@?$_Iosb@H@std@@2W4_Openmode@12@B	; std::_Iosb<int>::binary
PUBLIC	?g_XMNegateW@DirectX@@3UXMVECTORF32@1@B		; DirectX::g_XMNegateW
PUBLIC	?LightCoral@Colors@DirectX@@3UXMVECTORF32@2@B	; DirectX::Colors::LightCoral
PUBLIC	?g_XMSelect0101@DirectX@@3UXMVECTORI32@1@B	; DirectX::g_XMSelect0101
PUBLIC	?LightCyan@Colors@DirectX@@3UXMVECTORF32@2@B	; DirectX::Colors::LightCyan
PUBLIC	?LightGoldenrodYellow@Colors@DirectX@@3UXMVECTORF32@2@B ; DirectX::Colors::LightGoldenrodYellow
PUBLIC	?g_XMSelect1010@DirectX@@3UXMVECTORI32@1@B	; DirectX::g_XMSelect1010
PUBLIC	?g_XMOneHalfMinusEpsilon@DirectX@@3UXMVECTORI32@1@B ; DirectX::g_XMOneHalfMinusEpsilon
PUBLIC	?LightGreen@Colors@DirectX@@3UXMVECTORF32@2@B	; DirectX::Colors::LightGreen
PUBLIC	?g_XMSelect1000@DirectX@@3UXMVECTORI32@1@B	; DirectX::g_XMSelect1000
PUBLIC	?LightGray@Colors@DirectX@@3UXMVECTORF32@2@B	; DirectX::Colors::LightGray
PUBLIC	?beg@?$_Iosb@H@std@@2W4_Seekdir@12@B		; std::_Iosb<int>::beg
PUBLIC	?g_XMSelect1100@DirectX@@3UXMVECTORI32@1@B	; DirectX::g_XMSelect1100
PUBLIC	?LightPink@Colors@DirectX@@3UXMVECTORF32@2@B	; DirectX::Colors::LightPink
PUBLIC	?LightSalmon@Colors@DirectX@@3UXMVECTORF32@2@B	; DirectX::Colors::LightSalmon
PUBLIC	?g_XMSelect1110@DirectX@@3UXMVECTORI32@1@B	; DirectX::g_XMSelect1110
PUBLIC	?g_XMSelect1011@DirectX@@3UXMVECTORI32@1@B	; DirectX::g_XMSelect1011
PUBLIC	?LightSeaGreen@Colors@DirectX@@3UXMVECTORF32@2@B ; DirectX::Colors::LightSeaGreen
PUBLIC	?cur@?$_Iosb@H@std@@2W4_Seekdir@12@B		; std::_Iosb<int>::cur
PUBLIC	?LightSkyBlue@Colors@DirectX@@3UXMVECTORF32@2@B	; DirectX::Colors::LightSkyBlue
PUBLIC	?g_XMFixupY16@DirectX@@3UXMVECTORF32@1@B	; DirectX::g_XMFixupY16
PUBLIC	?g_XMFixupY16W16@DirectX@@3UXMVECTORF32@1@B	; DirectX::g_XMFixupY16W16
PUBLIC	?LightSlateGray@Colors@DirectX@@3UXMVECTORF32@2@B ; DirectX::Colors::LightSlateGray
PUBLIC	?g_XMFlipY@DirectX@@3UXMVECTORI32@1@B		; DirectX::g_XMFlipY
PUBLIC	?LightSteelBlue@Colors@DirectX@@3UXMVECTORF32@2@B ; DirectX::Colors::LightSteelBlue
PUBLIC	?end@?$_Iosb@H@std@@2W4_Seekdir@12@B		; std::_Iosb<int>::end
PUBLIC	?g_XMFlipZ@DirectX@@3UXMVECTORI32@1@B		; DirectX::g_XMFlipZ
PUBLIC	?LightYellow@Colors@DirectX@@3UXMVECTORF32@2@B	; DirectX::Colors::LightYellow
PUBLIC	_IID_ID3D11ShaderReflectionType
PUBLIC	?g_XMFlipW@DirectX@@3UXMVECTORI32@1@B		; DirectX::g_XMFlipW
PUBLIC	?Lime@Colors@DirectX@@3UXMVECTORF32@2@B		; DirectX::Colors::Lime
PUBLIC	?g_XMFlipYZ@DirectX@@3UXMVECTORI32@1@B		; DirectX::g_XMFlipYZ
PUBLIC	?LimeGreen@Colors@DirectX@@3UXMVECTORF32@2@B	; DirectX::Colors::LimeGreen
PUBLIC	?g_XMFlipZW@DirectX@@3UXMVECTORI32@1@B		; DirectX::g_XMFlipZW
PUBLIC	?Linen@Colors@DirectX@@3UXMVECTORF32@2@B	; DirectX::Colors::Linen
PUBLIC	?g_XMFlipYW@DirectX@@3UXMVECTORI32@1@B		; DirectX::g_XMFlipYW
PUBLIC	?Magenta@Colors@DirectX@@3UXMVECTORF32@2@B	; DirectX::Colors::Magenta
PUBLIC	?g_XMMaskDec4@DirectX@@3UXMVECTORI32@1@B	; DirectX::g_XMMaskDec4
PUBLIC	?Maroon@Colors@DirectX@@3UXMVECTORF32@2@B	; DirectX::Colors::Maroon
PUBLIC	?g_XMXorDec4@DirectX@@3UXMVECTORI32@1@B		; DirectX::g_XMXorDec4
PUBLIC	?MediumAquamarine@Colors@DirectX@@3UXMVECTORF32@2@B ; DirectX::Colors::MediumAquamarine
PUBLIC	?g_XMAddUDec4@DirectX@@3UXMVECTORF32@1@B	; DirectX::g_XMAddUDec4
PUBLIC	?MediumBlue@Colors@DirectX@@3UXMVECTORF32@2@B	; DirectX::Colors::MediumBlue
PUBLIC	?MediumOrchid@Colors@DirectX@@3UXMVECTORF32@2@B	; DirectX::Colors::MediumOrchid
PUBLIC	?g_XMAddDec4@DirectX@@3UXMVECTORF32@1@B		; DirectX::g_XMAddDec4
;	COMDAT ___@@_PchSym_@00@UfhvihUkmJGCDUvmtrmvUhhvPuofrwUuofrwxhBBUzhhvnyobwvyftUuofrwxhBBOlyq@28C41592EACE6808
_BSS	SEGMENT
___@@_PchSym_@00@UfhvihUkmJGCDUvmtrmvUhhvPuofrwUuofrwxhBBUzhhvnyobwvyftUuofrwxhBBOlyq@28C41592EACE6808 DD 01H DUP (?)
_BSS	ENDS
_BSS	SEGMENT
?resourceView@@3PAUID3D11ShaderResourceView@@A DD 01H DUP (?) ; resourceView
?samplerState@@3PAUID3D11SamplerState@@A DD 01H DUP (?)	; samplerState
?sBufferDesc@@3UD3D11_SAMPLER_DESC@@A DB 034H DUP (?)	; sBufferDesc
_sseEnabled DB	01H DUP (?)
	ALIGN	4

?g_iNullu32@@3IA DD 01H DUP (?)				; g_iNullu32
?g_pParticleVS@@3PAUID3D11VertexShader@@A DD 01H DUP (?) ; g_pParticleVS
?g_pParticleGS@@3PAUID3D11GeometryShader@@A DD 01H DUP (?) ; g_pParticleGS
?g_pParticlePS@@3PAUID3D11PixelShader@@A DD 01H DUP (?)	; g_pParticlePS
?g_pBuildGridCS@@3PAUID3D11ComputeShader@@A DD 01H DUP (?) ; g_pBuildGridCS
?g_pClearGridIndicesCS@@3PAUID3D11ComputeShader@@A DD 01H DUP (?) ; g_pClearGridIndicesCS
?g_pBuildGridIndicesCS@@3PAUID3D11ComputeShader@@A DD 01H DUP (?) ; g_pBuildGridIndicesCS
?g_pRearrangeParticlesCS@@3PAUID3D11ComputeShader@@A DD 01H DUP (?) ; g_pRearrangeParticlesCS
?g_pRepositionParticlesCS@@3PAUID3D11ComputeShader@@A DD 01H DUP (?) ; g_pRepositionParticlesCS
?g_pDensity_SimpleCS@@3PAUID3D11ComputeShader@@A DD 01H DUP (?) ; g_pDensity_SimpleCS
?g_pForce_SimpleCS@@3PAUID3D11ComputeShader@@A DD 01H DUP (?) ; g_pForce_SimpleCS
?g_pDensity_SharedCS@@3PAUID3D11ComputeShader@@A DD 01H DUP (?) ; g_pDensity_SharedCS
?g_pForce_SharedCS@@3PAUID3D11ComputeShader@@A DD 01H DUP (?) ; g_pForce_SharedCS
?g_pDensity_GridCS@@3PAUID3D11ComputeShader@@A DD 01H DUP (?) ; g_pDensity_GridCS
?g_pForce_GridCS@@3PAUID3D11ComputeShader@@A DD 01H DUP (?) ; g_pForce_GridCS
?g_pIntegrateCS@@3PAUID3D11ComputeShader@@A DD 01H DUP (?) ; g_pIntegrateCS
?g_pSortBitonic@@3PAUID3D11ComputeShader@@A DD 01H DUP (?) ; g_pSortBitonic
?g_pSortTranspose@@3PAUID3D11ComputeShader@@A DD 01H DUP (?) ; g_pSortTranspose
?g_pParticles@@3PAUID3D11Buffer@@A DD 01H DUP (?)	; g_pParticles
?g_pParticlesSRV@@3PAUID3D11ShaderResourceView@@A DD 01H DUP (?) ; g_pParticlesSRV
?g_pParticlesUAV@@3PAUID3D11UnorderedAccessView@@A DD 01H DUP (?) ; g_pParticlesUAV
?g_pSortedParticles@@3PAUID3D11Buffer@@A DD 01H DUP (?)	; g_pSortedParticles
?g_pSortedParticlesSRV@@3PAUID3D11ShaderResourceView@@A DD 01H DUP (?) ; g_pSortedParticlesSRV
?g_pSortedParticlesUAV@@3PAUID3D11UnorderedAccessView@@A DD 01H DUP (?) ; g_pSortedParticlesUAV
?g_pParticleDensity@@3PAUID3D11Buffer@@A DD 01H DUP (?)	; g_pParticleDensity
?g_pParticleDensitySRV@@3PAUID3D11ShaderResourceView@@A DD 01H DUP (?) ; g_pParticleDensitySRV
?g_pParticleDensityUAV@@3PAUID3D11UnorderedAccessView@@A DD 01H DUP (?) ; g_pParticleDensityUAV
?g_pParticleForces@@3PAUID3D11Buffer@@A DD 01H DUP (?)	; g_pParticleForces
?g_pParticleForcesSRV@@3PAUID3D11ShaderResourceView@@A DD 01H DUP (?) ; g_pParticleForcesSRV
?g_pParticleForcesUAV@@3PAUID3D11UnorderedAccessView@@A DD 01H DUP (?) ; g_pParticleForcesUAV
?g_pGrid@@3PAUID3D11Buffer@@A DD 01H DUP (?)		; g_pGrid
?g_pGridSRV@@3PAUID3D11ShaderResourceView@@A DD 01H DUP (?) ; g_pGridSRV
?g_pGridUAV@@3PAUID3D11UnorderedAccessView@@A DD 01H DUP (?) ; g_pGridUAV
?g_pGridPingPong@@3PAUID3D11Buffer@@A DD 01H DUP (?)	; g_pGridPingPong
?g_pGridPingPongSRV@@3PAUID3D11ShaderResourceView@@A DD 01H DUP (?) ; g_pGridPingPongSRV
?g_pGridPingPongUAV@@3PAUID3D11UnorderedAccessView@@A DD 01H DUP (?) ; g_pGridPingPongUAV
?g_pGridIndices@@3PAUID3D11Buffer@@A DD 01H DUP (?)	; g_pGridIndices
?g_pGridIndicesSRV@@3PAUID3D11ShaderResourceView@@A DD 01H DUP (?) ; g_pGridIndicesSRV
?g_pGridIndicesUAV@@3PAUID3D11UnorderedAccessView@@A DD 01H DUP (?) ; g_pGridIndicesUAV
?m_pProcessBuffer@@3PAUID3D11Buffer@@A DD 01H DUP (?)	; m_pProcessBuffer
?m_pProcessSRV@@3PAUID3D11ShaderResourceView@@A DD 01H DUP (?) ; m_pProcessSRV
?m_pProcessUAV@@3PAUID3D11UnorderedAccessView@@A DD 01H DUP (?) ; m_pProcessUAV
?m_pProcessCS@@3PAUID3D11ComputeShader@@A DD 01H DUP (?) ; m_pProcessCS
?g_pcbSimulationConstants@@3PAUID3D11Buffer@@A DD 01H DUP (?) ; g_pcbSimulationConstants
?g_pcbRenderConstants@@3PAUID3D11Buffer@@A DD 01H DUP (?) ; g_pcbRenderConstants
?g_pSortCB@@3PAUID3D11Buffer@@A DD 01H DUP (?)		; g_pSortCB
?particles@@3PAUParticle@@A DD 01H DUP (?)		; particles
_BSS	ENDS
;	COMDAT ?g_XMAddDec4@DirectX@@3UXMVECTORF32@1@B
CONST	SEGMENT
?g_XMAddDec4@DirectX@@3UXMVECTORF32@1@B DD 0c4000000r ; -512 ; DirectX::g_XMAddDec4
	DD	0c9000000r			; -524288
	DD	0ce000000r			; -5.36871e+008
	DD	000000000r			; 0
CONST	ENDS
;	COMDAT ?MediumOrchid@Colors@DirectX@@3UXMVECTORF32@2@B
CONST	SEGMENT
?MediumOrchid@Colors@DirectX@@3UXMVECTORF32@2@B DD 03f3ababbr ; 0.729412 ; DirectX::Colors::MediumOrchid
	DD	03eaaaaabr			; 0.333333
	DD	03f53d3d5r			; 0.827451
	DD	03f800000r			; 1
CONST	ENDS
;	COMDAT ?MediumBlue@Colors@DirectX@@3UXMVECTORF32@2@B
CONST	SEGMENT
?MediumBlue@Colors@DirectX@@3UXMVECTORF32@2@B DD 000000000r ; 0 ; DirectX::Colors::MediumBlue
	DD	000000000r			; 0
	DD	03f4dcdcfr			; 0.803922
	DD	03f800000r			; 1
CONST	ENDS
;	COMDAT ?g_XMAddUDec4@DirectX@@3UXMVECTORF32@1@B
CONST	SEGMENT
?g_XMAddUDec4@DirectX@@3UXMVECTORF32@1@B DD 000000000r ; 0 ; DirectX::g_XMAddUDec4
	DD	000000000r			; 0
	DD	000000000r			; 0
	DD	04f000000r			; 2.14748e+009
CONST	ENDS
;	COMDAT ?MediumAquamarine@Colors@DirectX@@3UXMVECTORF32@2@B
CONST	SEGMENT
?MediumAquamarine@Colors@DirectX@@3UXMVECTORF32@2@B DD 03ecccccer ; 0.4 ; DirectX::Colors::MediumAquamarine
	DD	03f4dcdcfr			; 0.803922
	DD	03f2aaaabr			; 0.666667
	DD	03f800000r			; 1
CONST	ENDS
;	COMDAT ?g_XMXorDec4@DirectX@@3UXMVECTORI32@1@B
CONST	SEGMENT
?g_XMXorDec4@DirectX@@3UXMVECTORI32@1@B DD 0200H	; DirectX::g_XMXorDec4
	DD	080000H
	DD	020000000H
	DD	00H
CONST	ENDS
;	COMDAT ?Maroon@Colors@DirectX@@3UXMVECTORF32@2@B
CONST	SEGMENT
?Maroon@Colors@DirectX@@3UXMVECTORF32@2@B DD 03f008081r ; 0.501961 ; DirectX::Colors::Maroon
	DD	000000000r			; 0
	DD	000000000r			; 0
	DD	03f800000r			; 1
CONST	ENDS
;	COMDAT ?g_XMMaskDec4@DirectX@@3UXMVECTORI32@1@B
CONST	SEGMENT
?g_XMMaskDec4@DirectX@@3UXMVECTORI32@1@B DD 03ffH	; DirectX::g_XMMaskDec4
	DD	0ffc00H
	DD	03ff00000H
	DD	0c0000000H
CONST	ENDS
;	COMDAT ?Magenta@Colors@DirectX@@3UXMVECTORF32@2@B
CONST	SEGMENT
?Magenta@Colors@DirectX@@3UXMVECTORF32@2@B DD 03f800000r ; 1 ; DirectX::Colors::Magenta
	DD	000000000r			; 0
	DD	03f800000r			; 1
	DD	03f800000r			; 1
CONST	ENDS
;	COMDAT ?g_XMFlipYW@DirectX@@3UXMVECTORI32@1@B
CONST	SEGMENT
?g_XMFlipYW@DirectX@@3UXMVECTORI32@1@B DD 00H		; DirectX::g_XMFlipYW
	DD	080000000H
	DD	00H
	DD	080000000H
CONST	ENDS
;	COMDAT ?Linen@Colors@DirectX@@3UXMVECTORF32@2@B
CONST	SEGMENT
?Linen@Colors@DirectX@@3UXMVECTORF32@2@B DD 03f7afafcr ; 0.980392 ; DirectX::Colors::Linen
	DD	03f70f0f2r			; 0.941177
	DD	03f66e6e8r			; 0.901961
	DD	03f800000r			; 1
CONST	ENDS
;	COMDAT ?g_XMFlipZW@DirectX@@3UXMVECTORI32@1@B
CONST	SEGMENT
?g_XMFlipZW@DirectX@@3UXMVECTORI32@1@B DD 00H		; DirectX::g_XMFlipZW
	DD	00H
	DD	080000000H
	DD	080000000H
CONST	ENDS
;	COMDAT ?LimeGreen@Colors@DirectX@@3UXMVECTORF32@2@B
CONST	SEGMENT
?LimeGreen@Colors@DirectX@@3UXMVECTORF32@2@B DD 03e48c8car ; 0.196078 ; DirectX::Colors::LimeGreen
	DD	03f4dcdcfr			; 0.803922
	DD	03e48c8car			; 0.196078
	DD	03f800000r			; 1
CONST	ENDS
;	COMDAT ?g_XMFlipYZ@DirectX@@3UXMVECTORI32@1@B
CONST	SEGMENT
?g_XMFlipYZ@DirectX@@3UXMVECTORI32@1@B DD 00H		; DirectX::g_XMFlipYZ
	DD	080000000H
	DD	080000000H
	DD	00H
CONST	ENDS
;	COMDAT ?Lime@Colors@DirectX@@3UXMVECTORF32@2@B
CONST	SEGMENT
?Lime@Colors@DirectX@@3UXMVECTORF32@2@B DD 000000000r ; 0 ; DirectX::Colors::Lime
	DD	03f800000r			; 1
	DD	000000000r			; 0
	DD	03f800000r			; 1
CONST	ENDS
;	COMDAT ?g_XMFlipW@DirectX@@3UXMVECTORI32@1@B
CONST	SEGMENT
?g_XMFlipW@DirectX@@3UXMVECTORI32@1@B DD 00H		; DirectX::g_XMFlipW
	DD	00H
	DD	00H
	DD	080000000H
CONST	ENDS
;	COMDAT _IID_ID3D11ShaderReflectionType
CONST	SEGMENT
_IID_ID3D11ShaderReflectionType DD 06e6ffa6aH
	DW	09baeH
	DW	04613H
	DB	0a5H
	DB	01eH
	DB	091H
	DB	065H
	DB	02dH
	DB	050H
	DB	08cH
	DB	021H
CONST	ENDS
;	COMDAT ?LightYellow@Colors@DirectX@@3UXMVECTORF32@2@B
CONST	SEGMENT
?LightYellow@Colors@DirectX@@3UXMVECTORF32@2@B DD 03f800000r ; 1 ; DirectX::Colors::LightYellow
	DD	03f800000r			; 1
	DD	03f60e0e2r			; 0.878431
	DD	03f800000r			; 1
CONST	ENDS
;	COMDAT ?g_XMFlipZ@DirectX@@3UXMVECTORI32@1@B
CONST	SEGMENT
?g_XMFlipZ@DirectX@@3UXMVECTORI32@1@B DD 00H		; DirectX::g_XMFlipZ
	DD	00H
	DD	080000000H
	DD	00H
CONST	ENDS
;	COMDAT ?end@?$_Iosb@H@std@@2W4_Seekdir@12@B
CONST	SEGMENT
?end@?$_Iosb@H@std@@2W4_Seekdir@12@B DD 02H		; std::_Iosb<int>::end
CONST	ENDS
;	COMDAT ?LightSteelBlue@Colors@DirectX@@3UXMVECTORF32@2@B
CONST	SEGMENT
?LightSteelBlue@Colors@DirectX@@3UXMVECTORF32@2@B DD 03f30b0b1r ; 0.690196 ; DirectX::Colors::LightSteelBlue
	DD	03f44c4c6r			; 0.768628
	DD	03f5edee0r			; 0.870588
	DD	03f800000r			; 1
CONST	ENDS
;	COMDAT ?g_XMFlipY@DirectX@@3UXMVECTORI32@1@B
CONST	SEGMENT
?g_XMFlipY@DirectX@@3UXMVECTORI32@1@B DD 00H		; DirectX::g_XMFlipY
	DD	080000000H
	DD	00H
	DD	00H
CONST	ENDS
;	COMDAT ?LightSlateGray@Colors@DirectX@@3UXMVECTORF32@2@B
CONST	SEGMENT
?LightSlateGray@Colors@DirectX@@3UXMVECTORF32@2@B DD 03eeeeef0r ; 0.466667 ; DirectX::Colors::LightSlateGray
	DD	03f088889r			; 0.533333
	DD	03f19999ar			; 0.6
	DD	03f800000r			; 1
CONST	ENDS
;	COMDAT ?g_XMFixupY16W16@DirectX@@3UXMVECTORF32@1@B
CONST	SEGMENT
?g_XMFixupY16W16@DirectX@@3UXMVECTORF32@1@B DD 03f800000r ; 1 ; DirectX::g_XMFixupY16W16
	DD	03f800000r			; 1
	DD	037800000r			; 1.52588e-005
	DD	037800000r			; 1.52588e-005
CONST	ENDS
;	COMDAT ?g_XMFixupY16@DirectX@@3UXMVECTORF32@1@B
CONST	SEGMENT
?g_XMFixupY16@DirectX@@3UXMVECTORF32@1@B DD 03f800000r ; 1 ; DirectX::g_XMFixupY16
	DD	037800000r			; 1.52588e-005
	DD	000000000r			; 0
	DD	000000000r			; 0
CONST	ENDS
;	COMDAT ?LightSkyBlue@Colors@DirectX@@3UXMVECTORF32@2@B
CONST	SEGMENT
?LightSkyBlue@Colors@DirectX@@3UXMVECTORF32@2@B DD 03f078788r ; 0.529412 ; DirectX::Colors::LightSkyBlue
	DD	03f4eced0r			; 0.807843
	DD	03f7afafcr			; 0.980392
	DD	03f800000r			; 1
CONST	ENDS
;	COMDAT ?cur@?$_Iosb@H@std@@2W4_Seekdir@12@B
CONST	SEGMENT
?cur@?$_Iosb@H@std@@2W4_Seekdir@12@B DD 01H		; std::_Iosb<int>::cur
CONST	ENDS
;	COMDAT ?LightSeaGreen@Colors@DirectX@@3UXMVECTORF32@2@B
CONST	SEGMENT
?LightSeaGreen@Colors@DirectX@@3UXMVECTORF32@2@B DD 03e008081r ; 0.12549 ; DirectX::Colors::LightSeaGreen
	DD	03f32b2b3r			; 0.698039
	DD	03f2aaaabr			; 0.666667
	DD	03f800000r			; 1
CONST	ENDS
;	COMDAT ?g_XMSelect1011@DirectX@@3UXMVECTORI32@1@B
CONST	SEGMENT
?g_XMSelect1011@DirectX@@3UXMVECTORI32@1@B DD 0ffffffffH ; DirectX::g_XMSelect1011
	DD	00H
	DD	0ffffffffH
	DD	0ffffffffH
CONST	ENDS
;	COMDAT ?g_XMSelect1110@DirectX@@3UXMVECTORI32@1@B
CONST	SEGMENT
?g_XMSelect1110@DirectX@@3UXMVECTORI32@1@B DD 0ffffffffH ; DirectX::g_XMSelect1110
	DD	0ffffffffH
	DD	0ffffffffH
	DD	00H
CONST	ENDS
;	COMDAT ?LightSalmon@Colors@DirectX@@3UXMVECTORF32@2@B
CONST	SEGMENT
?LightSalmon@Colors@DirectX@@3UXMVECTORF32@2@B DD 03f800000r ; 1 ; DirectX::Colors::LightSalmon
	DD	03f20a0a1r			; 0.627451
	DD	03ef4f4f6r			; 0.478431
	DD	03f800000r			; 1
CONST	ENDS
;	COMDAT ?LightPink@Colors@DirectX@@3UXMVECTORF32@2@B
CONST	SEGMENT
?LightPink@Colors@DirectX@@3UXMVECTORF32@2@B DD 03f800000r ; 1 ; DirectX::Colors::LightPink
	DD	03f36b6b7r			; 0.713726
	DD	03f41c1c3r			; 0.756863
	DD	03f800000r			; 1
CONST	ENDS
;	COMDAT ?g_XMSelect1100@DirectX@@3UXMVECTORI32@1@B
CONST	SEGMENT
?g_XMSelect1100@DirectX@@3UXMVECTORI32@1@B DD 0ffffffffH ; DirectX::g_XMSelect1100
	DD	0ffffffffH
	DD	00H
	DD	00H
CONST	ENDS
;	COMDAT ?beg@?$_Iosb@H@std@@2W4_Seekdir@12@B
CONST	SEGMENT
?beg@?$_Iosb@H@std@@2W4_Seekdir@12@B DD 00H		; std::_Iosb<int>::beg
CONST	ENDS
;	COMDAT ?LightGray@Colors@DirectX@@3UXMVECTORF32@2@B
CONST	SEGMENT
?LightGray@Colors@DirectX@@3UXMVECTORF32@2@B DD 03f53d3d5r ; 0.827451 ; DirectX::Colors::LightGray
	DD	03f53d3d5r			; 0.827451
	DD	03f53d3d5r			; 0.827451
	DD	03f800000r			; 1
CONST	ENDS
;	COMDAT ?g_XMSelect1000@DirectX@@3UXMVECTORI32@1@B
CONST	SEGMENT
?g_XMSelect1000@DirectX@@3UXMVECTORI32@1@B DD 0ffffffffH ; DirectX::g_XMSelect1000
	DD	00H
	DD	00H
	DD	00H
CONST	ENDS
;	COMDAT ?LightGreen@Colors@DirectX@@3UXMVECTORF32@2@B
CONST	SEGMENT
?LightGreen@Colors@DirectX@@3UXMVECTORF32@2@B DD 03f109091r ; 0.564706 ; DirectX::Colors::LightGreen
	DD	03f6eeef0r			; 0.933333
	DD	03f109091r			; 0.564706
	DD	03f800000r			; 1
CONST	ENDS
;	COMDAT ?g_XMOneHalfMinusEpsilon@DirectX@@3UXMVECTORI32@1@B
CONST	SEGMENT
?g_XMOneHalfMinusEpsilon@DirectX@@3UXMVECTORI32@1@B DD 03efffffdH ; DirectX::g_XMOneHalfMinusEpsilon
	DD	03efffffdH
	DD	03efffffdH
	DD	03efffffdH
CONST	ENDS
;	COMDAT ?g_XMSelect1010@DirectX@@3UXMVECTORI32@1@B
CONST	SEGMENT
?g_XMSelect1010@DirectX@@3UXMVECTORI32@1@B DD 0ffffffffH ; DirectX::g_XMSelect1010
	DD	00H
	DD	0ffffffffH
	DD	00H
CONST	ENDS
;	COMDAT ?LightGoldenrodYellow@Colors@DirectX@@3UXMVECTORF32@2@B
CONST	SEGMENT
?LightGoldenrodYellow@Colors@DirectX@@3UXMVECTORF32@2@B DD 03f7afafcr ; 0.980392 ; DirectX::Colors::LightGoldenrodYellow
	DD	03f7afafcr			; 0.980392
	DD	03f52d2d4r			; 0.823529
	DD	03f800000r			; 1
CONST	ENDS
;	COMDAT ?LightCyan@Colors@DirectX@@3UXMVECTORF32@2@B
CONST	SEGMENT
?LightCyan@Colors@DirectX@@3UXMVECTORF32@2@B DD 03f60e0e2r ; 0.878431 ; DirectX::Colors::LightCyan
	DD	03f800000r			; 1
	DD	03f800000r			; 1
	DD	03f800000r			; 1
CONST	ENDS
;	COMDAT ?g_XMSelect0101@DirectX@@3UXMVECTORI32@1@B
CONST	SEGMENT
?g_XMSelect0101@DirectX@@3UXMVECTORI32@1@B DD 00H	; DirectX::g_XMSelect0101
	DD	0ffffffffH
	DD	00H
	DD	0ffffffffH
CONST	ENDS
;	COMDAT ?LightCoral@Colors@DirectX@@3UXMVECTORF32@2@B
CONST	SEGMENT
?LightCoral@Colors@DirectX@@3UXMVECTORF32@2@B DD 03f70f0f2r ; 0.941177 ; DirectX::Colors::LightCoral
	DD	03f008081r			; 0.501961
	DD	03f008081r			; 0.501961
	DD	03f800000r			; 1
CONST	ENDS
;	COMDAT ?g_XMNegateW@DirectX@@3UXMVECTORF32@1@B
CONST	SEGMENT
?g_XMNegateW@DirectX@@3UXMVECTORF32@1@B DD 03f800000r ; 1 ; DirectX::g_XMNegateW
	DD	03f800000r			; 1
	DD	03f800000r			; 1
	DD	0bf800000r			; -1
CONST	ENDS
;	COMDAT ?binary@?$_Iosb@H@std@@2W4_Openmode@12@B
CONST	SEGMENT
?binary@?$_Iosb@H@std@@2W4_Openmode@12@B DD 020H	; std::_Iosb<int>::binary
CONST	ENDS
;	COMDAT ?LightBlue@Colors@DirectX@@3UXMVECTORF32@2@B
CONST	SEGMENT
?LightBlue@Colors@DirectX@@3UXMVECTORF32@2@B DD 03f2dadaer ; 0.678431 ; DirectX::Colors::LightBlue
	DD	03f58d8dar			; 0.847059
	DD	03f66e6e8r			; 0.901961
	DD	03f800000r			; 1
CONST	ENDS
;	COMDAT ?g_XMNegateZ@DirectX@@3UXMVECTORF32@1@B
CONST	SEGMENT
?g_XMNegateZ@DirectX@@3UXMVECTORF32@1@B DD 03f800000r ; 1 ; DirectX::g_XMNegateZ
	DD	03f800000r			; 1
	DD	0bf800000r			; -1
	DD	03f800000r			; 1
CONST	ENDS
;	COMDAT ?LemonChiffon@Colors@DirectX@@3UXMVECTORF32@2@B
CONST	SEGMENT
?LemonChiffon@Colors@DirectX@@3UXMVECTORF32@2@B DD 03f800000r ; 1 ; DirectX::Colors::LemonChiffon
	DD	03f7afafcr			; 0.980392
	DD	03f4dcdcfr			; 0.803922
	DD	03f800000r			; 1
CONST	ENDS
;	COMDAT ?g_XMNegateY@DirectX@@3UXMVECTORF32@1@B
CONST	SEGMENT
?g_XMNegateY@DirectX@@3UXMVECTORF32@1@B DD 03f800000r ; 1 ; DirectX::g_XMNegateY
	DD	0bf800000r			; -1
	DD	03f800000r			; 1
	DD	03f800000r			; 1
CONST	ENDS
;	COMDAT ?LawnGreen@Colors@DirectX@@3UXMVECTORF32@2@B
CONST	SEGMENT
?LawnGreen@Colors@DirectX@@3UXMVECTORF32@2@B DD 03ef8f8far ; 0.486275 ; DirectX::Colors::LawnGreen
	DD	03f7cfcfer			; 0.988235
	DD	000000000r			; 0
	DD	03f800000r			; 1
CONST	ENDS
;	COMDAT ?g_XMNegateX@DirectX@@3UXMVECTORF32@1@B
CONST	SEGMENT
?g_XMNegateX@DirectX@@3UXMVECTORF32@1@B DD 0bf800000r ; -1 ; DirectX::g_XMNegateX
	DD	03f800000r			; 1
	DD	03f800000r			; 1
	DD	03f800000r			; 1
CONST	ENDS
;	COMDAT ?_Noreplace@?$_Iosb@H@std@@2W4_Openmode@12@B
CONST	SEGMENT
?_Noreplace@?$_Iosb@H@std@@2W4_Openmode@12@B DD 080H	; std::_Iosb<int>::_Noreplace
CONST	ENDS
;	COMDAT ?LavenderBlush@Colors@DirectX@@3UXMVECTORF32@2@B
CONST	SEGMENT
?LavenderBlush@Colors@DirectX@@3UXMVECTORF32@2@B DD 03f800000r ; 1 ; DirectX::Colors::LavenderBlush
	DD	03f70f0f2r			; 0.941177
	DD	03f75f5f7r			; 0.960784
	DD	03f800000r			; 1
CONST	ENDS
;	COMDAT ?g_XMMaskByte@DirectX@@3UXMVECTORI32@1@B
CONST	SEGMENT
?g_XMMaskByte@DirectX@@3UXMVECTORI32@1@B DD 0ffH	; DirectX::g_XMMaskByte
	DD	0ffH
	DD	0ffH
	DD	0ffH
CONST	ENDS
;	COMDAT ?Lavender@Colors@DirectX@@3UXMVECTORF32@2@B
CONST	SEGMENT
?Lavender@Colors@DirectX@@3UXMVECTORF32@2@B DD 03f66e6e8r ; 0.901961 ; DirectX::Colors::Lavender
	DD	03f66e6e8r			; 0.901961
	DD	03f7afafcr			; 0.980392
	DD	03f800000r			; 1
CONST	ENDS
;	COMDAT ?g_XMNoFraction@DirectX@@3UXMVECTORF32@1@B
CONST	SEGMENT
?g_XMNoFraction@DirectX@@3UXMVECTORF32@1@B DD 04b000000r ; 8.38861e+006 ; DirectX::g_XMNoFraction
	DD	04b000000r			; 8.38861e+006
	DD	04b000000r			; 8.38861e+006
	DD	04b000000r			; 8.38861e+006
CONST	ENDS
;	COMDAT ?Khaki@Colors@DirectX@@3UXMVECTORF32@2@B
CONST	SEGMENT
?Khaki@Colors@DirectX@@3UXMVECTORF32@2@B DD 03f70f0f2r ; 0.941177 ; DirectX::Colors::Khaki
	DD	03f66e6e8r			; 0.901961
	DD	03f0c8c8dr			; 0.54902
	DD	03f800000r			; 1
CONST	ENDS
;	COMDAT ?g_XMNormalizeX16Y16Z16W16@DirectX@@3UXMVECTORF32@1@B
CONST	SEGMENT
?g_XMNormalizeX16Y16Z16W16@DirectX@@3UXMVECTORF32@1@B DD 038000100r ; 3.05185e-005 ; DirectX::g_XMNormalizeX16Y16Z16W16
	DD	038000100r			; 3.05185e-005
	DD	030000100r			; 4.65675e-010
	DD	030000100r			; 4.65675e-010
CONST	ENDS
;	COMDAT ?_Nocreate@?$_Iosb@H@std@@2W4_Openmode@12@B
CONST	SEGMENT
?_Nocreate@?$_Iosb@H@std@@2W4_Openmode@12@B DD 040H	; std::_Iosb<int>::_Nocreate
CONST	ENDS
;	COMDAT ?Ivory@Colors@DirectX@@3UXMVECTORF32@2@B
CONST	SEGMENT
?Ivory@Colors@DirectX@@3UXMVECTORF32@2@B DD 03f800000r ; 1 ; DirectX::Colors::Ivory
	DD	03f800000r			; 1
	DD	03f70f0f2r			; 0.941177
	DD	03f800000r			; 1
CONST	ENDS
;	COMDAT ?g_XMFixX16Y16Z16W16@DirectX@@3UXMVECTORF32@1@B
CONST	SEGMENT
?g_XMFixX16Y16Z16W16@DirectX@@3UXMVECTORF32@1@B DD 0c7000000r ; -32768 ; DirectX::g_XMFixX16Y16Z16W16
	DD	0c7000000r			; -32768
	DD	000000000r			; 0
	DD	000000000r			; 0
CONST	ENDS
;	COMDAT ?Indigo@Colors@DirectX@@3UXMVECTORF32@2@B
CONST	SEGMENT
?Indigo@Colors@DirectX@@3UXMVECTORF32@2@B DD 03e969697r ; 0.294118 ; DirectX::Colors::Indigo
	DD	000000000r			; 0
	DD	03f028283r			; 0.509804
	DD	03f800000r			; 1
CONST	ENDS
;	COMDAT ?g_XMFlipX16Y16Z16W16@DirectX@@3UXMVECTORI32@1@B
CONST	SEGMENT
?g_XMFlipX16Y16Z16W16@DirectX@@3UXMVECTORI32@1@B DD 08000H ; DirectX::g_XMFlipX16Y16Z16W16
	DD	08000H
	DD	00H
	DD	00H
CONST	ENDS
;	COMDAT ?IndianRed@Colors@DirectX@@3UXMVECTORF32@2@B
CONST	SEGMENT
?IndianRed@Colors@DirectX@@3UXMVECTORF32@2@B DD 03f4dcdcfr ; 0.803922 ; DirectX::Colors::IndianRed
	DD	03eb8b8b9r			; 0.360784
	DD	03eb8b8b9r			; 0.360784
	DD	03f800000r			; 1
CONST	ENDS
;	COMDAT ?g_XMMaskX16Y16Z16W16@DirectX@@3UXMVECTORI32@1@B
CONST	SEGMENT
?g_XMMaskX16Y16Z16W16@DirectX@@3UXMVECTORI32@1@B DD 0ffffH ; DirectX::g_XMMaskX16Y16Z16W16
	DD	0ffffH
	DD	0ffff0000H
	DD	0ffff0000H
CONST	ENDS
;	COMDAT ?trunc@?$_Iosb@H@std@@2W4_Openmode@12@B
CONST	SEGMENT
?trunc@?$_Iosb@H@std@@2W4_Openmode@12@B DD 010H		; std::_Iosb<int>::trunc
CONST	ENDS
;	COMDAT ?HotPink@Colors@DirectX@@3UXMVECTORF32@2@B
CONST	SEGMENT
?HotPink@Colors@DirectX@@3UXMVECTORF32@2@B DD 03f800000r ; 1 ; DirectX::Colors::HotPink
	DD	03ed2d2d4r			; 0.411765
	DD	03f34b4b5r			; 0.705882
	DD	03f800000r			; 1
CONST	ENDS
;	COMDAT ?g_XMNormalizeX16Y16@DirectX@@3UXMVECTORF32@1@B
CONST	SEGMENT
?g_XMNormalizeX16Y16@DirectX@@3UXMVECTORF32@1@B DD 038000100r ; 3.05185e-005 ; DirectX::g_XMNormalizeX16Y16
	DD	030000100r			; 4.65675e-010
	DD	000000000r			; 0
	DD	000000000r			; 0
CONST	ENDS
;	COMDAT ?Honeydew@Colors@DirectX@@3UXMVECTORF32@2@B
CONST	SEGMENT
?Honeydew@Colors@DirectX@@3UXMVECTORF32@2@B DD 03f70f0f2r ; 0.941177 ; DirectX::Colors::Honeydew
	DD	03f800000r			; 1
	DD	03f70f0f2r			; 0.941177
	DD	03f800000r			; 1
CONST	ENDS
;	COMDAT ?g_XMFixX16Y16@DirectX@@3UXMVECTORF32@1@B
CONST	SEGMENT
?g_XMFixX16Y16@DirectX@@3UXMVECTORF32@1@B DD 0c7000000r ; -32768 ; DirectX::g_XMFixX16Y16
	DD	000000000r			; 0
	DD	000000000r			; 0
	DD	000000000r			; 0
CONST	ENDS
;	COMDAT ?g_XMFlipX16Y16@DirectX@@3UXMVECTORI32@1@B
CONST	SEGMENT
?g_XMFlipX16Y16@DirectX@@3UXMVECTORI32@1@B DD 08000H	; DirectX::g_XMFlipX16Y16
	DD	00H
	DD	00H
	DD	00H
CONST	ENDS
;	COMDAT ?GreenYellow@Colors@DirectX@@3UXMVECTORF32@2@B
CONST	SEGMENT
?GreenYellow@Colors@DirectX@@3UXMVECTORF32@2@B DD 03f2dadaer ; 0.678431 ; DirectX::Colors::GreenYellow
	DD	03f800000r			; 1
	DD	03e3cbcbdr			; 0.184314
	DD	03f800000r			; 1
CONST	ENDS
;	COMDAT ?app@?$_Iosb@H@std@@2W4_Openmode@12@B
CONST	SEGMENT
?app@?$_Iosb@H@std@@2W4_Openmode@12@B DD 08H		; std::_Iosb<int>::app
CONST	ENDS
;	COMDAT ?g_XMMaskX16Y16@DirectX@@3UXMVECTORI32@1@B
CONST	SEGMENT
?g_XMMaskX16Y16@DirectX@@3UXMVECTORI32@1@B DD 0ffffH	; DirectX::g_XMMaskX16Y16
	DD	0ffff0000H
	DD	00H
	DD	00H
CONST	ENDS
;	COMDAT ?Green@Colors@DirectX@@3UXMVECTORF32@2@B
CONST	SEGMENT
?Green@Colors@DirectX@@3UXMVECTORF32@2@B DD 000000000r ; 0 ; DirectX::Colors::Green
	DD	03f008081r			; 0.501961
	DD	000000000r			; 0
	DD	03f800000r			; 1
CONST	ENDS
;	COMDAT ?den@?$ratio@$00$00@std@@2_JB
CONST	SEGMENT
?den@?$ratio@$00$00@std@@2_JB DQ 0000000000000001H	; std::ratio<1,1>::den
CONST	ENDS
;	COMDAT ?Gray@Colors@DirectX@@3UXMVECTORF32@2@B
CONST	SEGMENT
?Gray@Colors@DirectX@@3UXMVECTORF32@2@B DD 03f008081r ; 0.501961 ; DirectX::Colors::Gray
	DD	03f008081r			; 0.501961
	DD	03f008081r			; 0.501961
	DD	03f800000r			; 1
CONST	ENDS
;	COMDAT ?Goldenrod@Colors@DirectX@@3UXMVECTORF32@2@B
CONST	SEGMENT
?Goldenrod@Colors@DirectX@@3UXMVECTORF32@2@B DD 03f5adadcr ; 0.854902 ; DirectX::Colors::Goldenrod
	DD	03f25a5a6r			; 0.647059
	DD	03e008081r			; 0.12549
	DD	03f800000r			; 1
CONST	ENDS
;	COMDAT ?num@?$ratio@$00$00@std@@2_JB
CONST	SEGMENT
?num@?$ratio@$00$00@std@@2_JB DQ 0000000000000001H	; std::ratio<1,1>::num
CONST	ENDS
;	COMDAT ?ate@?$_Iosb@H@std@@2W4_Openmode@12@B
CONST	SEGMENT
?ate@?$_Iosb@H@std@@2W4_Openmode@12@B DD 04H		; std::_Iosb<int>::ate
CONST	ENDS
;	COMDAT ?Gold@Colors@DirectX@@3UXMVECTORF32@2@B
CONST	SEGMENT
?Gold@Colors@DirectX@@3UXMVECTORF32@2@B DD 03f800000r ; 1 ; DirectX::Colors::Gold
	DD	03f57d7d9r			; 0.843137
	DD	000000000r			; 0
	DD	03f800000r			; 1
CONST	ENDS
;	COMDAT ?GhostWhite@Colors@DirectX@@3UXMVECTORF32@2@B
CONST	SEGMENT
?GhostWhite@Colors@DirectX@@3UXMVECTORF32@2@B DD 03f78f8far ; 0.972549 ; DirectX::Colors::GhostWhite
	DD	03f78f8far			; 0.972549
	DD	03f800000r			; 1
	DD	03f800000r			; 1
CONST	ENDS
;	COMDAT ?g_XMNormalizeA2B10G10R10@DirectX@@3UXMVECTORF32@1@B
CONST	SEGMENT
?g_XMNormalizeA2B10G10R10@DirectX@@3UXMVECTORF32@1@B DD 03b004020r ; 0.00195695 ; DirectX::g_XMNormalizeA2B10G10R10
	DD	036004020r			; 1.91108e-006
	DD	031004020r			; 1.86629e-009
	DD	02faaaaabr			; 3.10441e-010
CONST	ENDS
;	COMDAT ?Gainsboro@Colors@DirectX@@3UXMVECTORF32@2@B
CONST	SEGMENT
?Gainsboro@Colors@DirectX@@3UXMVECTORF32@2@B DD 03f5cdcder ; 0.862745 ; DirectX::Colors::Gainsboro
	DD	03f5cdcder			; 0.862745
	DD	03f5cdcder			; 0.862745
	DD	03f800000r			; 1
CONST	ENDS
;	COMDAT ?out@?$_Iosb@H@std@@2W4_Openmode@12@B
CONST	SEGMENT
?out@?$_Iosb@H@std@@2W4_Openmode@12@B DD 02H		; std::_Iosb<int>::out
CONST	ENDS
;	COMDAT ?Fuchsia@Colors@DirectX@@3UXMVECTORF32@2@B
CONST	SEGMENT
?Fuchsia@Colors@DirectX@@3UXMVECTORF32@2@B DD 03f800000r ; 1 ; DirectX::Colors::Fuchsia
	DD	000000000r			; 0
	DD	03f800000r			; 1
	DD	03f800000r			; 1
CONST	ENDS
;	COMDAT ?ForestGreen@Colors@DirectX@@3UXMVECTORF32@2@B
CONST	SEGMENT
?ForestGreen@Colors@DirectX@@3UXMVECTORF32@2@B DD 03e088889r ; 0.133333 ; DirectX::Colors::ForestGreen
	DD	03f0b8b8cr			; 0.545098
	DD	03e088889r			; 0.133333
	DD	03f800000r			; 1
CONST	ENDS
;	COMDAT ?FloralWhite@Colors@DirectX@@3UXMVECTORF32@2@B
CONST	SEGMENT
?FloralWhite@Colors@DirectX@@3UXMVECTORF32@2@B DD 03f800000r ; 1 ; DirectX::Colors::FloralWhite
	DD	03f7afafcr			; 0.980392
	DD	03f70f0f2r			; 0.941177
	DD	03f800000r			; 1
CONST	ENDS
;	COMDAT ?g_XMFixAA2B10G10R10@DirectX@@3UXMVECTORF32@1@B
CONST	SEGMENT
?g_XMFixAA2B10G10R10@DirectX@@3UXMVECTORF32@1@B DD 0c4000000r ; -512 ; DirectX::g_XMFixAA2B10G10R10
	DD	0c9000000r			; -524288
	DD	0ce000000r			; -5.36871e+008
	DD	04f000000r			; 2.14748e+009
CONST	ENDS
;	COMDAT ?in@?$_Iosb@H@std@@2W4_Openmode@12@B
CONST	SEGMENT
?in@?$_Iosb@H@std@@2W4_Openmode@12@B DD 01H		; std::_Iosb<int>::in
CONST	ENDS
;	COMDAT ?Firebrick@Colors@DirectX@@3UXMVECTORF32@2@B
CONST	SEGMENT
?Firebrick@Colors@DirectX@@3UXMVECTORF32@2@B DD 03f32b2b3r ; 0.698039 ; DirectX::Colors::Firebrick
	DD	03e088889r			; 0.133333
	DD	03e088889r			; 0.133333
	DD	03f800000r			; 1
CONST	ENDS
;	COMDAT ?g_XMFlipA2B10G10R10@DirectX@@3UXMVECTORI32@1@B
CONST	SEGMENT
?g_XMFlipA2B10G10R10@DirectX@@3UXMVECTORI32@1@B DD 0200H ; DirectX::g_XMFlipA2B10G10R10
	DD	080000H
	DD	020000000H
	DD	080000000H
CONST	ENDS
;	COMDAT ?_S_reserved@_TaskCollectionBase@details@Concurrency@@1HB
CONST	SEGMENT
?_S_reserved@_TaskCollectionBase@details@Concurrency@@1HB DD 0cH ; Concurrency::details::_TaskCollectionBase::_S_reserved
CONST	ENDS
;	COMDAT ?DodgerBlue@Colors@DirectX@@3UXMVECTORF32@2@B
CONST	SEGMENT
?DodgerBlue@Colors@DirectX@@3UXMVECTORF32@2@B DD 03df0f0f2r ; 0.117647 ; DirectX::Colors::DodgerBlue
	DD	03f109091r			; 0.564706
	DD	03f800000r			; 1
	DD	03f800000r			; 1
CONST	ENDS
;	COMDAT ?g_XMMaskA2B10G10R10@DirectX@@3UXMVECTORI32@1@B
CONST	SEGMENT
?g_XMMaskA2B10G10R10@DirectX@@3UXMVECTORI32@1@B DD 03ffH ; DirectX::g_XMMaskA2B10G10R10
	DD	0ffc00H
	DD	03ff00000H
	DD	0c0000000H
CONST	ENDS
;	COMDAT ?DimGray@Colors@DirectX@@3UXMVECTORF32@2@B
CONST	SEGMENT
?DimGray@Colors@DirectX@@3UXMVECTORF32@2@B DD 03ed2d2d4r ; 0.411765 ; DirectX::Colors::DimGray
	DD	03ed2d2d4r			; 0.411765
	DD	03ed2d2d4r			; 0.411765
	DD	03f800000r			; 1
CONST	ENDS
;	COMDAT ?_S_localCancel@_TaskCollectionBase@details@Concurrency@@1HB
CONST	SEGMENT
?_S_localCancel@_TaskCollectionBase@details@Concurrency@@1HB DD 02H ; Concurrency::details::_TaskCollectionBase::_S_localCancel
CONST	ENDS
;	COMDAT ?DeepSkyBlue@Colors@DirectX@@3UXMVECTORF32@2@B
CONST	SEGMENT
?DeepSkyBlue@Colors@DirectX@@3UXMVECTORF32@2@B DD 000000000r ; 0 ; DirectX::Colors::DeepSkyBlue
	DD	03f3fbfc0r			; 0.74902
	DD	03f800000r			; 1
	DD	03f800000r			; 1
CONST	ENDS
;	COMDAT ?DeepPink@Colors@DirectX@@3UXMVECTORF32@2@B
CONST	SEGMENT
?DeepPink@Colors@DirectX@@3UXMVECTORF32@2@B DD 03f800000r ; 1 ; DirectX::Colors::DeepPink
	DD	03da0a0a1r			; 0.0784314
	DD	03f139394r			; 0.576471
	DD	03f800000r			; 1
CONST	ENDS
;	COMDAT ?_Hardfail@?$_Iosb@H@std@@2W4_Iostate@12@B
CONST	SEGMENT
?_Hardfail@?$_Iosb@H@std@@2W4_Iostate@12@B DD 010H	; std::_Iosb<int>::_Hardfail
CONST	ENDS
;	COMDAT ?_S_structured@_TaskCollectionBase@details@Concurrency@@1HB
CONST	SEGMENT
?_S_structured@_TaskCollectionBase@details@Concurrency@@1HB DD 01H ; Concurrency::details::_TaskCollectionBase::_S_structured
CONST	ENDS
;	COMDAT ?g_XMNormalizeA8R8G8B8@DirectX@@3UXMVECTORF32@1@B
CONST	SEGMENT
?g_XMNormalizeA8R8G8B8@DirectX@@3UXMVECTORF32@1@B DD 033808081r ; 5.98384e-008 ; DirectX::g_XMNormalizeA8R8G8B8
	DD	037808081r			; 1.53186e-005
	DD	03b808081r			; 0.00392157
	DD	02f808081r			; 2.33744e-010
CONST	ENDS
;	COMDAT ?DarkViolet@Colors@DirectX@@3UXMVECTORF32@2@B
CONST	SEGMENT
?DarkViolet@Colors@DirectX@@3UXMVECTORF32@2@B DD 03f149495r ; 0.580392 ; DirectX::Colors::DarkViolet
	DD	000000000r			; 0
	DD	03f53d3d5r			; 0.827451
	DD	03f800000r			; 1
CONST	ENDS
;	COMDAT ?DarkTurquoise@Colors@DirectX@@3UXMVECTORF32@2@B
CONST	SEGMENT
?DarkTurquoise@Colors@DirectX@@3UXMVECTORF32@2@B DD 000000000r ; 0 ; DirectX::Colors::DarkTurquoise
	DD	03f4eced0r			; 0.807843
	DD	03f51d1d3r			; 0.819608
	DD	03f800000r			; 1
CONST	ENDS
;	COMDAT ?_S_notInlined@_TaskCollectionBase@details@Concurrency@@1HB
CONST	SEGMENT
?_S_notInlined@_TaskCollectionBase@details@Concurrency@@1HB DD 0ffffffffH ; Concurrency::details::_TaskCollectionBase::_S_notInlined
CONST	ENDS
;	COMDAT ?DarkSlateGray@Colors@DirectX@@3UXMVECTORF32@2@B
CONST	SEGMENT
?DarkSlateGray@Colors@DirectX@@3UXMVECTORF32@2@B DD 03e3cbcbdr ; 0.184314 ; DirectX::Colors::DarkSlateGray
	DD	03e9e9e9fr			; 0.309804
	DD	03e9e9e9fr			; 0.309804
	DD	03f800000r			; 1
CONST	ENDS
;	COMDAT ?g_XMFixAA8R8G8B8@DirectX@@3UXMVECTORF32@1@B
CONST	SEGMENT
?g_XMFixAA8R8G8B8@DirectX@@3UXMVECTORF32@1@B DD 000000000r ; 0 ; DirectX::g_XMFixAA8R8G8B8
	DD	000000000r			; 0
	DD	000000000r			; 0
	DD	04f000000r			; 2.14748e+009
CONST	ENDS
;	COMDAT ?badbit@?$_Iosb@H@std@@2W4_Iostate@12@B
CONST	SEGMENT
?badbit@?$_Iosb@H@std@@2W4_Iostate@12@B DD 04H		; std::_Iosb<int>::badbit
CONST	ENDS
;	COMDAT ?DarkSlateBlue@Colors@DirectX@@3UXMVECTORF32@2@B
CONST	SEGMENT
?DarkSlateBlue@Colors@DirectX@@3UXMVECTORF32@2@B DD 03e909091r ; 0.282353 ; DirectX::Colors::DarkSlateBlue
	DD	03e74f4f6r			; 0.239216
	DD	03f0b8b8cr			; 0.545098
	DD	03f800000r			; 1
CONST	ENDS
;	COMDAT ?g_XMFlipA8R8G8B8@DirectX@@3UXMVECTORI32@1@B
CONST	SEGMENT
?g_XMFlipA8R8G8B8@DirectX@@3UXMVECTORI32@1@B DD 00H	; DirectX::g_XMFlipA8R8G8B8
	DD	00H
	DD	00H
	DD	080000000H
CONST	ENDS
;	COMDAT ?_S_cancelException@_TaskCollectionBase@details@Concurrency@@1IB
CONST	SEGMENT
?_S_cancelException@_TaskCollectionBase@details@Concurrency@@1IB DD 0cH ; Concurrency::details::_TaskCollectionBase::_S_cancelException
CONST	ENDS
;	COMDAT ?DarkSeaGreen@Colors@DirectX@@3UXMVECTORF32@2@B
CONST	SEGMENT
?DarkSeaGreen@Colors@DirectX@@3UXMVECTORF32@2@B DD 03f0f8f90r ; 0.560784 ; DirectX::Colors::DarkSeaGreen
	DD	03f3cbcbdr			; 0.737255
	DD	03f0b8b8cr			; 0.545098
	DD	03f800000r			; 1
CONST	ENDS
;	COMDAT ?g_XMMaskA8R8G8B8@DirectX@@3UXMVECTORI32@1@B
CONST	SEGMENT
?g_XMMaskA8R8G8B8@DirectX@@3UXMVECTORI32@1@B DD 0ff0000H ; DirectX::g_XMMaskA8R8G8B8
	DD	0ff00H
	DD	0ffH
	DD	0ff000000H
CONST	ENDS
;	COMDAT ?DarkSalmon@Colors@DirectX@@3UXMVECTORF32@2@B
CONST	SEGMENT
?DarkSalmon@Colors@DirectX@@3UXMVECTORF32@2@B DD 03f69e9ebr ; 0.913726 ; DirectX::Colors::DarkSalmon
	DD	03f169697r			; 0.588235
	DD	03ef4f4f6r			; 0.478431
	DD	03f800000r			; 1
CONST	ENDS
;	COMDAT ?g_XMNegOneMask@DirectX@@3UXMVECTORI32@1@B
CONST	SEGMENT
?g_XMNegOneMask@DirectX@@3UXMVECTORI32@1@B DD 0ffffffffH ; DirectX::g_XMNegOneMask
	DD	0ffffffffH
	DD	0ffffffffH
	DD	0ffffffffH
CONST	ENDS
;	COMDAT ?failbit@?$_Iosb@H@std@@2W4_Iostate@12@B
CONST	SEGMENT
?failbit@?$_Iosb@H@std@@2W4_Iostate@12@B DD 02H		; std::_Iosb<int>::failbit
CONST	ENDS
;	COMDAT ?_S_nonNull@_TaskCollectionBase@details@Concurrency@@1IB
CONST	SEGMENT
?_S_nonNull@_TaskCollectionBase@details@Concurrency@@1IB DD 08H ; Concurrency::details::_TaskCollectionBase::_S_nonNull
CONST	ENDS
;	COMDAT ?DarkRed@Colors@DirectX@@3UXMVECTORF32@2@B
CONST	SEGMENT
?DarkRed@Colors@DirectX@@3UXMVECTORF32@2@B DD 03f0b8b8cr ; 0.545098 ; DirectX::Colors::DarkRed
	DD	000000000r			; 0
	DD	000000000r			; 0
	DD	03f800000r			; 1
CONST	ENDS
;	COMDAT ?g_XMFltMax@DirectX@@3UXMVECTORI32@1@B
CONST	SEGMENT
?g_XMFltMax@DirectX@@3UXMVECTORI32@1@B DD 07f7fffffH	; DirectX::g_XMFltMax
	DD	07f7fffffH
	DD	07f7fffffH
	DD	07f7fffffH
CONST	ENDS
;	COMDAT ?_Gy@?$_Ratio_multiply@U?$ratio@$00$0JIJGIA@@std@@U?$ratio@$0JIJGIA@$00@2@@std@@2_JB
CONST	SEGMENT
?_Gy@?$_Ratio_multiply@U?$ratio@$00$0JIJGIA@@std@@U?$ratio@$0JIJGIA@$00@2@@std@@2_JB DQ 0000000000989680H ; std::_Ratio_multiply<std::ratio<1,10000000>,std::ratio<10000000,1> >::_Gy
CONST	ENDS
;	COMDAT ?DarkOrchid@Colors@DirectX@@3UXMVECTORF32@2@B
CONST	SEGMENT
?DarkOrchid@Colors@DirectX@@3UXMVECTORF32@2@B DD 03f19999ar ; 0.6 ; DirectX::Colors::DarkOrchid
	DD	03e48c8car			; 0.196078
	DD	03f4ccccer			; 0.8
	DD	03f800000r			; 1
CONST	ENDS
;	COMDAT ?g_XMFltMin@DirectX@@3UXMVECTORI32@1@B
CONST	SEGMENT
?g_XMFltMin@DirectX@@3UXMVECTORI32@1@B DD 0800000H	; DirectX::g_XMFltMin
	DD	0800000H
	DD	0800000H
	DD	0800000H
CONST	ENDS
;	COMDAT ?_S_cancelShotdownOwner@_TaskCollectionBase@details@Concurrency@@1IB
CONST	SEGMENT
?_S_cancelShotdownOwner@_TaskCollectionBase@details@Concurrency@@1IB DD 03H ; Concurrency::details::_TaskCollectionBase::_S_cancelShotdownOwner
CONST	ENDS
;	COMDAT ?DarkOrange@Colors@DirectX@@3UXMVECTORF32@2@B
CONST	SEGMENT
?DarkOrange@Colors@DirectX@@3UXMVECTORF32@2@B DD 03f800000r ; 1 ; DirectX::Colors::DarkOrange
	DD	03f0c8c8dr			; 0.54902
	DD	000000000r			; 0
	DD	03f800000r			; 1
CONST	ENDS
;	COMDAT ?g_XMAbsMask@DirectX@@3UXMVECTORI32@1@B
CONST	SEGMENT
?g_XMAbsMask@DirectX@@3UXMVECTORI32@1@B DD 07fffffffH	; DirectX::g_XMAbsMask
	DD	07fffffffH
	DD	07fffffffH
	DD	07fffffffH
CONST	ENDS
;	COMDAT ?eofbit@?$_Iosb@H@std@@2W4_Iostate@12@B
CONST	SEGMENT
?eofbit@?$_Iosb@H@std@@2W4_Iostate@12@B DD 01H		; std::_Iosb<int>::eofbit
CONST	ENDS
;	COMDAT ?DarkOliveGreen@Colors@DirectX@@3UXMVECTORF32@2@B
CONST	SEGMENT
?DarkOliveGreen@Colors@DirectX@@3UXMVECTORF32@2@B DD 03eaaaaabr ; 0.333333 ; DirectX::Colors::DarkOliveGreen
	DD	03ed6d6d8r			; 0.419608
	DD	03e3cbcbdr			; 0.184314
	DD	03f800000r			; 1
CONST	ENDS
;	COMDAT ?g_XMQNaNTest@DirectX@@3UXMVECTORI32@1@B
CONST	SEGMENT
?g_XMQNaNTest@DirectX@@3UXMVECTORI32@1@B DD 07fffffH	; DirectX::g_XMQNaNTest
	DD	07fffffH
	DD	07fffffH
	DD	07fffffH
CONST	ENDS
;	COMDAT ?_S_cancelDeferredShootdownOwner@_TaskCollectionBase@details@Concurrency@@1IB
CONST	SEGMENT
?_S_cancelDeferredShootdownOwner@_TaskCollectionBase@details@Concurrency@@1IB DD 02H ; Concurrency::details::_TaskCollectionBase::_S_cancelDeferredShootdownOwner
CONST	ENDS
;	COMDAT ?g_XMQNaN@DirectX@@3UXMVECTORI32@1@B
CONST	SEGMENT
?g_XMQNaN@DirectX@@3UXMVECTORI32@1@B DD 07fc00000H	; DirectX::g_XMQNaN
	DD	07fc00000H
	DD	07fc00000H
	DD	07fc00000H
CONST	ENDS
;	COMDAT ?DarkMagenta@Colors@DirectX@@3UXMVECTORF32@2@B
CONST	SEGMENT
?DarkMagenta@Colors@DirectX@@3UXMVECTORF32@2@B DD 03f0b8b8cr ; 0.545098 ; DirectX::Colors::DarkMagenta
	DD	000000000r			; 0
	DD	03f0b8b8cr			; 0.545098
	DD	03f800000r			; 1
CONST	ENDS
;	COMDAT ?DarkKhaki@Colors@DirectX@@3UXMVECTORF32@2@B
CONST	SEGMENT
?DarkKhaki@Colors@DirectX@@3UXMVECTORF32@2@B DD 03f3dbdber ; 0.741176 ; DirectX::Colors::DarkKhaki
	DD	03f37b7b8r			; 0.717647
	DD	03ed6d6d8r			; 0.419608
	DD	03f800000r			; 1
CONST	ENDS
;	COMDAT ?g_XMInfinity@DirectX@@3UXMVECTORI32@1@B
CONST	SEGMENT
?g_XMInfinity@DirectX@@3UXMVECTORI32@1@B DD 07f800000H	; DirectX::g_XMInfinity
	DD	07f800000H
	DD	07f800000H
	DD	07f800000H
CONST	ENDS
;	COMDAT ?goodbit@?$_Iosb@H@std@@2W4_Iostate@12@B
CONST	SEGMENT
?goodbit@?$_Iosb@H@std@@2W4_Iostate@12@B DD 00H		; std::_Iosb<int>::goodbit
CONST	ENDS
;	COMDAT ?_S_cancelStarted@_TaskCollectionBase@details@Concurrency@@1IB
CONST	SEGMENT
?_S_cancelStarted@_TaskCollectionBase@details@Concurrency@@1IB DD 01H ; Concurrency::details::_TaskCollectionBase::_S_cancelStarted
CONST	ENDS
;	COMDAT ?g_XMEpsilon@DirectX@@3UXMVECTORF32@1@B
CONST	SEGMENT
?g_XMEpsilon@DirectX@@3UXMVECTORF32@1@B DD 034000000r ; 1.19209e-007 ; DirectX::g_XMEpsilon
	DD	034000000r			; 1.19209e-007
	DD	034000000r			; 1.19209e-007
	DD	034000000r			; 1.19209e-007
CONST	ENDS
;	COMDAT ?DarkGreen@Colors@DirectX@@3UXMVECTORF32@2@B
CONST	SEGMENT
?DarkGreen@Colors@DirectX@@3UXMVECTORF32@2@B DD 000000000r ; 0 ; DirectX::Colors::DarkGreen
	DD	03ec8c8car			; 0.392157
	DD	000000000r			; 0
	DD	03f800000r			; 1
CONST	ENDS
;	COMDAT ?DarkGray@Colors@DirectX@@3UXMVECTORF32@2@B
CONST	SEGMENT
?DarkGray@Colors@DirectX@@3UXMVECTORF32@2@B DD 03f29a9aar ; 0.662745 ; DirectX::Colors::DarkGray
	DD	03f29a9aar			; 0.662745
	DD	03f29a9aar			; 0.662745
	DD	03f800000r			; 1
CONST	ENDS
;	COMDAT ?_S_cancelNone@_TaskCollectionBase@details@Concurrency@@1IB
CONST	SEGMENT
?_S_cancelNone@_TaskCollectionBase@details@Concurrency@@1IB DD 00H ; Concurrency::details::_TaskCollectionBase::_S_cancelNone
CONST	ENDS
;	COMDAT ?DarkGoldenrod@Colors@DirectX@@3UXMVECTORF32@2@B
CONST	SEGMENT
?DarkGoldenrod@Colors@DirectX@@3UXMVECTORF32@2@B DD 03f38b8b9r ; 0.721569 ; DirectX::Colors::DarkGoldenrod
	DD	03f068687r			; 0.52549
	DD	03d30b0b1r			; 0.0431373
	DD	03f800000r			; 1
CONST	ENDS
;	COMDAT ?value@?$_Gcd@$0JIJGIA@$0JIJGIA@@std@@2_JB
CONST	SEGMENT
?value@?$_Gcd@$0JIJGIA@$0JIJGIA@@std@@2_JB DQ 0000000000989680H ; std::_Gcd<10000000,10000000>::value
CONST	ENDS
;	COMDAT ?DarkCyan@Colors@DirectX@@3UXMVECTORF32@2@B
CONST	SEGMENT
?DarkCyan@Colors@DirectX@@3UXMVECTORF32@2@B DD 000000000r ; 0 ; DirectX::Colors::DarkCyan
	DD	03f0b8b8cr			; 0.545098
	DD	03f0b8b8cr			; 0.545098
	DD	03f800000r			; 1
CONST	ENDS
;	COMDAT ?_S_cancelBitsMask@_TaskCollectionBase@details@Concurrency@@1IB
CONST	SEGMENT
?_S_cancelBitsMask@_TaskCollectionBase@details@Concurrency@@1IB DD 03H ; Concurrency::details::_TaskCollectionBase::_S_cancelBitsMask
CONST	ENDS
;	COMDAT ?DarkBlue@Colors@DirectX@@3UXMVECTORF32@2@B
CONST	SEGMENT
?DarkBlue@Colors@DirectX@@3UXMVECTORF32@2@B DD 000000000r ; 0 ; DirectX::Colors::DarkBlue
	DD	000000000r			; 0
	DD	03f0b8b8cr			; 0.545098
	DD	03f800000r			; 1
CONST	ENDS
;	COMDAT ?floatfield@?$_Iosb@H@std@@2W4_Fmtflags@12@B
CONST	SEGMENT
?floatfield@?$_Iosb@H@std@@2W4_Fmtflags@12@B DD 03000H	; std::_Iosb<int>::floatfield
CONST	ENDS
;	COMDAT ?Cyan@Colors@DirectX@@3UXMVECTORF32@2@B
CONST	SEGMENT
?Cyan@Colors@DirectX@@3UXMVECTORF32@2@B DD 000000000r ; 0 ; DirectX::Colors::Cyan
	DD	03f800000r			; 1
	DD	03f800000r			; 1
	DD	03f800000r			; 1
CONST	ENDS
;	COMDAT ?Crimson@Colors@DirectX@@3UXMVECTORF32@2@B
CONST	SEGMENT
?Crimson@Colors@DirectX@@3UXMVECTORF32@2@B DD 03f5cdcder ; 0.862745 ; DirectX::Colors::Crimson
	DD	03da0a0a1r			; 0.0784314
	DD	03e70f0f2r			; 0.235294
	DD	03f800000r			; 1
CONST	ENDS
;	COMDAT ?Cornsilk@Colors@DirectX@@3UXMVECTORF32@2@B
CONST	SEGMENT
?Cornsilk@Colors@DirectX@@3UXMVECTORF32@2@B DD 03f800000r ; 1 ; DirectX::Colors::Cornsilk
	DD	03f78f8far			; 0.972549
	DD	03f5cdcder			; 0.862745
	DD	03f800000r			; 1
CONST	ENDS
;	COMDAT ?basefield@?$_Iosb@H@std@@2W4_Fmtflags@12@B
CONST	SEGMENT
?basefield@?$_Iosb@H@std@@2W4_Fmtflags@12@B DD 0e00H	; std::_Iosb<int>::basefield
CONST	ENDS
;	COMDAT ?CornflowerBlue@Colors@DirectX@@3UXMVECTORF32@2@B
CONST	SEGMENT
?CornflowerBlue@Colors@DirectX@@3UXMVECTORF32@2@B DD 03ec8c8car ; 0.392157 ; DirectX::Colors::CornflowerBlue
	DD	03f159596r			; 0.584314
	DD	03f6dedefr			; 0.929412
	DD	03f800000r			; 1
CONST	ENDS
;	COMDAT ?none@?$_Locbase@H@std@@2HB
CONST	SEGMENT
?none@?$_Locbase@H@std@@2HB DD 00H			; std::_Locbase<int>::none
CONST	ENDS
;	COMDAT ?Coral@Colors@DirectX@@3UXMVECTORF32@2@B
CONST	SEGMENT
?Coral@Colors@DirectX@@3UXMVECTORF32@2@B DD 03f800000r ; 1 ; DirectX::Colors::Coral
	DD	03efeff00r			; 0.498039
	DD	03ea0a0a1r			; 0.313726
	DD	03f800000r			; 1
CONST	ENDS
;	COMDAT ?Chocolate@Colors@DirectX@@3UXMVECTORF32@2@B
CONST	SEGMENT
?Chocolate@Colors@DirectX@@3UXMVECTORF32@2@B DD 03f52d2d4r ; 0.823529 ; DirectX::Colors::Chocolate
	DD	03ed2d2d4r			; 0.411765
	DD	03df0f0f2r			; 0.117647
	DD	03f800000r			; 1
CONST	ENDS
;	COMDAT ?adjustfield@?$_Iosb@H@std@@2W4_Fmtflags@12@B
CONST	SEGMENT
?adjustfield@?$_Iosb@H@std@@2W4_Fmtflags@12@B DD 01c0H	; std::_Iosb<int>::adjustfield
CONST	ENDS
;	COMDAT ?value@?$_GcdX@$0JIJGIA@$0JIJGIA@@std@@2_JB
CONST	SEGMENT
?value@?$_GcdX@$0JIJGIA@$0JIJGIA@@std@@2_JB DQ 0000000000989680H ; std::_GcdX<10000000,10000000>::value
CONST	ENDS
;	COMDAT ?all@?$_Locbase@H@std@@2HB
CONST	SEGMENT
?all@?$_Locbase@H@std@@2HB DD 03fH			; std::_Locbase<int>::all
CONST	ENDS
;	COMDAT ?Chartreuse@Colors@DirectX@@3UXMVECTORF32@2@B
CONST	SEGMENT
?Chartreuse@Colors@DirectX@@3UXMVECTORF32@2@B DD 03efeff00r ; 0.498039 ; DirectX::Colors::Chartreuse
	DD	03f800000r			; 1
	DD	000000000r			; 0
	DD	03f800000r			; 1
CONST	ENDS
;	COMDAT ?CadetBlue@Colors@DirectX@@3UXMVECTORF32@2@B
CONST	SEGMENT
?CadetBlue@Colors@DirectX@@3UXMVECTORF32@2@B DD 03ebebebfr ; 0.372549 ; DirectX::Colors::CadetBlue
	DD	03f1e9e9fr			; 0.619608
	DD	03f20a0a1r			; 0.627451
	DD	03f800000r			; 1
CONST	ENDS
;	COMDAT ?messages@?$_Locbase@H@std@@2HB
CONST	SEGMENT
?messages@?$_Locbase@H@std@@2HB DD 020H			; std::_Locbase<int>::messages
CONST	ENDS
;	COMDAT ?BurlyWood@Colors@DirectX@@3UXMVECTORF32@2@B
CONST	SEGMENT
?BurlyWood@Colors@DirectX@@3UXMVECTORF32@2@B DD 03f5edee0r ; 0.870588 ; DirectX::Colors::BurlyWood
	DD	03f38b8b9r			; 0.721569
	DD	03f078788r			; 0.529412
	DD	03f800000r			; 1
CONST	ENDS
;	COMDAT ?_Stdio@?$_Iosb@H@std@@2W4_Fmtflags@12@B
CONST	SEGMENT
?_Stdio@?$_Iosb@H@std@@2W4_Fmtflags@12@B DD 08000H	; std::_Iosb<int>::_Stdio
CONST	ENDS
;	COMDAT ?Brown@Colors@DirectX@@3UXMVECTORF32@2@B
CONST	SEGMENT
?Brown@Colors@DirectX@@3UXMVECTORF32@2@B DD 03f25a5a6r ; 0.647059 ; DirectX::Colors::Brown
	DD	03e28a8a9r			; 0.164706
	DD	03e28a8a9r			; 0.164706
	DD	03f800000r			; 1
CONST	ENDS
;	COMDAT ?time@?$_Locbase@H@std@@2HB
CONST	SEGMENT
?time@?$_Locbase@H@std@@2HB DD 010H			; std::_Locbase<int>::time
CONST	ENDS
;	COMDAT ?BlueViolet@Colors@DirectX@@3UXMVECTORF32@2@B
CONST	SEGMENT
?BlueViolet@Colors@DirectX@@3UXMVECTORF32@2@B DD 03f0a8a8br ; 0.541176 ; DirectX::Colors::BlueViolet
	DD	03e2cacadr			; 0.168627
	DD	03f62e2e4r			; 0.886275
	DD	03f800000r			; 1
CONST	ENDS
;	COMDAT ?Blue@Colors@DirectX@@3UXMVECTORF32@2@B
CONST	SEGMENT
?Blue@Colors@DirectX@@3UXMVECTORF32@2@B DD 000000000r ; 0 ; DirectX::Colors::Blue
	DD	000000000r			; 0
	DD	03f800000r			; 1
	DD	03f800000r			; 1
CONST	ENDS
;	COMDAT ?boolalpha@?$_Iosb@H@std@@2W4_Fmtflags@12@B
CONST	SEGMENT
?boolalpha@?$_Iosb@H@std@@2W4_Fmtflags@12@B DD 04000H	; std::_Iosb<int>::boolalpha
CONST	ENDS
;	COMDAT ?numeric@?$_Locbase@H@std@@2HB
CONST	SEGMENT
?numeric@?$_Locbase@H@std@@2HB DD 08H			; std::_Locbase<int>::numeric
CONST	ENDS
;	COMDAT ?BlanchedAlmond@Colors@DirectX@@3UXMVECTORF32@2@B
CONST	SEGMENT
?BlanchedAlmond@Colors@DirectX@@3UXMVECTORF32@2@B DD 03f800000r ; 1 ; DirectX::Colors::BlanchedAlmond
	DD	03f6bebedr			; 0.921569
	DD	03f4dcdcfr			; 0.803922
	DD	03f800000r			; 1
CONST	ENDS
;	COMDAT ?Black@Colors@DirectX@@3UXMVECTORF32@2@B
CONST	SEGMENT
?Black@Colors@DirectX@@3UXMVECTORF32@2@B DD 000000000r ; 0 ; DirectX::Colors::Black
	DD	000000000r			; 0
	DD	000000000r			; 0
	DD	03f800000r			; 1
CONST	ENDS
;	COMDAT ?monetary@?$_Locbase@H@std@@2HB
CONST	SEGMENT
?monetary@?$_Locbase@H@std@@2HB DD 04H			; std::_Locbase<int>::monetary
CONST	ENDS
;	COMDAT ?value@?$_GcdX@$0JIJGIA@$0A@@std@@2_JB
CONST	SEGMENT
?value@?$_GcdX@$0JIJGIA@$0A@@std@@2_JB DQ 0000000000989680H ; std::_GcdX<10000000,0>::value
CONST	ENDS
;	COMDAT ?Bisque@Colors@DirectX@@3UXMVECTORF32@2@B
CONST	SEGMENT
?Bisque@Colors@DirectX@@3UXMVECTORF32@2@B DD 03f800000r ; 1 ; DirectX::Colors::Bisque
	DD	03f64e4e6r			; 0.894118
	DD	03f44c4c6r			; 0.768628
	DD	03f800000r			; 1
CONST	ENDS
;	COMDAT ?hexfloat@?$_Iosb@H@std@@2W4_Fmtflags@12@B
CONST	SEGMENT
?hexfloat@?$_Iosb@H@std@@2W4_Fmtflags@12@B DD 03000H	; std::_Iosb<int>::hexfloat
CONST	ENDS
;	COMDAT ?Beige@Colors@DirectX@@3UXMVECTORF32@2@B
CONST	SEGMENT
?Beige@Colors@DirectX@@3UXMVECTORF32@2@B DD 03f75f5f7r ; 0.960784 ; DirectX::Colors::Beige
	DD	03f75f5f7r			; 0.960784
	DD	03f5cdcder			; 0.862745
	DD	03f800000r			; 1
CONST	ENDS
;	COMDAT ?ctype@?$_Locbase@H@std@@2HB
CONST	SEGMENT
?ctype@?$_Locbase@H@std@@2HB DD 02H			; std::_Locbase<int>::ctype
CONST	ENDS
;	COMDAT ?Azure@Colors@DirectX@@3UXMVECTORF32@2@B
CONST	SEGMENT
?Azure@Colors@DirectX@@3UXMVECTORF32@2@B DD 03f70f0f2r ; 0.941177 ; DirectX::Colors::Azure
	DD	03f800000r			; 1
	DD	03f800000r			; 1
	DD	03f800000r			; 1
CONST	ENDS
;	COMDAT ?Aquamarine@Colors@DirectX@@3UXMVECTORF32@2@B
CONST	SEGMENT
?Aquamarine@Colors@DirectX@@3UXMVECTORF32@2@B DD 03efeff00r ; 0.498039 ; DirectX::Colors::Aquamarine
	DD	03f800000r			; 1
	DD	03f54d4d6r			; 0.831373
	DD	03f800000r			; 1
CONST	ENDS
;	COMDAT ?collate@?$_Locbase@H@std@@2HB
CONST	SEGMENT
?collate@?$_Locbase@H@std@@2HB DD 01H			; std::_Locbase<int>::collate
CONST	ENDS
;	COMDAT ?fixed@?$_Iosb@H@std@@2W4_Fmtflags@12@B
CONST	SEGMENT
?fixed@?$_Iosb@H@std@@2W4_Fmtflags@12@B DD 02000H	; std::_Iosb<int>::fixed
CONST	ENDS
;	COMDAT ?Aqua@Colors@DirectX@@3UXMVECTORF32@2@B
CONST	SEGMENT
?Aqua@Colors@DirectX@@3UXMVECTORF32@2@B DD 000000000r ; 0 ; DirectX::Colors::Aqua
	DD	03f800000r			; 1
	DD	03f800000r			; 1
	DD	03f800000r			; 1
CONST	ENDS
;	COMDAT ?AntiqueWhite@Colors@DirectX@@3UXMVECTORF32@2@B
CONST	SEGMENT
?AntiqueWhite@Colors@DirectX@@3UXMVECTORF32@2@B DD 03f7afafcr ; 0.980392 ; DirectX::Colors::AntiqueWhite
	DD	03f6bebedr			; 0.921569
	DD	03f57d7d9r			; 0.843137
	DD	03f800000r			; 1
CONST	ENDS
;	COMDAT ?AliceBlue@Colors@DirectX@@3UXMVECTORF32@2@B
CONST	SEGMENT
?AliceBlue@Colors@DirectX@@3UXMVECTORF32@2@B DD 03f70f0f2r ; 0.941177 ; DirectX::Colors::AliceBlue
	DD	03f78f8far			; 0.972549
	DD	03f800000r			; 1
	DD	03f800000r			; 1
CONST	ENDS
;	COMDAT ?scientific@?$_Iosb@H@std@@2W4_Fmtflags@12@B
CONST	SEGMENT
?scientific@?$_Iosb@H@std@@2W4_Fmtflags@12@B DD 01000H	; std::_Iosb<int>::scientific
CONST	ENDS
;	COMDAT ?_Gx@?$_Ratio_multiply@U?$ratio@$00$0JIJGIA@@std@@U?$ratio@$0JIJGIA@$00@2@@std@@2_JB
CONST	SEGMENT
?_Gx@?$_Ratio_multiply@U?$ratio@$00$0JIJGIA@@std@@U?$ratio@$0JIJGIA@$00@2@@std@@2_JB DQ 0000000000000001H ; std::_Ratio_multiply<std::ratio<1,10000000>,std::ratio<10000000,1> >::_Gx
CONST	ENDS
;	COMDAT ?hex@?$_Iosb@H@std@@2W4_Fmtflags@12@B
CONST	SEGMENT
?hex@?$_Iosb@H@std@@2W4_Fmtflags@12@B DD 0800H		; std::_Iosb<int>::hex
CONST	ENDS
;	COMDAT ?g_XMNegativeOneHalf@DirectX@@3UXMVECTORF32@1@B
CONST	SEGMENT
?g_XMNegativeOneHalf@DirectX@@3UXMVECTORF32@1@B DD 0bf000000r ; -0.5 ; DirectX::g_XMNegativeOneHalf
	DD	0bf000000r			; -0.5
	DD	0bf000000r			; -0.5
	DD	0bf000000r			; -0.5
CONST	ENDS
;	COMDAT ?g_XMOneHalf@DirectX@@3UXMVECTORF32@1@B
CONST	SEGMENT
?g_XMOneHalf@DirectX@@3UXMVECTORF32@1@B DD 03f000000r ; 0.5 ; DirectX::g_XMOneHalf
	DD	03f000000r			; 0.5
	DD	03f000000r			; 0.5
	DD	03f000000r			; 0.5
CONST	ENDS
;	COMDAT ?_D2@?$_Ratio_multiply@U?$ratio@$00$0JIJGIA@@std@@U?$ratio@$0JIJGIA@$00@2@@std@@2_JB
CONST	SEGMENT
?_D2@?$_Ratio_multiply@U?$ratio@$00$0JIJGIA@@std@@U?$ratio@$0JIJGIA@$00@2@@std@@2_JB DQ 0000000000000001H ; std::_Ratio_multiply<std::ratio<1,10000000>,std::ratio<10000000,1> >::_D2
CONST	ENDS
;	COMDAT ?g_XMNegativeOne@DirectX@@3UXMVECTORF32@1@B
CONST	SEGMENT
?g_XMNegativeOne@DirectX@@3UXMVECTORF32@1@B DD 0bf800000r ; -1 ; DirectX::g_XMNegativeOne
	DD	0bf800000r			; -1
	DD	0bf800000r			; -1
	DD	0bf800000r			; -1
CONST	ENDS
;	COMDAT ?oct@?$_Iosb@H@std@@2W4_Fmtflags@12@B
CONST	SEGMENT
?oct@?$_Iosb@H@std@@2W4_Fmtflags@12@B DD 0400H		; std::_Iosb<int>::oct
CONST	ENDS
;	COMDAT ?g_XMSix@DirectX@@3UXMVECTORF32@1@B
CONST	SEGMENT
?g_XMSix@DirectX@@3UXMVECTORF32@1@B DD 040c00000r ; 6	; DirectX::g_XMSix
	DD	040c00000r			; 6
	DD	040c00000r			; 6
	DD	040c00000r			; 6
CONST	ENDS
;	COMDAT ?_N2@?$_Ratio_multiply@U?$ratio@$00$0JIJGIA@@std@@U?$ratio@$0JIJGIA@$00@2@@std@@2_JB
CONST	SEGMENT
?_N2@?$_Ratio_multiply@U?$ratio@$00$0JIJGIA@@std@@U?$ratio@$0JIJGIA@$00@2@@std@@2_JB DQ 0000000000989680H ; std::_Ratio_multiply<std::ratio<1,10000000>,std::ratio<10000000,1> >::_N2
CONST	ENDS
;	COMDAT ?g_XMFour@DirectX@@3UXMVECTORF32@1@B
CONST	SEGMENT
?g_XMFour@DirectX@@3UXMVECTORF32@1@B DD 040800000r ; 4	; DirectX::g_XMFour
	DD	040800000r			; 4
	DD	040800000r			; 4
	DD	040800000r			; 4
CONST	ENDS
;	COMDAT ?g_XMTwo@DirectX@@3UXMVECTORF32@1@B
CONST	SEGMENT
?g_XMTwo@DirectX@@3UXMVECTORF32@1@B DD 040000000r ; 2	; DirectX::g_XMTwo
	DD	040000000r			; 2
	DD	040000000r			; 2
	DD	040000000r			; 2
CONST	ENDS
;	COMDAT ?dec@?$_Iosb@H@std@@2W4_Fmtflags@12@B
CONST	SEGMENT
?dec@?$_Iosb@H@std@@2W4_Fmtflags@12@B DD 0200H		; std::_Iosb<int>::dec
CONST	ENDS
;	COMDAT ?g_XMZero@DirectX@@3UXMVECTORF32@1@B
CONST	SEGMENT
?g_XMZero@DirectX@@3UXMVECTORF32@1@B DD 000000000r ; 0	; DirectX::g_XMZero
	DD	000000000r			; 0
	DD	000000000r			; 0
	DD	000000000r			; 0
CONST	ENDS
;	COMDAT ?g_XMOne3@DirectX@@3UXMVECTORF32@1@B
CONST	SEGMENT
?g_XMOne3@DirectX@@3UXMVECTORF32@1@B DD 03f800000r ; 1	; DirectX::g_XMOne3
	DD	03f800000r			; 1
	DD	03f800000r			; 1
	DD	000000000r			; 0
CONST	ENDS
;	COMDAT ?g_XMOne@DirectX@@3UXMVECTORF32@1@B
CONST	SEGMENT
?g_XMOne@DirectX@@3UXMVECTORF32@1@B DD 03f800000r ; 1	; DirectX::g_XMOne
	DD	03f800000r			; 1
	DD	03f800000r			; 1
	DD	03f800000r			; 1
CONST	ENDS
;	COMDAT ?internal@?$_Iosb@H@std@@2W4_Fmtflags@12@B
CONST	SEGMENT
?internal@?$_Iosb@H@std@@2W4_Fmtflags@12@B DD 0100H	; std::_Iosb<int>::internal
CONST	ENDS
;	COMDAT ?g_XMMaskW@DirectX@@3UXMVECTORI32@1@B
CONST	SEGMENT
?g_XMMaskW@DirectX@@3UXMVECTORI32@1@B DD 00H		; DirectX::g_XMMaskW
	DD	00H
	DD	00H
	DD	0ffffffffH
CONST	ENDS
;	COMDAT ?g_XMMaskZ@DirectX@@3UXMVECTORI32@1@B
CONST	SEGMENT
?g_XMMaskZ@DirectX@@3UXMVECTORI32@1@B DD 00H		; DirectX::g_XMMaskZ
	DD	00H
	DD	0ffffffffH
	DD	00H
CONST	ENDS
;	COMDAT ?g_XMMaskY@DirectX@@3UXMVECTORI32@1@B
CONST	SEGMENT
?g_XMMaskY@DirectX@@3UXMVECTORI32@1@B DD 00H		; DirectX::g_XMMaskY
	DD	0ffffffffH
	DD	00H
	DD	00H
CONST	ENDS
;	COMDAT ?right@?$_Iosb@H@std@@2W4_Fmtflags@12@B
CONST	SEGMENT
?right@?$_Iosb@H@std@@2W4_Fmtflags@12@B DD 080H		; std::_Iosb<int>::right
CONST	ENDS
;	COMDAT ?g_XMMaskX@DirectX@@3UXMVECTORI32@1@B
CONST	SEGMENT
?g_XMMaskX@DirectX@@3UXMVECTORI32@1@B DD 0ffffffffH	; DirectX::g_XMMaskX
	DD	00H
	DD	00H
	DD	00H
CONST	ENDS
;	COMDAT ?den@?$ratio@$0JIJGIA@$00@std@@2_JB
CONST	SEGMENT
?den@?$ratio@$0JIJGIA@$00@std@@2_JB DQ 0000000000000001H ; std::ratio<10000000,1>::den
CONST	ENDS
;	COMDAT ?g_XMMask3@DirectX@@3UXMVECTORI32@1@B
CONST	SEGMENT
?g_XMMask3@DirectX@@3UXMVECTORI32@1@B DD 0ffffffffH	; DirectX::g_XMMask3
	DD	0ffffffffH
	DD	0ffffffffH
	DD	00H
CONST	ENDS
;	COMDAT ?g_XMNegate3@DirectX@@3UXMVECTORI32@1@B
CONST	SEGMENT
?g_XMNegate3@DirectX@@3UXMVECTORI32@1@B DD 080000000H	; DirectX::g_XMNegate3
	DD	080000000H
	DD	080000000H
	DD	00H
CONST	ENDS
;	COMDAT ?left@?$_Iosb@H@std@@2W4_Fmtflags@12@B
CONST	SEGMENT
?left@?$_Iosb@H@std@@2W4_Fmtflags@12@B DD 040H		; std::_Iosb<int>::left
CONST	ENDS
;	COMDAT ?num@?$ratio@$0JIJGIA@$00@std@@2_JB
CONST	SEGMENT
?num@?$ratio@$0JIJGIA@$00@std@@2_JB DQ 0000000000989680H ; std::ratio<10000000,1>::num
CONST	ENDS
;	COMDAT ?g_XMNegativeZero@DirectX@@3UXMVECTORI32@1@B
CONST	SEGMENT
?g_XMNegativeZero@DirectX@@3UXMVECTORI32@1@B DD 080000000H ; DirectX::g_XMNegativeZero
	DD	080000000H
	DD	080000000H
	DD	080000000H
CONST	ENDS
;	COMDAT ?value@?$_Gcd@$0A@$0A@@std@@2_JB
CONST	SEGMENT
?value@?$_Gcd@$0A@$0A@@std@@2_JB DQ 0000000000000001H	; std::_Gcd<0,0>::value
CONST	ENDS
;	COMDAT ?g_XMNegIdentityR3@DirectX@@3UXMVECTORF32@1@B
CONST	SEGMENT
?g_XMNegIdentityR3@DirectX@@3UXMVECTORF32@1@B DD 000000000r ; 0 ; DirectX::g_XMNegIdentityR3
	DD	000000000r			; 0
	DD	000000000r			; 0
	DD	0bf800000r			; -1
CONST	ENDS
;	COMDAT ?g_XMNegIdentityR2@DirectX@@3UXMVECTORF32@1@B
CONST	SEGMENT
?g_XMNegIdentityR2@DirectX@@3UXMVECTORF32@1@B DD 000000000r ; 0 ; DirectX::g_XMNegIdentityR2
	DD	000000000r			; 0
	DD	0bf800000r			; -1
	DD	000000000r			; 0
CONST	ENDS
;	COMDAT ?showpos@?$_Iosb@H@std@@2W4_Fmtflags@12@B
CONST	SEGMENT
?showpos@?$_Iosb@H@std@@2W4_Fmtflags@12@B DD 020H	; std::_Iosb<int>::showpos
CONST	ENDS
;	COMDAT ?g_XMNegIdentityR1@DirectX@@3UXMVECTORF32@1@B
CONST	SEGMENT
?g_XMNegIdentityR1@DirectX@@3UXMVECTORF32@1@B DD 000000000r ; 0 ; DirectX::g_XMNegIdentityR1
	DD	0bf800000r			; -1
	DD	000000000r			; 0
	DD	000000000r			; 0
CONST	ENDS
;	COMDAT ?g_XMNegIdentityR0@DirectX@@3UXMVECTORF32@1@B
CONST	SEGMENT
?g_XMNegIdentityR0@DirectX@@3UXMVECTORF32@1@B DD 0bf800000r ; -1 ; DirectX::g_XMNegIdentityR0
	DD	000000000r			; 0
	DD	000000000r			; 0
	DD	000000000r			; 0
CONST	ENDS
;	COMDAT ?g_XMIdentityR3@DirectX@@3UXMVECTORF32@1@B
CONST	SEGMENT
?g_XMIdentityR3@DirectX@@3UXMVECTORF32@1@B DD 000000000r ; 0 ; DirectX::g_XMIdentityR3
	DD	000000000r			; 0
	DD	000000000r			; 0
	DD	03f800000r			; 1
CONST	ENDS
;	COMDAT ?showpoint@?$_Iosb@H@std@@2W4_Fmtflags@12@B
CONST	SEGMENT
?showpoint@?$_Iosb@H@std@@2W4_Fmtflags@12@B DD 010H	; std::_Iosb<int>::showpoint
CONST	ENDS
;	COMDAT ?g_XMIdentityR2@DirectX@@3UXMVECTORF32@1@B
CONST	SEGMENT
?g_XMIdentityR2@DirectX@@3UXMVECTORF32@1@B DD 000000000r ; 0 ; DirectX::g_XMIdentityR2
	DD	000000000r			; 0
	DD	03f800000r			; 1
	DD	000000000r			; 0
CONST	ENDS
;	COMDAT ?g_XMIdentityR1@DirectX@@3UXMVECTORF32@1@B
CONST	SEGMENT
?g_XMIdentityR1@DirectX@@3UXMVECTORF32@1@B DD 000000000r ; 0 ; DirectX::g_XMIdentityR1
	DD	03f800000r			; 1
	DD	000000000r			; 0
	DD	000000000r			; 0
CONST	ENDS
;	COMDAT ?value@?$_Gcd@$0JIJGIA@$00@std@@2_JB
CONST	SEGMENT
?value@?$_Gcd@$0JIJGIA@$00@std@@2_JB DQ 0000000000000001H ; std::_Gcd<10000000,1>::value
CONST	ENDS
;	COMDAT ?g_XMIdentityR0@DirectX@@3UXMVECTORF32@1@B
CONST	SEGMENT
?g_XMIdentityR0@DirectX@@3UXMVECTORF32@1@B DD 03f800000r ; 1 ; DirectX::g_XMIdentityR0
	DD	000000000r			; 0
	DD	000000000r			; 0
	DD	000000000r			; 0
CONST	ENDS
;	COMDAT ?showbase@?$_Iosb@H@std@@2W4_Fmtflags@12@B
CONST	SEGMENT
?showbase@?$_Iosb@H@std@@2W4_Fmtflags@12@B DD 08H	; std::_Iosb<int>::showbase
CONST	ENDS
;	COMDAT ?uppercase@?$_Iosb@H@std@@2W4_Fmtflags@12@B
CONST	SEGMENT
?uppercase@?$_Iosb@H@std@@2W4_Fmtflags@12@B DD 04H	; std::_Iosb<int>::uppercase
CONST	ENDS
;	COMDAT ?g_XMArcEstCoefficients@DirectX@@3UXMVECTORF32@1@B
CONST	SEGMENT
?g_XMArcEstCoefficients@DirectX@@3UXMVECTORF32@1@B DD 03fc90da4r ; 1.57073 ; DirectX::g_XMArcEstCoefficients
	DD	0be593484r			; -0.212114
	DD	03d981627r			; 0.074261
	DD	0bc996e30r			; -0.0187293
CONST	ENDS
;	COMDAT ?unitbuf@?$_Iosb@H@std@@2W4_Fmtflags@12@B
CONST	SEGMENT
?unitbuf@?$_Iosb@H@std@@2W4_Fmtflags@12@B DD 02H	; std::_Iosb<int>::unitbuf
CONST	ENDS
;	COMDAT ?_D1@?$_Ratio_multiply@U?$ratio@$00$0JIJGIA@@std@@U?$ratio@$0JIJGIA@$00@2@@std@@2_JB
CONST	SEGMENT
?_D1@?$_Ratio_multiply@U?$ratio@$00$0JIJGIA@@std@@U?$ratio@$0JIJGIA@$00@2@@std@@2_JB DQ 0000000000989680H ; std::_Ratio_multiply<std::ratio<1,10000000>,std::ratio<10000000,1> >::_D1
CONST	ENDS
;	COMDAT _GUID_WICPixelFormat16bppCbCr
CONST	SEGMENT
_GUID_WICPixelFormat16bppCbCr DD 0ff95ba6eH
	DW	011e0H
	DW	04263H
	DB	0bbH
	DB	045H
	DB	01H
	DB	072H
	DB	01fH
	DB	034H
	DB	060H
	DB	0a4H
CONST	ENDS
;	COMDAT _GUID_WICPixelFormat8bppCr
CONST	SEGMENT
_GUID_WICPixelFormat8bppCr DD 0b8145053H
	DW	02116H
	DW	049f0H
	DB	088H
	DB	035H
	DB	0edH
	DB	084H
	DB	04bH
	DB	020H
	DB	05cH
	DB	051H
CONST	ENDS
;	COMDAT ?_N1@?$_Ratio_multiply@U?$ratio@$00$0JIJGIA@@std@@U?$ratio@$0JIJGIA@$00@2@@std@@2_JB
CONST	SEGMENT
?_N1@?$_Ratio_multiply@U?$ratio@$00$0JIJGIA@@std@@U?$ratio@$0JIJGIA@$00@2@@std@@2_JB DQ 0000000000000001H ; std::_Ratio_multiply<std::ratio<1,10000000>,std::ratio<10000000,1> >::_N1
CONST	ENDS
;	COMDAT _GUID_WICPixelFormat8bppCb
CONST	SEGMENT
_GUID_WICPixelFormat8bppCb DD 01339f224H
	DW	06bfeH
	DW	04c3eH
	DB	093H
	DB	02H
	DB	0e4H
	DB	0f3H
	DB	0a6H
	DB	0d0H
	DB	0caH
	DB	02aH
CONST	ENDS
;	COMDAT ?skipws@?$_Iosb@H@std@@2W4_Fmtflags@12@B
CONST	SEGMENT
?skipws@?$_Iosb@H@std@@2W4_Fmtflags@12@B DD 01H		; std::_Iosb<int>::skipws
CONST	ENDS
;	COMDAT _GUID_WICPixelFormat8bppY
CONST	SEGMENT
_GUID_WICPixelFormat8bppY DD 091b4db54H
	DW	02df9H
	DW	042f0H
	DB	0b4H
	DB	049H
	DB	029H
	DB	09H
	DB	0bbH
	DB	03dH
	DB	0f8H
	DB	08eH
CONST	ENDS
;	COMDAT ?g_XMATanEstCoefficients1@DirectX@@3UXMVECTORF32@1@B
CONST	SEGMENT
?g_XMATanEstCoefficients1@DirectX@@3UXMVECTORF32@1@B DD 0bea91d04r ; -0.330299 ; DirectX::g_XMATanEstCoefficients1
	DD	03e3876e2r			; 0.180141
	DD	0bdae5a36r			; -0.085133
	DD	03caaae5fr			; 0.0208351
CONST	ENDS
;	COMDAT _GUID_WICPixelFormat144bpp8ChannelsAlpha
CONST	SEGMENT
_GUID_WICPixelFormat144bpp8ChannelsAlpha DD 06fddc324H
	DW	04e03H
	DW	04bfeH
	DB	0b1H
	DB	085H
	DB	03dH
	DB	077H
	DB	076H
	DB	08dH
	DB	0c9H
	DB	039H
CONST	ENDS
;	COMDAT ?g_XMATanEstCoefficients0@DirectX@@3UXMVECTORF32@1@B
CONST	SEGMENT
?g_XMATanEstCoefficients0@DirectX@@3UXMVECTORF32@1@B DD 03f7ff738r ; 0.999866 ; DirectX::g_XMATanEstCoefficients0
	DD	03f7ff738r			; 0.999866
	DD	03f7ff738r			; 0.999866
	DD	03f7ff738r			; 0.999866
CONST	ENDS
;	COMDAT ?g_XMATanCoefficients1@DirectX@@3UXMVECTORF32@1@B
CONST	SEGMENT
?g_XMATanCoefficients1@DirectX@@3UXMVECTORF32@1@B DD 0bd9a3174r ; -0.0752896 ; DirectX::g_XMATanCoefficients1
	DD	03d2fc1fer			; 0.0429096
	DD	0bc846e02r			; -0.0161657
	DD	03b3bd74ar			; 0.00286623
CONST	ENDS
;	COMDAT _GUID_WICPixelFormat128bpp7ChannelsAlpha
CONST	SEGMENT
_GUID_WICPixelFormat128bpp7ChannelsAlpha DD 06fddc324H
	DW	04e03H
	DW	04bfeH
	DB	0b1H
	DB	085H
	DB	03dH
	DB	077H
	DB	076H
	DB	08dH
	DB	0c9H
	DB	038H
CONST	ENDS
;	COMDAT _GUID_WICPixelFormat112bpp6ChannelsAlpha
CONST	SEGMENT
_GUID_WICPixelFormat112bpp6ChannelsAlpha DD 06fddc324H
	DW	04e03H
	DW	04bfeH
	DB	0b1H
	DB	085H
	DB	03dH
	DB	077H
	DB	076H
	DB	08dH
	DB	0c9H
	DB	037H
CONST	ENDS
;	COMDAT ?g_XMATanCoefficients0@DirectX@@3UXMVECTORF32@1@B
CONST	SEGMENT
?g_XMATanCoefficients0@DirectX@@3UXMVECTORF32@1@B DD 0beaaaa6cr ; -0.333331 ; DirectX::g_XMATanCoefficients0
	DD	03e4cbbe5r			; 0.199936
	DD	0be117fc7r			; -0.142089
	DD	03dda3d83r			; 0.106563
CONST	ENDS
;	COMDAT _GUID_WICPixelFormat96bpp5ChannelsAlpha
CONST	SEGMENT
_GUID_WICPixelFormat96bpp5ChannelsAlpha DD 06fddc324H
	DW	04e03H
	DW	04bfeH
	DB	0b1H
	DB	085H
	DB	03dH
	DB	077H
	DB	076H
	DB	08dH
	DB	0c9H
	DB	036H
CONST	ENDS
;	COMDAT ?g_XMArcCoefficients1@DirectX@@3UXMVECTORF32@1@B
CONST	SEGMENT
?g_XMArcCoefficients1@DirectX@@3UXMVECTORF32@1@B DD 03cfd10f8r ; 0.0308919 ; DirectX::g_XMArcCoefficients1
	DD	0bc8bfc66r			; -0.0170881
	DD	03bda90c5r			; 0.00667009
	DD	0baa57a2cr			; -0.00126249
CONST	ENDS
;	COMDAT _GUID_WICPixelFormat80bpp4ChannelsAlpha
CONST	SEGMENT
_GUID_WICPixelFormat80bpp4ChannelsAlpha DD 06fddc324H
	DW	04e03H
	DW	04bfeH
	DB	0b1H
	DB	085H
	DB	03dH
	DB	077H
	DB	076H
	DB	08dH
	DB	0c9H
	DB	035H
CONST	ENDS
;	COMDAT ?g_XMArcCoefficients0@DirectX@@3UXMVECTORF32@1@B
CONST	SEGMENT
?g_XMArcCoefficients0@DirectX@@3UXMVECTORF32@1@B DD 03fc90fdar ; 1.5708 ; DirectX::g_XMArcCoefficients0
	DD	0be5bbfcar			; -0.214599
	DD	03db63a9er			; 0.088979
	DD	0bd4d8392r			; -0.0501743
CONST	ENDS
;	COMDAT _GUID_WICPixelFormat64bpp3ChannelsAlpha
CONST	SEGMENT
_GUID_WICPixelFormat64bpp3ChannelsAlpha DD 06fddc324H
	DW	04e03H
	DW	04bfeH
	DB	0b1H
	DB	085H
	DB	03dH
	DB	077H
	DB	076H
	DB	08dH
	DB	0c9H
	DB	034H
CONST	ENDS
;	COMDAT ?g_XMTanCoefficients2@DirectX@@3UXMVECTORF32@1@B
CONST	SEGMENT
?g_XMTanCoefficients2@DirectX@@3UXMVECTORF32@1@B DD 03a1aac12r ; 0.000590027 ; DirectX::g_XMTanCoefficients2
	DD	0397abeb9r			; 0.000239129
	DD	038cb3f0cr			; 9.69154e-005
	DD	03824bec9r			; 3.92783e-005
CONST	ENDS
;	COMDAT ?g_XMTanCoefficients1@DirectX@@3UXMVECTORF32@1@B
CONST	SEGMENT
?g_XMTanCoefficients1@DirectX@@3UXMVECTORF32@1@B DD 03cb327a4r ; 0.0218695 ; DirectX::g_XMTanCoefficients1
	DD	03c11371br			; 0.00886324
	DD	03b6b69e9r			; 0.00359213
	DD	03abed1b3r			; 0.00145583
CONST	ENDS
;	COMDAT _GUID_WICPixelFormat72bpp8ChannelsAlpha
CONST	SEGMENT
_GUID_WICPixelFormat72bpp8ChannelsAlpha DD 06fddc324H
	DW	04e03H
	DW	04bfeH
	DB	0b1H
	DB	085H
	DB	03dH
	DB	077H
	DB	076H
	DB	08dH
	DB	0c9H
	DB	033H
CONST	ENDS
;	COMDAT _GUID_WICPixelFormat64bpp7ChannelsAlpha
CONST	SEGMENT
_GUID_WICPixelFormat64bpp7ChannelsAlpha DD 06fddc324H
	DW	04e03H
	DW	04bfeH
	DB	0b1H
	DB	085H
	DB	03dH
	DB	077H
	DB	076H
	DB	08dH
	DB	0c9H
	DB	032H
CONST	ENDS
;	COMDAT ?g_XMTanCoefficients0@DirectX@@3UXMVECTORF32@1@B
CONST	SEGMENT
?g_XMTanCoefficients0@DirectX@@3UXMVECTORF32@1@B DD 03f800000r ; 1 ; DirectX::g_XMTanCoefficients0
	DD	03eaaaaabr			; 0.333333
	DD	03e088889r			; 0.133333
	DD	03d5d0dd1r			; 0.0539683
CONST	ENDS
;	COMDAT _GUID_WICPixelFormat56bpp6ChannelsAlpha
CONST	SEGMENT
_GUID_WICPixelFormat56bpp6ChannelsAlpha DD 06fddc324H
	DW	04e03H
	DW	04bfeH
	DB	0b1H
	DB	085H
	DB	03dH
	DB	077H
	DB	076H
	DB	08dH
	DB	0c9H
	DB	031H
CONST	ENDS
;	COMDAT ?g_XMCosCoefficients1@DirectX@@3UXMVECTORF32@1@B
CONST	SEGMENT
?g_XMCosCoefficients1@DirectX@@3UXMVECTORF32@1@B DD 0b48bdd11r ; -2.60516e-007 ; DirectX::g_XMCosCoefficients1
	DD	0befff67er			; -0.499927
	DD	03d29f587r			; 0.0414939
	DD	0baa69fdbr			; -0.00127124
CONST	ENDS
;	COMDAT _GUID_WICPixelFormat48bpp5ChannelsAlpha
CONST	SEGMENT
_GUID_WICPixelFormat48bpp5ChannelsAlpha DD 06fddc324H
	DW	04e03H
	DW	04bfeH
	DB	0b1H
	DB	085H
	DB	03dH
	DB	077H
	DB	076H
	DB	08dH
	DB	0c9H
	DB	030H
CONST	ENDS
;	COMDAT ?g_XMCosCoefficients0@DirectX@@3UXMVECTORF32@1@B
CONST	SEGMENT
?g_XMCosCoefficients0@DirectX@@3UXMVECTORF32@1@B DD 0bf000000r ; -0.5 ; DirectX::g_XMCosCoefficients0
	DD	03d2aaaa3r			; 0.0416666
	DD	0bab609aar			; -0.00138884
	DD	037cfb4c2r			; 2.47605e-005
CONST	ENDS
;	COMDAT _GUID_WICPixelFormat40bpp4ChannelsAlpha
CONST	SEGMENT
_GUID_WICPixelFormat40bpp4ChannelsAlpha DD 06fddc324H
	DW	04e03H
	DW	04bfeH
	DB	0b1H
	DB	085H
	DB	03dH
	DB	077H
	DB	076H
	DB	08dH
	DB	0c9H
	DB	02fH
CONST	ENDS
;	COMDAT ?g_XMSinCoefficients1@DirectX@@3UXMVECTORF32@1@B
CONST	SEGMENT
?g_XMSinCoefficients1@DirectX@@3UXMVECTORF32@1@B DD 0b2cd365br ; -2.38899e-008 ; DirectX::g_XMSinCoefficients1
	DD	0be2aa888r			; -0.166659
	DD	03c08373cr			; 0.00831395
	DD	0b9423ec8r			; -0.000185247
CONST	ENDS
;	COMDAT _GUID_WICPixelFormat32bpp3ChannelsAlpha
CONST	SEGMENT
_GUID_WICPixelFormat32bpp3ChannelsAlpha DD 06fddc324H
	DW	04e03H
	DW	04bfeH
	DB	0b1H
	DB	085H
	DB	03dH
	DB	077H
	DB	076H
	DB	08dH
	DB	0c9H
	DB	02eH
CONST	ENDS
;	COMDAT ?g_XMSinCoefficients0@DirectX@@3UXMVECTORF32@1@B
CONST	SEGMENT
?g_XMSinCoefficients0@DirectX@@3UXMVECTORF32@1@B DD 0be2aaaabr ; -0.166667 ; DirectX::g_XMSinCoefficients0
	DD	03c088886r			; 0.00833333
	DD	0b9500bf1r			; -0.000198409
	DD	03638b88er			; 2.75256e-006
CONST	ENDS
;	COMDAT _GUID_WICPixelFormat80bppCMYKAlpha
CONST	SEGMENT
_GUID_WICPixelFormat80bppCMYKAlpha DD 06fddc324H
	DW	04e03H
	DW	04bfeH
	DB	0b1H
	DB	085H
	DB	03dH
	DB	077H
	DB	076H
	DB	08dH
	DB	0c9H
	DB	02dH
CONST	ENDS
;	COMDAT _GUID_WICPixelFormat40bppCMYKAlpha
CONST	SEGMENT
_GUID_WICPixelFormat40bppCMYKAlpha DD 06fddc324H
	DW	04e03H
	DW	04bfeH
	DB	0b1H
	DB	085H
	DB	03dH
	DB	077H
	DB	076H
	DB	08dH
	DB	0c9H
	DB	02cH
CONST	ENDS
;	COMDAT _GUID_WICPixelFormat128bpp8Channels
CONST	SEGMENT
_GUID_WICPixelFormat128bpp8Channels DD 06fddc324H
	DW	04e03H
	DW	04bfeH
	DB	0b1H
	DB	085H
	DB	03dH
	DB	077H
	DB	076H
	DB	08dH
	DB	0c9H
	DB	02bH
CONST	ENDS
;	COMDAT _GUID_WICPixelFormat112bpp7Channels
CONST	SEGMENT
_GUID_WICPixelFormat112bpp7Channels DD 06fddc324H
	DW	04e03H
	DW	04bfeH
	DB	0b1H
	DB	085H
	DB	03dH
	DB	077H
	DB	076H
	DB	08dH
	DB	0c9H
	DB	02aH
CONST	ENDS
;	COMDAT _GUID_WICPixelFormat96bpp6Channels
CONST	SEGMENT
_GUID_WICPixelFormat96bpp6Channels DD 06fddc324H
	DW	04e03H
	DW	04bfeH
	DB	0b1H
	DB	085H
	DB	03dH
	DB	077H
	DB	076H
	DB	08dH
	DB	0c9H
	DB	029H
CONST	ENDS
;	COMDAT _GUID_WICPixelFormat80bpp5Channels
CONST	SEGMENT
_GUID_WICPixelFormat80bpp5Channels DD 06fddc324H
	DW	04e03H
	DW	04bfeH
	DB	0b1H
	DB	085H
	DB	03dH
	DB	077H
	DB	076H
	DB	08dH
	DB	0c9H
	DB	028H
CONST	ENDS
;	COMDAT _GUID_WICPixelFormat64bpp4Channels
CONST	SEGMENT
_GUID_WICPixelFormat64bpp4Channels DD 06fddc324H
	DW	04e03H
	DW	04bfeH
	DB	0b1H
	DB	085H
	DB	03dH
	DB	077H
	DB	076H
	DB	08dH
	DB	0c9H
	DB	027H
CONST	ENDS
;	COMDAT ?_D2@?$_Ratio_divide@U?$ratio@$00$0JIJGIA@@std@@U12@@std@@2_JB
CONST	SEGMENT
?_D2@?$_Ratio_divide@U?$ratio@$00$0JIJGIA@@std@@U12@@std@@2_JB DQ 0000000000989680H ; std::_Ratio_divide<std::ratio<1,10000000>,std::ratio<1,10000000> >::_D2
CONST	ENDS
;	COMDAT _GUID_WICPixelFormat48bpp3Channels
CONST	SEGMENT
_GUID_WICPixelFormat48bpp3Channels DD 06fddc324H
	DW	04e03H
	DW	04bfeH
	DB	0b1H
	DB	085H
	DB	03dH
	DB	077H
	DB	076H
	DB	08dH
	DB	0c9H
	DB	026H
CONST	ENDS
;	COMDAT _GUID_WICPixelFormat64bpp8Channels
CONST	SEGMENT
_GUID_WICPixelFormat64bpp8Channels DD 06fddc324H
	DW	04e03H
	DW	04bfeH
	DB	0b1H
	DB	085H
	DB	03dH
	DB	077H
	DB	076H
	DB	08dH
	DB	0c9H
	DB	025H
CONST	ENDS
;	COMDAT ?_N2@?$_Ratio_divide@U?$ratio@$00$0JIJGIA@@std@@U12@@std@@2_JB
CONST	SEGMENT
?_N2@?$_Ratio_divide@U?$ratio@$00$0JIJGIA@@std@@U12@@std@@2_JB DQ 0000000000000001H ; std::_Ratio_divide<std::ratio<1,10000000>,std::ratio<1,10000000> >::_N2
CONST	ENDS
;	COMDAT _GUID_WICPixelFormat56bpp7Channels
CONST	SEGMENT
_GUID_WICPixelFormat56bpp7Channels DD 06fddc324H
	DW	04e03H
	DW	04bfeH
	DB	0b1H
	DB	085H
	DB	03dH
	DB	077H
	DB	076H
	DB	08dH
	DB	0c9H
	DB	024H
CONST	ENDS
;	COMDAT _GUID_WICPixelFormat48bpp6Channels
CONST	SEGMENT
_GUID_WICPixelFormat48bpp6Channels DD 06fddc324H
	DW	04e03H
	DW	04bfeH
	DB	0b1H
	DB	085H
	DB	03dH
	DB	077H
	DB	076H
	DB	08dH
	DB	0c9H
	DB	023H
CONST	ENDS
;	COMDAT _GUID_WICPixelFormat40bpp5Channels
CONST	SEGMENT
_GUID_WICPixelFormat40bpp5Channels DD 06fddc324H
	DW	04e03H
	DW	04bfeH
	DB	0b1H
	DB	085H
	DB	03dH
	DB	077H
	DB	076H
	DB	08dH
	DB	0c9H
	DB	022H
CONST	ENDS
;	COMDAT _GUID_WICPixelFormat32bpp4Channels
CONST	SEGMENT
_GUID_WICPixelFormat32bpp4Channels DD 06fddc324H
	DW	04e03H
	DW	04bfeH
	DB	0b1H
	DB	085H
	DB	03dH
	DB	077H
	DB	076H
	DB	08dH
	DB	0c9H
	DB	021H
CONST	ENDS
;	COMDAT _GUID_WICPixelFormat24bpp3Channels
CONST	SEGMENT
_GUID_WICPixelFormat24bpp3Channels DD 06fddc324H
	DW	04e03H
	DW	04bfeH
	DB	0b1H
	DB	085H
	DB	03dH
	DB	077H
	DB	076H
	DB	08dH
	DB	0c9H
	DB	020H
CONST	ENDS
;	COMDAT _GUID_WICPixelFormat64bppCMYK
CONST	SEGMENT
_GUID_WICPixelFormat64bppCMYK DD 06fddc324H
	DW	04e03H
	DW	04bfeH
	DB	0b1H
	DB	085H
	DB	03dH
	DB	077H
	DB	076H
	DB	08dH
	DB	0c9H
	DB	01fH
CONST	ENDS
;	COMDAT _GUID_WICPixelFormat32bppRGBA1010102XR
CONST	SEGMENT
_GUID_WICPixelFormat32bppRGBA1010102XR DD 0de6b9aH
	DW	0c101H
	DW	0434bH
	DB	0b5H
	DB	02H
	DB	0d0H
	DB	016H
	DB	05eH
	DB	0e1H
	DB	012H
	DB	02cH
CONST	ENDS
;	COMDAT _GUID_WICPixelFormat32bppRGBA1010102
CONST	SEGMENT
_GUID_WICPixelFormat32bppRGBA1010102 DD 025238d72H
	DW	0fcf9H
	DW	04522H
	DB	0b5H
	DB	014H
	DB	055H
	DB	078H
	DB	0e5H
	DB	0adH
	DB	055H
	DB	0e0H
CONST	ENDS
;	COMDAT _GUID_WICPixelFormat32bppGrayFixedPoint
CONST	SEGMENT
_GUID_WICPixelFormat32bppGrayFixedPoint DD 06fddc324H
	DW	04e03H
	DW	04bfeH
	DB	0b1H
	DB	085H
	DB	03dH
	DB	077H
	DB	076H
	DB	08dH
	DB	0c9H
	DB	03fH
CONST	ENDS
;	COMDAT ?den@?$ratio@$00$0JIJGIA@@std@@2_JB
CONST	SEGMENT
?den@?$ratio@$00$0JIJGIA@@std@@2_JB DQ 0000000000989680H ; std::ratio<1,10000000>::den
CONST	ENDS
;	COMDAT _GUID_WICPixelFormat16bppGrayHalf
CONST	SEGMENT
_GUID_WICPixelFormat16bppGrayHalf DD 06fddc324H
	DW	04e03H
	DW	04bfeH
	DB	0b1H
	DB	085H
	DB	03dH
	DB	077H
	DB	076H
	DB	08dH
	DB	0c9H
	DB	03eH
CONST	ENDS
;	COMDAT _GUID_WICPixelFormat32bppRGBE
CONST	SEGMENT
_GUID_WICPixelFormat32bppRGBE DD 06fddc324H
	DW	04e03H
	DW	04bfeH
	DB	0b1H
	DB	085H
	DB	03dH
	DB	077H
	DB	076H
	DB	08dH
	DB	0c9H
	DB	03dH
CONST	ENDS
;	COMDAT ?num@?$ratio@$00$0JIJGIA@@std@@2_JB
CONST	SEGMENT
?num@?$ratio@$00$0JIJGIA@@std@@2_JB DQ 0000000000000001H ; std::ratio<1,10000000>::num
CONST	ENDS
;	COMDAT _GUID_WICPixelFormat48bppRGBHalf
CONST	SEGMENT
_GUID_WICPixelFormat48bppRGBHalf DD 06fddc324H
	DW	04e03H
	DW	04bfeH
	DB	0b1H
	DB	085H
	DB	03dH
	DB	077H
	DB	076H
	DB	08dH
	DB	0c9H
	DB	03bH
CONST	ENDS
;	COMDAT _GUID_WICPixelFormat64bppRGBHalf
CONST	SEGMENT
_GUID_WICPixelFormat64bppRGBHalf DD 06fddc324H
	DW	04e03H
	DW	04bfeH
	DB	0b1H
	DB	085H
	DB	03dH
	DB	077H
	DB	076H
	DB	08dH
	DB	0c9H
	DB	042H
CONST	ENDS
;	COMDAT _GUID_WICPixelFormat64bppRGBAHalf
CONST	SEGMENT
_GUID_WICPixelFormat64bppRGBAHalf DD 06fddc324H
	DW	04e03H
	DW	04bfeH
	DB	0b1H
	DB	085H
	DB	03dH
	DB	077H
	DB	076H
	DB	08dH
	DB	0c9H
	DB	03aH
CONST	ENDS
;	COMDAT _GUID_WICPixelFormat128bppRGBFixedPoint
CONST	SEGMENT
_GUID_WICPixelFormat128bppRGBFixedPoint DD 06fddc324H
	DW	04e03H
	DW	04bfeH
	DB	0b1H
	DB	085H
	DB	03dH
	DB	077H
	DB	076H
	DB	08dH
	DB	0c9H
	DB	041H
CONST	ENDS
;	COMDAT _GUID_WICPixelFormat128bppRGBAFixedPoint
CONST	SEGMENT
_GUID_WICPixelFormat128bppRGBAFixedPoint DD 06fddc324H
	DW	04e03H
	DW	04bfeH
	DB	0b1H
	DB	085H
	DB	03dH
	DB	077H
	DB	076H
	DB	08dH
	DB	0c9H
	DB	01eH
CONST	ENDS
;	COMDAT _GUID_WICPixelFormat64bppRGBFixedPoint
CONST	SEGMENT
_GUID_WICPixelFormat64bppRGBFixedPoint DD 06fddc324H
	DW	04e03H
	DW	04bfeH
	DB	0b1H
	DB	085H
	DB	03dH
	DB	077H
	DB	076H
	DB	08dH
	DB	0c9H
	DB	040H
CONST	ENDS
;	COMDAT _GUID_WICPixelFormat64bppBGRAFixedPoint
CONST	SEGMENT
_GUID_WICPixelFormat64bppBGRAFixedPoint DD 0356de33cH
	DW	054d2H
	DW	04a23H
	DB	0bbH
	DB	04H
	DB	09bH
	DB	07bH
	DB	0f9H
	DB	0b1H
	DB	0d4H
	DB	02dH
CONST	ENDS
;	COMDAT _GUID_WICPixelFormat64bppRGBAFixedPoint
CONST	SEGMENT
_GUID_WICPixelFormat64bppRGBAFixedPoint DD 06fddc324H
	DW	04e03H
	DW	04bfeH
	DB	0b1H
	DB	085H
	DB	03dH
	DB	077H
	DB	076H
	DB	08dH
	DB	0c9H
	DB	01dH
CONST	ENDS
;	COMDAT ?value@?$_Gcd@$00$0JIJGIA@@std@@2_JB
CONST	SEGMENT
?value@?$_Gcd@$00$0JIJGIA@@std@@2_JB DQ 0000000000000001H ; std::_Gcd<1,10000000>::value
CONST	ENDS
;	COMDAT _GUID_WICPixelFormat32bppCMYK
CONST	SEGMENT
_GUID_WICPixelFormat32bppCMYK DD 06fddc324H
	DW	04e03H
	DW	04bfeH
	DB	0b1H
	DB	085H
	DB	03dH
	DB	077H
	DB	076H
	DB	08dH
	DB	0c9H
	DB	01cH
CONST	ENDS
;	COMDAT _GUID_WICPixelFormat128bppRGBFloat
CONST	SEGMENT
_GUID_WICPixelFormat128bppRGBFloat DD 06fddc324H
	DW	04e03H
	DW	04bfeH
	DB	0b1H
	DB	085H
	DB	03dH
	DB	077H
	DB	076H
	DB	08dH
	DB	0c9H
	DB	01bH
CONST	ENDS
;	COMDAT _GUID_WICPixelFormat128bppPRGBAFloat
CONST	SEGMENT
_GUID_WICPixelFormat128bppPRGBAFloat DD 06fddc324H
	DW	04e03H
	DW	04bfeH
	DB	0b1H
	DB	085H
	DB	03dH
	DB	077H
	DB	076H
	DB	08dH
	DB	0c9H
	DB	01aH
CONST	ENDS
;	COMDAT _GUID_WICPixelFormat128bppRGBAFloat
CONST	SEGMENT
_GUID_WICPixelFormat128bppRGBAFloat DD 06fddc324H
	DW	04e03H
	DW	04bfeH
	DB	0b1H
	DB	085H
	DB	03dH
	DB	077H
	DB	076H
	DB	08dH
	DB	0c9H
	DB	019H
CONST	ENDS
;	COMDAT _GUID_WICPixelFormat96bppRGBFixedPoint
CONST	SEGMENT
_GUID_WICPixelFormat96bppRGBFixedPoint DD 06fddc324H
	DW	04e03H
	DW	04bfeH
	DB	0b1H
	DB	085H
	DB	03dH
	DB	077H
	DB	076H
	DB	08dH
	DB	0c9H
	DB	018H
CONST	ENDS
;	COMDAT _GUID_WICPixelFormat48bppBGRFixedPoint
CONST	SEGMENT
_GUID_WICPixelFormat48bppBGRFixedPoint DD 049ca140eH
	DW	0cab6H
	DW	0493bH
	DB	09dH
	DB	0dfH
	DB	060H
	DB	018H
	DB	07cH
	DB	037H
	DB	053H
	DB	02aH
CONST	ENDS
;	COMDAT _GUID_WICPixelFormat48bppRGBFixedPoint
CONST	SEGMENT
_GUID_WICPixelFormat48bppRGBFixedPoint DD 06fddc324H
	DW	04e03H
	DW	04bfeH
	DB	0b1H
	DB	085H
	DB	03dH
	DB	077H
	DB	076H
	DB	08dH
	DB	0c9H
	DB	012H
CONST	ENDS
;	COMDAT _GUID_WICPixelFormat32bppBGR101010
CONST	SEGMENT
_GUID_WICPixelFormat32bppBGR101010 DD 06fddc324H
	DW	04e03H
	DW	04bfeH
	DB	0b1H
	DB	085H
	DB	03dH
	DB	077H
	DB	076H
	DB	08dH
	DB	0c9H
	DB	014H
CONST	ENDS
;	COMDAT ?value@?$_GcdX@$00$0JIJGIA@@std@@2_JB
CONST	SEGMENT
?value@?$_GcdX@$00$0JIJGIA@@std@@2_JB DQ 0000000000000001H ; std::_GcdX<1,10000000>::value
CONST	ENDS
;	COMDAT _GUID_WICPixelFormat16bppGrayFixedPoint
CONST	SEGMENT
_GUID_WICPixelFormat16bppGrayFixedPoint DD 06fddc324H
	DW	04e03H
	DW	04bfeH
	DB	0b1H
	DB	085H
	DB	03dH
	DB	077H
	DB	076H
	DB	08dH
	DB	0c9H
	DB	013H
CONST	ENDS
;	COMDAT _GUID_WICPixelFormat64bppPBGRA
CONST	SEGMENT
_GUID_WICPixelFormat64bppPBGRA DD 08c518e8eH
	DW	0a4ecH
	DW	0468bH
	DB	0aeH
	DB	070H
	DB	0c9H
	DB	0a3H
	DB	05aH
	DB	09cH
	DB	055H
	DB	030H
CONST	ENDS
;	COMDAT _GUID_WICPixelFormat64bppPRGBA
CONST	SEGMENT
_GUID_WICPixelFormat64bppPRGBA DD 06fddc324H
	DW	04e03H
	DW	04bfeH
	DB	0b1H
	DB	085H
	DB	03dH
	DB	077H
	DB	076H
	DB	08dH
	DB	0c9H
	DB	017H
CONST	ENDS
;	COMDAT _GUID_WICPixelFormat64bppBGRA
CONST	SEGMENT
_GUID_WICPixelFormat64bppBGRA DD 01562ff7cH
	DW	0d352H
	DW	046f9H
	DB	097H
	DB	09eH
	DB	042H
	DB	097H
	DB	06bH
	DB	079H
	DB	022H
	DB	046H
CONST	ENDS
;	COMDAT _GUID_WICPixelFormat64bppRGBA
CONST	SEGMENT
_GUID_WICPixelFormat64bppRGBA DD 06fddc324H
	DW	04e03H
	DW	04bfeH
	DB	0b1H
	DB	085H
	DB	03dH
	DB	077H
	DB	076H
	DB	08dH
	DB	0c9H
	DB	016H
CONST	ENDS
;	COMDAT _GUID_WICPixelFormat48bppBGR
CONST	SEGMENT
_GUID_WICPixelFormat48bppBGR DD 0e605a384H
	DW	0b468H
	DW	046ceH
	DB	0bbH
	DB	02eH
	DB	036H
	DB	0f1H
	DB	080H
	DB	0e6H
	DB	043H
	DB	013H
CONST	ENDS
;	COMDAT _GUID_WICPixelFormat48bppRGB
CONST	SEGMENT
_GUID_WICPixelFormat48bppRGB DD 06fddc324H
	DW	04e03H
	DW	04bfeH
	DB	0b1H
	DB	085H
	DB	03dH
	DB	077H
	DB	076H
	DB	08dH
	DB	0c9H
	DB	015H
CONST	ENDS
;	COMDAT _GUID_WICPixelFormat32bppPRGBA
CONST	SEGMENT
_GUID_WICPixelFormat32bppPRGBA DD 03cc4a650H
	DW	0a527H
	DW	04d37H
	DB	0a9H
	DB	016H
	DB	031H
	DB	042H
	DB	0c7H
	DB	0ebH
	DB	0edH
	DB	0baH
CONST	ENDS
;	COMDAT ?value@?$_GcdX@$0JIJGIA@$00@std@@2_JB
CONST	SEGMENT
?value@?$_GcdX@$0JIJGIA@$00@std@@2_JB DQ 0000000000000001H ; std::_GcdX<10000000,1>::value
CONST	ENDS
;	COMDAT _GUID_WICPixelFormat32bppRGBA
CONST	SEGMENT
_GUID_WICPixelFormat32bppRGBA DD 0f5c7ad2dH
	DW	06a8dH
	DW	043ddH
	DB	0a7H
	DB	0a8H
	DB	0a2H
	DB	099H
	DB	035H
	DB	026H
	DB	01aH
	DB	0e9H
CONST	ENDS
;	COMDAT _GUID_WICPixelFormat32bppGrayFloat
CONST	SEGMENT
_GUID_WICPixelFormat32bppGrayFloat DD 06fddc324H
	DW	04e03H
	DW	04bfeH
	DB	0b1H
	DB	085H
	DB	03dH
	DB	077H
	DB	076H
	DB	08dH
	DB	0c9H
	DB	011H
CONST	ENDS
;	COMDAT _GUID_WICPixelFormat32bppPBGRA
CONST	SEGMENT
_GUID_WICPixelFormat32bppPBGRA DD 06fddc324H
	DW	04e03H
	DW	04bfeH
	DB	0b1H
	DB	085H
	DB	03dH
	DB	077H
	DB	076H
	DB	08dH
	DB	0c9H
	DB	010H
CONST	ENDS
;	COMDAT _GUID_WICPixelFormat32bppBGRA
CONST	SEGMENT
_GUID_WICPixelFormat32bppBGRA DD 06fddc324H
	DW	04e03H
	DW	04bfeH
	DB	0b1H
	DB	085H
	DB	03dH
	DB	077H
	DB	076H
	DB	08dH
	DB	0c9H
	DB	0fH
CONST	ENDS
;	COMDAT _GUID_WICPixelFormat32bppBGR
CONST	SEGMENT
_GUID_WICPixelFormat32bppBGR DD 06fddc324H
	DW	04e03H
	DW	04bfeH
	DB	0b1H
	DB	085H
	DB	03dH
	DB	077H
	DB	076H
	DB	08dH
	DB	0c9H
	DB	0eH
CONST	ENDS
;	COMDAT _GUID_WICPixelFormat24bppRGB
CONST	SEGMENT
_GUID_WICPixelFormat24bppRGB DD 06fddc324H
	DW	04e03H
	DW	04bfeH
	DB	0b1H
	DB	085H
	DB	03dH
	DB	077H
	DB	076H
	DB	08dH
	DB	0c9H
	DB	0dH
CONST	ENDS
;	COMDAT _GUID_WICPixelFormat24bppBGR
CONST	SEGMENT
_GUID_WICPixelFormat24bppBGR DD 06fddc324H
	DW	04e03H
	DW	04bfeH
	DB	0b1H
	DB	085H
	DB	03dH
	DB	077H
	DB	076H
	DB	08dH
	DB	0c9H
	DB	0cH
CONST	ENDS
;	COMDAT _GUID_WICPixelFormat16bppGray
CONST	SEGMENT
_GUID_WICPixelFormat16bppGray DD 06fddc324H
	DW	04e03H
	DW	04bfeH
	DB	0b1H
	DB	085H
	DB	03dH
	DB	077H
	DB	076H
	DB	08dH
	DB	0c9H
	DB	0bH
CONST	ENDS
;	COMDAT _GUID_WICPixelFormat16bppBGRA5551
CONST	SEGMENT
_GUID_WICPixelFormat16bppBGRA5551 DD 05ec7c2bH
	DW	0f1e6H
	DW	04961H
	DB	0adH
	DB	046H
	DB	0e1H
	DB	0ccH
	DB	081H
	DB	0aH
	DB	087H
	DB	0d2H
CONST	ENDS
;	COMDAT _GUID_WICPixelFormat16bppBGR565
CONST	SEGMENT
_GUID_WICPixelFormat16bppBGR565 DD 06fddc324H
	DW	04e03H
	DW	04bfeH
	DB	0b1H
	DB	085H
	DB	03dH
	DB	077H
	DB	076H
	DB	08dH
	DB	0c9H
	DB	0aH
CONST	ENDS
;	COMDAT _GUID_WICPixelFormat16bppBGR555
CONST	SEGMENT
_GUID_WICPixelFormat16bppBGR555 DD 06fddc324H
	DW	04e03H
	DW	04bfeH
	DB	0b1H
	DB	085H
	DB	03dH
	DB	077H
	DB	076H
	DB	08dH
	DB	0c9H
	DB	09H
CONST	ENDS
;	COMDAT _GUID_WICPixelFormat8bppAlpha
CONST	SEGMENT
_GUID_WICPixelFormat8bppAlpha DD 0e6cd0116H
	DW	0eebaH
	DW	04161H
	DB	0aaH
	DB	085H
	DB	027H
	DB	0ddH
	DB	09fH
	DB	0b3H
	DB	0a8H
	DB	095H
CONST	ENDS
;	COMDAT _GUID_WICPixelFormat8bppGray
CONST	SEGMENT
_GUID_WICPixelFormat8bppGray DD 06fddc324H
	DW	04e03H
	DW	04bfeH
	DB	0b1H
	DB	085H
	DB	03dH
	DB	077H
	DB	076H
	DB	08dH
	DB	0c9H
	DB	08H
CONST	ENDS
;	COMDAT _GUID_WICPixelFormat4bppGray
CONST	SEGMENT
_GUID_WICPixelFormat4bppGray DD 06fddc324H
	DW	04e03H
	DW	04bfeH
	DB	0b1H
	DB	085H
	DB	03dH
	DB	077H
	DB	076H
	DB	08dH
	DB	0c9H
	DB	07H
CONST	ENDS
;	COMDAT _GUID_WICPixelFormat2bppGray
CONST	SEGMENT
_GUID_WICPixelFormat2bppGray DD 06fddc324H
	DW	04e03H
	DW	04bfeH
	DB	0b1H
	DB	085H
	DB	03dH
	DB	077H
	DB	076H
	DB	08dH
	DB	0c9H
	DB	06H
CONST	ENDS
;	COMDAT _GUID_WICPixelFormatBlackWhite
CONST	SEGMENT
_GUID_WICPixelFormatBlackWhite DD 06fddc324H
	DW	04e03H
	DW	04bfeH
	DB	0b1H
	DB	085H
	DB	03dH
	DB	077H
	DB	076H
	DB	08dH
	DB	0c9H
	DB	05H
CONST	ENDS
;	COMDAT _GUID_WICPixelFormat8bppIndexed
CONST	SEGMENT
_GUID_WICPixelFormat8bppIndexed DD 06fddc324H
	DW	04e03H
	DW	04bfeH
	DB	0b1H
	DB	085H
	DB	03dH
	DB	077H
	DB	076H
	DB	08dH
	DB	0c9H
	DB	04H
CONST	ENDS
;	COMDAT ?value@?$_Sign_of@$0JIJGIA@@std@@2_JB
CONST	SEGMENT
?value@?$_Sign_of@$0JIJGIA@@std@@2_JB DQ 0000000000000001H ; std::_Sign_of<10000000>::value
CONST	ENDS
;	COMDAT _GUID_WICPixelFormat4bppIndexed
CONST	SEGMENT
_GUID_WICPixelFormat4bppIndexed DD 06fddc324H
	DW	04e03H
	DW	04bfeH
	DB	0b1H
	DB	085H
	DB	03dH
	DB	077H
	DB	076H
	DB	08dH
	DB	0c9H
	DB	03H
CONST	ENDS
;	COMDAT _GUID_WICPixelFormat2bppIndexed
CONST	SEGMENT
_GUID_WICPixelFormat2bppIndexed DD 06fddc324H
	DW	04e03H
	DW	04bfeH
	DB	0b1H
	DB	085H
	DB	03dH
	DB	077H
	DB	076H
	DB	08dH
	DB	0c9H
	DB	02H
CONST	ENDS
;	COMDAT _GUID_WICPixelFormat1bppIndexed
CONST	SEGMENT
_GUID_WICPixelFormat1bppIndexed DD 06fddc324H
	DW	04e03H
	DW	04bfeH
	DB	0b1H
	DB	085H
	DB	03dH
	DB	077H
	DB	076H
	DB	08dH
	DB	0c9H
	DB	01H
CONST	ENDS
;	COMDAT _GUID_WICPixelFormatDontCare
CONST	SEGMENT
_GUID_WICPixelFormatDontCare DD 06fddc324H
	DW	04e03H
	DW	04bfeH
	DB	0b1H
	DB	085H
	DB	03dH
	DB	077H
	DB	076H
	DB	08dH
	DB	0c9H
	DB	00H
CONST	ENDS
;	COMDAT ?min_exponent10@?$numeric_limits@O@std@@2HB
CONST	SEGMENT
?min_exponent10@?$numeric_limits@O@std@@2HB DD 0fffffecdH ; std::numeric_limits<long double>::min_exponent10
CONST	ENDS
;	COMDAT _CLSID_WICPlanarFormatConverter
CONST	SEGMENT
_CLSID_WICPlanarFormatConverter DD 0184132b8H
	DW	032f8H
	DW	04784H
	DB	091H
	DB	031H
	DB	0ddH
	DB	072H
	DB	024H
	DB	0b2H
	DB	034H
	DB	038H
CONST	ENDS
;	COMDAT ?min_exponent@?$numeric_limits@O@std@@2HB
CONST	SEGMENT
?min_exponent@?$numeric_limits@O@std@@2HB DD 0fffffc03H	; std::numeric_limits<long double>::min_exponent
CONST	ENDS
;	COMDAT _CLSID_WICFormatConverterWMPhoto
CONST	SEGMENT
_CLSID_WICFormatConverterWMPhoto DD 09cb5172bH
	DW	0d600H
	DW	046baH
	DB	0abH
	DB	077H
	DB	077H
	DB	0bbH
	DB	07eH
	DB	03aH
	DB	00H
	DB	0d9H
CONST	ENDS
;	COMDAT _CLSID_WICFormatConverterNChannel
CONST	SEGMENT
_CLSID_WICFormatConverterNChannel DD 0c17cabb2H
	DW	0d4a3H
	DW	047d7H
	DB	0a5H
	DB	057H
	DB	033H
	DB	09bH
	DB	02eH
	DB	0fbH
	DB	0d4H
	DB	0f1H
CONST	ENDS
;	COMDAT _CLSID_WICFormatConverterHighColor
CONST	SEGMENT
_CLSID_WICFormatConverterHighColor DD 0ac75d454H
	DW	09f37H
	DW	048f8H
	DB	0b9H
	DB	072H
	DB	04eH
	DB	019H
	DB	0bcH
	DB	085H
	DB	060H
	DB	011H
CONST	ENDS
;	COMDAT _CLSID_WICDefaultFormatConverter
CONST	SEGMENT
_CLSID_WICDefaultFormatConverter DD 01a3f11dcH
	DW	0b514H
	DW	04b17H
	DB	08cH
	DB	05fH
	DB	021H
	DB	054H
	DB	051H
	DB	038H
	DB	052H
	DB	0f1H
CONST	ENDS
;	COMDAT ?max_exponent10@?$numeric_limits@O@std@@2HB
CONST	SEGMENT
?max_exponent10@?$numeric_limits@O@std@@2HB DD 0134H	; std::numeric_limits<long double>::max_exponent10
CONST	ENDS
;	COMDAT _CATID_WICMetadataWriter
CONST	SEGMENT
_CATID_WICMetadataWriter DD 0abe3b9a4H
	DW	0257dH
	DW	04b97H
	DB	0bdH
	DB	01aH
	DB	029H
	DB	04aH
	DB	0f4H
	DB	096H
	DB	022H
	DB	02eH
CONST	ENDS
;	COMDAT _CATID_WICMetadataReader
CONST	SEGMENT
_CATID_WICMetadataReader DD 05af94d8H
	DW	07174H
	DW	04cd2H
	DB	0beH
	DB	04aH
	DB	041H
	DB	024H
	DB	0b8H
	DB	0eH
	DB	0e4H
	DB	0b8H
CONST	ENDS
;	COMDAT _CATID_WICFormatConverters
CONST	SEGMENT
_CATID_WICFormatConverters DD 07835eae8H
	DW	0bf14H
	DW	049d1H
	DB	093H
	DB	0ceH
	DB	053H
	DB	03aH
	DB	040H
	DB	07bH
	DB	022H
	DB	048H
CONST	ENDS
;	COMDAT _CATID_WICPixelFormats
CONST	SEGMENT
_CATID_WICPixelFormats DD 02b46e70fH
	DW	0cda7H
	DW	0473eH
	DB	089H
	DB	0f6H
	DB	0dcH
	DB	096H
	DB	030H
	DB	0a2H
	DB	039H
	DB	0bH
CONST	ENDS
;	COMDAT ?max_exponent@?$numeric_limits@O@std@@2HB
CONST	SEGMENT
?max_exponent@?$numeric_limits@O@std@@2HB DD 0400H	; std::numeric_limits<long double>::max_exponent
CONST	ENDS
;	COMDAT _CATID_WICBitmapEncoders
CONST	SEGMENT
_CATID_WICBitmapEncoders DD 0ac757296H
	DW	03522H
	DW	04e11H
	DB	098H
	DB	062H
	DB	0c1H
	DB	07bH
	DB	0e5H
	DB	0a1H
	DB	076H
	DB	07eH
CONST	ENDS
;	COMDAT _CATID_WICBitmapDecoders
CONST	SEGMENT
_CATID_WICBitmapDecoders DD 07ed96837H
	DW	096f0H
	DW	04812H
	DB	0b2H
	DB	011H
	DB	0f1H
	DB	03cH
	DB	024H
	DB	011H
	DB	07eH
	DB	0d3H
CONST	ENDS
;	COMDAT _CLSID_WICImagingCategories
CONST	SEGMENT
_CLSID_WICImagingCategories DD 0fae3d380H
	DW	0fea4H
	DW	04623H
	DB	08cH
	DB	075H
	DB	0c6H
	DB	0b6H
	DB	011H
	DB	010H
	DB	0b6H
	DB	081H
CONST	ENDS
;	COMDAT _GUID_ContainerFormatDds
CONST	SEGMENT
_GUID_ContainerFormatDds DD 09967cb95H
	DW	02e85H
	DW	04ac8H
	DB	08cH
	DB	0a2H
	DB	083H
	DB	0d7H
	DB	0ccH
	DB	0d4H
	DB	025H
	DB	0c9H
CONST	ENDS
;	COMDAT ?max_digits10@?$numeric_limits@O@std@@2HB
CONST	SEGMENT
?max_digits10@?$numeric_limits@O@std@@2HB DD 011H	; std::numeric_limits<long double>::max_digits10
CONST	ENDS
;	COMDAT _GUID_ContainerFormatWmp
CONST	SEGMENT
_GUID_ContainerFormatWmp DD 057a37caaH
	DW	0367aH
	DW	04540H
	DB	091H
	DB	06bH
	DB	0f1H
	DB	083H
	DB	0c5H
	DB	09H
	DB	03aH
	DB	04bH
CONST	ENDS
;	COMDAT _GUID_ContainerFormatGif
CONST	SEGMENT
_GUID_ContainerFormatGif DD 01f8a5601H
	DW	07d4dH
	DW	04cbdH
	DB	09cH
	DB	082H
	DB	01bH
	DB	0c8H
	DB	0d4H
	DB	0eeH
	DB	0b9H
	DB	0a5H
CONST	ENDS
;	COMDAT _GUID_ContainerFormatTiff
CONST	SEGMENT
_GUID_ContainerFormatTiff DD 0163bcc30H
	DW	0e2e9H
	DW	04f0bH
	DB	096H
	DB	01dH
	DB	0a3H
	DB	0e9H
	DB	0fdH
	DB	0b7H
	DB	088H
	DB	0a3H
CONST	ENDS
;	COMDAT ?digits10@?$numeric_limits@O@std@@2HB
CONST	SEGMENT
?digits10@?$numeric_limits@O@std@@2HB DD 0fH		; std::numeric_limits<long double>::digits10
CONST	ENDS
;	COMDAT _GUID_ContainerFormatJpeg
CONST	SEGMENT
_GUID_ContainerFormatJpeg DD 019e4a5aaH
	DW	05662H
	DW	04fc5H
	DB	0a0H
	DB	0c0H
	DB	017H
	DB	058H
	DB	02H
	DB	08eH
	DB	010H
	DB	057H
CONST	ENDS
;	COMDAT _GUID_ContainerFormatIco
CONST	SEGMENT
_GUID_ContainerFormatIco DD 0a3a860c4H
	DW	0338fH
	DW	04c17H
	DB	091H
	DB	09aH
	DB	0fbH
	DB	0a4H
	DB	0b5H
	DB	062H
	DB	08fH
	DB	021H
CONST	ENDS
;	COMDAT _GUID_ContainerFormatPng
CONST	SEGMENT
_GUID_ContainerFormatPng DD 01b7cfaf4H
	DW	0713fH
	DW	0473cH
	DB	0bbH
	DB	0cdH
	DB	061H
	DB	037H
	DB	042H
	DB	05fH
	DB	0aeH
	DB	0afH
CONST	ENDS
;	COMDAT ?digits@?$numeric_limits@O@std@@2HB
CONST	SEGMENT
?digits@?$numeric_limits@O@std@@2HB DD 035H		; std::numeric_limits<long double>::digits
CONST	ENDS
;	COMDAT _GUID_ContainerFormatBmp
CONST	SEGMENT
_GUID_ContainerFormatBmp DD 0af1d87eH
	DW	0fcfeH
	DW	04188H
	DB	0bdH
	DB	0ebH
	DB	0a7H
	DB	090H
	DB	064H
	DB	071H
	DB	0cbH
	DB	0e3H
CONST	ENDS
;	COMDAT _CLSID_WICDdsEncoder
CONST	SEGMENT
_CLSID_WICDdsEncoder DD 0a61dde94H
	DW	066ceH
	DW	04ac1H
	DB	088H
	DB	01bH
	DB	071H
	DB	068H
	DB	05H
	DB	088H
	DB	089H
	DB	05eH
CONST	ENDS
;	COMDAT _CLSID_WICWmpEncoder
CONST	SEGMENT
_CLSID_WICWmpEncoder DD 0ac4ce3cbH
	DW	0e1c1H
	DW	044cdH
	DB	082H
	DB	015H
	DB	05aH
	DB	016H
	DB	065H
	DB	050H
	DB	09eH
	DB	0c2H
CONST	ENDS
;	COMDAT _CLSID_WICTiffEncoder
CONST	SEGMENT
_CLSID_WICTiffEncoder DD 0131be10H
	DW	02001H
	DW	04c5fH
	DB	0a9H
	DB	0b0H
	DB	0ccH
	DB	088H
	DB	0faH
	DB	0b6H
	DB	04cH
	DB	0e8H
CONST	ENDS
;	COMDAT _CLSID_WICGifEncoder
CONST	SEGMENT
_CLSID_WICGifEncoder DD 0114f5598H
	DW	0b22H
	DW	040a0H
	DB	086H
	DB	0a1H
	DB	0c8H
	DB	03eH
	DB	0a4H
	DB	095H
	DB	0adH
	DB	0bdH
CONST	ENDS
;	COMDAT _CLSID_WICJpegEncoder
CONST	SEGMENT
_CLSID_WICJpegEncoder DD 01a34f5c1H
	DW	04a5aH
	DW	046dcH
	DB	0b6H
	DB	044H
	DB	01fH
	DB	045H
	DB	067H
	DB	0e7H
	DB	0a6H
	DB	076H
CONST	ENDS
;	COMDAT _CLSID_WICPngEncoder
CONST	SEGMENT
_CLSID_WICPngEncoder DD 027949969H
	DW	0876aH
	DW	041d7H
	DB	094H
	DB	047H
	DB	056H
	DB	08fH
	DB	06aH
	DB	035H
	DB	0a4H
	DB	0dcH
CONST	ENDS
;	COMDAT _CLSID_WICBmpEncoder
CONST	SEGMENT
_CLSID_WICBmpEncoder DD 069be8bb4H
	DW	0d66dH
	DW	047c8H
	DB	086H
	DB	05aH
	DB	0edH
	DB	015H
	DB	089H
	DB	043H
	DB	037H
	DB	082H
CONST	ENDS
;	COMDAT _CLSID_WICDdsDecoder
CONST	SEGMENT
_CLSID_WICDdsDecoder DD 09053699fH
	DW	0a341H
	DW	0429dH
	DB	09eH
	DB	090H
	DB	0eeH
	DB	043H
	DB	07cH
	DB	0f8H
	DB	0cH
	DB	073H
CONST	ENDS
;	COMDAT _CLSID_WICWmpDecoder
CONST	SEGMENT
_CLSID_WICWmpDecoder DD 0a26cec36H
	DW	0234cH
	DW	04950H
	DB	0aeH
	DB	016H
	DB	0e3H
	DB	04aH
	DB	0acH
	DB	0e7H
	DB	01dH
	DB	0dH
CONST	ENDS
;	COMDAT _CLSID_WICTiffDecoder
CONST	SEGMENT
_CLSID_WICTiffDecoder DD 0b54e85d9H
	DW	0fe23H
	DW	0499fH
	DB	08bH
	DB	088H
	DB	06aH
	DB	0ceH
	DB	0a7H
	DB	013H
	DB	075H
	DB	02bH
CONST	ENDS
;	COMDAT _CLSID_WICGifDecoder
CONST	SEGMENT
_CLSID_WICGifDecoder DD 0381dda3cH
	DW	09ce9H
	DW	04834H
	DB	0a2H
	DB	03eH
	DB	01fH
	DB	098H
	DB	0f8H
	DB	0fcH
	DB	052H
	DB	0beH
CONST	ENDS
;	COMDAT _CLSID_WICJpegDecoder
CONST	SEGMENT
_CLSID_WICJpegDecoder DD 09456a480H
	DW	0e88bH
	DW	043eaH
	DB	09eH
	DB	073H
	DB	0bH
	DB	02dH
	DB	09bH
	DB	071H
	DB	0b1H
	DB	0caH
CONST	ENDS
;	COMDAT _CLSID_WICIcoDecoder
CONST	SEGMENT
_CLSID_WICIcoDecoder DD 0c61bfcdfH
	DW	02e0fH
	DW	04aadH
	DB	0a8H
	DB	0d7H
	DB	0e0H
	DB	06bH
	DB	0afH
	DB	0ebH
	DB	0cdH
	DB	0feH
CONST	ENDS
;	COMDAT _CLSID_WICBmpDecoder
CONST	SEGMENT
_CLSID_WICBmpDecoder DD 06b462062H
	DW	07cbfH
	DW	0400dH
	DB	09fH
	DB	0dbH
	DB	081H
	DB	03dH
	DB	0d1H
	DB	0fH
	DB	027H
	DB	078H
CONST	ENDS
;	COMDAT _CLSID_WICPngDecoder2
CONST	SEGMENT
_CLSID_WICPngDecoder2 DD 0e018945bH
	DW	0aa86H
	DW	04008H
	DB	09bH
	DB	0d4H
	DB	067H
	DB	077H
	DB	0a1H
	DB	0e4H
	DB	0cH
	DB	011H
CONST	ENDS
;	COMDAT _CLSID_WICPngDecoder1
CONST	SEGMENT
_CLSID_WICPngDecoder1 DD 0389ea17bH
	DW	05078H
	DW	04cdeH
	DB	0b6H
	DB	0efH
	DB	025H
	DB	0c1H
	DB	051H
	DB	075H
	DB	0c7H
	DB	051H
CONST	ENDS
;	COMDAT _CLSID_WICPngDecoder
CONST	SEGMENT
_CLSID_WICPngDecoder DD 0389ea17bH
	DW	05078H
	DW	04cdeH
	DB	0b6H
	DB	0efH
	DB	025H
	DB	0c1H
	DB	051H
	DB	075H
	DB	0c7H
	DB	051H
CONST	ENDS
;	COMDAT _GUID_VendorMicrosoftBuiltIn
CONST	SEGMENT
_GUID_VendorMicrosoftBuiltIn DD 0257a30fdH
	DW	06b6H
	DW	0462bH
	DB	0aeH
	DB	0a4H
	DB	063H
	DB	0f7H
	DB	0bH
	DB	086H
	DB	0e5H
	DB	033H
CONST	ENDS
;	COMDAT _GUID_VendorMicrosoft
CONST	SEGMENT
_GUID_VendorMicrosoft DD 0f0e749caH
	DW	0edefH
	DW	04589H
	DB	0a7H
	DB	03aH
	DB	0eeH
	DB	0eH
	DB	062H
	DB	06aH
	DB	02aH
	DB	02bH
CONST	ENDS
;	COMDAT _CLSID_WICImagingFactory2
CONST	SEGMENT
_CLSID_WICImagingFactory2 DD 0317d06e8H
	DW	05f24H
	DW	0433dH
	DB	0bdH
	DB	0f7H
	DB	079H
	DB	0ceH
	DB	068H
	DB	0d8H
	DB	0abH
	DB	0c2H
CONST	ENDS
;	COMDAT _CLSID_WICImagingFactory1
CONST	SEGMENT
_CLSID_WICImagingFactory1 DD 0cacaf262H
	DW	09370H
	DW	04615H
	DB	0a1H
	DB	03bH
	DB	09fH
	DB	055H
	DB	039H
	DB	0daH
	DB	04cH
	DB	0aH
CONST	ENDS
;	COMDAT _CLSID_WICImagingFactory
CONST	SEGMENT
_CLSID_WICImagingFactory DD 0cacaf262H
	DW	09370H
	DW	04615H
	DB	0a1H
	DB	03bH
	DB	09fH
	DB	055H
	DB	039H
	DB	0daH
	DB	04cH
	DB	0aH
CONST	ENDS
;	COMDAT ?min_exponent10@?$numeric_limits@N@std@@2HB
CONST	SEGMENT
?min_exponent10@?$numeric_limits@N@std@@2HB DD 0fffffecdH ; std::numeric_limits<double>::min_exponent10
CONST	ENDS
;	COMDAT ?min_exponent@?$numeric_limits@N@std@@2HB
CONST	SEGMENT
?min_exponent@?$numeric_limits@N@std@@2HB DD 0fffffc03H	; std::numeric_limits<double>::min_exponent
CONST	ENDS
;	COMDAT ?max_exponent10@?$numeric_limits@N@std@@2HB
CONST	SEGMENT
?max_exponent10@?$numeric_limits@N@std@@2HB DD 0134H	; std::numeric_limits<double>::max_exponent10
CONST	ENDS
;	COMDAT ?max_exponent@?$numeric_limits@N@std@@2HB
CONST	SEGMENT
?max_exponent@?$numeric_limits@N@std@@2HB DD 0400H	; std::numeric_limits<double>::max_exponent
CONST	ENDS
;	COMDAT ?max_digits10@?$numeric_limits@N@std@@2HB
CONST	SEGMENT
?max_digits10@?$numeric_limits@N@std@@2HB DD 011H	; std::numeric_limits<double>::max_digits10
CONST	ENDS
;	COMDAT ?digits10@?$numeric_limits@N@std@@2HB
CONST	SEGMENT
?digits10@?$numeric_limits@N@std@@2HB DD 0fH		; std::numeric_limits<double>::digits10
CONST	ENDS
;	COMDAT ?digits@?$numeric_limits@N@std@@2HB
CONST	SEGMENT
?digits@?$numeric_limits@N@std@@2HB DD 035H		; std::numeric_limits<double>::digits
CONST	ENDS
;	COMDAT ?min_exponent10@?$numeric_limits@M@std@@2HB
CONST	SEGMENT
?min_exponent10@?$numeric_limits@M@std@@2HB DD 0ffffffdbH ; std::numeric_limits<float>::min_exponent10
CONST	ENDS
;	COMDAT ?min_exponent@?$numeric_limits@M@std@@2HB
CONST	SEGMENT
?min_exponent@?$numeric_limits@M@std@@2HB DD 0ffffff83H	; std::numeric_limits<float>::min_exponent
CONST	ENDS
;	COMDAT ?max_exponent10@?$numeric_limits@M@std@@2HB
CONST	SEGMENT
?max_exponent10@?$numeric_limits@M@std@@2HB DD 026H	; std::numeric_limits<float>::max_exponent10
CONST	ENDS
;	COMDAT ?max_exponent@?$numeric_limits@M@std@@2HB
CONST	SEGMENT
?max_exponent@?$numeric_limits@M@std@@2HB DD 080H	; std::numeric_limits<float>::max_exponent
CONST	ENDS
;	COMDAT ?max_digits10@?$numeric_limits@M@std@@2HB
CONST	SEGMENT
?max_digits10@?$numeric_limits@M@std@@2HB DD 09H	; std::numeric_limits<float>::max_digits10
CONST	ENDS
;	COMDAT ?digits10@?$numeric_limits@M@std@@2HB
CONST	SEGMENT
?digits10@?$numeric_limits@M@std@@2HB DD 06H		; std::numeric_limits<float>::digits10
CONST	ENDS
;	COMDAT ?digits@?$numeric_limits@M@std@@2HB
CONST	SEGMENT
?digits@?$numeric_limits@M@std@@2HB DD 018H		; std::numeric_limits<float>::digits
CONST	ENDS
;	COMDAT ?timeout_infinite@event@Concurrency@@2IB
CONST	SEGMENT
?timeout_infinite@event@Concurrency@@2IB DD 0ffffffffH	; Concurrency::event::timeout_infinite
CONST	ENDS
_DATA	SEGMENT
?g_iNumParticles@@3IA DD 04000H				; g_iNumParticles
?g_eSimMode@@3W4eSimulationMode@@A DD 02H		; g_eSimMode
_DATA	ENDS
;	COMDAT ?digits10@?$numeric_limits@_K@std@@2HB
CONST	SEGMENT
?digits10@?$numeric_limits@_K@std@@2HB DD 013H		; std::numeric_limits<unsigned __int64>::digits10
CONST	ENDS
;	COMDAT ?digits@?$numeric_limits@_K@std@@2HB
CONST	SEGMENT
?digits@?$numeric_limits@_K@std@@2HB DD 040H		; std::numeric_limits<unsigned __int64>::digits
CONST	ENDS
;	COMDAT ?is_signed@?$numeric_limits@_K@std@@2_NB
CONST	SEGMENT
?is_signed@?$numeric_limits@_K@std@@2_NB DB 00H		; std::numeric_limits<unsigned __int64>::is_signed
CONST	ENDS
;	COMDAT ?is_steady@system_clock@chrono@std@@2_NB
CONST	SEGMENT
?is_steady@system_clock@chrono@std@@2_NB DB 00H		; std::chrono::system_clock::is_steady
CONST	ENDS
;	COMDAT ?is_monotonic@system_clock@chrono@std@@2_NB
CONST	SEGMENT
?is_monotonic@system_clock@chrono@std@@2_NB DB 00H	; std::chrono::system_clock::is_monotonic
CONST	ENDS
;	COMDAT ?digits10@?$numeric_limits@_J@std@@2HB
CONST	SEGMENT
?digits10@?$numeric_limits@_J@std@@2HB DD 012H		; std::numeric_limits<__int64>::digits10
CONST	ENDS
;	COMDAT ?digits@?$numeric_limits@_J@std@@2HB
CONST	SEGMENT
?digits@?$numeric_limits@_J@std@@2HB DD 03fH		; std::numeric_limits<__int64>::digits
CONST	ENDS
;	COMDAT ?is_signed@?$numeric_limits@_J@std@@2_NB
CONST	SEGMENT
?is_signed@?$numeric_limits@_J@std@@2_NB DB 01H		; std::numeric_limits<__int64>::is_signed
CONST	ENDS
;	COMDAT ?value@?$_Safe_mult@$00$0JIJGIA@@std@@2_JB
CONST	SEGMENT
?value@?$_Safe_mult@$00$0JIJGIA@@std@@2_JB DQ 0000000000989680H ; std::_Safe_mult<1,10000000>::value
CONST	ENDS
;	COMDAT ?value@?$_Safe_multX@$00$0JIJGIA@$00@std@@2_JB
CONST	SEGMENT
?value@?$_Safe_multX@$00$0JIJGIA@$00@std@@2_JB DQ 0000000000989680H ; std::_Safe_multX<1,10000000,1>::value
CONST	ENDS
;	COMDAT ?digits10@?$numeric_limits@K@std@@2HB
CONST	SEGMENT
?digits10@?$numeric_limits@K@std@@2HB DD 09H		; std::numeric_limits<unsigned long>::digits10
CONST	ENDS
;	COMDAT ?value@?$_Abs@$0JIJGIA@@std@@2_JB
CONST	SEGMENT
?value@?$_Abs@$0JIJGIA@@std@@2_JB DQ 0000000000989680H	; std::_Abs<10000000>::value
CONST	ENDS
;	COMDAT ?digits@?$numeric_limits@K@std@@2HB
CONST	SEGMENT
?digits@?$numeric_limits@K@std@@2HB DD 020H		; std::numeric_limits<unsigned long>::digits
CONST	ENDS
;	COMDAT ?is_signed@?$numeric_limits@K@std@@2_NB
CONST	SEGMENT
?is_signed@?$numeric_limits@K@std@@2_NB DB 00H		; std::numeric_limits<unsigned long>::is_signed
CONST	ENDS
;	COMDAT ?value@?$_Safe_mult@$00$00@std@@2_JB
CONST	SEGMENT
?value@?$_Safe_mult@$00$00@std@@2_JB DQ 0000000000000001H ; std::_Safe_mult<1,1>::value
CONST	ENDS
;	COMDAT ?value@?$_Safe_multX@$00$00$00@std@@2_JB
CONST	SEGMENT
?value@?$_Safe_multX@$00$00$00@std@@2_JB DQ 0000000000000001H ; std::_Safe_multX<1,1,1>::value
CONST	ENDS
;	COMDAT ?_Gy@?$_Ratio_multiply@U?$ratio@$0GE@$00@std@@U?$ratio@$00$0DLJKMKAA@@2@@std@@2_JB
CONST	SEGMENT
?_Gy@?$_Ratio_multiply@U?$ratio@$0GE@$00@std@@U?$ratio@$00$0DLJKMKAA@@2@@std@@2_JB DQ 0000000000000001H ; std::_Ratio_multiply<std::ratio<100,1>,std::ratio<1,1000000000> >::_Gy
CONST	ENDS
;	COMDAT ?digits10@?$numeric_limits@J@std@@2HB
CONST	SEGMENT
?digits10@?$numeric_limits@J@std@@2HB DD 09H		; std::numeric_limits<long>::digits10
CONST	ENDS
;	COMDAT ?value@?$_Gcd@$00$00@std@@2_JB
CONST	SEGMENT
?value@?$_Gcd@$00$00@std@@2_JB DQ 0000000000000001H	; std::_Gcd<1,1>::value
CONST	ENDS
;	COMDAT ?digits@?$numeric_limits@J@std@@2HB
CONST	SEGMENT
?digits@?$numeric_limits@J@std@@2HB DD 01fH		; std::numeric_limits<long>::digits
CONST	ENDS
;	COMDAT ?is_signed@?$numeric_limits@J@std@@2_NB
CONST	SEGMENT
?is_signed@?$numeric_limits@J@std@@2_NB DB 01H		; std::numeric_limits<long>::is_signed
CONST	ENDS
;	COMDAT ?value@?$_GcdX@$00$00@std@@2_JB
CONST	SEGMENT
?value@?$_GcdX@$00$00@std@@2_JB DQ 0000000000000001H	; std::_GcdX<1,1>::value
CONST	ENDS
;	COMDAT ?_Gx@?$_Ratio_multiply@U?$ratio@$0GE@$00@std@@U?$ratio@$00$0DLJKMKAA@@2@@std@@2_JB
CONST	SEGMENT
?_Gx@?$_Ratio_multiply@U?$ratio@$0GE@$00@std@@U?$ratio@$00$0DLJKMKAA@@2@@std@@2_JB DQ 0000000000000064H ; std::_Ratio_multiply<std::ratio<100,1>,std::ratio<1,1000000000> >::_Gx
CONST	ENDS
;	COMDAT ?value@?$_Gcd@$0GE@$0DLJKMKAA@@std@@2_JB
CONST	SEGMENT
?value@?$_Gcd@$0GE@$0DLJKMKAA@@std@@2_JB DQ 0000000000000064H ; std::_Gcd<100,1000000000>::value
CONST	ENDS
;	COMDAT ?value@?$_GcdX@$0GE@$0DLJKMKAA@@std@@2_JB
CONST	SEGMENT
?value@?$_GcdX@$0GE@$0DLJKMKAA@@std@@2_JB DQ 0000000000000064H ; std::_GcdX<100,1000000000>::value
CONST	ENDS
;	COMDAT ?digits10@?$numeric_limits@I@std@@2HB
CONST	SEGMENT
?digits10@?$numeric_limits@I@std@@2HB DD 09H		; std::numeric_limits<unsigned int>::digits10
CONST	ENDS
;	COMDAT ?digits@?$numeric_limits@I@std@@2HB
CONST	SEGMENT
?digits@?$numeric_limits@I@std@@2HB DD 020H		; std::numeric_limits<unsigned int>::digits
CONST	ENDS
;	COMDAT ?value@?$_GcdX@$0DLJKMKAA@$0GE@@std@@2_JB
CONST	SEGMENT
?value@?$_GcdX@$0DLJKMKAA@$0GE@@std@@2_JB DQ 0000000000000064H ; std::_GcdX<1000000000,100>::value
CONST	ENDS
;	COMDAT ?is_signed@?$numeric_limits@I@std@@2_NB
CONST	SEGMENT
?is_signed@?$numeric_limits@I@std@@2_NB DB 00H		; std::numeric_limits<unsigned int>::is_signed
CONST	ENDS
;	COMDAT ?value@?$_GcdX@$0GE@$0A@@std@@2_JB
CONST	SEGMENT
?value@?$_GcdX@$0GE@$0A@@std@@2_JB DQ 0000000000000064H	; std::_GcdX<100,0>::value
CONST	ENDS
;	COMDAT ?_D2@?$_Ratio_multiply@U?$ratio@$0GE@$00@std@@U?$ratio@$00$0DLJKMKAA@@2@@std@@2_JB
CONST	SEGMENT
?_D2@?$_Ratio_multiply@U?$ratio@$0GE@$00@std@@U?$ratio@$00$0DLJKMKAA@@2@@std@@2_JB DQ 000000003b9aca00H ; std::_Ratio_multiply<std::ratio<100,1>,std::ratio<1,1000000000> >::_D2
CONST	ENDS
;	COMDAT ?_N2@?$_Ratio_multiply@U?$ratio@$0GE@$00@std@@U?$ratio@$00$0DLJKMKAA@@2@@std@@2_JB
CONST	SEGMENT
?_N2@?$_Ratio_multiply@U?$ratio@$0GE@$00@std@@U?$ratio@$00$0DLJKMKAA@@2@@std@@2_JB DQ 0000000000000001H ; std::_Ratio_multiply<std::ratio<100,1>,std::ratio<1,1000000000> >::_N2
CONST	ENDS
;	COMDAT ?den@?$ratio@$00$0DLJKMKAA@@std@@2_JB
CONST	SEGMENT
?den@?$ratio@$00$0DLJKMKAA@@std@@2_JB DQ 000000003b9aca00H ; std::ratio<1,1000000000>::den
CONST	ENDS
;	COMDAT ?digits10@?$numeric_limits@H@std@@2HB
CONST	SEGMENT
?digits10@?$numeric_limits@H@std@@2HB DD 09H		; std::numeric_limits<int>::digits10
CONST	ENDS
;	COMDAT ?num@?$ratio@$00$0DLJKMKAA@@std@@2_JB
CONST	SEGMENT
?num@?$ratio@$00$0DLJKMKAA@@std@@2_JB DQ 0000000000000001H ; std::ratio<1,1000000000>::num
CONST	ENDS
;	COMDAT ?digits@?$numeric_limits@H@std@@2HB
CONST	SEGMENT
?digits@?$numeric_limits@H@std@@2HB DD 01fH		; std::numeric_limits<int>::digits
CONST	ENDS
;	COMDAT ?is_signed@?$numeric_limits@H@std@@2_NB
CONST	SEGMENT
?is_signed@?$numeric_limits@H@std@@2_NB DB 01H		; std::numeric_limits<int>::is_signed
CONST	ENDS
;	COMDAT ?value@?$_Gcd@$00$0DLJKMKAA@@std@@2_JB
CONST	SEGMENT
?value@?$_Gcd@$00$0DLJKMKAA@@std@@2_JB DQ 0000000000000001H ; std::_Gcd<1,1000000000>::value
CONST	ENDS
;	COMDAT ?value@?$_GcdX@$00$0DLJKMKAA@@std@@2_JB
CONST	SEGMENT
?value@?$_GcdX@$00$0DLJKMKAA@@std@@2_JB DQ 0000000000000001H ; std::_GcdX<1,1000000000>::value
CONST	ENDS
;	COMDAT ?value@?$_GcdX@$0DLJKMKAA@$00@std@@2_JB
CONST	SEGMENT
?value@?$_GcdX@$0DLJKMKAA@$00@std@@2_JB DQ 0000000000000001H ; std::_GcdX<1000000000,1>::value
CONST	ENDS
;	COMDAT ?digits10@?$numeric_limits@G@std@@2HB
CONST	SEGMENT
?digits10@?$numeric_limits@G@std@@2HB DD 04H		; std::numeric_limits<unsigned short>::digits10
CONST	ENDS
;	COMDAT ?value@?$_Abs@$0DLJKMKAA@@std@@2_JB
CONST	SEGMENT
?value@?$_Abs@$0DLJKMKAA@@std@@2_JB DQ 000000003b9aca00H ; std::_Abs<1000000000>::value
CONST	ENDS
;	COMDAT ?digits@?$numeric_limits@G@std@@2HB
CONST	SEGMENT
?digits@?$numeric_limits@G@std@@2HB DD 010H		; std::numeric_limits<unsigned short>::digits
CONST	ENDS
;	COMDAT ?is_signed@?$numeric_limits@G@std@@2_NB
CONST	SEGMENT
?is_signed@?$numeric_limits@G@std@@2_NB DB 00H		; std::numeric_limits<unsigned short>::is_signed
CONST	ENDS
;	COMDAT ?value@?$_Sign_of@$0DLJKMKAA@@std@@2_JB
CONST	SEGMENT
?value@?$_Sign_of@$0DLJKMKAA@@std@@2_JB DQ 0000000000000001H ; std::_Sign_of<1000000000>::value
CONST	ENDS
;	COMDAT ?_D1@?$_Ratio_multiply@U?$ratio@$0GE@$00@std@@U?$ratio@$00$0DLJKMKAA@@2@@std@@2_JB
CONST	SEGMENT
?_D1@?$_Ratio_multiply@U?$ratio@$0GE@$00@std@@U?$ratio@$00$0DLJKMKAA@@2@@std@@2_JB DQ 0000000000000001H ; std::_Ratio_multiply<std::ratio<100,1>,std::ratio<1,1000000000> >::_D1
CONST	ENDS
;	COMDAT ?_N1@?$_Ratio_multiply@U?$ratio@$0GE@$00@std@@U?$ratio@$00$0DLJKMKAA@@2@@std@@2_JB
CONST	SEGMENT
?_N1@?$_Ratio_multiply@U?$ratio@$0GE@$00@std@@U?$ratio@$00$0DLJKMKAA@@2@@std@@2_JB DQ 0000000000000064H ; std::_Ratio_multiply<std::ratio<100,1>,std::ratio<1,1000000000> >::_N1
CONST	ENDS
;	COMDAT ?den@?$ratio@$0GE@$00@std@@2_JB
CONST	SEGMENT
?den@?$ratio@$0GE@$00@std@@2_JB DQ 0000000000000001H	; std::ratio<100,1>::den
CONST	ENDS
;	COMDAT ?num@?$ratio@$0GE@$00@std@@2_JB
CONST	SEGMENT
?num@?$ratio@$0GE@$00@std@@2_JB DQ 0000000000000064H	; std::ratio<100,1>::num
CONST	ENDS
;	COMDAT ?digits10@?$numeric_limits@F@std@@2HB
CONST	SEGMENT
?digits10@?$numeric_limits@F@std@@2HB DD 04H		; std::numeric_limits<short>::digits10
CONST	ENDS
;	COMDAT ?value@?$_Gcd@$0GE@$00@std@@2_JB
CONST	SEGMENT
?value@?$_Gcd@$0GE@$00@std@@2_JB DQ 0000000000000001H	; std::_Gcd<100,1>::value
CONST	ENDS
;	COMDAT ?digits@?$numeric_limits@F@std@@2HB
CONST	SEGMENT
?digits@?$numeric_limits@F@std@@2HB DD 0fH		; std::numeric_limits<short>::digits
CONST	ENDS
;	COMDAT ?is_signed@?$numeric_limits@F@std@@2_NB
CONST	SEGMENT
?is_signed@?$numeric_limits@F@std@@2_NB DB 01H		; std::numeric_limits<short>::is_signed
CONST	ENDS
;	COMDAT ?value@?$_GcdX@$0GE@$00@std@@2_JB
CONST	SEGMENT
?value@?$_GcdX@$0GE@$00@std@@2_JB DQ 0000000000000001H	; std::_GcdX<100,1>::value
CONST	ENDS
;	COMDAT ?value@?$_GcdX@$00$0A@@std@@2_JB
CONST	SEGMENT
?value@?$_GcdX@$00$0A@@std@@2_JB DQ 0000000000000001H	; std::_GcdX<1,0>::value
CONST	ENDS
;	COMDAT ?value@?$_Abs@$00@std@@2_JB
CONST	SEGMENT
?value@?$_Abs@$00@std@@2_JB DQ 0000000000000001H	; std::_Abs<1>::value
CONST	ENDS
;	COMDAT ?digits10@?$numeric_limits@E@std@@2HB
CONST	SEGMENT
?digits10@?$numeric_limits@E@std@@2HB DD 02H		; std::numeric_limits<unsigned char>::digits10
CONST	ENDS
;	COMDAT ?digits@?$numeric_limits@E@std@@2HB
CONST	SEGMENT
?digits@?$numeric_limits@E@std@@2HB DD 08H		; std::numeric_limits<unsigned char>::digits
CONST	ENDS
;	COMDAT ?is_signed@?$numeric_limits@E@std@@2_NB
CONST	SEGMENT
?is_signed@?$numeric_limits@E@std@@2_NB DB 00H		; std::numeric_limits<unsigned char>::is_signed
CONST	ENDS
;	COMDAT ?value@?$_Abs@$0GE@@std@@2_JB
CONST	SEGMENT
?value@?$_Abs@$0GE@@std@@2_JB DQ 0000000000000064H	; std::_Abs<100>::value
CONST	ENDS
;	COMDAT ?value@?$_Sign_of@$00@std@@2_JB
CONST	SEGMENT
?value@?$_Sign_of@$00@std@@2_JB DQ 0000000000000001H	; std::_Sign_of<1>::value
CONST	ENDS
;	COMDAT _AgentEventGuid
CONST	SEGMENT
_AgentEventGuid DD 0b9b5b78cH
	DW	0713H
	DW	04898H
	DB	0a2H
	DB	01aH
	DB	0c6H
	DB	079H
	DB	049H
	DB	0dcH
	DB	0edH
	DB	07H
CONST	ENDS
;	COMDAT _PPLParallelForeachEventGuid
CONST	SEGMENT
_PPLParallelForeachEventGuid DD 05cb7d785H
	DW	09d66H
	DW	0465dH
	DB	0baH
	DB	0e1H
	DB	046H
	DB	011H
	DB	06H
	DB	01bH
	DB	054H
	DB	034H
CONST	ENDS
;	COMDAT _PPLParallelForEventGuid
CONST	SEGMENT
_PPLParallelForEventGuid DD 031c8da6bH
	DW	06165H
	DW	04042H
	DB	08bH
	DB	092H
	DB	094H
	DB	09eH
	DB	031H
	DB	05fH
	DB	04dH
	DB	084H
CONST	ENDS
;	COMDAT ?value@?$_Sign_of@$0GE@@std@@2_JB
CONST	SEGMENT
?value@?$_Sign_of@$0GE@@std@@2_JB DQ 0000000000000001H	; std::_Sign_of<100>::value
CONST	ENDS
;	COMDAT _PPLParallelInvokeEventGuid
CONST	SEGMENT
_PPLParallelInvokeEventGuid DD 0d1b5b133H
	DW	0ec3dH
	DW	049f4H
	DB	098H
	DB	0a3H
	DB	046H
	DB	04dH
	DB	01aH
	DB	09eH
	DB	046H
	DB	082H
CONST	ENDS
;	COMDAT _ResourceManagerEventGuid
CONST	SEGMENT
_ResourceManagerEventGuid DD 02718d25bH
	DW	05bf5H
	DW	04479H
	DB	08eH
	DB	088H
	DB	0baH
	DB	0bcH
	DB	064H
	DB	0bdH
	DB	0bfH
	DB	0caH
CONST	ENDS
;	COMDAT _LockEventGuid
CONST	SEGMENT
_LockEventGuid DD 079a60dc6H
	DW	05fc8H
	DW	04952H
	DB	0a4H
	DB	01cH
	DB	011H
	DB	063H
	DB	0aeH
	DB	0ecH
	DB	05eH
	DB	0b8H
CONST	ENDS
;	COMDAT _VirtualProcessorEventGuid
CONST	SEGMENT
_VirtualProcessorEventGuid DD 02f27805fH
	DW	01676H
	DW	04eccH
	DB	096H
	DB	0faH
	DB	07eH
	DB	0b0H
	DB	09dH
	DB	044H
	DB	030H
	DB	02fH
CONST	ENDS
;	COMDAT _ChoreEventGuid
CONST	SEGMENT
_ChoreEventGuid DD 07e854ec7H
	DW	0cdc4H
	DW	0405aH
	DB	0b5H
	DB	0b2H
	DB	0aaH
	DB	0f7H
	DB	0c9H
	DB	0e7H
	DB	0d4H
	DB	0cH
CONST	ENDS
;	COMDAT _ContextEventGuid
CONST	SEGMENT
_ContextEventGuid DD 05727a00fH
	DW	050beH
	DW	04519H
	DB	082H
	DB	056H
	DB	0f7H
	DB	069H
	DB	098H
	DB	071H
	DB	0feH
	DB	0cbH
CONST	ENDS
;	COMDAT _ScheduleGroupEventGuid
CONST	SEGMENT
_ScheduleGroupEventGuid DD 0e8a3bf1fH
	DW	0a86bH
	DW	04390H
	DB	09cH
	DB	060H
	DB	053H
	DB	090H
	DB	0b9H
	DB	069H
	DB	0d2H
	DB	02cH
CONST	ENDS
;	COMDAT _SchedulerEventGuid
CONST	SEGMENT
_SchedulerEventGuid DD 0e2091f8aH
	DW	01e0aH
	DW	04731H
	DB	084H
	DB	0a2H
	DB	0dH
	DB	0d5H
	DB	07cH
	DB	08aH
	DB	052H
	DB	061H
CONST	ENDS
;	COMDAT _ConcRTEventGuid
CONST	SEGMENT
_ConcRTEventGuid DD 072b14a7dH
	DW	0704cH
	DW	0423eH
	DB	092H
	DB	0f8H
	DB	07eH
	DB	06dH
	DB	064H
	DB	0bcH
	DB	0b9H
	DB	02aH
CONST	ENDS
;	COMDAT ?digits10@?$numeric_limits@C@std@@2HB
CONST	SEGMENT
?digits10@?$numeric_limits@C@std@@2HB DD 02H		; std::numeric_limits<signed char>::digits10
CONST	ENDS
;	COMDAT _ConcRT_ProviderGuid
CONST	SEGMENT
_ConcRT_ProviderGuid DD 0f7b697a3H
	DW	04db5H
	DW	04d3bH
	DB	0beH
	DB	071H
	DB	0c4H
	DB	0d2H
	DB	084H
	DB	0e6H
	DB	059H
	DB	02fH
CONST	ENDS
;	COMDAT ?value@?$integral_constant@_N$00@std@@2_NB
CONST	SEGMENT
?value@?$integral_constant@_N$00@std@@2_NB DB 01H	; std::integral_constant<bool,1>::value
CONST	ENDS
;	COMDAT ?digits@?$numeric_limits@C@std@@2HB
CONST	SEGMENT
?digits@?$numeric_limits@C@std@@2HB DD 07H		; std::numeric_limits<signed char>::digits
CONST	ENDS
;	COMDAT ?is_signed@?$numeric_limits@C@std@@2_NB
CONST	SEGMENT
?is_signed@?$numeric_limits@C@std@@2_NB DB 01H		; std::numeric_limits<signed char>::is_signed
CONST	ENDS
;	COMDAT _IID_ID3D11FunctionLinkingGraph
CONST	SEGMENT
_IID_ID3D11FunctionLinkingGraph DD 054133220H
	DW	01ce8H
	DW	043d3H
	DB	082H
	DB	036H
	DB	098H
	DB	055H
	DB	0c5H
	DB	0ceH
	DB	0ecH
	DB	0ffH
CONST	ENDS
;	COMDAT ?value@?$integral_constant@I$0A@@std@@2IB
CONST	SEGMENT
?value@?$integral_constant@I$0A@@std@@2IB DD 00H	; std::integral_constant<unsigned int,0>::value
CONST	ENDS
;	COMDAT ?value@?$integral_constant@_N$0A@@std@@2_NB
CONST	SEGMENT
?value@?$integral_constant@_N$0A@@std@@2_NB DB 00H	; std::integral_constant<bool,0>::value
CONST	ENDS
;	COMDAT _IID_ID3D11LinkingNode
CONST	SEGMENT
_IID_ID3D11LinkingNode DD 0d80dd70cH
	DW	08d2fH
	DW	04751H
	DB	094H
	DB	0a1H
	DB	03H
	DB	0c7H
	DB	09bH
	DB	035H
	DB	056H
	DB	0dbH
CONST	ENDS
;	COMDAT ?digits10@?$numeric_limits@_N@std@@2HB
CONST	SEGMENT
?digits10@?$numeric_limits@_N@std@@2HB DD 00H		; std::numeric_limits<bool>::digits10
CONST	ENDS
;	COMDAT ?digits@?$numeric_limits@_N@std@@2HB
CONST	SEGMENT
?digits@?$numeric_limits@_N@std@@2HB DD 01H		; std::numeric_limits<bool>::digits
CONST	ENDS
;	COMDAT ?is_signed@?$numeric_limits@_N@std@@2_NB
CONST	SEGMENT
?is_signed@?$numeric_limits@_N@std@@2_NB DB 00H		; std::numeric_limits<bool>::is_signed
CONST	ENDS
;	COMDAT ?is_modulo@?$numeric_limits@_N@std@@2_NB
CONST	SEGMENT
?is_modulo@?$numeric_limits@_N@std@@2_NB DB 00H		; std::numeric_limits<bool>::is_modulo
CONST	ENDS
;	COMDAT ?value@?$_Maximum@$S@std@@2IB
CONST	SEGMENT
?value@?$_Maximum@$S@std@@2IB DD 00H			; std::_Maximum<>::value
CONST	ENDS
;	COMDAT _IID_ID3D11Linker
CONST	SEGMENT
_IID_ID3D11Linker DD 059a6cd0eH
	DW	0e10dH
	DW	04c1fH
	DB	088H
	DB	0c0H
	DB	063H
	DB	0abH
	DB	0a1H
	DB	0daH
	DB	0f3H
	DB	0eH
CONST	ENDS
;	COMDAT ?value@?$integral_constant@I$00@std@@2IB
CONST	SEGMENT
?value@?$integral_constant@I$00@std@@2IB DD 01H		; std::integral_constant<unsigned int,1>::value
CONST	ENDS
;	COMDAT ?digits10@?$numeric_limits@_W@std@@2HB
CONST	SEGMENT
?digits10@?$numeric_limits@_W@std@@2HB DD 04H		; std::numeric_limits<wchar_t>::digits10
CONST	ENDS
;	COMDAT ?digits@?$numeric_limits@_W@std@@2HB
CONST	SEGMENT
?digits@?$numeric_limits@_W@std@@2HB DD 010H		; std::numeric_limits<wchar_t>::digits
CONST	ENDS
;	COMDAT ?is_signed@?$numeric_limits@_W@std@@2_NB
CONST	SEGMENT
?is_signed@?$numeric_limits@_W@std@@2_NB DB 00H		; std::numeric_limits<wchar_t>::is_signed
CONST	ENDS
;	COMDAT ?value@?$_Is_ratio@U?$ratio@$00$0JIJGIA@@std@@@chrono@std@@2_NB
CONST	SEGMENT
?value@?$_Is_ratio@U?$ratio@$00$0JIJGIA@@std@@@chrono@std@@2_NB DB 01H ; std::chrono::_Is_ratio<std::ratio<1,10000000> >::value
CONST	ENDS
;	COMDAT _IID_ID3D11ModuleInstance
CONST	SEGMENT
_IID_ID3D11ModuleInstance DD 0469e07f7H
	DW	045aH
	DW	048d5H
	DB	0aaH
	DB	012H
	DB	068H
	DB	0a4H
	DB	078H
	DB	0cdH
	DB	0f7H
	DB	05dH
CONST	ENDS
;	COMDAT ?digits10@?$numeric_limits@D@std@@2HB
CONST	SEGMENT
?digits10@?$numeric_limits@D@std@@2HB DD 02H		; std::numeric_limits<char>::digits10
CONST	ENDS
;	COMDAT ?digits@?$numeric_limits@D@std@@2HB
CONST	SEGMENT
?digits@?$numeric_limits@D@std@@2HB DD 07H		; std::numeric_limits<char>::digits
CONST	ENDS
;	COMDAT ?is_signed@?$numeric_limits@D@std@@2_NB
CONST	SEGMENT
?is_signed@?$numeric_limits@D@std@@2_NB DB 01H		; std::numeric_limits<char>::is_signed
CONST	ENDS
;	COMDAT ?value@?$integral_constant@I$01@std@@2IB
CONST	SEGMENT
?value@?$integral_constant@I$01@std@@2IB DD 02H		; std::integral_constant<unsigned int,2>::value
CONST	ENDS
;	COMDAT _IID_ID3D11Module
CONST	SEGMENT
_IID_ID3D11Module DD 0cac701eeH
	DW	080fcH
	DW	04122H
	DB	082H
	DB	042H
	DB	010H
	DB	0b3H
	DB	09cH
	DB	08cH
	DB	0ecH
	DB	034H
CONST	ENDS
;	COMDAT ?radix@_Num_float_base@std@@2HB
CONST	SEGMENT
?radix@_Num_float_base@std@@2HB DD 02H			; std::_Num_float_base::radix
CONST	ENDS
;	COMDAT ?round_style@_Num_float_base@std@@2W4float_round_style@2@B
CONST	SEGMENT
?round_style@_Num_float_base@std@@2W4float_round_style@2@B DD 01H ; std::_Num_float_base::round_style
CONST	ENDS
;	COMDAT _IID_ID3D11FunctionParameterReflection
CONST	SEGMENT
_IID_ID3D11FunctionParameterReflection DD 042757488H
	DW	0334fH
	DW	047feH
	DB	098H
	DB	02eH
	DB	01aH
	DB	065H
	DB	0d0H
	DB	08cH
	DB	0c4H
	DB	062H
CONST	ENDS
;	COMDAT ?traps@_Num_float_base@std@@2_NB
CONST	SEGMENT
?traps@_Num_float_base@std@@2_NB DB 00H			; std::_Num_float_base::traps
CONST	ENDS
;	COMDAT ?tinyness_before@_Num_float_base@std@@2_NB
CONST	SEGMENT
?tinyness_before@_Num_float_base@std@@2_NB DB 01H	; std::_Num_float_base::tinyness_before
CONST	ENDS
;	COMDAT ?value@?$integral_constant@H$0A@@std@@2HB
CONST	SEGMENT
?value@?$integral_constant@H$0A@@std@@2HB DD 00H	; std::integral_constant<int,0>::value
CONST	ENDS
;	COMDAT ?is_specialized@_Num_float_base@std@@2_NB
CONST	SEGMENT
?is_specialized@_Num_float_base@std@@2_NB DB 01H	; std::_Num_float_base::is_specialized
CONST	ENDS
;	COMDAT ?is_signed@_Num_float_base@std@@2_NB
CONST	SEGMENT
?is_signed@_Num_float_base@std@@2_NB DB 01H		; std::_Num_float_base::is_signed
CONST	ENDS
;	COMDAT ?is_modulo@_Num_float_base@std@@2_NB
CONST	SEGMENT
?is_modulo@_Num_float_base@std@@2_NB DB 00H		; std::_Num_float_base::is_modulo
CONST	ENDS
;	COMDAT ?is_integer@_Num_float_base@std@@2_NB
CONST	SEGMENT
?is_integer@_Num_float_base@std@@2_NB DB 00H		; std::_Num_float_base::is_integer
CONST	ENDS
;	COMDAT ?is_iec559@_Num_float_base@std@@2_NB
CONST	SEGMENT
?is_iec559@_Num_float_base@std@@2_NB DB 01H		; std::_Num_float_base::is_iec559
CONST	ENDS
;	COMDAT ?is_exact@_Num_float_base@std@@2_NB
CONST	SEGMENT
?is_exact@_Num_float_base@std@@2_NB DB 00H		; std::_Num_float_base::is_exact
CONST	ENDS
;	COMDAT ?is_bounded@_Num_float_base@std@@2_NB
CONST	SEGMENT
?is_bounded@_Num_float_base@std@@2_NB DB 01H		; std::_Num_float_base::is_bounded
CONST	ENDS
;	COMDAT _IID_ID3D11FunctionReflection
CONST	SEGMENT
_IID_ID3D11FunctionReflection DD 0207bcecbH
	DW	0d683H
	DW	04a06H
	DB	0a8H
	DB	0a3H
	DB	09bH
	DB	014H
	DB	09bH
	DB	09fH
	DB	073H
	DB	0a4H
CONST	ENDS
;	COMDAT ?has_signaling_NaN@_Num_float_base@std@@2_NB
CONST	SEGMENT
?has_signaling_NaN@_Num_float_base@std@@2_NB DB 01H	; std::_Num_float_base::has_signaling_NaN
CONST	ENDS
;	COMDAT ?has_quiet_NaN@_Num_float_base@std@@2_NB
CONST	SEGMENT
?has_quiet_NaN@_Num_float_base@std@@2_NB DB 01H		; std::_Num_float_base::has_quiet_NaN
CONST	ENDS
;	COMDAT ?has_infinity@_Num_float_base@std@@2_NB
CONST	SEGMENT
?has_infinity@_Num_float_base@std@@2_NB DB 01H		; std::_Num_float_base::has_infinity
CONST	ENDS
;	COMDAT ?has_denorm_loss@_Num_float_base@std@@2_NB
CONST	SEGMENT
?has_denorm_loss@_Num_float_base@std@@2_NB DB 01H	; std::_Num_float_base::has_denorm_loss
CONST	ENDS
;	COMDAT ?has_denorm@_Num_float_base@std@@2W4float_denorm_style@2@B
CONST	SEGMENT
?has_denorm@_Num_float_base@std@@2W4float_denorm_style@2@B DD 01H ; std::_Num_float_base::has_denorm
CONST	ENDS
;	COMDAT _IID_ID3D11LibraryReflection
CONST	SEGMENT
_IID_ID3D11LibraryReflection DD 054384f1bH
	DW	05b3eH
	DW	04bb7H
	DB	0aeH
	DB	01H
	DB	060H
	DB	0baH
	DB	030H
	DB	097H
	DB	0cbH
	DB	0b6H
CONST	ENDS
;	COMDAT ?value@?$integral_constant@I$03@std@@2IB
CONST	SEGMENT
?value@?$integral_constant@I$03@std@@2IB DD 04H		; std::integral_constant<unsigned int,4>::value
CONST	ENDS
;	COMDAT ?radix@_Num_int_base@std@@2HB
CONST	SEGMENT
?radix@_Num_int_base@std@@2HB DD 02H			; std::_Num_int_base::radix
CONST	ENDS
;	COMDAT ?is_specialized@_Num_int_base@std@@2_NB
CONST	SEGMENT
?is_specialized@_Num_int_base@std@@2_NB DB 01H		; std::_Num_int_base::is_specialized
CONST	ENDS
;	COMDAT ?is_modulo@_Num_int_base@std@@2_NB
CONST	SEGMENT
?is_modulo@_Num_int_base@std@@2_NB DB 01H		; std::_Num_int_base::is_modulo
CONST	ENDS
;	COMDAT ?is_integer@_Num_int_base@std@@2_NB
CONST	SEGMENT
?is_integer@_Num_int_base@std@@2_NB DB 01H		; std::_Num_int_base::is_integer
CONST	ENDS
;	COMDAT ?is_exact@_Num_int_base@std@@2_NB
CONST	SEGMENT
?is_exact@_Num_int_base@std@@2_NB DB 01H		; std::_Num_int_base::is_exact
CONST	ENDS
;	COMDAT ?is_bounded@_Num_int_base@std@@2_NB
CONST	SEGMENT
?is_bounded@_Num_int_base@std@@2_NB DB 01H		; std::_Num_int_base::is_bounded
CONST	ENDS
;	COMDAT ?radix@_Num_base@std@@2HB
CONST	SEGMENT
?radix@_Num_base@std@@2HB DD 00H			; std::_Num_base::radix
CONST	ENDS
;	COMDAT ?min_exponent10@_Num_base@std@@2HB
CONST	SEGMENT
?min_exponent10@_Num_base@std@@2HB DD 00H		; std::_Num_base::min_exponent10
CONST	ENDS
;	COMDAT ?min_exponent@_Num_base@std@@2HB
CONST	SEGMENT
?min_exponent@_Num_base@std@@2HB DD 00H			; std::_Num_base::min_exponent
CONST	ENDS
;	COMDAT ?max_exponent10@_Num_base@std@@2HB
CONST	SEGMENT
?max_exponent10@_Num_base@std@@2HB DD 00H		; std::_Num_base::max_exponent10
CONST	ENDS
;	COMDAT ?max_exponent@_Num_base@std@@2HB
CONST	SEGMENT
?max_exponent@_Num_base@std@@2HB DD 00H			; std::_Num_base::max_exponent
CONST	ENDS
;	COMDAT _IID_ID3D11ShaderReflection
CONST	SEGMENT
_IID_ID3D11ShaderReflection DD 08d536ca1H
	DW	0ccaH
	DW	04956H
	DB	0a8H
	DB	037H
	DB	078H
	DB	069H
	DB	063H
	DB	075H
	DB	055H
	DB	084H
CONST	ENDS
;	COMDAT ?value@?$integral_constant@I$07@std@@2IB
CONST	SEGMENT
?value@?$integral_constant@I$07@std@@2IB DD 08H		; std::integral_constant<unsigned int,8>::value
CONST	ENDS
;	COMDAT ?YellowGreen@Colors@DirectX@@3UXMVECTORF32@2@B
CONST	SEGMENT
?YellowGreen@Colors@DirectX@@3UXMVECTORF32@2@B DD 03f1a9a9br ; 0.603922 ; DirectX::Colors::YellowGreen
	DD	03f4dcdcfr			; 0.803922
	DD	03e48c8car			; 0.196078
	DD	03f800000r			; 1
CONST	ENDS
;	COMDAT ?Yellow@Colors@DirectX@@3UXMVECTORF32@2@B
CONST	SEGMENT
?Yellow@Colors@DirectX@@3UXMVECTORF32@2@B DD 03f800000r ; 1 ; DirectX::Colors::Yellow
	DD	03f800000r			; 1
	DD	000000000r			; 0
	DD	03f800000r			; 1
CONST	ENDS
;	COMDAT ?max_digits10@_Num_base@std@@2HB
CONST	SEGMENT
?max_digits10@_Num_base@std@@2HB DD 00H			; std::_Num_base::max_digits10
CONST	ENDS
;	COMDAT ?WhiteSmoke@Colors@DirectX@@3UXMVECTORF32@2@B
CONST	SEGMENT
?WhiteSmoke@Colors@DirectX@@3UXMVECTORF32@2@B DD 03f75f5f7r ; 0.960784 ; DirectX::Colors::WhiteSmoke
	DD	03f75f5f7r			; 0.960784
	DD	03f75f5f7r			; 0.960784
	DD	03f800000r			; 1
CONST	ENDS
CONST	SEGMENT
$SG191541 DB	'p', 00H, 'd', 00H, '3', 00H, 'd', 00H, 'D', 00H, 'e', 00H
	DB	'v', 00H, 'i', 00H, 'c', 00H, 'e', 00H, '-', 00H, '>', 00H, 'C'
	DB	00H, 'r', 00H, 'e', 00H, 'a', 00H, 't', 00H, 'e', 00H, 'B', 00H
	DB	'u', 00H, 'f', 00H, 'f', 00H, 'e', 00H, 'r', 00H, '(', 00H, '&'
	DB	00H, 'b', 00H, 'u', 00H, 'f', 00H, 'f', 00H, 'e', 00H, 'r', 00H
	DB	'D', 00H, 'e', 00H, 's', 00H, 'c', 00H, ',', 00H, ' ', 00H, '('
	DB	00H, 'p', 00H, 'I', 00H, 'n', 00H, 'i', 00H, 't', 00H, 'i', 00H
	DB	'a', 00H, 'l', 00H, 'D', 00H, 'a', 00H, 't', 00H, 'a', 00H, ')'
	DB	00H, ' ', 00H, '?', 00H, ' ', 00H, '&', 00H, 'b', 00H, 'u', 00H
	DB	'f', 00H, 'f', 00H, 'e', 00H, 'r', 00H, 'I', 00H, 'n', 00H, 'i'
	DB	00H, 't', 00H, 'D', 00H, 'a', 00H, 't', 00H, 'a', 00H, ' ', 00H
	DB	':', 00H, ' ', 00H, 'n', 00H, 'u', 00H, 'l', 00H, 'l', 00H, 'p'
	DB	00H, 't', 00H, 'r', 00H, ',', 00H, ' ', 00H, 'p', 00H, 'p', 00H
	DB	'B', 00H, 'u', 00H, 'f', 00H, 'f', 00H, 'e', 00H, 'r', 00H, ')'
	DB	00H, 00H, 00H
$SG191542 DB	'FluidCS11.cpp', 00H
	ORG $+2
$SG191547 DB	'p', 00H, 'd', 00H, '3', 00H, 'd', 00H, 'D', 00H, 'e', 00H
	DB	'v', 00H, 'i', 00H, 'c', 00H, 'e', 00H, '-', 00H, '>', 00H, 'C'
	DB	00H, 'r', 00H, 'e', 00H, 'a', 00H, 't', 00H, 'e', 00H, 'S', 00H
	DB	'h', 00H, 'a', 00H, 'd', 00H, 'e', 00H, 'r', 00H, 'R', 00H, 'e'
	DB	00H, 's', 00H, 'o', 00H, 'u', 00H, 'r', 00H, 'c', 00H, 'e', 00H
	DB	'V', 00H, 'i', 00H, 'e', 00H, 'w', 00H, '(', 00H, '*', 00H, 'p'
	DB	00H, 'p', 00H, 'B', 00H, 'u', 00H, 'f', 00H, 'f', 00H, 'e', 00H
	DB	'r', 00H, ',', 00H, ' ', 00H, '&', 00H, 's', 00H, 'r', 00H, 'v'
	DB	00H, 'D', 00H, 'e', 00H, 's', 00H, 'c', 00H, ',', 00H, ' ', 00H
	DB	'p', 00H, 'p', 00H, 'S', 00H, 'R', 00H, 'V', 00H, ')', 00H, 00H
	DB	00H
	ORG $+2
$SG191548 DB	'FluidCS11.cpp', 00H
	ORG $+2
$SG189738 DB	' : ', 00H
$SG191553 DB	'p', 00H, 'd', 00H, '3', 00H, 'd', 00H, 'D', 00H, 'e', 00H
	DB	'v', 00H, 'i', 00H, 'c', 00H, 'e', 00H, '-', 00H, '>', 00H, 'C'
	DB	00H, 'r', 00H, 'e', 00H, 'a', 00H, 't', 00H, 'e', 00H, 'U', 00H
	DB	'n', 00H, 'o', 00H, 'r', 00H, 'd', 00H, 'e', 00H, 'r', 00H, 'e'
	DB	00H, 'd', 00H, 'A', 00H, 'c', 00H, 'c', 00H, 'e', 00H, 's', 00H
	DB	's', 00H, 'V', 00H, 'i', 00H, 'e', 00H, 'w', 00H, '(', 00H, '*'
	DB	00H, 'p', 00H, 'p', 00H, 'B', 00H, 'u', 00H, 'f', 00H, 'f', 00H
	DB	'e', 00H, 'r', 00H, ',', 00H, ' ', 00H, '&', 00H, 'u', 00H, 'a'
	DB	00H, 'v', 00H, 'D', 00H, 'e', 00H, 's', 00H, 'c', 00H, ',', 00H
	DB	' ', 00H, 'p', 00H, 'p', 00H, 'U', 00H, 'A', 00H, 'V', 00H, ')'
	DB	00H, 00H, 00H
$SG191554 DB	'FluidCS11.cpp', 00H
	ORG $+2
$SG189766 DB	0aH, 00H
	ORG $+2
$SG191568 DB	'p', 00H, 'd', 00H, '3', 00H, 'd', 00H, 'D', 00H, 'e', 00H
	DB	'v', 00H, 'i', 00H, 'c', 00H, 'e', 00H, '-', 00H, '>', 00H, 'C'
	DB	00H, 'r', 00H, 'e', 00H, 'a', 00H, 't', 00H, 'e', 00H, 'B', 00H
	DB	'u', 00H, 'f', 00H, 'f', 00H, 'e', 00H, 'r', 00H, '(', 00H, '&'
	DB	00H, 'b', 00H, 'u', 00H, 'f', 00H, 'f', 00H, 'e', 00H, 'r', 00H
	DB	'D', 00H, 'e', 00H, 's', 00H, 'c', 00H, ',', 00H, ' ', 00H, '('
	DB	00H, 'p', 00H, 'I', 00H, 'n', 00H, 'i', 00H, 't', 00H, 'i', 00H
	DB	'a', 00H, 'l', 00H, 'D', 00H, 'a', 00H, 't', 00H, 'a', 00H, ')'
	DB	00H, ' ', 00H, '?', 00H, ' ', 00H, '&', 00H, 'b', 00H, 'u', 00H
	DB	'f', 00H, 'f', 00H, 'e', 00H, 'r', 00H, 'I', 00H, 'n', 00H, 'i'
	DB	00H, 't', 00H, 'D', 00H, 'a', 00H, 't', 00H, 'a', 00H, ' ', 00H
	DB	':', 00H, ' ', 00H, 'n', 00H, 'u', 00H, 'l', 00H, 'l', 00H, 'p'
	DB	00H, 't', 00H, 'r', 00H, ',', 00H, ' ', 00H, 'p', 00H, 'p', 00H
	DB	'B', 00H, 'u', 00H, 'f', 00H, 'f', 00H, 'e', 00H, 'r', 00H, ')'
	DB	00H, 00H, 00H
$SG191569 DB	'FluidCS11.cpp', 00H
	ORG $+2
$SG191574 DB	'p', 00H, 'd', 00H, '3', 00H, 'd', 00H, 'D', 00H, 'e', 00H
	DB	'v', 00H, 'i', 00H, 'c', 00H, 'e', 00H, '-', 00H, '>', 00H, 'C'
	DB	00H, 'r', 00H, 'e', 00H, 'a', 00H, 't', 00H, 'e', 00H, 'S', 00H
	DB	'h', 00H, 'a', 00H, 'd', 00H, 'e', 00H, 'r', 00H, 'R', 00H, 'e'
	DB	00H, 's', 00H, 'o', 00H, 'u', 00H, 'r', 00H, 'c', 00H, 'e', 00H
	DB	'V', 00H, 'i', 00H, 'e', 00H, 'w', 00H, '(', 00H, '*', 00H, 'p'
	DB	00H, 'p', 00H, 'B', 00H, 'u', 00H, 'f', 00H, 'f', 00H, 'e', 00H
	DB	'r', 00H, ',', 00H, ' ', 00H, '&', 00H, 's', 00H, 'r', 00H, 'v'
	DB	00H, 'D', 00H, 'e', 00H, 's', 00H, 'c', 00H, ',', 00H, ' ', 00H
	DB	'p', 00H, 'p', 00H, 'S', 00H, 'R', 00H, 'V', 00H, ')', 00H, 00H
	DB	00H
	ORG $+2
$SG191575 DB	'FluidCS11.cpp', 00H
	ORG $+2
$SG189785 DB	'Particles', 00H
	ORG $+2
$SG191580 DB	'p', 00H, 'd', 00H, '3', 00H, 'd', 00H, 'D', 00H, 'e', 00H
	DB	'v', 00H, 'i', 00H, 'c', 00H, 'e', 00H, '-', 00H, '>', 00H, 'C'
	DB	00H, 'r', 00H, 'e', 00H, 'a', 00H, 't', 00H, 'e', 00H, 'U', 00H
	DB	'n', 00H, 'o', 00H, 'r', 00H, 'd', 00H, 'e', 00H, 'r', 00H, 'e'
	DB	00H, 'd', 00H, 'A', 00H, 'c', 00H, 'c', 00H, 'e', 00H, 's', 00H
	DB	's', 00H, 'V', 00H, 'i', 00H, 'e', 00H, 'w', 00H, '(', 00H, '*'
	DB	00H, 'p', 00H, 'p', 00H, 'B', 00H, 'u', 00H, 'f', 00H, 'f', 00H
	DB	'e', 00H, 'r', 00H, ',', 00H, ' ', 00H, '&', 00H, 'u', 00H, 'a'
	DB	00H, 'v', 00H, 'D', 00H, 'e', 00H, 's', 00H, 'c', 00H, ',', 00H
	DB	' ', 00H, 'p', 00H, 'p', 00H, 'U', 00H, 'A', 00H, 'V', 00H, ')'
	DB	00H, 00H, 00H
$SG191581 DB	'FluidCS11.cpp', 00H
	ORG $+2
$SG189795 DB	'Sorted', 00H
	ORG $+1
$SG189796 DB	'Sorted SRV', 00H
	ORG $+1
$SG191595 DB	'p', 00H, 'd', 00H, '3', 00H, 'd', 00H, 'D', 00H, 'e', 00H
	DB	'v', 00H, 'i', 00H, 'c', 00H, 'e', 00H, '-', 00H, '>', 00H, 'C'
	DB	00H, 'r', 00H, 'e', 00H, 'a', 00H, 't', 00H, 'e', 00H, 'B', 00H
	DB	'u', 00H, 'f', 00H, 'f', 00H, 'e', 00H, 'r', 00H, '(', 00H, '&'
	DB	00H, 'b', 00H, 'u', 00H, 'f', 00H, 'f', 00H, 'e', 00H, 'r', 00H
	DB	'D', 00H, 'e', 00H, 's', 00H, 'c', 00H, ',', 00H, ' ', 00H, '('
	DB	00H, 'p', 00H, 'I', 00H, 'n', 00H, 'i', 00H, 't', 00H, 'i', 00H
	DB	'a', 00H, 'l', 00H, 'D', 00H, 'a', 00H, 't', 00H, 'a', 00H, ')'
	DB	00H, ' ', 00H, '?', 00H, ' ', 00H, '&', 00H, 'b', 00H, 'u', 00H
	DB	'f', 00H, 'f', 00H, 'e', 00H, 'r', 00H, 'I', 00H, 'n', 00H, 'i'
	DB	00H, 't', 00H, 'D', 00H, 'a', 00H, 't', 00H, 'a', 00H, ' ', 00H
	DB	':', 00H, ' ', 00H, 'n', 00H, 'u', 00H, 'l', 00H, 'l', 00H, 'p'
	DB	00H, 't', 00H, 'r', 00H, ',', 00H, ' ', 00H, 'p', 00H, 'p', 00H
	DB	'B', 00H, 'u', 00H, 'f', 00H, 'f', 00H, 'e', 00H, 'r', 00H, ')'
	DB	00H, 00H, 00H
$SG191596 DB	'FluidCS11.cpp', 00H
	ORG $+2
$SG191601 DB	'p', 00H, 'd', 00H, '3', 00H, 'd', 00H, 'D', 00H, 'e', 00H
	DB	'v', 00H, 'i', 00H, 'c', 00H, 'e', 00H, '-', 00H, '>', 00H, 'C'
	DB	00H, 'r', 00H, 'e', 00H, 'a', 00H, 't', 00H, 'e', 00H, 'S', 00H
	DB	'h', 00H, 'a', 00H, 'd', 00H, 'e', 00H, 'r', 00H, 'R', 00H, 'e'
	DB	00H, 's', 00H, 'o', 00H, 'u', 00H, 'r', 00H, 'c', 00H, 'e', 00H
	DB	'V', 00H, 'i', 00H, 'e', 00H, 'w', 00H, '(', 00H, '*', 00H, 'p'
	DB	00H, 'p', 00H, 'B', 00H, 'u', 00H, 'f', 00H, 'f', 00H, 'e', 00H
	DB	'r', 00H, ',', 00H, ' ', 00H, '&', 00H, 's', 00H, 'r', 00H, 'v'
	DB	00H, 'D', 00H, 'e', 00H, 's', 00H, 'c', 00H, ',', 00H, ' ', 00H
	DB	'p', 00H, 'p', 00H, 'S', 00H, 'R', 00H, 'V', 00H, ')', 00H, 00H
	DB	00H
	ORG $+2
$SG191602 DB	'FluidCS11.cpp', 00H
	ORG $+2
$SG189797 DB	'Sorted UAV', 00H
	ORG $+1
$SG191607 DB	'p', 00H, 'd', 00H, '3', 00H, 'd', 00H, 'D', 00H, 'e', 00H
	DB	'v', 00H, 'i', 00H, 'c', 00H, 'e', 00H, '-', 00H, '>', 00H, 'C'
	DB	00H, 'r', 00H, 'e', 00H, 'a', 00H, 't', 00H, 'e', 00H, 'U', 00H
	DB	'n', 00H, 'o', 00H, 'r', 00H, 'd', 00H, 'e', 00H, 'r', 00H, 'e'
	DB	00H, 'd', 00H, 'A', 00H, 'c', 00H, 'c', 00H, 'e', 00H, 's', 00H
	DB	's', 00H, 'V', 00H, 'i', 00H, 'e', 00H, 'w', 00H, '(', 00H, '*'
	DB	00H, 'p', 00H, 'p', 00H, 'B', 00H, 'u', 00H, 'f', 00H, 'f', 00H
	DB	'e', 00H, 'r', 00H, ',', 00H, ' ', 00H, '&', 00H, 'u', 00H, 'a'
	DB	00H, 'v', 00H, 'D', 00H, 'e', 00H, 's', 00H, 'c', 00H, ',', 00H
	DB	' ', 00H, 'p', 00H, 'p', 00H, 'U', 00H, 'A', 00H, 'V', 00H, ')'
	DB	00H, 00H, 00H
$SG191608 DB	'FluidCS11.cpp', 00H
	ORG $+2
$SG189814 DB	'Forces', 00H
	ORG $+1
$SG189815 DB	'Forces SRV', 00H
	ORG $+1
$SG191622 DB	'p', 00H, 'd', 00H, '3', 00H, 'd', 00H, 'D', 00H, 'e', 00H
	DB	'v', 00H, 'i', 00H, 'c', 00H, 'e', 00H, '-', 00H, '>', 00H, 'C'
	DB	00H, 'r', 00H, 'e', 00H, 'a', 00H, 't', 00H, 'e', 00H, 'B', 00H
	DB	'u', 00H, 'f', 00H, 'f', 00H, 'e', 00H, 'r', 00H, '(', 00H, '&'
	DB	00H, 'b', 00H, 'u', 00H, 'f', 00H, 'f', 00H, 'e', 00H, 'r', 00H
	DB	'D', 00H, 'e', 00H, 's', 00H, 'c', 00H, ',', 00H, ' ', 00H, '('
	DB	00H, 'p', 00H, 'I', 00H, 'n', 00H, 'i', 00H, 't', 00H, 'i', 00H
	DB	'a', 00H, 'l', 00H, 'D', 00H, 'a', 00H, 't', 00H, 'a', 00H, ')'
	DB	00H, ' ', 00H, '?', 00H, ' ', 00H, '&', 00H, 'b', 00H, 'u', 00H
	DB	'f', 00H, 'f', 00H, 'e', 00H, 'r', 00H, 'I', 00H, 'n', 00H, 'i'
	DB	00H, 't', 00H, 'D', 00H, 'a', 00H, 't', 00H, 'a', 00H, ' ', 00H
	DB	':', 00H, ' ', 00H, 'n', 00H, 'u', 00H, 'l', 00H, 'l', 00H, 'p'
	DB	00H, 't', 00H, 'r', 00H, ',', 00H, ' ', 00H, 'p', 00H, 'p', 00H
	DB	'B', 00H, 'u', 00H, 'f', 00H, 'f', 00H, 'e', 00H, 'r', 00H, ')'
	DB	00H, 00H, 00H
$SG191623 DB	'FluidCS11.cpp', 00H
	ORG $+2
$SG191628 DB	'p', 00H, 'd', 00H, '3', 00H, 'd', 00H, 'D', 00H, 'e', 00H
	DB	'v', 00H, 'i', 00H, 'c', 00H, 'e', 00H, '-', 00H, '>', 00H, 'C'
	DB	00H, 'r', 00H, 'e', 00H, 'a', 00H, 't', 00H, 'e', 00H, 'S', 00H
	DB	'h', 00H, 'a', 00H, 'd', 00H, 'e', 00H, 'r', 00H, 'R', 00H, 'e'
	DB	00H, 's', 00H, 'o', 00H, 'u', 00H, 'r', 00H, 'c', 00H, 'e', 00H
	DB	'V', 00H, 'i', 00H, 'e', 00H, 'w', 00H, '(', 00H, '*', 00H, 'p'
	DB	00H, 'p', 00H, 'B', 00H, 'u', 00H, 'f', 00H, 'f', 00H, 'e', 00H
	DB	'r', 00H, ',', 00H, ' ', 00H, '&', 00H, 's', 00H, 'r', 00H, 'v'
	DB	00H, 'D', 00H, 'e', 00H, 's', 00H, 'c', 00H, ',', 00H, ' ', 00H
	DB	'p', 00H, 'p', 00H, 'S', 00H, 'R', 00H, 'V', 00H, ')', 00H, 00H
	DB	00H
	ORG $+2
$SG191629 DB	'FluidCS11.cpp', 00H
	ORG $+2
$SG189816 DB	'Forces UAV', 00H
	ORG $+1
$SG191634 DB	'p', 00H, 'd', 00H, '3', 00H, 'd', 00H, 'D', 00H, 'e', 00H
	DB	'v', 00H, 'i', 00H, 'c', 00H, 'e', 00H, '-', 00H, '>', 00H, 'C'
	DB	00H, 'r', 00H, 'e', 00H, 'a', 00H, 't', 00H, 'e', 00H, 'U', 00H
	DB	'n', 00H, 'o', 00H, 'r', 00H, 'd', 00H, 'e', 00H, 'r', 00H, 'e'
	DB	00H, 'd', 00H, 'A', 00H, 'c', 00H, 'c', 00H, 'e', 00H, 's', 00H
	DB	's', 00H, 'V', 00H, 'i', 00H, 'e', 00H, 'w', 00H, '(', 00H, '*'
	DB	00H, 'p', 00H, 'p', 00H, 'B', 00H, 'u', 00H, 'f', 00H, 'f', 00H
	DB	'e', 00H, 'r', 00H, ',', 00H, ' ', 00H, '&', 00H, 'u', 00H, 'a'
	DB	00H, 'v', 00H, 'D', 00H, 'e', 00H, 's', 00H, 'c', 00H, ',', 00H
	DB	' ', 00H, 'p', 00H, 'p', 00H, 'U', 00H, 'A', 00H, 'V', 00H, ')'
	DB	00H, 00H, 00H
$SG191635 DB	'FluidCS11.cpp', 00H
	ORG $+2
$SG189833 DB	'Density', 00H
$SG189834 DB	'Density SRV', 00H
$SG191649 DB	'p', 00H, 'd', 00H, '3', 00H, 'd', 00H, 'D', 00H, 'e', 00H
	DB	'v', 00H, 'i', 00H, 'c', 00H, 'e', 00H, '-', 00H, '>', 00H, 'C'
	DB	00H, 'r', 00H, 'e', 00H, 'a', 00H, 't', 00H, 'e', 00H, 'B', 00H
	DB	'u', 00H, 'f', 00H, 'f', 00H, 'e', 00H, 'r', 00H, '(', 00H, '&'
	DB	00H, 'b', 00H, 'u', 00H, 'f', 00H, 'f', 00H, 'e', 00H, 'r', 00H
	DB	'D', 00H, 'e', 00H, 's', 00H, 'c', 00H, ',', 00H, ' ', 00H, '('
	DB	00H, 'p', 00H, 'I', 00H, 'n', 00H, 'i', 00H, 't', 00H, 'i', 00H
	DB	'a', 00H, 'l', 00H, 'D', 00H, 'a', 00H, 't', 00H, 'a', 00H, ')'
	DB	00H, ' ', 00H, '?', 00H, ' ', 00H, '&', 00H, 'b', 00H, 'u', 00H
	DB	'f', 00H, 'f', 00H, 'e', 00H, 'r', 00H, 'I', 00H, 'n', 00H, 'i'
	DB	00H, 't', 00H, 'D', 00H, 'a', 00H, 't', 00H, 'a', 00H, ' ', 00H
	DB	':', 00H, ' ', 00H, 'n', 00H, 'u', 00H, 'l', 00H, 'l', 00H, 'p'
	DB	00H, 't', 00H, 'r', 00H, ',', 00H, ' ', 00H, 'p', 00H, 'p', 00H
	DB	'B', 00H, 'u', 00H, 'f', 00H, 'f', 00H, 'e', 00H, 'r', 00H, ')'
	DB	00H, 00H, 00H
$SG191650 DB	'FluidCS11.cpp', 00H
	ORG $+2
$SG191655 DB	'p', 00H, 'd', 00H, '3', 00H, 'd', 00H, 'D', 00H, 'e', 00H
	DB	'v', 00H, 'i', 00H, 'c', 00H, 'e', 00H, '-', 00H, '>', 00H, 'C'
	DB	00H, 'r', 00H, 'e', 00H, 'a', 00H, 't', 00H, 'e', 00H, 'S', 00H
	DB	'h', 00H, 'a', 00H, 'd', 00H, 'e', 00H, 'r', 00H, 'R', 00H, 'e'
	DB	00H, 's', 00H, 'o', 00H, 'u', 00H, 'r', 00H, 'c', 00H, 'e', 00H
	DB	'V', 00H, 'i', 00H, 'e', 00H, 'w', 00H, '(', 00H, '*', 00H, 'p'
	DB	00H, 'p', 00H, 'B', 00H, 'u', 00H, 'f', 00H, 'f', 00H, 'e', 00H
	DB	'r', 00H, ',', 00H, ' ', 00H, '&', 00H, 's', 00H, 'r', 00H, 'v'
	DB	00H, 'D', 00H, 'e', 00H, 's', 00H, 'c', 00H, ',', 00H, ' ', 00H
	DB	'p', 00H, 'p', 00H, 'S', 00H, 'R', 00H, 'V', 00H, ')', 00H, 00H
	DB	00H
	ORG $+2
$SG191656 DB	'FluidCS11.cpp', 00H
	ORG $+2
$SG189835 DB	'Density UAV', 00H
$SG191661 DB	'p', 00H, 'd', 00H, '3', 00H, 'd', 00H, 'D', 00H, 'e', 00H
	DB	'v', 00H, 'i', 00H, 'c', 00H, 'e', 00H, '-', 00H, '>', 00H, 'C'
	DB	00H, 'r', 00H, 'e', 00H, 'a', 00H, 't', 00H, 'e', 00H, 'U', 00H
	DB	'n', 00H, 'o', 00H, 'r', 00H, 'd', 00H, 'e', 00H, 'r', 00H, 'e'
	DB	00H, 'd', 00H, 'A', 00H, 'c', 00H, 'c', 00H, 'e', 00H, 's', 00H
	DB	's', 00H, 'V', 00H, 'i', 00H, 'e', 00H, 'w', 00H, '(', 00H, '*'
	DB	00H, 'p', 00H, 'p', 00H, 'B', 00H, 'u', 00H, 'f', 00H, 'f', 00H
	DB	'e', 00H, 'r', 00H, ',', 00H, ' ', 00H, '&', 00H, 'u', 00H, 'a'
	DB	00H, 'v', 00H, 'D', 00H, 'e', 00H, 's', 00H, 'c', 00H, ',', 00H
	DB	' ', 00H, 'p', 00H, 'p', 00H, 'U', 00H, 'A', 00H, 'V', 00H, ')'
	DB	00H, 00H, 00H
$SG191662 DB	'FluidCS11.cpp', 00H
	ORG $+2
_g_pNullSRV DD	00H
$SG191676 DB	'p', 00H, 'd', 00H, '3', 00H, 'd', 00H, 'D', 00H, 'e', 00H
	DB	'v', 00H, 'i', 00H, 'c', 00H, 'e', 00H, '-', 00H, '>', 00H, 'C'
	DB	00H, 'r', 00H, 'e', 00H, 'a', 00H, 't', 00H, 'e', 00H, 'B', 00H
	DB	'u', 00H, 'f', 00H, 'f', 00H, 'e', 00H, 'r', 00H, '(', 00H, '&'
	DB	00H, 'b', 00H, 'u', 00H, 'f', 00H, 'f', 00H, 'e', 00H, 'r', 00H
	DB	'D', 00H, 'e', 00H, 's', 00H, 'c', 00H, ',', 00H, ' ', 00H, '('
	DB	00H, 'p', 00H, 'I', 00H, 'n', 00H, 'i', 00H, 't', 00H, 'i', 00H
	DB	'a', 00H, 'l', 00H, 'D', 00H, 'a', 00H, 't', 00H, 'a', 00H, ')'
	DB	00H, ' ', 00H, '?', 00H, ' ', 00H, '&', 00H, 'b', 00H, 'u', 00H
	DB	'f', 00H, 'f', 00H, 'e', 00H, 'r', 00H, 'I', 00H, 'n', 00H, 'i'
	DB	00H, 't', 00H, 'D', 00H, 'a', 00H, 't', 00H, 'a', 00H, ' ', 00H
	DB	':', 00H, ' ', 00H, 'n', 00H, 'u', 00H, 'l', 00H, 'l', 00H, 'p'
	DB	00H, 't', 00H, 'r', 00H, ',', 00H, ' ', 00H, 'p', 00H, 'p', 00H
	DB	'B', 00H, 'u', 00H, 'f', 00H, 'f', 00H, 'e', 00H, 'r', 00H, ')'
	DB	00H, 00H, 00H
$SG191677 DB	'FluidCS11.cpp', 00H
	ORG $+2
$SG191682 DB	'p', 00H, 'd', 00H, '3', 00H, 'd', 00H, 'D', 00H, 'e', 00H
	DB	'v', 00H, 'i', 00H, 'c', 00H, 'e', 00H, '-', 00H, '>', 00H, 'C'
	DB	00H, 'r', 00H, 'e', 00H, 'a', 00H, 't', 00H, 'e', 00H, 'S', 00H
	DB	'h', 00H, 'a', 00H, 'd', 00H, 'e', 00H, 'r', 00H, 'R', 00H, 'e'
	DB	00H, 's', 00H, 'o', 00H, 'u', 00H, 'r', 00H, 'c', 00H, 'e', 00H
	DB	'V', 00H, 'i', 00H, 'e', 00H, 'w', 00H, '(', 00H, '*', 00H, 'p'
	DB	00H, 'p', 00H, 'B', 00H, 'u', 00H, 'f', 00H, 'f', 00H, 'e', 00H
	DB	'r', 00H, ',', 00H, ' ', 00H, '&', 00H, 's', 00H, 'r', 00H, 'v'
	DB	00H, 'D', 00H, 'e', 00H, 's', 00H, 'c', 00H, ',', 00H, ' ', 00H
	DB	'p', 00H, 'p', 00H, 'S', 00H, 'R', 00H, 'V', 00H, ')', 00H, 00H
	DB	00H
	ORG $+2
$SG191683 DB	'FluidCS11.cpp', 00H
	ORG $+2
_g_pNullUAV DD	00H
$SG191688 DB	'p', 00H, 'd', 00H, '3', 00H, 'd', 00H, 'D', 00H, 'e', 00H
	DB	'v', 00H, 'i', 00H, 'c', 00H, 'e', 00H, '-', 00H, '>', 00H, 'C'
	DB	00H, 'r', 00H, 'e', 00H, 'a', 00H, 't', 00H, 'e', 00H, 'U', 00H
	DB	'n', 00H, 'o', 00H, 'r', 00H, 'd', 00H, 'e', 00H, 'r', 00H, 'e'
	DB	00H, 'd', 00H, 'A', 00H, 'c', 00H, 'c', 00H, 'e', 00H, 's', 00H
	DB	's', 00H, 'V', 00H, 'i', 00H, 'e', 00H, 'w', 00H, '(', 00H, '*'
	DB	00H, 'p', 00H, 'p', 00H, 'B', 00H, 'u', 00H, 'f', 00H, 'f', 00H
	DB	'e', 00H, 'r', 00H, ',', 00H, ' ', 00H, '&', 00H, 'u', 00H, 'a'
	DB	00H, 'v', 00H, 'D', 00H, 'e', 00H, 's', 00H, 'c', 00H, ',', 00H
	DB	' ', 00H, 'p', 00H, 'p', 00H, 'U', 00H, 'A', 00H, 'V', 00H, ')'
	DB	00H, 00H, 00H
$SG191689 DB	'FluidCS11.cpp', 00H
	ORG $+2
$SG189853 DB	'Grid SRV', 00H
	ORG $+3
$SG191698 DB	'p', 00H, 'd', 00H, '3', 00H, 'd', 00H, 'D', 00H, 'e', 00H
	DB	'v', 00H, 'i', 00H, 'c', 00H, 'e', 00H, '-', 00H, '>', 00H, 'C'
	DB	00H, 'r', 00H, 'e', 00H, 'a', 00H, 't', 00H, 'e', 00H, 'B', 00H
	DB	'u', 00H, 'f', 00H, 'f', 00H, 'e', 00H, 'r', 00H, '(', 00H, '&'
	DB	00H, 'D', 00H, 'e', 00H, 's', 00H, 'c', 00H, ',', 00H, ' ', 00H
	DB	'n', 00H, 'u', 00H, 'l', 00H, 'l', 00H, 'p', 00H, 't', 00H, 'r'
	DB	00H, ',', 00H, ' ', 00H, 'p', 00H, 'p', 00H, 'C', 00H, 'B', 00H
	DB	')', 00H, 00H, 00H
	ORG $+2
$SG191699 DB	'FluidCS11.cpp', 00H
	ORG $+2
$SG191708 DB	'p', 00H, 'd', 00H, '3', 00H, 'd', 00H, 'D', 00H, 'e', 00H
	DB	'v', 00H, 'i', 00H, 'c', 00H, 'e', 00H, '-', 00H, '>', 00H, 'C'
	DB	00H, 'r', 00H, 'e', 00H, 'a', 00H, 't', 00H, 'e', 00H, 'B', 00H
	DB	'u', 00H, 'f', 00H, 'f', 00H, 'e', 00H, 'r', 00H, '(', 00H, '&'
	DB	00H, 'D', 00H, 'e', 00H, 's', 00H, 'c', 00H, ',', 00H, ' ', 00H
	DB	'n', 00H, 'u', 00H, 'l', 00H, 'l', 00H, 'p', 00H, 't', 00H, 'r'
	DB	00H, ',', 00H, ' ', 00H, 'p', 00H, 'p', 00H, 'C', 00H, 'B', 00H
	DB	')', 00H, 00H, 00H
	ORG $+2
$SG191709 DB	'FluidCS11.cpp', 00H
	ORG $+2
$SG191718 DB	'p', 00H, 'd', 00H, '3', 00H, 'd', 00H, 'D', 00H, 'e', 00H
	DB	'v', 00H, 'i', 00H, 'c', 00H, 'e', 00H, '-', 00H, '>', 00H, 'C'
	DB	00H, 'r', 00H, 'e', 00H, 'a', 00H, 't', 00H, 'e', 00H, 'B', 00H
	DB	'u', 00H, 'f', 00H, 'f', 00H, 'e', 00H, 'r', 00H, '(', 00H, '&'
	DB	00H, 'D', 00H, 'e', 00H, 's', 00H, 'c', 00H, ',', 00H, ' ', 00H
	DB	'n', 00H, 'u', 00H, 'l', 00H, 'l', 00H, 'p', 00H, 't', 00H, 'r'
	DB	00H, ',', 00H, ' ', 00H, 'p', 00H, 'p', 00H, 'C', 00H, 'B', 00H
	DB	')', 00H, 00H, 00H
	ORG $+2
$SG191719 DB	'FluidCS11.cpp', 00H
	ORG $+2
$SG189691 DB	'POS: ', 00H
	ORG $+2
$SG189783 DB	'C', 00H, 'r', 00H, 'e', 00H, 'a', 00H, 't', 00H, 'e', 00H
	DB	'S', 00H, 't', 00H, 'r', 00H, 'u', 00H, 'c', 00H, 't', 00H, 'u'
	DB	00H, 'r', 00H, 'e', 00H, 'd', 00H, 'B', 00H, 'u', 00H, 'f', 00H
	DB	'f', 00H, 'e', 00H, 'r', 00H, '<', 00H, ' ', 00H, 'P', 00H, 'a'
	DB	00H, 'r', 00H, 't', 00H, 'i', 00H, 'c', 00H, 'l', 00H, 'e', 00H
	DB	' ', 00H, '>', 00H, '(', 00H, 'g', 00H, '_', 00H, 'i', 00H, 'N'
	DB	00H, 'u', 00H, 'm', 00H, 'P', 00H, 'a', 00H, 'r', 00H, 't', 00H
	DB	'i', 00H, 'c', 00H, 'l', 00H, 'e', 00H, 's', 00H, ',', 00H, ' '
	DB	00H, '&', 00H, 'g', 00H, '_', 00H, 'p', 00H, 'P', 00H, 'a', 00H
	DB	'r', 00H, 't', 00H, 'i', 00H, 'c', 00H, 'l', 00H, 'e', 00H, 's'
	DB	00H, ',', 00H, ' ', 00H, '&', 00H, 'g', 00H, '_', 00H, 'p', 00H
	DB	'P', 00H, 'a', 00H, 'r', 00H, 't', 00H, 'i', 00H, 'c', 00H, 'l'
	DB	00H, 'e', 00H, 's', 00H, 'S', 00H, 'R', 00H, 'V', 00H, ',', 00H
	DB	' ', 00H, '&', 00H, 'g', 00H, '_', 00H, 'p', 00H, 'P', 00H, 'a'
	DB	00H, 'r', 00H, 't', 00H, 'i', 00H, 'c', 00H, 'l', 00H, 'e', 00H
	DB	's', 00H, 'U', 00H, 'A', 00H, 'V', 00H, ',', 00H, ' ', 00H, 'p'
	DB	00H, 'a', 00H, 'r', 00H, 't', 00H, 'i', 00H, 'c', 00H, 'l', 00H
	DB	'e', 00H, 's', 00H, ')', 00H, 00H, 00H
$SG189784 DB	'FluidCS11.cpp', 00H
	ORG $+2
$SG189786 DB	'Particles SRV', 00H
	ORG $+2
$SG189787 DB	'Particles UAV', 00H
	ORG $+2
$SG189854 DB	'Grid UAV', 00H
	ORG $+3
$SG189793 DB	'C', 00H, 'r', 00H, 'e', 00H, 'a', 00H, 't', 00H, 'e', 00H
	DB	'S', 00H, 't', 00H, 'r', 00H, 'u', 00H, 'c', 00H, 't', 00H, 'u'
	DB	00H, 'r', 00H, 'e', 00H, 'd', 00H, 'B', 00H, 'u', 00H, 'f', 00H
	DB	'f', 00H, 'e', 00H, 'r', 00H, '<', 00H, ' ', 00H, 'P', 00H, 'a'
	DB	00H, 'r', 00H, 't', 00H, 'i', 00H, 'c', 00H, 'l', 00H, 'e', 00H
	DB	' ', 00H, '>', 00H, '(', 00H, 'g', 00H, '_', 00H, 'i', 00H, 'N'
	DB	00H, 'u', 00H, 'm', 00H, 'P', 00H, 'a', 00H, 'r', 00H, 't', 00H
	DB	'i', 00H, 'c', 00H, 'l', 00H, 'e', 00H, 's', 00H, ',', 00H, ' '
	DB	00H, '&', 00H, 'g', 00H, '_', 00H, 'p', 00H, 'S', 00H, 'o', 00H
	DB	'r', 00H, 't', 00H, 'e', 00H, 'd', 00H, 'P', 00H, 'a', 00H, 'r'
	DB	00H, 't', 00H, 'i', 00H, 'c', 00H, 'l', 00H, 'e', 00H, 's', 00H
	DB	',', 00H, ' ', 00H, '&', 00H, 'g', 00H, '_', 00H, 'p', 00H, 'S'
	DB	00H, 'o', 00H, 'r', 00H, 't', 00H, 'e', 00H, 'd', 00H, 'P', 00H
	DB	'a', 00H, 'r', 00H, 't', 00H, 'i', 00H, 'c', 00H, 'l', 00H, 'e'
	DB	00H, 's', 00H, 'S', 00H, 'R', 00H, 'V', 00H, ',', 00H, ' ', 00H
	DB	'&', 00H, 'g', 00H, '_', 00H, 'p', 00H, 'S', 00H, 'o', 00H, 'r'
	DB	00H, 't', 00H, 'e', 00H, 'd', 00H, 'P', 00H, 'a', 00H, 'r', 00H
	DB	't', 00H, 'i', 00H, 'c', 00H, 'l', 00H, 'e', 00H, 's', 00H, 'U'
	DB	00H, 'A', 00H, 'V', 00H, ',', 00H, ' ', 00H, 'p', 00H, 'a', 00H
	DB	'r', 00H, 't', 00H, 'i', 00H, 'c', 00H, 'l', 00H, 'e', 00H, 's'
	DB	00H, ')', 00H, 00H, 00H
$SG189794 DB	'FluidCS11.cpp', 00H
	ORG $+2
$SG189812 DB	'C', 00H, 'r', 00H, 'e', 00H, 'a', 00H, 't', 00H, 'e', 00H
	DB	'S', 00H, 't', 00H, 'r', 00H, 'u', 00H, 'c', 00H, 't', 00H, 'u'
	DB	00H, 'r', 00H, 'e', 00H, 'd', 00H, 'B', 00H, 'u', 00H, 'f', 00H
	DB	'f', 00H, 'e', 00H, 'r', 00H, '<', 00H, ' ', 00H, 'P', 00H, 'a'
	DB	00H, 'r', 00H, 't', 00H, 'i', 00H, 'c', 00H, 'l', 00H, 'e', 00H
	DB	'F', 00H, 'o', 00H, 'r', 00H, 'c', 00H, 'e', 00H, 's', 00H, ' '
	DB	00H, '>', 00H, '(', 00H, 'g', 00H, '_', 00H, 'i', 00H, 'N', 00H
	DB	'u', 00H, 'm', 00H, 'P', 00H, 'a', 00H, 'r', 00H, 't', 00H, 'i'
	DB	00H, 'c', 00H, 'l', 00H, 'e', 00H, 's', 00H, ',', 00H, ' ', 00H
	DB	'&', 00H, 'g', 00H, '_', 00H, 'p', 00H, 'P', 00H, 'a', 00H, 'r'
	DB	00H, 't', 00H, 'i', 00H, 'c', 00H, 'l', 00H, 'e', 00H, 'F', 00H
	DB	'o', 00H, 'r', 00H, 'c', 00H, 'e', 00H, 's', 00H, ',', 00H, ' '
	DB	00H, '&', 00H, 'g', 00H, '_', 00H, 'p', 00H, 'P', 00H, 'a', 00H
	DB	'r', 00H, 't', 00H, 'i', 00H, 'c', 00H, 'l', 00H, 'e', 00H, 'F'
	DB	00H, 'o', 00H, 'r', 00H, 'c', 00H, 'e', 00H, 's', 00H, 'S', 00H
	DB	'R', 00H, 'V', 00H, ',', 00H, ' ', 00H, '&', 00H, 'g', 00H, '_'
	DB	00H, 'p', 00H, 'P', 00H, 'a', 00H, 'r', 00H, 't', 00H, 'i', 00H
	DB	'c', 00H, 'l', 00H, 'e', 00H, 'F', 00H, 'o', 00H, 'r', 00H, 'c'
	DB	00H, 'e', 00H, 's', 00H, 'U', 00H, 'A', 00H, 'V', 00H, ')', 00H
	DB	00H, 00H
$SG189813 DB	'FluidCS11.cpp', 00H
	ORG $+2
$SG189831 DB	'C', 00H, 'r', 00H, 'e', 00H, 'a', 00H, 't', 00H, 'e', 00H
	DB	'S', 00H, 't', 00H, 'r', 00H, 'u', 00H, 'c', 00H, 't', 00H, 'u'
	DB	00H, 'r', 00H, 'e', 00H, 'd', 00H, 'B', 00H, 'u', 00H, 'f', 00H
	DB	'f', 00H, 'e', 00H, 'r', 00H, '<', 00H, ' ', 00H, 'P', 00H, 'a'
	DB	00H, 'r', 00H, 't', 00H, 'i', 00H, 'c', 00H, 'l', 00H, 'e', 00H
	DB	'D', 00H, 'e', 00H, 'n', 00H, 's', 00H, 'i', 00H, 't', 00H, 'y'
	DB	00H, ' ', 00H, '>', 00H, '(', 00H, 'g', 00H, '_', 00H, 'i', 00H
	DB	'N', 00H, 'u', 00H, 'm', 00H, 'P', 00H, 'a', 00H, 'r', 00H, 't'
	DB	00H, 'i', 00H, 'c', 00H, 'l', 00H, 'e', 00H, 's', 00H, ',', 00H
	DB	' ', 00H, '&', 00H, 'g', 00H, '_', 00H, 'p', 00H, 'P', 00H, 'a'
	DB	00H, 'r', 00H, 't', 00H, 'i', 00H, 'c', 00H, 'l', 00H, 'e', 00H
	DB	'D', 00H, 'e', 00H, 'n', 00H, 's', 00H, 'i', 00H, 't', 00H, 'y'
	DB	00H, ',', 00H, ' ', 00H, '&', 00H, 'g', 00H, '_', 00H, 'p', 00H
	DB	'P', 00H, 'a', 00H, 'r', 00H, 't', 00H, 'i', 00H, 'c', 00H, 'l'
	DB	00H, 'e', 00H, 'D', 00H, 'e', 00H, 'n', 00H, 's', 00H, 'i', 00H
	DB	't', 00H, 'y', 00H, 'S', 00H, 'R', 00H, 'V', 00H, ',', 00H, ' '
	DB	00H, '&', 00H, 'g', 00H, '_', 00H, 'p', 00H, 'P', 00H, 'a', 00H
	DB	'r', 00H, 't', 00H, 'i', 00H, 'c', 00H, 'l', 00H, 'e', 00H, 'D'
	DB	00H, 'e', 00H, 'n', 00H, 's', 00H, 'i', 00H, 't', 00H, 'y', 00H
	DB	'U', 00H, 'A', 00H, 'V', 00H, ')', 00H, 00H, 00H
$SG189832 DB	'FluidCS11.cpp', 00H
	ORG $+2
$SG189850 DB	'C', 00H, 'r', 00H, 'e', 00H, 'a', 00H, 't', 00H, 'e', 00H
	DB	'S', 00H, 't', 00H, 'r', 00H, 'u', 00H, 'c', 00H, 't', 00H, 'u'
	DB	00H, 'r', 00H, 'e', 00H, 'd', 00H, 'B', 00H, 'u', 00H, 'f', 00H
	DB	'f', 00H, 'e', 00H, 'r', 00H, '<', 00H, ' ', 00H, 'u', 00H, '3'
	DB	00H, '2', 00H, ' ', 00H, '>', 00H, '(', 00H, 'g', 00H, '_', 00H
	DB	'i', 00H, 'N', 00H, 'u', 00H, 'm', 00H, 'P', 00H, 'a', 00H, 'r'
	DB	00H, 't', 00H, 'i', 00H, 'c', 00H, 'l', 00H, 'e', 00H, 's', 00H
	DB	',', 00H, ' ', 00H, '&', 00H, 'g', 00H, '_', 00H, 'p', 00H, 'G'
	DB	00H, 'r', 00H, 'i', 00H, 'd', 00H, ',', 00H, ' ', 00H, '&', 00H
	DB	'g', 00H, '_', 00H, 'p', 00H, 'G', 00H, 'r', 00H, 'i', 00H, 'd'
	DB	00H, 'S', 00H, 'R', 00H, 'V', 00H, ',', 00H, ' ', 00H, '&', 00H
	DB	'g', 00H, '_', 00H, 'p', 00H, 'G', 00H, 'r', 00H, 'i', 00H, 'd'
	DB	00H, 'U', 00H, 'A', 00H, 'V', 00H, ')', 00H, 00H, 00H
	ORG $+2
$SG189851 DB	'FluidCS11.cpp', 00H
	ORG $+2
$SG189852 DB	'Grid', 00H
	ORG $+3
$SG189860 DB	'C', 00H, 'r', 00H, 'e', 00H, 'a', 00H, 't', 00H, 'e', 00H
	DB	'S', 00H, 't', 00H, 'r', 00H, 'u', 00H, 'c', 00H, 't', 00H, 'u'
	DB	00H, 'r', 00H, 'e', 00H, 'd', 00H, 'B', 00H, 'u', 00H, 'f', 00H
	DB	'f', 00H, 'e', 00H, 'r', 00H, '<', 00H, ' ', 00H, 'u', 00H, '3'
	DB	00H, '2', 00H, ' ', 00H, '>', 00H, '(', 00H, 'g', 00H, '_', 00H
	DB	'i', 00H, 'N', 00H, 'u', 00H, 'm', 00H, 'P', 00H, 'a', 00H, 'r'
	DB	00H, 't', 00H, 'i', 00H, 'c', 00H, 'l', 00H, 'e', 00H, 's', 00H
	DB	',', 00H, ' ', 00H, '&', 00H, 'g', 00H, '_', 00H, 'p', 00H, 'G'
	DB	00H, 'r', 00H, 'i', 00H, 'd', 00H, 'P', 00H, 'i', 00H, 'n', 00H
	DB	'g', 00H, 'P', 00H, 'o', 00H, 'n', 00H, 'g', 00H, ',', 00H, ' '
	DB	00H, '&', 00H, 'g', 00H, '_', 00H, 'p', 00H, 'G', 00H, 'r', 00H
	DB	'i', 00H, 'd', 00H, 'P', 00H, 'i', 00H, 'n', 00H, 'g', 00H, 'P'
	DB	00H, 'o', 00H, 'n', 00H, 'g', 00H, 'S', 00H, 'R', 00H, 'V', 00H
	DB	',', 00H, ' ', 00H, '&', 00H, 'g', 00H, '_', 00H, 'p', 00H, 'G'
	DB	00H, 'r', 00H, 'i', 00H, 'd', 00H, 'P', 00H, 'i', 00H, 'n', 00H
	DB	'g', 00H, 'P', 00H, 'o', 00H, 'n', 00H, 'g', 00H, 'U', 00H, 'A'
	DB	00H, 'V', 00H, ')', 00H, 00H, 00H
	ORG $+2
$SG189861 DB	'FluidCS11.cpp', 00H
	ORG $+2
$SG189862 DB	'PingPong', 00H
	ORG $+3
$SG189863 DB	'PingPong SRV', 00H
	ORG $+3
$SG189864 DB	'PingPong UAV', 00H
	ORG $+3
$SG189880 DB	'FluidCS11.cpp', 00H
	ORG $+2
$SG189881 DB	'Indices', 00H
$SG189882 DB	'Indices SRV', 00H
$SG189879 DB	'C', 00H, 'r', 00H, 'e', 00H, 'a', 00H, 't', 00H, 'e', 00H
	DB	'S', 00H, 't', 00H, 'r', 00H, 'u', 00H, 'c', 00H, 't', 00H, 'u'
	DB	00H, 'r', 00H, 'e', 00H, 'd', 00H, 'B', 00H, 'u', 00H, 'f', 00H
	DB	'f', 00H, 'e', 00H, 'r', 00H, '<', 00H, ' ', 00H, 'u', 00H, '3'
	DB	00H, '2', 00H, '2', 00H, ' ', 00H, '>', 00H, '(', 00H, 'N', 00H
	DB	'U', 00H, 'M', 00H, '_', 00H, 'G', 00H, 'R', 00H, 'I', 00H, 'D'
	DB	00H, '_', 00H, 'I', 00H, 'N', 00H, 'D', 00H, 'I', 00H, 'C', 00H
	DB	'E', 00H, 'S', 00H, ',', 00H, ' ', 00H, '&', 00H, 'g', 00H, '_'
	DB	00H, 'p', 00H, 'G', 00H, 'r', 00H, 'i', 00H, 'd', 00H, 'I', 00H
	DB	'n', 00H, 'd', 00H, 'i', 00H, 'c', 00H, 'e', 00H, 's', 00H, ','
	DB	00H, ' ', 00H, '&', 00H, 'g', 00H, '_', 00H, 'p', 00H, 'G', 00H
	DB	'r', 00H, 'i', 00H, 'd', 00H, 'I', 00H, 'n', 00H, 'd', 00H, 'i'
	DB	00H, 'c', 00H, 'e', 00H, 's', 00H, 'S', 00H, 'R', 00H, 'V', 00H
	DB	',', 00H, ' ', 00H, '&', 00H, 'g', 00H, '_', 00H, 'p', 00H, 'G'
	DB	00H, 'r', 00H, 'i', 00H, 'd', 00H, 'I', 00H, 'n', 00H, 'd', 00H
	DB	'i', 00H, 'c', 00H, 'e', 00H, 's', 00H, 'U', 00H, 'A', 00H, 'V'
	DB	00H, ')', 00H, 00H, 00H
$SG189883 DB	'Indices UAV', 00H
$SG189941 DB	'MAIN BUFFER', 00H
$SG189942 DB	'PROCESS COMPUTE SHADER', 00H
	ORG $+1
$SG189943 DB	'PROCESS SRV', 00H
$SG189944 DB	'PROCESS UAV', 00H
$SG189967 DB	'vs_5_0', 00H
	ORG $+1
$SG189968 DB	'ParticleVS', 00H
	ORG $+1
$SG189969 DB	'P', 00H, 'a', 00H, 'r', 00H, 't', 00H, 'i', 00H, 'c', 00H
	DB	'l', 00H, 'e', 00H, 'V', 00H, 'S', 00H, '.', 00H, 'h', 00H, 'l'
	DB	00H, 's', 00H, 'l', 00H, 00H, 00H
$SG189973 DB	'D', 00H, 'X', 00H, 'U', 00H, 'T', 00H, 'C', 00H, 'o', 00H
	DB	'm', 00H, 'p', 00H, 'i', 00H, 'l', 00H, 'e', 00H, 'F', 00H, 'r'
	DB	00H, 'o', 00H, 'm', 00H, 'F', 00H, 'i', 00H, 'l', 00H, 'e', 00H
	DB	'(', 00H, 'L', 00H, '"', 00H, 'P', 00H, 'a', 00H, 'r', 00H, 't'
	DB	00H, 'i', 00H, 'c', 00H, 'l', 00H, 'e', 00H, 'V', 00H, 'S', 00H
	DB	'.', 00H, 'h', 00H, 'l', 00H, 's', 00H, 'l', 00H, '"', 00H, ','
	DB	00H, ' ', 00H, 'n', 00H, 'u', 00H, 'l', 00H, 'l', 00H, 'p', 00H
	DB	't', 00H, 'r', 00H, ',', 00H, ' ', 00H, '"', 00H, 'P', 00H, 'a'
	DB	00H, 'r', 00H, 't', 00H, 'i', 00H, 'c', 00H, 'l', 00H, 'e', 00H
	DB	'V', 00H, 'S', 00H, '"', 00H, ',', 00H, ' ', 00H, '"', 00H, 'v'
	DB	00H, 's', 00H, '_', 00H, '5', 00H, '_', 00H, '0', 00H, '"', 00H
	DB	',', 00H, ' ', 00H, 'D', 00H, '3', 00H, 'D', 00H, 'C', 00H, 'O'
	DB	00H, 'M', 00H, 'P', 00H, 'I', 00H, 'L', 00H, 'E', 00H, '_', 00H
	DB	'E', 00H, 'N', 00H, 'A', 00H, 'B', 00H, 'L', 00H, 'E', 00H, '_'
	DB	00H, 'S', 00H, 'T', 00H, 'R', 00H, 'I', 00H, 'C', 00H, 'T', 00H
	DB	'N', 00H, 'E', 00H, 'S', 00H, 'S', 00H, ',', 00H, ' ', 00H, '0'
	DB	00H, ',', 00H, ' ', 00H, '&', 00H, 'p', 00H, 'B', 00H, 'l', 00H
	DB	'o', 00H, 'b', 00H, ')', 00H, 00H, 00H
$SG189974 DB	'FluidCS11.cpp', 00H
	ORG $+2
$SG189981 DB	'ParticleVS', 00H
	ORG $+1
$SG189978 DB	'p', 00H, 'd', 00H, '3', 00H, 'd', 00H, 'D', 00H, 'e', 00H
	DB	'v', 00H, 'i', 00H, 'c', 00H, 'e', 00H, '-', 00H, '>', 00H, 'C'
	DB	00H, 'r', 00H, 'e', 00H, 'a', 00H, 't', 00H, 'e', 00H, 'V', 00H
	DB	'e', 00H, 'r', 00H, 't', 00H, 'e', 00H, 'x', 00H, 'S', 00H, 'h'
	DB	00H, 'a', 00H, 'd', 00H, 'e', 00H, 'r', 00H, '(', 00H, 'p', 00H
	DB	'B', 00H, 'l', 00H, 'o', 00H, 'b', 00H, '-', 00H, '>', 00H, 'G'
	DB	00H, 'e', 00H, 't', 00H, 'B', 00H, 'u', 00H, 'f', 00H, 'f', 00H
	DB	'e', 00H, 'r', 00H, 'P', 00H, 'o', 00H, 'i', 00H, 'n', 00H, 't'
	DB	00H, 'e', 00H, 'r', 00H, '(', 00H, ')', 00H, ',', 00H, ' ', 00H
	DB	'p', 00H, 'B', 00H, 'l', 00H, 'o', 00H, 'b', 00H, '-', 00H, '>'
	DB	00H, 'G', 00H, 'e', 00H, 't', 00H, 'B', 00H, 'u', 00H, 'f', 00H
	DB	'f', 00H, 'e', 00H, 'r', 00H, 'S', 00H, 'i', 00H, 'z', 00H, 'e'
	DB	00H, '(', 00H, ')', 00H, ',', 00H, ' ', 00H, 'n', 00H, 'u', 00H
	DB	'l', 00H, 'l', 00H, 'p', 00H, 't', 00H, 'r', 00H, ',', 00H, ' '
	DB	00H, '&', 00H, 'g', 00H, '_', 00H, 'p', 00H, 'P', 00H, 'a', 00H
	DB	'r', 00H, 't', 00H, 'i', 00H, 'c', 00H, 'l', 00H, 'e', 00H, 'V'
	DB	00H, 'S', 00H, ')', 00H, 00H, 00H
	ORG $+2
$SG189979 DB	'FluidCS11.cpp', 00H
	ORG $+2
$SG189982 DB	'gs_5_0', 00H
	ORG $+1
$SG189983 DB	'ParticleGS', 00H
	ORG $+1
$SG189984 DB	'P', 00H, 'a', 00H, 'r', 00H, 't', 00H, 'i', 00H, 'c', 00H
	DB	'l', 00H, 'e', 00H, 'G', 00H, 'S', 00H, '.', 00H, 'h', 00H, 'l'
	DB	00H, 's', 00H, 'l', 00H, 00H, 00H
$SG188968 DB	'w', 00H, 'a', 00H, 't', 00H, 'e', 00H, 'r', 00H, 'P', 00H
	DB	'a', 00H, 'r', 00H, 't', 00H, 'i', 00H, 'c', 00H, 'l', 00H, 'e'
	DB	00H, '.', 00H, 'p', 00H, 'n', 00H, 'g', 00H, 00H, 00H
$SG189988 DB	'D', 00H, 'X', 00H, 'U', 00H, 'T', 00H, 'C', 00H, 'o', 00H
	DB	'm', 00H, 'p', 00H, 'i', 00H, 'l', 00H, 'e', 00H, 'F', 00H, 'r'
	DB	00H, 'o', 00H, 'm', 00H, 'F', 00H, 'i', 00H, 'l', 00H, 'e', 00H
	DB	'(', 00H, 'L', 00H, '"', 00H, 'P', 00H, 'a', 00H, 'r', 00H, 't'
	DB	00H, 'i', 00H, 'c', 00H, 'l', 00H, 'e', 00H, 'G', 00H, 'S', 00H
	DB	'.', 00H, 'h', 00H, 'l', 00H, 's', 00H, 'l', 00H, '"', 00H, ','
	DB	00H, ' ', 00H, 'n', 00H, 'u', 00H, 'l', 00H, 'l', 00H, 'p', 00H
	DB	't', 00H, 'r', 00H, ',', 00H, ' ', 00H, '"', 00H, 'P', 00H, 'a'
	DB	00H, 'r', 00H, 't', 00H, 'i', 00H, 'c', 00H, 'l', 00H, 'e', 00H
	DB	'G', 00H, 'S', 00H, '"', 00H, ',', 00H, ' ', 00H, '"', 00H, 'g'
	DB	00H, 's', 00H, '_', 00H, '5', 00H, '_', 00H, '0', 00H, '"', 00H
	DB	',', 00H, ' ', 00H, 'D', 00H, '3', 00H, 'D', 00H, 'C', 00H, 'O'
	DB	00H, 'M', 00H, 'P', 00H, 'I', 00H, 'L', 00H, 'E', 00H, '_', 00H
	DB	'E', 00H, 'N', 00H, 'A', 00H, 'B', 00H, 'L', 00H, 'E', 00H, '_'
	DB	00H, 'S', 00H, 'T', 00H, 'R', 00H, 'I', 00H, 'C', 00H, 'T', 00H
	DB	'N', 00H, 'E', 00H, 'S', 00H, 'S', 00H, ',', 00H, ' ', 00H, '0'
	DB	00H, ',', 00H, ' ', 00H, '&', 00H, 'p', 00H, 'B', 00H, 'l', 00H
	DB	'o', 00H, 'b', 00H, ')', 00H, 00H, 00H
$SG189989 DB	'FluidCS11.cpp', 00H
	ORG $+2
$SG189996 DB	'ParticleGS', 00H
	ORG $+1
$SG189993 DB	'p', 00H, 'd', 00H, '3', 00H, 'd', 00H, 'D', 00H, 'e', 00H
	DB	'v', 00H, 'i', 00H, 'c', 00H, 'e', 00H, '-', 00H, '>', 00H, 'C'
	DB	00H, 'r', 00H, 'e', 00H, 'a', 00H, 't', 00H, 'e', 00H, 'G', 00H
	DB	'e', 00H, 'o', 00H, 'm', 00H, 'e', 00H, 't', 00H, 'r', 00H, 'y'
	DB	00H, 'S', 00H, 'h', 00H, 'a', 00H, 'd', 00H, 'e', 00H, 'r', 00H
	DB	'(', 00H, 'p', 00H, 'B', 00H, 'l', 00H, 'o', 00H, 'b', 00H, '-'
	DB	00H, '>', 00H, 'G', 00H, 'e', 00H, 't', 00H, 'B', 00H, 'u', 00H
	DB	'f', 00H, 'f', 00H, 'e', 00H, 'r', 00H, 'P', 00H, 'o', 00H, 'i'
	DB	00H, 'n', 00H, 't', 00H, 'e', 00H, 'r', 00H, '(', 00H, ')', 00H
	DB	',', 00H, ' ', 00H, 'p', 00H, 'B', 00H, 'l', 00H, 'o', 00H, 'b'
	DB	00H, '-', 00H, '>', 00H, 'G', 00H, 'e', 00H, 't', 00H, 'B', 00H
	DB	'u', 00H, 'f', 00H, 'f', 00H, 'e', 00H, 'r', 00H, 'S', 00H, 'i'
	DB	00H, 'z', 00H, 'e', 00H, '(', 00H, ')', 00H, ',', 00H, ' ', 00H
	DB	'n', 00H, 'u', 00H, 'l', 00H, 'l', 00H, 'p', 00H, 't', 00H, 'r'
	DB	00H, ',', 00H, ' ', 00H, '&', 00H, 'g', 00H, '_', 00H, 'p', 00H
	DB	'P', 00H, 'a', 00H, 'r', 00H, 't', 00H, 'i', 00H, 'c', 00H, 'l'
	DB	00H, 'e', 00H, 'G', 00H, 'S', 00H, ')', 00H, 00H, 00H
	ORG $+2
$SG189994 DB	'FluidCS11.cpp', 00H
	ORG $+2
$SG189997 DB	'ps_5_0', 00H
	ORG $+1
$SG189998 DB	'ParticlePS', 00H
	ORG $+1
$SG189999 DB	'P', 00H, 'a', 00H, 'r', 00H, 't', 00H, 'i', 00H, 'c', 00H
	DB	'l', 00H, 'e', 00H, 'P', 00H, 'S', 00H, '.', 00H, 'h', 00H, 'l'
	DB	00H, 's', 00H, 'l', 00H, 00H, 00H
_XM_PI	DD	040490fdbr			; 3.14159
_XM_2PI	DD	040c90fdbr			; 6.28319
$SG190003 DB	'D', 00H, 'X', 00H, 'U', 00H, 'T', 00H, 'C', 00H, 'o', 00H
	DB	'm', 00H, 'p', 00H, 'i', 00H, 'l', 00H, 'e', 00H, 'F', 00H, 'r'
	DB	00H, 'o', 00H, 'm', 00H, 'F', 00H, 'i', 00H, 'l', 00H, 'e', 00H
	DB	'(', 00H, 'L', 00H, '"', 00H, 'P', 00H, 'a', 00H, 'r', 00H, 't'
	DB	00H, 'i', 00H, 'c', 00H, 'l', 00H, 'e', 00H, 'P', 00H, 'S', 00H
	DB	'.', 00H, 'h', 00H, 'l', 00H, 's', 00H, 'l', 00H, '"', 00H, ','
	DB	00H, ' ', 00H, 'n', 00H, 'u', 00H, 'l', 00H, 'l', 00H, 'p', 00H
	DB	't', 00H, 'r', 00H, ',', 00H, ' ', 00H, '"', 00H, 'P', 00H, 'a'
	DB	00H, 'r', 00H, 't', 00H, 'i', 00H, 'c', 00H, 'l', 00H, 'e', 00H
	DB	'P', 00H, 'S', 00H, '"', 00H, ',', 00H, ' ', 00H, '"', 00H, 'p'
	DB	00H, 's', 00H, '_', 00H, '5', 00H, '_', 00H, '0', 00H, '"', 00H
	DB	',', 00H, ' ', 00H, 'D', 00H, '3', 00H, 'D', 00H, 'C', 00H, 'O'
	DB	00H, 'M', 00H, 'P', 00H, 'I', 00H, 'L', 00H, 'E', 00H, '_', 00H
	DB	'E', 00H, 'N', 00H, 'A', 00H, 'B', 00H, 'L', 00H, 'E', 00H, '_'
	DB	00H, 'S', 00H, 'T', 00H, 'R', 00H, 'I', 00H, 'C', 00H, 'T', 00H
	DB	'N', 00H, 'E', 00H, 'S', 00H, 'S', 00H, ',', 00H, ' ', 00H, '0'
	DB	00H, ',', 00H, ' ', 00H, '&', 00H, 'p', 00H, 'B', 00H, 'l', 00H
	DB	'o', 00H, 'b', 00H, ')', 00H, 00H, 00H
_XM_1DIVPI DD	03ea2f983r			; 0.31831
$SG190004 DB	'FluidCS11.cpp', 00H
	ORG $+2
_XM_1DIV2PI DD	03e22f983r			; 0.159155
_XM_PIDIV2 DD	03fc90fdbr			; 1.5708
_XM_PIDIV4 DD	03f490fdbr			; 0.785398
$SG190011 DB	'ParticlePS', 00H
	ORG $+1
$SG190008 DB	'p', 00H, 'd', 00H, '3', 00H, 'd', 00H, 'D', 00H, 'e', 00H
	DB	'v', 00H, 'i', 00H, 'c', 00H, 'e', 00H, '-', 00H, '>', 00H, 'C'
	DB	00H, 'r', 00H, 'e', 00H, 'a', 00H, 't', 00H, 'e', 00H, 'P', 00H
	DB	'i', 00H, 'x', 00H, 'e', 00H, 'l', 00H, 'S', 00H, 'h', 00H, 'a'
	DB	00H, 'd', 00H, 'e', 00H, 'r', 00H, '(', 00H, 'p', 00H, 'B', 00H
	DB	'l', 00H, 'o', 00H, 'b', 00H, '-', 00H, '>', 00H, 'G', 00H, 'e'
	DB	00H, 't', 00H, 'B', 00H, 'u', 00H, 'f', 00H, 'f', 00H, 'e', 00H
	DB	'r', 00H, 'P', 00H, 'o', 00H, 'i', 00H, 'n', 00H, 't', 00H, 'e'
	DB	00H, 'r', 00H, '(', 00H, ')', 00H, ',', 00H, ' ', 00H, 'p', 00H
	DB	'B', 00H, 'l', 00H, 'o', 00H, 'b', 00H, '-', 00H, '>', 00H, 'G'
	DB	00H, 'e', 00H, 't', 00H, 'B', 00H, 'u', 00H, 'f', 00H, 'f', 00H
	DB	'e', 00H, 'r', 00H, 'S', 00H, 'i', 00H, 'z', 00H, 'e', 00H, '('
	DB	00H, ')', 00H, ',', 00H, ' ', 00H, 'n', 00H, 'u', 00H, 'l', 00H
	DB	'l', 00H, 'p', 00H, 't', 00H, 'r', 00H, ',', 00H, ' ', 00H, '&'
	DB	00H, 'g', 00H, '_', 00H, 'p', 00H, 'P', 00H, 'a', 00H, 'r', 00H
	DB	't', 00H, 'i', 00H, 'c', 00H, 'l', 00H, 'e', 00H, 'P', 00H, 'S'
	DB	00H, ')', 00H, 00H, 00H
$SG190009 DB	'FluidCS11.cpp', 00H
	ORG $+2
$SG190013 DB	'cs_5_0', 00H
	ORG $+1
$SG190014 DB	'cs_4_0', 00H
	ORG $+1
$SG190016 DB	'C', 00H, 'o', 00H, 'm', 00H, 'p', 00H, 'i', 00H, 'l', 00H
	DB	'i', 00H, 'n', 00H, 'g', 00H, ' ', 00H, 'S', 00H, 'h', 00H, 'a'
	DB	00H, 'd', 00H, 'e', 00H, 'r', 00H, 's', 00H, '.', 00H, '.', 00H
	DB	'.', 00H, 00H, 00H
	ORG $+2
$SG190017 DB	'IntegrateCS', 00H
$SG190018 DB	'F', 00H, 'l', 00H, 'u', 00H, 'i', 00H, 'd', 00H, 'C', 00H
	DB	'S', 00H, '1', 00H, '1', 00H, '.', 00H, 'h', 00H, 'l', 00H, 's'
	DB	00H, 'l', 00H, 00H, 00H
	ORG $+2
$SG188997 DB	'D', 00H, 'E', 00H, 'B', 00H, 'U', 00H, 'G', 00H, 00H, 00H
$SG188998 DB	'O', 00H, 'u', 00H, 'r', 00H, ' ', 00H, 'F', 00H, 'i', 00H
	DB	'r', 00H, 's', 00H, 't', 00H, ' ', 00H, 'W', 00H, 'i', 00H, 'n'
	DB	00H, 'd', 00H, 'o', 00H, 'w', 00H, 'e', 00H, 'd', 00H, ' ', 00H
	DB	'P', 00H, 'r', 00H, 'o', 00H, 'g', 00H, 'r', 00H, 'a', 00H, 'm'
	DB	00H, 00H, 00H
	ORG $+2
$SG190023 DB	'D', 00H, 'X', 00H, 'U', 00H, 'T', 00H, 'C', 00H, 'o', 00H
	DB	'm', 00H, 'p', 00H, 'i', 00H, 'l', 00H, 'e', 00H, 'F', 00H, 'r'
	DB	00H, 'o', 00H, 'm', 00H, 'F', 00H, 'i', 00H, 'l', 00H, 'e', 00H
	DB	'(', 00H, 'L', 00H, '"', 00H, 'F', 00H, 'l', 00H, 'u', 00H, 'i'
	DB	00H, 'd', 00H, 'C', 00H, 'S', 00H, '1', 00H, '1', 00H, '.', 00H
	DB	'h', 00H, 'l', 00H, 's', 00H, 'l', 00H, '"', 00H, ',', 00H, ' '
	DB	00H, 'n', 00H, 'u', 00H, 'l', 00H, 'l', 00H, 'p', 00H, 't', 00H
	DB	'r', 00H, ',', 00H, ' ', 00H, '"', 00H, 'I', 00H, 'n', 00H, 't'
	DB	00H, 'e', 00H, 'g', 00H, 'r', 00H, 'a', 00H, 't', 00H, 'e', 00H
	DB	'C', 00H, 'S', 00H, '"', 00H, ',', 00H, ' ', 00H, 'C', 00H, 'S'
	DB	00H, 'T', 00H, 'a', 00H, 'r', 00H, 'g', 00H, 'e', 00H, 't', 00H
	DB	',', 00H, ' ', 00H, 'D', 00H, '3', 00H, 'D', 00H, 'C', 00H, 'O'
	DB	00H, 'M', 00H, 'P', 00H, 'I', 00H, 'L', 00H, 'E', 00H, '_', 00H
	DB	'E', 00H, 'N', 00H, 'A', 00H, 'B', 00H, 'L', 00H, 'E', 00H, '_'
	DB	00H, 'S', 00H, 'T', 00H, 'R', 00H, 'I', 00H, 'C', 00H, 'T', 00H
	DB	'N', 00H, 'E', 00H, 'S', 00H, 'S', 00H, ',', 00H, ' ', 00H, '0'
	DB	00H, ',', 00H, ' ', 00H, '&', 00H, 'p', 00H, 'B', 00H, 'l', 00H
	DB	'o', 00H, 'b', 00H, ')', 00H, 00H, 00H
$SG188999 DB	'W', 00H, 'i', 00H, 'n', 00H, 'd', 00H, 'o', 00H, 'w', 00H
	DB	'C', 00H, 'l', 00H, 'a', 00H, 's', 00H, 's', 00H, '1', 00H, 00H
	DB	00H
	ORG $+2
$SG190024 DB	'FluidCS11.cpp', 00H
	ORG $+2
$SG190029 DB	'p', 00H, 'd', 00H, '3', 00H, 'd', 00H, 'D', 00H, 'e', 00H
	DB	'v', 00H, 'i', 00H, 'c', 00H, 'e', 00H, '-', 00H, '>', 00H, 'C'
	DB	00H, 'r', 00H, 'e', 00H, 'a', 00H, 't', 00H, 'e', 00H, 'C', 00H
	DB	'o', 00H, 'm', 00H, 'p', 00H, 'u', 00H, 't', 00H, 'e', 00H, 'S'
	DB	00H, 'h', 00H, 'a', 00H, 'd', 00H, 'e', 00H, 'r', 00H, '(', 00H
	DB	'p', 00H, 'B', 00H, 'l', 00H, 'o', 00H, 'b', 00H, '-', 00H, '>'
	DB	00H, 'G', 00H, 'e', 00H, 't', 00H, 'B', 00H, 'u', 00H, 'f', 00H
	DB	'f', 00H, 'e', 00H, 'r', 00H, 'P', 00H, 'o', 00H, 'i', 00H, 'n'
	DB	00H, 't', 00H, 'e', 00H, 'r', 00H, '(', 00H, ')', 00H, ',', 00H
	DB	' ', 00H, 'p', 00H, 'B', 00H, 'l', 00H, 'o', 00H, 'b', 00H, '-'
	DB	00H, '>', 00H, 'G', 00H, 'e', 00H, 't', 00H, 'B', 00H, 'u', 00H
	DB	'f', 00H, 'f', 00H, 'e', 00H, 'r', 00H, 'S', 00H, 'i', 00H, 'z'
	DB	00H, 'e', 00H, '(', 00H, ')', 00H, ',', 00H, ' ', 00H, 'n', 00H
	DB	'u', 00H, 'l', 00H, 'l', 00H, 'p', 00H, 't', 00H, 'r', 00H, ','
	DB	00H, ' ', 00H, '&', 00H, 'g', 00H, '_', 00H, 'p', 00H, 'I', 00H
	DB	'n', 00H, 't', 00H, 'e', 00H, 'g', 00H, 'r', 00H, 'a', 00H, 't'
	DB	00H, 'e', 00H, 'C', 00H, 'S', 00H, ')', 00H, 00H, 00H
	ORG $+2
$SG190030 DB	'FluidCS11.cpp', 00H
	ORG $+2
$SG189007 DB	'F', 00H, 'l', 00H, 'u', 00H, 'i', 00H, 'd', 00H, 'C', 00H
	DB	'S', 00H, '1', 00H, '1', 00H, 00H, 00H
$SG190032 DB	'IntegrateCS', 00H
$SG190033 DB	'DensityCS_Simple', 00H
	ORG $+3
$SG190034 DB	'F', 00H, 'l', 00H, 'u', 00H, 'i', 00H, 'd', 00H, 'C', 00H
	DB	'S', 00H, '1', 00H, '1', 00H, '.', 00H, 'h', 00H, 'l', 00H, 's'
	DB	00H, 'l', 00H, 00H, 00H
	ORG $+2
$SG190039 DB	'D', 00H, 'X', 00H, 'U', 00H, 'T', 00H, 'C', 00H, 'o', 00H
	DB	'm', 00H, 'p', 00H, 'i', 00H, 'l', 00H, 'e', 00H, 'F', 00H, 'r'
	DB	00H, 'o', 00H, 'm', 00H, 'F', 00H, 'i', 00H, 'l', 00H, 'e', 00H
	DB	'(', 00H, 'L', 00H, '"', 00H, 'F', 00H, 'l', 00H, 'u', 00H, 'i'
	DB	00H, 'd', 00H, 'C', 00H, 'S', 00H, '1', 00H, '1', 00H, '.', 00H
	DB	'h', 00H, 'l', 00H, 's', 00H, 'l', 00H, '"', 00H, ',', 00H, ' '
	DB	00H, 'n', 00H, 'u', 00H, 'l', 00H, 'l', 00H, 'p', 00H, 't', 00H
	DB	'r', 00H, ',', 00H, ' ', 00H, '"', 00H, 'D', 00H, 'e', 00H, 'n'
	DB	00H, 's', 00H, 'i', 00H, 't', 00H, 'y', 00H, 'C', 00H, 'S', 00H
	DB	'_', 00H, 'S', 00H, 'i', 00H, 'm', 00H, 'p', 00H, 'l', 00H, 'e'
	DB	00H, '"', 00H, ',', 00H, ' ', 00H, 'C', 00H, 'S', 00H, 'T', 00H
	DB	'a', 00H, 'r', 00H, 'g', 00H, 'e', 00H, 't', 00H, ',', 00H, ' '
	DB	00H, 'D', 00H, '3', 00H, 'D', 00H, 'C', 00H, 'O', 00H, 'M', 00H
	DB	'P', 00H, 'I', 00H, 'L', 00H, 'E', 00H, '_', 00H, 'E', 00H, 'N'
	DB	00H, 'A', 00H, 'B', 00H, 'L', 00H, 'E', 00H, '_', 00H, 'S', 00H
	DB	'T', 00H, 'R', 00H, 'I', 00H, 'C', 00H, 'T', 00H, 'N', 00H, 'E'
	DB	00H, 'S', 00H, 'S', 00H, ',', 00H, ' ', 00H, '0', 00H, ',', 00H
	DB	' ', 00H, '&', 00H, 'p', 00H, 'B', 00H, 'l', 00H, 'o', 00H, 'b'
	DB	00H, ')', 00H, 00H, 00H
	ORG $+2
$SG190040 DB	'FluidCS11.cpp', 00H
	ORG $+2
$SG190045 DB	'p', 00H, 'd', 00H, '3', 00H, 'd', 00H, 'D', 00H, 'e', 00H
	DB	'v', 00H, 'i', 00H, 'c', 00H, 'e', 00H, '-', 00H, '>', 00H, 'C'
	DB	00H, 'r', 00H, 'e', 00H, 'a', 00H, 't', 00H, 'e', 00H, 'C', 00H
	DB	'o', 00H, 'm', 00H, 'p', 00H, 'u', 00H, 't', 00H, 'e', 00H, 'S'
	DB	00H, 'h', 00H, 'a', 00H, 'd', 00H, 'e', 00H, 'r', 00H, '(', 00H
	DB	'p', 00H, 'B', 00H, 'l', 00H, 'o', 00H, 'b', 00H, '-', 00H, '>'
	DB	00H, 'G', 00H, 'e', 00H, 't', 00H, 'B', 00H, 'u', 00H, 'f', 00H
	DB	'f', 00H, 'e', 00H, 'r', 00H, 'P', 00H, 'o', 00H, 'i', 00H, 'n'
	DB	00H, 't', 00H, 'e', 00H, 'r', 00H, '(', 00H, ')', 00H, ',', 00H
	DB	' ', 00H, 'p', 00H, 'B', 00H, 'l', 00H, 'o', 00H, 'b', 00H, '-'
	DB	00H, '>', 00H, 'G', 00H, 'e', 00H, 't', 00H, 'B', 00H, 'u', 00H
	DB	'f', 00H, 'f', 00H, 'e', 00H, 'r', 00H, 'S', 00H, 'i', 00H, 'z'
	DB	00H, 'e', 00H, '(', 00H, ')', 00H, ',', 00H, ' ', 00H, 'n', 00H
	DB	'u', 00H, 'l', 00H, 'l', 00H, 'p', 00H, 't', 00H, 'r', 00H, ','
	DB	00H, ' ', 00H, '&', 00H, 'g', 00H, '_', 00H, 'p', 00H, 'D', 00H
	DB	'e', 00H, 'n', 00H, 's', 00H, 'i', 00H, 't', 00H, 'y', 00H, '_'
	DB	00H, 'S', 00H, 'i', 00H, 'm', 00H, 'p', 00H, 'l', 00H, 'e', 00H
	DB	'C', 00H, 'S', 00H, ')', 00H, 00H, 00H
$SG190046 DB	'FluidCS11.cpp', 00H
	ORG $+2
$SG190048 DB	'DensityCS_Simple', 00H
	ORG $+3
$SG190049 DB	'ForceCS_Simple', 00H
	ORG $+1
$SG190050 DB	'F', 00H, 'l', 00H, 'u', 00H, 'i', 00H, 'd', 00H, 'C', 00H
	DB	'S', 00H, '1', 00H, '1', 00H, '.', 00H, 'h', 00H, 'l', 00H, 's'
	DB	00H, 'l', 00H, 00H, 00H
	ORG $+2
$SG190055 DB	'D', 00H, 'X', 00H, 'U', 00H, 'T', 00H, 'C', 00H, 'o', 00H
	DB	'm', 00H, 'p', 00H, 'i', 00H, 'l', 00H, 'e', 00H, 'F', 00H, 'r'
	DB	00H, 'o', 00H, 'm', 00H, 'F', 00H, 'i', 00H, 'l', 00H, 'e', 00H
	DB	'(', 00H, 'L', 00H, '"', 00H, 'F', 00H, 'l', 00H, 'u', 00H, 'i'
	DB	00H, 'd', 00H, 'C', 00H, 'S', 00H, '1', 00H, '1', 00H, '.', 00H
	DB	'h', 00H, 'l', 00H, 's', 00H, 'l', 00H, '"', 00H, ',', 00H, ' '
	DB	00H, 'n', 00H, 'u', 00H, 'l', 00H, 'l', 00H, 'p', 00H, 't', 00H
	DB	'r', 00H, ',', 00H, ' ', 00H, '"', 00H, 'F', 00H, 'o', 00H, 'r'
	DB	00H, 'c', 00H, 'e', 00H, 'C', 00H, 'S', 00H, '_', 00H, 'S', 00H
	DB	'i', 00H, 'm', 00H, 'p', 00H, 'l', 00H, 'e', 00H, '"', 00H, ','
	DB	00H, ' ', 00H, 'C', 00H, 'S', 00H, 'T', 00H, 'a', 00H, 'r', 00H
	DB	'g', 00H, 'e', 00H, 't', 00H, ',', 00H, ' ', 00H, 'D', 00H, '3'
	DB	00H, 'D', 00H, 'C', 00H, 'O', 00H, 'M', 00H, 'P', 00H, 'I', 00H
	DB	'L', 00H, 'E', 00H, '_', 00H, 'E', 00H, 'N', 00H, 'A', 00H, 'B'
	DB	00H, 'L', 00H, 'E', 00H, '_', 00H, 'S', 00H, 'T', 00H, 'R', 00H
	DB	'I', 00H, 'C', 00H, 'T', 00H, 'N', 00H, 'E', 00H, 'S', 00H, 'S'
	DB	00H, ',', 00H, ' ', 00H, '0', 00H, ',', 00H, ' ', 00H, '&', 00H
	DB	'p', 00H, 'B', 00H, 'l', 00H, 'o', 00H, 'b', 00H, ')', 00H, 00H
	DB	00H
	ORG $+2
$SG190056 DB	'FluidCS11.cpp', 00H
	ORG $+2
$SG190064 DB	'ForceCS_Simple', 00H
	ORG $+1
$SG190065 DB	'DensityCS_Shared', 00H
	ORG $+3
$SG190061 DB	'p', 00H, 'd', 00H, '3', 00H, 'd', 00H, 'D', 00H, 'e', 00H
	DB	'v', 00H, 'i', 00H, 'c', 00H, 'e', 00H, '-', 00H, '>', 00H, 'C'
	DB	00H, 'r', 00H, 'e', 00H, 'a', 00H, 't', 00H, 'e', 00H, 'C', 00H
	DB	'o', 00H, 'm', 00H, 'p', 00H, 'u', 00H, 't', 00H, 'e', 00H, 'S'
	DB	00H, 'h', 00H, 'a', 00H, 'd', 00H, 'e', 00H, 'r', 00H, '(', 00H
	DB	'p', 00H, 'B', 00H, 'l', 00H, 'o', 00H, 'b', 00H, '-', 00H, '>'
	DB	00H, 'G', 00H, 'e', 00H, 't', 00H, 'B', 00H, 'u', 00H, 'f', 00H
	DB	'f', 00H, 'e', 00H, 'r', 00H, 'P', 00H, 'o', 00H, 'i', 00H, 'n'
	DB	00H, 't', 00H, 'e', 00H, 'r', 00H, '(', 00H, ')', 00H, ',', 00H
	DB	' ', 00H, 'p', 00H, 'B', 00H, 'l', 00H, 'o', 00H, 'b', 00H, '-'
	DB	00H, '>', 00H, 'G', 00H, 'e', 00H, 't', 00H, 'B', 00H, 'u', 00H
	DB	'f', 00H, 'f', 00H, 'e', 00H, 'r', 00H, 'S', 00H, 'i', 00H, 'z'
	DB	00H, 'e', 00H, '(', 00H, ')', 00H, ',', 00H, ' ', 00H, 'n', 00H
	DB	'u', 00H, 'l', 00H, 'l', 00H, 'p', 00H, 't', 00H, 'r', 00H, ','
	DB	00H, ' ', 00H, '&', 00H, 'g', 00H, '_', 00H, 'p', 00H, 'F', 00H
	DB	'o', 00H, 'r', 00H, 'c', 00H, 'e', 00H, '_', 00H, 'S', 00H, 'i'
	DB	00H, 'm', 00H, 'p', 00H, 'l', 00H, 'e', 00H, 'C', 00H, 'S', 00H
	DB	')', 00H, 00H, 00H
$SG190062 DB	'FluidCS11.cpp', 00H
	ORG $+2
$SG190066 DB	'F', 00H, 'l', 00H, 'u', 00H, 'i', 00H, 'd', 00H, 'C', 00H
	DB	'S', 00H, '1', 00H, '1', 00H, '.', 00H, 'h', 00H, 'l', 00H, 's'
	DB	00H, 'l', 00H, 00H, 00H
	ORG $+2
$SG190071 DB	'D', 00H, 'X', 00H, 'U', 00H, 'T', 00H, 'C', 00H, 'o', 00H
	DB	'm', 00H, 'p', 00H, 'i', 00H, 'l', 00H, 'e', 00H, 'F', 00H, 'r'
	DB	00H, 'o', 00H, 'm', 00H, 'F', 00H, 'i', 00H, 'l', 00H, 'e', 00H
	DB	'(', 00H, 'L', 00H, '"', 00H, 'F', 00H, 'l', 00H, 'u', 00H, 'i'
	DB	00H, 'd', 00H, 'C', 00H, 'S', 00H, '1', 00H, '1', 00H, '.', 00H
	DB	'h', 00H, 'l', 00H, 's', 00H, 'l', 00H, '"', 00H, ',', 00H, ' '
	DB	00H, 'n', 00H, 'u', 00H, 'l', 00H, 'l', 00H, 'p', 00H, 't', 00H
	DB	'r', 00H, ',', 00H, ' ', 00H, '"', 00H, 'D', 00H, 'e', 00H, 'n'
	DB	00H, 's', 00H, 'i', 00H, 't', 00H, 'y', 00H, 'C', 00H, 'S', 00H
	DB	'_', 00H, 'S', 00H, 'h', 00H, 'a', 00H, 'r', 00H, 'e', 00H, 'd'
	DB	00H, '"', 00H, ',', 00H, ' ', 00H, 'C', 00H, 'S', 00H, 'T', 00H
	DB	'a', 00H, 'r', 00H, 'g', 00H, 'e', 00H, 't', 00H, ',', 00H, ' '
	DB	00H, 'D', 00H, '3', 00H, 'D', 00H, 'C', 00H, 'O', 00H, 'M', 00H
	DB	'P', 00H, 'I', 00H, 'L', 00H, 'E', 00H, '_', 00H, 'E', 00H, 'N'
	DB	00H, 'A', 00H, 'B', 00H, 'L', 00H, 'E', 00H, '_', 00H, 'S', 00H
	DB	'T', 00H, 'R', 00H, 'I', 00H, 'C', 00H, 'T', 00H, 'N', 00H, 'E'
	DB	00H, 'S', 00H, 'S', 00H, ',', 00H, ' ', 00H, '0', 00H, ',', 00H
	DB	' ', 00H, '&', 00H, 'p', 00H, 'B', 00H, 'l', 00H, 'o', 00H, 'b'
	DB	00H, ')', 00H, 00H, 00H
	ORG $+2
$SG190072 DB	'FluidCS11.cpp', 00H
	ORG $+2
$SG190077 DB	'p', 00H, 'd', 00H, '3', 00H, 'd', 00H, 'D', 00H, 'e', 00H
	DB	'v', 00H, 'i', 00H, 'c', 00H, 'e', 00H, '-', 00H, '>', 00H, 'C'
	DB	00H, 'r', 00H, 'e', 00H, 'a', 00H, 't', 00H, 'e', 00H, 'C', 00H
	DB	'o', 00H, 'm', 00H, 'p', 00H, 'u', 00H, 't', 00H, 'e', 00H, 'S'
	DB	00H, 'h', 00H, 'a', 00H, 'd', 00H, 'e', 00H, 'r', 00H, '(', 00H
	DB	'p', 00H, 'B', 00H, 'l', 00H, 'o', 00H, 'b', 00H, '-', 00H, '>'
	DB	00H, 'G', 00H, 'e', 00H, 't', 00H, 'B', 00H, 'u', 00H, 'f', 00H
	DB	'f', 00H, 'e', 00H, 'r', 00H, 'P', 00H, 'o', 00H, 'i', 00H, 'n'
	DB	00H, 't', 00H, 'e', 00H, 'r', 00H, '(', 00H, ')', 00H, ',', 00H
	DB	' ', 00H, 'p', 00H, 'B', 00H, 'l', 00H, 'o', 00H, 'b', 00H, '-'
	DB	00H, '>', 00H, 'G', 00H, 'e', 00H, 't', 00H, 'B', 00H, 'u', 00H
	DB	'f', 00H, 'f', 00H, 'e', 00H, 'r', 00H, 'S', 00H, 'i', 00H, 'z'
	DB	00H, 'e', 00H, '(', 00H, ')', 00H, ',', 00H, ' ', 00H, 'n', 00H
	DB	'u', 00H, 'l', 00H, 'l', 00H, 'p', 00H, 't', 00H, 'r', 00H, ','
	DB	00H, ' ', 00H, '&', 00H, 'g', 00H, '_', 00H, 'p', 00H, 'D', 00H
	DB	'e', 00H, 'n', 00H, 's', 00H, 'i', 00H, 't', 00H, 'y', 00H, '_'
	DB	00H, 'S', 00H, 'h', 00H, 'a', 00H, 'r', 00H, 'e', 00H, 'd', 00H
	DB	'C', 00H, 'S', 00H, ')', 00H, 00H, 00H
$SG190078 DB	'FluidCS11.cpp', 00H
	ORG $+2
$SG190080 DB	'DensityCS_Shared', 00H
	ORG $+3
$SG190081 DB	'ForceCS_Shared', 00H
	ORG $+1
$SG190082 DB	'F', 00H, 'l', 00H, 'u', 00H, 'i', 00H, 'd', 00H, 'C', 00H
	DB	'S', 00H, '1', 00H, '1', 00H, '.', 00H, 'h', 00H, 'l', 00H, 's'
	DB	00H, 'l', 00H, 00H, 00H
	ORG $+2
$SG190087 DB	'D', 00H, 'X', 00H, 'U', 00H, 'T', 00H, 'C', 00H, 'o', 00H
	DB	'm', 00H, 'p', 00H, 'i', 00H, 'l', 00H, 'e', 00H, 'F', 00H, 'r'
	DB	00H, 'o', 00H, 'm', 00H, 'F', 00H, 'i', 00H, 'l', 00H, 'e', 00H
	DB	'(', 00H, 'L', 00H, '"', 00H, 'F', 00H, 'l', 00H, 'u', 00H, 'i'
	DB	00H, 'd', 00H, 'C', 00H, 'S', 00H, '1', 00H, '1', 00H, '.', 00H
	DB	'h', 00H, 'l', 00H, 's', 00H, 'l', 00H, '"', 00H, ',', 00H, ' '
	DB	00H, 'n', 00H, 'u', 00H, 'l', 00H, 'l', 00H, 'p', 00H, 't', 00H
	DB	'r', 00H, ',', 00H, ' ', 00H, '"', 00H, 'F', 00H, 'o', 00H, 'r'
	DB	00H, 'c', 00H, 'e', 00H, 'C', 00H, 'S', 00H, '_', 00H, 'S', 00H
	DB	'h', 00H, 'a', 00H, 'r', 00H, 'e', 00H, 'd', 00H, '"', 00H, ','
	DB	00H, ' ', 00H, 'C', 00H, 'S', 00H, 'T', 00H, 'a', 00H, 'r', 00H
	DB	'g', 00H, 'e', 00H, 't', 00H, ',', 00H, ' ', 00H, 'D', 00H, '3'
	DB	00H, 'D', 00H, 'C', 00H, 'O', 00H, 'M', 00H, 'P', 00H, 'I', 00H
	DB	'L', 00H, 'E', 00H, '_', 00H, 'E', 00H, 'N', 00H, 'A', 00H, 'B'
	DB	00H, 'L', 00H, 'E', 00H, '_', 00H, 'S', 00H, 'T', 00H, 'R', 00H
	DB	'I', 00H, 'C', 00H, 'T', 00H, 'N', 00H, 'E', 00H, 'S', 00H, 'S'
	DB	00H, ',', 00H, ' ', 00H, '0', 00H, ',', 00H, ' ', 00H, '&', 00H
	DB	'p', 00H, 'B', 00H, 'l', 00H, 'o', 00H, 'b', 00H, ')', 00H, 00H
	DB	00H
	ORG $+2
$SG190088 DB	'FluidCS11.cpp', 00H
	ORG $+2
$SG190096 DB	'ForceCS_Shared', 00H
	ORG $+1
_g_fInitialParticleSpacing DD 03b9374bcr	; 0.0045
$SG190093 DB	'p', 00H, 'd', 00H, '3', 00H, 'd', 00H, 'D', 00H, 'e', 00H
	DB	'v', 00H, 'i', 00H, 'c', 00H, 'e', 00H, '-', 00H, '>', 00H, 'C'
	DB	00H, 'r', 00H, 'e', 00H, 'a', 00H, 't', 00H, 'e', 00H, 'C', 00H
	DB	'o', 00H, 'm', 00H, 'p', 00H, 'u', 00H, 't', 00H, 'e', 00H, 'S'
	DB	00H, 'h', 00H, 'a', 00H, 'd', 00H, 'e', 00H, 'r', 00H, '(', 00H
	DB	'p', 00H, 'B', 00H, 'l', 00H, 'o', 00H, 'b', 00H, '-', 00H, '>'
	DB	00H, 'G', 00H, 'e', 00H, 't', 00H, 'B', 00H, 'u', 00H, 'f', 00H
	DB	'f', 00H, 'e', 00H, 'r', 00H, 'P', 00H, 'o', 00H, 'i', 00H, 'n'
	DB	00H, 't', 00H, 'e', 00H, 'r', 00H, '(', 00H, ')', 00H, ',', 00H
	DB	' ', 00H, 'p', 00H, 'B', 00H, 'l', 00H, 'o', 00H, 'b', 00H, '-'
	DB	00H, '>', 00H, 'G', 00H, 'e', 00H, 't', 00H, 'B', 00H, 'u', 00H
	DB	'f', 00H, 'f', 00H, 'e', 00H, 'r', 00H, 'S', 00H, 'i', 00H, 'z'
	DB	00H, 'e', 00H, '(', 00H, ')', 00H, ',', 00H, ' ', 00H, 'n', 00H
	DB	'u', 00H, 'l', 00H, 'l', 00H, 'p', 00H, 't', 00H, 'r', 00H, ','
	DB	00H, ' ', 00H, '&', 00H, 'g', 00H, '_', 00H, 'p', 00H, 'F', 00H
	DB	'o', 00H, 'r', 00H, 'c', 00H, 'e', 00H, '_', 00H, 'S', 00H, 'h'
	DB	00H, 'a', 00H, 'r', 00H, 'e', 00H, 'd', 00H, 'C', 00H, 'S', 00H
	DB	')', 00H, 00H, 00H
$SG190094 DB	'FluidCS11.cpp', 00H
	ORG $+2
$SG190097 DB	'DensityCS_Grid', 00H
	ORG $+1
$SG190098 DB	'F', 00H, 'l', 00H, 'u', 00H, 'i', 00H, 'd', 00H, 'C', 00H
	DB	'S', 00H, '1', 00H, '1', 00H, '.', 00H, 'h', 00H, 'l', 00H, 's'
	DB	00H, 'l', 00H, 00H, 00H
	ORG $+2
_g_fSmoothlen DD 03c449ba6r			; 0.012
_g_fPressureStiffness DD 045800000r		; 4096
_g_fParticleMass DD 03951b717r			; 0.0002
_g_fViscosity DD 040833333r			; 4.1
$SG190103 DB	'D', 00H, 'X', 00H, 'U', 00H, 'T', 00H, 'C', 00H, 'o', 00H
	DB	'm', 00H, 'p', 00H, 'i', 00H, 'l', 00H, 'e', 00H, 'F', 00H, 'r'
	DB	00H, 'o', 00H, 'm', 00H, 'F', 00H, 'i', 00H, 'l', 00H, 'e', 00H
	DB	'(', 00H, 'L', 00H, '"', 00H, 'F', 00H, 'l', 00H, 'u', 00H, 'i'
	DB	00H, 'd', 00H, 'C', 00H, 'S', 00H, '1', 00H, '1', 00H, '.', 00H
	DB	'h', 00H, 'l', 00H, 's', 00H, 'l', 00H, '"', 00H, ',', 00H, ' '
	DB	00H, 'n', 00H, 'u', 00H, 'l', 00H, 'l', 00H, 'p', 00H, 't', 00H
	DB	'r', 00H, ',', 00H, ' ', 00H, '"', 00H, 'D', 00H, 'e', 00H, 'n'
	DB	00H, 's', 00H, 'i', 00H, 't', 00H, 'y', 00H, 'C', 00H, 'S', 00H
	DB	'_', 00H, 'G', 00H, 'r', 00H, 'i', 00H, 'd', 00H, '"', 00H, ','
	DB	00H, ' ', 00H, 'C', 00H, 'S', 00H, 'T', 00H, 'a', 00H, 'r', 00H
	DB	'g', 00H, 'e', 00H, 't', 00H, ',', 00H, ' ', 00H, 'D', 00H, '3'
	DB	00H, 'D', 00H, 'C', 00H, 'O', 00H, 'M', 00H, 'P', 00H, 'I', 00H
	DB	'L', 00H, 'E', 00H, '_', 00H, 'E', 00H, 'N', 00H, 'A', 00H, 'B'
	DB	00H, 'L', 00H, 'E', 00H, '_', 00H, 'S', 00H, 'T', 00H, 'R', 00H
	DB	'I', 00H, 'C', 00H, 'T', 00H, 'N', 00H, 'E', 00H, 'S', 00H, 'S'
	DB	00H, ',', 00H, ' ', 00H, '0', 00H, ',', 00H, ' ', 00H, '&', 00H
	DB	'p', 00H, 'B', 00H, 'l', 00H, 'o', 00H, 'b', 00H, ')', 00H, 00H
	DB	00H
	ORG $+2
_g_fMaxAllowableTimeStep DD 03d4ccccdr		; 0.05
$SG190104 DB	'FluidCS11.cpp', 00H
	ORG $+2
_g_fParticleRenderSize DD 03ba42aedr		; 0.00501
_g_fMapHeight DD 03f99999ar			; 1.2
$SG190109 DB	'p', 00H, 'd', 00H, '3', 00H, 'd', 00H, 'D', 00H, 'e', 00H
	DB	'v', 00H, 'i', 00H, 'c', 00H, 'e', 00H, '-', 00H, '>', 00H, 'C'
	DB	00H, 'r', 00H, 'e', 00H, 'a', 00H, 't', 00H, 'e', 00H, 'C', 00H
	DB	'o', 00H, 'm', 00H, 'p', 00H, 'u', 00H, 't', 00H, 'e', 00H, 'S'
	DB	00H, 'h', 00H, 'a', 00H, 'd', 00H, 'e', 00H, 'r', 00H, '(', 00H
	DB	'p', 00H, 'B', 00H, 'l', 00H, 'o', 00H, 'b', 00H, '-', 00H, '>'
	DB	00H, 'G', 00H, 'e', 00H, 't', 00H, 'B', 00H, 'u', 00H, 'f', 00H
	DB	'f', 00H, 'e', 00H, 'r', 00H, 'P', 00H, 'o', 00H, 'i', 00H, 'n'
	DB	00H, 't', 00H, 'e', 00H, 'r', 00H, '(', 00H, ')', 00H, ',', 00H
	DB	' ', 00H, 'p', 00H, 'B', 00H, 'l', 00H, 'o', 00H, 'b', 00H, '-'
	DB	00H, '>', 00H, 'G', 00H, 'e', 00H, 't', 00H, 'B', 00H, 'u', 00H
	DB	'f', 00H, 'f', 00H, 'e', 00H, 'r', 00H, 'S', 00H, 'i', 00H, 'z'
	DB	00H, 'e', 00H, '(', 00H, ')', 00H, ',', 00H, ' ', 00H, 'n', 00H
	DB	'u', 00H, 'l', 00H, 'l', 00H, 'p', 00H, 't', 00H, 'r', 00H, ','
	DB	00H, ' ', 00H, '&', 00H, 'g', 00H, '_', 00H, 'p', 00H, 'D', 00H
	DB	'e', 00H, 'n', 00H, 's', 00H, 'i', 00H, 't', 00H, 'y', 00H, '_'
	DB	00H, 'G', 00H, 'r', 00H, 'i', 00H, 'd', 00H, 'C', 00H, 'S', 00H
	DB	')', 00H, 00H, 00H
$SG190110 DB	'FluidCS11.cpp', 00H
	ORG $+2
$SG190112 DB	'DensityCS_Grid', 00H
	ORG $+1
$SG190113 DB	'ForceCS_Grid', 00H
	ORG $+3
$SG190114 DB	'F', 00H, 'l', 00H, 'u', 00H, 'i', 00H, 'd', 00H, 'C', 00H
	DB	'S', 00H, '1', 00H, '1', 00H, '.', 00H, 'h', 00H, 'l', 00H, 's'
	DB	00H, 'l', 00H, 00H, 00H
	ORG $+2
_g_fWallStiffness DD 048927c00r			; 300000
$SG190129 DB	'BuildGridCS', 00H
$SG190119 DB	'D', 00H, 'X', 00H, 'U', 00H, 'T', 00H, 'C', 00H, 'o', 00H
	DB	'm', 00H, 'p', 00H, 'i', 00H, 'l', 00H, 'e', 00H, 'F', 00H, 'r'
	DB	00H, 'o', 00H, 'm', 00H, 'F', 00H, 'i', 00H, 'l', 00H, 'e', 00H
	DB	'(', 00H, 'L', 00H, '"', 00H, 'F', 00H, 'l', 00H, 'u', 00H, 'i'
	DB	00H, 'd', 00H, 'C', 00H, 'S', 00H, '1', 00H, '1', 00H, '.', 00H
	DB	'h', 00H, 'l', 00H, 's', 00H, 'l', 00H, '"', 00H, ',', 00H, ' '
	DB	00H, 'n', 00H, 'u', 00H, 'l', 00H, 'l', 00H, 'p', 00H, 't', 00H
	DB	'r', 00H, ',', 00H, ' ', 00H, '"', 00H, 'F', 00H, 'o', 00H, 'r'
	DB	00H, 'c', 00H, 'e', 00H, 'C', 00H, 'S', 00H, '_', 00H, 'G', 00H
	DB	'r', 00H, 'i', 00H, 'd', 00H, '"', 00H, ',', 00H, ' ', 00H, 'C'
	DB	00H, 'S', 00H, 'T', 00H, 'a', 00H, 'r', 00H, 'g', 00H, 'e', 00H
	DB	't', 00H, ',', 00H, ' ', 00H, 'D', 00H, '3', 00H, 'D', 00H, 'C'
	DB	00H, 'O', 00H, 'M', 00H, 'P', 00H, 'I', 00H, 'L', 00H, 'E', 00H
	DB	'_', 00H, 'E', 00H, 'N', 00H, 'A', 00H, 'B', 00H, 'L', 00H, 'E'
	DB	00H, '_', 00H, 'S', 00H, 'T', 00H, 'R', 00H, 'I', 00H, 'C', 00H
	DB	'T', 00H, 'N', 00H, 'E', 00H, 'S', 00H, 'S', 00H, ',', 00H, ' '
	DB	00H, '0', 00H, ',', 00H, ' ', 00H, '&', 00H, 'p', 00H, 'B', 00H
	DB	'l', 00H, 'o', 00H, 'b', 00H, ')', 00H, 00H, 00H
	ORG $+2
$SG190120 DB	'FluidCS11.cpp', 00H
	ORG $+2
$SG190125 DB	'p', 00H, 'd', 00H, '3', 00H, 'd', 00H, 'D', 00H, 'e', 00H
	DB	'v', 00H, 'i', 00H, 'c', 00H, 'e', 00H, '-', 00H, '>', 00H, 'C'
	DB	00H, 'r', 00H, 'e', 00H, 'a', 00H, 't', 00H, 'e', 00H, 'C', 00H
	DB	'o', 00H, 'm', 00H, 'p', 00H, 'u', 00H, 't', 00H, 'e', 00H, 'S'
	DB	00H, 'h', 00H, 'a', 00H, 'd', 00H, 'e', 00H, 'r', 00H, '(', 00H
	DB	'p', 00H, 'B', 00H, 'l', 00H, 'o', 00H, 'b', 00H, '-', 00H, '>'
	DB	00H, 'G', 00H, 'e', 00H, 't', 00H, 'B', 00H, 'u', 00H, 'f', 00H
	DB	'f', 00H, 'e', 00H, 'r', 00H, 'P', 00H, 'o', 00H, 'i', 00H, 'n'
	DB	00H, 't', 00H, 'e', 00H, 'r', 00H, '(', 00H, ')', 00H, ',', 00H
	DB	' ', 00H, 'p', 00H, 'B', 00H, 'l', 00H, 'o', 00H, 'b', 00H, '-'
	DB	00H, '>', 00H, 'G', 00H, 'e', 00H, 't', 00H, 'B', 00H, 'u', 00H
	DB	'f', 00H, 'f', 00H, 'e', 00H, 'r', 00H, 'S', 00H, 'i', 00H, 'z'
	DB	00H, 'e', 00H, '(', 00H, ')', 00H, ',', 00H, ' ', 00H, 'n', 00H
	DB	'u', 00H, 'l', 00H, 'l', 00H, 'p', 00H, 't', 00H, 'r', 00H, ','
	DB	00H, ' ', 00H, '&', 00H, 'g', 00H, '_', 00H, 'p', 00H, 'F', 00H
	DB	'o', 00H, 'r', 00H, 'c', 00H, 'e', 00H, '_', 00H, 'G', 00H, 'r'
	DB	00H, 'i', 00H, 'd', 00H, 'C', 00H, 'S', 00H, ')', 00H, 00H, 00H
$SG190126 DB	'FluidCS11.cpp', 00H
	ORG $+2
$SG190128 DB	'ForceCS_Grid', 00H
	ORG $+3
$SG190130 DB	'F', 00H, 'l', 00H, 'u', 00H, 'i', 00H, 'd', 00H, 'C', 00H
	DB	'S', 00H, '1', 00H, '1', 00H, '.', 00H, 'h', 00H, 'l', 00H, 's'
	DB	00H, 'l', 00H, 00H, 00H
	ORG $+2
$SG190144 DB	'BuildGridCS', 00H
$SG190135 DB	'D', 00H, 'X', 00H, 'U', 00H, 'T', 00H, 'C', 00H, 'o', 00H
	DB	'm', 00H, 'p', 00H, 'i', 00H, 'l', 00H, 'e', 00H, 'F', 00H, 'r'
	DB	00H, 'o', 00H, 'm', 00H, 'F', 00H, 'i', 00H, 'l', 00H, 'e', 00H
	DB	'(', 00H, 'L', 00H, '"', 00H, 'F', 00H, 'l', 00H, 'u', 00H, 'i'
	DB	00H, 'd', 00H, 'C', 00H, 'S', 00H, '1', 00H, '1', 00H, '.', 00H
	DB	'h', 00H, 'l', 00H, 's', 00H, 'l', 00H, '"', 00H, ',', 00H, ' '
	DB	00H, 'n', 00H, 'u', 00H, 'l', 00H, 'l', 00H, 'p', 00H, 't', 00H
	DB	'r', 00H, ',', 00H, ' ', 00H, '"', 00H, 'B', 00H, 'u', 00H, 'i'
	DB	00H, 'l', 00H, 'd', 00H, 'G', 00H, 'r', 00H, 'i', 00H, 'd', 00H
	DB	'C', 00H, 'S', 00H, '"', 00H, ',', 00H, ' ', 00H, 'C', 00H, 'S'
	DB	00H, 'T', 00H, 'a', 00H, 'r', 00H, 'g', 00H, 'e', 00H, 't', 00H
	DB	',', 00H, ' ', 00H, 'D', 00H, '3', 00H, 'D', 00H, 'C', 00H, 'O'
	DB	00H, 'M', 00H, 'P', 00H, 'I', 00H, 'L', 00H, 'E', 00H, '_', 00H
	DB	'E', 00H, 'N', 00H, 'A', 00H, 'B', 00H, 'L', 00H, 'E', 00H, '_'
	DB	00H, 'S', 00H, 'T', 00H, 'R', 00H, 'I', 00H, 'C', 00H, 'T', 00H
	DB	'N', 00H, 'E', 00H, 'S', 00H, 'S', 00H, ',', 00H, ' ', 00H, '0'
	DB	00H, ',', 00H, ' ', 00H, '&', 00H, 'p', 00H, 'B', 00H, 'l', 00H
	DB	'o', 00H, 'b', 00H, ')', 00H, 00H, 00H
$SG190136 DB	'FluidCS11.cpp', 00H
	ORG $+2
$SG190145 DB	'ClearGridIndicesCS', 00H
	ORG $+1
$SG190141 DB	'p', 00H, 'd', 00H, '3', 00H, 'd', 00H, 'D', 00H, 'e', 00H
	DB	'v', 00H, 'i', 00H, 'c', 00H, 'e', 00H, '-', 00H, '>', 00H, 'C'
	DB	00H, 'r', 00H, 'e', 00H, 'a', 00H, 't', 00H, 'e', 00H, 'C', 00H
	DB	'o', 00H, 'm', 00H, 'p', 00H, 'u', 00H, 't', 00H, 'e', 00H, 'S'
	DB	00H, 'h', 00H, 'a', 00H, 'd', 00H, 'e', 00H, 'r', 00H, '(', 00H
	DB	'p', 00H, 'B', 00H, 'l', 00H, 'o', 00H, 'b', 00H, '-', 00H, '>'
	DB	00H, 'G', 00H, 'e', 00H, 't', 00H, 'B', 00H, 'u', 00H, 'f', 00H
	DB	'f', 00H, 'e', 00H, 'r', 00H, 'P', 00H, 'o', 00H, 'i', 00H, 'n'
	DB	00H, 't', 00H, 'e', 00H, 'r', 00H, '(', 00H, ')', 00H, ',', 00H
	DB	' ', 00H, 'p', 00H, 'B', 00H, 'l', 00H, 'o', 00H, 'b', 00H, '-'
	DB	00H, '>', 00H, 'G', 00H, 'e', 00H, 't', 00H, 'B', 00H, 'u', 00H
	DB	'f', 00H, 'f', 00H, 'e', 00H, 'r', 00H, 'S', 00H, 'i', 00H, 'z'
	DB	00H, 'e', 00H, '(', 00H, ')', 00H, ',', 00H, ' ', 00H, 'n', 00H
	DB	'u', 00H, 'l', 00H, 'l', 00H, 'p', 00H, 't', 00H, 'r', 00H, ','
	DB	00H, ' ', 00H, '&', 00H, 'g', 00H, '_', 00H, 'p', 00H, 'B', 00H
	DB	'u', 00H, 'i', 00H, 'l', 00H, 'd', 00H, 'G', 00H, 'r', 00H, 'i'
	DB	00H, 'd', 00H, 'C', 00H, 'S', 00H, ')', 00H, 00H, 00H
	ORG $+2
$SG190142 DB	'FluidCS11.cpp', 00H
	ORG $+2
$SG190146 DB	'F', 00H, 'l', 00H, 'u', 00H, 'i', 00H, 'd', 00H, 'C', 00H
	DB	'S', 00H, '1', 00H, '1', 00H, '.', 00H, 'h', 00H, 'l', 00H, 's'
	DB	00H, 'l', 00H, 00H, 00H
	ORG $+2
$SG190160 DB	'ClearGridIndicesCS', 00H
	ORG $+1
$SG190151 DB	'D', 00H, 'X', 00H, 'U', 00H, 'T', 00H, 'C', 00H, 'o', 00H
	DB	'm', 00H, 'p', 00H, 'i', 00H, 'l', 00H, 'e', 00H, 'F', 00H, 'r'
	DB	00H, 'o', 00H, 'm', 00H, 'F', 00H, 'i', 00H, 'l', 00H, 'e', 00H
	DB	'(', 00H, 'L', 00H, '"', 00H, 'F', 00H, 'l', 00H, 'u', 00H, 'i'
	DB	00H, 'd', 00H, 'C', 00H, 'S', 00H, '1', 00H, '1', 00H, '.', 00H
	DB	'h', 00H, 'l', 00H, 's', 00H, 'l', 00H, '"', 00H, ',', 00H, ' '
	DB	00H, 'n', 00H, 'u', 00H, 'l', 00H, 'l', 00H, 'p', 00H, 't', 00H
	DB	'r', 00H, ',', 00H, ' ', 00H, '"', 00H, 'C', 00H, 'l', 00H, 'e'
	DB	00H, 'a', 00H, 'r', 00H, 'G', 00H, 'r', 00H, 'i', 00H, 'd', 00H
	DB	'I', 00H, 'n', 00H, 'd', 00H, 'i', 00H, 'c', 00H, 'e', 00H, 's'
	DB	00H, 'C', 00H, 'S', 00H, '"', 00H, ',', 00H, ' ', 00H, 'C', 00H
	DB	'S', 00H, 'T', 00H, 'a', 00H, 'r', 00H, 'g', 00H, 'e', 00H, 't'
	DB	00H, ',', 00H, ' ', 00H, 'D', 00H, '3', 00H, 'D', 00H, 'C', 00H
	DB	'O', 00H, 'M', 00H, 'P', 00H, 'I', 00H, 'L', 00H, 'E', 00H, '_'
	DB	00H, 'E', 00H, 'N', 00H, 'A', 00H, 'B', 00H, 'L', 00H, 'E', 00H
	DB	'_', 00H, 'S', 00H, 'T', 00H, 'R', 00H, 'I', 00H, 'C', 00H, 'T'
	DB	00H, 'N', 00H, 'E', 00H, 'S', 00H, 'S', 00H, ',', 00H, ' ', 00H
	DB	'0', 00H, ',', 00H, ' ', 00H, '&', 00H, 'p', 00H, 'B', 00H, 'l'
	DB	00H, 'o', 00H, 'b', 00H, ')', 00H, 00H, 00H
	ORG $+2
$SG190152 DB	'FluidCS11.cpp', 00H
	ORG $+2
$SG190161 DB	'BuildGridIndicesCS', 00H
	ORG $+1
$SG190157 DB	'p', 00H, 'd', 00H, '3', 00H, 'd', 00H, 'D', 00H, 'e', 00H
	DB	'v', 00H, 'i', 00H, 'c', 00H, 'e', 00H, '-', 00H, '>', 00H, 'C'
	DB	00H, 'r', 00H, 'e', 00H, 'a', 00H, 't', 00H, 'e', 00H, 'C', 00H
	DB	'o', 00H, 'm', 00H, 'p', 00H, 'u', 00H, 't', 00H, 'e', 00H, 'S'
	DB	00H, 'h', 00H, 'a', 00H, 'd', 00H, 'e', 00H, 'r', 00H, '(', 00H
	DB	'p', 00H, 'B', 00H, 'l', 00H, 'o', 00H, 'b', 00H, '-', 00H, '>'
	DB	00H, 'G', 00H, 'e', 00H, 't', 00H, 'B', 00H, 'u', 00H, 'f', 00H
	DB	'f', 00H, 'e', 00H, 'r', 00H, 'P', 00H, 'o', 00H, 'i', 00H, 'n'
	DB	00H, 't', 00H, 'e', 00H, 'r', 00H, '(', 00H, ')', 00H, ',', 00H
	DB	' ', 00H, 'p', 00H, 'B', 00H, 'l', 00H, 'o', 00H, 'b', 00H, '-'
	DB	00H, '>', 00H, 'G', 00H, 'e', 00H, 't', 00H, 'B', 00H, 'u', 00H
	DB	'f', 00H, 'f', 00H, 'e', 00H, 'r', 00H, 'S', 00H, 'i', 00H, 'z'
	DB	00H, 'e', 00H, '(', 00H, ')', 00H, ',', 00H, ' ', 00H, 'n', 00H
	DB	'u', 00H, 'l', 00H, 'l', 00H, 'p', 00H, 't', 00H, 'r', 00H, ','
	DB	00H, ' ', 00H, '&', 00H, 'g', 00H, '_', 00H, 'p', 00H, 'C', 00H
	DB	'l', 00H, 'e', 00H, 'a', 00H, 'r', 00H, 'G', 00H, 'r', 00H, 'i'
	DB	00H, 'd', 00H, 'I', 00H, 'n', 00H, 'd', 00H, 'i', 00H, 'c', 00H
	DB	'e', 00H, 's', 00H, 'C', 00H, 'S', 00H, ')', 00H, 00H, 00H
$SG190158 DB	'FluidCS11.cpp', 00H
	ORG $+2
$SG190162 DB	'F', 00H, 'l', 00H, 'u', 00H, 'i', 00H, 'd', 00H, 'C', 00H
	DB	'S', 00H, '1', 00H, '1', 00H, '.', 00H, 'h', 00H, 'l', 00H, 's'
	DB	00H, 'l', 00H, 00H, 00H
	ORG $+2
$SG190167 DB	'D', 00H, 'X', 00H, 'U', 00H, 'T', 00H, 'C', 00H, 'o', 00H
	DB	'm', 00H, 'p', 00H, 'i', 00H, 'l', 00H, 'e', 00H, 'F', 00H, 'r'
	DB	00H, 'o', 00H, 'm', 00H, 'F', 00H, 'i', 00H, 'l', 00H, 'e', 00H
	DB	'(', 00H, 'L', 00H, '"', 00H, 'F', 00H, 'l', 00H, 'u', 00H, 'i'
	DB	00H, 'd', 00H, 'C', 00H, 'S', 00H, '1', 00H, '1', 00H, '.', 00H
	DB	'h', 00H, 'l', 00H, 's', 00H, 'l', 00H, '"', 00H, ',', 00H, ' '
	DB	00H, 'n', 00H, 'u', 00H, 'l', 00H, 'l', 00H, 'p', 00H, 't', 00H
	DB	'r', 00H, ',', 00H, ' ', 00H, '"', 00H, 'B', 00H, 'u', 00H, 'i'
	DB	00H, 'l', 00H, 'd', 00H, 'G', 00H, 'r', 00H, 'i', 00H, 'd', 00H
	DB	'I', 00H, 'n', 00H, 'd', 00H, 'i', 00H, 'c', 00H, 'e', 00H, 's'
	DB	00H, 'C', 00H, 'S', 00H, '"', 00H, ',', 00H, ' ', 00H, 'C', 00H
	DB	'S', 00H, 'T', 00H, 'a', 00H, 'r', 00H, 'g', 00H, 'e', 00H, 't'
	DB	00H, ',', 00H, ' ', 00H, 'D', 00H, '3', 00H, 'D', 00H, 'C', 00H
	DB	'O', 00H, 'M', 00H, 'P', 00H, 'I', 00H, 'L', 00H, 'E', 00H, '_'
	DB	00H, 'E', 00H, 'N', 00H, 'A', 00H, 'B', 00H, 'L', 00H, 'E', 00H
	DB	'_', 00H, 'S', 00H, 'T', 00H, 'R', 00H, 'I', 00H, 'C', 00H, 'T'
	DB	00H, 'N', 00H, 'E', 00H, 'S', 00H, 'S', 00H, ',', 00H, ' ', 00H
	DB	'0', 00H, ',', 00H, ' ', 00H, '&', 00H, 'p', 00H, 'B', 00H, 'l'
	DB	00H, 'o', 00H, 'b', 00H, ')', 00H, 00H, 00H
	ORG $+2
$SG190168 DB	'FluidCS11.cpp', 00H
	ORG $+2
$SG190176 DB	'BuildGridIndicesCS', 00H
	ORG $+1
$SG190173 DB	'p', 00H, 'd', 00H, '3', 00H, 'd', 00H, 'D', 00H, 'e', 00H
	DB	'v', 00H, 'i', 00H, 'c', 00H, 'e', 00H, '-', 00H, '>', 00H, 'C'
	DB	00H, 'r', 00H, 'e', 00H, 'a', 00H, 't', 00H, 'e', 00H, 'C', 00H
	DB	'o', 00H, 'm', 00H, 'p', 00H, 'u', 00H, 't', 00H, 'e', 00H, 'S'
	DB	00H, 'h', 00H, 'a', 00H, 'd', 00H, 'e', 00H, 'r', 00H, '(', 00H
	DB	'p', 00H, 'B', 00H, 'l', 00H, 'o', 00H, 'b', 00H, '-', 00H, '>'
	DB	00H, 'G', 00H, 'e', 00H, 't', 00H, 'B', 00H, 'u', 00H, 'f', 00H
	DB	'f', 00H, 'e', 00H, 'r', 00H, 'P', 00H, 'o', 00H, 'i', 00H, 'n'
	DB	00H, 't', 00H, 'e', 00H, 'r', 00H, '(', 00H, ')', 00H, ',', 00H
	DB	' ', 00H, 'p', 00H, 'B', 00H, 'l', 00H, 'o', 00H, 'b', 00H, '-'
	DB	00H, '>', 00H, 'G', 00H, 'e', 00H, 't', 00H, 'B', 00H, 'u', 00H
	DB	'f', 00H, 'f', 00H, 'e', 00H, 'r', 00H, 'S', 00H, 'i', 00H, 'z'
	DB	00H, 'e', 00H, '(', 00H, ')', 00H, ',', 00H, ' ', 00H, 'n', 00H
	DB	'u', 00H, 'l', 00H, 'l', 00H, 'p', 00H, 't', 00H, 'r', 00H, ','
	DB	00H, ' ', 00H, '&', 00H, 'g', 00H, '_', 00H, 'p', 00H, 'B', 00H
	DB	'u', 00H, 'i', 00H, 'l', 00H, 'd', 00H, 'G', 00H, 'r', 00H, 'i'
	DB	00H, 'd', 00H, 'I', 00H, 'n', 00H, 'd', 00H, 'i', 00H, 'c', 00H
	DB	'e', 00H, 's', 00H, 'C', 00H, 'S', 00H, ')', 00H, 00H, 00H
$SG190174 DB	'FluidCS11.cpp', 00H
	ORG $+2
$SG190177 DB	'RearrangeParticlesCS', 00H
	ORG $+3
$SG190178 DB	'F', 00H, 'l', 00H, 'u', 00H, 'i', 00H, 'd', 00H, 'C', 00H
	DB	'S', 00H, '1', 00H, '1', 00H, '.', 00H, 'h', 00H, 'l', 00H, 's'
	DB	00H, 'l', 00H, 00H, 00H
	ORG $+2
$SG190183 DB	'D', 00H, 'X', 00H, 'U', 00H, 'T', 00H, 'C', 00H, 'o', 00H
	DB	'm', 00H, 'p', 00H, 'i', 00H, 'l', 00H, 'e', 00H, 'F', 00H, 'r'
	DB	00H, 'o', 00H, 'm', 00H, 'F', 00H, 'i', 00H, 'l', 00H, 'e', 00H
	DB	'(', 00H, 'L', 00H, '"', 00H, 'F', 00H, 'l', 00H, 'u', 00H, 'i'
	DB	00H, 'd', 00H, 'C', 00H, 'S', 00H, '1', 00H, '1', 00H, '.', 00H
	DB	'h', 00H, 'l', 00H, 's', 00H, 'l', 00H, '"', 00H, ',', 00H, ' '
	DB	00H, 'n', 00H, 'u', 00H, 'l', 00H, 'l', 00H, 'p', 00H, 't', 00H
	DB	'r', 00H, ',', 00H, ' ', 00H, '"', 00H, 'R', 00H, 'e', 00H, 'a'
	DB	00H, 'r', 00H, 'r', 00H, 'a', 00H, 'n', 00H, 'g', 00H, 'e', 00H
	DB	'P', 00H, 'a', 00H, 'r', 00H, 't', 00H, 'i', 00H, 'c', 00H, 'l'
	DB	00H, 'e', 00H, 's', 00H, 'C', 00H, 'S', 00H, '"', 00H, ',', 00H
	DB	' ', 00H, 'C', 00H, 'S', 00H, 'T', 00H, 'a', 00H, 'r', 00H, 'g'
	DB	00H, 'e', 00H, 't', 00H, ',', 00H, ' ', 00H, 'D', 00H, '3', 00H
	DB	'D', 00H, 'C', 00H, 'O', 00H, 'M', 00H, 'P', 00H, 'I', 00H, 'L'
	DB	00H, 'E', 00H, '_', 00H, 'E', 00H, 'N', 00H, 'A', 00H, 'B', 00H
	DB	'L', 00H, 'E', 00H, '_', 00H, 'S', 00H, 'T', 00H, 'R', 00H, 'I'
	DB	00H, 'C', 00H, 'T', 00H, 'N', 00H, 'E', 00H, 'S', 00H, 'S', 00H
	DB	',', 00H, ' ', 00H, '0', 00H, ',', 00H, ' ', 00H, '&', 00H, 'p'
	DB	00H, 'B', 00H, 'l', 00H, 'o', 00H, 'b', 00H, ')', 00H, 00H, 00H
	ORG $+2
$SG190184 DB	'FluidCS11.cpp', 00H
	ORG $+2
$SG190189 DB	'p', 00H, 'd', 00H, '3', 00H, 'd', 00H, 'D', 00H, 'e', 00H
	DB	'v', 00H, 'i', 00H, 'c', 00H, 'e', 00H, '-', 00H, '>', 00H, 'C'
	DB	00H, 'r', 00H, 'e', 00H, 'a', 00H, 't', 00H, 'e', 00H, 'C', 00H
	DB	'o', 00H, 'm', 00H, 'p', 00H, 'u', 00H, 't', 00H, 'e', 00H, 'S'
	DB	00H, 'h', 00H, 'a', 00H, 'd', 00H, 'e', 00H, 'r', 00H, '(', 00H
	DB	'p', 00H, 'B', 00H, 'l', 00H, 'o', 00H, 'b', 00H, '-', 00H, '>'
	DB	00H, 'G', 00H, 'e', 00H, 't', 00H, 'B', 00H, 'u', 00H, 'f', 00H
	DB	'f', 00H, 'e', 00H, 'r', 00H, 'P', 00H, 'o', 00H, 'i', 00H, 'n'
	DB	00H, 't', 00H, 'e', 00H, 'r', 00H, '(', 00H, ')', 00H, ',', 00H
	DB	' ', 00H, 'p', 00H, 'B', 00H, 'l', 00H, 'o', 00H, 'b', 00H, '-'
	DB	00H, '>', 00H, 'G', 00H, 'e', 00H, 't', 00H, 'B', 00H, 'u', 00H
	DB	'f', 00H, 'f', 00H, 'e', 00H, 'r', 00H, 'S', 00H, 'i', 00H, 'z'
	DB	00H, 'e', 00H, '(', 00H, ')', 00H, ',', 00H, ' ', 00H, 'n', 00H
	DB	'u', 00H, 'l', 00H, 'l', 00H, 'p', 00H, 't', 00H, 'r', 00H, ','
	DB	00H, ' ', 00H, '&', 00H, 'g', 00H, '_', 00H, 'p', 00H, 'R', 00H
	DB	'e', 00H, 'a', 00H, 'r', 00H, 'r', 00H, 'a', 00H, 'n', 00H, 'g'
	DB	00H, 'e', 00H, 'P', 00H, 'a', 00H, 'r', 00H, 't', 00H, 'i', 00H
	DB	'c', 00H, 'l', 00H, 'e', 00H, 's', 00H, 'C', 00H, 'S', 00H, ')'
	DB	00H, 00H, 00H
$SG190190 DB	'FluidCS11.cpp', 00H
	ORG $+2
$SG190192 DB	'RearrangeParticlesCS', 00H
	ORG $+3
$SG190193 DB	'BitonicSort', 00H
$SG190194 DB	'C', 00H, 'o', 00H, 'm', 00H, 'p', 00H, 'u', 00H, 't', 00H
	DB	'e', 00H, 'S', 00H, 'h', 00H, 'a', 00H, 'd', 00H, 'e', 00H, 'r'
	DB	00H, 'S', 00H, 'o', 00H, 'r', 00H, 't', 00H, '1', 00H, '1', 00H
	DB	'.', 00H, 'h', 00H, 'l', 00H, 's', 00H, 'l', 00H, 00H, 00H
	ORG $+2
$SG190208 DB	'BitonicSort', 00H
$SG190199 DB	'D', 00H, 'X', 00H, 'U', 00H, 'T', 00H, 'C', 00H, 'o', 00H
	DB	'm', 00H, 'p', 00H, 'i', 00H, 'l', 00H, 'e', 00H, 'F', 00H, 'r'
	DB	00H, 'o', 00H, 'm', 00H, 'F', 00H, 'i', 00H, 'l', 00H, 'e', 00H
	DB	'(', 00H, 'L', 00H, '"', 00H, 'C', 00H, 'o', 00H, 'm', 00H, 'p'
	DB	00H, 'u', 00H, 't', 00H, 'e', 00H, 'S', 00H, 'h', 00H, 'a', 00H
	DB	'd', 00H, 'e', 00H, 'r', 00H, 'S', 00H, 'o', 00H, 'r', 00H, 't'
	DB	00H, '1', 00H, '1', 00H, '.', 00H, 'h', 00H, 'l', 00H, 's', 00H
	DB	'l', 00H, '"', 00H, ',', 00H, ' ', 00H, 'n', 00H, 'u', 00H, 'l'
	DB	00H, 'l', 00H, 'p', 00H, 't', 00H, 'r', 00H, ',', 00H, ' ', 00H
	DB	'"', 00H, 'B', 00H, 'i', 00H, 't', 00H, 'o', 00H, 'n', 00H, 'i'
	DB	00H, 'c', 00H, 'S', 00H, 'o', 00H, 'r', 00H, 't', 00H, '"', 00H
	DB	',', 00H, ' ', 00H, 'C', 00H, 'S', 00H, 'T', 00H, 'a', 00H, 'r'
	DB	00H, 'g', 00H, 'e', 00H, 't', 00H, ',', 00H, ' ', 00H, 'D', 00H
	DB	'3', 00H, 'D', 00H, 'C', 00H, 'O', 00H, 'M', 00H, 'P', 00H, 'I'
	DB	00H, 'L', 00H, 'E', 00H, '_', 00H, 'E', 00H, 'N', 00H, 'A', 00H
	DB	'B', 00H, 'L', 00H, 'E', 00H, '_', 00H, 'S', 00H, 'T', 00H, 'R'
	DB	00H, 'I', 00H, 'C', 00H, 'T', 00H, 'N', 00H, 'E', 00H, 'S', 00H
	DB	'S', 00H, ',', 00H, ' ', 00H, '0', 00H, ',', 00H, ' ', 00H, '&'
	DB	00H, 'p', 00H, 'B', 00H, 'l', 00H, 'o', 00H, 'b', 00H, ')', 00H
	DB	00H, 00H
$SG190200 DB	'FluidCS11.cpp', 00H
	ORG $+2
$SG190205 DB	'p', 00H, 'd', 00H, '3', 00H, 'd', 00H, 'D', 00H, 'e', 00H
	DB	'v', 00H, 'i', 00H, 'c', 00H, 'e', 00H, '-', 00H, '>', 00H, 'C'
	DB	00H, 'r', 00H, 'e', 00H, 'a', 00H, 't', 00H, 'e', 00H, 'C', 00H
	DB	'o', 00H, 'm', 00H, 'p', 00H, 'u', 00H, 't', 00H, 'e', 00H, 'S'
	DB	00H, 'h', 00H, 'a', 00H, 'd', 00H, 'e', 00H, 'r', 00H, '(', 00H
	DB	'p', 00H, 'B', 00H, 'l', 00H, 'o', 00H, 'b', 00H, '-', 00H, '>'
	DB	00H, 'G', 00H, 'e', 00H, 't', 00H, 'B', 00H, 'u', 00H, 'f', 00H
	DB	'f', 00H, 'e', 00H, 'r', 00H, 'P', 00H, 'o', 00H, 'i', 00H, 'n'
	DB	00H, 't', 00H, 'e', 00H, 'r', 00H, '(', 00H, ')', 00H, ',', 00H
	DB	' ', 00H, 'p', 00H, 'B', 00H, 'l', 00H, 'o', 00H, 'b', 00H, '-'
	DB	00H, '>', 00H, 'G', 00H, 'e', 00H, 't', 00H, 'B', 00H, 'u', 00H
	DB	'f', 00H, 'f', 00H, 'e', 00H, 'r', 00H, 'S', 00H, 'i', 00H, 'z'
	DB	00H, 'e', 00H, '(', 00H, ')', 00H, ',', 00H, ' ', 00H, 'n', 00H
	DB	'u', 00H, 'l', 00H, 'l', 00H, 'p', 00H, 't', 00H, 'r', 00H, ','
	DB	00H, ' ', 00H, '&', 00H, 'g', 00H, '_', 00H, 'p', 00H, 'S', 00H
	DB	'o', 00H, 'r', 00H, 't', 00H, 'B', 00H, 'i', 00H, 't', 00H, 'o'
	DB	00H, 'n', 00H, 'i', 00H, 'c', 00H, ')', 00H, 00H, 00H
	ORG $+2
$SG190206 DB	'FluidCS11.cpp', 00H
	ORG $+2
$SG190209 DB	'MatrixTranspose', 00H
$SG190210 DB	'C', 00H, 'o', 00H, 'm', 00H, 'p', 00H, 'u', 00H, 't', 00H
	DB	'e', 00H, 'S', 00H, 'h', 00H, 'a', 00H, 'd', 00H, 'e', 00H, 'r'
	DB	00H, 'S', 00H, 'o', 00H, 'r', 00H, 't', 00H, '1', 00H, '1', 00H
	DB	'.', 00H, 'h', 00H, 'l', 00H, 's', 00H, 'l', 00H, 00H, 00H
	ORG $+2
$SG190215 DB	'D', 00H, 'X', 00H, 'U', 00H, 'T', 00H, 'C', 00H, 'o', 00H
	DB	'm', 00H, 'p', 00H, 'i', 00H, 'l', 00H, 'e', 00H, 'F', 00H, 'r'
	DB	00H, 'o', 00H, 'm', 00H, 'F', 00H, 'i', 00H, 'l', 00H, 'e', 00H
	DB	'(', 00H, 'L', 00H, '"', 00H, 'C', 00H, 'o', 00H, 'm', 00H, 'p'
	DB	00H, 'u', 00H, 't', 00H, 'e', 00H, 'S', 00H, 'h', 00H, 'a', 00H
	DB	'd', 00H, 'e', 00H, 'r', 00H, 'S', 00H, 'o', 00H, 'r', 00H, 't'
	DB	00H, '1', 00H, '1', 00H, '.', 00H, 'h', 00H, 'l', 00H, 's', 00H
	DB	'l', 00H, '"', 00H, ',', 00H, ' ', 00H, 'n', 00H, 'u', 00H, 'l'
	DB	00H, 'l', 00H, 'p', 00H, 't', 00H, 'r', 00H, ',', 00H, ' ', 00H
	DB	'"', 00H, 'M', 00H, 'a', 00H, 't', 00H, 'r', 00H, 'i', 00H, 'x'
	DB	00H, 'T', 00H, 'r', 00H, 'a', 00H, 'n', 00H, 's', 00H, 'p', 00H
	DB	'o', 00H, 's', 00H, 'e', 00H, '"', 00H, ',', 00H, ' ', 00H, 'C'
	DB	00H, 'S', 00H, 'T', 00H, 'a', 00H, 'r', 00H, 'g', 00H, 'e', 00H
	DB	't', 00H, ',', 00H, ' ', 00H, 'D', 00H, '3', 00H, 'D', 00H, 'C'
	DB	00H, 'O', 00H, 'M', 00H, 'P', 00H, 'I', 00H, 'L', 00H, 'E', 00H
	DB	'_', 00H, 'E', 00H, 'N', 00H, 'A', 00H, 'B', 00H, 'L', 00H, 'E'
	DB	00H, '_', 00H, 'S', 00H, 'T', 00H, 'R', 00H, 'I', 00H, 'C', 00H
	DB	'T', 00H, 'N', 00H, 'E', 00H, 'S', 00H, 'S', 00H, ',', 00H, ' '
	DB	00H, '0', 00H, ',', 00H, ' ', 00H, '&', 00H, 'p', 00H, 'B', 00H
	DB	'l', 00H, 'o', 00H, 'b', 00H, ')', 00H, 00H, 00H
$SG190216 DB	'FluidCS11.cpp', 00H
	ORG $+2
$SG190221 DB	'p', 00H, 'd', 00H, '3', 00H, 'd', 00H, 'D', 00H, 'e', 00H
	DB	'v', 00H, 'i', 00H, 'c', 00H, 'e', 00H, '-', 00H, '>', 00H, 'C'
	DB	00H, 'r', 00H, 'e', 00H, 'a', 00H, 't', 00H, 'e', 00H, 'C', 00H
	DB	'o', 00H, 'm', 00H, 'p', 00H, 'u', 00H, 't', 00H, 'e', 00H, 'S'
	DB	00H, 'h', 00H, 'a', 00H, 'd', 00H, 'e', 00H, 'r', 00H, '(', 00H
	DB	'p', 00H, 'B', 00H, 'l', 00H, 'o', 00H, 'b', 00H, '-', 00H, '>'
	DB	00H, 'G', 00H, 'e', 00H, 't', 00H, 'B', 00H, 'u', 00H, 'f', 00H
	DB	'f', 00H, 'e', 00H, 'r', 00H, 'P', 00H, 'o', 00H, 'i', 00H, 'n'
	DB	00H, 't', 00H, 'e', 00H, 'r', 00H, '(', 00H, ')', 00H, ',', 00H
	DB	' ', 00H, 'p', 00H, 'B', 00H, 'l', 00H, 'o', 00H, 'b', 00H, '-'
	DB	00H, '>', 00H, 'G', 00H, 'e', 00H, 't', 00H, 'B', 00H, 'u', 00H
	DB	'f', 00H, 'f', 00H, 'e', 00H, 'r', 00H, 'S', 00H, 'i', 00H, 'z'
	DB	00H, 'e', 00H, '(', 00H, ')', 00H, ',', 00H, ' ', 00H, 'n', 00H
	DB	'u', 00H, 'l', 00H, 'l', 00H, 'p', 00H, 't', 00H, 'r', 00H, ','
	DB	00H, ' ', 00H, '&', 00H, 'g', 00H, '_', 00H, 'p', 00H, 'S', 00H
	DB	'o', 00H, 'r', 00H, 't', 00H, 'T', 00H, 'r', 00H, 'a', 00H, 'n'
	DB	00H, 's', 00H, 'p', 00H, 'o', 00H, 's', 00H, 'e', 00H, ')', 00H
	DB	00H, 00H
	ORG $+2
$SG190222 DB	'FluidCS11.cpp', 00H
	ORG $+2
$SG190224 DB	'MatrixTranspose', 00H
$SG190225 DB	'Process', 00H
$SG190226 DB	'F', 00H, 'l', 00H, 'u', 00H, 'i', 00H, 'd', 00H, 'C', 00H
	DB	'S', 00H, '1', 00H, '1', 00H, '.', 00H, 'h', 00H, 'l', 00H, 's'
	DB	00H, 'l', 00H, 00H, 00H
	ORG $+2
$SG190231 DB	'D', 00H, 'X', 00H, 'U', 00H, 'T', 00H, 'C', 00H, 'o', 00H
	DB	'm', 00H, 'p', 00H, 'i', 00H, 'l', 00H, 'e', 00H, 'F', 00H, 'r'
	DB	00H, 'o', 00H, 'm', 00H, 'F', 00H, 'i', 00H, 'l', 00H, 'e', 00H
	DB	'(', 00H, 'L', 00H, '"', 00H, 'F', 00H, 'l', 00H, 'u', 00H, 'i'
	DB	00H, 'd', 00H, 'C', 00H, 'S', 00H, '1', 00H, '1', 00H, '.', 00H
	DB	'h', 00H, 'l', 00H, 's', 00H, 'l', 00H, '"', 00H, ',', 00H, ' '
	DB	00H, 'n', 00H, 'u', 00H, 'l', 00H, 'l', 00H, 'p', 00H, 't', 00H
	DB	'r', 00H, ',', 00H, ' ', 00H, '"', 00H, 'P', 00H, 'r', 00H, 'o'
	DB	00H, 'c', 00H, 'e', 00H, 's', 00H, 's', 00H, '"', 00H, ',', 00H
	DB	' ', 00H, 'C', 00H, 'S', 00H, 'T', 00H, 'a', 00H, 'r', 00H, 'g'
	DB	00H, 'e', 00H, 't', 00H, ',', 00H, ' ', 00H, 'D', 00H, '3', 00H
	DB	'D', 00H, 'C', 00H, 'O', 00H, 'M', 00H, 'P', 00H, 'I', 00H, 'L'
	DB	00H, 'E', 00H, '_', 00H, 'E', 00H, 'N', 00H, 'A', 00H, 'B', 00H
	DB	'L', 00H, 'E', 00H, '_', 00H, 'S', 00H, 'T', 00H, 'R', 00H, 'I'
	DB	00H, 'C', 00H, 'T', 00H, 'N', 00H, 'E', 00H, 'S', 00H, 'S', 00H
	DB	',', 00H, ' ', 00H, '0', 00H, ',', 00H, ' ', 00H, '&', 00H, 'p'
	DB	00H, 'B', 00H, 'l', 00H, 'o', 00H, 'b', 00H, ')', 00H, 00H, 00H
$SG190232 DB	'FluidCS11.cpp', 00H
	ORG $+2
$SG190240 DB	'ProcessCS', 00H
	ORG $+2
$SG190237 DB	'p', 00H, 'd', 00H, '3', 00H, 'd', 00H, 'D', 00H, 'e', 00H
	DB	'v', 00H, 'i', 00H, 'c', 00H, 'e', 00H, '-', 00H, '>', 00H, 'C'
	DB	00H, 'r', 00H, 'e', 00H, 'a', 00H, 't', 00H, 'e', 00H, 'C', 00H
	DB	'o', 00H, 'm', 00H, 'p', 00H, 'u', 00H, 't', 00H, 'e', 00H, 'S'
	DB	00H, 'h', 00H, 'a', 00H, 'd', 00H, 'e', 00H, 'r', 00H, '(', 00H
	DB	'p', 00H, 'B', 00H, 'l', 00H, 'o', 00H, 'b', 00H, '-', 00H, '>'
	DB	00H, 'G', 00H, 'e', 00H, 't', 00H, 'B', 00H, 'u', 00H, 'f', 00H
	DB	'f', 00H, 'e', 00H, 'r', 00H, 'P', 00H, 'o', 00H, 'i', 00H, 'n'
	DB	00H, 't', 00H, 'e', 00H, 'r', 00H, '(', 00H, ')', 00H, ',', 00H
	DB	' ', 00H, 'p', 00H, 'B', 00H, 'l', 00H, 'o', 00H, 'b', 00H, '-'
	DB	00H, '>', 00H, 'G', 00H, 'e', 00H, 't', 00H, 'B', 00H, 'u', 00H
	DB	'f', 00H, 'f', 00H, 'e', 00H, 'r', 00H, 'S', 00H, 'i', 00H, 'z'
	DB	00H, 'e', 00H, '(', 00H, ')', 00H, ',', 00H, ' ', 00H, 'n', 00H
	DB	'u', 00H, 'l', 00H, 'l', 00H, 'p', 00H, 't', 00H, 'r', 00H, ','
	DB	00H, ' ', 00H, '&', 00H, 'm', 00H, '_', 00H, 'p', 00H, 'P', 00H
	DB	'r', 00H, 'o', 00H, 'c', 00H, 'e', 00H, 's', 00H, 's', 00H, 'C'
	DB	00H, 'S', 00H, ')', 00H, 00H, 00H
	ORG $+2
$SG190238 DB	'FluidCS11.cpp', 00H
	ORG $+2
$SG189219 DB	'FPS : ', 00H
	ORG $+1
$SG190245 DB	'C', 00H, 'r', 00H, 'e', 00H, 'a', 00H, 't', 00H, 'e', 00H
	DB	'S', 00H, 'i', 00H, 'm', 00H, 'u', 00H, 'l', 00H, 'a', 00H, 't'
	DB	00H, 'i', 00H, 'o', 00H, 'n', 00H, 'B', 00H, 'u', 00H, 'f', 00H
	DB	'f', 00H, 'e', 00H, 'r', 00H, 's', 00H, '(', 00H, 'p', 00H, 'd'
	DB	00H, '3', 00H, 'd', 00H, 'D', 00H, 'e', 00H, 'v', 00H, 'i', 00H
	DB	'c', 00H, 'e', 00H, ')', 00H, 00H, 00H
$SG190246 DB	'FluidCS11.cpp', 00H
	ORG $+2
$SG190257 DB	'C', 00H, 'r', 00H, 'e', 00H, 'a', 00H, 't', 00H, 'e', 00H
	DB	'C', 00H, 'o', 00H, 'n', 00H, 's', 00H, 't', 00H, 'a', 00H, 'n'
	DB	00H, 't', 00H, 'B', 00H, 'u', 00H, 'f', 00H, 'f', 00H, 'e', 00H
	DB	'r', 00H, '<', 00H, ' ', 00H, 'C', 00H, 'B', 00H, 'S', 00H, 'i'
	DB	00H, 'm', 00H, 'u', 00H, 'l', 00H, 'a', 00H, 't', 00H, 'i', 00H
	DB	'o', 00H, 'n', 00H, 'C', 00H, 'o', 00H, 'n', 00H, 's', 00H, 't'
	DB	00H, 'a', 00H, 'n', 00H, 't', 00H, 's', 00H, ' ', 00H, '>', 00H
	DB	'(', 00H, 'p', 00H, 'd', 00H, '3', 00H, 'd', 00H, 'D', 00H, 'e'
	DB	00H, 'v', 00H, 'i', 00H, 'c', 00H, 'e', 00H, ',', 00H, ' ', 00H
	DB	'&', 00H, 'g', 00H, '_', 00H, 'p', 00H, 'c', 00H, 'b', 00H, 'S'
	DB	00H, 'i', 00H, 'm', 00H, 'u', 00H, 'l', 00H, 'a', 00H, 't', 00H
	DB	'i', 00H, 'o', 00H, 'n', 00H, 'C', 00H, 'o', 00H, 'n', 00H, 's'
	DB	00H, 't', 00H, 'a', 00H, 'n', 00H, 't', 00H, 's', 00H, ')', 00H
	DB	00H, 00H
	ORG $+2
$SG190258 DB	'FluidCS11.cpp', 00H
	ORG $+2
$SG189266 DB	' Stats : ', 00H
	ORG $+2
$SG190269 DB	'C', 00H, 'r', 00H, 'e', 00H, 'a', 00H, 't', 00H, 'e', 00H
	DB	'C', 00H, 'o', 00H, 'n', 00H, 's', 00H, 't', 00H, 'a', 00H, 'n'
	DB	00H, 't', 00H, 'B', 00H, 'u', 00H, 'f', 00H, 'f', 00H, 'e', 00H
	DB	'r', 00H, '<', 00H, ' ', 00H, 'C', 00H, 'B', 00H, 'R', 00H, 'e'
	DB	00H, 'n', 00H, 'd', 00H, 'e', 00H, 'r', 00H, 'C', 00H, 'o', 00H
	DB	'n', 00H, 's', 00H, 't', 00H, 'a', 00H, 'n', 00H, 't', 00H, 's'
	DB	00H, ' ', 00H, '>', 00H, '(', 00H, 'p', 00H, 'd', 00H, '3', 00H
	DB	'd', 00H, 'D', 00H, 'e', 00H, 'v', 00H, 'i', 00H, 'c', 00H, 'e'
	DB	00H, ',', 00H, ' ', 00H, '&', 00H, 'g', 00H, '_', 00H, 'p', 00H
	DB	'c', 00H, 'b', 00H, 'R', 00H, 'e', 00H, 'n', 00H, 'd', 00H, 'e'
	DB	00H, 'r', 00H, 'C', 00H, 'o', 00H, 'n', 00H, 's', 00H, 't', 00H
	DB	'a', 00H, 'n', 00H, 't', 00H, 's', 00H, ')', 00H, 00H, 00H
	ORG $+2
$SG190270 DB	'FluidCS11.cpp', 00H
	ORG $+2
$SG189323 DB	' FrameStats : ', 00H
	ORG $+5
$SG190281 DB	'C', 00H, 'r', 00H, 'e', 00H, 'a', 00H, 't', 00H, 'e', 00H
	DB	'C', 00H, 'o', 00H, 'n', 00H, 's', 00H, 't', 00H, 'a', 00H, 'n'
	DB	00H, 't', 00H, 'B', 00H, 'u', 00H, 'f', 00H, 'f', 00H, 'e', 00H
	DB	'r', 00H, '<', 00H, ' ', 00H, 'S', 00H, 'o', 00H, 'r', 00H, 't'
	DB	00H, 'C', 00H, 'B', 00H, ' ', 00H, '>', 00H, '(', 00H, 'p', 00H
	DB	'd', 00H, '3', 00H, 'd', 00H, 'D', 00H, 'e', 00H, 'v', 00H, 'i'
	DB	00H, 'c', 00H, 'e', 00H, ',', 00H, ' ', 00H, '&', 00H, 'g', 00H
	DB	'_', 00H, 'p', 00H, 'S', 00H, 'o', 00H, 'r', 00H, 't', 00H, 'C'
	DB	00H, 'B', 00H, ')', 00H, 00H, 00H
	ORG $+2
$SG190282 DB	'FluidCS11.cpp', 00H
CONST	ENDS
;	COMDAT ?White@Colors@DirectX@@3UXMVECTORF32@2@B
CONST	SEGMENT
?White@Colors@DirectX@@3UXMVECTORF32@2@B DD 03f800000r ; 1 ; DirectX::Colors::White
	DD	03f800000r			; 1
	DD	03f800000r			; 1
	DD	03f800000r			; 1
CONST	ENDS
;	COMDAT ?Wheat@Colors@DirectX@@3UXMVECTORF32@2@B
CONST	SEGMENT
?Wheat@Colors@DirectX@@3UXMVECTORF32@2@B DD 03f75f5f7r ; 0.960784 ; DirectX::Colors::Wheat
	DD	03f5edee0r			; 0.870588
	DD	03f33b3b4r			; 0.701961
	DD	03f800000r			; 1
CONST	ENDS
;	COMDAT ?digits10@_Num_base@std@@2HB
CONST	SEGMENT
?digits10@_Num_base@std@@2HB DD 00H			; std::_Num_base::digits10
CONST	ENDS
;	COMDAT ?Violet@Colors@DirectX@@3UXMVECTORF32@2@B
CONST	SEGMENT
?Violet@Colors@DirectX@@3UXMVECTORF32@2@B DD 03f6eeef0r ; 0.933333 ; DirectX::Colors::Violet
	DD	03f028283r			; 0.509804
	DD	03f6eeef0r			; 0.933333
	DD	03f800000r			; 1
CONST	ENDS
;	COMDAT ?Turquoise@Colors@DirectX@@3UXMVECTORF32@2@B
CONST	SEGMENT
?Turquoise@Colors@DirectX@@3UXMVECTORF32@2@B DD 03e808081r ; 0.25098 ; DirectX::Colors::Turquoise
	DD	03f60e0e2r			; 0.878431
	DD	03f50d0d2r			; 0.815686
	DD	03f800000r			; 1
CONST	ENDS
;	COMDAT ?Transparent@Colors@DirectX@@3UXMVECTORF32@2@B
CONST	SEGMENT
?Transparent@Colors@DirectX@@3UXMVECTORF32@2@B DD 000000000r ; 0 ; DirectX::Colors::Transparent
	DD	000000000r			; 0
	DD	000000000r			; 0
	DD	000000000r			; 0
CONST	ENDS
;	COMDAT ?digits@_Num_base@std@@2HB
CONST	SEGMENT
?digits@_Num_base@std@@2HB DD 00H			; std::_Num_base::digits
CONST	ENDS
;	COMDAT ?Tomato@Colors@DirectX@@3UXMVECTORF32@2@B
CONST	SEGMENT
?Tomato@Colors@DirectX@@3UXMVECTORF32@2@B DD 03f800000r ; 1 ; DirectX::Colors::Tomato
	DD	03ec6c6c8r			; 0.388235
	DD	03e8e8e8fr			; 0.278431
	DD	03f800000r			; 1
CONST	ENDS
;	COMDAT ?Thistle@Colors@DirectX@@3UXMVECTORF32@2@B
CONST	SEGMENT
?Thistle@Colors@DirectX@@3UXMVECTORF32@2@B DD 03f58d8dar ; 0.847059 ; DirectX::Colors::Thistle
	DD	03f3fbfc0r			; 0.74902
	DD	03f58d8dar			; 0.847059
	DD	03f800000r			; 1
CONST	ENDS
;	COMDAT ?Teal@Colors@DirectX@@3UXMVECTORF32@2@B
CONST	SEGMENT
?Teal@Colors@DirectX@@3UXMVECTORF32@2@B DD 000000000r ; 0 ; DirectX::Colors::Teal
	DD	03f008081r			; 0.501961
	DD	03f008081r			; 0.501961
	DD	03f800000r			; 1
CONST	ENDS
;	COMDAT ?round_style@_Num_base@std@@2W4float_round_style@2@B
CONST	SEGMENT
?round_style@_Num_base@std@@2W4float_round_style@2@B DD 00H ; std::_Num_base::round_style
CONST	ENDS
;	COMDAT ?Tan@Colors@DirectX@@3UXMVECTORF32@2@B
CONST	SEGMENT
?Tan@Colors@DirectX@@3UXMVECTORF32@2@B DD 03f52d2d4r ; 0.823529 ; DirectX::Colors::Tan
	DD	03f34b4b5r			; 0.705882
	DD	03f0c8c8dr			; 0.54902
	DD	03f800000r			; 1
CONST	ENDS
;	COMDAT ?SteelBlue@Colors@DirectX@@3UXMVECTORF32@2@B
CONST	SEGMENT
?SteelBlue@Colors@DirectX@@3UXMVECTORF32@2@B DD 03e8c8c8dr ; 0.27451 ; DirectX::Colors::SteelBlue
	DD	03f028283r			; 0.509804
	DD	03f34b4b5r			; 0.705882
	DD	03f800000r			; 1
CONST	ENDS
;	COMDAT ?SpringGreen@Colors@DirectX@@3UXMVECTORF32@2@B
CONST	SEGMENT
?SpringGreen@Colors@DirectX@@3UXMVECTORF32@2@B DD 000000000r ; 0 ; DirectX::Colors::SpringGreen
	DD	03f800000r			; 1
	DD	03efeff00r			; 0.498039
	DD	03f800000r			; 1
CONST	ENDS
;	COMDAT ?traps@_Num_base@std@@2_NB
CONST	SEGMENT
?traps@_Num_base@std@@2_NB DB 00H			; std::_Num_base::traps
CONST	ENDS
;	COMDAT ?Snow@Colors@DirectX@@3UXMVECTORF32@2@B
CONST	SEGMENT
?Snow@Colors@DirectX@@3UXMVECTORF32@2@B DD 03f800000r ; 1 ; DirectX::Colors::Snow
	DD	03f7afafcr			; 0.980392
	DD	03f7afafcr			; 0.980392
	DD	03f800000r			; 1
CONST	ENDS
;	COMDAT _IID_ID3D11ShaderReflectionConstantBuffer
CONST	SEGMENT
_IID_ID3D11ShaderReflectionConstantBuffer DD 0eb62d63dH
	DW	093ddH
	DW	04318H
	DB	08aH
	DB	0e8H
	DB	0c6H
	DB	0f8H
	DB	03aH
	DB	0d3H
	DB	071H
	DB	0b8H
CONST	ENDS
;	COMDAT ?SlateGray@Colors@DirectX@@3UXMVECTORF32@2@B
CONST	SEGMENT
?SlateGray@Colors@DirectX@@3UXMVECTORF32@2@B DD 03ee0e0e2r ; 0.439216 ; DirectX::Colors::SlateGray
	DD	03f008081r			; 0.501961
	DD	03f109091r			; 0.564706
	DD	03f800000r			; 1
CONST	ENDS
;	COMDAT ?SlateBlue@Colors@DirectX@@3UXMVECTORF32@2@B
CONST	SEGMENT
?SlateBlue@Colors@DirectX@@3UXMVECTORF32@2@B DD 03ed4d4d6r ; 0.415686 ; DirectX::Colors::SlateBlue
	DD	03eb4b4b5r			; 0.352941
	DD	03f4dcdcfr			; 0.803922
	DD	03f800000r			; 1
CONST	ENDS
;	COMDAT ?tinyness_before@_Num_base@std@@2_NB
CONST	SEGMENT
?tinyness_before@_Num_base@std@@2_NB DB 00H		; std::_Num_base::tinyness_before
CONST	ENDS
;	COMDAT ?SkyBlue@Colors@DirectX@@3UXMVECTORF32@2@B
CONST	SEGMENT
?SkyBlue@Colors@DirectX@@3UXMVECTORF32@2@B DD 03f078788r ; 0.529412 ; DirectX::Colors::SkyBlue
	DD	03f4eced0r			; 0.807843
	DD	03f6bebedr			; 0.921569
	DD	03f800000r			; 1
CONST	ENDS
;	COMDAT ?Silver@Colors@DirectX@@3UXMVECTORF32@2@B
CONST	SEGMENT
?Silver@Colors@DirectX@@3UXMVECTORF32@2@B DD 03f40c0c2r ; 0.752941 ; DirectX::Colors::Silver
	DD	03f40c0c2r			; 0.752941
	DD	03f40c0c2r			; 0.752941
	DD	03f800000r			; 1
CONST	ENDS
;	COMDAT ?Sienna@Colors@DirectX@@3UXMVECTORF32@2@B
CONST	SEGMENT
?Sienna@Colors@DirectX@@3UXMVECTORF32@2@B DD 03f20a0a1r ; 0.627451 ; DirectX::Colors::Sienna
	DD	03ea4a4a5r			; 0.321569
	DD	03e34b4b5r			; 0.176471
	DD	03f800000r			; 1
CONST	ENDS
;	COMDAT ?is_specialized@_Num_base@std@@2_NB
CONST	SEGMENT
?is_specialized@_Num_base@std@@2_NB DB 00H		; std::_Num_base::is_specialized
CONST	ENDS
;	COMDAT ?SeaShell@Colors@DirectX@@3UXMVECTORF32@2@B
CONST	SEGMENT
?SeaShell@Colors@DirectX@@3UXMVECTORF32@2@B DD 03f800000r ; 1 ; DirectX::Colors::SeaShell
	DD	03f75f5f7r			; 0.960784
	DD	03f6eeef0r			; 0.933333
	DD	03f800000r			; 1
CONST	ENDS
;	COMDAT ?g_XMInvLgE@DirectX@@3UXMVECTORF32@1@B
CONST	SEGMENT
?g_XMInvLgE@DirectX@@3UXMVECTORF32@1@B DD 03f317218r ; 0.693147 ; DirectX::g_XMInvLgE
	DD	03f317218r			; 0.693147
	DD	03f317218r			; 0.693147
	DD	03f317218r			; 0.693147
CONST	ENDS
;	COMDAT ?SeaGreen@Colors@DirectX@@3UXMVECTORF32@2@B
CONST	SEGMENT
?SeaGreen@Colors@DirectX@@3UXMVECTORF32@2@B DD 03e38b8b9r ; 0.180392 ; DirectX::Colors::SeaGreen
	DD	03f0b8b8cr			; 0.545098
	DD	03eaeaeafr			; 0.341176
	DD	03f800000r			; 1
CONST	ENDS
;	COMDAT ?g_XMLgE@DirectX@@3UXMVECTORF32@1@B
CONST	SEGMENT
?g_XMLgE@DirectX@@3UXMVECTORF32@1@B DD 03fb8aa3br ; 1.4427 ; DirectX::g_XMLgE
	DD	03fb8aa3br			; 1.4427
	DD	03fb8aa3br			; 1.4427
	DD	03fb8aa3br			; 1.4427
CONST	ENDS
;	COMDAT ?SandyBrown@Colors@DirectX@@3UXMVECTORF32@2@B
CONST	SEGMENT
?SandyBrown@Colors@DirectX@@3UXMVECTORF32@2@B DD 03f74f4f6r ; 0.956863 ; DirectX::Colors::SandyBrown
	DD	03f24a4a5r			; 0.643137
	DD	03ec0c0c2r			; 0.376471
	DD	03f800000r			; 1
CONST	ENDS
;	COMDAT ?g_XMLogEst7@DirectX@@3UXMVECTORF32@1@B
CONST	SEGMENT
?g_XMLogEst7@DirectX@@3UXMVECTORF32@1@B DD 0bc2d4f59r ; -0.010578 ; DirectX::g_XMLogEst7
	DD	0bc2d4f59r			; -0.010578
	DD	0bc2d4f59r			; -0.010578
	DD	0bc2d4f59r			; -0.010578
CONST	ENDS
;	COMDAT ?is_signed@_Num_base@std@@2_NB
CONST	SEGMENT
?is_signed@_Num_base@std@@2_NB DB 00H			; std::_Num_base::is_signed
CONST	ENDS
;	COMDAT ?Salmon@Colors@DirectX@@3UXMVECTORF32@2@B
CONST	SEGMENT
?Salmon@Colors@DirectX@@3UXMVECTORF32@2@B DD 03f7afafcr ; 0.980392 ; DirectX::Colors::Salmon
	DD	03f008081r			; 0.501961
	DD	03ee4e4e6r			; 0.447059
	DD	03f800000r			; 1
CONST	ENDS
;	COMDAT ?g_XMLogEst6@DirectX@@3UXMVECTORF32@1@B
CONST	SEGMENT
?g_XMLogEst6@DirectX@@3UXMVECTORF32@1@B DD 03d6a1405r ; 0.057148 ; DirectX::g_XMLogEst6
	DD	03d6a1405r			; 0.057148
	DD	03d6a1405r			; 0.057148
	DD	03d6a1405r			; 0.057148
CONST	ENDS
;	COMDAT ?g_XMLogEst5@DirectX@@3UXMVECTORF32@1@B
CONST	SEGMENT
?g_XMLogEst5@DirectX@@3UXMVECTORF32@1@B DD 0be153261r ; -0.1457 ; DirectX::g_XMLogEst5
	DD	0be153261r			; -0.1457
	DD	0be153261r			; -0.1457
	DD	0be153261r			; -0.1457
CONST	ENDS
;	COMDAT ?SaddleBrown@Colors@DirectX@@3UXMVECTORF32@2@B
CONST	SEGMENT
?SaddleBrown@Colors@DirectX@@3UXMVECTORF32@2@B DD 03f0b8b8cr ; 0.545098 ; DirectX::Colors::SaddleBrown
	DD	03e8a8a8br			; 0.270588
	DD	03d989899r			; 0.0745098
	DD	03f800000r			; 1
CONST	ENDS
;	COMDAT ?RoyalBlue@Colors@DirectX@@3UXMVECTORF32@2@B
CONST	SEGMENT
?RoyalBlue@Colors@DirectX@@3UXMVECTORF32@2@B DD 03e828283r ; 0.254902 ; DirectX::Colors::RoyalBlue
	DD	03ed2d2d4r			; 0.411765
	DD	03f61e1e3r			; 0.882353
	DD	03f800000r			; 1
CONST	ENDS
;	COMDAT ?g_XMLogEst4@DirectX@@3UXMVECTORF32@1@B
CONST	SEGMENT
?g_XMLogEst4@DirectX@@3UXMVECTORF32@1@B DD 03e7e8e61r ; 0.24859 ; DirectX::g_XMLogEst4
	DD	03e7e8e61r			; 0.24859
	DD	03e7e8e61r			; 0.24859
	DD	03e7e8e61r			; 0.24859
CONST	ENDS
;	COMDAT ?is_modulo@_Num_base@std@@2_NB
CONST	SEGMENT
?is_modulo@_Num_base@std@@2_NB DB 00H			; std::_Num_base::is_modulo
CONST	ENDS
;	COMDAT ?RosyBrown@Colors@DirectX@@3UXMVECTORF32@2@B
CONST	SEGMENT
?RosyBrown@Colors@DirectX@@3UXMVECTORF32@2@B DD 03f3cbcbdr ; 0.737255 ; DirectX::Colors::RosyBrown
	DD	03f0f8f90r			; 0.560784
	DD	03f0f8f90r			; 0.560784
	DD	03f800000r			; 1
CONST	ENDS
;	COMDAT ?g_XMLogEst3@DirectX@@3UXMVECTORF32@1@B
CONST	SEGMENT
?g_XMLogEst3@DirectX@@3UXMVECTORF32@1@B DD 0beb359der ; -0.350295 ; DirectX::g_XMLogEst3
	DD	0beb359der			; -0.350295
	DD	0beb359der			; -0.350295
	DD	0beb359der			; -0.350295
CONST	ENDS
;	COMDAT ?Red@Colors@DirectX@@3UXMVECTORF32@2@B
CONST	SEGMENT
?Red@Colors@DirectX@@3UXMVECTORF32@2@B DD 03f800000r ; 1 ; DirectX::Colors::Red
	DD	000000000r			; 0
	DD	000000000r			; 0
	DD	03f800000r			; 1
CONST	ENDS
;	COMDAT ?g_XMLogEst2@DirectX@@3UXMVECTORF32@1@B
CONST	SEGMENT
